ARM GAS  /tmp/ccYsdBMV.s 			page 1


   1              		.cpu cortex-m33
   2              		.arch armv8-m.main
   3              		.fpu fpv4-sp-d16
   4              		.arch_extension dsp
   5              		.eabi_attribute 27, 1
   6              		.eabi_attribute 28, 1
   7              		.eabi_attribute 20, 1
   8              		.eabi_attribute 21, 1
   9              		.eabi_attribute 23, 3
  10              		.eabi_attribute 24, 1
  11              		.eabi_attribute 25, 1
  12              		.eabi_attribute 26, 1
  13              		.eabi_attribute 30, 1
  14              		.eabi_attribute 34, 1
  15              		.eabi_attribute 18, 4
  16              		.file	"_string.c"
  17              		.text
  18              	.Ltext0:
  19              		.cfi_sections	.debug_frame
  20              		.file 1 "/mnt/c/Users/31740/Documents/codes/newcore-rp2350/lib/_string.c"
  21              		.section	.text.strcpy,"ax",%progbits
  22              		.align	1
  23              		.global	strcpy
  24              		.syntax unified
  25              		.thumb
  26              		.thumb_func
  28              	strcpy:
  29              	.LVL0:
  30              	.LFB57:
   1:/mnt/c/Users/31740/Documents/codes/newcore-rp2350/lib/_string.c **** // SPDX-License-Identifier: GPL-2.0
   2:/mnt/c/Users/31740/Documents/codes/newcore-rp2350/lib/_string.c **** /*
   3:/mnt/c/Users/31740/Documents/codes/newcore-rp2350/lib/_string.c ****  *  linux/lib/string.c
   4:/mnt/c/Users/31740/Documents/codes/newcore-rp2350/lib/_string.c ****  *
   5:/mnt/c/Users/31740/Documents/codes/newcore-rp2350/lib/_string.c ****  *  Copyright (C) 1991, 1992  Linus Torvalds
   6:/mnt/c/Users/31740/Documents/codes/newcore-rp2350/lib/_string.c ****  */
   7:/mnt/c/Users/31740/Documents/codes/newcore-rp2350/lib/_string.c **** 
   8:/mnt/c/Users/31740/Documents/codes/newcore-rp2350/lib/_string.c **** /*
   9:/mnt/c/Users/31740/Documents/codes/newcore-rp2350/lib/_string.c ****  * This file should be used only for "library" routines that may have
  10:/mnt/c/Users/31740/Documents/codes/newcore-rp2350/lib/_string.c ****  * alternative implementations on specific architectures (generally
  11:/mnt/c/Users/31740/Documents/codes/newcore-rp2350/lib/_string.c ****  * found in <asm-xx/string.h>), or get overloaded by FORTIFY_SOURCE.
  12:/mnt/c/Users/31740/Documents/codes/newcore-rp2350/lib/_string.c ****  * (Specifically, this file is built with __NO_FORTIFY.)
  13:/mnt/c/Users/31740/Documents/codes/newcore-rp2350/lib/_string.c ****  *
  14:/mnt/c/Users/31740/Documents/codes/newcore-rp2350/lib/_string.c ****  * Other helper functions should live in string_helpers.c.
  15:/mnt/c/Users/31740/Documents/codes/newcore-rp2350/lib/_string.c ****  */
  16:/mnt/c/Users/31740/Documents/codes/newcore-rp2350/lib/_string.c **** 
  17:/mnt/c/Users/31740/Documents/codes/newcore-rp2350/lib/_string.c **** #define __NO_FORTIFY
  18:/mnt/c/Users/31740/Documents/codes/newcore-rp2350/lib/_string.c **** #include <linux/bits.h>
  19:/mnt/c/Users/31740/Documents/codes/newcore-rp2350/lib/_string.c **** #include <linux/bug.h>
  20:/mnt/c/Users/31740/Documents/codes/newcore-rp2350/lib/_string.c **** #include <linux/ctype.h>
  21:/mnt/c/Users/31740/Documents/codes/newcore-rp2350/lib/_string.c **** #include <linux/errno.h>
  22:/mnt/c/Users/31740/Documents/codes/newcore-rp2350/lib/_string.c **** #include <linux/limits.h>
  23:/mnt/c/Users/31740/Documents/codes/newcore-rp2350/lib/_string.c **** #include <linux/linkage.h>
  24:/mnt/c/Users/31740/Documents/codes/newcore-rp2350/lib/_string.c **** #include <linux/stddef.h>
  25:/mnt/c/Users/31740/Documents/codes/newcore-rp2350/lib/_string.c **** #include <linux/string.h>
  26:/mnt/c/Users/31740/Documents/codes/newcore-rp2350/lib/_string.c **** #include <linux/types.h>
  27:/mnt/c/Users/31740/Documents/codes/newcore-rp2350/lib/_string.c **** 
  28:/mnt/c/Users/31740/Documents/codes/newcore-rp2350/lib/_string.c **** // #include <asm/page.h> 
ARM GAS  /tmp/ccYsdBMV.s 			page 2


  29:/mnt/c/Users/31740/Documents/codes/newcore-rp2350/lib/_string.c **** // #include <asm/rwonce.h>
  30:/mnt/c/Users/31740/Documents/codes/newcore-rp2350/lib/_string.c **** // #include <linux/unaligned.h>
  31:/mnt/c/Users/31740/Documents/codes/newcore-rp2350/lib/_string.c **** // #include <asm/word-at-a-time.h>
  32:/mnt/c/Users/31740/Documents/codes/newcore-rp2350/lib/_string.c **** 
  33:/mnt/c/Users/31740/Documents/codes/newcore-rp2350/lib/_string.c **** // #ifndef __HAVE_ARCH_STRNCASECMP
  34:/mnt/c/Users/31740/Documents/codes/newcore-rp2350/lib/_string.c **** // /**
  35:/mnt/c/Users/31740/Documents/codes/newcore-rp2350/lib/_string.c **** //  * strncasecmp - Case insensitive, length-limited string comparison
  36:/mnt/c/Users/31740/Documents/codes/newcore-rp2350/lib/_string.c **** //  * @s1: One string
  37:/mnt/c/Users/31740/Documents/codes/newcore-rp2350/lib/_string.c **** //  * @s2: The other string
  38:/mnt/c/Users/31740/Documents/codes/newcore-rp2350/lib/_string.c **** //  * @len: the maximum number of characters to compare
  39:/mnt/c/Users/31740/Documents/codes/newcore-rp2350/lib/_string.c **** //  */
  40:/mnt/c/Users/31740/Documents/codes/newcore-rp2350/lib/_string.c **** // int strncasecmp(const char *s1, const char *s2, size_t len)
  41:/mnt/c/Users/31740/Documents/codes/newcore-rp2350/lib/_string.c **** // {
  42:/mnt/c/Users/31740/Documents/codes/newcore-rp2350/lib/_string.c **** // 	/* Yes, Virginia, it had better be unsigned */
  43:/mnt/c/Users/31740/Documents/codes/newcore-rp2350/lib/_string.c **** // 	unsigned char c1, c2;
  44:/mnt/c/Users/31740/Documents/codes/newcore-rp2350/lib/_string.c **** 
  45:/mnt/c/Users/31740/Documents/codes/newcore-rp2350/lib/_string.c **** // 	if (!len)
  46:/mnt/c/Users/31740/Documents/codes/newcore-rp2350/lib/_string.c **** // 		return 0;
  47:/mnt/c/Users/31740/Documents/codes/newcore-rp2350/lib/_string.c **** 
  48:/mnt/c/Users/31740/Documents/codes/newcore-rp2350/lib/_string.c **** // 	do {
  49:/mnt/c/Users/31740/Documents/codes/newcore-rp2350/lib/_string.c **** // 		c1 = *s1++;
  50:/mnt/c/Users/31740/Documents/codes/newcore-rp2350/lib/_string.c **** // 		c2 = *s2++;
  51:/mnt/c/Users/31740/Documents/codes/newcore-rp2350/lib/_string.c **** // 		if (!c1 || !c2)
  52:/mnt/c/Users/31740/Documents/codes/newcore-rp2350/lib/_string.c **** // 			break;
  53:/mnt/c/Users/31740/Documents/codes/newcore-rp2350/lib/_string.c **** // 		if (c1 == c2)
  54:/mnt/c/Users/31740/Documents/codes/newcore-rp2350/lib/_string.c **** // 			continue;
  55:/mnt/c/Users/31740/Documents/codes/newcore-rp2350/lib/_string.c **** // 		c1 = tolower(c1);
  56:/mnt/c/Users/31740/Documents/codes/newcore-rp2350/lib/_string.c **** // 		c2 = tolower(c2);
  57:/mnt/c/Users/31740/Documents/codes/newcore-rp2350/lib/_string.c **** // 		if (c1 != c2)
  58:/mnt/c/Users/31740/Documents/codes/newcore-rp2350/lib/_string.c **** // 			break;
  59:/mnt/c/Users/31740/Documents/codes/newcore-rp2350/lib/_string.c **** // 	} while (--len);
  60:/mnt/c/Users/31740/Documents/codes/newcore-rp2350/lib/_string.c **** // 	return (int)c1 - (int)c2;
  61:/mnt/c/Users/31740/Documents/codes/newcore-rp2350/lib/_string.c **** // }
  62:/mnt/c/Users/31740/Documents/codes/newcore-rp2350/lib/_string.c **** // EXPORT_SYMBOL(strncasecmp);
  63:/mnt/c/Users/31740/Documents/codes/newcore-rp2350/lib/_string.c **** // #endif
  64:/mnt/c/Users/31740/Documents/codes/newcore-rp2350/lib/_string.c **** 
  65:/mnt/c/Users/31740/Documents/codes/newcore-rp2350/lib/_string.c **** // #ifndef __HAVE_ARCH_STRCASECMP
  66:/mnt/c/Users/31740/Documents/codes/newcore-rp2350/lib/_string.c **** // int strcasecmp(const char *s1, const char *s2)
  67:/mnt/c/Users/31740/Documents/codes/newcore-rp2350/lib/_string.c **** // {
  68:/mnt/c/Users/31740/Documents/codes/newcore-rp2350/lib/_string.c **** // 	int c1, c2;
  69:/mnt/c/Users/31740/Documents/codes/newcore-rp2350/lib/_string.c **** // 	do {
  70:/mnt/c/Users/31740/Documents/codes/newcore-rp2350/lib/_string.c **** // 		c1 = tolower(*s1++);
  71:/mnt/c/Users/31740/Documents/codes/newcore-rp2350/lib/_string.c **** // 		c2 = tolower(*s2++);
  72:/mnt/c/Users/31740/Documents/codes/newcore-rp2350/lib/_string.c **** // 	} while (c1 == c2 && c1 != 0);
  73:/mnt/c/Users/31740/Documents/codes/newcore-rp2350/lib/_string.c **** // 	return c1 - c2;
  74:/mnt/c/Users/31740/Documents/codes/newcore-rp2350/lib/_string.c **** // }
  75:/mnt/c/Users/31740/Documents/codes/newcore-rp2350/lib/_string.c **** // EXPORT_SYMBOL(strcasecmp);
  76:/mnt/c/Users/31740/Documents/codes/newcore-rp2350/lib/_string.c **** // #endif
  77:/mnt/c/Users/31740/Documents/codes/newcore-rp2350/lib/_string.c **** 
  78:/mnt/c/Users/31740/Documents/codes/newcore-rp2350/lib/_string.c **** #ifndef __HAVE_ARCH_STRCPY
  79:/mnt/c/Users/31740/Documents/codes/newcore-rp2350/lib/_string.c **** char *strcpy(char *dest, const char *src)
  80:/mnt/c/Users/31740/Documents/codes/newcore-rp2350/lib/_string.c **** {
  31              		.loc 1 80 1 view -0
  32              		.cfi_startproc
  33              		@ args = 0, pretend = 0, frame = 0
  34              		@ frame_needed = 0, uses_anonymous_args = 0
  35              		@ link register save eliminated.
ARM GAS  /tmp/ccYsdBMV.s 			page 3


  81:/mnt/c/Users/31740/Documents/codes/newcore-rp2350/lib/_string.c **** 	char *tmp = dest;
  36              		.loc 1 81 2 view .LVU1
  82:/mnt/c/Users/31740/Documents/codes/newcore-rp2350/lib/_string.c **** 
  83:/mnt/c/Users/31740/Documents/codes/newcore-rp2350/lib/_string.c **** 	while ((*dest++ = *src++) != '\0')
  37              		.loc 1 83 2 view .LVU2
  38              		.loc 1 83 8 is_stmt 0 view .LVU3
  39 0000 8446     		mov	ip, r0
  40              	.LVL1:
  41              	.L2:
  42              		.loc 1 83 28 is_stmt 1 discriminator 1 view .LVU4
  43              		.loc 1 83 20 is_stmt 0 discriminator 1 view .LVU5
  44 0002 0A78     		ldrb	r2, [r1]	@ zero_extendqisi2
  45 0004 0131     		adds	r1, r1, #1
  46              	.LVL2:
  47              		.loc 1 83 18 discriminator 1 view .LVU6
  48 0006 8CF80020 		strb	r2, [ip]
  49 000a 0CF1010C 		add	ip, ip, #1
  50              	.LVL3:
  51              		.loc 1 83 28 discriminator 1 view .LVU7
  52 000e 002A     		cmp	r2, #0
  53 0010 F7D1     		bne	.L2
  84:/mnt/c/Users/31740/Documents/codes/newcore-rp2350/lib/_string.c **** 		/* nothing */;
  85:/mnt/c/Users/31740/Documents/codes/newcore-rp2350/lib/_string.c **** 	return tmp;
  54              		.loc 1 85 2 is_stmt 1 view .LVU8
  86:/mnt/c/Users/31740/Documents/codes/newcore-rp2350/lib/_string.c **** }
  55              		.loc 1 86 1 is_stmt 0 view .LVU9
  56 0012 7047     		bx	lr
  57              		.cfi_endproc
  58              	.LFE57:
  60              		.section	.text.strncpy,"ax",%progbits
  61              		.align	1
  62              		.global	strncpy
  63              		.syntax unified
  64              		.thumb
  65              		.thumb_func
  67              	strncpy:
  68              	.LVL4:
  69              	.LFB58:
  87:/mnt/c/Users/31740/Documents/codes/newcore-rp2350/lib/_string.c **** EXPORT_SYMBOL(strcpy);
  88:/mnt/c/Users/31740/Documents/codes/newcore-rp2350/lib/_string.c **** #endif
  89:/mnt/c/Users/31740/Documents/codes/newcore-rp2350/lib/_string.c **** 
  90:/mnt/c/Users/31740/Documents/codes/newcore-rp2350/lib/_string.c **** #ifndef __HAVE_ARCH_STRNCPY
  91:/mnt/c/Users/31740/Documents/codes/newcore-rp2350/lib/_string.c **** char *strncpy(char *dest, const char *src, size_t count)
  92:/mnt/c/Users/31740/Documents/codes/newcore-rp2350/lib/_string.c **** {
  70              		.loc 1 92 1 is_stmt 1 view -0
  71              		.cfi_startproc
  72              		@ args = 0, pretend = 0, frame = 0
  73              		@ frame_needed = 0, uses_anonymous_args = 0
  74              		@ link register save eliminated.
  93:/mnt/c/Users/31740/Documents/codes/newcore-rp2350/lib/_string.c **** 	char *tmp = dest;
  75              		.loc 1 93 2 view .LVU11
  94:/mnt/c/Users/31740/Documents/codes/newcore-rp2350/lib/_string.c **** 
  95:/mnt/c/Users/31740/Documents/codes/newcore-rp2350/lib/_string.c **** 	while (count) {
  76              		.loc 1 95 2 view .LVU12
  93:/mnt/c/Users/31740/Documents/codes/newcore-rp2350/lib/_string.c **** 	char *tmp = dest;
  77              		.loc 1 93 8 is_stmt 0 view .LVU13
  78 0000 0346     		mov	r3, r0
ARM GAS  /tmp/ccYsdBMV.s 			page 4


  79              		.loc 1 95 9 is_stmt 1 view .LVU14
  80 0002 6AB1     		cbz	r2, .L11
  92:/mnt/c/Users/31740/Documents/codes/newcore-rp2350/lib/_string.c **** 	char *tmp = dest;
  81              		.loc 1 92 1 is_stmt 0 view .LVU15
  82 0004 10B4     		push	{r4}
  83              	.LCFI0:
  84              		.cfi_def_cfa_offset 4
  85              		.cfi_offset 4, -4
  86 0006 02E0     		b	.L6
  87              	.LVL5:
  88              	.L5:
  96:/mnt/c/Users/31740/Documents/codes/newcore-rp2350/lib/_string.c **** 		if ((*tmp = *src) != 0)
  97:/mnt/c/Users/31740/Documents/codes/newcore-rp2350/lib/_string.c **** 			src++;
  98:/mnt/c/Users/31740/Documents/codes/newcore-rp2350/lib/_string.c **** 		tmp++;
  89              		.loc 1 98 3 is_stmt 1 view .LVU16
  90              		.loc 1 98 6 is_stmt 0 view .LVU17
  91 0008 0133     		adds	r3, r3, #1
  92              	.LVL6:
  99:/mnt/c/Users/31740/Documents/codes/newcore-rp2350/lib/_string.c **** 		count--;
  93              		.loc 1 99 3 is_stmt 1 view .LVU18
  94              		.loc 1 99 8 is_stmt 0 view .LVU19
  95 000a 013A     		subs	r2, r2, #1
  96              	.LVL7:
  95:/mnt/c/Users/31740/Documents/codes/newcore-rp2350/lib/_string.c **** 		if ((*tmp = *src) != 0)
  97              		.loc 1 95 9 is_stmt 1 view .LVU20
  98 000c 2AB1     		cbz	r2, .L12
  99              	.L6:
  96:/mnt/c/Users/31740/Documents/codes/newcore-rp2350/lib/_string.c **** 		if ((*tmp = *src) != 0)
 100              		.loc 1 96 3 view .LVU21
  96:/mnt/c/Users/31740/Documents/codes/newcore-rp2350/lib/_string.c **** 		if ((*tmp = *src) != 0)
 101              		.loc 1 96 15 is_stmt 0 view .LVU22
 102 000e 0C78     		ldrb	r4, [r1]	@ zero_extendqisi2
  96:/mnt/c/Users/31740/Documents/codes/newcore-rp2350/lib/_string.c **** 		if ((*tmp = *src) != 0)
 103              		.loc 1 96 13 view .LVU23
 104 0010 1C70     		strb	r4, [r3]
  96:/mnt/c/Users/31740/Documents/codes/newcore-rp2350/lib/_string.c **** 		if ((*tmp = *src) != 0)
 105              		.loc 1 96 6 view .LVU24
 106 0012 002C     		cmp	r4, #0
 107 0014 F8D0     		beq	.L5
  97:/mnt/c/Users/31740/Documents/codes/newcore-rp2350/lib/_string.c **** 		tmp++;
 108              		.loc 1 97 4 is_stmt 1 view .LVU25
  97:/mnt/c/Users/31740/Documents/codes/newcore-rp2350/lib/_string.c **** 		tmp++;
 109              		.loc 1 97 7 is_stmt 0 view .LVU26
 110 0016 0131     		adds	r1, r1, #1
 111              	.LVL8:
  97:/mnt/c/Users/31740/Documents/codes/newcore-rp2350/lib/_string.c **** 		tmp++;
 112              		.loc 1 97 7 view .LVU27
 113 0018 F6E7     		b	.L5
 114              	.L12:
 100:/mnt/c/Users/31740/Documents/codes/newcore-rp2350/lib/_string.c **** 	}
 101:/mnt/c/Users/31740/Documents/codes/newcore-rp2350/lib/_string.c **** 	return dest;
 115              		.loc 1 101 2 is_stmt 1 view .LVU28
 102:/mnt/c/Users/31740/Documents/codes/newcore-rp2350/lib/_string.c **** }
 116              		.loc 1 102 1 is_stmt 0 view .LVU29
 117 001a 5DF8044B 		ldr	r4, [sp], #4
 118              	.LCFI1:
 119              		.cfi_restore 4
ARM GAS  /tmp/ccYsdBMV.s 			page 5


 120              		.cfi_def_cfa_offset 0
 121 001e 7047     		bx	lr
 122              	.LVL9:
 123              	.L11:
 124              		.loc 1 102 1 view .LVU30
 125 0020 7047     		bx	lr
 126              		.cfi_endproc
 127              	.LFE58:
 129              		.section	.text.stpcpy,"ax",%progbits
 130              		.align	1
 131              		.global	stpcpy
 132              		.syntax unified
 133              		.thumb
 134              		.thumb_func
 136              	stpcpy:
 137              	.LVL10:
 138              	.LFB59:
 103:/mnt/c/Users/31740/Documents/codes/newcore-rp2350/lib/_string.c **** EXPORT_SYMBOL(strncpy);
 104:/mnt/c/Users/31740/Documents/codes/newcore-rp2350/lib/_string.c **** #endif
 105:/mnt/c/Users/31740/Documents/codes/newcore-rp2350/lib/_string.c **** 
 106:/mnt/c/Users/31740/Documents/codes/newcore-rp2350/lib/_string.c **** // ssize_t sized_strscpy(char *dest, const char *src, size_t count)
 107:/mnt/c/Users/31740/Documents/codes/newcore-rp2350/lib/_string.c **** // {
 108:/mnt/c/Users/31740/Documents/codes/newcore-rp2350/lib/_string.c **** // 	const struct word_at_a_time constants = WORD_AT_A_TIME_CONSTANTS;
 109:/mnt/c/Users/31740/Documents/codes/newcore-rp2350/lib/_string.c **** // 	size_t max = count;
 110:/mnt/c/Users/31740/Documents/codes/newcore-rp2350/lib/_string.c **** // 	long res = 0;
 111:/mnt/c/Users/31740/Documents/codes/newcore-rp2350/lib/_string.c **** 
 112:/mnt/c/Users/31740/Documents/codes/newcore-rp2350/lib/_string.c **** // 	if (count == 0 || WARN_ON_ONCE(count > INT_MAX))
 113:/mnt/c/Users/31740/Documents/codes/newcore-rp2350/lib/_string.c **** // 		return -E2BIG;
 114:/mnt/c/Users/31740/Documents/codes/newcore-rp2350/lib/_string.c **** 
 115:/mnt/c/Users/31740/Documents/codes/newcore-rp2350/lib/_string.c **** // #ifdef CONFIG_HAVE_EFFICIENT_UNALIGNED_ACCESS
 116:/mnt/c/Users/31740/Documents/codes/newcore-rp2350/lib/_string.c **** // 	/*
 117:/mnt/c/Users/31740/Documents/codes/newcore-rp2350/lib/_string.c **** // 	 * If src is unaligned, don't cross a page boundary,
 118:/mnt/c/Users/31740/Documents/codes/newcore-rp2350/lib/_string.c **** // 	 * since we don't know if the next page is mapped.
 119:/mnt/c/Users/31740/Documents/codes/newcore-rp2350/lib/_string.c **** // 	 */
 120:/mnt/c/Users/31740/Documents/codes/newcore-rp2350/lib/_string.c **** // 	if ((long)src & (sizeof(long) - 1)) {
 121:/mnt/c/Users/31740/Documents/codes/newcore-rp2350/lib/_string.c **** // 		size_t limit = PAGE_SIZE - ((long)src & (PAGE_SIZE - 1));
 122:/mnt/c/Users/31740/Documents/codes/newcore-rp2350/lib/_string.c **** // 		if (limit < max)
 123:/mnt/c/Users/31740/Documents/codes/newcore-rp2350/lib/_string.c **** // 			max = limit;
 124:/mnt/c/Users/31740/Documents/codes/newcore-rp2350/lib/_string.c **** // 	}
 125:/mnt/c/Users/31740/Documents/codes/newcore-rp2350/lib/_string.c **** // #else
 126:/mnt/c/Users/31740/Documents/codes/newcore-rp2350/lib/_string.c **** // 	/* If src or dest is unaligned, don't do word-at-a-time. */
 127:/mnt/c/Users/31740/Documents/codes/newcore-rp2350/lib/_string.c **** // 	if (((long) dest | (long) src) & (sizeof(long) - 1))
 128:/mnt/c/Users/31740/Documents/codes/newcore-rp2350/lib/_string.c **** // 		max = 0;
 129:/mnt/c/Users/31740/Documents/codes/newcore-rp2350/lib/_string.c **** // #endif
 130:/mnt/c/Users/31740/Documents/codes/newcore-rp2350/lib/_string.c **** 
 131:/mnt/c/Users/31740/Documents/codes/newcore-rp2350/lib/_string.c **** // 	/*
 132:/mnt/c/Users/31740/Documents/codes/newcore-rp2350/lib/_string.c **** // 	 * read_word_at_a_time() below may read uninitialized bytes after the
 133:/mnt/c/Users/31740/Documents/codes/newcore-rp2350/lib/_string.c **** // 	 * trailing zero and use them in comparisons. Disable this optimization
 134:/mnt/c/Users/31740/Documents/codes/newcore-rp2350/lib/_string.c **** // 	 * under KMSAN to prevent false positive reports.
 135:/mnt/c/Users/31740/Documents/codes/newcore-rp2350/lib/_string.c **** // 	 */
 136:/mnt/c/Users/31740/Documents/codes/newcore-rp2350/lib/_string.c **** // 	if (IS_ENABLED(CONFIG_KMSAN))
 137:/mnt/c/Users/31740/Documents/codes/newcore-rp2350/lib/_string.c **** // 		max = 0;
 138:/mnt/c/Users/31740/Documents/codes/newcore-rp2350/lib/_string.c **** 
 139:/mnt/c/Users/31740/Documents/codes/newcore-rp2350/lib/_string.c **** // 	while (max >= sizeof(unsigned long)) {
 140:/mnt/c/Users/31740/Documents/codes/newcore-rp2350/lib/_string.c **** // 		unsigned long c, data;
 141:/mnt/c/Users/31740/Documents/codes/newcore-rp2350/lib/_string.c **** 
 142:/mnt/c/Users/31740/Documents/codes/newcore-rp2350/lib/_string.c **** // 		c = read_word_at_a_time(src+res);
ARM GAS  /tmp/ccYsdBMV.s 			page 6


 143:/mnt/c/Users/31740/Documents/codes/newcore-rp2350/lib/_string.c **** // 		if (has_zero(c, &data, &constants)) {
 144:/mnt/c/Users/31740/Documents/codes/newcore-rp2350/lib/_string.c **** // 			data = prep_zero_mask(c, data, &constants);
 145:/mnt/c/Users/31740/Documents/codes/newcore-rp2350/lib/_string.c **** // 			data = create_zero_mask(data);
 146:/mnt/c/Users/31740/Documents/codes/newcore-rp2350/lib/_string.c **** // 			*(unsigned long *)(dest+res) = c & zero_bytemask(data);
 147:/mnt/c/Users/31740/Documents/codes/newcore-rp2350/lib/_string.c **** // 			return res + find_zero(data);
 148:/mnt/c/Users/31740/Documents/codes/newcore-rp2350/lib/_string.c **** // 		}
 149:/mnt/c/Users/31740/Documents/codes/newcore-rp2350/lib/_string.c **** // 		*(unsigned long *)(dest+res) = c;
 150:/mnt/c/Users/31740/Documents/codes/newcore-rp2350/lib/_string.c **** // 		res += sizeof(unsigned long);
 151:/mnt/c/Users/31740/Documents/codes/newcore-rp2350/lib/_string.c **** // 		count -= sizeof(unsigned long);
 152:/mnt/c/Users/31740/Documents/codes/newcore-rp2350/lib/_string.c **** // 		max -= sizeof(unsigned long);
 153:/mnt/c/Users/31740/Documents/codes/newcore-rp2350/lib/_string.c **** // 	}
 154:/mnt/c/Users/31740/Documents/codes/newcore-rp2350/lib/_string.c **** 
 155:/mnt/c/Users/31740/Documents/codes/newcore-rp2350/lib/_string.c **** // 	while (count) {
 156:/mnt/c/Users/31740/Documents/codes/newcore-rp2350/lib/_string.c **** // 		char c;
 157:/mnt/c/Users/31740/Documents/codes/newcore-rp2350/lib/_string.c **** 
 158:/mnt/c/Users/31740/Documents/codes/newcore-rp2350/lib/_string.c **** // 		c = src[res];
 159:/mnt/c/Users/31740/Documents/codes/newcore-rp2350/lib/_string.c **** // 		dest[res] = c;
 160:/mnt/c/Users/31740/Documents/codes/newcore-rp2350/lib/_string.c **** // 		if (!c)
 161:/mnt/c/Users/31740/Documents/codes/newcore-rp2350/lib/_string.c **** // 			return res;
 162:/mnt/c/Users/31740/Documents/codes/newcore-rp2350/lib/_string.c **** // 		res++;
 163:/mnt/c/Users/31740/Documents/codes/newcore-rp2350/lib/_string.c **** // 		count--;
 164:/mnt/c/Users/31740/Documents/codes/newcore-rp2350/lib/_string.c **** // 	}
 165:/mnt/c/Users/31740/Documents/codes/newcore-rp2350/lib/_string.c **** 
 166:/mnt/c/Users/31740/Documents/codes/newcore-rp2350/lib/_string.c **** // 	/* Hit buffer length without finding a NUL; force NUL-termination. */
 167:/mnt/c/Users/31740/Documents/codes/newcore-rp2350/lib/_string.c **** // 	if (res)
 168:/mnt/c/Users/31740/Documents/codes/newcore-rp2350/lib/_string.c **** // 		dest[res-1] = '\0';
 169:/mnt/c/Users/31740/Documents/codes/newcore-rp2350/lib/_string.c **** 
 170:/mnt/c/Users/31740/Documents/codes/newcore-rp2350/lib/_string.c **** // 	return -E2BIG;
 171:/mnt/c/Users/31740/Documents/codes/newcore-rp2350/lib/_string.c **** // }
 172:/mnt/c/Users/31740/Documents/codes/newcore-rp2350/lib/_string.c **** // EXPORT_SYMBOL(sized_strscpy);
 173:/mnt/c/Users/31740/Documents/codes/newcore-rp2350/lib/_string.c **** 
 174:/mnt/c/Users/31740/Documents/codes/newcore-rp2350/lib/_string.c **** /**
 175:/mnt/c/Users/31740/Documents/codes/newcore-rp2350/lib/_string.c ****  * stpcpy - copy a string from src to dest returning a pointer to the new end
 176:/mnt/c/Users/31740/Documents/codes/newcore-rp2350/lib/_string.c ****  *          of dest, including src's %NUL-terminator. May overrun dest.
 177:/mnt/c/Users/31740/Documents/codes/newcore-rp2350/lib/_string.c ****  * @dest: pointer to end of string being copied into. Must be large enough
 178:/mnt/c/Users/31740/Documents/codes/newcore-rp2350/lib/_string.c ****  *        to receive copy.
 179:/mnt/c/Users/31740/Documents/codes/newcore-rp2350/lib/_string.c ****  * @src: pointer to the beginning of string being copied from. Must not overlap
 180:/mnt/c/Users/31740/Documents/codes/newcore-rp2350/lib/_string.c ****  *       dest.
 181:/mnt/c/Users/31740/Documents/codes/newcore-rp2350/lib/_string.c ****  *
 182:/mnt/c/Users/31740/Documents/codes/newcore-rp2350/lib/_string.c ****  * stpcpy differs from strcpy in a key way: the return value is a pointer
 183:/mnt/c/Users/31740/Documents/codes/newcore-rp2350/lib/_string.c ****  * to the new %NUL-terminating character in @dest. (For strcpy, the return
 184:/mnt/c/Users/31740/Documents/codes/newcore-rp2350/lib/_string.c ****  * value is a pointer to the start of @dest). This interface is considered
 185:/mnt/c/Users/31740/Documents/codes/newcore-rp2350/lib/_string.c ****  * unsafe as it doesn't perform bounds checking of the inputs. As such it's
 186:/mnt/c/Users/31740/Documents/codes/newcore-rp2350/lib/_string.c ****  * not recommended for usage. Instead, its definition is provided in case
 187:/mnt/c/Users/31740/Documents/codes/newcore-rp2350/lib/_string.c ****  * the compiler lowers other libcalls to stpcpy.
 188:/mnt/c/Users/31740/Documents/codes/newcore-rp2350/lib/_string.c ****  */
 189:/mnt/c/Users/31740/Documents/codes/newcore-rp2350/lib/_string.c **** char *stpcpy(char *__restrict__ dest, const char *__restrict__ src);
 190:/mnt/c/Users/31740/Documents/codes/newcore-rp2350/lib/_string.c **** char *stpcpy(char *__restrict__ dest, const char *__restrict__ src)
 191:/mnt/c/Users/31740/Documents/codes/newcore-rp2350/lib/_string.c **** {
 139              		.loc 1 191 1 is_stmt 1 view -0
 140              		.cfi_startproc
 141              		@ args = 0, pretend = 0, frame = 0
 142              		@ frame_needed = 0, uses_anonymous_args = 0
 143              		@ link register save eliminated.
 144              		.loc 1 191 1 is_stmt 0 view .LVU32
 145 0000 0246     		mov	r2, r0
 192:/mnt/c/Users/31740/Documents/codes/newcore-rp2350/lib/_string.c **** 	while ((*dest++ = *src++) != '\0')
ARM GAS  /tmp/ccYsdBMV.s 			page 7


 146              		.loc 1 192 2 is_stmt 1 view .LVU33
 147              	.LVL11:
 148              	.L14:
 149              		.loc 1 192 28 discriminator 1 view .LVU34
 150              		.loc 1 192 28 is_stmt 0 discriminator 1 view .LVU35
 151 0002 1046     		mov	r0, r2
 152              		.loc 1 192 15 discriminator 1 view .LVU36
 153 0004 0132     		adds	r2, r2, #1
 154              	.LVL12:
 155              		.loc 1 192 20 discriminator 1 view .LVU37
 156 0006 0B78     		ldrb	r3, [r1]	@ zero_extendqisi2
 157 0008 0131     		adds	r1, r1, #1
 158              	.LVL13:
 159              		.loc 1 192 18 discriminator 1 view .LVU38
 160 000a 0370     		strb	r3, [r0]
 161              		.loc 1 192 28 discriminator 1 view .LVU39
 162 000c 002B     		cmp	r3, #0
 163 000e F8D1     		bne	.L14
 193:/mnt/c/Users/31740/Documents/codes/newcore-rp2350/lib/_string.c **** 		/* nothing */;
 194:/mnt/c/Users/31740/Documents/codes/newcore-rp2350/lib/_string.c **** 	return --dest;
 164              		.loc 1 194 2 is_stmt 1 view .LVU40
 165              	.LVL14:
 195:/mnt/c/Users/31740/Documents/codes/newcore-rp2350/lib/_string.c **** }
 166              		.loc 1 195 1 is_stmt 0 view .LVU41
 167 0010 7047     		bx	lr
 168              		.cfi_endproc
 169              	.LFE59:
 171              		.section	.text.strcat,"ax",%progbits
 172              		.align	1
 173              		.global	strcat
 174              		.syntax unified
 175              		.thumb
 176              		.thumb_func
 178              	strcat:
 179              	.LVL15:
 180              	.LFB60:
 196:/mnt/c/Users/31740/Documents/codes/newcore-rp2350/lib/_string.c **** EXPORT_SYMBOL(stpcpy);
 197:/mnt/c/Users/31740/Documents/codes/newcore-rp2350/lib/_string.c **** 
 198:/mnt/c/Users/31740/Documents/codes/newcore-rp2350/lib/_string.c **** #ifndef __HAVE_ARCH_STRCAT
 199:/mnt/c/Users/31740/Documents/codes/newcore-rp2350/lib/_string.c **** char *strcat(char *dest, const char *src)
 200:/mnt/c/Users/31740/Documents/codes/newcore-rp2350/lib/_string.c **** {
 181              		.loc 1 200 1 is_stmt 1 view -0
 182              		.cfi_startproc
 183              		@ args = 0, pretend = 0, frame = 0
 184              		@ frame_needed = 0, uses_anonymous_args = 0
 185              		@ link register save eliminated.
 186              		.loc 1 200 1 is_stmt 0 view .LVU43
 187 0000 10B4     		push	{r4}
 188              	.LCFI2:
 189              		.cfi_def_cfa_offset 4
 190              		.cfi_offset 4, -4
 201:/mnt/c/Users/31740/Documents/codes/newcore-rp2350/lib/_string.c **** 	char *tmp = dest;
 191              		.loc 1 201 2 is_stmt 1 view .LVU44
 192              	.LVL16:
 202:/mnt/c/Users/31740/Documents/codes/newcore-rp2350/lib/_string.c **** 
 203:/mnt/c/Users/31740/Documents/codes/newcore-rp2350/lib/_string.c **** 	while (*dest)
 193              		.loc 1 203 2 view .LVU45
ARM GAS  /tmp/ccYsdBMV.s 			page 8


 194              		.loc 1 203 8 is_stmt 0 view .LVU46
 195 0002 0346     		mov	r3, r0
 196 0004 00E0     		b	.L16
 197              	.LVL17:
 198              	.L17:
 204:/mnt/c/Users/31740/Documents/codes/newcore-rp2350/lib/_string.c **** 		dest++;
 199              		.loc 1 204 3 is_stmt 1 view .LVU47
 200              		.loc 1 204 7 is_stmt 0 view .LVU48
 201 0006 0133     		adds	r3, r3, #1
 202              	.LVL18:
 203              	.L16:
 203:/mnt/c/Users/31740/Documents/codes/newcore-rp2350/lib/_string.c **** 		dest++;
 204              		.loc 1 203 9 is_stmt 1 view .LVU49
 205 0008 1A78     		ldrb	r2, [r3]	@ zero_extendqisi2
 206 000a 002A     		cmp	r2, #0
 207 000c FBD1     		bne	.L17
 208              	.LVL19:
 209              	.L18:
 205:/mnt/c/Users/31740/Documents/codes/newcore-rp2350/lib/_string.c **** 	while ((*dest++ = *src++) != '\0')
 210              		.loc 1 205 28 discriminator 1 view .LVU50
 211              		.loc 1 205 20 is_stmt 0 discriminator 1 view .LVU51
 212 000e 0C78     		ldrb	r4, [r1]	@ zero_extendqisi2
 213 0010 0131     		adds	r1, r1, #1
 214              	.LVL20:
 215              		.loc 1 205 18 discriminator 1 view .LVU52
 216 0012 1C70     		strb	r4, [r3]
 217 0014 0133     		adds	r3, r3, #1
 218              	.LVL21:
 219              		.loc 1 205 28 discriminator 1 view .LVU53
 220 0016 002C     		cmp	r4, #0
 221 0018 F9D1     		bne	.L18
 206:/mnt/c/Users/31740/Documents/codes/newcore-rp2350/lib/_string.c **** 		;
 207:/mnt/c/Users/31740/Documents/codes/newcore-rp2350/lib/_string.c **** 	return tmp;
 222              		.loc 1 207 2 is_stmt 1 view .LVU54
 208:/mnt/c/Users/31740/Documents/codes/newcore-rp2350/lib/_string.c **** }
 223              		.loc 1 208 1 is_stmt 0 view .LVU55
 224 001a 5DF8044B 		ldr	r4, [sp], #4
 225              	.LCFI3:
 226              		.cfi_restore 4
 227              		.cfi_def_cfa_offset 0
 228 001e 7047     		bx	lr
 229              		.cfi_endproc
 230              	.LFE60:
 232              		.section	.text.strncat,"ax",%progbits
 233              		.align	1
 234              		.global	strncat
 235              		.syntax unified
 236              		.thumb
 237              		.thumb_func
 239              	strncat:
 240              	.LVL22:
 241              	.LFB61:
 209:/mnt/c/Users/31740/Documents/codes/newcore-rp2350/lib/_string.c **** EXPORT_SYMBOL(strcat);
 210:/mnt/c/Users/31740/Documents/codes/newcore-rp2350/lib/_string.c **** #endif
 211:/mnt/c/Users/31740/Documents/codes/newcore-rp2350/lib/_string.c **** 
 212:/mnt/c/Users/31740/Documents/codes/newcore-rp2350/lib/_string.c **** #ifndef __HAVE_ARCH_STRNCAT
 213:/mnt/c/Users/31740/Documents/codes/newcore-rp2350/lib/_string.c **** char *strncat(char *dest, const char *src, size_t count)
ARM GAS  /tmp/ccYsdBMV.s 			page 9


 214:/mnt/c/Users/31740/Documents/codes/newcore-rp2350/lib/_string.c **** {
 242              		.loc 1 214 1 is_stmt 1 view -0
 243              		.cfi_startproc
 244              		@ args = 0, pretend = 0, frame = 0
 245              		@ frame_needed = 0, uses_anonymous_args = 0
 215:/mnt/c/Users/31740/Documents/codes/newcore-rp2350/lib/_string.c **** 	char *tmp = dest;
 246              		.loc 1 215 2 view .LVU57
 216:/mnt/c/Users/31740/Documents/codes/newcore-rp2350/lib/_string.c **** 
 217:/mnt/c/Users/31740/Documents/codes/newcore-rp2350/lib/_string.c **** 	if (count) {
 247              		.loc 1 217 2 view .LVU58
 248              		.loc 1 217 5 is_stmt 0 view .LVU59
 249 0000 7AB9     		cbnz	r2, .L26
 250 0002 7047     		bx	lr
 251              	.LVL23:
 252              	.L23:
 253              	.LCFI4:
 254              		.cfi_def_cfa_offset 8
 255              		.cfi_offset 4, -8
 256              		.cfi_offset 14, -4
 218:/mnt/c/Users/31740/Documents/codes/newcore-rp2350/lib/_string.c **** 		while (*dest)
 219:/mnt/c/Users/31740/Documents/codes/newcore-rp2350/lib/_string.c **** 			dest++;
 257              		.loc 1 219 4 is_stmt 1 view .LVU60
 258              		.loc 1 219 8 is_stmt 0 view .LVU61
 259 0004 0133     		adds	r3, r3, #1
 260              	.LVL24:
 261              	.L21:
 218:/mnt/c/Users/31740/Documents/codes/newcore-rp2350/lib/_string.c **** 		while (*dest)
 262              		.loc 1 218 10 is_stmt 1 view .LVU62
 263 0006 1A78     		ldrb	r2, [r3]	@ zero_extendqisi2
 264 0008 002A     		cmp	r2, #0
 265 000a FBD1     		bne	.L23
 266              	.LVL25:
 267              	.L24:
 220:/mnt/c/Users/31740/Documents/codes/newcore-rp2350/lib/_string.c **** 		while ((*dest++ = *src++) != 0) {
 268              		.loc 1 220 29 view .LVU63
 269              		.loc 1 220 21 is_stmt 0 view .LVU64
 270 000c 0C78     		ldrb	r4, [r1]	@ zero_extendqisi2
 271 000e 0131     		adds	r1, r1, #1
 272              	.LVL26:
 273              		.loc 1 220 19 view .LVU65
 274 0010 1C70     		strb	r4, [r3]
 275 0012 0133     		adds	r3, r3, #1
 276              	.LVL27:
 277              		.loc 1 220 29 view .LVU66
 278 0014 24B1     		cbz	r4, .L22
 221:/mnt/c/Users/31740/Documents/codes/newcore-rp2350/lib/_string.c **** 			if (--count == 0) {
 279              		.loc 1 221 4 is_stmt 1 view .LVU67
 280              	.LVL28:
 281              		.loc 1 221 7 is_stmt 0 view .LVU68
 282 0016 BEF1010E 		subs	lr, lr, #1
 283              	.LVL29:
 284              		.loc 1 221 7 view .LVU69
 285 001a F7D1     		bne	.L24
 222:/mnt/c/Users/31740/Documents/codes/newcore-rp2350/lib/_string.c **** 				*dest = '\0';
 286              		.loc 1 222 5 is_stmt 1 view .LVU70
 287              		.loc 1 222 11 is_stmt 0 view .LVU71
 288 001c 0022     		movs	r2, #0
ARM GAS  /tmp/ccYsdBMV.s 			page 10


 289 001e 1A70     		strb	r2, [r3]
 223:/mnt/c/Users/31740/Documents/codes/newcore-rp2350/lib/_string.c **** 				break;
 290              		.loc 1 223 5 is_stmt 1 view .LVU72
 291              	.L22:
 224:/mnt/c/Users/31740/Documents/codes/newcore-rp2350/lib/_string.c **** 			}
 225:/mnt/c/Users/31740/Documents/codes/newcore-rp2350/lib/_string.c **** 		}
 226:/mnt/c/Users/31740/Documents/codes/newcore-rp2350/lib/_string.c **** 	}
 227:/mnt/c/Users/31740/Documents/codes/newcore-rp2350/lib/_string.c **** 	return tmp;
 292              		.loc 1 227 2 view .LVU73
 228:/mnt/c/Users/31740/Documents/codes/newcore-rp2350/lib/_string.c **** }
 293              		.loc 1 228 1 is_stmt 0 view .LVU74
 294 0020 10BD     		pop	{r4, pc}
 295              	.LVL30:
 296              	.L26:
 297              	.LCFI5:
 298              		.cfi_def_cfa_offset 0
 299              		.cfi_restore 4
 300              		.cfi_restore 14
 214:/mnt/c/Users/31740/Documents/codes/newcore-rp2350/lib/_string.c **** 	char *tmp = dest;
 301              		.loc 1 214 1 view .LVU75
 302 0022 10B5     		push	{r4, lr}
 303              	.LCFI6:
 304              		.cfi_def_cfa_offset 8
 305              		.cfi_offset 4, -8
 306              		.cfi_offset 14, -4
 307 0024 9646     		mov	lr, r2
 308 0026 0346     		mov	r3, r0
 309 0028 EDE7     		b	.L21
 310              		.cfi_endproc
 311              	.LFE61:
 313              		.section	.text.strncmp,"ax",%progbits
 314              		.align	1
 315              		.global	strncmp
 316              		.syntax unified
 317              		.thumb
 318              		.thumb_func
 320              	strncmp:
 321              	.LVL31:
 322              	.LFB63:
 229:/mnt/c/Users/31740/Documents/codes/newcore-rp2350/lib/_string.c **** EXPORT_SYMBOL(strncat);
 230:/mnt/c/Users/31740/Documents/codes/newcore-rp2350/lib/_string.c **** #endif
 231:/mnt/c/Users/31740/Documents/codes/newcore-rp2350/lib/_string.c **** 
 232:/mnt/c/Users/31740/Documents/codes/newcore-rp2350/lib/_string.c **** #ifndef __HAVE_ARCH_STRLCAT
 233:/mnt/c/Users/31740/Documents/codes/newcore-rp2350/lib/_string.c **** size_t strlcat(char *dest, const char *src, size_t count)
 234:/mnt/c/Users/31740/Documents/codes/newcore-rp2350/lib/_string.c **** {
 235:/mnt/c/Users/31740/Documents/codes/newcore-rp2350/lib/_string.c **** 	size_t dsize = strlen(dest);
 236:/mnt/c/Users/31740/Documents/codes/newcore-rp2350/lib/_string.c **** 	size_t len = strlen(src);
 237:/mnt/c/Users/31740/Documents/codes/newcore-rp2350/lib/_string.c **** 	size_t res = dsize + len;
 238:/mnt/c/Users/31740/Documents/codes/newcore-rp2350/lib/_string.c **** 
 239:/mnt/c/Users/31740/Documents/codes/newcore-rp2350/lib/_string.c **** 	/* This would be a bug */
 240:/mnt/c/Users/31740/Documents/codes/newcore-rp2350/lib/_string.c **** 	BUG_ON(dsize >= count);
 241:/mnt/c/Users/31740/Documents/codes/newcore-rp2350/lib/_string.c **** 
 242:/mnt/c/Users/31740/Documents/codes/newcore-rp2350/lib/_string.c **** 	dest += dsize;
 243:/mnt/c/Users/31740/Documents/codes/newcore-rp2350/lib/_string.c **** 	count -= dsize;
 244:/mnt/c/Users/31740/Documents/codes/newcore-rp2350/lib/_string.c **** 	if (len >= count)
 245:/mnt/c/Users/31740/Documents/codes/newcore-rp2350/lib/_string.c **** 		len = count-1;
 246:/mnt/c/Users/31740/Documents/codes/newcore-rp2350/lib/_string.c **** 	__builtin_memcpy(dest, src, len);
ARM GAS  /tmp/ccYsdBMV.s 			page 11


 247:/mnt/c/Users/31740/Documents/codes/newcore-rp2350/lib/_string.c **** 	dest[len] = 0;
 248:/mnt/c/Users/31740/Documents/codes/newcore-rp2350/lib/_string.c **** 	return res;
 249:/mnt/c/Users/31740/Documents/codes/newcore-rp2350/lib/_string.c **** }
 250:/mnt/c/Users/31740/Documents/codes/newcore-rp2350/lib/_string.c **** EXPORT_SYMBOL(strlcat);
 251:/mnt/c/Users/31740/Documents/codes/newcore-rp2350/lib/_string.c **** #endif
 252:/mnt/c/Users/31740/Documents/codes/newcore-rp2350/lib/_string.c **** 
 253:/mnt/c/Users/31740/Documents/codes/newcore-rp2350/lib/_string.c **** #ifndef __HAVE_ARCH_STRCMP
 254:/mnt/c/Users/31740/Documents/codes/newcore-rp2350/lib/_string.c **** /**
 255:/mnt/c/Users/31740/Documents/codes/newcore-rp2350/lib/_string.c ****  * strcmp - Compare two strings
 256:/mnt/c/Users/31740/Documents/codes/newcore-rp2350/lib/_string.c ****  * @cs: One string
 257:/mnt/c/Users/31740/Documents/codes/newcore-rp2350/lib/_string.c ****  * @ct: Another string
 258:/mnt/c/Users/31740/Documents/codes/newcore-rp2350/lib/_string.c ****  */
 259:/mnt/c/Users/31740/Documents/codes/newcore-rp2350/lib/_string.c **** int strcmp(const char *cs, const char *ct)
 260:/mnt/c/Users/31740/Documents/codes/newcore-rp2350/lib/_string.c **** {
 261:/mnt/c/Users/31740/Documents/codes/newcore-rp2350/lib/_string.c **** 	unsigned char c1, c2;
 262:/mnt/c/Users/31740/Documents/codes/newcore-rp2350/lib/_string.c **** 
 263:/mnt/c/Users/31740/Documents/codes/newcore-rp2350/lib/_string.c **** 	while (1) {
 264:/mnt/c/Users/31740/Documents/codes/newcore-rp2350/lib/_string.c **** 		c1 = *cs++;
 265:/mnt/c/Users/31740/Documents/codes/newcore-rp2350/lib/_string.c **** 		c2 = *ct++;
 266:/mnt/c/Users/31740/Documents/codes/newcore-rp2350/lib/_string.c **** 		if (c1 != c2)
 267:/mnt/c/Users/31740/Documents/codes/newcore-rp2350/lib/_string.c **** 			return c1 < c2 ? -1 : 1;
 268:/mnt/c/Users/31740/Documents/codes/newcore-rp2350/lib/_string.c **** 		if (!c1)
 269:/mnt/c/Users/31740/Documents/codes/newcore-rp2350/lib/_string.c **** 			break;
 270:/mnt/c/Users/31740/Documents/codes/newcore-rp2350/lib/_string.c **** 	}
 271:/mnt/c/Users/31740/Documents/codes/newcore-rp2350/lib/_string.c **** 	return 0;
 272:/mnt/c/Users/31740/Documents/codes/newcore-rp2350/lib/_string.c **** }
 273:/mnt/c/Users/31740/Documents/codes/newcore-rp2350/lib/_string.c **** EXPORT_SYMBOL(strcmp);
 274:/mnt/c/Users/31740/Documents/codes/newcore-rp2350/lib/_string.c **** #endif
 275:/mnt/c/Users/31740/Documents/codes/newcore-rp2350/lib/_string.c **** 
 276:/mnt/c/Users/31740/Documents/codes/newcore-rp2350/lib/_string.c **** #ifndef __HAVE_ARCH_STRNCMP
 277:/mnt/c/Users/31740/Documents/codes/newcore-rp2350/lib/_string.c **** /**
 278:/mnt/c/Users/31740/Documents/codes/newcore-rp2350/lib/_string.c ****  * strncmp - Compare two length-limited strings
 279:/mnt/c/Users/31740/Documents/codes/newcore-rp2350/lib/_string.c ****  * @cs: One string
 280:/mnt/c/Users/31740/Documents/codes/newcore-rp2350/lib/_string.c ****  * @ct: Another string
 281:/mnt/c/Users/31740/Documents/codes/newcore-rp2350/lib/_string.c ****  * @count: The maximum number of bytes to compare
 282:/mnt/c/Users/31740/Documents/codes/newcore-rp2350/lib/_string.c ****  */
 283:/mnt/c/Users/31740/Documents/codes/newcore-rp2350/lib/_string.c **** int strncmp(const char *cs, const char *ct, size_t count)
 284:/mnt/c/Users/31740/Documents/codes/newcore-rp2350/lib/_string.c **** {
 323              		.loc 1 284 1 is_stmt 1 view -0
 324              		.cfi_startproc
 325              		@ args = 0, pretend = 0, frame = 0
 326              		@ frame_needed = 0, uses_anonymous_args = 0
 327              		@ link register save eliminated.
 285:/mnt/c/Users/31740/Documents/codes/newcore-rp2350/lib/_string.c **** 	unsigned char c1, c2;
 328              		.loc 1 285 2 view .LVU77
 286:/mnt/c/Users/31740/Documents/codes/newcore-rp2350/lib/_string.c **** 
 287:/mnt/c/Users/31740/Documents/codes/newcore-rp2350/lib/_string.c **** 	while (count) {
 329              		.loc 1 287 2 view .LVU78
 330              		.loc 1 287 8 is_stmt 0 view .LVU79
 331 0000 06E0     		b	.L31
 332              	.LVL32:
 333              	.L39:
 288:/mnt/c/Users/31740/Documents/codes/newcore-rp2350/lib/_string.c **** 		c1 = *cs++;
 289:/mnt/c/Users/31740/Documents/codes/newcore-rp2350/lib/_string.c **** 		c2 = *ct++;
 290:/mnt/c/Users/31740/Documents/codes/newcore-rp2350/lib/_string.c **** 		if (c1 != c2)
 291:/mnt/c/Users/31740/Documents/codes/newcore-rp2350/lib/_string.c **** 			return c1 < c2 ? -1 : 1;
 334              		.loc 1 291 4 is_stmt 1 view .LVU80
ARM GAS  /tmp/ccYsdBMV.s 			page 12


 335              		.loc 1 291 24 is_stmt 0 view .LVU81
 336 0002 02D2     		bcs	.L36
 337              		.loc 1 291 24 discriminator 1 view .LVU82
 338 0004 4FF0FF30 		mov	r0, #-1
 339              	.LVL33:
 340              		.loc 1 291 24 discriminator 1 view .LVU83
 341 0008 7047     		bx	lr
 342              	.LVL34:
 343              	.L36:
 344              		.loc 1 291 24 discriminator 2 view .LVU84
 345 000a 0120     		movs	r0, #1
 346              	.LVL35:
 347              		.loc 1 291 24 view .LVU85
 348 000c 7047     		bx	lr
 349              	.LVL36:
 350              	.L40:
 292:/mnt/c/Users/31740/Documents/codes/newcore-rp2350/lib/_string.c **** 		if (!c1)
 293:/mnt/c/Users/31740/Documents/codes/newcore-rp2350/lib/_string.c **** 			break;
 294:/mnt/c/Users/31740/Documents/codes/newcore-rp2350/lib/_string.c **** 		count--;
 351              		.loc 1 294 3 is_stmt 1 view .LVU86
 352              		.loc 1 294 8 is_stmt 0 view .LVU87
 353 000e 013A     		subs	r2, r2, #1
 354              	.LVL37:
 355              	.L31:
 287:/mnt/c/Users/31740/Documents/codes/newcore-rp2350/lib/_string.c **** 		c1 = *cs++;
 356              		.loc 1 287 9 is_stmt 1 view .LVU88
 357 0010 4AB1     		cbz	r2, .L38
 288:/mnt/c/Users/31740/Documents/codes/newcore-rp2350/lib/_string.c **** 		c1 = *cs++;
 358              		.loc 1 288 3 view .LVU89
 359              	.LVL38:
 288:/mnt/c/Users/31740/Documents/codes/newcore-rp2350/lib/_string.c **** 		c1 = *cs++;
 360              		.loc 1 288 6 is_stmt 0 view .LVU90
 361 0012 10F8013B 		ldrb	r3, [r0], #1	@ zero_extendqisi2
 362              	.LVL39:
 289:/mnt/c/Users/31740/Documents/codes/newcore-rp2350/lib/_string.c **** 		if (c1 != c2)
 363              		.loc 1 289 3 is_stmt 1 view .LVU91
 289:/mnt/c/Users/31740/Documents/codes/newcore-rp2350/lib/_string.c **** 		if (c1 != c2)
 364              		.loc 1 289 6 is_stmt 0 view .LVU92
 365 0016 11F801CB 		ldrb	ip, [r1], #1	@ zero_extendqisi2
 366              	.LVL40:
 290:/mnt/c/Users/31740/Documents/codes/newcore-rp2350/lib/_string.c **** 			return c1 < c2 ? -1 : 1;
 367              		.loc 1 290 3 is_stmt 1 view .LVU93
 290:/mnt/c/Users/31740/Documents/codes/newcore-rp2350/lib/_string.c **** 			return c1 < c2 ? -1 : 1;
 368              		.loc 1 290 6 is_stmt 0 view .LVU94
 369 001a 6345     		cmp	r3, ip
 370 001c F1D1     		bne	.L39
 292:/mnt/c/Users/31740/Documents/codes/newcore-rp2350/lib/_string.c **** 			break;
 371              		.loc 1 292 3 is_stmt 1 view .LVU95
 292:/mnt/c/Users/31740/Documents/codes/newcore-rp2350/lib/_string.c **** 			break;
 372              		.loc 1 292 6 is_stmt 0 view .LVU96
 373 001e 002B     		cmp	r3, #0
 374 0020 F5D1     		bne	.L40
 295:/mnt/c/Users/31740/Documents/codes/newcore-rp2350/lib/_string.c **** 	}
 296:/mnt/c/Users/31740/Documents/codes/newcore-rp2350/lib/_string.c **** 	return 0;
 375              		.loc 1 296 9 view .LVU97
 376 0022 0020     		movs	r0, #0
 377              	.LVL41:
ARM GAS  /tmp/ccYsdBMV.s 			page 13


 297:/mnt/c/Users/31740/Documents/codes/newcore-rp2350/lib/_string.c **** }
 378              		.loc 1 297 1 view .LVU98
 379 0024 7047     		bx	lr
 380              	.LVL42:
 381              	.L38:
 296:/mnt/c/Users/31740/Documents/codes/newcore-rp2350/lib/_string.c **** }
 382              		.loc 1 296 9 view .LVU99
 383 0026 0020     		movs	r0, #0
 384              	.LVL43:
 296:/mnt/c/Users/31740/Documents/codes/newcore-rp2350/lib/_string.c **** }
 385              		.loc 1 296 9 view .LVU100
 386 0028 7047     		bx	lr
 387              		.cfi_endproc
 388              	.LFE63:
 390              		.section	.text.strchrnul,"ax",%progbits
 391              		.align	1
 392              		.global	strchrnul
 393              		.syntax unified
 394              		.thumb
 395              		.thumb_func
 397              	strchrnul:
 398              	.LVL44:
 399              	.LFB64:
 298:/mnt/c/Users/31740/Documents/codes/newcore-rp2350/lib/_string.c **** EXPORT_SYMBOL(strncmp);
 299:/mnt/c/Users/31740/Documents/codes/newcore-rp2350/lib/_string.c **** #endif
 300:/mnt/c/Users/31740/Documents/codes/newcore-rp2350/lib/_string.c **** 
 301:/mnt/c/Users/31740/Documents/codes/newcore-rp2350/lib/_string.c **** #ifndef __HAVE_ARCH_STRCHR
 302:/mnt/c/Users/31740/Documents/codes/newcore-rp2350/lib/_string.c **** /**
 303:/mnt/c/Users/31740/Documents/codes/newcore-rp2350/lib/_string.c ****  * strchr - Find the first occurrence of a character in a string
 304:/mnt/c/Users/31740/Documents/codes/newcore-rp2350/lib/_string.c ****  * @s: The string to be searched
 305:/mnt/c/Users/31740/Documents/codes/newcore-rp2350/lib/_string.c ****  * @c: The character to search for
 306:/mnt/c/Users/31740/Documents/codes/newcore-rp2350/lib/_string.c ****  *
 307:/mnt/c/Users/31740/Documents/codes/newcore-rp2350/lib/_string.c ****  * Note that the %NUL-terminator is considered part of the string, and can
 308:/mnt/c/Users/31740/Documents/codes/newcore-rp2350/lib/_string.c ****  * be searched for.
 309:/mnt/c/Users/31740/Documents/codes/newcore-rp2350/lib/_string.c ****  */
 310:/mnt/c/Users/31740/Documents/codes/newcore-rp2350/lib/_string.c **** char *strchr(const char *s, int c)
 311:/mnt/c/Users/31740/Documents/codes/newcore-rp2350/lib/_string.c **** {
 312:/mnt/c/Users/31740/Documents/codes/newcore-rp2350/lib/_string.c **** 	for (; *s != (char)c; ++s)
 313:/mnt/c/Users/31740/Documents/codes/newcore-rp2350/lib/_string.c **** 		if (*s == '\0')
 314:/mnt/c/Users/31740/Documents/codes/newcore-rp2350/lib/_string.c **** 			return NULL;
 315:/mnt/c/Users/31740/Documents/codes/newcore-rp2350/lib/_string.c **** 	return (char *)s;
 316:/mnt/c/Users/31740/Documents/codes/newcore-rp2350/lib/_string.c **** }
 317:/mnt/c/Users/31740/Documents/codes/newcore-rp2350/lib/_string.c **** EXPORT_SYMBOL(strchr);
 318:/mnt/c/Users/31740/Documents/codes/newcore-rp2350/lib/_string.c **** #endif
 319:/mnt/c/Users/31740/Documents/codes/newcore-rp2350/lib/_string.c **** 
 320:/mnt/c/Users/31740/Documents/codes/newcore-rp2350/lib/_string.c **** #ifndef __HAVE_ARCH_STRCHRNUL
 321:/mnt/c/Users/31740/Documents/codes/newcore-rp2350/lib/_string.c **** /**
 322:/mnt/c/Users/31740/Documents/codes/newcore-rp2350/lib/_string.c ****  * strchrnul - Find and return a character in a string, or end of string
 323:/mnt/c/Users/31740/Documents/codes/newcore-rp2350/lib/_string.c ****  * @s: The string to be searched
 324:/mnt/c/Users/31740/Documents/codes/newcore-rp2350/lib/_string.c ****  * @c: The character to search for
 325:/mnt/c/Users/31740/Documents/codes/newcore-rp2350/lib/_string.c ****  *
 326:/mnt/c/Users/31740/Documents/codes/newcore-rp2350/lib/_string.c ****  * Returns pointer to first occurrence of 'c' in s. If c is not found, then
 327:/mnt/c/Users/31740/Documents/codes/newcore-rp2350/lib/_string.c ****  * return a pointer to the null byte at the end of s.
 328:/mnt/c/Users/31740/Documents/codes/newcore-rp2350/lib/_string.c ****  */
 329:/mnt/c/Users/31740/Documents/codes/newcore-rp2350/lib/_string.c **** char *strchrnul(const char *s, int c)
 330:/mnt/c/Users/31740/Documents/codes/newcore-rp2350/lib/_string.c **** {
 400              		.loc 1 330 1 is_stmt 1 view -0
ARM GAS  /tmp/ccYsdBMV.s 			page 14


 401              		.cfi_startproc
 402              		@ args = 0, pretend = 0, frame = 0
 403              		@ frame_needed = 0, uses_anonymous_args = 0
 404              		@ link register save eliminated.
 331:/mnt/c/Users/31740/Documents/codes/newcore-rp2350/lib/_string.c **** 	while (*s && *s != (char)c)
 405              		.loc 1 331 2 view .LVU102
 406              		.loc 1 331 8 is_stmt 0 view .LVU103
 407 0000 00E0     		b	.L42
 408              	.L44:
 332:/mnt/c/Users/31740/Documents/codes/newcore-rp2350/lib/_string.c **** 		s++;
 409              		.loc 1 332 3 is_stmt 1 view .LVU104
 410              		.loc 1 332 4 is_stmt 0 view .LVU105
 411 0002 0130     		adds	r0, r0, #1
 412              	.LVL45:
 413              	.L42:
 331:/mnt/c/Users/31740/Documents/codes/newcore-rp2350/lib/_string.c **** 	while (*s && *s != (char)c)
 414              		.loc 1 331 12 is_stmt 1 view .LVU106
 331:/mnt/c/Users/31740/Documents/codes/newcore-rp2350/lib/_string.c **** 	while (*s && *s != (char)c)
 415              		.loc 1 331 9 is_stmt 0 view .LVU107
 416 0004 0378     		ldrb	r3, [r0]	@ zero_extendqisi2
 331:/mnt/c/Users/31740/Documents/codes/newcore-rp2350/lib/_string.c **** 	while (*s && *s != (char)c)
 417              		.loc 1 331 12 view .LVU108
 418 0006 13B1     		cbz	r3, .L43
 331:/mnt/c/Users/31740/Documents/codes/newcore-rp2350/lib/_string.c **** 	while (*s && *s != (char)c)
 419              		.loc 1 331 18 discriminator 1 view .LVU109
 420 0008 CAB2     		uxtb	r2, r1
 331:/mnt/c/Users/31740/Documents/codes/newcore-rp2350/lib/_string.c **** 	while (*s && *s != (char)c)
 421              		.loc 1 331 12 discriminator 1 view .LVU110
 422 000a 9342     		cmp	r3, r2
 423 000c F9D1     		bne	.L44
 424              	.L43:
 333:/mnt/c/Users/31740/Documents/codes/newcore-rp2350/lib/_string.c **** 	return (char *)s;
 425              		.loc 1 333 2 is_stmt 1 view .LVU111
 334:/mnt/c/Users/31740/Documents/codes/newcore-rp2350/lib/_string.c **** }
 426              		.loc 1 334 1 is_stmt 0 view .LVU112
 427 000e 7047     		bx	lr
 428              		.cfi_endproc
 429              	.LFE64:
 431              		.section	.text.strnchr,"ax",%progbits
 432              		.align	1
 433              		.global	strnchr
 434              		.syntax unified
 435              		.thumb
 436              		.thumb_func
 438              	strnchr:
 439              	.LVL46:
 440              	.LFB66:
 335:/mnt/c/Users/31740/Documents/codes/newcore-rp2350/lib/_string.c **** EXPORT_SYMBOL(strchrnul);
 336:/mnt/c/Users/31740/Documents/codes/newcore-rp2350/lib/_string.c **** #endif
 337:/mnt/c/Users/31740/Documents/codes/newcore-rp2350/lib/_string.c **** 
 338:/mnt/c/Users/31740/Documents/codes/newcore-rp2350/lib/_string.c **** /**
 339:/mnt/c/Users/31740/Documents/codes/newcore-rp2350/lib/_string.c ****  * strnchrnul - Find and return a character in a length limited string,
 340:/mnt/c/Users/31740/Documents/codes/newcore-rp2350/lib/_string.c ****  * or end of string
 341:/mnt/c/Users/31740/Documents/codes/newcore-rp2350/lib/_string.c ****  * @s: The string to be searched
 342:/mnt/c/Users/31740/Documents/codes/newcore-rp2350/lib/_string.c ****  * @count: The number of characters to be searched
 343:/mnt/c/Users/31740/Documents/codes/newcore-rp2350/lib/_string.c ****  * @c: The character to search for
 344:/mnt/c/Users/31740/Documents/codes/newcore-rp2350/lib/_string.c ****  *
ARM GAS  /tmp/ccYsdBMV.s 			page 15


 345:/mnt/c/Users/31740/Documents/codes/newcore-rp2350/lib/_string.c ****  * Returns pointer to the first occurrence of 'c' in s. If c is not found,
 346:/mnt/c/Users/31740/Documents/codes/newcore-rp2350/lib/_string.c ****  * then return a pointer to the last character of the string.
 347:/mnt/c/Users/31740/Documents/codes/newcore-rp2350/lib/_string.c ****  */
 348:/mnt/c/Users/31740/Documents/codes/newcore-rp2350/lib/_string.c **** char *strnchrnul(const char *s, size_t count, int c)
 349:/mnt/c/Users/31740/Documents/codes/newcore-rp2350/lib/_string.c **** {
 350:/mnt/c/Users/31740/Documents/codes/newcore-rp2350/lib/_string.c **** 	while (count-- && *s && *s != (char)c)
 351:/mnt/c/Users/31740/Documents/codes/newcore-rp2350/lib/_string.c **** 		s++;
 352:/mnt/c/Users/31740/Documents/codes/newcore-rp2350/lib/_string.c **** 	return (char *)s;
 353:/mnt/c/Users/31740/Documents/codes/newcore-rp2350/lib/_string.c **** }
 354:/mnt/c/Users/31740/Documents/codes/newcore-rp2350/lib/_string.c **** 
 355:/mnt/c/Users/31740/Documents/codes/newcore-rp2350/lib/_string.c **** #ifndef __HAVE_ARCH_STRRCHR
 356:/mnt/c/Users/31740/Documents/codes/newcore-rp2350/lib/_string.c **** /**
 357:/mnt/c/Users/31740/Documents/codes/newcore-rp2350/lib/_string.c ****  * strrchr - Find the last occurrence of a character in a string
 358:/mnt/c/Users/31740/Documents/codes/newcore-rp2350/lib/_string.c ****  * @s: The string to be searched
 359:/mnt/c/Users/31740/Documents/codes/newcore-rp2350/lib/_string.c ****  * @c: The character to search for
 360:/mnt/c/Users/31740/Documents/codes/newcore-rp2350/lib/_string.c ****  */
 361:/mnt/c/Users/31740/Documents/codes/newcore-rp2350/lib/_string.c **** char *strrchr(const char *s, int c)
 362:/mnt/c/Users/31740/Documents/codes/newcore-rp2350/lib/_string.c **** {
 363:/mnt/c/Users/31740/Documents/codes/newcore-rp2350/lib/_string.c **** 	const char *last = NULL;
 364:/mnt/c/Users/31740/Documents/codes/newcore-rp2350/lib/_string.c **** 	do {
 365:/mnt/c/Users/31740/Documents/codes/newcore-rp2350/lib/_string.c **** 		if (*s == (char)c)
 366:/mnt/c/Users/31740/Documents/codes/newcore-rp2350/lib/_string.c **** 			last = s;
 367:/mnt/c/Users/31740/Documents/codes/newcore-rp2350/lib/_string.c **** 	} while (*s++);
 368:/mnt/c/Users/31740/Documents/codes/newcore-rp2350/lib/_string.c **** 	return (char *)last;
 369:/mnt/c/Users/31740/Documents/codes/newcore-rp2350/lib/_string.c **** }
 370:/mnt/c/Users/31740/Documents/codes/newcore-rp2350/lib/_string.c **** EXPORT_SYMBOL(strrchr);
 371:/mnt/c/Users/31740/Documents/codes/newcore-rp2350/lib/_string.c **** #endif
 372:/mnt/c/Users/31740/Documents/codes/newcore-rp2350/lib/_string.c **** 
 373:/mnt/c/Users/31740/Documents/codes/newcore-rp2350/lib/_string.c **** #ifndef __HAVE_ARCH_STRNCHR
 374:/mnt/c/Users/31740/Documents/codes/newcore-rp2350/lib/_string.c **** /**
 375:/mnt/c/Users/31740/Documents/codes/newcore-rp2350/lib/_string.c ****  * strnchr - Find a character in a length limited string
 376:/mnt/c/Users/31740/Documents/codes/newcore-rp2350/lib/_string.c ****  * @s: The string to be searched
 377:/mnt/c/Users/31740/Documents/codes/newcore-rp2350/lib/_string.c ****  * @count: The number of characters to be searched
 378:/mnt/c/Users/31740/Documents/codes/newcore-rp2350/lib/_string.c ****  * @c: The character to search for
 379:/mnt/c/Users/31740/Documents/codes/newcore-rp2350/lib/_string.c ****  *
 380:/mnt/c/Users/31740/Documents/codes/newcore-rp2350/lib/_string.c ****  * Note that the %NUL-terminator is considered part of the string, and can
 381:/mnt/c/Users/31740/Documents/codes/newcore-rp2350/lib/_string.c ****  * be searched for.
 382:/mnt/c/Users/31740/Documents/codes/newcore-rp2350/lib/_string.c ****  */
 383:/mnt/c/Users/31740/Documents/codes/newcore-rp2350/lib/_string.c **** char *strnchr(const char *s, size_t count, int c)
 384:/mnt/c/Users/31740/Documents/codes/newcore-rp2350/lib/_string.c **** {
 441              		.loc 1 384 1 is_stmt 1 view -0
 442              		.cfi_startproc
 443              		@ args = 0, pretend = 0, frame = 0
 444              		@ frame_needed = 0, uses_anonymous_args = 0
 445              		@ link register save eliminated.
 385:/mnt/c/Users/31740/Documents/codes/newcore-rp2350/lib/_string.c **** 	while (count--) {
 446              		.loc 1 385 2 view .LVU114
 447              	.L46:
 448              		.loc 1 385 9 view .LVU115
 449 0000 0B46     		mov	r3, r1
 450              		.loc 1 385 14 is_stmt 0 view .LVU116
 451 0002 0139     		subs	r1, r1, #1
 452              	.LVL47:
 453              		.loc 1 385 9 view .LVU117
 454 0004 4BB1     		cbz	r3, .L51
 386:/mnt/c/Users/31740/Documents/codes/newcore-rp2350/lib/_string.c **** 		if (*s == (char)c)
 455              		.loc 1 386 3 is_stmt 1 view .LVU118
ARM GAS  /tmp/ccYsdBMV.s 			page 16


 456              		.loc 1 386 7 is_stmt 0 view .LVU119
 457 0006 0378     		ldrb	r3, [r0]	@ zero_extendqisi2
 458              		.loc 1 386 10 view .LVU120
 459 0008 5FFA82FC 		uxtb	ip, r2
 460              		.loc 1 386 6 view .LVU121
 461 000c 6345     		cmp	r3, ip
 462 000e 03D0     		beq	.L45
 387:/mnt/c/Users/31740/Documents/codes/newcore-rp2350/lib/_string.c **** 			return (char *)s;
 388:/mnt/c/Users/31740/Documents/codes/newcore-rp2350/lib/_string.c **** 		if (*s++ == '\0')
 463              		.loc 1 388 3 is_stmt 1 view .LVU122
 464              		.loc 1 388 9 is_stmt 0 view .LVU123
 465 0010 0130     		adds	r0, r0, #1
 466              	.LVL48:
 467              		.loc 1 388 6 view .LVU124
 468 0012 002B     		cmp	r3, #0
 469 0014 F4D1     		bne	.L46
 389:/mnt/c/Users/31740/Documents/codes/newcore-rp2350/lib/_string.c **** 			break;
 390:/mnt/c/Users/31740/Documents/codes/newcore-rp2350/lib/_string.c **** 	}
 391:/mnt/c/Users/31740/Documents/codes/newcore-rp2350/lib/_string.c **** 	return NULL;
 470              		.loc 1 391 9 view .LVU125
 471 0016 0020     		movs	r0, #0
 472              	.LVL49:
 473              	.L45:
 392:/mnt/c/Users/31740/Documents/codes/newcore-rp2350/lib/_string.c **** }
 474              		.loc 1 392 1 view .LVU126
 475 0018 7047     		bx	lr
 476              	.LVL50:
 477              	.L51:
 391:/mnt/c/Users/31740/Documents/codes/newcore-rp2350/lib/_string.c **** }
 478              		.loc 1 391 9 view .LVU127
 479 001a 0020     		movs	r0, #0
 480              	.LVL51:
 391:/mnt/c/Users/31740/Documents/codes/newcore-rp2350/lib/_string.c **** }
 481              		.loc 1 391 9 view .LVU128
 482 001c 7047     		bx	lr
 483              		.cfi_endproc
 484              	.LFE66:
 486              		.section	.text.memset16,"ax",%progbits
 487              		.align	1
 488              		.global	memset16
 489              		.syntax unified
 490              		.thumb
 491              		.thumb_func
 493              	memset16:
 494              	.LVL52:
 495              	.LFB71:
 393:/mnt/c/Users/31740/Documents/codes/newcore-rp2350/lib/_string.c **** EXPORT_SYMBOL(strnchr);
 394:/mnt/c/Users/31740/Documents/codes/newcore-rp2350/lib/_string.c **** #endif
 395:/mnt/c/Users/31740/Documents/codes/newcore-rp2350/lib/_string.c **** 
 396:/mnt/c/Users/31740/Documents/codes/newcore-rp2350/lib/_string.c **** #ifndef __HAVE_ARCH_STRLEN
 397:/mnt/c/Users/31740/Documents/codes/newcore-rp2350/lib/_string.c **** size_t strlen(const char *s)
 398:/mnt/c/Users/31740/Documents/codes/newcore-rp2350/lib/_string.c **** {
 399:/mnt/c/Users/31740/Documents/codes/newcore-rp2350/lib/_string.c **** 	const char *sc;
 400:/mnt/c/Users/31740/Documents/codes/newcore-rp2350/lib/_string.c **** 
 401:/mnt/c/Users/31740/Documents/codes/newcore-rp2350/lib/_string.c **** 	for (sc = s; *sc != '\0'; ++sc)
 402:/mnt/c/Users/31740/Documents/codes/newcore-rp2350/lib/_string.c **** 		/* nothing */;
 403:/mnt/c/Users/31740/Documents/codes/newcore-rp2350/lib/_string.c **** 	return sc - s;
ARM GAS  /tmp/ccYsdBMV.s 			page 17


 404:/mnt/c/Users/31740/Documents/codes/newcore-rp2350/lib/_string.c **** }
 405:/mnt/c/Users/31740/Documents/codes/newcore-rp2350/lib/_string.c **** EXPORT_SYMBOL(strlen);
 406:/mnt/c/Users/31740/Documents/codes/newcore-rp2350/lib/_string.c **** #endif
 407:/mnt/c/Users/31740/Documents/codes/newcore-rp2350/lib/_string.c **** 
 408:/mnt/c/Users/31740/Documents/codes/newcore-rp2350/lib/_string.c **** #ifndef __HAVE_ARCH_STRNLEN
 409:/mnt/c/Users/31740/Documents/codes/newcore-rp2350/lib/_string.c **** size_t strnlen(const char *s, size_t count)
 410:/mnt/c/Users/31740/Documents/codes/newcore-rp2350/lib/_string.c **** {
 411:/mnt/c/Users/31740/Documents/codes/newcore-rp2350/lib/_string.c **** 	const char *sc;
 412:/mnt/c/Users/31740/Documents/codes/newcore-rp2350/lib/_string.c **** 
 413:/mnt/c/Users/31740/Documents/codes/newcore-rp2350/lib/_string.c **** 	for (sc = s; count-- && *sc != '\0'; ++sc)
 414:/mnt/c/Users/31740/Documents/codes/newcore-rp2350/lib/_string.c **** 		/* nothing */;
 415:/mnt/c/Users/31740/Documents/codes/newcore-rp2350/lib/_string.c **** 	return sc - s;
 416:/mnt/c/Users/31740/Documents/codes/newcore-rp2350/lib/_string.c **** }
 417:/mnt/c/Users/31740/Documents/codes/newcore-rp2350/lib/_string.c **** EXPORT_SYMBOL(strnlen);
 418:/mnt/c/Users/31740/Documents/codes/newcore-rp2350/lib/_string.c **** #endif
 419:/mnt/c/Users/31740/Documents/codes/newcore-rp2350/lib/_string.c **** 
 420:/mnt/c/Users/31740/Documents/codes/newcore-rp2350/lib/_string.c **** #ifndef __HAVE_ARCH_STRSPN
 421:/mnt/c/Users/31740/Documents/codes/newcore-rp2350/lib/_string.c **** /**
 422:/mnt/c/Users/31740/Documents/codes/newcore-rp2350/lib/_string.c ****  * strspn - Calculate the length of the initial substring of @s which only contain letters in @acce
 423:/mnt/c/Users/31740/Documents/codes/newcore-rp2350/lib/_string.c ****  * @s: The string to be searched
 424:/mnt/c/Users/31740/Documents/codes/newcore-rp2350/lib/_string.c ****  * @accept: The string to search for
 425:/mnt/c/Users/31740/Documents/codes/newcore-rp2350/lib/_string.c ****  */
 426:/mnt/c/Users/31740/Documents/codes/newcore-rp2350/lib/_string.c **** size_t strspn(const char *s, const char *accept)
 427:/mnt/c/Users/31740/Documents/codes/newcore-rp2350/lib/_string.c **** {
 428:/mnt/c/Users/31740/Documents/codes/newcore-rp2350/lib/_string.c **** 	const char *p;
 429:/mnt/c/Users/31740/Documents/codes/newcore-rp2350/lib/_string.c **** 
 430:/mnt/c/Users/31740/Documents/codes/newcore-rp2350/lib/_string.c **** 	for (p = s; *p != '\0'; ++p) {
 431:/mnt/c/Users/31740/Documents/codes/newcore-rp2350/lib/_string.c **** 		if (!strchr(accept, *p))
 432:/mnt/c/Users/31740/Documents/codes/newcore-rp2350/lib/_string.c **** 			break;
 433:/mnt/c/Users/31740/Documents/codes/newcore-rp2350/lib/_string.c **** 	}
 434:/mnt/c/Users/31740/Documents/codes/newcore-rp2350/lib/_string.c **** 	return p - s;
 435:/mnt/c/Users/31740/Documents/codes/newcore-rp2350/lib/_string.c **** }
 436:/mnt/c/Users/31740/Documents/codes/newcore-rp2350/lib/_string.c **** EXPORT_SYMBOL(strspn);
 437:/mnt/c/Users/31740/Documents/codes/newcore-rp2350/lib/_string.c **** #endif
 438:/mnt/c/Users/31740/Documents/codes/newcore-rp2350/lib/_string.c **** 
 439:/mnt/c/Users/31740/Documents/codes/newcore-rp2350/lib/_string.c **** #ifndef __HAVE_ARCH_STRCSPN
 440:/mnt/c/Users/31740/Documents/codes/newcore-rp2350/lib/_string.c **** /**
 441:/mnt/c/Users/31740/Documents/codes/newcore-rp2350/lib/_string.c ****  * strcspn - Calculate the length of the initial substring of @s which does not contain letters in 
 442:/mnt/c/Users/31740/Documents/codes/newcore-rp2350/lib/_string.c ****  * @s: The string to be searched
 443:/mnt/c/Users/31740/Documents/codes/newcore-rp2350/lib/_string.c ****  * @reject: The string to avoid
 444:/mnt/c/Users/31740/Documents/codes/newcore-rp2350/lib/_string.c ****  */
 445:/mnt/c/Users/31740/Documents/codes/newcore-rp2350/lib/_string.c **** size_t strcspn(const char *s, const char *reject)
 446:/mnt/c/Users/31740/Documents/codes/newcore-rp2350/lib/_string.c **** {
 447:/mnt/c/Users/31740/Documents/codes/newcore-rp2350/lib/_string.c **** 	const char *p;
 448:/mnt/c/Users/31740/Documents/codes/newcore-rp2350/lib/_string.c **** 
 449:/mnt/c/Users/31740/Documents/codes/newcore-rp2350/lib/_string.c **** 	for (p = s; *p != '\0'; ++p) {
 450:/mnt/c/Users/31740/Documents/codes/newcore-rp2350/lib/_string.c **** 		if (strchr(reject, *p))
 451:/mnt/c/Users/31740/Documents/codes/newcore-rp2350/lib/_string.c **** 			break;
 452:/mnt/c/Users/31740/Documents/codes/newcore-rp2350/lib/_string.c **** 	}
 453:/mnt/c/Users/31740/Documents/codes/newcore-rp2350/lib/_string.c **** 	return p - s;
 454:/mnt/c/Users/31740/Documents/codes/newcore-rp2350/lib/_string.c **** }
 455:/mnt/c/Users/31740/Documents/codes/newcore-rp2350/lib/_string.c **** EXPORT_SYMBOL(strcspn);
 456:/mnt/c/Users/31740/Documents/codes/newcore-rp2350/lib/_string.c **** #endif
 457:/mnt/c/Users/31740/Documents/codes/newcore-rp2350/lib/_string.c **** 
 458:/mnt/c/Users/31740/Documents/codes/newcore-rp2350/lib/_string.c **** #ifndef __HAVE_ARCH_STRPBRK
 459:/mnt/c/Users/31740/Documents/codes/newcore-rp2350/lib/_string.c **** /**
 460:/mnt/c/Users/31740/Documents/codes/newcore-rp2350/lib/_string.c ****  * strpbrk - Find the first occurrence of a set of characters
ARM GAS  /tmp/ccYsdBMV.s 			page 18


 461:/mnt/c/Users/31740/Documents/codes/newcore-rp2350/lib/_string.c ****  * @cs: The string to be searched
 462:/mnt/c/Users/31740/Documents/codes/newcore-rp2350/lib/_string.c ****  * @ct: The characters to search for
 463:/mnt/c/Users/31740/Documents/codes/newcore-rp2350/lib/_string.c ****  */
 464:/mnt/c/Users/31740/Documents/codes/newcore-rp2350/lib/_string.c **** char *strpbrk(const char *cs, const char *ct)
 465:/mnt/c/Users/31740/Documents/codes/newcore-rp2350/lib/_string.c **** {
 466:/mnt/c/Users/31740/Documents/codes/newcore-rp2350/lib/_string.c **** 	const char *sc;
 467:/mnt/c/Users/31740/Documents/codes/newcore-rp2350/lib/_string.c **** 
 468:/mnt/c/Users/31740/Documents/codes/newcore-rp2350/lib/_string.c **** 	for (sc = cs; *sc != '\0'; ++sc) {
 469:/mnt/c/Users/31740/Documents/codes/newcore-rp2350/lib/_string.c **** 		if (strchr(ct, *sc))
 470:/mnt/c/Users/31740/Documents/codes/newcore-rp2350/lib/_string.c **** 			return (char *)sc;
 471:/mnt/c/Users/31740/Documents/codes/newcore-rp2350/lib/_string.c **** 	}
 472:/mnt/c/Users/31740/Documents/codes/newcore-rp2350/lib/_string.c **** 	return NULL;
 473:/mnt/c/Users/31740/Documents/codes/newcore-rp2350/lib/_string.c **** }
 474:/mnt/c/Users/31740/Documents/codes/newcore-rp2350/lib/_string.c **** EXPORT_SYMBOL(strpbrk);
 475:/mnt/c/Users/31740/Documents/codes/newcore-rp2350/lib/_string.c **** #endif
 476:/mnt/c/Users/31740/Documents/codes/newcore-rp2350/lib/_string.c **** 
 477:/mnt/c/Users/31740/Documents/codes/newcore-rp2350/lib/_string.c **** #ifndef __HAVE_ARCH_STRSEP
 478:/mnt/c/Users/31740/Documents/codes/newcore-rp2350/lib/_string.c **** /**
 479:/mnt/c/Users/31740/Documents/codes/newcore-rp2350/lib/_string.c ****  * strsep - Split a string into tokens
 480:/mnt/c/Users/31740/Documents/codes/newcore-rp2350/lib/_string.c ****  * @s: The string to be searched
 481:/mnt/c/Users/31740/Documents/codes/newcore-rp2350/lib/_string.c ****  * @ct: The characters to search for
 482:/mnt/c/Users/31740/Documents/codes/newcore-rp2350/lib/_string.c ****  *
 483:/mnt/c/Users/31740/Documents/codes/newcore-rp2350/lib/_string.c ****  * strsep() updates @s to point after the token, ready for the next call.
 484:/mnt/c/Users/31740/Documents/codes/newcore-rp2350/lib/_string.c ****  *
 485:/mnt/c/Users/31740/Documents/codes/newcore-rp2350/lib/_string.c ****  * It returns empty tokens, too, behaving exactly like the libc function
 486:/mnt/c/Users/31740/Documents/codes/newcore-rp2350/lib/_string.c ****  * of that name. In fact, it was stolen from glibc2 and de-fancy-fied.
 487:/mnt/c/Users/31740/Documents/codes/newcore-rp2350/lib/_string.c ****  * Same semantics, slimmer shape. ;)
 488:/mnt/c/Users/31740/Documents/codes/newcore-rp2350/lib/_string.c ****  */
 489:/mnt/c/Users/31740/Documents/codes/newcore-rp2350/lib/_string.c **** char *strsep(char **s, const char *ct)
 490:/mnt/c/Users/31740/Documents/codes/newcore-rp2350/lib/_string.c **** {
 491:/mnt/c/Users/31740/Documents/codes/newcore-rp2350/lib/_string.c **** 	char *sbegin = *s;
 492:/mnt/c/Users/31740/Documents/codes/newcore-rp2350/lib/_string.c **** 	char *end;
 493:/mnt/c/Users/31740/Documents/codes/newcore-rp2350/lib/_string.c **** 
 494:/mnt/c/Users/31740/Documents/codes/newcore-rp2350/lib/_string.c **** 	if (sbegin == NULL)
 495:/mnt/c/Users/31740/Documents/codes/newcore-rp2350/lib/_string.c **** 		return NULL;
 496:/mnt/c/Users/31740/Documents/codes/newcore-rp2350/lib/_string.c **** 
 497:/mnt/c/Users/31740/Documents/codes/newcore-rp2350/lib/_string.c **** 	end = strpbrk(sbegin, ct);
 498:/mnt/c/Users/31740/Documents/codes/newcore-rp2350/lib/_string.c **** 	if (end)
 499:/mnt/c/Users/31740/Documents/codes/newcore-rp2350/lib/_string.c **** 		*end++ = '\0';
 500:/mnt/c/Users/31740/Documents/codes/newcore-rp2350/lib/_string.c **** 	*s = end;
 501:/mnt/c/Users/31740/Documents/codes/newcore-rp2350/lib/_string.c **** 	return sbegin;
 502:/mnt/c/Users/31740/Documents/codes/newcore-rp2350/lib/_string.c **** }
 503:/mnt/c/Users/31740/Documents/codes/newcore-rp2350/lib/_string.c **** EXPORT_SYMBOL(strsep);
 504:/mnt/c/Users/31740/Documents/codes/newcore-rp2350/lib/_string.c **** #endif
 505:/mnt/c/Users/31740/Documents/codes/newcore-rp2350/lib/_string.c **** 
 506:/mnt/c/Users/31740/Documents/codes/newcore-rp2350/lib/_string.c **** #ifndef __HAVE_ARCH_MEMSET
 507:/mnt/c/Users/31740/Documents/codes/newcore-rp2350/lib/_string.c **** /**
 508:/mnt/c/Users/31740/Documents/codes/newcore-rp2350/lib/_string.c ****  * memset - Fill a region of memory with the given value
 509:/mnt/c/Users/31740/Documents/codes/newcore-rp2350/lib/_string.c ****  * @s: Pointer to the start of the area.
 510:/mnt/c/Users/31740/Documents/codes/newcore-rp2350/lib/_string.c ****  * @c: The byte to fill the area with
 511:/mnt/c/Users/31740/Documents/codes/newcore-rp2350/lib/_string.c ****  * @count: The size of the area.
 512:/mnt/c/Users/31740/Documents/codes/newcore-rp2350/lib/_string.c ****  *
 513:/mnt/c/Users/31740/Documents/codes/newcore-rp2350/lib/_string.c ****  * Do not use memset() to access IO space, use memset_io() instead.
 514:/mnt/c/Users/31740/Documents/codes/newcore-rp2350/lib/_string.c ****  */
 515:/mnt/c/Users/31740/Documents/codes/newcore-rp2350/lib/_string.c **** void *memset(void *s, int c, size_t count)
 516:/mnt/c/Users/31740/Documents/codes/newcore-rp2350/lib/_string.c **** {
 517:/mnt/c/Users/31740/Documents/codes/newcore-rp2350/lib/_string.c **** 	char *xs = s;
ARM GAS  /tmp/ccYsdBMV.s 			page 19


 518:/mnt/c/Users/31740/Documents/codes/newcore-rp2350/lib/_string.c **** 
 519:/mnt/c/Users/31740/Documents/codes/newcore-rp2350/lib/_string.c **** 	while (count--)
 520:/mnt/c/Users/31740/Documents/codes/newcore-rp2350/lib/_string.c **** 		*xs++ = c;
 521:/mnt/c/Users/31740/Documents/codes/newcore-rp2350/lib/_string.c **** 	return s;
 522:/mnt/c/Users/31740/Documents/codes/newcore-rp2350/lib/_string.c **** }
 523:/mnt/c/Users/31740/Documents/codes/newcore-rp2350/lib/_string.c **** EXPORT_SYMBOL(memset);
 524:/mnt/c/Users/31740/Documents/codes/newcore-rp2350/lib/_string.c **** #endif
 525:/mnt/c/Users/31740/Documents/codes/newcore-rp2350/lib/_string.c **** 
 526:/mnt/c/Users/31740/Documents/codes/newcore-rp2350/lib/_string.c **** #ifndef __HAVE_ARCH_MEMSET16
 527:/mnt/c/Users/31740/Documents/codes/newcore-rp2350/lib/_string.c **** /**
 528:/mnt/c/Users/31740/Documents/codes/newcore-rp2350/lib/_string.c ****  * memset16() - Fill a memory area with a uint16_t
 529:/mnt/c/Users/31740/Documents/codes/newcore-rp2350/lib/_string.c ****  * @s: Pointer to the start of the area.
 530:/mnt/c/Users/31740/Documents/codes/newcore-rp2350/lib/_string.c ****  * @v: The value to fill the area with
 531:/mnt/c/Users/31740/Documents/codes/newcore-rp2350/lib/_string.c ****  * @count: The number of values to store
 532:/mnt/c/Users/31740/Documents/codes/newcore-rp2350/lib/_string.c ****  *
 533:/mnt/c/Users/31740/Documents/codes/newcore-rp2350/lib/_string.c ****  * Differs from memset() in that it fills with a uint16_t instead
 534:/mnt/c/Users/31740/Documents/codes/newcore-rp2350/lib/_string.c ****  * of a byte.  Remember that @count is the number of uint16_ts to
 535:/mnt/c/Users/31740/Documents/codes/newcore-rp2350/lib/_string.c ****  * store, not the number of bytes.
 536:/mnt/c/Users/31740/Documents/codes/newcore-rp2350/lib/_string.c ****  */
 537:/mnt/c/Users/31740/Documents/codes/newcore-rp2350/lib/_string.c **** void *memset16(uint16_t *s, uint16_t v, size_t count)
 538:/mnt/c/Users/31740/Documents/codes/newcore-rp2350/lib/_string.c **** {
 496              		.loc 1 538 1 is_stmt 1 view -0
 497              		.cfi_startproc
 498              		@ args = 0, pretend = 0, frame = 0
 499              		@ frame_needed = 0, uses_anonymous_args = 0
 500              		@ link register save eliminated.
 539:/mnt/c/Users/31740/Documents/codes/newcore-rp2350/lib/_string.c **** 	uint16_t *xs = s;
 501              		.loc 1 539 2 view .LVU130
 540:/mnt/c/Users/31740/Documents/codes/newcore-rp2350/lib/_string.c **** 
 541:/mnt/c/Users/31740/Documents/codes/newcore-rp2350/lib/_string.c **** 	while (count--)
 502              		.loc 1 541 2 view .LVU131
 539:/mnt/c/Users/31740/Documents/codes/newcore-rp2350/lib/_string.c **** 	uint16_t *xs = s;
 503              		.loc 1 539 12 is_stmt 0 view .LVU132
 504 0000 0346     		mov	r3, r0
 505              		.loc 1 541 8 view .LVU133
 506 0002 02E0     		b	.L53
 507              	.LVL53:
 508              	.L54:
 542:/mnt/c/Users/31740/Documents/codes/newcore-rp2350/lib/_string.c **** 		*xs++ = v;
 509              		.loc 1 542 3 is_stmt 1 view .LVU134
 510              		.loc 1 542 9 is_stmt 0 view .LVU135
 511 0004 23F8021B 		strh	r1, [r3], #2	@ movhi
 512              	.LVL54:
 541:/mnt/c/Users/31740/Documents/codes/newcore-rp2350/lib/_string.c **** 		*xs++ = v;
 513              		.loc 1 541 14 view .LVU136
 514 0008 6246     		mov	r2, ip
 515              	.LVL55:
 516              	.L53:
 541:/mnt/c/Users/31740/Documents/codes/newcore-rp2350/lib/_string.c **** 		*xs++ = v;
 517              		.loc 1 541 9 is_stmt 1 view .LVU137
 541:/mnt/c/Users/31740/Documents/codes/newcore-rp2350/lib/_string.c **** 		*xs++ = v;
 518              		.loc 1 541 14 is_stmt 0 view .LVU138
 519 000a 02F1FF3C 		add	ip, r2, #-1
 520              	.LVL56:
 541:/mnt/c/Users/31740/Documents/codes/newcore-rp2350/lib/_string.c **** 		*xs++ = v;
 521              		.loc 1 541 9 view .LVU139
 522 000e 002A     		cmp	r2, #0
ARM GAS  /tmp/ccYsdBMV.s 			page 20


 523 0010 F8D1     		bne	.L54
 543:/mnt/c/Users/31740/Documents/codes/newcore-rp2350/lib/_string.c **** 	return s;
 524              		.loc 1 543 2 is_stmt 1 view .LVU140
 544:/mnt/c/Users/31740/Documents/codes/newcore-rp2350/lib/_string.c **** }
 525              		.loc 1 544 1 is_stmt 0 view .LVU141
 526 0012 7047     		bx	lr
 527              		.cfi_endproc
 528              	.LFE71:
 530              		.section	.text.memscan,"ax",%progbits
 531              		.align	1
 532              		.global	memscan
 533              		.syntax unified
 534              		.thumb
 535              		.thumb_func
 537              	memscan:
 538              	.LVL57:
 539              	.LFB73:
 545:/mnt/c/Users/31740/Documents/codes/newcore-rp2350/lib/_string.c **** EXPORT_SYMBOL(memset16);
 546:/mnt/c/Users/31740/Documents/codes/newcore-rp2350/lib/_string.c **** #endif
 547:/mnt/c/Users/31740/Documents/codes/newcore-rp2350/lib/_string.c **** 
 548:/mnt/c/Users/31740/Documents/codes/newcore-rp2350/lib/_string.c **** #ifndef __HAVE_ARCH_MEMSET32
 549:/mnt/c/Users/31740/Documents/codes/newcore-rp2350/lib/_string.c **** /**
 550:/mnt/c/Users/31740/Documents/codes/newcore-rp2350/lib/_string.c ****  * memset32() - Fill a memory area with a uint32_t
 551:/mnt/c/Users/31740/Documents/codes/newcore-rp2350/lib/_string.c ****  * @s: Pointer to the start of the area.
 552:/mnt/c/Users/31740/Documents/codes/newcore-rp2350/lib/_string.c ****  * @v: The value to fill the area with
 553:/mnt/c/Users/31740/Documents/codes/newcore-rp2350/lib/_string.c ****  * @count: The number of values to store
 554:/mnt/c/Users/31740/Documents/codes/newcore-rp2350/lib/_string.c ****  *
 555:/mnt/c/Users/31740/Documents/codes/newcore-rp2350/lib/_string.c ****  * Differs from memset() in that it fills with a uint32_t instead
 556:/mnt/c/Users/31740/Documents/codes/newcore-rp2350/lib/_string.c ****  * of a byte.  Remember that @count is the number of uint32_ts to
 557:/mnt/c/Users/31740/Documents/codes/newcore-rp2350/lib/_string.c ****  * store, not the number of bytes.
 558:/mnt/c/Users/31740/Documents/codes/newcore-rp2350/lib/_string.c ****  */
 559:/mnt/c/Users/31740/Documents/codes/newcore-rp2350/lib/_string.c **** void *memset32(uint32_t *s, uint32_t v, size_t count)
 560:/mnt/c/Users/31740/Documents/codes/newcore-rp2350/lib/_string.c **** {
 561:/mnt/c/Users/31740/Documents/codes/newcore-rp2350/lib/_string.c **** 	uint32_t *xs = s;
 562:/mnt/c/Users/31740/Documents/codes/newcore-rp2350/lib/_string.c **** 
 563:/mnt/c/Users/31740/Documents/codes/newcore-rp2350/lib/_string.c **** 	while (count--)
 564:/mnt/c/Users/31740/Documents/codes/newcore-rp2350/lib/_string.c **** 		*xs++ = v;
 565:/mnt/c/Users/31740/Documents/codes/newcore-rp2350/lib/_string.c **** 	return s;
 566:/mnt/c/Users/31740/Documents/codes/newcore-rp2350/lib/_string.c **** }
 567:/mnt/c/Users/31740/Documents/codes/newcore-rp2350/lib/_string.c **** EXPORT_SYMBOL(memset32);
 568:/mnt/c/Users/31740/Documents/codes/newcore-rp2350/lib/_string.c **** #endif
 569:/mnt/c/Users/31740/Documents/codes/newcore-rp2350/lib/_string.c **** 
 570:/mnt/c/Users/31740/Documents/codes/newcore-rp2350/lib/_string.c **** #ifndef __HAVE_ARCH_MEMSET64
 571:/mnt/c/Users/31740/Documents/codes/newcore-rp2350/lib/_string.c **** /**
 572:/mnt/c/Users/31740/Documents/codes/newcore-rp2350/lib/_string.c ****  * memset64() - Fill a memory area with a uint64_t
 573:/mnt/c/Users/31740/Documents/codes/newcore-rp2350/lib/_string.c ****  * @s: Pointer to the start of the area.
 574:/mnt/c/Users/31740/Documents/codes/newcore-rp2350/lib/_string.c ****  * @v: The value to fill the area with
 575:/mnt/c/Users/31740/Documents/codes/newcore-rp2350/lib/_string.c ****  * @count: The number of values to store
 576:/mnt/c/Users/31740/Documents/codes/newcore-rp2350/lib/_string.c ****  *
 577:/mnt/c/Users/31740/Documents/codes/newcore-rp2350/lib/_string.c ****  * Differs from memset() in that it fills with a uint64_t instead
 578:/mnt/c/Users/31740/Documents/codes/newcore-rp2350/lib/_string.c ****  * of a byte.  Remember that @count is the number of uint64_ts to
 579:/mnt/c/Users/31740/Documents/codes/newcore-rp2350/lib/_string.c ****  * store, not the number of bytes.
 580:/mnt/c/Users/31740/Documents/codes/newcore-rp2350/lib/_string.c ****  */
 581:/mnt/c/Users/31740/Documents/codes/newcore-rp2350/lib/_string.c **** void *memset64(uint64_t *s, uint64_t v, size_t count)
 582:/mnt/c/Users/31740/Documents/codes/newcore-rp2350/lib/_string.c **** {
 583:/mnt/c/Users/31740/Documents/codes/newcore-rp2350/lib/_string.c **** 	uint64_t *xs = s;
 584:/mnt/c/Users/31740/Documents/codes/newcore-rp2350/lib/_string.c **** 
ARM GAS  /tmp/ccYsdBMV.s 			page 21


 585:/mnt/c/Users/31740/Documents/codes/newcore-rp2350/lib/_string.c **** 	while (count--)
 586:/mnt/c/Users/31740/Documents/codes/newcore-rp2350/lib/_string.c **** 		*xs++ = v;
 587:/mnt/c/Users/31740/Documents/codes/newcore-rp2350/lib/_string.c **** 	return s;
 588:/mnt/c/Users/31740/Documents/codes/newcore-rp2350/lib/_string.c **** }
 589:/mnt/c/Users/31740/Documents/codes/newcore-rp2350/lib/_string.c **** EXPORT_SYMBOL(memset64);
 590:/mnt/c/Users/31740/Documents/codes/newcore-rp2350/lib/_string.c **** #endif
 591:/mnt/c/Users/31740/Documents/codes/newcore-rp2350/lib/_string.c **** 
 592:/mnt/c/Users/31740/Documents/codes/newcore-rp2350/lib/_string.c **** #ifndef __HAVE_ARCH_MEMCPY
 593:/mnt/c/Users/31740/Documents/codes/newcore-rp2350/lib/_string.c **** /**
 594:/mnt/c/Users/31740/Documents/codes/newcore-rp2350/lib/_string.c ****  * memcpy - Copy one area of memory to another
 595:/mnt/c/Users/31740/Documents/codes/newcore-rp2350/lib/_string.c ****  * @dest: Where to copy to
 596:/mnt/c/Users/31740/Documents/codes/newcore-rp2350/lib/_string.c ****  * @src: Where to copy from
 597:/mnt/c/Users/31740/Documents/codes/newcore-rp2350/lib/_string.c ****  * @count: The size of the area.
 598:/mnt/c/Users/31740/Documents/codes/newcore-rp2350/lib/_string.c ****  *
 599:/mnt/c/Users/31740/Documents/codes/newcore-rp2350/lib/_string.c ****  * You should not use this function to access IO space, use memcpy_toio()
 600:/mnt/c/Users/31740/Documents/codes/newcore-rp2350/lib/_string.c ****  * or memcpy_fromio() instead.
 601:/mnt/c/Users/31740/Documents/codes/newcore-rp2350/lib/_string.c ****  */
 602:/mnt/c/Users/31740/Documents/codes/newcore-rp2350/lib/_string.c **** void *memcpy(void *dest, const void *src, size_t count)
 603:/mnt/c/Users/31740/Documents/codes/newcore-rp2350/lib/_string.c **** {
 604:/mnt/c/Users/31740/Documents/codes/newcore-rp2350/lib/_string.c **** 	char *tmp = dest;
 605:/mnt/c/Users/31740/Documents/codes/newcore-rp2350/lib/_string.c **** 	const char *s = src;
 606:/mnt/c/Users/31740/Documents/codes/newcore-rp2350/lib/_string.c **** 
 607:/mnt/c/Users/31740/Documents/codes/newcore-rp2350/lib/_string.c **** 	while (count--)
 608:/mnt/c/Users/31740/Documents/codes/newcore-rp2350/lib/_string.c **** 		*tmp++ = *s++;
 609:/mnt/c/Users/31740/Documents/codes/newcore-rp2350/lib/_string.c **** 	return dest;
 610:/mnt/c/Users/31740/Documents/codes/newcore-rp2350/lib/_string.c **** }
 611:/mnt/c/Users/31740/Documents/codes/newcore-rp2350/lib/_string.c **** EXPORT_SYMBOL(memcpy);
 612:/mnt/c/Users/31740/Documents/codes/newcore-rp2350/lib/_string.c **** #endif
 613:/mnt/c/Users/31740/Documents/codes/newcore-rp2350/lib/_string.c **** 
 614:/mnt/c/Users/31740/Documents/codes/newcore-rp2350/lib/_string.c **** #ifndef __HAVE_ARCH_MEMMOVE
 615:/mnt/c/Users/31740/Documents/codes/newcore-rp2350/lib/_string.c **** /**
 616:/mnt/c/Users/31740/Documents/codes/newcore-rp2350/lib/_string.c ****  * memmove - Copy one area of memory to another
 617:/mnt/c/Users/31740/Documents/codes/newcore-rp2350/lib/_string.c ****  * @dest: Where to copy to
 618:/mnt/c/Users/31740/Documents/codes/newcore-rp2350/lib/_string.c ****  * @src: Where to copy from
 619:/mnt/c/Users/31740/Documents/codes/newcore-rp2350/lib/_string.c ****  * @count: The size of the area.
 620:/mnt/c/Users/31740/Documents/codes/newcore-rp2350/lib/_string.c ****  *
 621:/mnt/c/Users/31740/Documents/codes/newcore-rp2350/lib/_string.c ****  * Unlike memcpy(), memmove() copes with overlapping areas.
 622:/mnt/c/Users/31740/Documents/codes/newcore-rp2350/lib/_string.c ****  */
 623:/mnt/c/Users/31740/Documents/codes/newcore-rp2350/lib/_string.c **** void *memmove(void *dest, const void *src, size_t count)
 624:/mnt/c/Users/31740/Documents/codes/newcore-rp2350/lib/_string.c **** {
 625:/mnt/c/Users/31740/Documents/codes/newcore-rp2350/lib/_string.c **** 	char *tmp;
 626:/mnt/c/Users/31740/Documents/codes/newcore-rp2350/lib/_string.c **** 	const char *s;
 627:/mnt/c/Users/31740/Documents/codes/newcore-rp2350/lib/_string.c **** 
 628:/mnt/c/Users/31740/Documents/codes/newcore-rp2350/lib/_string.c **** 	if (dest <= src) {
 629:/mnt/c/Users/31740/Documents/codes/newcore-rp2350/lib/_string.c **** 		tmp = dest;
 630:/mnt/c/Users/31740/Documents/codes/newcore-rp2350/lib/_string.c **** 		s = src;
 631:/mnt/c/Users/31740/Documents/codes/newcore-rp2350/lib/_string.c **** 		while (count--)
 632:/mnt/c/Users/31740/Documents/codes/newcore-rp2350/lib/_string.c **** 			*tmp++ = *s++;
 633:/mnt/c/Users/31740/Documents/codes/newcore-rp2350/lib/_string.c **** 	} else {
 634:/mnt/c/Users/31740/Documents/codes/newcore-rp2350/lib/_string.c **** 		tmp = dest;
 635:/mnt/c/Users/31740/Documents/codes/newcore-rp2350/lib/_string.c **** 		tmp += count;
 636:/mnt/c/Users/31740/Documents/codes/newcore-rp2350/lib/_string.c **** 		s = src;
 637:/mnt/c/Users/31740/Documents/codes/newcore-rp2350/lib/_string.c **** 		s += count;
 638:/mnt/c/Users/31740/Documents/codes/newcore-rp2350/lib/_string.c **** 		while (count--)
 639:/mnt/c/Users/31740/Documents/codes/newcore-rp2350/lib/_string.c **** 			*--tmp = *--s;
 640:/mnt/c/Users/31740/Documents/codes/newcore-rp2350/lib/_string.c **** 	}
 641:/mnt/c/Users/31740/Documents/codes/newcore-rp2350/lib/_string.c **** 	return dest;
ARM GAS  /tmp/ccYsdBMV.s 			page 22


 642:/mnt/c/Users/31740/Documents/codes/newcore-rp2350/lib/_string.c **** }
 643:/mnt/c/Users/31740/Documents/codes/newcore-rp2350/lib/_string.c **** EXPORT_SYMBOL(memmove);
 644:/mnt/c/Users/31740/Documents/codes/newcore-rp2350/lib/_string.c **** #endif
 645:/mnt/c/Users/31740/Documents/codes/newcore-rp2350/lib/_string.c **** 
 646:/mnt/c/Users/31740/Documents/codes/newcore-rp2350/lib/_string.c **** #ifndef __HAVE_ARCH_MEMCMP
 647:/mnt/c/Users/31740/Documents/codes/newcore-rp2350/lib/_string.c **** /**
 648:/mnt/c/Users/31740/Documents/codes/newcore-rp2350/lib/_string.c ****  * memcmp - Compare two areas of memory
 649:/mnt/c/Users/31740/Documents/codes/newcore-rp2350/lib/_string.c ****  * @cs: One area of memory
 650:/mnt/c/Users/31740/Documents/codes/newcore-rp2350/lib/_string.c ****  * @ct: Another area of memory
 651:/mnt/c/Users/31740/Documents/codes/newcore-rp2350/lib/_string.c ****  * @count: The size of the area.
 652:/mnt/c/Users/31740/Documents/codes/newcore-rp2350/lib/_string.c ****  */
 653:/mnt/c/Users/31740/Documents/codes/newcore-rp2350/lib/_string.c **** #undef memcmp
 654:/mnt/c/Users/31740/Documents/codes/newcore-rp2350/lib/_string.c **** __visible int memcmp(const void *cs, const void *ct, size_t count)
 655:/mnt/c/Users/31740/Documents/codes/newcore-rp2350/lib/_string.c **** {
 656:/mnt/c/Users/31740/Documents/codes/newcore-rp2350/lib/_string.c **** 	const unsigned char *su1, *su2;
 657:/mnt/c/Users/31740/Documents/codes/newcore-rp2350/lib/_string.c **** 	int res = 0;
 658:/mnt/c/Users/31740/Documents/codes/newcore-rp2350/lib/_string.c **** 
 659:/mnt/c/Users/31740/Documents/codes/newcore-rp2350/lib/_string.c **** #ifdef CONFIG_HAVE_EFFICIENT_UNALIGNED_ACCESS
 660:/mnt/c/Users/31740/Documents/codes/newcore-rp2350/lib/_string.c **** 	if (count >= sizeof(unsigned long)) {
 661:/mnt/c/Users/31740/Documents/codes/newcore-rp2350/lib/_string.c **** 		const unsigned long *u1 = cs;
 662:/mnt/c/Users/31740/Documents/codes/newcore-rp2350/lib/_string.c **** 		const unsigned long *u2 = ct;
 663:/mnt/c/Users/31740/Documents/codes/newcore-rp2350/lib/_string.c **** 		do {
 664:/mnt/c/Users/31740/Documents/codes/newcore-rp2350/lib/_string.c **** 			if (get_unaligned(u1) != get_unaligned(u2))
 665:/mnt/c/Users/31740/Documents/codes/newcore-rp2350/lib/_string.c **** 				break;
 666:/mnt/c/Users/31740/Documents/codes/newcore-rp2350/lib/_string.c **** 			u1++;
 667:/mnt/c/Users/31740/Documents/codes/newcore-rp2350/lib/_string.c **** 			u2++;
 668:/mnt/c/Users/31740/Documents/codes/newcore-rp2350/lib/_string.c **** 			count -= sizeof(unsigned long);
 669:/mnt/c/Users/31740/Documents/codes/newcore-rp2350/lib/_string.c **** 		} while (count >= sizeof(unsigned long));
 670:/mnt/c/Users/31740/Documents/codes/newcore-rp2350/lib/_string.c **** 		cs = u1;
 671:/mnt/c/Users/31740/Documents/codes/newcore-rp2350/lib/_string.c **** 		ct = u2;
 672:/mnt/c/Users/31740/Documents/codes/newcore-rp2350/lib/_string.c **** 	}
 673:/mnt/c/Users/31740/Documents/codes/newcore-rp2350/lib/_string.c **** #endif
 674:/mnt/c/Users/31740/Documents/codes/newcore-rp2350/lib/_string.c **** 	for (su1 = cs, su2 = ct; 0 < count; ++su1, ++su2, count--)
 675:/mnt/c/Users/31740/Documents/codes/newcore-rp2350/lib/_string.c **** 		if ((res = *su1 - *su2) != 0)
 676:/mnt/c/Users/31740/Documents/codes/newcore-rp2350/lib/_string.c **** 			break;
 677:/mnt/c/Users/31740/Documents/codes/newcore-rp2350/lib/_string.c **** 	return res;
 678:/mnt/c/Users/31740/Documents/codes/newcore-rp2350/lib/_string.c **** }
 679:/mnt/c/Users/31740/Documents/codes/newcore-rp2350/lib/_string.c **** EXPORT_SYMBOL(memcmp);
 680:/mnt/c/Users/31740/Documents/codes/newcore-rp2350/lib/_string.c **** #endif
 681:/mnt/c/Users/31740/Documents/codes/newcore-rp2350/lib/_string.c **** 
 682:/mnt/c/Users/31740/Documents/codes/newcore-rp2350/lib/_string.c **** #ifndef __HAVE_ARCH_BCMP
 683:/mnt/c/Users/31740/Documents/codes/newcore-rp2350/lib/_string.c **** /**
 684:/mnt/c/Users/31740/Documents/codes/newcore-rp2350/lib/_string.c ****  * bcmp - returns 0 if and only if the buffers have identical contents.
 685:/mnt/c/Users/31740/Documents/codes/newcore-rp2350/lib/_string.c ****  * @a: pointer to first buffer.
 686:/mnt/c/Users/31740/Documents/codes/newcore-rp2350/lib/_string.c ****  * @b: pointer to second buffer.
 687:/mnt/c/Users/31740/Documents/codes/newcore-rp2350/lib/_string.c ****  * @len: size of buffers.
 688:/mnt/c/Users/31740/Documents/codes/newcore-rp2350/lib/_string.c ****  *
 689:/mnt/c/Users/31740/Documents/codes/newcore-rp2350/lib/_string.c ****  * The sign or magnitude of a non-zero return value has no particular
 690:/mnt/c/Users/31740/Documents/codes/newcore-rp2350/lib/_string.c ****  * meaning, and architectures may implement their own more efficient bcmp(). So
 691:/mnt/c/Users/31740/Documents/codes/newcore-rp2350/lib/_string.c ****  * while this particular implementation is a simple (tail) call to memcmp, do
 692:/mnt/c/Users/31740/Documents/codes/newcore-rp2350/lib/_string.c ****  * not rely on anything but whether the return value is zero or non-zero.
 693:/mnt/c/Users/31740/Documents/codes/newcore-rp2350/lib/_string.c ****  */
 694:/mnt/c/Users/31740/Documents/codes/newcore-rp2350/lib/_string.c **** int bcmp(const void *a, const void *b, size_t len)
 695:/mnt/c/Users/31740/Documents/codes/newcore-rp2350/lib/_string.c **** {
 696:/mnt/c/Users/31740/Documents/codes/newcore-rp2350/lib/_string.c **** 	return memcmp(a, b, len);
 697:/mnt/c/Users/31740/Documents/codes/newcore-rp2350/lib/_string.c **** }
 698:/mnt/c/Users/31740/Documents/codes/newcore-rp2350/lib/_string.c **** EXPORT_SYMBOL(bcmp);
ARM GAS  /tmp/ccYsdBMV.s 			page 23


 699:/mnt/c/Users/31740/Documents/codes/newcore-rp2350/lib/_string.c **** #endif
 700:/mnt/c/Users/31740/Documents/codes/newcore-rp2350/lib/_string.c **** 
 701:/mnt/c/Users/31740/Documents/codes/newcore-rp2350/lib/_string.c **** #ifndef __HAVE_ARCH_MEMSCAN
 702:/mnt/c/Users/31740/Documents/codes/newcore-rp2350/lib/_string.c **** /**
 703:/mnt/c/Users/31740/Documents/codes/newcore-rp2350/lib/_string.c ****  * memscan - Find a character in an area of memory.
 704:/mnt/c/Users/31740/Documents/codes/newcore-rp2350/lib/_string.c ****  * @addr: The memory area
 705:/mnt/c/Users/31740/Documents/codes/newcore-rp2350/lib/_string.c ****  * @c: The byte to search for
 706:/mnt/c/Users/31740/Documents/codes/newcore-rp2350/lib/_string.c ****  * @size: The size of the area.
 707:/mnt/c/Users/31740/Documents/codes/newcore-rp2350/lib/_string.c ****  *
 708:/mnt/c/Users/31740/Documents/codes/newcore-rp2350/lib/_string.c ****  * returns the address of the first occurrence of @c, or 1 byte past
 709:/mnt/c/Users/31740/Documents/codes/newcore-rp2350/lib/_string.c ****  * the area if @c is not found
 710:/mnt/c/Users/31740/Documents/codes/newcore-rp2350/lib/_string.c ****  */
 711:/mnt/c/Users/31740/Documents/codes/newcore-rp2350/lib/_string.c **** void *memscan(void *addr, int c, size_t size)
 712:/mnt/c/Users/31740/Documents/codes/newcore-rp2350/lib/_string.c **** {
 540              		.loc 1 712 1 is_stmt 1 view -0
 541              		.cfi_startproc
 542              		@ args = 0, pretend = 0, frame = 0
 543              		@ frame_needed = 0, uses_anonymous_args = 0
 544              		@ link register save eliminated.
 713:/mnt/c/Users/31740/Documents/codes/newcore-rp2350/lib/_string.c **** 	unsigned char *p = addr;
 545              		.loc 1 713 2 view .LVU143
 714:/mnt/c/Users/31740/Documents/codes/newcore-rp2350/lib/_string.c **** 
 715:/mnt/c/Users/31740/Documents/codes/newcore-rp2350/lib/_string.c **** 	while (size) {
 546              		.loc 1 715 2 view .LVU144
 547              		.loc 1 715 8 is_stmt 0 view .LVU145
 548 0000 01E0     		b	.L56
 549              	.LVL58:
 550              	.L59:
 716:/mnt/c/Users/31740/Documents/codes/newcore-rp2350/lib/_string.c **** 		if (*p == (unsigned char)c)
 717:/mnt/c/Users/31740/Documents/codes/newcore-rp2350/lib/_string.c **** 			return (void *)p;
 718:/mnt/c/Users/31740/Documents/codes/newcore-rp2350/lib/_string.c **** 		p++;
 551              		.loc 1 718 3 is_stmt 1 view .LVU146
 552              		.loc 1 718 4 is_stmt 0 view .LVU147
 553 0002 0130     		adds	r0, r0, #1
 554              	.LVL59:
 719:/mnt/c/Users/31740/Documents/codes/newcore-rp2350/lib/_string.c **** 		size--;
 555              		.loc 1 719 3 is_stmt 1 view .LVU148
 556              		.loc 1 719 7 is_stmt 0 view .LVU149
 557 0004 013A     		subs	r2, r2, #1
 558              	.LVL60:
 559              	.L56:
 715:/mnt/c/Users/31740/Documents/codes/newcore-rp2350/lib/_string.c **** 		if (*p == (unsigned char)c)
 560              		.loc 1 715 9 is_stmt 1 view .LVU150
 561 0006 22B1     		cbz	r2, .L57
 716:/mnt/c/Users/31740/Documents/codes/newcore-rp2350/lib/_string.c **** 		if (*p == (unsigned char)c)
 562              		.loc 1 716 3 view .LVU151
 716:/mnt/c/Users/31740/Documents/codes/newcore-rp2350/lib/_string.c **** 		if (*p == (unsigned char)c)
 563              		.loc 1 716 7 is_stmt 0 view .LVU152
 564 0008 90F800C0 		ldrb	ip, [r0]	@ zero_extendqisi2
 716:/mnt/c/Users/31740/Documents/codes/newcore-rp2350/lib/_string.c **** 		if (*p == (unsigned char)c)
 565              		.loc 1 716 13 view .LVU153
 566 000c CBB2     		uxtb	r3, r1
 716:/mnt/c/Users/31740/Documents/codes/newcore-rp2350/lib/_string.c **** 		if (*p == (unsigned char)c)
 567              		.loc 1 716 6 view .LVU154
 568 000e 9C45     		cmp	ip, r3
 569 0010 F7D1     		bne	.L59
 570              	.L57:
ARM GAS  /tmp/ccYsdBMV.s 			page 24


 720:/mnt/c/Users/31740/Documents/codes/newcore-rp2350/lib/_string.c **** 	}
 721:/mnt/c/Users/31740/Documents/codes/newcore-rp2350/lib/_string.c ****   	return (void *)p;
 722:/mnt/c/Users/31740/Documents/codes/newcore-rp2350/lib/_string.c **** }
 571              		.loc 1 722 1 view .LVU155
 572 0012 7047     		bx	lr
 573              		.cfi_endproc
 574              	.LFE73:
 576              		.section	.text.check_bytes8,"ax",%progbits
 577              		.align	1
 578              		.syntax unified
 579              		.thumb
 580              		.thumb_func
 582              	check_bytes8:
 583              	.LVL61:
 584              	.LFB76:
 723:/mnt/c/Users/31740/Documents/codes/newcore-rp2350/lib/_string.c **** EXPORT_SYMBOL(memscan);
 724:/mnt/c/Users/31740/Documents/codes/newcore-rp2350/lib/_string.c **** #endif
 725:/mnt/c/Users/31740/Documents/codes/newcore-rp2350/lib/_string.c **** 
 726:/mnt/c/Users/31740/Documents/codes/newcore-rp2350/lib/_string.c **** #ifndef __HAVE_ARCH_STRSTR
 727:/mnt/c/Users/31740/Documents/codes/newcore-rp2350/lib/_string.c **** /**
 728:/mnt/c/Users/31740/Documents/codes/newcore-rp2350/lib/_string.c ****  * strstr - Find the first substring in a %NUL terminated string
 729:/mnt/c/Users/31740/Documents/codes/newcore-rp2350/lib/_string.c ****  * @s1: The string to be searched
 730:/mnt/c/Users/31740/Documents/codes/newcore-rp2350/lib/_string.c ****  * @s2: The string to search for
 731:/mnt/c/Users/31740/Documents/codes/newcore-rp2350/lib/_string.c ****  */
 732:/mnt/c/Users/31740/Documents/codes/newcore-rp2350/lib/_string.c **** char *strstr(const char *s1, const char *s2)
 733:/mnt/c/Users/31740/Documents/codes/newcore-rp2350/lib/_string.c **** {
 734:/mnt/c/Users/31740/Documents/codes/newcore-rp2350/lib/_string.c **** 	size_t l1, l2;
 735:/mnt/c/Users/31740/Documents/codes/newcore-rp2350/lib/_string.c **** 
 736:/mnt/c/Users/31740/Documents/codes/newcore-rp2350/lib/_string.c **** 	l2 = strlen(s2);
 737:/mnt/c/Users/31740/Documents/codes/newcore-rp2350/lib/_string.c **** 	if (!l2)
 738:/mnt/c/Users/31740/Documents/codes/newcore-rp2350/lib/_string.c **** 		return (char *)s1;
 739:/mnt/c/Users/31740/Documents/codes/newcore-rp2350/lib/_string.c **** 	l1 = strlen(s1);
 740:/mnt/c/Users/31740/Documents/codes/newcore-rp2350/lib/_string.c **** 	while (l1 >= l2) {
 741:/mnt/c/Users/31740/Documents/codes/newcore-rp2350/lib/_string.c **** 		l1--;
 742:/mnt/c/Users/31740/Documents/codes/newcore-rp2350/lib/_string.c **** 		if (!memcmp(s1, s2, l2))
 743:/mnt/c/Users/31740/Documents/codes/newcore-rp2350/lib/_string.c **** 			return (char *)s1;
 744:/mnt/c/Users/31740/Documents/codes/newcore-rp2350/lib/_string.c **** 		s1++;
 745:/mnt/c/Users/31740/Documents/codes/newcore-rp2350/lib/_string.c **** 	}
 746:/mnt/c/Users/31740/Documents/codes/newcore-rp2350/lib/_string.c **** 	return NULL;
 747:/mnt/c/Users/31740/Documents/codes/newcore-rp2350/lib/_string.c **** }
 748:/mnt/c/Users/31740/Documents/codes/newcore-rp2350/lib/_string.c **** EXPORT_SYMBOL(strstr);
 749:/mnt/c/Users/31740/Documents/codes/newcore-rp2350/lib/_string.c **** #endif
 750:/mnt/c/Users/31740/Documents/codes/newcore-rp2350/lib/_string.c **** 
 751:/mnt/c/Users/31740/Documents/codes/newcore-rp2350/lib/_string.c **** #ifndef __HAVE_ARCH_STRNSTR
 752:/mnt/c/Users/31740/Documents/codes/newcore-rp2350/lib/_string.c **** /**
 753:/mnt/c/Users/31740/Documents/codes/newcore-rp2350/lib/_string.c ****  * strnstr - Find the first substring in a length-limited string
 754:/mnt/c/Users/31740/Documents/codes/newcore-rp2350/lib/_string.c ****  * @s1: The string to be searched
 755:/mnt/c/Users/31740/Documents/codes/newcore-rp2350/lib/_string.c ****  * @s2: The string to search for
 756:/mnt/c/Users/31740/Documents/codes/newcore-rp2350/lib/_string.c ****  * @len: the maximum number of characters to search
 757:/mnt/c/Users/31740/Documents/codes/newcore-rp2350/lib/_string.c ****  */
 758:/mnt/c/Users/31740/Documents/codes/newcore-rp2350/lib/_string.c **** char *strnstr(const char *s1, const char *s2, size_t len)
 759:/mnt/c/Users/31740/Documents/codes/newcore-rp2350/lib/_string.c **** {
 760:/mnt/c/Users/31740/Documents/codes/newcore-rp2350/lib/_string.c **** 	size_t l2;
 761:/mnt/c/Users/31740/Documents/codes/newcore-rp2350/lib/_string.c **** 
 762:/mnt/c/Users/31740/Documents/codes/newcore-rp2350/lib/_string.c **** 	l2 = strlen(s2);
 763:/mnt/c/Users/31740/Documents/codes/newcore-rp2350/lib/_string.c **** 	if (!l2)
 764:/mnt/c/Users/31740/Documents/codes/newcore-rp2350/lib/_string.c **** 		return (char *)s1;
ARM GAS  /tmp/ccYsdBMV.s 			page 25


 765:/mnt/c/Users/31740/Documents/codes/newcore-rp2350/lib/_string.c **** 	while (len >= l2) {
 766:/mnt/c/Users/31740/Documents/codes/newcore-rp2350/lib/_string.c **** 		len--;
 767:/mnt/c/Users/31740/Documents/codes/newcore-rp2350/lib/_string.c **** 		if (!memcmp(s1, s2, l2))
 768:/mnt/c/Users/31740/Documents/codes/newcore-rp2350/lib/_string.c **** 			return (char *)s1;
 769:/mnt/c/Users/31740/Documents/codes/newcore-rp2350/lib/_string.c **** 		s1++;
 770:/mnt/c/Users/31740/Documents/codes/newcore-rp2350/lib/_string.c **** 	}
 771:/mnt/c/Users/31740/Documents/codes/newcore-rp2350/lib/_string.c **** 	return NULL;
 772:/mnt/c/Users/31740/Documents/codes/newcore-rp2350/lib/_string.c **** }
 773:/mnt/c/Users/31740/Documents/codes/newcore-rp2350/lib/_string.c **** EXPORT_SYMBOL(strnstr);
 774:/mnt/c/Users/31740/Documents/codes/newcore-rp2350/lib/_string.c **** #endif
 775:/mnt/c/Users/31740/Documents/codes/newcore-rp2350/lib/_string.c **** 
 776:/mnt/c/Users/31740/Documents/codes/newcore-rp2350/lib/_string.c **** #ifndef __HAVE_ARCH_MEMCHR
 777:/mnt/c/Users/31740/Documents/codes/newcore-rp2350/lib/_string.c **** /**
 778:/mnt/c/Users/31740/Documents/codes/newcore-rp2350/lib/_string.c ****  * memchr - Find a character in an area of memory.
 779:/mnt/c/Users/31740/Documents/codes/newcore-rp2350/lib/_string.c ****  * @s: The memory area
 780:/mnt/c/Users/31740/Documents/codes/newcore-rp2350/lib/_string.c ****  * @c: The byte to search for
 781:/mnt/c/Users/31740/Documents/codes/newcore-rp2350/lib/_string.c ****  * @n: The size of the area.
 782:/mnt/c/Users/31740/Documents/codes/newcore-rp2350/lib/_string.c ****  *
 783:/mnt/c/Users/31740/Documents/codes/newcore-rp2350/lib/_string.c ****  * returns the address of the first occurrence of @c, or %NULL
 784:/mnt/c/Users/31740/Documents/codes/newcore-rp2350/lib/_string.c ****  * if @c is not found
 785:/mnt/c/Users/31740/Documents/codes/newcore-rp2350/lib/_string.c ****  */
 786:/mnt/c/Users/31740/Documents/codes/newcore-rp2350/lib/_string.c **** void *memchr(const void *s, int c, size_t n)
 787:/mnt/c/Users/31740/Documents/codes/newcore-rp2350/lib/_string.c **** {
 788:/mnt/c/Users/31740/Documents/codes/newcore-rp2350/lib/_string.c **** 	const unsigned char *p = s;
 789:/mnt/c/Users/31740/Documents/codes/newcore-rp2350/lib/_string.c **** 	while (n-- != 0) {
 790:/mnt/c/Users/31740/Documents/codes/newcore-rp2350/lib/_string.c ****         	if ((unsigned char)c == *p++) {
 791:/mnt/c/Users/31740/Documents/codes/newcore-rp2350/lib/_string.c **** 			return (void *)(p - 1);
 792:/mnt/c/Users/31740/Documents/codes/newcore-rp2350/lib/_string.c **** 		}
 793:/mnt/c/Users/31740/Documents/codes/newcore-rp2350/lib/_string.c **** 	}
 794:/mnt/c/Users/31740/Documents/codes/newcore-rp2350/lib/_string.c **** 	return NULL;
 795:/mnt/c/Users/31740/Documents/codes/newcore-rp2350/lib/_string.c **** }
 796:/mnt/c/Users/31740/Documents/codes/newcore-rp2350/lib/_string.c **** EXPORT_SYMBOL(memchr);
 797:/mnt/c/Users/31740/Documents/codes/newcore-rp2350/lib/_string.c **** #endif
 798:/mnt/c/Users/31740/Documents/codes/newcore-rp2350/lib/_string.c **** 
 799:/mnt/c/Users/31740/Documents/codes/newcore-rp2350/lib/_string.c **** static void *check_bytes8(const u8 *start, u8 value, unsigned int bytes)
 800:/mnt/c/Users/31740/Documents/codes/newcore-rp2350/lib/_string.c **** {
 585              		.loc 1 800 1 is_stmt 1 view -0
 586              		.cfi_startproc
 587              		@ args = 0, pretend = 0, frame = 0
 588              		@ frame_needed = 0, uses_anonymous_args = 0
 589              		@ link register save eliminated.
 801:/mnt/c/Users/31740/Documents/codes/newcore-rp2350/lib/_string.c **** 	while (bytes) {
 590              		.loc 1 801 2 view .LVU157
 591              		.loc 1 801 8 is_stmt 0 view .LVU158
 592 0000 01E0     		b	.L61
 593              	.L66:
 802:/mnt/c/Users/31740/Documents/codes/newcore-rp2350/lib/_string.c **** 		if (*start != value)
 803:/mnt/c/Users/31740/Documents/codes/newcore-rp2350/lib/_string.c **** 			return (void *)start;
 804:/mnt/c/Users/31740/Documents/codes/newcore-rp2350/lib/_string.c **** 		start++;
 594              		.loc 1 804 3 is_stmt 1 view .LVU159
 595              		.loc 1 804 8 is_stmt 0 view .LVU160
 596 0002 0130     		adds	r0, r0, #1
 597              	.LVL62:
 805:/mnt/c/Users/31740/Documents/codes/newcore-rp2350/lib/_string.c **** 		bytes--;
 598              		.loc 1 805 3 is_stmt 1 view .LVU161
 599              		.loc 1 805 8 is_stmt 0 view .LVU162
 600 0004 013A     		subs	r2, r2, #1
ARM GAS  /tmp/ccYsdBMV.s 			page 26


 601              	.LVL63:
 602              	.L61:
 801:/mnt/c/Users/31740/Documents/codes/newcore-rp2350/lib/_string.c **** 	while (bytes) {
 603              		.loc 1 801 9 is_stmt 1 view .LVU163
 604 0006 1AB1     		cbz	r2, .L65
 802:/mnt/c/Users/31740/Documents/codes/newcore-rp2350/lib/_string.c **** 		if (*start != value)
 605              		.loc 1 802 3 view .LVU164
 802:/mnt/c/Users/31740/Documents/codes/newcore-rp2350/lib/_string.c **** 		if (*start != value)
 606              		.loc 1 802 7 is_stmt 0 view .LVU165
 607 0008 0378     		ldrb	r3, [r0]	@ zero_extendqisi2
 802:/mnt/c/Users/31740/Documents/codes/newcore-rp2350/lib/_string.c **** 		if (*start != value)
 608              		.loc 1 802 6 view .LVU166
 609 000a 8B42     		cmp	r3, r1
 610 000c F9D0     		beq	.L66
 611 000e 00E0     		b	.L60
 612              	.L65:
 806:/mnt/c/Users/31740/Documents/codes/newcore-rp2350/lib/_string.c **** 	}
 807:/mnt/c/Users/31740/Documents/codes/newcore-rp2350/lib/_string.c **** 	return NULL;
 613              		.loc 1 807 9 view .LVU167
 614 0010 0020     		movs	r0, #0
 615              	.LVL64:
 616              	.L60:
 808:/mnt/c/Users/31740/Documents/codes/newcore-rp2350/lib/_string.c **** }
 617              		.loc 1 808 1 view .LVU168
 618 0012 7047     		bx	lr
 619              		.cfi_endproc
 620              	.LFE76:
 622              		.section	.text.memchr_inv,"ax",%progbits
 623              		.align	1
 624              		.global	memchr_inv
 625              		.syntax unified
 626              		.thumb
 627              		.thumb_func
 629              	memchr_inv:
 630              	.LVL65:
 631              	.LFB77:
 809:/mnt/c/Users/31740/Documents/codes/newcore-rp2350/lib/_string.c **** 
 810:/mnt/c/Users/31740/Documents/codes/newcore-rp2350/lib/_string.c **** /**
 811:/mnt/c/Users/31740/Documents/codes/newcore-rp2350/lib/_string.c ****  * memchr_inv - Find an unmatching character in an area of memory.
 812:/mnt/c/Users/31740/Documents/codes/newcore-rp2350/lib/_string.c ****  * @start: The memory area
 813:/mnt/c/Users/31740/Documents/codes/newcore-rp2350/lib/_string.c ****  * @c: Find a character other than c
 814:/mnt/c/Users/31740/Documents/codes/newcore-rp2350/lib/_string.c ****  * @bytes: The size of the area.
 815:/mnt/c/Users/31740/Documents/codes/newcore-rp2350/lib/_string.c ****  *
 816:/mnt/c/Users/31740/Documents/codes/newcore-rp2350/lib/_string.c ****  * returns the address of the first character other than @c, or %NULL
 817:/mnt/c/Users/31740/Documents/codes/newcore-rp2350/lib/_string.c ****  * if the whole buffer contains just @c.
 818:/mnt/c/Users/31740/Documents/codes/newcore-rp2350/lib/_string.c ****  */
 819:/mnt/c/Users/31740/Documents/codes/newcore-rp2350/lib/_string.c **** void *memchr_inv(const void *start, int c, size_t bytes)
 820:/mnt/c/Users/31740/Documents/codes/newcore-rp2350/lib/_string.c **** {
 632              		.loc 1 820 1 is_stmt 1 view -0
 633              		.cfi_startproc
 634              		@ args = 0, pretend = 0, frame = 0
 635              		@ frame_needed = 0, uses_anonymous_args = 0
 636              		.loc 1 820 1 is_stmt 0 view .LVU170
 637 0000 2DE9F843 		push	{r3, r4, r5, r6, r7, r8, r9, lr}
 638              	.LCFI7:
 639              		.cfi_def_cfa_offset 32
 640              		.cfi_offset 3, -32
ARM GAS  /tmp/ccYsdBMV.s 			page 27


 641              		.cfi_offset 4, -28
 642              		.cfi_offset 5, -24
 643              		.cfi_offset 6, -20
 644              		.cfi_offset 7, -16
 645              		.cfi_offset 8, -12
 646              		.cfi_offset 9, -8
 647              		.cfi_offset 14, -4
 648 0004 0446     		mov	r4, r0
 649 0006 1646     		mov	r6, r2
 821:/mnt/c/Users/31740/Documents/codes/newcore-rp2350/lib/_string.c **** 	u8 value = c;
 650              		.loc 1 821 2 is_stmt 1 view .LVU171
 651              		.loc 1 821 5 is_stmt 0 view .LVU172
 652 0008 CFB2     		uxtb	r7, r1
 653              	.LVL66:
 822:/mnt/c/Users/31740/Documents/codes/newcore-rp2350/lib/_string.c **** 	u64 value64;
 654              		.loc 1 822 2 is_stmt 1 view .LVU173
 823:/mnt/c/Users/31740/Documents/codes/newcore-rp2350/lib/_string.c **** 	unsigned int words, prefix;
 655              		.loc 1 823 2 view .LVU174
 824:/mnt/c/Users/31740/Documents/codes/newcore-rp2350/lib/_string.c **** 
 825:/mnt/c/Users/31740/Documents/codes/newcore-rp2350/lib/_string.c **** 	if (bytes <= 16)
 656              		.loc 1 825 2 view .LVU175
 657              		.loc 1 825 5 is_stmt 0 view .LVU176
 658 000a 102A     		cmp	r2, #16
 659 000c 1AD9     		bls	.L75
 826:/mnt/c/Users/31740/Documents/codes/newcore-rp2350/lib/_string.c **** 		return check_bytes8(start, value, bytes);
 827:/mnt/c/Users/31740/Documents/codes/newcore-rp2350/lib/_string.c **** 
 828:/mnt/c/Users/31740/Documents/codes/newcore-rp2350/lib/_string.c **** 	value64 = value;
 660              		.loc 1 828 2 is_stmt 1 view .LVU177
 661              		.loc 1 828 10 is_stmt 0 view .LVU178
 662 000e CDB2     		uxtb	r5, r1
 663              	.LVL67:
 829:/mnt/c/Users/31740/Documents/codes/newcore-rp2350/lib/_string.c **** #if defined(CONFIG_ARCH_HAS_FAST_MULTIPLIER) && BITS_PER_LONG == 64
 830:/mnt/c/Users/31740/Documents/codes/newcore-rp2350/lib/_string.c **** 	value64 *= 0x0101010101010101ULL;
 831:/mnt/c/Users/31740/Documents/codes/newcore-rp2350/lib/_string.c **** #elif defined(CONFIG_ARCH_HAS_FAST_MULTIPLIER)
 832:/mnt/c/Users/31740/Documents/codes/newcore-rp2350/lib/_string.c **** 	value64 *= 0x01010101;
 833:/mnt/c/Users/31740/Documents/codes/newcore-rp2350/lib/_string.c **** 	value64 |= value64 << 32;
 834:/mnt/c/Users/31740/Documents/codes/newcore-rp2350/lib/_string.c **** #else
 835:/mnt/c/Users/31740/Documents/codes/newcore-rp2350/lib/_string.c **** 	value64 |= value64 << 8;
 664              		.loc 1 835 2 is_stmt 1 view .LVU179
 665              		.loc 1 835 10 is_stmt 0 view .LVU180
 666 0010 45EA0525 		orr	r5, r5, r5, lsl #8
 667              	.LVL68:
 836:/mnt/c/Users/31740/Documents/codes/newcore-rp2350/lib/_string.c **** 	value64 |= value64 << 16;
 668              		.loc 1 836 2 is_stmt 1 view .LVU181
 669              		.loc 1 836 10 is_stmt 0 view .LVU182
 670 0014 45EA0545 		orr	r5, r5, r5, lsl #16
 671              	.LVL69:
 837:/mnt/c/Users/31740/Documents/codes/newcore-rp2350/lib/_string.c **** 	value64 |= value64 << 32;
 672              		.loc 1 837 2 is_stmt 1 view .LVU183
 838:/mnt/c/Users/31740/Documents/codes/newcore-rp2350/lib/_string.c **** #endif
 839:/mnt/c/Users/31740/Documents/codes/newcore-rp2350/lib/_string.c **** 
 840:/mnt/c/Users/31740/Documents/codes/newcore-rp2350/lib/_string.c **** 	prefix = (unsigned long)start % 8;
 673              		.loc 1 840 2 view .LVU184
 841:/mnt/c/Users/31740/Documents/codes/newcore-rp2350/lib/_string.c **** 	if (prefix) {
 674              		.loc 1 841 2 view .LVU185
 675              		.loc 1 841 5 is_stmt 0 view .LVU186
 676 0018 10F00708 		ands	r8, r0, #7
ARM GAS  /tmp/ccYsdBMV.s 			page 28


 677              	.LVL70:
 678              		.loc 1 841 5 view .LVU187
 679 001c 0AD0     		beq	.L70
 680              	.LBB2:
 842:/mnt/c/Users/31740/Documents/codes/newcore-rp2350/lib/_string.c **** 		u8 *r;
 681              		.loc 1 842 3 is_stmt 1 view .LVU188
 843:/mnt/c/Users/31740/Documents/codes/newcore-rp2350/lib/_string.c **** 
 844:/mnt/c/Users/31740/Documents/codes/newcore-rp2350/lib/_string.c **** 		prefix = 8 - prefix;
 682              		.loc 1 844 3 view .LVU189
 683              		.loc 1 844 10 is_stmt 0 view .LVU190
 684 001e C8F10809 		rsb	r9, r8, #8
 685              	.LVL71:
 845:/mnt/c/Users/31740/Documents/codes/newcore-rp2350/lib/_string.c **** 		r = check_bytes8(start, value, prefix);
 686              		.loc 1 845 3 is_stmt 1 view .LVU191
 687              		.loc 1 845 7 is_stmt 0 view .LVU192
 688 0022 4A46     		mov	r2, r9
 689              	.LVL72:
 690              		.loc 1 845 7 view .LVU193
 691 0024 3946     		mov	r1, r7
 692              	.LVL73:
 693              		.loc 1 845 7 view .LVU194
 694 0026 FFF7FEFF 		bl	check_bytes8
 695              	.LVL74:
 846:/mnt/c/Users/31740/Documents/codes/newcore-rp2350/lib/_string.c **** 		if (r)
 696              		.loc 1 846 3 is_stmt 1 view .LVU195
 697              		.loc 1 846 6 is_stmt 0 view .LVU196
 698 002a 70B9     		cbnz	r0, .L67
 847:/mnt/c/Users/31740/Documents/codes/newcore-rp2350/lib/_string.c **** 			return r;
 848:/mnt/c/Users/31740/Documents/codes/newcore-rp2350/lib/_string.c **** 		start += prefix;
 699              		.loc 1 848 3 is_stmt 1 view .LVU197
 700              		.loc 1 848 9 is_stmt 0 view .LVU198
 701 002c 4C44     		add	r4, r4, r9
 702              	.LVL75:
 849:/mnt/c/Users/31740/Documents/codes/newcore-rp2350/lib/_string.c **** 		bytes -= prefix;
 703              		.loc 1 849 3 is_stmt 1 view .LVU199
 704              		.loc 1 849 9 is_stmt 0 view .LVU200
 705 002e A8F10808 		sub	r8, r8, #8
 706 0032 4644     		add	r6, r6, r8
 707              	.LVL76:
 708              	.L70:
 709              		.loc 1 849 9 view .LVU201
 710              	.LBE2:
 850:/mnt/c/Users/31740/Documents/codes/newcore-rp2350/lib/_string.c **** 	}
 851:/mnt/c/Users/31740/Documents/codes/newcore-rp2350/lib/_string.c **** 
 852:/mnt/c/Users/31740/Documents/codes/newcore-rp2350/lib/_string.c **** 	words = bytes / 8;
 711              		.loc 1 852 2 is_stmt 1 view .LVU202
 712              		.loc 1 852 8 is_stmt 0 view .LVU203
 713 0034 F308     		lsrs	r3, r6, #3
 714              	.LVL77:
 853:/mnt/c/Users/31740/Documents/codes/newcore-rp2350/lib/_string.c **** 
 854:/mnt/c/Users/31740/Documents/codes/newcore-rp2350/lib/_string.c **** 	while (words) {
 715              		.loc 1 854 2 is_stmt 1 view .LVU204
 716              	.L71:
 717              		.loc 1 854 9 view .LVU205
 718 0036 83B1     		cbz	r3, .L76
 855:/mnt/c/Users/31740/Documents/codes/newcore-rp2350/lib/_string.c **** 		if (*(u64 *)start != value64)
 719              		.loc 1 855 3 view .LVU206
ARM GAS  /tmp/ccYsdBMV.s 			page 29


 720              		.loc 1 855 7 is_stmt 0 view .LVU207
 721 0038 2268     		ldr	r2, [r4]
 722              		.loc 1 855 6 view .LVU208
 723 003a AA42     		cmp	r2, r5
 724 003c 07D1     		bne	.L77
 856:/mnt/c/Users/31740/Documents/codes/newcore-rp2350/lib/_string.c **** 			return check_bytes8(start, value, 8);
 857:/mnt/c/Users/31740/Documents/codes/newcore-rp2350/lib/_string.c **** 		start += 8;
 725              		.loc 1 857 3 is_stmt 1 view .LVU209
 726              		.loc 1 857 9 is_stmt 0 view .LVU210
 727 003e 0834     		adds	r4, r4, #8
 728              	.LVL78:
 858:/mnt/c/Users/31740/Documents/codes/newcore-rp2350/lib/_string.c **** 		words--;
 729              		.loc 1 858 3 is_stmt 1 view .LVU211
 730              		.loc 1 858 8 is_stmt 0 view .LVU212
 731 0040 013B     		subs	r3, r3, #1
 732              	.LVL79:
 733              		.loc 1 858 8 view .LVU213
 734 0042 F8E7     		b	.L71
 735              	.LVL80:
 736              	.L75:
 826:/mnt/c/Users/31740/Documents/codes/newcore-rp2350/lib/_string.c **** 
 737              		.loc 1 826 3 is_stmt 1 view .LVU214
 826:/mnt/c/Users/31740/Documents/codes/newcore-rp2350/lib/_string.c **** 
 738              		.loc 1 826 10 is_stmt 0 view .LVU215
 739 0044 3946     		mov	r1, r7
 740              	.LVL81:
 826:/mnt/c/Users/31740/Documents/codes/newcore-rp2350/lib/_string.c **** 
 741              		.loc 1 826 10 view .LVU216
 742 0046 FFF7FEFF 		bl	check_bytes8
 743              	.LVL82:
 744              	.L67:
 859:/mnt/c/Users/31740/Documents/codes/newcore-rp2350/lib/_string.c **** 	}
 860:/mnt/c/Users/31740/Documents/codes/newcore-rp2350/lib/_string.c **** 
 861:/mnt/c/Users/31740/Documents/codes/newcore-rp2350/lib/_string.c **** 	return check_bytes8(start, value, bytes % 8);
 862:/mnt/c/Users/31740/Documents/codes/newcore-rp2350/lib/_string.c **** }
 745              		.loc 1 862 1 view .LVU217
 746 004a BDE8F883 		pop	{r3, r4, r5, r6, r7, r8, r9, pc}
 747              	.LVL83:
 748              	.L77:
 856:/mnt/c/Users/31740/Documents/codes/newcore-rp2350/lib/_string.c **** 		start += 8;
 749              		.loc 1 856 4 is_stmt 1 view .LVU218
 856:/mnt/c/Users/31740/Documents/codes/newcore-rp2350/lib/_string.c **** 		start += 8;
 750              		.loc 1 856 11 is_stmt 0 view .LVU219
 751 004e 0822     		movs	r2, #8
 752 0050 3946     		mov	r1, r7
 753 0052 2046     		mov	r0, r4
 754 0054 FFF7FEFF 		bl	check_bytes8
 755              	.LVL84:
 856:/mnt/c/Users/31740/Documents/codes/newcore-rp2350/lib/_string.c **** 		start += 8;
 756              		.loc 1 856 11 view .LVU220
 757 0058 F7E7     		b	.L67
 758              	.LVL85:
 759              	.L76:
 861:/mnt/c/Users/31740/Documents/codes/newcore-rp2350/lib/_string.c **** }
 760              		.loc 1 861 2 is_stmt 1 view .LVU221
 861:/mnt/c/Users/31740/Documents/codes/newcore-rp2350/lib/_string.c **** }
 761              		.loc 1 861 9 is_stmt 0 view .LVU222
ARM GAS  /tmp/ccYsdBMV.s 			page 30


 762 005a 06F00702 		and	r2, r6, #7
 763 005e 3946     		mov	r1, r7
 764 0060 2046     		mov	r0, r4
 765 0062 FFF7FEFF 		bl	check_bytes8
 766              	.LVL86:
 861:/mnt/c/Users/31740/Documents/codes/newcore-rp2350/lib/_string.c **** }
 767              		.loc 1 861 9 view .LVU223
 768 0066 F0E7     		b	.L67
 769              		.cfi_endproc
 770              	.LFE77:
 772              		.section	.text.strlcat,"ax",%progbits
 773              		.align	1
 774              		.global	strlcat
 775              		.syntax unified
 776              		.thumb
 777              		.thumb_func
 779              	strlcat:
 780              	.LVL87:
 781              	.LFB62:
 234:/mnt/c/Users/31740/Documents/codes/newcore-rp2350/lib/_string.c **** 	size_t dsize = strlen(dest);
 782              		.loc 1 234 1 is_stmt 1 view -0
 783              		.cfi_startproc
 784              		@ args = 0, pretend = 0, frame = 0
 785              		@ frame_needed = 0, uses_anonymous_args = 0
 234:/mnt/c/Users/31740/Documents/codes/newcore-rp2350/lib/_string.c **** 	size_t dsize = strlen(dest);
 786              		.loc 1 234 1 is_stmt 0 view .LVU225
 787 0000 2DE9F843 		push	{r3, r4, r5, r6, r7, r8, r9, lr}
 788              	.LCFI8:
 789              		.cfi_def_cfa_offset 32
 790              		.cfi_offset 3, -32
 791              		.cfi_offset 4, -28
 792              		.cfi_offset 5, -24
 793              		.cfi_offset 6, -20
 794              		.cfi_offset 7, -16
 795              		.cfi_offset 8, -12
 796              		.cfi_offset 9, -8
 797              		.cfi_offset 14, -4
 798 0004 0746     		mov	r7, r0
 799 0006 8846     		mov	r8, r1
 800 0008 1546     		mov	r5, r2
 235:/mnt/c/Users/31740/Documents/codes/newcore-rp2350/lib/_string.c **** 	size_t len = strlen(src);
 801              		.loc 1 235 2 is_stmt 1 view .LVU226
 235:/mnt/c/Users/31740/Documents/codes/newcore-rp2350/lib/_string.c **** 	size_t len = strlen(src);
 802              		.loc 1 235 17 is_stmt 0 view .LVU227
 803 000a FFF7FEFF 		bl	strlen
 804              	.LVL88:
 235:/mnt/c/Users/31740/Documents/codes/newcore-rp2350/lib/_string.c **** 	size_t len = strlen(src);
 805              		.loc 1 235 17 view .LVU228
 806 000e 0646     		mov	r6, r0
 807              	.LVL89:
 236:/mnt/c/Users/31740/Documents/codes/newcore-rp2350/lib/_string.c **** 	size_t res = dsize + len;
 808              		.loc 1 236 2 is_stmt 1 view .LVU229
 236:/mnt/c/Users/31740/Documents/codes/newcore-rp2350/lib/_string.c **** 	size_t res = dsize + len;
 809              		.loc 1 236 15 is_stmt 0 view .LVU230
 810 0010 4046     		mov	r0, r8
 811              	.LVL90:
 236:/mnt/c/Users/31740/Documents/codes/newcore-rp2350/lib/_string.c **** 	size_t res = dsize + len;
ARM GAS  /tmp/ccYsdBMV.s 			page 31


 812              		.loc 1 236 15 view .LVU231
 813 0012 FFF7FEFF 		bl	strlen
 814              	.LVL91:
 815 0016 0446     		mov	r4, r0
 816              	.LVL92:
 237:/mnt/c/Users/31740/Documents/codes/newcore-rp2350/lib/_string.c **** 
 817              		.loc 1 237 2 is_stmt 1 view .LVU232
 237:/mnt/c/Users/31740/Documents/codes/newcore-rp2350/lib/_string.c **** 
 818              		.loc 1 237 9 is_stmt 0 view .LVU233
 819 0018 06EB0009 		add	r9, r6, r0
 820              	.LVL93:
 240:/mnt/c/Users/31740/Documents/codes/newcore-rp2350/lib/_string.c **** 
 821              		.loc 1 240 2 is_stmt 1 view .LVU234
 240:/mnt/c/Users/31740/Documents/codes/newcore-rp2350/lib/_string.c **** 
 822              		.loc 1 240 2 view .LVU235
 240:/mnt/c/Users/31740/Documents/codes/newcore-rp2350/lib/_string.c **** 
 823              		.loc 1 240 2 is_stmt 0 discriminator 1 view .LVU236
 824 001c AE42     		cmp	r6, r5
 825 001e 0ED2     		bcs	.L82
 826              	.LVL94:
 827              	.L79:
 240:/mnt/c/Users/31740/Documents/codes/newcore-rp2350/lib/_string.c **** 
 828              		.loc 1 240 2 is_stmt 1 discriminator 3 view .LVU237
 240:/mnt/c/Users/31740/Documents/codes/newcore-rp2350/lib/_string.c **** 
 829              		.loc 1 240 2 discriminator 3 view .LVU238
 240:/mnt/c/Users/31740/Documents/codes/newcore-rp2350/lib/_string.c **** 
 830              		.loc 1 240 2 discriminator 3 view .LVU239
 242:/mnt/c/Users/31740/Documents/codes/newcore-rp2350/lib/_string.c **** 	count -= dsize;
 831              		.loc 1 242 2 view .LVU240
 242:/mnt/c/Users/31740/Documents/codes/newcore-rp2350/lib/_string.c **** 	count -= dsize;
 832              		.loc 1 242 7 is_stmt 0 view .LVU241
 833 0020 3744     		add	r7, r7, r6
 834              	.LVL95:
 243:/mnt/c/Users/31740/Documents/codes/newcore-rp2350/lib/_string.c **** 	if (len >= count)
 835              		.loc 1 243 2 is_stmt 1 view .LVU242
 243:/mnt/c/Users/31740/Documents/codes/newcore-rp2350/lib/_string.c **** 	if (len >= count)
 836              		.loc 1 243 8 is_stmt 0 view .LVU243
 837 0022 AD1B     		subs	r5, r5, r6
 838              	.LVL96:
 244:/mnt/c/Users/31740/Documents/codes/newcore-rp2350/lib/_string.c **** 		len = count-1;
 839              		.loc 1 244 2 is_stmt 1 view .LVU244
 244:/mnt/c/Users/31740/Documents/codes/newcore-rp2350/lib/_string.c **** 		len = count-1;
 840              		.loc 1 244 5 is_stmt 0 view .LVU245
 841 0024 AC42     		cmp	r4, r5
 842 0026 00D3     		bcc	.L80
 245:/mnt/c/Users/31740/Documents/codes/newcore-rp2350/lib/_string.c **** 	__builtin_memcpy(dest, src, len);
 843              		.loc 1 245 3 is_stmt 1 view .LVU246
 245:/mnt/c/Users/31740/Documents/codes/newcore-rp2350/lib/_string.c **** 	__builtin_memcpy(dest, src, len);
 844              		.loc 1 245 7 is_stmt 0 view .LVU247
 845 0028 6C1E     		subs	r4, r5, #1
 846              	.LVL97:
 847              	.L80:
 246:/mnt/c/Users/31740/Documents/codes/newcore-rp2350/lib/_string.c **** 	dest[len] = 0;
 848              		.loc 1 246 2 is_stmt 1 view .LVU248
 849 002a 2246     		mov	r2, r4
 850 002c 4146     		mov	r1, r8
 851 002e 3846     		mov	r0, r7
ARM GAS  /tmp/ccYsdBMV.s 			page 32


 852 0030 FFF7FEFF 		bl	memcpy
 853              	.LVL98:
 247:/mnt/c/Users/31740/Documents/codes/newcore-rp2350/lib/_string.c **** 	return res;
 854              		.loc 1 247 2 view .LVU249
 247:/mnt/c/Users/31740/Documents/codes/newcore-rp2350/lib/_string.c **** 	return res;
 855              		.loc 1 247 12 is_stmt 0 view .LVU250
 856 0034 0023     		movs	r3, #0
 857 0036 3B55     		strb	r3, [r7, r4]
 248:/mnt/c/Users/31740/Documents/codes/newcore-rp2350/lib/_string.c **** }
 858              		.loc 1 248 2 is_stmt 1 view .LVU251
 249:/mnt/c/Users/31740/Documents/codes/newcore-rp2350/lib/_string.c **** EXPORT_SYMBOL(strlcat);
 859              		.loc 1 249 1 is_stmt 0 view .LVU252
 860 0038 4846     		mov	r0, r9
 861 003a BDE8F883 		pop	{r3, r4, r5, r6, r7, r8, r9, pc}
 862              	.LVL99:
 863              	.L82:
 240:/mnt/c/Users/31740/Documents/codes/newcore-rp2350/lib/_string.c **** 
 864              		.loc 1 240 2 is_stmt 1 discriminator 1 view .LVU253
 240:/mnt/c/Users/31740/Documents/codes/newcore-rp2350/lib/_string.c **** 
 865              		.loc 1 240 2 discriminator 1 view .LVU254
 866              		.syntax unified
 867              	@ 240 "/mnt/c/Users/31740/Documents/codes/newcore-rp2350/lib/_string.c" 1
 868 003e F201F0E7 		.long ((0xe7f001f2) & 0xFFFFFFFF)
 869              		
 870              	
 871              	@ 0 "" 2
 240:/mnt/c/Users/31740/Documents/codes/newcore-rp2350/lib/_string.c **** 
 872              		.loc 1 240 2 discriminator 1 view .LVU255
 873              		.thumb
 874              		.syntax unified
 875 0042 FFF7FEFF 		bl	annotate_unreachable
 876              	.LVL100:
 240:/mnt/c/Users/31740/Documents/codes/newcore-rp2350/lib/_string.c **** 
 877              		.loc 1 240 2 is_stmt 0 discriminator 1 view .LVU256
 878 0046 EBE7     		b	.L79
 879              		.cfi_endproc
 880              	.LFE62:
 882              		.section	.text.strspn,"ax",%progbits
 883              		.align	1
 884              		.global	strspn
 885              		.syntax unified
 886              		.thumb
 887              		.thumb_func
 889              	strspn:
 890              	.LVL101:
 891              	.LFB67:
 427:/mnt/c/Users/31740/Documents/codes/newcore-rp2350/lib/_string.c **** 	const char *p;
 892              		.loc 1 427 1 is_stmt 1 view -0
 893              		.cfi_startproc
 894              		@ args = 0, pretend = 0, frame = 0
 895              		@ frame_needed = 0, uses_anonymous_args = 0
 427:/mnt/c/Users/31740/Documents/codes/newcore-rp2350/lib/_string.c **** 	const char *p;
 896              		.loc 1 427 1 is_stmt 0 view .LVU258
 897 0000 70B5     		push	{r4, r5, r6, lr}
 898              	.LCFI9:
 899              		.cfi_def_cfa_offset 16
 900              		.cfi_offset 4, -16
ARM GAS  /tmp/ccYsdBMV.s 			page 33


 901              		.cfi_offset 5, -12
 902              		.cfi_offset 6, -8
 903              		.cfi_offset 14, -4
 904 0002 0646     		mov	r6, r0
 905 0004 0D46     		mov	r5, r1
 428:/mnt/c/Users/31740/Documents/codes/newcore-rp2350/lib/_string.c **** 
 906              		.loc 1 428 2 is_stmt 1 view .LVU259
 430:/mnt/c/Users/31740/Documents/codes/newcore-rp2350/lib/_string.c **** 		if (!strchr(accept, *p))
 907              		.loc 1 430 2 view .LVU260
 908              	.LVL102:
 430:/mnt/c/Users/31740/Documents/codes/newcore-rp2350/lib/_string.c **** 		if (!strchr(accept, *p))
 909              		.loc 1 430 9 is_stmt 0 view .LVU261
 910 0006 0446     		mov	r4, r0
 430:/mnt/c/Users/31740/Documents/codes/newcore-rp2350/lib/_string.c **** 		if (!strchr(accept, *p))
 911              		.loc 1 430 2 view .LVU262
 912 0008 00E0     		b	.L84
 913              	.LVL103:
 914              	.L88:
 430:/mnt/c/Users/31740/Documents/codes/newcore-rp2350/lib/_string.c **** 		if (!strchr(accept, *p))
 915              		.loc 1 430 26 is_stmt 1 discriminator 2 view .LVU263
 916 000a 0134     		adds	r4, r4, #1
 917              	.LVL104:
 918              	.L84:
 430:/mnt/c/Users/31740/Documents/codes/newcore-rp2350/lib/_string.c **** 		if (!strchr(accept, *p))
 919              		.loc 1 430 17 discriminator 1 view .LVU264
 430:/mnt/c/Users/31740/Documents/codes/newcore-rp2350/lib/_string.c **** 		if (!strchr(accept, *p))
 920              		.loc 1 430 14 is_stmt 0 discriminator 1 view .LVU265
 921 000c 2178     		ldrb	r1, [r4]	@ zero_extendqisi2
 430:/mnt/c/Users/31740/Documents/codes/newcore-rp2350/lib/_string.c **** 		if (!strchr(accept, *p))
 922              		.loc 1 430 17 discriminator 1 view .LVU266
 923 000e 21B1     		cbz	r1, .L85
 431:/mnt/c/Users/31740/Documents/codes/newcore-rp2350/lib/_string.c **** 			break;
 924              		.loc 1 431 3 is_stmt 1 view .LVU267
 431:/mnt/c/Users/31740/Documents/codes/newcore-rp2350/lib/_string.c **** 			break;
 925              		.loc 1 431 8 is_stmt 0 view .LVU268
 926 0010 2846     		mov	r0, r5
 927 0012 FFF7FEFF 		bl	strchr
 928              	.LVL105:
 431:/mnt/c/Users/31740/Documents/codes/newcore-rp2350/lib/_string.c **** 			break;
 929              		.loc 1 431 6 discriminator 1 view .LVU269
 930 0016 0028     		cmp	r0, #0
 931 0018 F7D1     		bne	.L88
 932              	.L85:
 434:/mnt/c/Users/31740/Documents/codes/newcore-rp2350/lib/_string.c **** }
 933              		.loc 1 434 2 is_stmt 1 view .LVU270
 435:/mnt/c/Users/31740/Documents/codes/newcore-rp2350/lib/_string.c **** EXPORT_SYMBOL(strspn);
 934              		.loc 1 435 1 is_stmt 0 view .LVU271
 935 001a A01B     		subs	r0, r4, r6
 936 001c 70BD     		pop	{r4, r5, r6, pc}
 435:/mnt/c/Users/31740/Documents/codes/newcore-rp2350/lib/_string.c **** EXPORT_SYMBOL(strspn);
 937              		.loc 1 435 1 view .LVU272
 938              		.cfi_endproc
 939              	.LFE67:
 941              		.section	.text.strcspn,"ax",%progbits
 942              		.align	1
 943              		.global	strcspn
 944              		.syntax unified
ARM GAS  /tmp/ccYsdBMV.s 			page 34


 945              		.thumb
 946              		.thumb_func
 948              	strcspn:
 949              	.LVL106:
 950              	.LFB68:
 446:/mnt/c/Users/31740/Documents/codes/newcore-rp2350/lib/_string.c **** 	const char *p;
 951              		.loc 1 446 1 is_stmt 1 view -0
 952              		.cfi_startproc
 953              		@ args = 0, pretend = 0, frame = 0
 954              		@ frame_needed = 0, uses_anonymous_args = 0
 446:/mnt/c/Users/31740/Documents/codes/newcore-rp2350/lib/_string.c **** 	const char *p;
 955              		.loc 1 446 1 is_stmt 0 view .LVU274
 956 0000 70B5     		push	{r4, r5, r6, lr}
 957              	.LCFI10:
 958              		.cfi_def_cfa_offset 16
 959              		.cfi_offset 4, -16
 960              		.cfi_offset 5, -12
 961              		.cfi_offset 6, -8
 962              		.cfi_offset 14, -4
 963 0002 0646     		mov	r6, r0
 964 0004 0D46     		mov	r5, r1
 447:/mnt/c/Users/31740/Documents/codes/newcore-rp2350/lib/_string.c **** 
 965              		.loc 1 447 2 is_stmt 1 view .LVU275
 449:/mnt/c/Users/31740/Documents/codes/newcore-rp2350/lib/_string.c **** 		if (strchr(reject, *p))
 966              		.loc 1 449 2 view .LVU276
 967              	.LVL107:
 449:/mnt/c/Users/31740/Documents/codes/newcore-rp2350/lib/_string.c **** 		if (strchr(reject, *p))
 968              		.loc 1 449 9 is_stmt 0 view .LVU277
 969 0006 0446     		mov	r4, r0
 449:/mnt/c/Users/31740/Documents/codes/newcore-rp2350/lib/_string.c **** 		if (strchr(reject, *p))
 970              		.loc 1 449 2 view .LVU278
 971 0008 00E0     		b	.L90
 972              	.LVL108:
 973              	.L94:
 449:/mnt/c/Users/31740/Documents/codes/newcore-rp2350/lib/_string.c **** 		if (strchr(reject, *p))
 974              		.loc 1 449 26 is_stmt 1 discriminator 2 view .LVU279
 975 000a 0134     		adds	r4, r4, #1
 976              	.LVL109:
 977              	.L90:
 449:/mnt/c/Users/31740/Documents/codes/newcore-rp2350/lib/_string.c **** 		if (strchr(reject, *p))
 978              		.loc 1 449 17 discriminator 1 view .LVU280
 449:/mnt/c/Users/31740/Documents/codes/newcore-rp2350/lib/_string.c **** 		if (strchr(reject, *p))
 979              		.loc 1 449 14 is_stmt 0 discriminator 1 view .LVU281
 980 000c 2178     		ldrb	r1, [r4]	@ zero_extendqisi2
 449:/mnt/c/Users/31740/Documents/codes/newcore-rp2350/lib/_string.c **** 		if (strchr(reject, *p))
 981              		.loc 1 449 17 discriminator 1 view .LVU282
 982 000e 21B1     		cbz	r1, .L91
 450:/mnt/c/Users/31740/Documents/codes/newcore-rp2350/lib/_string.c **** 			break;
 983              		.loc 1 450 3 is_stmt 1 view .LVU283
 450:/mnt/c/Users/31740/Documents/codes/newcore-rp2350/lib/_string.c **** 			break;
 984              		.loc 1 450 7 is_stmt 0 view .LVU284
 985 0010 2846     		mov	r0, r5
 986 0012 FFF7FEFF 		bl	strchr
 987              	.LVL110:
 450:/mnt/c/Users/31740/Documents/codes/newcore-rp2350/lib/_string.c **** 			break;
 988              		.loc 1 450 6 discriminator 1 view .LVU285
 989 0016 0028     		cmp	r0, #0
ARM GAS  /tmp/ccYsdBMV.s 			page 35


 990 0018 F7D0     		beq	.L94
 991              	.L91:
 453:/mnt/c/Users/31740/Documents/codes/newcore-rp2350/lib/_string.c **** }
 992              		.loc 1 453 2 is_stmt 1 view .LVU286
 454:/mnt/c/Users/31740/Documents/codes/newcore-rp2350/lib/_string.c **** EXPORT_SYMBOL(strcspn);
 993              		.loc 1 454 1 is_stmt 0 view .LVU287
 994 001a A01B     		subs	r0, r4, r6
 995 001c 70BD     		pop	{r4, r5, r6, pc}
 454:/mnt/c/Users/31740/Documents/codes/newcore-rp2350/lib/_string.c **** EXPORT_SYMBOL(strcspn);
 996              		.loc 1 454 1 view .LVU288
 997              		.cfi_endproc
 998              	.LFE68:
 1000              		.section	.text.strpbrk,"ax",%progbits
 1001              		.align	1
 1002              		.global	strpbrk
 1003              		.syntax unified
 1004              		.thumb
 1005              		.thumb_func
 1007              	strpbrk:
 1008              	.LVL111:
 1009              	.LFB69:
 465:/mnt/c/Users/31740/Documents/codes/newcore-rp2350/lib/_string.c **** 	const char *sc;
 1010              		.loc 1 465 1 is_stmt 1 view -0
 1011              		.cfi_startproc
 1012              		@ args = 0, pretend = 0, frame = 0
 1013              		@ frame_needed = 0, uses_anonymous_args = 0
 465:/mnt/c/Users/31740/Documents/codes/newcore-rp2350/lib/_string.c **** 	const char *sc;
 1014              		.loc 1 465 1 is_stmt 0 view .LVU290
 1015 0000 38B5     		push	{r3, r4, r5, lr}
 1016              	.LCFI11:
 1017              		.cfi_def_cfa_offset 16
 1018              		.cfi_offset 3, -16
 1019              		.cfi_offset 4, -12
 1020              		.cfi_offset 5, -8
 1021              		.cfi_offset 14, -4
 1022 0002 0446     		mov	r4, r0
 1023 0004 0D46     		mov	r5, r1
 466:/mnt/c/Users/31740/Documents/codes/newcore-rp2350/lib/_string.c **** 
 1024              		.loc 1 466 2 is_stmt 1 view .LVU291
 468:/mnt/c/Users/31740/Documents/codes/newcore-rp2350/lib/_string.c **** 		if (strchr(ct, *sc))
 1025              		.loc 1 468 2 view .LVU292
 1026              	.LVL112:
 468:/mnt/c/Users/31740/Documents/codes/newcore-rp2350/lib/_string.c **** 		if (strchr(ct, *sc))
 1027              		.loc 1 468 2 is_stmt 0 view .LVU293
 1028 0006 00E0     		b	.L96
 1029              	.LVL113:
 1030              	.L102:
 468:/mnt/c/Users/31740/Documents/codes/newcore-rp2350/lib/_string.c **** 		if (strchr(ct, *sc))
 1031              		.loc 1 468 29 is_stmt 1 discriminator 2 view .LVU294
 1032 0008 0134     		adds	r4, r4, #1
 1033              	.LVL114:
 1034              	.L96:
 468:/mnt/c/Users/31740/Documents/codes/newcore-rp2350/lib/_string.c **** 		if (strchr(ct, *sc))
 1035              		.loc 1 468 20 discriminator 1 view .LVU295
 468:/mnt/c/Users/31740/Documents/codes/newcore-rp2350/lib/_string.c **** 		if (strchr(ct, *sc))
 1036              		.loc 1 468 16 is_stmt 0 discriminator 1 view .LVU296
 1037 000a 2178     		ldrb	r1, [r4]	@ zero_extendqisi2
ARM GAS  /tmp/ccYsdBMV.s 			page 36


 468:/mnt/c/Users/31740/Documents/codes/newcore-rp2350/lib/_string.c **** 		if (strchr(ct, *sc))
 1038              		.loc 1 468 20 discriminator 1 view .LVU297
 1039 000c 31B1     		cbz	r1, .L101
 469:/mnt/c/Users/31740/Documents/codes/newcore-rp2350/lib/_string.c **** 			return (char *)sc;
 1040              		.loc 1 469 3 is_stmt 1 view .LVU298
 469:/mnt/c/Users/31740/Documents/codes/newcore-rp2350/lib/_string.c **** 			return (char *)sc;
 1041              		.loc 1 469 7 is_stmt 0 view .LVU299
 1042 000e 2846     		mov	r0, r5
 1043 0010 FFF7FEFF 		bl	strchr
 1044              	.LVL115:
 469:/mnt/c/Users/31740/Documents/codes/newcore-rp2350/lib/_string.c **** 			return (char *)sc;
 1045              		.loc 1 469 6 discriminator 1 view .LVU300
 1046 0014 0028     		cmp	r0, #0
 1047 0016 F7D0     		beq	.L102
 470:/mnt/c/Users/31740/Documents/codes/newcore-rp2350/lib/_string.c **** 	}
 1048              		.loc 1 470 11 view .LVU301
 1049 0018 2046     		mov	r0, r4
 1050 001a 00E0     		b	.L95
 1051              	.L101:
 472:/mnt/c/Users/31740/Documents/codes/newcore-rp2350/lib/_string.c **** }
 1052              		.loc 1 472 9 view .LVU302
 1053 001c 0020     		movs	r0, #0
 1054              	.L95:
 473:/mnt/c/Users/31740/Documents/codes/newcore-rp2350/lib/_string.c **** EXPORT_SYMBOL(strpbrk);
 1055              		.loc 1 473 1 view .LVU303
 1056 001e 38BD     		pop	{r3, r4, r5, pc}
 473:/mnt/c/Users/31740/Documents/codes/newcore-rp2350/lib/_string.c **** EXPORT_SYMBOL(strpbrk);
 1057              		.loc 1 473 1 view .LVU304
 1058              		.cfi_endproc
 1059              	.LFE69:
 1061              		.section	.text.strsep,"ax",%progbits
 1062              		.align	1
 1063              		.global	strsep
 1064              		.syntax unified
 1065              		.thumb
 1066              		.thumb_func
 1068              	strsep:
 1069              	.LVL116:
 1070              	.LFB70:
 490:/mnt/c/Users/31740/Documents/codes/newcore-rp2350/lib/_string.c **** 	char *sbegin = *s;
 1071              		.loc 1 490 1 is_stmt 1 view -0
 1072              		.cfi_startproc
 1073              		@ args = 0, pretend = 0, frame = 0
 1074              		@ frame_needed = 0, uses_anonymous_args = 0
 490:/mnt/c/Users/31740/Documents/codes/newcore-rp2350/lib/_string.c **** 	char *sbegin = *s;
 1075              		.loc 1 490 1 is_stmt 0 view .LVU306
 1076 0000 38B5     		push	{r3, r4, r5, lr}
 1077              	.LCFI12:
 1078              		.cfi_def_cfa_offset 16
 1079              		.cfi_offset 3, -16
 1080              		.cfi_offset 4, -12
 1081              		.cfi_offset 5, -8
 1082              		.cfi_offset 14, -4
 491:/mnt/c/Users/31740/Documents/codes/newcore-rp2350/lib/_string.c **** 	char *end;
 1083              		.loc 1 491 2 is_stmt 1 view .LVU307
 491:/mnt/c/Users/31740/Documents/codes/newcore-rp2350/lib/_string.c **** 	char *end;
 1084              		.loc 1 491 8 is_stmt 0 view .LVU308
ARM GAS  /tmp/ccYsdBMV.s 			page 37


 1085 0002 0568     		ldr	r5, [r0]
 1086              	.LVL117:
 492:/mnt/c/Users/31740/Documents/codes/newcore-rp2350/lib/_string.c **** 
 1087              		.loc 1 492 2 is_stmt 1 view .LVU309
 494:/mnt/c/Users/31740/Documents/codes/newcore-rp2350/lib/_string.c **** 		return NULL;
 1088              		.loc 1 494 2 view .LVU310
 494:/mnt/c/Users/31740/Documents/codes/newcore-rp2350/lib/_string.c **** 		return NULL;
 1089              		.loc 1 494 5 is_stmt 0 view .LVU311
 1090 0004 4DB1     		cbz	r5, .L103
 1091 0006 0446     		mov	r4, r0
 497:/mnt/c/Users/31740/Documents/codes/newcore-rp2350/lib/_string.c **** 	if (end)
 1092              		.loc 1 497 2 is_stmt 1 view .LVU312
 497:/mnt/c/Users/31740/Documents/codes/newcore-rp2350/lib/_string.c **** 	if (end)
 1093              		.loc 1 497 8 is_stmt 0 view .LVU313
 1094 0008 2846     		mov	r0, r5
 1095              	.LVL118:
 497:/mnt/c/Users/31740/Documents/codes/newcore-rp2350/lib/_string.c **** 	if (end)
 1096              		.loc 1 497 8 view .LVU314
 1097 000a FFF7FEFF 		bl	strpbrk
 1098              	.LVL119:
 498:/mnt/c/Users/31740/Documents/codes/newcore-rp2350/lib/_string.c **** 		*end++ = '\0';
 1099              		.loc 1 498 2 is_stmt 1 view .LVU315
 498:/mnt/c/Users/31740/Documents/codes/newcore-rp2350/lib/_string.c **** 		*end++ = '\0';
 1100              		.loc 1 498 5 is_stmt 0 view .LVU316
 1101 000e 0346     		mov	r3, r0
 1102 0010 10B1     		cbz	r0, .L105
 499:/mnt/c/Users/31740/Documents/codes/newcore-rp2350/lib/_string.c **** 	*s = end;
 1103              		.loc 1 499 3 is_stmt 1 view .LVU317
 1104              	.LVL120:
 499:/mnt/c/Users/31740/Documents/codes/newcore-rp2350/lib/_string.c **** 	*s = end;
 1105              		.loc 1 499 10 is_stmt 0 view .LVU318
 1106 0012 0022     		movs	r2, #0
 1107 0014 03F8012B 		strb	r2, [r3], #1
 1108              	.LVL121:
 1109              	.L105:
 500:/mnt/c/Users/31740/Documents/codes/newcore-rp2350/lib/_string.c **** 	return sbegin;
 1110              		.loc 1 500 2 is_stmt 1 view .LVU319
 500:/mnt/c/Users/31740/Documents/codes/newcore-rp2350/lib/_string.c **** 	return sbegin;
 1111              		.loc 1 500 5 is_stmt 0 view .LVU320
 1112 0018 2360     		str	r3, [r4]
 501:/mnt/c/Users/31740/Documents/codes/newcore-rp2350/lib/_string.c **** }
 1113              		.loc 1 501 2 is_stmt 1 view .LVU321
 1114              	.LVL122:
 1115              	.L103:
 502:/mnt/c/Users/31740/Documents/codes/newcore-rp2350/lib/_string.c **** EXPORT_SYMBOL(strsep);
 1116              		.loc 1 502 1 is_stmt 0 view .LVU322
 1117 001a 2846     		mov	r0, r5
 1118 001c 38BD     		pop	{r3, r4, r5, pc}
 502:/mnt/c/Users/31740/Documents/codes/newcore-rp2350/lib/_string.c **** EXPORT_SYMBOL(strsep);
 1119              		.loc 1 502 1 view .LVU323
 1120              		.cfi_endproc
 1121              	.LFE70:
 1123              		.section	.text.bcmp,"ax",%progbits
 1124              		.align	1
 1125              		.global	bcmp
 1126              		.syntax unified
 1127              		.thumb
ARM GAS  /tmp/ccYsdBMV.s 			page 38


 1128              		.thumb_func
 1130              	bcmp:
 1131              	.LVL123:
 1132              	.LFB72:
 695:/mnt/c/Users/31740/Documents/codes/newcore-rp2350/lib/_string.c **** 	return memcmp(a, b, len);
 1133              		.loc 1 695 1 is_stmt 1 view -0
 1134              		.cfi_startproc
 1135              		@ args = 0, pretend = 0, frame = 0
 1136              		@ frame_needed = 0, uses_anonymous_args = 0
 695:/mnt/c/Users/31740/Documents/codes/newcore-rp2350/lib/_string.c **** 	return memcmp(a, b, len);
 1137              		.loc 1 695 1 is_stmt 0 view .LVU325
 1138 0000 08B5     		push	{r3, lr}
 1139              	.LCFI13:
 1140              		.cfi_def_cfa_offset 8
 1141              		.cfi_offset 3, -8
 1142              		.cfi_offset 14, -4
 696:/mnt/c/Users/31740/Documents/codes/newcore-rp2350/lib/_string.c **** }
 1143              		.loc 1 696 2 is_stmt 1 view .LVU326
 696:/mnt/c/Users/31740/Documents/codes/newcore-rp2350/lib/_string.c **** }
 1144              		.loc 1 696 9 is_stmt 0 view .LVU327
 1145 0002 FFF7FEFF 		bl	memcmp
 1146              	.LVL124:
 697:/mnt/c/Users/31740/Documents/codes/newcore-rp2350/lib/_string.c **** EXPORT_SYMBOL(bcmp);
 1147              		.loc 1 697 1 view .LVU328
 1148 0006 08BD     		pop	{r3, pc}
 1149              		.cfi_endproc
 1150              	.LFE72:
 1152              		.section	.text.strstr,"ax",%progbits
 1153              		.align	1
 1154              		.global	strstr
 1155              		.syntax unified
 1156              		.thumb
 1157              		.thumb_func
 1159              	strstr:
 1160              	.LVL125:
 1161              	.LFB74:
 733:/mnt/c/Users/31740/Documents/codes/newcore-rp2350/lib/_string.c **** 	size_t l1, l2;
 1162              		.loc 1 733 1 is_stmt 1 view -0
 1163              		.cfi_startproc
 1164              		@ args = 0, pretend = 0, frame = 0
 1165              		@ frame_needed = 0, uses_anonymous_args = 0
 733:/mnt/c/Users/31740/Documents/codes/newcore-rp2350/lib/_string.c **** 	size_t l1, l2;
 1166              		.loc 1 733 1 is_stmt 0 view .LVU330
 1167 0000 F8B5     		push	{r3, r4, r5, r6, r7, lr}
 1168              	.LCFI14:
 1169              		.cfi_def_cfa_offset 24
 1170              		.cfi_offset 3, -24
 1171              		.cfi_offset 4, -20
 1172              		.cfi_offset 5, -16
 1173              		.cfi_offset 6, -12
 1174              		.cfi_offset 7, -8
 1175              		.cfi_offset 14, -4
 1176 0002 0446     		mov	r4, r0
 1177 0004 0F46     		mov	r7, r1
 734:/mnt/c/Users/31740/Documents/codes/newcore-rp2350/lib/_string.c **** 
 1178              		.loc 1 734 2 is_stmt 1 view .LVU331
 736:/mnt/c/Users/31740/Documents/codes/newcore-rp2350/lib/_string.c **** 	if (!l2)
ARM GAS  /tmp/ccYsdBMV.s 			page 39


 1179              		.loc 1 736 2 view .LVU332
 736:/mnt/c/Users/31740/Documents/codes/newcore-rp2350/lib/_string.c **** 	if (!l2)
 1180              		.loc 1 736 7 is_stmt 0 view .LVU333
 1181 0006 0846     		mov	r0, r1
 1182              	.LVL126:
 736:/mnt/c/Users/31740/Documents/codes/newcore-rp2350/lib/_string.c **** 	if (!l2)
 1183              		.loc 1 736 7 view .LVU334
 1184 0008 FFF7FEFF 		bl	strlen
 1185              	.LVL127:
 737:/mnt/c/Users/31740/Documents/codes/newcore-rp2350/lib/_string.c **** 		return (char *)s1;
 1186              		.loc 1 737 2 is_stmt 1 view .LVU335
 737:/mnt/c/Users/31740/Documents/codes/newcore-rp2350/lib/_string.c **** 		return (char *)s1;
 1187              		.loc 1 737 5 is_stmt 0 view .LVU336
 1188 000c 88B1     		cbz	r0, .L114
 1189 000e 0646     		mov	r6, r0
 739:/mnt/c/Users/31740/Documents/codes/newcore-rp2350/lib/_string.c **** 	while (l1 >= l2) {
 1190              		.loc 1 739 2 is_stmt 1 view .LVU337
 739:/mnt/c/Users/31740/Documents/codes/newcore-rp2350/lib/_string.c **** 	while (l1 >= l2) {
 1191              		.loc 1 739 7 is_stmt 0 view .LVU338
 1192 0010 2046     		mov	r0, r4
 1193              	.LVL128:
 739:/mnt/c/Users/31740/Documents/codes/newcore-rp2350/lib/_string.c **** 	while (l1 >= l2) {
 1194              		.loc 1 739 7 view .LVU339
 1195 0012 FFF7FEFF 		bl	strlen
 1196              	.LVL129:
 1197 0016 0546     		mov	r5, r0
 1198              	.LVL130:
 740:/mnt/c/Users/31740/Documents/codes/newcore-rp2350/lib/_string.c **** 		l1--;
 1199              		.loc 1 740 2 is_stmt 1 view .LVU340
 1200              	.L112:
 740:/mnt/c/Users/31740/Documents/codes/newcore-rp2350/lib/_string.c **** 		l1--;
 1201              		.loc 1 740 12 view .LVU341
 1202 0018 B542     		cmp	r5, r6
 1203 001a 08D3     		bcc	.L117
 741:/mnt/c/Users/31740/Documents/codes/newcore-rp2350/lib/_string.c **** 		if (!memcmp(s1, s2, l2))
 1204              		.loc 1 741 3 view .LVU342
 741:/mnt/c/Users/31740/Documents/codes/newcore-rp2350/lib/_string.c **** 		if (!memcmp(s1, s2, l2))
 1205              		.loc 1 741 5 is_stmt 0 view .LVU343
 1206 001c 013D     		subs	r5, r5, #1
 1207              	.LVL131:
 742:/mnt/c/Users/31740/Documents/codes/newcore-rp2350/lib/_string.c **** 			return (char *)s1;
 1208              		.loc 1 742 3 is_stmt 1 view .LVU344
 742:/mnt/c/Users/31740/Documents/codes/newcore-rp2350/lib/_string.c **** 			return (char *)s1;
 1209              		.loc 1 742 8 is_stmt 0 view .LVU345
 1210 001e 3246     		mov	r2, r6
 1211 0020 3946     		mov	r1, r7
 1212 0022 2046     		mov	r0, r4
 1213 0024 FFF7FEFF 		bl	memcmp
 1214              	.LVL132:
 742:/mnt/c/Users/31740/Documents/codes/newcore-rp2350/lib/_string.c **** 			return (char *)s1;
 1215              		.loc 1 742 6 discriminator 1 view .LVU346
 1216 0028 28B1     		cbz	r0, .L115
 744:/mnt/c/Users/31740/Documents/codes/newcore-rp2350/lib/_string.c **** 	}
 1217              		.loc 1 744 3 is_stmt 1 view .LVU347
 744:/mnt/c/Users/31740/Documents/codes/newcore-rp2350/lib/_string.c **** 	}
 1218              		.loc 1 744 5 is_stmt 0 view .LVU348
 1219 002a 0134     		adds	r4, r4, #1
ARM GAS  /tmp/ccYsdBMV.s 			page 40


 1220              	.LVL133:
 744:/mnt/c/Users/31740/Documents/codes/newcore-rp2350/lib/_string.c **** 	}
 1221              		.loc 1 744 5 view .LVU349
 1222 002c F4E7     		b	.L112
 1223              	.L117:
 746:/mnt/c/Users/31740/Documents/codes/newcore-rp2350/lib/_string.c **** }
 1224              		.loc 1 746 9 view .LVU350
 1225 002e 0020     		movs	r0, #0
 1226 0030 00E0     		b	.L110
 1227              	.LVL134:
 1228              	.L114:
 738:/mnt/c/Users/31740/Documents/codes/newcore-rp2350/lib/_string.c **** 	l1 = strlen(s1);
 1229              		.loc 1 738 10 view .LVU351
 1230 0032 2046     		mov	r0, r4
 1231              	.LVL135:
 1232              	.L110:
 747:/mnt/c/Users/31740/Documents/codes/newcore-rp2350/lib/_string.c **** EXPORT_SYMBOL(strstr);
 1233              		.loc 1 747 1 view .LVU352
 1234 0034 F8BD     		pop	{r3, r4, r5, r6, r7, pc}
 1235              	.LVL136:
 1236              	.L115:
 743:/mnt/c/Users/31740/Documents/codes/newcore-rp2350/lib/_string.c **** 		s1++;
 1237              		.loc 1 743 11 view .LVU353
 1238 0036 2046     		mov	r0, r4
 1239 0038 FCE7     		b	.L110
 1240              		.cfi_endproc
 1241              	.LFE74:
 1243              		.section	.text.strnstr,"ax",%progbits
 1244              		.align	1
 1245              		.global	strnstr
 1246              		.syntax unified
 1247              		.thumb
 1248              		.thumb_func
 1250              	strnstr:
 1251              	.LVL137:
 1252              	.LFB75:
 759:/mnt/c/Users/31740/Documents/codes/newcore-rp2350/lib/_string.c **** 	size_t l2;
 1253              		.loc 1 759 1 is_stmt 1 view -0
 1254              		.cfi_startproc
 1255              		@ args = 0, pretend = 0, frame = 0
 1256              		@ frame_needed = 0, uses_anonymous_args = 0
 759:/mnt/c/Users/31740/Documents/codes/newcore-rp2350/lib/_string.c **** 	size_t l2;
 1257              		.loc 1 759 1 is_stmt 0 view .LVU355
 1258 0000 F8B5     		push	{r3, r4, r5, r6, r7, lr}
 1259              	.LCFI15:
 1260              		.cfi_def_cfa_offset 24
 1261              		.cfi_offset 3, -24
 1262              		.cfi_offset 4, -20
 1263              		.cfi_offset 5, -16
 1264              		.cfi_offset 6, -12
 1265              		.cfi_offset 7, -8
 1266              		.cfi_offset 14, -4
 1267 0002 0446     		mov	r4, r0
 1268 0004 0F46     		mov	r7, r1
 1269 0006 1546     		mov	r5, r2
 760:/mnt/c/Users/31740/Documents/codes/newcore-rp2350/lib/_string.c **** 
 1270              		.loc 1 760 2 is_stmt 1 view .LVU356
ARM GAS  /tmp/ccYsdBMV.s 			page 41


 762:/mnt/c/Users/31740/Documents/codes/newcore-rp2350/lib/_string.c **** 	if (!l2)
 1271              		.loc 1 762 2 view .LVU357
 762:/mnt/c/Users/31740/Documents/codes/newcore-rp2350/lib/_string.c **** 	if (!l2)
 1272              		.loc 1 762 7 is_stmt 0 view .LVU358
 1273 0008 0846     		mov	r0, r1
 1274              	.LVL138:
 762:/mnt/c/Users/31740/Documents/codes/newcore-rp2350/lib/_string.c **** 	if (!l2)
 1275              		.loc 1 762 7 view .LVU359
 1276 000a FFF7FEFF 		bl	strlen
 1277              	.LVL139:
 763:/mnt/c/Users/31740/Documents/codes/newcore-rp2350/lib/_string.c **** 		return (char *)s1;
 1278              		.loc 1 763 2 is_stmt 1 view .LVU360
 763:/mnt/c/Users/31740/Documents/codes/newcore-rp2350/lib/_string.c **** 		return (char *)s1;
 1279              		.loc 1 763 5 is_stmt 0 view .LVU361
 1280 000e 0646     		mov	r6, r0
 1281 0010 60B1     		cbz	r0, .L125
 1282              	.LVL140:
 1283              	.L120:
 765:/mnt/c/Users/31740/Documents/codes/newcore-rp2350/lib/_string.c **** 		len--;
 1284              		.loc 1 765 13 is_stmt 1 view .LVU362
 1285 0012 B542     		cmp	r5, r6
 1286 0014 08D3     		bcc	.L126
 766:/mnt/c/Users/31740/Documents/codes/newcore-rp2350/lib/_string.c **** 		if (!memcmp(s1, s2, l2))
 1287              		.loc 1 766 3 view .LVU363
 766:/mnt/c/Users/31740/Documents/codes/newcore-rp2350/lib/_string.c **** 		if (!memcmp(s1, s2, l2))
 1288              		.loc 1 766 6 is_stmt 0 view .LVU364
 1289 0016 013D     		subs	r5, r5, #1
 1290              	.LVL141:
 767:/mnt/c/Users/31740/Documents/codes/newcore-rp2350/lib/_string.c **** 			return (char *)s1;
 1291              		.loc 1 767 3 is_stmt 1 view .LVU365
 767:/mnt/c/Users/31740/Documents/codes/newcore-rp2350/lib/_string.c **** 			return (char *)s1;
 1292              		.loc 1 767 8 is_stmt 0 view .LVU366
 1293 0018 3246     		mov	r2, r6
 1294 001a 3946     		mov	r1, r7
 1295 001c 2046     		mov	r0, r4
 1296 001e FFF7FEFF 		bl	memcmp
 1297              	.LVL142:
 767:/mnt/c/Users/31740/Documents/codes/newcore-rp2350/lib/_string.c **** 			return (char *)s1;
 1298              		.loc 1 767 6 discriminator 1 view .LVU367
 1299 0022 28B1     		cbz	r0, .L123
 769:/mnt/c/Users/31740/Documents/codes/newcore-rp2350/lib/_string.c **** 	}
 1300              		.loc 1 769 3 is_stmt 1 view .LVU368
 769:/mnt/c/Users/31740/Documents/codes/newcore-rp2350/lib/_string.c **** 	}
 1301              		.loc 1 769 5 is_stmt 0 view .LVU369
 1302 0024 0134     		adds	r4, r4, #1
 1303              	.LVL143:
 769:/mnt/c/Users/31740/Documents/codes/newcore-rp2350/lib/_string.c **** 	}
 1304              		.loc 1 769 5 view .LVU370
 1305 0026 F4E7     		b	.L120
 1306              	.L126:
 771:/mnt/c/Users/31740/Documents/codes/newcore-rp2350/lib/_string.c **** }
 1307              		.loc 1 771 9 view .LVU371
 1308 0028 0020     		movs	r0, #0
 1309 002a 00E0     		b	.L118
 1310              	.LVL144:
 1311              	.L125:
 764:/mnt/c/Users/31740/Documents/codes/newcore-rp2350/lib/_string.c **** 	while (len >= l2) {
ARM GAS  /tmp/ccYsdBMV.s 			page 42


 1312              		.loc 1 764 10 view .LVU372
 1313 002c 2046     		mov	r0, r4
 1314              	.LVL145:
 1315              	.L118:
 772:/mnt/c/Users/31740/Documents/codes/newcore-rp2350/lib/_string.c **** EXPORT_SYMBOL(strnstr);
 1316              		.loc 1 772 1 view .LVU373
 1317 002e F8BD     		pop	{r3, r4, r5, r6, r7, pc}
 1318              	.LVL146:
 1319              	.L123:
 768:/mnt/c/Users/31740/Documents/codes/newcore-rp2350/lib/_string.c **** 		s1++;
 1320              		.loc 1 768 11 view .LVU374
 1321 0030 2046     		mov	r0, r4
 1322 0032 FCE7     		b	.L118
 1323              		.cfi_endproc
 1324              	.LFE75:
 1326              		.section	.text.strnchrnul,"ax",%progbits
 1327              		.align	1
 1328              		.global	strnchrnul
 1329              		.syntax unified
 1330              		.thumb
 1331              		.thumb_func
 1333              	strnchrnul:
 1334              	.LVL147:
 1335              	.LFB65:
 349:/mnt/c/Users/31740/Documents/codes/newcore-rp2350/lib/_string.c **** 	while (count-- && *s && *s != (char)c)
 1336              		.loc 1 349 1 is_stmt 1 view -0
 1337              		.cfi_startproc
 1338              		@ args = 0, pretend = 0, frame = 0
 1339              		@ frame_needed = 0, uses_anonymous_args = 0
 1340              		@ link register save eliminated.
 350:/mnt/c/Users/31740/Documents/codes/newcore-rp2350/lib/_string.c **** 		s++;
 1341              		.loc 1 350 2 view .LVU376
 350:/mnt/c/Users/31740/Documents/codes/newcore-rp2350/lib/_string.c **** 		s++;
 1342              		.loc 1 350 8 is_stmt 0 view .LVU377
 1343 0000 01E0     		b	.L128
 1344              	.LVL148:
 1345              	.L130:
 351:/mnt/c/Users/31740/Documents/codes/newcore-rp2350/lib/_string.c **** 	return (char *)s;
 1346              		.loc 1 351 3 is_stmt 1 view .LVU378
 351:/mnt/c/Users/31740/Documents/codes/newcore-rp2350/lib/_string.c **** 	return (char *)s;
 1347              		.loc 1 351 4 is_stmt 0 view .LVU379
 1348 0002 0130     		adds	r0, r0, #1
 1349              	.LVL149:
 350:/mnt/c/Users/31740/Documents/codes/newcore-rp2350/lib/_string.c **** 		s++;
 1350              		.loc 1 350 14 view .LVU380
 1351 0004 6146     		mov	r1, ip
 1352              	.LVL150:
 1353              	.L128:
 350:/mnt/c/Users/31740/Documents/codes/newcore-rp2350/lib/_string.c **** 		s++;
 1354              		.loc 1 350 23 is_stmt 1 view .LVU381
 350:/mnt/c/Users/31740/Documents/codes/newcore-rp2350/lib/_string.c **** 		s++;
 1355              		.loc 1 350 14 is_stmt 0 view .LVU382
 1356 0006 01F1FF3C 		add	ip, r1, #-1
 1357              	.LVL151:
 350:/mnt/c/Users/31740/Documents/codes/newcore-rp2350/lib/_string.c **** 		s++;
 1358              		.loc 1 350 23 view .LVU383
 1359 000a 21B1     		cbz	r1, .L129
ARM GAS  /tmp/ccYsdBMV.s 			page 43


 350:/mnt/c/Users/31740/Documents/codes/newcore-rp2350/lib/_string.c **** 		s++;
 1360              		.loc 1 350 20 discriminator 1 view .LVU384
 1361 000c 0378     		ldrb	r3, [r0]	@ zero_extendqisi2
 350:/mnt/c/Users/31740/Documents/codes/newcore-rp2350/lib/_string.c **** 		s++;
 1362              		.loc 1 350 17 discriminator 1 view .LVU385
 1363 000e 13B1     		cbz	r3, .L129
 350:/mnt/c/Users/31740/Documents/codes/newcore-rp2350/lib/_string.c **** 		s++;
 1364              		.loc 1 350 29 discriminator 2 view .LVU386
 1365 0010 D1B2     		uxtb	r1, r2
 350:/mnt/c/Users/31740/Documents/codes/newcore-rp2350/lib/_string.c **** 		s++;
 1366              		.loc 1 350 23 discriminator 2 view .LVU387
 1367 0012 8B42     		cmp	r3, r1
 1368 0014 F5D1     		bne	.L130
 1369              	.L129:
 352:/mnt/c/Users/31740/Documents/codes/newcore-rp2350/lib/_string.c **** }
 1370              		.loc 1 352 2 is_stmt 1 view .LVU388
 353:/mnt/c/Users/31740/Documents/codes/newcore-rp2350/lib/_string.c **** 
 1371              		.loc 1 353 1 is_stmt 0 view .LVU389
 1372 0016 7047     		bx	lr
 1373              		.cfi_endproc
 1374              	.LFE65:
 1376              		.section	.rodata.str1.4,"aMS",%progbits,1
 1377              		.align	2
 1378              	.LC0:
 1379 0000 6D656D63 		.ascii	"memchr_inv\000"
 1379      68725F69 
 1379      6E7600
 1380 000b 00       		.align	2
 1381              	.LC1:
 1382 000c 00       		.ascii	"\000"
 1383              		.section	.export_table,"aw"
 1384              		.align	2
 1387              	memchr_inv_export_struct:
 1388 0000 00000000 		.word	.LC0
 1389 0004 0C000000 		.word	.LC1
 1390 0008 00000000 		.word	memchr_inv
 1391              		.section	.rodata.str1.4
 1392 000d 000000   		.align	2
 1393              	.LC2:
 1394 0010 7374726E 		.ascii	"strnstr\000"
 1394      73747200 
 1395              		.section	.export_table
 1396              		.align	2
 1399              	strnstr_export_struct:
 1400 000c 10000000 		.word	.LC2
 1401 0010 0C000000 		.word	.LC1
 1402 0014 00000000 		.word	strnstr
 1403              		.section	.rodata.str1.4
 1404              		.align	2
 1405              	.LC3:
 1406 0018 73747273 		.ascii	"strstr\000"
 1406      747200
 1407              		.section	.export_table
 1408              		.align	2
 1411              	strstr_export_struct:
 1412 0018 18000000 		.word	.LC3
 1413 001c 0C000000 		.word	.LC1
ARM GAS  /tmp/ccYsdBMV.s 			page 44


 1414 0020 00000000 		.word	strstr
 1415              		.section	.rodata.str1.4
 1416 001f 00       		.align	2
 1417              	.LC4:
 1418 0020 6D656D73 		.ascii	"memscan\000"
 1418      63616E00 
 1419              		.section	.export_table
 1420              		.align	2
 1423              	memscan_export_struct:
 1424 0024 20000000 		.word	.LC4
 1425 0028 0C000000 		.word	.LC1
 1426 002c 00000000 		.word	memscan
 1427              		.section	.rodata.str1.4
 1428              		.align	2
 1429              	.LC5:
 1430 0028 62636D70 		.ascii	"bcmp\000"
 1430      00
 1431              		.section	.export_table
 1432              		.align	2
 1435              	bcmp_export_struct:
 1436 0030 28000000 		.word	.LC5
 1437 0034 0C000000 		.word	.LC1
 1438 0038 00000000 		.word	bcmp
 1439              		.section	.rodata.str1.4
 1440 002d 000000   		.align	2
 1441              	.LC6:
 1442 0030 6D656D73 		.ascii	"memset16\000"
 1442      65743136 
 1442      00
 1443              		.section	.export_table
 1444              		.align	2
 1447              	memset16_export_struct:
 1448 003c 30000000 		.word	.LC6
 1449 0040 0C000000 		.word	.LC1
 1450 0044 00000000 		.word	memset16
 1451              		.section	.rodata.str1.4
 1452 0039 000000   		.align	2
 1453              	.LC7:
 1454 003c 73747273 		.ascii	"strsep\000"
 1454      657000
 1455              		.section	.export_table
 1456              		.align	2
 1459              	strsep_export_struct:
 1460 0048 3C000000 		.word	.LC7
 1461 004c 0C000000 		.word	.LC1
 1462 0050 00000000 		.word	strsep
 1463              		.section	.rodata.str1.4
 1464 0043 00       		.align	2
 1465              	.LC8:
 1466 0044 73747270 		.ascii	"strpbrk\000"
 1466      62726B00 
 1467              		.section	.export_table
 1468              		.align	2
 1471              	strpbrk_export_struct:
 1472 0054 44000000 		.word	.LC8
 1473 0058 0C000000 		.word	.LC1
 1474 005c 00000000 		.word	strpbrk
ARM GAS  /tmp/ccYsdBMV.s 			page 45


 1475              		.section	.rodata.str1.4
 1476              		.align	2
 1477              	.LC9:
 1478 004c 73747263 		.ascii	"strcspn\000"
 1478      73706E00 
 1479              		.section	.export_table
 1480              		.align	2
 1483              	strcspn_export_struct:
 1484 0060 4C000000 		.word	.LC9
 1485 0064 0C000000 		.word	.LC1
 1486 0068 00000000 		.word	strcspn
 1487              		.section	.rodata.str1.4
 1488              		.align	2
 1489              	.LC10:
 1490 0054 73747273 		.ascii	"strspn\000"
 1490      706E00
 1491              		.section	.export_table
 1492              		.align	2
 1495              	strspn_export_struct:
 1496 006c 54000000 		.word	.LC10
 1497 0070 0C000000 		.word	.LC1
 1498 0074 00000000 		.word	strspn
 1499              		.section	.rodata.str1.4
 1500 005b 00       		.align	2
 1501              	.LC11:
 1502 005c 7374726E 		.ascii	"strnchr\000"
 1502      63687200 
 1503              		.section	.export_table
 1504              		.align	2
 1507              	strnchr_export_struct:
 1508 0078 5C000000 		.word	.LC11
 1509 007c 0C000000 		.word	.LC1
 1510 0080 00000000 		.word	strnchr
 1511              		.section	.rodata.str1.4
 1512              		.align	2
 1513              	.LC12:
 1514 0064 73747263 		.ascii	"strchrnul\000"
 1514      68726E75 
 1514      6C00
 1515              		.section	.export_table
 1516              		.align	2
 1519              	strchrnul_export_struct:
 1520 0084 64000000 		.word	.LC12
 1521 0088 0C000000 		.word	.LC1
 1522 008c 00000000 		.word	strchrnul
 1523              		.section	.rodata.str1.4
 1524 006e 0000     		.align	2
 1525              	.LC13:
 1526 0070 7374726E 		.ascii	"strncmp\000"
 1526      636D7000 
 1527              		.section	.export_table
 1528              		.align	2
 1531              	strncmp_export_struct:
 1532 0090 70000000 		.word	.LC13
 1533 0094 0C000000 		.word	.LC1
 1534 0098 00000000 		.word	strncmp
 1535              		.section	.rodata.str1.4
ARM GAS  /tmp/ccYsdBMV.s 			page 46


 1536              		.align	2
 1537              	.LC14:
 1538 0078 7374726C 		.ascii	"strlcat\000"
 1538      63617400 
 1539              		.section	.export_table
 1540              		.align	2
 1543              	strlcat_export_struct:
 1544 009c 78000000 		.word	.LC14
 1545 00a0 0C000000 		.word	.LC1
 1546 00a4 00000000 		.word	strlcat
 1547              		.section	.rodata.str1.4
 1548              		.align	2
 1549              	.LC15:
 1550 0080 7374726E 		.ascii	"strncat\000"
 1550      63617400 
 1551              		.section	.export_table
 1552              		.align	2
 1555              	strncat_export_struct:
 1556 00a8 80000000 		.word	.LC15
 1557 00ac 0C000000 		.word	.LC1
 1558 00b0 00000000 		.word	strncat
 1559              		.section	.rodata.str1.4
 1560              		.align	2
 1561              	.LC16:
 1562 0088 73747263 		.ascii	"strcat\000"
 1562      617400
 1563              		.section	.export_table
 1564              		.align	2
 1567              	strcat_export_struct:
 1568 00b4 88000000 		.word	.LC16
 1569 00b8 0C000000 		.word	.LC1
 1570 00bc 00000000 		.word	strcat
 1571              		.section	.rodata.str1.4
 1572 008f 00       		.align	2
 1573              	.LC17:
 1574 0090 73747063 		.ascii	"stpcpy\000"
 1574      707900
 1575              		.section	.export_table
 1576              		.align	2
 1579              	stpcpy_export_struct:
 1580 00c0 90000000 		.word	.LC17
 1581 00c4 0C000000 		.word	.LC1
 1582 00c8 00000000 		.word	stpcpy
 1583              		.section	.rodata.str1.4
 1584 0097 00       		.align	2
 1585              	.LC18:
 1586 0098 7374726E 		.ascii	"strncpy\000"
 1586      63707900 
 1587              		.section	.export_table
 1588              		.align	2
 1591              	strncpy_export_struct:
 1592 00cc 98000000 		.word	.LC18
 1593 00d0 0C000000 		.word	.LC1
 1594 00d4 00000000 		.word	strncpy
 1595              		.section	.rodata.str1.4
 1596              		.align	2
 1597              	.LC19:
ARM GAS  /tmp/ccYsdBMV.s 			page 47


 1598 00a0 73747263 		.ascii	"strcpy\000"
 1598      707900
 1599              		.section	.export_table
 1600              		.align	2
 1603              	strcpy_export_struct:
 1604 00d8 A0000000 		.word	.LC19
 1605 00dc 0C000000 		.word	.LC1
 1606 00e0 00000000 		.word	strcpy
 1607              		.text
 1608              	.Letext0:
 1609              		.file 2 "/mnt/c/Users/31740/Documents/codes/newcore-rp2350/include/linux/export.h"
 1610              		.file 3 "/mnt/c/Users/31740/Documents/codes/newcore-rp2350/include/asm-generic/int-l64.h"
 1611              		.file 4 "/mnt/c/Users/31740/Documents/codes/newcore-rp2350/include/asm-generic/posix_types.h"
 1612              		.file 5 "/mnt/c/Users/31740/Documents/codes/newcore-rp2350/include/linux/types.h"
 1613              		.file 6 "/mnt/c/Users/31740/Documents/codes/newcore-rp2350/arch/arm_m/include/asm/string.h"
 1614              		.file 7 "/mnt/c/Users/31740/Documents/codes/newcore-rp2350/include/linux/compiler.h"
 1615              		.file 8 "<built-in>"
ARM GAS  /tmp/ccYsdBMV.s 			page 48

