ARM GAS  /tmp/cctjQXNb.s 			page 1


   1              		.cpu cortex-m4
   2              		.arch armv7e-m
   3              		.fpu fpv4-sp-d16
   4              		.eabi_attribute 27, 1
   5              		.eabi_attribute 28, 1
   6              		.eabi_attribute 20, 1
   7              		.eabi_attribute 21, 1
   8              		.eabi_attribute 23, 3
   9              		.eabi_attribute 24, 1
  10              		.eabi_attribute 25, 1
  11              		.eabi_attribute 26, 1
  12              		.eabi_attribute 30, 1
  13              		.eabi_attribute 34, 1
  14              		.eabi_attribute 18, 4
  15              		.file	"bio.c"
  16              		.text
  17              	.Ltext0:
  18              		.cfi_sections	.debug_frame
  19              		.file 1 "/mnt/c/Users/31740/Desktop/newcore/block/bio.c"
  20              		.section	.text.__spin_unlock,"ax",%progbits
  21              		.align	1
  22              		.syntax unified
  23              		.thumb
  24              		.thumb_func
  26              	__spin_unlock:
  27              	.LVL0:
  28              	.LFB252:
  29              		.file 2 "/mnt/c/Users/31740/Desktop/newcore/arch/arm_m/include/asm/spinlock.h"
   1:/mnt/c/Users/31740/Desktop/newcore/arch/arm_m/include/asm/spinlock.h **** #ifndef __SPIN_LOCK_H_
   2:/mnt/c/Users/31740/Desktop/newcore/arch/arm_m/include/asm/spinlock.h **** #define __SPIN_LOCK_H_
   3:/mnt/c/Users/31740/Desktop/newcore/arch/arm_m/include/asm/spinlock.h **** 
   4:/mnt/c/Users/31740/Desktop/newcore/arch/arm_m/include/asm/spinlock.h **** #include <linux/sched.h>
   5:/mnt/c/Users/31740/Desktop/newcore/arch/arm_m/include/asm/spinlock.h **** 
   6:/mnt/c/Users/31740/Desktop/newcore/arch/arm_m/include/asm/spinlock.h **** typedef struct { 
   7:/mnt/c/Users/31740/Desktop/newcore/arch/arm_m/include/asm/spinlock.h ****      int flag; 
   8:/mnt/c/Users/31740/Desktop/newcore/arch/arm_m/include/asm/spinlock.h **** } arch_spinlock_t;
   9:/mnt/c/Users/31740/Desktop/newcore/arch/arm_m/include/asm/spinlock.h **** 
  10:/mnt/c/Users/31740/Desktop/newcore/arch/arm_m/include/asm/spinlock.h **** static int __spin_init(arch_spinlock_t *lock) 
  11:/mnt/c/Users/31740/Desktop/newcore/arch/arm_m/include/asm/spinlock.h **** {
  12:/mnt/c/Users/31740/Desktop/newcore/arch/arm_m/include/asm/spinlock.h ****     lock->flag = 0;
  13:/mnt/c/Users/31740/Desktop/newcore/arch/arm_m/include/asm/spinlock.h **** }
  14:/mnt/c/Users/31740/Desktop/newcore/arch/arm_m/include/asm/spinlock.h **** 
  15:/mnt/c/Users/31740/Desktop/newcore/arch/arm_m/include/asm/spinlock.h **** static int __spin_lock(arch_spinlock_t *lock) {
  16:/mnt/c/Users/31740/Desktop/newcore/arch/arm_m/include/asm/spinlock.h **** 
  17:/mnt/c/Users/31740/Desktop/newcore/arch/arm_m/include/asm/spinlock.h ****     stop_all_scheduler();
  18:/mnt/c/Users/31740/Desktop/newcore/arch/arm_m/include/asm/spinlock.h ****     if(lock->flag == 0){
  19:/mnt/c/Users/31740/Desktop/newcore/arch/arm_m/include/asm/spinlock.h ****           lock->flag = 1;  
  20:/mnt/c/Users/31740/Desktop/newcore/arch/arm_m/include/asm/spinlock.h ****           start_all_scheduler();
  21:/mnt/c/Users/31740/Desktop/newcore/arch/arm_m/include/asm/spinlock.h ****         return 1;
  22:/mnt/c/Users/31740/Desktop/newcore/arch/arm_m/include/asm/spinlock.h ****     }
  23:/mnt/c/Users/31740/Desktop/newcore/arch/arm_m/include/asm/spinlock.h ****     else
  24:/mnt/c/Users/31740/Desktop/newcore/arch/arm_m/include/asm/spinlock.h ****     {
  25:/mnt/c/Users/31740/Desktop/newcore/arch/arm_m/include/asm/spinlock.h ****         start_all_scheduler();
  26:/mnt/c/Users/31740/Desktop/newcore/arch/arm_m/include/asm/spinlock.h ****         return 0;
  27:/mnt/c/Users/31740/Desktop/newcore/arch/arm_m/include/asm/spinlock.h ****     }
  28:/mnt/c/Users/31740/Desktop/newcore/arch/arm_m/include/asm/spinlock.h **** }
  29:/mnt/c/Users/31740/Desktop/newcore/arch/arm_m/include/asm/spinlock.h **** 
ARM GAS  /tmp/cctjQXNb.s 			page 2


  30:/mnt/c/Users/31740/Desktop/newcore/arch/arm_m/include/asm/spinlock.h **** static void  __spin_unlock( arch_spinlock_t *lock ){
  30              		.loc 2 30 52 view -0
  31              		.cfi_startproc
  32              		@ args = 0, pretend = 0, frame = 0
  33              		@ frame_needed = 0, uses_anonymous_args = 0
  34              		@ link register save eliminated.
  31:/mnt/c/Users/31740/Desktop/newcore/arch/arm_m/include/asm/spinlock.h ****     lock->flag = 0;
  35              		.loc 2 31 5 view .LVU1
  36              		.loc 2 31 16 is_stmt 0 view .LVU2
  37 0000 0023     		movs	r3, #0
  38 0002 0360     		str	r3, [r0]
  32:/mnt/c/Users/31740/Desktop/newcore/arch/arm_m/include/asm/spinlock.h **** }
  39              		.loc 2 32 1 view .LVU3
  40 0004 7047     		bx	lr
  41              		.cfi_endproc
  42              	.LFE252:
  44              		.section	.text.spin_unlock,"ax",%progbits
  45              		.align	1
  46              		.syntax unified
  47              		.thumb
  48              		.thumb_func
  50              	spin_unlock:
  51              	.LVL1:
  52              	.LFB255:
  53              		.file 3 "/mnt/c/Users/31740/Desktop/newcore/include/linux/spinlock.h"
   1:/mnt/c/Users/31740/Desktop/newcore/include/linux/spinlock.h **** #ifndef __SPINLOCK_H__
   2:/mnt/c/Users/31740/Desktop/newcore/include/linux/spinlock.h **** #define __SPINLOCK_H__
   3:/mnt/c/Users/31740/Desktop/newcore/include/linux/spinlock.h **** 
   4:/mnt/c/Users/31740/Desktop/newcore/include/linux/spinlock.h **** #include <linux/types.h>
   5:/mnt/c/Users/31740/Desktop/newcore/include/linux/spinlock.h **** #include <linux/spinlock_types.h>
   6:/mnt/c/Users/31740/Desktop/newcore/include/linux/spinlock.h **** #include <linux/sched.h>
   7:/mnt/c/Users/31740/Desktop/newcore/include/linux/spinlock.h **** 
   8:/mnt/c/Users/31740/Desktop/newcore/include/linux/spinlock.h **** 
   9:/mnt/c/Users/31740/Desktop/newcore/include/linux/spinlock.h **** 
  10:/mnt/c/Users/31740/Desktop/newcore/include/linux/spinlock.h **** static void spin_lock_init(spinlock_t* lock){
  11:/mnt/c/Users/31740/Desktop/newcore/include/linux/spinlock.h ****     __spin_init(&lock->rlock.raw_lock);
  12:/mnt/c/Users/31740/Desktop/newcore/include/linux/spinlock.h **** }
  13:/mnt/c/Users/31740/Desktop/newcore/include/linux/spinlock.h **** 
  14:/mnt/c/Users/31740/Desktop/newcore/include/linux/spinlock.h **** static void spin_lock(spinlock_t* lock)
  15:/mnt/c/Users/31740/Desktop/newcore/include/linux/spinlock.h **** {  
  16:/mnt/c/Users/31740/Desktop/newcore/include/linux/spinlock.h ****     while (1)
  17:/mnt/c/Users/31740/Desktop/newcore/include/linux/spinlock.h ****     {
  18:/mnt/c/Users/31740/Desktop/newcore/include/linux/spinlock.h ****         if(__spin_lock(&lock->rlock.raw_lock) == 1){
  19:/mnt/c/Users/31740/Desktop/newcore/include/linux/spinlock.h ****             lock->owner = get_current_task();
  20:/mnt/c/Users/31740/Desktop/newcore/include/linux/spinlock.h ****             break;
  21:/mnt/c/Users/31740/Desktop/newcore/include/linux/spinlock.h ****         }
  22:/mnt/c/Users/31740/Desktop/newcore/include/linux/spinlock.h ****         else  if(lock->owner == get_current_task()){  //å¦‚æžœå·²ç»è¢«é”ä½ä½†æ˜¯é”æ˜¯è‡ªå·±çš„ï
  23:/mnt/c/Users/31740/Desktop/newcore/include/linux/spinlock.h ****             return;   
  24:/mnt/c/Users/31740/Desktop/newcore/include/linux/spinlock.h ****         }
  25:/mnt/c/Users/31740/Desktop/newcore/include/linux/spinlock.h ****         else{
  26:/mnt/c/Users/31740/Desktop/newcore/include/linux/spinlock.h ****             __delay(5); //ä¸»åŠ¨è®©å‡ºæ—¶é—´ç‰‡
  27:/mnt/c/Users/31740/Desktop/newcore/include/linux/spinlock.h ****         }
  28:/mnt/c/Users/31740/Desktop/newcore/include/linux/spinlock.h ****     }
  29:/mnt/c/Users/31740/Desktop/newcore/include/linux/spinlock.h **** }
  30:/mnt/c/Users/31740/Desktop/newcore/include/linux/spinlock.h **** 
  31:/mnt/c/Users/31740/Desktop/newcore/include/linux/spinlock.h **** static void spin_unlock(spinlock_t* lock)
  32:/mnt/c/Users/31740/Desktop/newcore/include/linux/spinlock.h **** {
ARM GAS  /tmp/cctjQXNb.s 			page 3


  54              		.loc 3 32 1 is_stmt 1 view -0
  55              		.cfi_startproc
  56              		@ args = 0, pretend = 0, frame = 0
  57              		@ frame_needed = 0, uses_anonymous_args = 0
  58              		.loc 3 32 1 is_stmt 0 view .LVU5
  59 0000 08B5     		push	{r3, lr}
  60              	.LCFI0:
  61              		.cfi_def_cfa_offset 8
  62              		.cfi_offset 3, -8
  63              		.cfi_offset 14, -4
  33:/mnt/c/Users/31740/Desktop/newcore/include/linux/spinlock.h ****     __spin_unlock(&lock->rlock.raw_lock);
  64              		.loc 3 33 5 is_stmt 1 view .LVU6
  65 0002 FFF7FEFF 		bl	__spin_unlock
  66              	.LVL2:
  34:/mnt/c/Users/31740/Desktop/newcore/include/linux/spinlock.h **** }
  67              		.loc 3 34 1 is_stmt 0 view .LVU7
  68 0006 08BD     		pop	{r3, pc}
  69              		.cfi_endproc
  70              	.LFE255:
  72              		.section	.text.bio_alloc_bioset,"ax",%progbits
  73              		.align	1
  74              		.global	bio_alloc_bioset
  75              		.syntax unified
  76              		.thumb
  77              		.thumb_func
  79              	bio_alloc_bioset:
  80              	.LVL3:
  81              	.LFB1034:
   1:/mnt/c/Users/31740/Desktop/newcore/block/bio.c **** #include <linux/kernel.h>
   2:/mnt/c/Users/31740/Desktop/newcore/block/bio.c **** #include <linux/string.h>
   3:/mnt/c/Users/31740/Desktop/newcore/block/bio.c **** #include <linux/blkdev.h>
   4:/mnt/c/Users/31740/Desktop/newcore/block/bio.c **** #include <linux/bio.h>  
   5:/mnt/c/Users/31740/Desktop/newcore/block/bio.c **** #include <linux/slab.h>
   6:/mnt/c/Users/31740/Desktop/newcore/block/bio.c **** #include <linux/errno.h>
   7:/mnt/c/Users/31740/Desktop/newcore/block/bio.c **** #include <linux/spinlock.h>
   8:/mnt/c/Users/31740/Desktop/newcore/block/bio.c **** #include <linux/kthread.h>
   9:/mnt/c/Users/31740/Desktop/newcore/block/bio.c **** 
  10:/mnt/c/Users/31740/Desktop/newcore/block/bio.c **** #define BIO_INLINE_VECS 4
  11:/mnt/c/Users/31740/Desktop/newcore/block/bio.c **** 
  12:/mnt/c/Users/31740/Desktop/newcore/block/bio.c **** struct bio_set fs_bio_set;
  13:/mnt/c/Users/31740/Desktop/newcore/block/bio.c **** 
  14:/mnt/c/Users/31740/Desktop/newcore/block/bio.c **** struct bio *bio_alloc_bioset(struct block_device *bdev, unsigned short nr_iovecs,
  15:/mnt/c/Users/31740/Desktop/newcore/block/bio.c ****     blk_opf_t opf, gfp_t gfp_mask,
  16:/mnt/c/Users/31740/Desktop/newcore/block/bio.c ****     struct bio_set *bs)
  17:/mnt/c/Users/31740/Desktop/newcore/block/bio.c **** {
  82              		.loc 1 17 1 is_stmt 1 view -0
  83              		.cfi_startproc
  84              		@ args = 4, pretend = 0, frame = 0
  85              		@ frame_needed = 0, uses_anonymous_args = 0
  86              		.loc 1 17 1 is_stmt 0 view .LVU9
  87 0000 2DE9F047 		push	{r4, r5, r6, r7, r8, r9, r10, lr}
  88              	.LCFI1:
  89              		.cfi_def_cfa_offset 32
  90              		.cfi_offset 4, -32
  91              		.cfi_offset 5, -28
  92              		.cfi_offset 6, -24
  93              		.cfi_offset 7, -20
ARM GAS  /tmp/cctjQXNb.s 			page 4


  94              		.cfi_offset 8, -16
  95              		.cfi_offset 9, -12
  96              		.cfi_offset 10, -8
  97              		.cfi_offset 14, -4
  98 0004 8046     		mov	r8, r0
  99 0006 0D46     		mov	r5, r1
 100 0008 1746     		mov	r7, r2
 101 000a 9946     		mov	r9, r3
  18:/mnt/c/Users/31740/Desktop/newcore/block/bio.c ****     struct bio *bio;
 102              		.loc 1 18 5 is_stmt 1 view .LVU10
  19:/mnt/c/Users/31740/Desktop/newcore/block/bio.c ****     size_t bio_size;
 103              		.loc 1 19 5 view .LVU11
  20:/mnt/c/Users/31740/Desktop/newcore/block/bio.c ****     bool use_inline_vecs = false;
 104              		.loc 1 20 5 view .LVU12
 105              	.LVL4:
  21:/mnt/c/Users/31740/Desktop/newcore/block/bio.c ****     if (nr_iovecs <= BIO_INLINE_VECS)
 106              		.loc 1 21 5 view .LVU13
 107              		.loc 1 21 8 is_stmt 0 view .LVU14
 108 000c 0429     		cmp	r1, #4
 109 000e 2CD8     		bhi	.L10
  22:/mnt/c/Users/31740/Desktop/newcore/block/bio.c ****     {
  23:/mnt/c/Users/31740/Desktop/newcore/block/bio.c ****         use_inline_vecs = true;
 110              		.loc 1 23 9 is_stmt 1 view .LVU15
 111              	.LVL5:
  24:/mnt/c/Users/31740/Desktop/newcore/block/bio.c ****         bio_size = sizeof(struct bio) + sizeof(struct bio_vec) * nr_iovecs;
 112              		.loc 1 24 9 view .LVU16
 113              		.loc 1 24 64 is_stmt 0 view .LVU17
 114 0010 01EB4106 		add	r6, r1, r1, lsl #1
 115 0014 B600     		lsls	r6, r6, #2
 116              		.loc 1 24 18 view .LVU18
 117 0016 4436     		adds	r6, r6, #68
 118              	.LVL6:
  23:/mnt/c/Users/31740/Desktop/newcore/block/bio.c ****         bio_size = sizeof(struct bio) + sizeof(struct bio_vec) * nr_iovecs;
 119              		.loc 1 23 25 view .LVU19
 120 0018 4FF0010A 		mov	r10, #1
 121              	.LVL7:
 122              	.L5:
  25:/mnt/c/Users/31740/Desktop/newcore/block/bio.c ****     } 
  26:/mnt/c/Users/31740/Desktop/newcore/block/bio.c ****     else bio_size = sizeof(struct bio);  
  27:/mnt/c/Users/31740/Desktop/newcore/block/bio.c ****     bio = kmalloc(bio_size, gfp_mask);
 123              		.loc 1 27 5 is_stmt 1 view .LVU20
 124              	.LBB80:
 125              	.LBI80:
 126              		.file 4 "/mnt/c/Users/31740/Desktop/newcore/include/linux/slab.h"
   1:/mnt/c/Users/31740/Desktop/newcore/include/linux/slab.h **** /* SPDX-License-Identifier: GPL-2.0 */
   2:/mnt/c/Users/31740/Desktop/newcore/include/linux/slab.h **** /*
   3:/mnt/c/Users/31740/Desktop/newcore/include/linux/slab.h ****  * Written by Mark Hemment, 1996 (markhe@nextd.demon.co.uk).
   4:/mnt/c/Users/31740/Desktop/newcore/include/linux/slab.h ****  *
   5:/mnt/c/Users/31740/Desktop/newcore/include/linux/slab.h ****  * (C) SGI 2006, Christoph Lameter
   6:/mnt/c/Users/31740/Desktop/newcore/include/linux/slab.h ****  * 	Cleaned up and restructured to ease the addition of alternative
   7:/mnt/c/Users/31740/Desktop/newcore/include/linux/slab.h ****  * 	implementations of SLAB allocators.
   8:/mnt/c/Users/31740/Desktop/newcore/include/linux/slab.h ****  * (C) Linux Foundation 2008-2013
   9:/mnt/c/Users/31740/Desktop/newcore/include/linux/slab.h ****  *      Unified interface for all slab allocators
  10:/mnt/c/Users/31740/Desktop/newcore/include/linux/slab.h ****  */
  11:/mnt/c/Users/31740/Desktop/newcore/include/linux/slab.h **** 
  12:/mnt/c/Users/31740/Desktop/newcore/include/linux/slab.h **** #ifndef _LINUX_SLAB_H
  13:/mnt/c/Users/31740/Desktop/newcore/include/linux/slab.h **** #define	_LINUX_SLAB_H
ARM GAS  /tmp/cctjQXNb.s 			page 5


  14:/mnt/c/Users/31740/Desktop/newcore/include/linux/slab.h **** 
  15:/mnt/c/Users/31740/Desktop/newcore/include/linux/slab.h **** #include <linux/cache.h>
  16:/mnt/c/Users/31740/Desktop/newcore/include/linux/slab.h **** #include <linux/overflow.h>
  17:/mnt/c/Users/31740/Desktop/newcore/include/linux/slab.h **** #include <linux/types.h>
  18:/mnt/c/Users/31740/Desktop/newcore/include/linux/slab.h **** #include <linux/raid/pq.h>
  19:/mnt/c/Users/31740/Desktop/newcore/include/linux/slab.h **** #include <linux/gfp_types.h>
  20:/mnt/c/Users/31740/Desktop/newcore/include/linux/slab.h **** #include <linux/numa.h>
  21:/mnt/c/Users/31740/Desktop/newcore/include/linux/slab.h **** #include <linux/reciprocal_div.h>
  22:/mnt/c/Users/31740/Desktop/newcore/include/linux/slab.h **** #include <linux/spinlock.h>
  23:/mnt/c/Users/31740/Desktop/newcore/include/linux/slab.h **** 
  24:/mnt/c/Users/31740/Desktop/newcore/include/linux/slab.h **** enum _slab_flag_bits {
  25:/mnt/c/Users/31740/Desktop/newcore/include/linux/slab.h **** 	_SLAB_CONSISTENCY_CHECKS,
  26:/mnt/c/Users/31740/Desktop/newcore/include/linux/slab.h **** 	_SLAB_RED_ZONE,
  27:/mnt/c/Users/31740/Desktop/newcore/include/linux/slab.h **** 	_SLAB_POISON,
  28:/mnt/c/Users/31740/Desktop/newcore/include/linux/slab.h **** 	_SLAB_KMALLOC,
  29:/mnt/c/Users/31740/Desktop/newcore/include/linux/slab.h **** 	_SLAB_HWCACHE_ALIGN,
  30:/mnt/c/Users/31740/Desktop/newcore/include/linux/slab.h **** 	_SLAB_CACHE_DMA,
  31:/mnt/c/Users/31740/Desktop/newcore/include/linux/slab.h **** 	_SLAB_CACHE_DMA32,
  32:/mnt/c/Users/31740/Desktop/newcore/include/linux/slab.h **** 	_SLAB_STORE_USER,
  33:/mnt/c/Users/31740/Desktop/newcore/include/linux/slab.h **** 	_SLAB_PANIC,
  34:/mnt/c/Users/31740/Desktop/newcore/include/linux/slab.h **** 	_SLAB_TYPESAFE_BY_RCU,
  35:/mnt/c/Users/31740/Desktop/newcore/include/linux/slab.h **** 	_SLAB_TRACE,
  36:/mnt/c/Users/31740/Desktop/newcore/include/linux/slab.h **** #ifdef CONFIG_DEBUG_OBJECTS
  37:/mnt/c/Users/31740/Desktop/newcore/include/linux/slab.h **** 	_SLAB_DEBUG_OBJECTS,
  38:/mnt/c/Users/31740/Desktop/newcore/include/linux/slab.h **** #endif
  39:/mnt/c/Users/31740/Desktop/newcore/include/linux/slab.h **** 	_SLAB_NOLEAKTRACE,
  40:/mnt/c/Users/31740/Desktop/newcore/include/linux/slab.h **** 	_SLAB_NO_MERGE,
  41:/mnt/c/Users/31740/Desktop/newcore/include/linux/slab.h **** #ifdef CONFIG_FAILSLAB
  42:/mnt/c/Users/31740/Desktop/newcore/include/linux/slab.h **** 	_SLAB_FAILSLAB,
  43:/mnt/c/Users/31740/Desktop/newcore/include/linux/slab.h **** #endif
  44:/mnt/c/Users/31740/Desktop/newcore/include/linux/slab.h **** #ifdef CONFIG_MEMCG
  45:/mnt/c/Users/31740/Desktop/newcore/include/linux/slab.h **** 	_SLAB_ACCOUNT,
  46:/mnt/c/Users/31740/Desktop/newcore/include/linux/slab.h **** #endif
  47:/mnt/c/Users/31740/Desktop/newcore/include/linux/slab.h **** #ifdef CONFIG_KASAN_GENERIC
  48:/mnt/c/Users/31740/Desktop/newcore/include/linux/slab.h **** 	_SLAB_KASAN,
  49:/mnt/c/Users/31740/Desktop/newcore/include/linux/slab.h **** #endif
  50:/mnt/c/Users/31740/Desktop/newcore/include/linux/slab.h **** 	_SLAB_NO_USER_FLAGS,
  51:/mnt/c/Users/31740/Desktop/newcore/include/linux/slab.h **** #ifdef CONFIG_KFENCE
  52:/mnt/c/Users/31740/Desktop/newcore/include/linux/slab.h **** 	_SLAB_SKIP_KFENCE,
  53:/mnt/c/Users/31740/Desktop/newcore/include/linux/slab.h **** #endif
  54:/mnt/c/Users/31740/Desktop/newcore/include/linux/slab.h **** #ifndef CONFIG_SLUB_TINY
  55:/mnt/c/Users/31740/Desktop/newcore/include/linux/slab.h **** 	_SLAB_RECLAIM_ACCOUNT,
  56:/mnt/c/Users/31740/Desktop/newcore/include/linux/slab.h **** #endif
  57:/mnt/c/Users/31740/Desktop/newcore/include/linux/slab.h **** 	_SLAB_OBJECT_POISON,
  58:/mnt/c/Users/31740/Desktop/newcore/include/linux/slab.h **** 	_SLAB_CMPXCHG_DOUBLE,
  59:/mnt/c/Users/31740/Desktop/newcore/include/linux/slab.h **** #ifdef CONFIG_SLAB_OBJ_EXT
  60:/mnt/c/Users/31740/Desktop/newcore/include/linux/slab.h **** 	_SLAB_NO_OBJ_EXT,
  61:/mnt/c/Users/31740/Desktop/newcore/include/linux/slab.h **** #endif
  62:/mnt/c/Users/31740/Desktop/newcore/include/linux/slab.h **** 	_SLAB_FLAGS_LAST_BIT
  63:/mnt/c/Users/31740/Desktop/newcore/include/linux/slab.h **** };
  64:/mnt/c/Users/31740/Desktop/newcore/include/linux/slab.h **** 
  65:/mnt/c/Users/31740/Desktop/newcore/include/linux/slab.h **** 
  66:/mnt/c/Users/31740/Desktop/newcore/include/linux/slab.h **** 
  67:/mnt/c/Users/31740/Desktop/newcore/include/linux/slab.h **** #define __SLAB_FLAG_BIT(nr)	((slab_flags_t __force)(1U << (nr)))
  68:/mnt/c/Users/31740/Desktop/newcore/include/linux/slab.h **** #define __SLAB_FLAG_UNUSED	((slab_flags_t __force)(0U))
  69:/mnt/c/Users/31740/Desktop/newcore/include/linux/slab.h **** 
  70:/mnt/c/Users/31740/Desktop/newcore/include/linux/slab.h **** /*
ARM GAS  /tmp/cctjQXNb.s 			page 6


  71:/mnt/c/Users/31740/Desktop/newcore/include/linux/slab.h ****  * Flags to pass to kmem_cache_create().
  72:/mnt/c/Users/31740/Desktop/newcore/include/linux/slab.h ****  * The ones marked DEBUG need CONFIG_SLUB_DEBUG enabled, otherwise are no-op
  73:/mnt/c/Users/31740/Desktop/newcore/include/linux/slab.h ****  */
  74:/mnt/c/Users/31740/Desktop/newcore/include/linux/slab.h **** /* DEBUG: Perform (expensive) checks on alloc/free */
  75:/mnt/c/Users/31740/Desktop/newcore/include/linux/slab.h **** #define SLAB_CONSISTENCY_CHECKS	__SLAB_FLAG_BIT(_SLAB_CONSISTENCY_CHECKS)
  76:/mnt/c/Users/31740/Desktop/newcore/include/linux/slab.h **** /* DEBUG: Red zone objs in a cache */
  77:/mnt/c/Users/31740/Desktop/newcore/include/linux/slab.h **** #define SLAB_RED_ZONE		__SLAB_FLAG_BIT(_SLAB_RED_ZONE)
  78:/mnt/c/Users/31740/Desktop/newcore/include/linux/slab.h **** /* DEBUG: Poison objects */
  79:/mnt/c/Users/31740/Desktop/newcore/include/linux/slab.h **** #define SLAB_POISON		__SLAB_FLAG_BIT(_SLAB_POISON)
  80:/mnt/c/Users/31740/Desktop/newcore/include/linux/slab.h **** /* Indicate a kmalloc slab */
  81:/mnt/c/Users/31740/Desktop/newcore/include/linux/slab.h **** #define SLAB_KMALLOC		__SLAB_FLAG_BIT(_SLAB_KMALLOC)
  82:/mnt/c/Users/31740/Desktop/newcore/include/linux/slab.h **** /**
  83:/mnt/c/Users/31740/Desktop/newcore/include/linux/slab.h ****  * define SLAB_HWCACHE_ALIGN - Align objects on cache line boundaries.
  84:/mnt/c/Users/31740/Desktop/newcore/include/linux/slab.h ****  *
  85:/mnt/c/Users/31740/Desktop/newcore/include/linux/slab.h ****  * Sufficiently large objects are aligned on cache line boundary. For object
  86:/mnt/c/Users/31740/Desktop/newcore/include/linux/slab.h ****  * size smaller than a half of cache line size, the alignment is on the half of
  87:/mnt/c/Users/31740/Desktop/newcore/include/linux/slab.h ****  * cache line size. In general, if object size is smaller than 1/2^n of cache
  88:/mnt/c/Users/31740/Desktop/newcore/include/linux/slab.h ****  * line size, the alignment is adjusted to 1/2^n.
  89:/mnt/c/Users/31740/Desktop/newcore/include/linux/slab.h ****  *
  90:/mnt/c/Users/31740/Desktop/newcore/include/linux/slab.h ****  * If explicit alignment is also requested by the respective
  91:/mnt/c/Users/31740/Desktop/newcore/include/linux/slab.h ****  * &struct kmem_cache_args field, the greater of both is alignments is applied.
  92:/mnt/c/Users/31740/Desktop/newcore/include/linux/slab.h ****  */
  93:/mnt/c/Users/31740/Desktop/newcore/include/linux/slab.h **** #define SLAB_HWCACHE_ALIGN	__SLAB_FLAG_BIT(_SLAB_HWCACHE_ALIGN)
  94:/mnt/c/Users/31740/Desktop/newcore/include/linux/slab.h **** /* Use GFP_DMA memory */
  95:/mnt/c/Users/31740/Desktop/newcore/include/linux/slab.h **** #define SLAB_CACHE_DMA		__SLAB_FLAG_BIT(_SLAB_CACHE_DMA)
  96:/mnt/c/Users/31740/Desktop/newcore/include/linux/slab.h **** /* Use GFP_DMA32 memory */
  97:/mnt/c/Users/31740/Desktop/newcore/include/linux/slab.h **** #define SLAB_CACHE_DMA32	__SLAB_FLAG_BIT(_SLAB_CACHE_DMA32)
  98:/mnt/c/Users/31740/Desktop/newcore/include/linux/slab.h **** /* DEBUG: Store the last owner for bug hunting */
  99:/mnt/c/Users/31740/Desktop/newcore/include/linux/slab.h **** #define SLAB_STORE_USER		__SLAB_FLAG_BIT(_SLAB_STORE_USER)
 100:/mnt/c/Users/31740/Desktop/newcore/include/linux/slab.h **** /* Panic if kmem_cache_create() fails */
 101:/mnt/c/Users/31740/Desktop/newcore/include/linux/slab.h **** #define SLAB_PANIC		__SLAB_FLAG_BIT(_SLAB_PANIC)
 102:/mnt/c/Users/31740/Desktop/newcore/include/linux/slab.h **** /**
 103:/mnt/c/Users/31740/Desktop/newcore/include/linux/slab.h ****  * define SLAB_TYPESAFE_BY_RCU - **WARNING** READ THIS!
 104:/mnt/c/Users/31740/Desktop/newcore/include/linux/slab.h ****  *
 105:/mnt/c/Users/31740/Desktop/newcore/include/linux/slab.h ****  * This delays freeing the SLAB page by a grace period, it does _NOT_
 106:/mnt/c/Users/31740/Desktop/newcore/include/linux/slab.h ****  * delay object freeing. This means that if you do kmem_cache_free()
 107:/mnt/c/Users/31740/Desktop/newcore/include/linux/slab.h ****  * that memory location is free to be reused at any time. Thus it may
 108:/mnt/c/Users/31740/Desktop/newcore/include/linux/slab.h ****  * be possible to see another object there in the same RCU grace period.
 109:/mnt/c/Users/31740/Desktop/newcore/include/linux/slab.h ****  *
 110:/mnt/c/Users/31740/Desktop/newcore/include/linux/slab.h ****  * This feature only ensures the memory location backing the object
 111:/mnt/c/Users/31740/Desktop/newcore/include/linux/slab.h ****  * stays valid, the trick to using this is relying on an independent
 112:/mnt/c/Users/31740/Desktop/newcore/include/linux/slab.h ****  * object validation pass. Something like:
 113:/mnt/c/Users/31740/Desktop/newcore/include/linux/slab.h ****  *
 114:/mnt/c/Users/31740/Desktop/newcore/include/linux/slab.h ****  * ::
 115:/mnt/c/Users/31740/Desktop/newcore/include/linux/slab.h ****  *
 116:/mnt/c/Users/31740/Desktop/newcore/include/linux/slab.h ****  *  begin:
 117:/mnt/c/Users/31740/Desktop/newcore/include/linux/slab.h ****  *   rcu_read_lock();
 118:/mnt/c/Users/31740/Desktop/newcore/include/linux/slab.h ****  *   obj = lockless_lookup(key);
 119:/mnt/c/Users/31740/Desktop/newcore/include/linux/slab.h ****  *   if (obj) {
 120:/mnt/c/Users/31740/Desktop/newcore/include/linux/slab.h ****  *     if (!try_get_ref(obj)) // might fail for free objects
 121:/mnt/c/Users/31740/Desktop/newcore/include/linux/slab.h ****  *       rcu_read_unlock();
 122:/mnt/c/Users/31740/Desktop/newcore/include/linux/slab.h ****  *       goto begin;
 123:/mnt/c/Users/31740/Desktop/newcore/include/linux/slab.h ****  *
 124:/mnt/c/Users/31740/Desktop/newcore/include/linux/slab.h ****  *     if (obj->key != key) { // not the object we expected
 125:/mnt/c/Users/31740/Desktop/newcore/include/linux/slab.h ****  *       put_ref(obj);
 126:/mnt/c/Users/31740/Desktop/newcore/include/linux/slab.h ****  *       rcu_read_unlock();
 127:/mnt/c/Users/31740/Desktop/newcore/include/linux/slab.h ****  *       goto begin;
ARM GAS  /tmp/cctjQXNb.s 			page 7


 128:/mnt/c/Users/31740/Desktop/newcore/include/linux/slab.h ****  *     }
 129:/mnt/c/Users/31740/Desktop/newcore/include/linux/slab.h ****  *   }
 130:/mnt/c/Users/31740/Desktop/newcore/include/linux/slab.h ****  *  rcu_read_unlock();
 131:/mnt/c/Users/31740/Desktop/newcore/include/linux/slab.h ****  *
 132:/mnt/c/Users/31740/Desktop/newcore/include/linux/slab.h ****  * This is useful if we need to approach a kernel structure obliquely,
 133:/mnt/c/Users/31740/Desktop/newcore/include/linux/slab.h ****  * from its address obtained without the usual locking. We can lock
 134:/mnt/c/Users/31740/Desktop/newcore/include/linux/slab.h ****  * the structure to stabilize it and check it's still at the given address,
 135:/mnt/c/Users/31740/Desktop/newcore/include/linux/slab.h ****  * only if we can be sure that the memory has not been meanwhile reused
 136:/mnt/c/Users/31740/Desktop/newcore/include/linux/slab.h ****  * for some other kind of object (which our subsystem's lock might corrupt).
 137:/mnt/c/Users/31740/Desktop/newcore/include/linux/slab.h ****  *
 138:/mnt/c/Users/31740/Desktop/newcore/include/linux/slab.h ****  * rcu_read_lock before reading the address, then rcu_read_unlock after
 139:/mnt/c/Users/31740/Desktop/newcore/include/linux/slab.h ****  * taking the spinlock within the structure expected at that address.
 140:/mnt/c/Users/31740/Desktop/newcore/include/linux/slab.h ****  *
 141:/mnt/c/Users/31740/Desktop/newcore/include/linux/slab.h ****  * Note that it is not possible to acquire a lock within a structure
 142:/mnt/c/Users/31740/Desktop/newcore/include/linux/slab.h ****  * allocated with SLAB_TYPESAFE_BY_RCU without first acquiring a reference
 143:/mnt/c/Users/31740/Desktop/newcore/include/linux/slab.h ****  * as described above.  The reason is that SLAB_TYPESAFE_BY_RCU pages
 144:/mnt/c/Users/31740/Desktop/newcore/include/linux/slab.h ****  * are not zeroed before being given to the slab, which means that any
 145:/mnt/c/Users/31740/Desktop/newcore/include/linux/slab.h ****  * locks must be initialized after each and every kmem_struct_alloc().
 146:/mnt/c/Users/31740/Desktop/newcore/include/linux/slab.h ****  * Alternatively, make the ctor passed to kmem_cache_create() initialize
 147:/mnt/c/Users/31740/Desktop/newcore/include/linux/slab.h ****  * the locks at page-allocation time, as is done in __i915_request_ctor(),
 148:/mnt/c/Users/31740/Desktop/newcore/include/linux/slab.h ****  * sighand_ctor(), and anon_vma_ctor().  Such a ctor permits readers
 149:/mnt/c/Users/31740/Desktop/newcore/include/linux/slab.h ****  * to safely acquire those ctor-initialized locks under rcu_read_lock()
 150:/mnt/c/Users/31740/Desktop/newcore/include/linux/slab.h ****  * protection.
 151:/mnt/c/Users/31740/Desktop/newcore/include/linux/slab.h ****  *
 152:/mnt/c/Users/31740/Desktop/newcore/include/linux/slab.h ****  * Note that SLAB_TYPESAFE_BY_RCU was originally named SLAB_DESTROY_BY_RCU.
 153:/mnt/c/Users/31740/Desktop/newcore/include/linux/slab.h ****  */
 154:/mnt/c/Users/31740/Desktop/newcore/include/linux/slab.h **** #define SLAB_TYPESAFE_BY_RCU	__SLAB_FLAG_BIT(_SLAB_TYPESAFE_BY_RCU)
 155:/mnt/c/Users/31740/Desktop/newcore/include/linux/slab.h **** /* Trace allocations and frees */
 156:/mnt/c/Users/31740/Desktop/newcore/include/linux/slab.h **** #define SLAB_TRACE		__SLAB_FLAG_BIT(_SLAB_TRACE)
 157:/mnt/c/Users/31740/Desktop/newcore/include/linux/slab.h **** 
 158:/mnt/c/Users/31740/Desktop/newcore/include/linux/slab.h **** /* Flag to prevent checks on free */
 159:/mnt/c/Users/31740/Desktop/newcore/include/linux/slab.h **** #ifdef CONFIG_DEBUG_OBJECTS
 160:/mnt/c/Users/31740/Desktop/newcore/include/linux/slab.h **** # define SLAB_DEBUG_OBJECTS	__SLAB_FLAG_BIT(_SLAB_DEBUG_OBJECTS)
 161:/mnt/c/Users/31740/Desktop/newcore/include/linux/slab.h **** #else
 162:/mnt/c/Users/31740/Desktop/newcore/include/linux/slab.h **** # define SLAB_DEBUG_OBJECTS	__SLAB_FLAG_UNUSED
 163:/mnt/c/Users/31740/Desktop/newcore/include/linux/slab.h **** #endif
 164:/mnt/c/Users/31740/Desktop/newcore/include/linux/slab.h **** 
 165:/mnt/c/Users/31740/Desktop/newcore/include/linux/slab.h **** /* Avoid kmemleak tracing */
 166:/mnt/c/Users/31740/Desktop/newcore/include/linux/slab.h **** #define SLAB_NOLEAKTRACE	__SLAB_FLAG_BIT(_SLAB_NOLEAKTRACE)
 167:/mnt/c/Users/31740/Desktop/newcore/include/linux/slab.h **** 
 168:/mnt/c/Users/31740/Desktop/newcore/include/linux/slab.h **** /*
 169:/mnt/c/Users/31740/Desktop/newcore/include/linux/slab.h ****  * Prevent merging with compatible kmem caches. This flag should be used
 170:/mnt/c/Users/31740/Desktop/newcore/include/linux/slab.h ****  * cautiously. Valid use cases:
 171:/mnt/c/Users/31740/Desktop/newcore/include/linux/slab.h ****  *
 172:/mnt/c/Users/31740/Desktop/newcore/include/linux/slab.h ****  * - caches created for self-tests (e.g. kunit)
 173:/mnt/c/Users/31740/Desktop/newcore/include/linux/slab.h ****  * - general caches created and used by a subsystem, only when a
 174:/mnt/c/Users/31740/Desktop/newcore/include/linux/slab.h ****  *   (subsystem-specific) debug option is enabled
 175:/mnt/c/Users/31740/Desktop/newcore/include/linux/slab.h ****  * - performance critical caches, should be very rare and consulted with slab
 176:/mnt/c/Users/31740/Desktop/newcore/include/linux/slab.h ****  *   maintainers, and not used together with CONFIG_SLUB_TINY
 177:/mnt/c/Users/31740/Desktop/newcore/include/linux/slab.h ****  */
 178:/mnt/c/Users/31740/Desktop/newcore/include/linux/slab.h **** #define SLAB_NO_MERGE		__SLAB_FLAG_BIT(_SLAB_NO_MERGE)
 179:/mnt/c/Users/31740/Desktop/newcore/include/linux/slab.h **** 
 180:/mnt/c/Users/31740/Desktop/newcore/include/linux/slab.h **** /* Fault injection mark */
 181:/mnt/c/Users/31740/Desktop/newcore/include/linux/slab.h **** #ifdef CONFIG_FAILSLAB
 182:/mnt/c/Users/31740/Desktop/newcore/include/linux/slab.h **** # define SLAB_FAILSLAB		__SLAB_FLAG_BIT(_SLAB_FAILSLAB)
 183:/mnt/c/Users/31740/Desktop/newcore/include/linux/slab.h **** #else
 184:/mnt/c/Users/31740/Desktop/newcore/include/linux/slab.h **** # define SLAB_FAILSLAB		__SLAB_FLAG_UNUSED
ARM GAS  /tmp/cctjQXNb.s 			page 8


 185:/mnt/c/Users/31740/Desktop/newcore/include/linux/slab.h **** #endif
 186:/mnt/c/Users/31740/Desktop/newcore/include/linux/slab.h **** /**
 187:/mnt/c/Users/31740/Desktop/newcore/include/linux/slab.h ****  * define SLAB_ACCOUNT - Account allocations to memcg.
 188:/mnt/c/Users/31740/Desktop/newcore/include/linux/slab.h ****  *
 189:/mnt/c/Users/31740/Desktop/newcore/include/linux/slab.h ****  * All object allocations from this cache will be memcg accounted, regardless of
 190:/mnt/c/Users/31740/Desktop/newcore/include/linux/slab.h ****  * __GFP_ACCOUNT being or not being passed to individual allocations.
 191:/mnt/c/Users/31740/Desktop/newcore/include/linux/slab.h ****  */
 192:/mnt/c/Users/31740/Desktop/newcore/include/linux/slab.h **** #ifdef CONFIG_MEMCG
 193:/mnt/c/Users/31740/Desktop/newcore/include/linux/slab.h **** # define SLAB_ACCOUNT		__SLAB_FLAG_BIT(_SLAB_ACCOUNT)
 194:/mnt/c/Users/31740/Desktop/newcore/include/linux/slab.h **** #else
 195:/mnt/c/Users/31740/Desktop/newcore/include/linux/slab.h **** # define SLAB_ACCOUNT		__SLAB_FLAG_UNUSED
 196:/mnt/c/Users/31740/Desktop/newcore/include/linux/slab.h **** #endif
 197:/mnt/c/Users/31740/Desktop/newcore/include/linux/slab.h **** 
 198:/mnt/c/Users/31740/Desktop/newcore/include/linux/slab.h **** #ifdef CONFIG_KASAN_GENERIC
 199:/mnt/c/Users/31740/Desktop/newcore/include/linux/slab.h **** #define SLAB_KASAN		__SLAB_FLAG_BIT(_SLAB_KASAN)
 200:/mnt/c/Users/31740/Desktop/newcore/include/linux/slab.h **** #else
 201:/mnt/c/Users/31740/Desktop/newcore/include/linux/slab.h **** #define SLAB_KASAN		__SLAB_FLAG_UNUSED
 202:/mnt/c/Users/31740/Desktop/newcore/include/linux/slab.h **** #endif
 203:/mnt/c/Users/31740/Desktop/newcore/include/linux/slab.h **** 
 204:/mnt/c/Users/31740/Desktop/newcore/include/linux/slab.h **** /*
 205:/mnt/c/Users/31740/Desktop/newcore/include/linux/slab.h ****  * Ignore user specified debugging flags.
 206:/mnt/c/Users/31740/Desktop/newcore/include/linux/slab.h ****  * Intended for caches created for self-tests so they have only flags
 207:/mnt/c/Users/31740/Desktop/newcore/include/linux/slab.h ****  * specified in the code and other flags are ignored.
 208:/mnt/c/Users/31740/Desktop/newcore/include/linux/slab.h ****  */
 209:/mnt/c/Users/31740/Desktop/newcore/include/linux/slab.h **** #define SLAB_NO_USER_FLAGS	__SLAB_FLAG_BIT(_SLAB_NO_USER_FLAGS)
 210:/mnt/c/Users/31740/Desktop/newcore/include/linux/slab.h **** 
 211:/mnt/c/Users/31740/Desktop/newcore/include/linux/slab.h **** #ifdef CONFIG_KFENCE
 212:/mnt/c/Users/31740/Desktop/newcore/include/linux/slab.h **** #define SLAB_SKIP_KFENCE	__SLAB_FLAG_BIT(_SLAB_SKIP_KFENCE)
 213:/mnt/c/Users/31740/Desktop/newcore/include/linux/slab.h **** #else
 214:/mnt/c/Users/31740/Desktop/newcore/include/linux/slab.h **** #define SLAB_SKIP_KFENCE	__SLAB_FLAG_UNUSED
 215:/mnt/c/Users/31740/Desktop/newcore/include/linux/slab.h **** #endif
 216:/mnt/c/Users/31740/Desktop/newcore/include/linux/slab.h **** 
 217:/mnt/c/Users/31740/Desktop/newcore/include/linux/slab.h **** /* The following flags affect the page allocator grouping pages by mobility */
 218:/mnt/c/Users/31740/Desktop/newcore/include/linux/slab.h **** /**
 219:/mnt/c/Users/31740/Desktop/newcore/include/linux/slab.h ****  * define SLAB_RECLAIM_ACCOUNT - Objects are reclaimable.
 220:/mnt/c/Users/31740/Desktop/newcore/include/linux/slab.h ****  *
 221:/mnt/c/Users/31740/Desktop/newcore/include/linux/slab.h ****  * Use this flag for caches that have an associated shrinker. As a result, slab
 222:/mnt/c/Users/31740/Desktop/newcore/include/linux/slab.h ****  * pages are allocated with __GFP_RECLAIMABLE, which affects grouping pages by
 223:/mnt/c/Users/31740/Desktop/newcore/include/linux/slab.h ****  * mobility, and are accounted in SReclaimable counter in /proc/meminfo
 224:/mnt/c/Users/31740/Desktop/newcore/include/linux/slab.h ****  */
 225:/mnt/c/Users/31740/Desktop/newcore/include/linux/slab.h **** #ifndef CONFIG_SLUB_TINY
 226:/mnt/c/Users/31740/Desktop/newcore/include/linux/slab.h **** #define SLAB_RECLAIM_ACCOUNT	__SLAB_FLAG_BIT(_SLAB_RECLAIM_ACCOUNT)
 227:/mnt/c/Users/31740/Desktop/newcore/include/linux/slab.h **** #else
 228:/mnt/c/Users/31740/Desktop/newcore/include/linux/slab.h **** #define SLAB_RECLAIM_ACCOUNT	__SLAB_FLAG_UNUSED
 229:/mnt/c/Users/31740/Desktop/newcore/include/linux/slab.h **** #endif
 230:/mnt/c/Users/31740/Desktop/newcore/include/linux/slab.h **** #define SLAB_TEMPORARY		SLAB_RECLAIM_ACCOUNT	/* Objects are short-lived */
 231:/mnt/c/Users/31740/Desktop/newcore/include/linux/slab.h **** 
 232:/mnt/c/Users/31740/Desktop/newcore/include/linux/slab.h **** /* Slab created using create_boot_cache */
 233:/mnt/c/Users/31740/Desktop/newcore/include/linux/slab.h **** #ifdef CONFIG_SLAB_OBJ_EXT
 234:/mnt/c/Users/31740/Desktop/newcore/include/linux/slab.h **** #define SLAB_NO_OBJ_EXT		__SLAB_FLAG_BIT(_SLAB_NO_OBJ_EXT)
 235:/mnt/c/Users/31740/Desktop/newcore/include/linux/slab.h **** #else
 236:/mnt/c/Users/31740/Desktop/newcore/include/linux/slab.h **** #define SLAB_NO_OBJ_EXT		__SLAB_FLAG_UNUSED
 237:/mnt/c/Users/31740/Desktop/newcore/include/linux/slab.h **** #endif
 238:/mnt/c/Users/31740/Desktop/newcore/include/linux/slab.h **** 
 239:/mnt/c/Users/31740/Desktop/newcore/include/linux/slab.h **** /*
 240:/mnt/c/Users/31740/Desktop/newcore/include/linux/slab.h ****  * freeptr_t represents a SLUB freelist pointer, which might be encoded
 241:/mnt/c/Users/31740/Desktop/newcore/include/linux/slab.h ****  * and not dereferenceable if CONFIG_SLAB_FREELIST_HARDENED is enabled.
ARM GAS  /tmp/cctjQXNb.s 			page 9


 242:/mnt/c/Users/31740/Desktop/newcore/include/linux/slab.h ****  */
 243:/mnt/c/Users/31740/Desktop/newcore/include/linux/slab.h **** typedef struct { unsigned long v; } freeptr_t;
 244:/mnt/c/Users/31740/Desktop/newcore/include/linux/slab.h **** 
 245:/mnt/c/Users/31740/Desktop/newcore/include/linux/slab.h **** /*
 246:/mnt/c/Users/31740/Desktop/newcore/include/linux/slab.h ****  * ZERO_SIZE_PTR will be returned for zero sized kmalloc requests.
 247:/mnt/c/Users/31740/Desktop/newcore/include/linux/slab.h ****  *
 248:/mnt/c/Users/31740/Desktop/newcore/include/linux/slab.h ****  * Dereferencing ZERO_SIZE_PTR will lead to a distinct access fault.
 249:/mnt/c/Users/31740/Desktop/newcore/include/linux/slab.h ****  *
 250:/mnt/c/Users/31740/Desktop/newcore/include/linux/slab.h ****  * ZERO_SIZE_PTR can be passed to kfree though in the same way that NULL can.
 251:/mnt/c/Users/31740/Desktop/newcore/include/linux/slab.h ****  * Both make kfree a no-op.
 252:/mnt/c/Users/31740/Desktop/newcore/include/linux/slab.h ****  */
 253:/mnt/c/Users/31740/Desktop/newcore/include/linux/slab.h **** #define ZERO_SIZE_PTR ((void *)16)
 254:/mnt/c/Users/31740/Desktop/newcore/include/linux/slab.h **** 
 255:/mnt/c/Users/31740/Desktop/newcore/include/linux/slab.h **** #define ZERO_OR_NULL_PTR(x) ((unsigned long)(x) <= \
 256:/mnt/c/Users/31740/Desktop/newcore/include/linux/slab.h **** 				(unsigned long)ZERO_SIZE_PTR)
 257:/mnt/c/Users/31740/Desktop/newcore/include/linux/slab.h **** 
 258:/mnt/c/Users/31740/Desktop/newcore/include/linux/slab.h **** 
 259:/mnt/c/Users/31740/Desktop/newcore/include/linux/slab.h **** 
 260:/mnt/c/Users/31740/Desktop/newcore/include/linux/slab.h **** 
 261:/mnt/c/Users/31740/Desktop/newcore/include/linux/slab.h **** 
 262:/mnt/c/Users/31740/Desktop/newcore/include/linux/slab.h **** #ifdef CONFIG_SLUB_CPU_PARTIAL
 263:/mnt/c/Users/31740/Desktop/newcore/include/linux/slab.h **** #define slub_percpu_partial(c)			((c)->partial)
 264:/mnt/c/Users/31740/Desktop/newcore/include/linux/slab.h **** 
 265:/mnt/c/Users/31740/Desktop/newcore/include/linux/slab.h **** #define slub_set_percpu_partial(c, p)		\
 266:/mnt/c/Users/31740/Desktop/newcore/include/linux/slab.h **** ({						\
 267:/mnt/c/Users/31740/Desktop/newcore/include/linux/slab.h **** 	slub_percpu_partial(c) = (p)->next;	\
 268:/mnt/c/Users/31740/Desktop/newcore/include/linux/slab.h **** })
 269:/mnt/c/Users/31740/Desktop/newcore/include/linux/slab.h **** 
 270:/mnt/c/Users/31740/Desktop/newcore/include/linux/slab.h **** #define slub_percpu_partial_read_once(c)	READ_ONCE(slub_percpu_partial(c))
 271:/mnt/c/Users/31740/Desktop/newcore/include/linux/slab.h **** #else
 272:/mnt/c/Users/31740/Desktop/newcore/include/linux/slab.h **** #define slub_percpu_partial(c)			NULL
 273:/mnt/c/Users/31740/Desktop/newcore/include/linux/slab.h **** 
 274:/mnt/c/Users/31740/Desktop/newcore/include/linux/slab.h **** #define slub_set_percpu_partial(c, p)
 275:/mnt/c/Users/31740/Desktop/newcore/include/linux/slab.h **** 
 276:/mnt/c/Users/31740/Desktop/newcore/include/linux/slab.h **** #define slub_percpu_partial_read_once(c)	NULL
 277:/mnt/c/Users/31740/Desktop/newcore/include/linux/slab.h **** 
 278:/mnt/c/Users/31740/Desktop/newcore/include/linux/slab.h **** 
 279:/mnt/c/Users/31740/Desktop/newcore/include/linux/slab.h **** #endif // CONFIG_SLUB_CPU_PARTIAL
 280:/mnt/c/Users/31740/Desktop/newcore/include/linux/slab.h **** 
 281:/mnt/c/Users/31740/Desktop/newcore/include/linux/slab.h **** /*
 282:/mnt/c/Users/31740/Desktop/newcore/include/linux/slab.h **** 	* Word size structure that can be atomically updated or read and that
 283:/mnt/c/Users/31740/Desktop/newcore/include/linux/slab.h **** 	* contains both the order and the number of objects that a slab of the
 284:/mnt/c/Users/31740/Desktop/newcore/include/linux/slab.h **** 	* given order would contain.
 285:/mnt/c/Users/31740/Desktop/newcore/include/linux/slab.h **** 	*/				
 286:/mnt/c/Users/31740/Desktop/newcore/include/linux/slab.h **** struct kmem_cache_order_objects {
 287:/mnt/c/Users/31740/Desktop/newcore/include/linux/slab.h **** 	unsigned int x;
 288:/mnt/c/Users/31740/Desktop/newcore/include/linux/slab.h **** };
 289:/mnt/c/Users/31740/Desktop/newcore/include/linux/slab.h **** 
 290:/mnt/c/Users/31740/Desktop/newcore/include/linux/slab.h **** struct kmem_cache_node {
 291:/mnt/c/Users/31740/Desktop/newcore/include/linux/slab.h **** 	spinlock_t list_lock;
 292:/mnt/c/Users/31740/Desktop/newcore/include/linux/slab.h **** 	unsigned long nr_partial;
 293:/mnt/c/Users/31740/Desktop/newcore/include/linux/slab.h **** 	struct list_head partial;
 294:/mnt/c/Users/31740/Desktop/newcore/include/linux/slab.h **** #ifdef CONFIG_SLUB_DEBUG
 295:/mnt/c/Users/31740/Desktop/newcore/include/linux/slab.h **** 	atomic_long_t nr_slabs;
 296:/mnt/c/Users/31740/Desktop/newcore/include/linux/slab.h **** 	atomic_long_t total_objects;
 297:/mnt/c/Users/31740/Desktop/newcore/include/linux/slab.h **** 	struct list_head full;
 298:/mnt/c/Users/31740/Desktop/newcore/include/linux/slab.h **** #endif
ARM GAS  /tmp/cctjQXNb.s 			page 10


 299:/mnt/c/Users/31740/Desktop/newcore/include/linux/slab.h **** };
 300:/mnt/c/Users/31740/Desktop/newcore/include/linux/slab.h **** 
 301:/mnt/c/Users/31740/Desktop/newcore/include/linux/slab.h **** struct kmem_cache {
 302:/mnt/c/Users/31740/Desktop/newcore/include/linux/slab.h **** 	#ifndef CONFIG_SLUB_TINY
 303:/mnt/c/Users/31740/Desktop/newcore/include/linux/slab.h **** 	//	struct kmem_cache_cpu __percpu *cpu_slab;
 304:/mnt/c/Users/31740/Desktop/newcore/include/linux/slab.h **** 	#endif
 305:/mnt/c/Users/31740/Desktop/newcore/include/linux/slab.h **** 		/* Used for retrieving partial slabs, etc. */
 306:/mnt/c/Users/31740/Desktop/newcore/include/linux/slab.h **** 		slab_flags_t flags;
 307:/mnt/c/Users/31740/Desktop/newcore/include/linux/slab.h **** 		unsigned long min_partial;
 308:/mnt/c/Users/31740/Desktop/newcore/include/linux/slab.h **** 		unsigned int size;		/* Object size including metadata */
 309:/mnt/c/Users/31740/Desktop/newcore/include/linux/slab.h **** 		unsigned int object_size;	/* Object size without metadata */
 310:/mnt/c/Users/31740/Desktop/newcore/include/linux/slab.h **** 		struct reciprocal_value reciprocal_size;
 311:/mnt/c/Users/31740/Desktop/newcore/include/linux/slab.h **** 		unsigned int offset;		/* Free pointer offset */
 312:/mnt/c/Users/31740/Desktop/newcore/include/linux/slab.h **** 	#ifdef CONFIG_SLUB_CPU_PARTIAL
 313:/mnt/c/Users/31740/Desktop/newcore/include/linux/slab.h **** 		/* Number of per cpu partial objects to keep around */
 314:/mnt/c/Users/31740/Desktop/newcore/include/linux/slab.h **** 		unsigned int cpu_partial;
 315:/mnt/c/Users/31740/Desktop/newcore/include/linux/slab.h **** 		/* Number of per cpu partial slabs to keep around */
 316:/mnt/c/Users/31740/Desktop/newcore/include/linux/slab.h **** 		unsigned int cpu_partial_slabs;
 317:/mnt/c/Users/31740/Desktop/newcore/include/linux/slab.h **** 	#endif
 318:/mnt/c/Users/31740/Desktop/newcore/include/linux/slab.h **** 		struct kmem_cache_order_objects oo;
 319:/mnt/c/Users/31740/Desktop/newcore/include/linux/slab.h **** 	
 320:/mnt/c/Users/31740/Desktop/newcore/include/linux/slab.h **** 		/* Allocation and freeing of slabs */
 321:/mnt/c/Users/31740/Desktop/newcore/include/linux/slab.h **** 		struct kmem_cache_order_objects min;
 322:/mnt/c/Users/31740/Desktop/newcore/include/linux/slab.h **** 		gfp_t allocflags;		/* gfp flags to use on each alloc */
 323:/mnt/c/Users/31740/Desktop/newcore/include/linux/slab.h **** 		int refcount;			/* Refcount for slab cache destroy */
 324:/mnt/c/Users/31740/Desktop/newcore/include/linux/slab.h **** 		void (*ctor)(void *object);	/* Object constructor */
 325:/mnt/c/Users/31740/Desktop/newcore/include/linux/slab.h **** 		unsigned int inuse;		/* Offset to metadata */
 326:/mnt/c/Users/31740/Desktop/newcore/include/linux/slab.h **** 		unsigned int align;		/* Alignment */
 327:/mnt/c/Users/31740/Desktop/newcore/include/linux/slab.h **** 		unsigned int red_left_pad;	/* Left redzone padding size */
 328:/mnt/c/Users/31740/Desktop/newcore/include/linux/slab.h **** 		const char *name;		/* Name (only for display!) */
 329:/mnt/c/Users/31740/Desktop/newcore/include/linux/slab.h **** 		struct list_head list;		/* List of slab caches */
 330:/mnt/c/Users/31740/Desktop/newcore/include/linux/slab.h **** 	#ifdef CONFIG_SYSFS
 331:/mnt/c/Users/31740/Desktop/newcore/include/linux/slab.h **** 		struct kobject kobj;		/* For sysfs */
 332:/mnt/c/Users/31740/Desktop/newcore/include/linux/slab.h **** 	#endif
 333:/mnt/c/Users/31740/Desktop/newcore/include/linux/slab.h **** 	#ifdef CONFIG_SLAB_FREELIST_HARDENED
 334:/mnt/c/Users/31740/Desktop/newcore/include/linux/slab.h **** 		unsigned long random;
 335:/mnt/c/Users/31740/Desktop/newcore/include/linux/slab.h **** 	#endif
 336:/mnt/c/Users/31740/Desktop/newcore/include/linux/slab.h **** 	
 337:/mnt/c/Users/31740/Desktop/newcore/include/linux/slab.h **** 	#ifdef CONFIG_NUMA
 338:/mnt/c/Users/31740/Desktop/newcore/include/linux/slab.h **** 		/*
 339:/mnt/c/Users/31740/Desktop/newcore/include/linux/slab.h **** 			* Defragmentation by allocating from a remote node.
 340:/mnt/c/Users/31740/Desktop/newcore/include/linux/slab.h **** 			*/
 341:/mnt/c/Users/31740/Desktop/newcore/include/linux/slab.h **** 		unsigned int remote_node_defrag_ratio;
 342:/mnt/c/Users/31740/Desktop/newcore/include/linux/slab.h **** 	#endif
 343:/mnt/c/Users/31740/Desktop/newcore/include/linux/slab.h **** 	
 344:/mnt/c/Users/31740/Desktop/newcore/include/linux/slab.h **** 	#ifdef CONFIG_SLAB_FREELIST_RANDOM
 345:/mnt/c/Users/31740/Desktop/newcore/include/linux/slab.h **** 		unsigned int *random_seq;
 346:/mnt/c/Users/31740/Desktop/newcore/include/linux/slab.h **** 	#endif
 347:/mnt/c/Users/31740/Desktop/newcore/include/linux/slab.h **** 	
 348:/mnt/c/Users/31740/Desktop/newcore/include/linux/slab.h **** 	#ifdef CONFIG_KASAN_GENERIC
 349:/mnt/c/Users/31740/Desktop/newcore/include/linux/slab.h **** 		struct kasan_cache kasan_info;
 350:/mnt/c/Users/31740/Desktop/newcore/include/linux/slab.h **** 	#endif
 351:/mnt/c/Users/31740/Desktop/newcore/include/linux/slab.h **** 	
 352:/mnt/c/Users/31740/Desktop/newcore/include/linux/slab.h **** 	#ifdef CONFIG_HARDENED_USERCOPY
 353:/mnt/c/Users/31740/Desktop/newcore/include/linux/slab.h **** 		unsigned int useroffset;	/* Usercopy region offset */
 354:/mnt/c/Users/31740/Desktop/newcore/include/linux/slab.h **** 		unsigned int usersize;		/* Usercopy region size */
 355:/mnt/c/Users/31740/Desktop/newcore/include/linux/slab.h **** 	#endif
ARM GAS  /tmp/cctjQXNb.s 			page 11


 356:/mnt/c/Users/31740/Desktop/newcore/include/linux/slab.h **** 	
 357:/mnt/c/Users/31740/Desktop/newcore/include/linux/slab.h **** 		struct kmem_cache_node *node[MAX_NUMNODES];
 358:/mnt/c/Users/31740/Desktop/newcore/include/linux/slab.h **** 	};
 359:/mnt/c/Users/31740/Desktop/newcore/include/linux/slab.h **** 					
 360:/mnt/c/Users/31740/Desktop/newcore/include/linux/slab.h **** 
 361:/mnt/c/Users/31740/Desktop/newcore/include/linux/slab.h **** 
 362:/mnt/c/Users/31740/Desktop/newcore/include/linux/slab.h **** 
 363:/mnt/c/Users/31740/Desktop/newcore/include/linux/slab.h **** 
 364:/mnt/c/Users/31740/Desktop/newcore/include/linux/slab.h **** #define KMALLOC_WAIT 1
 365:/mnt/c/Users/31740/Desktop/newcore/include/linux/slab.h **** 
 366:/mnt/c/Users/31740/Desktop/newcore/include/linux/slab.h **** 
 367:/mnt/c/Users/31740/Desktop/newcore/include/linux/slab.h **** extern void* __smalloc__(u32 size, gfp_t flags);
 368:/mnt/c/Users/31740/Desktop/newcore/include/linux/slab.h **** extern void  __sfree__(void* addr);
 369:/mnt/c/Users/31740/Desktop/newcore/include/linux/slab.h **** 
 370:/mnt/c/Users/31740/Desktop/newcore/include/linux/slab.h **** 
 371:/mnt/c/Users/31740/Desktop/newcore/include/linux/slab.h **** static void inline *vmalloc(unsigned long size){
 372:/mnt/c/Users/31740/Desktop/newcore/include/linux/slab.h **** 	return __smalloc__(size,GFP_TRANSHUGE_LIGHT);
 373:/mnt/c/Users/31740/Desktop/newcore/include/linux/slab.h **** }
 374:/mnt/c/Users/31740/Desktop/newcore/include/linux/slab.h **** 
 375:/mnt/c/Users/31740/Desktop/newcore/include/linux/slab.h **** static void inline vfree(void *addr){
 376:/mnt/c/Users/31740/Desktop/newcore/include/linux/slab.h **** 	__sfree__(addr);
 377:/mnt/c/Users/31740/Desktop/newcore/include/linux/slab.h **** }
 378:/mnt/c/Users/31740/Desktop/newcore/include/linux/slab.h **** 
 379:/mnt/c/Users/31740/Desktop/newcore/include/linux/slab.h **** static void inline *kmalloc(size_t size, gfp_t flags){
 127              		.loc 4 379 21 view .LVU21
 128              	.LBB81:
 380:/mnt/c/Users/31740/Desktop/newcore/include/linux/slab.h **** 	return __smalloc__((u32)size,flags);
 129              		.loc 4 380 2 view .LVU22
 130              		.loc 4 380 9 is_stmt 0 view .LVU23
 131 001c 4946     		mov	r1, r9
 132              	.LVL8:
 133              		.loc 4 380 9 view .LVU24
 134 001e 3046     		mov	r0, r6
 135              	.LVL9:
 136              		.loc 4 380 9 view .LVU25
 137 0020 FFF7FEFF 		bl	__smalloc__
 138              	.LVL10:
 139              		.loc 4 380 9 view .LVU26
 140              	.LBE81:
 141              	.LBE80:
  28:/mnt/c/Users/31740/Desktop/newcore/block/bio.c ****     if (!bio) return NULL;
 142              		.loc 1 28 5 is_stmt 1 view .LVU27
 143              		.loc 1 28 8 is_stmt 0 view .LVU28
 144 0024 0446     		mov	r4, r0
 145 0026 E8B1     		cbz	r0, .L4
  29:/mnt/c/Users/31740/Desktop/newcore/block/bio.c ****     memset(bio, 0, bio_size);
 146              		.loc 1 29 5 is_stmt 1 view .LVU29
 147 0028 3246     		mov	r2, r6
 148 002a 0021     		movs	r1, #0
 149 002c FFF7FEFF 		bl	memset
 150              	.LVL11:
  30:/mnt/c/Users/31740/Desktop/newcore/block/bio.c ****     if (use_inline_vecs) 
 151              		.loc 1 30 5 view .LVU30
 152              		.loc 1 30 8 is_stmt 0 view .LVU31
 153 0030 BAF1000F 		cmp	r10, #0
 154 0034 1DD0     		beq	.L7
  31:/mnt/c/Users/31740/Desktop/newcore/block/bio.c ****     {
ARM GAS  /tmp/cctjQXNb.s 			page 12


  32:/mnt/c/Users/31740/Desktop/newcore/block/bio.c ****         bio->bi_io_vec   = bio->bi_inline_vecs;
 155              		.loc 1 32 9 is_stmt 1 view .LVU32
 156              		.loc 1 32 28 is_stmt 0 view .LVU33
 157 0036 04F14403 		add	r3, r4, #68
 158              		.loc 1 32 26 view .LVU34
 159 003a E363     		str	r3, [r4, #60]
  33:/mnt/c/Users/31740/Desktop/newcore/block/bio.c ****         bio->bi_max_vecs = nr_iovecs;
 160              		.loc 1 33 9 is_stmt 1 view .LVU35
 161              		.loc 1 33 26 is_stmt 0 view .LVU36
 162 003c E586     		strh	r5, [r4, #54]	@ movhi
 163              	.LVL12:
 164              	.L8:
  34:/mnt/c/Users/31740/Desktop/newcore/block/bio.c ****     }
  35:/mnt/c/Users/31740/Desktop/newcore/block/bio.c ****     else 
  36:/mnt/c/Users/31740/Desktop/newcore/block/bio.c ****     {
  37:/mnt/c/Users/31740/Desktop/newcore/block/bio.c ****         bio->bi_io_vec = kmalloc_array(nr_iovecs, sizeof(struct bio_vec), gfp_mask);
  38:/mnt/c/Users/31740/Desktop/newcore/block/bio.c ****         if (!bio->bi_io_vec) {
  39:/mnt/c/Users/31740/Desktop/newcore/block/bio.c ****             kfree(bio);
  40:/mnt/c/Users/31740/Desktop/newcore/block/bio.c ****             return NULL;
  41:/mnt/c/Users/31740/Desktop/newcore/block/bio.c ****         }
  42:/mnt/c/Users/31740/Desktop/newcore/block/bio.c ****         bio->bi_max_vecs = nr_iovecs;
  43:/mnt/c/Users/31740/Desktop/newcore/block/bio.c ****     }
  44:/mnt/c/Users/31740/Desktop/newcore/block/bio.c ****     bio->bi_next   = NULL;
 165              		.loc 1 44 5 is_stmt 1 view .LVU37
 166              		.loc 1 44 20 is_stmt 0 view .LVU38
 167 003e 0023     		movs	r3, #0
 168 0040 2360     		str	r3, [r4]
  45:/mnt/c/Users/31740/Desktop/newcore/block/bio.c ****     bio->bi_bdev   = NULL;
 169              		.loc 1 45 5 is_stmt 1 view .LVU39
 170              		.loc 1 45 20 is_stmt 0 view .LVU40
 171 0042 6360     		str	r3, [r4, #4]
  46:/mnt/c/Users/31740/Desktop/newcore/block/bio.c ****     bio->bi_opf    = 0;
 172              		.loc 1 46 5 is_stmt 1 view .LVU41
 173              		.loc 1 46 20 is_stmt 0 view .LVU42
 174 0044 A360     		str	r3, [r4, #8]
  47:/mnt/c/Users/31740/Desktop/newcore/block/bio.c ****     bio->bi_flags  = 0;
 175              		.loc 1 47 5 is_stmt 1 view .LVU43
 176              		.loc 1 47 20 is_stmt 0 view .LVU44
 177 0046 A381     		strh	r3, [r4, #12]	@ movhi
  48:/mnt/c/Users/31740/Desktop/newcore/block/bio.c ****     bio->bi_status = BLK_STS_OK;
 178              		.loc 1 48 5 is_stmt 1 view .LVU45
 179              		.loc 1 48 20 is_stmt 0 view .LVU46
 180 0048 6374     		strb	r3, [r4, #17]
  49:/mnt/c/Users/31740/Desktop/newcore/block/bio.c ****     atomic_set(&bio->__bi_remaining, 1);
 181              		.loc 1 49 5 is_stmt 1 view .LVU47
 182              	.LVL13:
 183              	.LBB82:
 184              	.LBI82:
 185              		.file 5 "/mnt/c/Users/31740/Desktop/newcore/include/linux/atomic/atomic-instrumented.h"
   1:/mnt/c/Users/31740/Desktop/newcore/include/linux/atomic/atomic-instrumented.h **** // SPDX-License-Identifier: GPL-2.0
   2:/mnt/c/Users/31740/Desktop/newcore/include/linux/atomic/atomic-instrumented.h **** 
   3:/mnt/c/Users/31740/Desktop/newcore/include/linux/atomic/atomic-instrumented.h **** // Generated by scripts/atomic/gen-atomic-instrumented.sh 
   4:/mnt/c/Users/31740/Desktop/newcore/include/linux/atomic/atomic-instrumented.h **** // DO NOT MODIFY THIS FILE DIRECTLY
   5:/mnt/c/Users/31740/Desktop/newcore/include/linux/atomic/atomic-instrumented.h **** 
   6:/mnt/c/Users/31740/Desktop/newcore/include/linux/atomic/atomic-instrumented.h **** /*
   7:/mnt/c/Users/31740/Desktop/newcore/include/linux/atomic/atomic-instrumented.h ****  * This file provoides atomic operations with explicit instrumentation (e.g.
   8:/mnt/c/Users/31740/Desktop/newcore/include/linux/atomic/atomic-instrumented.h ****  * KASAN, KCSAN), which should be used unless it is necessary to avoid
ARM GAS  /tmp/cctjQXNb.s 			page 13


   9:/mnt/c/Users/31740/Desktop/newcore/include/linux/atomic/atomic-instrumented.h ****  * instrumentation. Where it is necessary to aovid instrumenation, the
  10:/mnt/c/Users/31740/Desktop/newcore/include/linux/atomic/atomic-instrumented.h ****  * raw_atomic*() operations should be used.
  11:/mnt/c/Users/31740/Desktop/newcore/include/linux/atomic/atomic-instrumented.h ****  */
  12:/mnt/c/Users/31740/Desktop/newcore/include/linux/atomic/atomic-instrumented.h **** #ifndef _LINUX_ATOMIC_INSTRUMENTED_H
  13:/mnt/c/Users/31740/Desktop/newcore/include/linux/atomic/atomic-instrumented.h **** #define _LINUX_ATOMIC_INSTRUMENTED_H
  14:/mnt/c/Users/31740/Desktop/newcore/include/linux/atomic/atomic-instrumented.h **** 
  15:/mnt/c/Users/31740/Desktop/newcore/include/linux/atomic/atomic-instrumented.h **** #include <linux/build_bug.h>
  16:/mnt/c/Users/31740/Desktop/newcore/include/linux/atomic/atomic-instrumented.h **** #include <linux/compiler.h>
  17:/mnt/c/Users/31740/Desktop/newcore/include/linux/atomic/atomic-instrumented.h **** #include <linux/instrumented.h>
  18:/mnt/c/Users/31740/Desktop/newcore/include/linux/atomic/atomic-instrumented.h **** 
  19:/mnt/c/Users/31740/Desktop/newcore/include/linux/atomic/atomic-instrumented.h **** /**
  20:/mnt/c/Users/31740/Desktop/newcore/include/linux/atomic/atomic-instrumented.h ****  * atomic_read() - atomic load with relaxed ordering
  21:/mnt/c/Users/31740/Desktop/newcore/include/linux/atomic/atomic-instrumented.h ****  * @v: pointer to atomic_t
  22:/mnt/c/Users/31740/Desktop/newcore/include/linux/atomic/atomic-instrumented.h ****  *
  23:/mnt/c/Users/31740/Desktop/newcore/include/linux/atomic/atomic-instrumented.h ****  * Atomically loads the value of @v with relaxed ordering.
  24:/mnt/c/Users/31740/Desktop/newcore/include/linux/atomic/atomic-instrumented.h ****  *
  25:/mnt/c/Users/31740/Desktop/newcore/include/linux/atomic/atomic-instrumented.h ****  * Unsafe to use in noinstr code; use raw_atomic_read() there.
  26:/mnt/c/Users/31740/Desktop/newcore/include/linux/atomic/atomic-instrumented.h ****  *
  27:/mnt/c/Users/31740/Desktop/newcore/include/linux/atomic/atomic-instrumented.h ****  * Return: The value loaded from @v.
  28:/mnt/c/Users/31740/Desktop/newcore/include/linux/atomic/atomic-instrumented.h ****  */
  29:/mnt/c/Users/31740/Desktop/newcore/include/linux/atomic/atomic-instrumented.h **** static __always_inline int
  30:/mnt/c/Users/31740/Desktop/newcore/include/linux/atomic/atomic-instrumented.h **** atomic_read(const atomic_t *v)
  31:/mnt/c/Users/31740/Desktop/newcore/include/linux/atomic/atomic-instrumented.h **** {
  32:/mnt/c/Users/31740/Desktop/newcore/include/linux/atomic/atomic-instrumented.h **** 	instrument_atomic_read(v, sizeof(*v));
  33:/mnt/c/Users/31740/Desktop/newcore/include/linux/atomic/atomic-instrumented.h **** 	return raw_atomic_read(v);
  34:/mnt/c/Users/31740/Desktop/newcore/include/linux/atomic/atomic-instrumented.h **** }
  35:/mnt/c/Users/31740/Desktop/newcore/include/linux/atomic/atomic-instrumented.h **** 
  36:/mnt/c/Users/31740/Desktop/newcore/include/linux/atomic/atomic-instrumented.h **** /**
  37:/mnt/c/Users/31740/Desktop/newcore/include/linux/atomic/atomic-instrumented.h ****  * atomic_read_acquire() - atomic load with acquire ordering
  38:/mnt/c/Users/31740/Desktop/newcore/include/linux/atomic/atomic-instrumented.h ****  * @v: pointer to atomic_t
  39:/mnt/c/Users/31740/Desktop/newcore/include/linux/atomic/atomic-instrumented.h ****  *
  40:/mnt/c/Users/31740/Desktop/newcore/include/linux/atomic/atomic-instrumented.h ****  * Atomically loads the value of @v with acquire ordering.
  41:/mnt/c/Users/31740/Desktop/newcore/include/linux/atomic/atomic-instrumented.h ****  *
  42:/mnt/c/Users/31740/Desktop/newcore/include/linux/atomic/atomic-instrumented.h ****  * Unsafe to use in noinstr code; use raw_atomic_read_acquire() there.
  43:/mnt/c/Users/31740/Desktop/newcore/include/linux/atomic/atomic-instrumented.h ****  *
  44:/mnt/c/Users/31740/Desktop/newcore/include/linux/atomic/atomic-instrumented.h ****  * Return: The value loaded from @v.
  45:/mnt/c/Users/31740/Desktop/newcore/include/linux/atomic/atomic-instrumented.h ****  */
  46:/mnt/c/Users/31740/Desktop/newcore/include/linux/atomic/atomic-instrumented.h **** static __always_inline int
  47:/mnt/c/Users/31740/Desktop/newcore/include/linux/atomic/atomic-instrumented.h **** atomic_read_acquire(const atomic_t *v)
  48:/mnt/c/Users/31740/Desktop/newcore/include/linux/atomic/atomic-instrumented.h **** {
  49:/mnt/c/Users/31740/Desktop/newcore/include/linux/atomic/atomic-instrumented.h **** 	instrument_atomic_read(v, sizeof(*v));
  50:/mnt/c/Users/31740/Desktop/newcore/include/linux/atomic/atomic-instrumented.h **** 	return raw_atomic_read_acquire(v);
  51:/mnt/c/Users/31740/Desktop/newcore/include/linux/atomic/atomic-instrumented.h **** }
  52:/mnt/c/Users/31740/Desktop/newcore/include/linux/atomic/atomic-instrumented.h **** 
  53:/mnt/c/Users/31740/Desktop/newcore/include/linux/atomic/atomic-instrumented.h **** /**
  54:/mnt/c/Users/31740/Desktop/newcore/include/linux/atomic/atomic-instrumented.h ****  * atomic_set() - atomic set with relaxed ordering
  55:/mnt/c/Users/31740/Desktop/newcore/include/linux/atomic/atomic-instrumented.h ****  * @v: pointer to atomic_t
  56:/mnt/c/Users/31740/Desktop/newcore/include/linux/atomic/atomic-instrumented.h ****  * @i: int value to assign
  57:/mnt/c/Users/31740/Desktop/newcore/include/linux/atomic/atomic-instrumented.h ****  *
  58:/mnt/c/Users/31740/Desktop/newcore/include/linux/atomic/atomic-instrumented.h ****  * Atomically sets @v to @i with relaxed ordering.
  59:/mnt/c/Users/31740/Desktop/newcore/include/linux/atomic/atomic-instrumented.h ****  *
  60:/mnt/c/Users/31740/Desktop/newcore/include/linux/atomic/atomic-instrumented.h ****  * Unsafe to use in noinstr code; use raw_atomic_set() there.
  61:/mnt/c/Users/31740/Desktop/newcore/include/linux/atomic/atomic-instrumented.h ****  *
  62:/mnt/c/Users/31740/Desktop/newcore/include/linux/atomic/atomic-instrumented.h ****  * Return: Nothing.
  63:/mnt/c/Users/31740/Desktop/newcore/include/linux/atomic/atomic-instrumented.h ****  */
  64:/mnt/c/Users/31740/Desktop/newcore/include/linux/atomic/atomic-instrumented.h **** static __always_inline void
  65:/mnt/c/Users/31740/Desktop/newcore/include/linux/atomic/atomic-instrumented.h **** atomic_set(atomic_t *v, int i)
ARM GAS  /tmp/cctjQXNb.s 			page 14


 186              		.loc 5 65 1 view .LVU48
  66:/mnt/c/Users/31740/Desktop/newcore/include/linux/atomic/atomic-instrumented.h **** {
  67:/mnt/c/Users/31740/Desktop/newcore/include/linux/atomic/atomic-instrumented.h **** 	instrument_atomic_write(v, sizeof(*v));
 187              		.loc 5 67 2 view .LVU49
  68:/mnt/c/Users/31740/Desktop/newcore/include/linux/atomic/atomic-instrumented.h **** 	raw_atomic_set(v, i);
 188              		.loc 5 68 2 view .LVU50
 189              	.LBB83:
 190              	.LBI83:
 191              		.file 6 "/mnt/c/Users/31740/Desktop/newcore/include/linux/atomic/atomic-arch-fallback.h"
   1:/mnt/c/Users/31740/Desktop/newcore/include/linux/atomic/atomic-arch-fallback.h **** // SPDX-License-Identifier: GPL-2.0
   2:/mnt/c/Users/31740/Desktop/newcore/include/linux/atomic/atomic-arch-fallback.h **** 
   3:/mnt/c/Users/31740/Desktop/newcore/include/linux/atomic/atomic-arch-fallback.h **** // Generated by scripts/atomic/gen-atomic-fallback.sh
   4:/mnt/c/Users/31740/Desktop/newcore/include/linux/atomic/atomic-arch-fallback.h **** // DO NOT MODIFY THIS FILE DIRECTLY
   5:/mnt/c/Users/31740/Desktop/newcore/include/linux/atomic/atomic-arch-fallback.h **** 
   6:/mnt/c/Users/31740/Desktop/newcore/include/linux/atomic/atomic-arch-fallback.h **** #ifndef _LINUX_ATOMIC_FALLBACK_H
   7:/mnt/c/Users/31740/Desktop/newcore/include/linux/atomic/atomic-arch-fallback.h **** #define _LINUX_ATOMIC_FALLBACK_H
   8:/mnt/c/Users/31740/Desktop/newcore/include/linux/atomic/atomic-arch-fallback.h **** 
   9:/mnt/c/Users/31740/Desktop/newcore/include/linux/atomic/atomic-arch-fallback.h **** #include <linux/compiler.h>
  10:/mnt/c/Users/31740/Desktop/newcore/include/linux/atomic/atomic-arch-fallback.h **** 
  11:/mnt/c/Users/31740/Desktop/newcore/include/linux/atomic/atomic-arch-fallback.h **** #if defined(arch_xchg)
  12:/mnt/c/Users/31740/Desktop/newcore/include/linux/atomic/atomic-arch-fallback.h **** #define raw_xchg arch_xchg
  13:/mnt/c/Users/31740/Desktop/newcore/include/linux/atomic/atomic-arch-fallback.h **** #elif defined(arch_xchg_relaxed)
  14:/mnt/c/Users/31740/Desktop/newcore/include/linux/atomic/atomic-arch-fallback.h **** #define raw_xchg(...) \
  15:/mnt/c/Users/31740/Desktop/newcore/include/linux/atomic/atomic-arch-fallback.h **** 	__atomic_op_fence(arch_xchg, __VA_ARGS__)
  16:/mnt/c/Users/31740/Desktop/newcore/include/linux/atomic/atomic-arch-fallback.h **** #else
  17:/mnt/c/Users/31740/Desktop/newcore/include/linux/atomic/atomic-arch-fallback.h **** extern void raw_xchg_not_implemented(void);
  18:/mnt/c/Users/31740/Desktop/newcore/include/linux/atomic/atomic-arch-fallback.h **** #define raw_xchg(...) raw_xchg_not_implemented()
  19:/mnt/c/Users/31740/Desktop/newcore/include/linux/atomic/atomic-arch-fallback.h **** #endif
  20:/mnt/c/Users/31740/Desktop/newcore/include/linux/atomic/atomic-arch-fallback.h **** 
  21:/mnt/c/Users/31740/Desktop/newcore/include/linux/atomic/atomic-arch-fallback.h **** #if defined(arch_xchg_acquire)
  22:/mnt/c/Users/31740/Desktop/newcore/include/linux/atomic/atomic-arch-fallback.h **** #define raw_xchg_acquire arch_xchg_acquire
  23:/mnt/c/Users/31740/Desktop/newcore/include/linux/atomic/atomic-arch-fallback.h **** #elif defined(arch_xchg_relaxed)
  24:/mnt/c/Users/31740/Desktop/newcore/include/linux/atomic/atomic-arch-fallback.h **** #define raw_xchg_acquire(...) \
  25:/mnt/c/Users/31740/Desktop/newcore/include/linux/atomic/atomic-arch-fallback.h **** 	__atomic_op_acquire(arch_xchg, __VA_ARGS__)
  26:/mnt/c/Users/31740/Desktop/newcore/include/linux/atomic/atomic-arch-fallback.h **** #elif defined(arch_xchg)
  27:/mnt/c/Users/31740/Desktop/newcore/include/linux/atomic/atomic-arch-fallback.h **** #define raw_xchg_acquire arch_xchg
  28:/mnt/c/Users/31740/Desktop/newcore/include/linux/atomic/atomic-arch-fallback.h **** #else
  29:/mnt/c/Users/31740/Desktop/newcore/include/linux/atomic/atomic-arch-fallback.h **** extern void raw_xchg_acquire_not_implemented(void);
  30:/mnt/c/Users/31740/Desktop/newcore/include/linux/atomic/atomic-arch-fallback.h **** #define raw_xchg_acquire(...) raw_xchg_acquire_not_implemented()
  31:/mnt/c/Users/31740/Desktop/newcore/include/linux/atomic/atomic-arch-fallback.h **** #endif
  32:/mnt/c/Users/31740/Desktop/newcore/include/linux/atomic/atomic-arch-fallback.h **** 
  33:/mnt/c/Users/31740/Desktop/newcore/include/linux/atomic/atomic-arch-fallback.h **** #if defined(arch_xchg_release)
  34:/mnt/c/Users/31740/Desktop/newcore/include/linux/atomic/atomic-arch-fallback.h **** #define raw_xchg_release arch_xchg_release
  35:/mnt/c/Users/31740/Desktop/newcore/include/linux/atomic/atomic-arch-fallback.h **** #elif defined(arch_xchg_relaxed)
  36:/mnt/c/Users/31740/Desktop/newcore/include/linux/atomic/atomic-arch-fallback.h **** #define raw_xchg_release(...) \
  37:/mnt/c/Users/31740/Desktop/newcore/include/linux/atomic/atomic-arch-fallback.h **** 	__atomic_op_release(arch_xchg, __VA_ARGS__)
  38:/mnt/c/Users/31740/Desktop/newcore/include/linux/atomic/atomic-arch-fallback.h **** #elif defined(arch_xchg)
  39:/mnt/c/Users/31740/Desktop/newcore/include/linux/atomic/atomic-arch-fallback.h **** #define raw_xchg_release arch_xchg
  40:/mnt/c/Users/31740/Desktop/newcore/include/linux/atomic/atomic-arch-fallback.h **** #else
  41:/mnt/c/Users/31740/Desktop/newcore/include/linux/atomic/atomic-arch-fallback.h **** extern void raw_xchg_release_not_implemented(void);
  42:/mnt/c/Users/31740/Desktop/newcore/include/linux/atomic/atomic-arch-fallback.h **** #define raw_xchg_release(...) raw_xchg_release_not_implemented()
  43:/mnt/c/Users/31740/Desktop/newcore/include/linux/atomic/atomic-arch-fallback.h **** #endif
  44:/mnt/c/Users/31740/Desktop/newcore/include/linux/atomic/atomic-arch-fallback.h **** 
  45:/mnt/c/Users/31740/Desktop/newcore/include/linux/atomic/atomic-arch-fallback.h **** #if defined(arch_xchg_relaxed)
  46:/mnt/c/Users/31740/Desktop/newcore/include/linux/atomic/atomic-arch-fallback.h **** #define raw_xchg_relaxed arch_xchg_relaxed
  47:/mnt/c/Users/31740/Desktop/newcore/include/linux/atomic/atomic-arch-fallback.h **** #elif defined(arch_xchg)
  48:/mnt/c/Users/31740/Desktop/newcore/include/linux/atomic/atomic-arch-fallback.h **** #define raw_xchg_relaxed arch_xchg
ARM GAS  /tmp/cctjQXNb.s 			page 15


  49:/mnt/c/Users/31740/Desktop/newcore/include/linux/atomic/atomic-arch-fallback.h **** #else
  50:/mnt/c/Users/31740/Desktop/newcore/include/linux/atomic/atomic-arch-fallback.h **** extern void raw_xchg_relaxed_not_implemented(void);
  51:/mnt/c/Users/31740/Desktop/newcore/include/linux/atomic/atomic-arch-fallback.h **** #define raw_xchg_relaxed(...) raw_xchg_relaxed_not_implemented()
  52:/mnt/c/Users/31740/Desktop/newcore/include/linux/atomic/atomic-arch-fallback.h **** #endif
  53:/mnt/c/Users/31740/Desktop/newcore/include/linux/atomic/atomic-arch-fallback.h **** 
  54:/mnt/c/Users/31740/Desktop/newcore/include/linux/atomic/atomic-arch-fallback.h **** #if defined(arch_cmpxchg)
  55:/mnt/c/Users/31740/Desktop/newcore/include/linux/atomic/atomic-arch-fallback.h **** #define raw_cmpxchg arch_cmpxchg
  56:/mnt/c/Users/31740/Desktop/newcore/include/linux/atomic/atomic-arch-fallback.h **** #elif defined(arch_cmpxchg_relaxed)
  57:/mnt/c/Users/31740/Desktop/newcore/include/linux/atomic/atomic-arch-fallback.h **** #define raw_cmpxchg(...) \
  58:/mnt/c/Users/31740/Desktop/newcore/include/linux/atomic/atomic-arch-fallback.h **** 	__atomic_op_fence(arch_cmpxchg, __VA_ARGS__)
  59:/mnt/c/Users/31740/Desktop/newcore/include/linux/atomic/atomic-arch-fallback.h **** #else
  60:/mnt/c/Users/31740/Desktop/newcore/include/linux/atomic/atomic-arch-fallback.h **** extern void raw_cmpxchg_not_implemented(void);
  61:/mnt/c/Users/31740/Desktop/newcore/include/linux/atomic/atomic-arch-fallback.h **** #define raw_cmpxchg(...) raw_cmpxchg_not_implemented()
  62:/mnt/c/Users/31740/Desktop/newcore/include/linux/atomic/atomic-arch-fallback.h **** #endif
  63:/mnt/c/Users/31740/Desktop/newcore/include/linux/atomic/atomic-arch-fallback.h **** 
  64:/mnt/c/Users/31740/Desktop/newcore/include/linux/atomic/atomic-arch-fallback.h **** #if defined(arch_cmpxchg_acquire)
  65:/mnt/c/Users/31740/Desktop/newcore/include/linux/atomic/atomic-arch-fallback.h **** #define raw_cmpxchg_acquire arch_cmpxchg_acquire
  66:/mnt/c/Users/31740/Desktop/newcore/include/linux/atomic/atomic-arch-fallback.h **** #elif defined(arch_cmpxchg_relaxed)
  67:/mnt/c/Users/31740/Desktop/newcore/include/linux/atomic/atomic-arch-fallback.h **** #define raw_cmpxchg_acquire(...) \
  68:/mnt/c/Users/31740/Desktop/newcore/include/linux/atomic/atomic-arch-fallback.h **** 	__atomic_op_acquire(arch_cmpxchg, __VA_ARGS__)
  69:/mnt/c/Users/31740/Desktop/newcore/include/linux/atomic/atomic-arch-fallback.h **** #elif defined(arch_cmpxchg)
  70:/mnt/c/Users/31740/Desktop/newcore/include/linux/atomic/atomic-arch-fallback.h **** #define raw_cmpxchg_acquire arch_cmpxchg
  71:/mnt/c/Users/31740/Desktop/newcore/include/linux/atomic/atomic-arch-fallback.h **** #else
  72:/mnt/c/Users/31740/Desktop/newcore/include/linux/atomic/atomic-arch-fallback.h **** extern void raw_cmpxchg_acquire_not_implemented(void);
  73:/mnt/c/Users/31740/Desktop/newcore/include/linux/atomic/atomic-arch-fallback.h **** #define raw_cmpxchg_acquire(...) raw_cmpxchg_acquire_not_implemented()
  74:/mnt/c/Users/31740/Desktop/newcore/include/linux/atomic/atomic-arch-fallback.h **** #endif
  75:/mnt/c/Users/31740/Desktop/newcore/include/linux/atomic/atomic-arch-fallback.h **** 
  76:/mnt/c/Users/31740/Desktop/newcore/include/linux/atomic/atomic-arch-fallback.h **** #if defined(arch_cmpxchg_release)
  77:/mnt/c/Users/31740/Desktop/newcore/include/linux/atomic/atomic-arch-fallback.h **** #define raw_cmpxchg_release arch_cmpxchg_release
  78:/mnt/c/Users/31740/Desktop/newcore/include/linux/atomic/atomic-arch-fallback.h **** #elif defined(arch_cmpxchg_relaxed)
  79:/mnt/c/Users/31740/Desktop/newcore/include/linux/atomic/atomic-arch-fallback.h **** #define raw_cmpxchg_release(...) \
  80:/mnt/c/Users/31740/Desktop/newcore/include/linux/atomic/atomic-arch-fallback.h **** 	__atomic_op_release(arch_cmpxchg, __VA_ARGS__)
  81:/mnt/c/Users/31740/Desktop/newcore/include/linux/atomic/atomic-arch-fallback.h **** #elif defined(arch_cmpxchg)
  82:/mnt/c/Users/31740/Desktop/newcore/include/linux/atomic/atomic-arch-fallback.h **** #define raw_cmpxchg_release arch_cmpxchg
  83:/mnt/c/Users/31740/Desktop/newcore/include/linux/atomic/atomic-arch-fallback.h **** #else
  84:/mnt/c/Users/31740/Desktop/newcore/include/linux/atomic/atomic-arch-fallback.h **** extern void raw_cmpxchg_release_not_implemented(void);
  85:/mnt/c/Users/31740/Desktop/newcore/include/linux/atomic/atomic-arch-fallback.h **** #define raw_cmpxchg_release(...) raw_cmpxchg_release_not_implemented()
  86:/mnt/c/Users/31740/Desktop/newcore/include/linux/atomic/atomic-arch-fallback.h **** #endif
  87:/mnt/c/Users/31740/Desktop/newcore/include/linux/atomic/atomic-arch-fallback.h **** 
  88:/mnt/c/Users/31740/Desktop/newcore/include/linux/atomic/atomic-arch-fallback.h **** #if defined(arch_cmpxchg_relaxed)
  89:/mnt/c/Users/31740/Desktop/newcore/include/linux/atomic/atomic-arch-fallback.h **** #define raw_cmpxchg_relaxed arch_cmpxchg_relaxed
  90:/mnt/c/Users/31740/Desktop/newcore/include/linux/atomic/atomic-arch-fallback.h **** #elif defined(arch_cmpxchg)
  91:/mnt/c/Users/31740/Desktop/newcore/include/linux/atomic/atomic-arch-fallback.h **** #define raw_cmpxchg_relaxed arch_cmpxchg
  92:/mnt/c/Users/31740/Desktop/newcore/include/linux/atomic/atomic-arch-fallback.h **** #else
  93:/mnt/c/Users/31740/Desktop/newcore/include/linux/atomic/atomic-arch-fallback.h **** extern void raw_cmpxchg_relaxed_not_implemented(void);
  94:/mnt/c/Users/31740/Desktop/newcore/include/linux/atomic/atomic-arch-fallback.h **** #define raw_cmpxchg_relaxed(...) raw_cmpxchg_relaxed_not_implemented()
  95:/mnt/c/Users/31740/Desktop/newcore/include/linux/atomic/atomic-arch-fallback.h **** #endif
  96:/mnt/c/Users/31740/Desktop/newcore/include/linux/atomic/atomic-arch-fallback.h **** 
  97:/mnt/c/Users/31740/Desktop/newcore/include/linux/atomic/atomic-arch-fallback.h **** #if defined(arch_cmpxchg64)
  98:/mnt/c/Users/31740/Desktop/newcore/include/linux/atomic/atomic-arch-fallback.h **** #define raw_cmpxchg64 arch_cmpxchg64
  99:/mnt/c/Users/31740/Desktop/newcore/include/linux/atomic/atomic-arch-fallback.h **** #elif defined(arch_cmpxchg64_relaxed)
 100:/mnt/c/Users/31740/Desktop/newcore/include/linux/atomic/atomic-arch-fallback.h **** #define raw_cmpxchg64(...) \
 101:/mnt/c/Users/31740/Desktop/newcore/include/linux/atomic/atomic-arch-fallback.h **** 	__atomic_op_fence(arch_cmpxchg64, __VA_ARGS__)
 102:/mnt/c/Users/31740/Desktop/newcore/include/linux/atomic/atomic-arch-fallback.h **** #else
 103:/mnt/c/Users/31740/Desktop/newcore/include/linux/atomic/atomic-arch-fallback.h **** extern void raw_cmpxchg64_not_implemented(void);
 104:/mnt/c/Users/31740/Desktop/newcore/include/linux/atomic/atomic-arch-fallback.h **** #define raw_cmpxchg64(...) raw_cmpxchg64_not_implemented()
 105:/mnt/c/Users/31740/Desktop/newcore/include/linux/atomic/atomic-arch-fallback.h **** #endif
ARM GAS  /tmp/cctjQXNb.s 			page 16


 106:/mnt/c/Users/31740/Desktop/newcore/include/linux/atomic/atomic-arch-fallback.h **** 
 107:/mnt/c/Users/31740/Desktop/newcore/include/linux/atomic/atomic-arch-fallback.h **** #if defined(arch_cmpxchg64_acquire)
 108:/mnt/c/Users/31740/Desktop/newcore/include/linux/atomic/atomic-arch-fallback.h **** #define raw_cmpxchg64_acquire arch_cmpxchg64_acquire
 109:/mnt/c/Users/31740/Desktop/newcore/include/linux/atomic/atomic-arch-fallback.h **** #elif defined(arch_cmpxchg64_relaxed)
 110:/mnt/c/Users/31740/Desktop/newcore/include/linux/atomic/atomic-arch-fallback.h **** #define raw_cmpxchg64_acquire(...) \
 111:/mnt/c/Users/31740/Desktop/newcore/include/linux/atomic/atomic-arch-fallback.h **** 	__atomic_op_acquire(arch_cmpxchg64, __VA_ARGS__)
 112:/mnt/c/Users/31740/Desktop/newcore/include/linux/atomic/atomic-arch-fallback.h **** #elif defined(arch_cmpxchg64)
 113:/mnt/c/Users/31740/Desktop/newcore/include/linux/atomic/atomic-arch-fallback.h **** #define raw_cmpxchg64_acquire arch_cmpxchg64
 114:/mnt/c/Users/31740/Desktop/newcore/include/linux/atomic/atomic-arch-fallback.h **** #else
 115:/mnt/c/Users/31740/Desktop/newcore/include/linux/atomic/atomic-arch-fallback.h **** extern void raw_cmpxchg64_acquire_not_implemented(void);
 116:/mnt/c/Users/31740/Desktop/newcore/include/linux/atomic/atomic-arch-fallback.h **** #define raw_cmpxchg64_acquire(...) raw_cmpxchg64_acquire_not_implemented()
 117:/mnt/c/Users/31740/Desktop/newcore/include/linux/atomic/atomic-arch-fallback.h **** #endif
 118:/mnt/c/Users/31740/Desktop/newcore/include/linux/atomic/atomic-arch-fallback.h **** 
 119:/mnt/c/Users/31740/Desktop/newcore/include/linux/atomic/atomic-arch-fallback.h **** #if defined(arch_cmpxchg64_release)
 120:/mnt/c/Users/31740/Desktop/newcore/include/linux/atomic/atomic-arch-fallback.h **** #define raw_cmpxchg64_release arch_cmpxchg64_release
 121:/mnt/c/Users/31740/Desktop/newcore/include/linux/atomic/atomic-arch-fallback.h **** #elif defined(arch_cmpxchg64_relaxed)
 122:/mnt/c/Users/31740/Desktop/newcore/include/linux/atomic/atomic-arch-fallback.h **** #define raw_cmpxchg64_release(...) \
 123:/mnt/c/Users/31740/Desktop/newcore/include/linux/atomic/atomic-arch-fallback.h **** 	__atomic_op_release(arch_cmpxchg64, __VA_ARGS__)
 124:/mnt/c/Users/31740/Desktop/newcore/include/linux/atomic/atomic-arch-fallback.h **** #elif defined(arch_cmpxchg64)
 125:/mnt/c/Users/31740/Desktop/newcore/include/linux/atomic/atomic-arch-fallback.h **** #define raw_cmpxchg64_release arch_cmpxchg64
 126:/mnt/c/Users/31740/Desktop/newcore/include/linux/atomic/atomic-arch-fallback.h **** #else
 127:/mnt/c/Users/31740/Desktop/newcore/include/linux/atomic/atomic-arch-fallback.h **** extern void raw_cmpxchg64_release_not_implemented(void);
 128:/mnt/c/Users/31740/Desktop/newcore/include/linux/atomic/atomic-arch-fallback.h **** #define raw_cmpxchg64_release(...) raw_cmpxchg64_release_not_implemented()
 129:/mnt/c/Users/31740/Desktop/newcore/include/linux/atomic/atomic-arch-fallback.h **** #endif
 130:/mnt/c/Users/31740/Desktop/newcore/include/linux/atomic/atomic-arch-fallback.h **** 
 131:/mnt/c/Users/31740/Desktop/newcore/include/linux/atomic/atomic-arch-fallback.h **** #if defined(arch_cmpxchg64_relaxed)
 132:/mnt/c/Users/31740/Desktop/newcore/include/linux/atomic/atomic-arch-fallback.h **** #define raw_cmpxchg64_relaxed arch_cmpxchg64_relaxed
 133:/mnt/c/Users/31740/Desktop/newcore/include/linux/atomic/atomic-arch-fallback.h **** #elif defined(arch_cmpxchg64)
 134:/mnt/c/Users/31740/Desktop/newcore/include/linux/atomic/atomic-arch-fallback.h **** #define raw_cmpxchg64_relaxed arch_cmpxchg64
 135:/mnt/c/Users/31740/Desktop/newcore/include/linux/atomic/atomic-arch-fallback.h **** #else
 136:/mnt/c/Users/31740/Desktop/newcore/include/linux/atomic/atomic-arch-fallback.h **** extern void raw_cmpxchg64_relaxed_not_implemented(void);
 137:/mnt/c/Users/31740/Desktop/newcore/include/linux/atomic/atomic-arch-fallback.h **** #define raw_cmpxchg64_relaxed(...) raw_cmpxchg64_relaxed_not_implemented()
 138:/mnt/c/Users/31740/Desktop/newcore/include/linux/atomic/atomic-arch-fallback.h **** #endif
 139:/mnt/c/Users/31740/Desktop/newcore/include/linux/atomic/atomic-arch-fallback.h **** 
 140:/mnt/c/Users/31740/Desktop/newcore/include/linux/atomic/atomic-arch-fallback.h **** #if defined(arch_cmpxchg128)
 141:/mnt/c/Users/31740/Desktop/newcore/include/linux/atomic/atomic-arch-fallback.h **** #define raw_cmpxchg128 arch_cmpxchg128
 142:/mnt/c/Users/31740/Desktop/newcore/include/linux/atomic/atomic-arch-fallback.h **** #elif defined(arch_cmpxchg128_relaxed)
 143:/mnt/c/Users/31740/Desktop/newcore/include/linux/atomic/atomic-arch-fallback.h **** #define raw_cmpxchg128(...) \
 144:/mnt/c/Users/31740/Desktop/newcore/include/linux/atomic/atomic-arch-fallback.h **** 	__atomic_op_fence(arch_cmpxchg128, __VA_ARGS__)
 145:/mnt/c/Users/31740/Desktop/newcore/include/linux/atomic/atomic-arch-fallback.h **** #else
 146:/mnt/c/Users/31740/Desktop/newcore/include/linux/atomic/atomic-arch-fallback.h **** extern void raw_cmpxchg128_not_implemented(void);
 147:/mnt/c/Users/31740/Desktop/newcore/include/linux/atomic/atomic-arch-fallback.h **** #define raw_cmpxchg128(...) raw_cmpxchg128_not_implemented()
 148:/mnt/c/Users/31740/Desktop/newcore/include/linux/atomic/atomic-arch-fallback.h **** #endif
 149:/mnt/c/Users/31740/Desktop/newcore/include/linux/atomic/atomic-arch-fallback.h **** 
 150:/mnt/c/Users/31740/Desktop/newcore/include/linux/atomic/atomic-arch-fallback.h **** #if defined(arch_cmpxchg128_acquire)
 151:/mnt/c/Users/31740/Desktop/newcore/include/linux/atomic/atomic-arch-fallback.h **** #define raw_cmpxchg128_acquire arch_cmpxchg128_acquire
 152:/mnt/c/Users/31740/Desktop/newcore/include/linux/atomic/atomic-arch-fallback.h **** #elif defined(arch_cmpxchg128_relaxed)
 153:/mnt/c/Users/31740/Desktop/newcore/include/linux/atomic/atomic-arch-fallback.h **** #define raw_cmpxchg128_acquire(...) \
 154:/mnt/c/Users/31740/Desktop/newcore/include/linux/atomic/atomic-arch-fallback.h **** 	__atomic_op_acquire(arch_cmpxchg128, __VA_ARGS__)
 155:/mnt/c/Users/31740/Desktop/newcore/include/linux/atomic/atomic-arch-fallback.h **** #elif defined(arch_cmpxchg128)
 156:/mnt/c/Users/31740/Desktop/newcore/include/linux/atomic/atomic-arch-fallback.h **** #define raw_cmpxchg128_acquire arch_cmpxchg128
 157:/mnt/c/Users/31740/Desktop/newcore/include/linux/atomic/atomic-arch-fallback.h **** #else
 158:/mnt/c/Users/31740/Desktop/newcore/include/linux/atomic/atomic-arch-fallback.h **** extern void raw_cmpxchg128_acquire_not_implemented(void);
 159:/mnt/c/Users/31740/Desktop/newcore/include/linux/atomic/atomic-arch-fallback.h **** #define raw_cmpxchg128_acquire(...) raw_cmpxchg128_acquire_not_implemented()
 160:/mnt/c/Users/31740/Desktop/newcore/include/linux/atomic/atomic-arch-fallback.h **** #endif
 161:/mnt/c/Users/31740/Desktop/newcore/include/linux/atomic/atomic-arch-fallback.h **** 
 162:/mnt/c/Users/31740/Desktop/newcore/include/linux/atomic/atomic-arch-fallback.h **** #if defined(arch_cmpxchg128_release)
ARM GAS  /tmp/cctjQXNb.s 			page 17


 163:/mnt/c/Users/31740/Desktop/newcore/include/linux/atomic/atomic-arch-fallback.h **** #define raw_cmpxchg128_release arch_cmpxchg128_release
 164:/mnt/c/Users/31740/Desktop/newcore/include/linux/atomic/atomic-arch-fallback.h **** #elif defined(arch_cmpxchg128_relaxed)
 165:/mnt/c/Users/31740/Desktop/newcore/include/linux/atomic/atomic-arch-fallback.h **** #define raw_cmpxchg128_release(...) \
 166:/mnt/c/Users/31740/Desktop/newcore/include/linux/atomic/atomic-arch-fallback.h **** 	__atomic_op_release(arch_cmpxchg128, __VA_ARGS__)
 167:/mnt/c/Users/31740/Desktop/newcore/include/linux/atomic/atomic-arch-fallback.h **** #elif defined(arch_cmpxchg128)
 168:/mnt/c/Users/31740/Desktop/newcore/include/linux/atomic/atomic-arch-fallback.h **** #define raw_cmpxchg128_release arch_cmpxchg128
 169:/mnt/c/Users/31740/Desktop/newcore/include/linux/atomic/atomic-arch-fallback.h **** #else
 170:/mnt/c/Users/31740/Desktop/newcore/include/linux/atomic/atomic-arch-fallback.h **** extern void raw_cmpxchg128_release_not_implemented(void);
 171:/mnt/c/Users/31740/Desktop/newcore/include/linux/atomic/atomic-arch-fallback.h **** #define raw_cmpxchg128_release(...) raw_cmpxchg128_release_not_implemented()
 172:/mnt/c/Users/31740/Desktop/newcore/include/linux/atomic/atomic-arch-fallback.h **** #endif
 173:/mnt/c/Users/31740/Desktop/newcore/include/linux/atomic/atomic-arch-fallback.h **** 
 174:/mnt/c/Users/31740/Desktop/newcore/include/linux/atomic/atomic-arch-fallback.h **** #if defined(arch_cmpxchg128_relaxed)
 175:/mnt/c/Users/31740/Desktop/newcore/include/linux/atomic/atomic-arch-fallback.h **** #define raw_cmpxchg128_relaxed arch_cmpxchg128_relaxed
 176:/mnt/c/Users/31740/Desktop/newcore/include/linux/atomic/atomic-arch-fallback.h **** #elif defined(arch_cmpxchg128)
 177:/mnt/c/Users/31740/Desktop/newcore/include/linux/atomic/atomic-arch-fallback.h **** #define raw_cmpxchg128_relaxed arch_cmpxchg128
 178:/mnt/c/Users/31740/Desktop/newcore/include/linux/atomic/atomic-arch-fallback.h **** #else
 179:/mnt/c/Users/31740/Desktop/newcore/include/linux/atomic/atomic-arch-fallback.h **** extern void raw_cmpxchg128_relaxed_not_implemented(void);
 180:/mnt/c/Users/31740/Desktop/newcore/include/linux/atomic/atomic-arch-fallback.h **** #define raw_cmpxchg128_relaxed(...) raw_cmpxchg128_relaxed_not_implemented()
 181:/mnt/c/Users/31740/Desktop/newcore/include/linux/atomic/atomic-arch-fallback.h **** #endif
 182:/mnt/c/Users/31740/Desktop/newcore/include/linux/atomic/atomic-arch-fallback.h **** 
 183:/mnt/c/Users/31740/Desktop/newcore/include/linux/atomic/atomic-arch-fallback.h **** 
 184:/mnt/c/Users/31740/Desktop/newcore/include/linux/atomic/atomic-arch-fallback.h **** 
 185:/mnt/c/Users/31740/Desktop/newcore/include/linux/atomic/atomic-arch-fallback.h **** 
 186:/mnt/c/Users/31740/Desktop/newcore/include/linux/atomic/atomic-arch-fallback.h **** 
 187:/mnt/c/Users/31740/Desktop/newcore/include/linux/atomic/atomic-arch-fallback.h **** 
 188:/mnt/c/Users/31740/Desktop/newcore/include/linux/atomic/atomic-arch-fallback.h **** 
 189:/mnt/c/Users/31740/Desktop/newcore/include/linux/atomic/atomic-arch-fallback.h **** #if defined(arch_try_cmpxchg)
 190:/mnt/c/Users/31740/Desktop/newcore/include/linux/atomic/atomic-arch-fallback.h **** #define raw_try_cmpxchg arch_try_cmpxchg
 191:/mnt/c/Users/31740/Desktop/newcore/include/linux/atomic/atomic-arch-fallback.h **** #elif defined(arch_try_cmpxchg_relaxed)
 192:/mnt/c/Users/31740/Desktop/newcore/include/linux/atomic/atomic-arch-fallback.h **** #define raw_try_cmpxchg(...) \
 193:/mnt/c/Users/31740/Desktop/newcore/include/linux/atomic/atomic-arch-fallback.h **** 	__atomic_op_fence(arch_try_cmpxchg, __VA_ARGS__)
 194:/mnt/c/Users/31740/Desktop/newcore/include/linux/atomic/atomic-arch-fallback.h **** #else
 195:/mnt/c/Users/31740/Desktop/newcore/include/linux/atomic/atomic-arch-fallback.h **** #define raw_try_cmpxchg(_ptr, _oldp, _new) \
 196:/mnt/c/Users/31740/Desktop/newcore/include/linux/atomic/atomic-arch-fallback.h **** ({ \
 197:/mnt/c/Users/31740/Desktop/newcore/include/linux/atomic/atomic-arch-fallback.h **** 	typeof(*(_ptr)) *___op = (_oldp), ___o = *___op, ___r; \
 198:/mnt/c/Users/31740/Desktop/newcore/include/linux/atomic/atomic-arch-fallback.h **** 	___r = raw_cmpxchg((_ptr), ___o, (_new)); \
 199:/mnt/c/Users/31740/Desktop/newcore/include/linux/atomic/atomic-arch-fallback.h **** 	if (unlikely(___r != ___o)) \
 200:/mnt/c/Users/31740/Desktop/newcore/include/linux/atomic/atomic-arch-fallback.h **** 		*___op = ___r; \
 201:/mnt/c/Users/31740/Desktop/newcore/include/linux/atomic/atomic-arch-fallback.h **** 	likely(___r == ___o); \
 202:/mnt/c/Users/31740/Desktop/newcore/include/linux/atomic/atomic-arch-fallback.h **** })
 203:/mnt/c/Users/31740/Desktop/newcore/include/linux/atomic/atomic-arch-fallback.h **** #endif
 204:/mnt/c/Users/31740/Desktop/newcore/include/linux/atomic/atomic-arch-fallback.h **** 
 205:/mnt/c/Users/31740/Desktop/newcore/include/linux/atomic/atomic-arch-fallback.h **** #if defined(arch_try_cmpxchg_acquire)
 206:/mnt/c/Users/31740/Desktop/newcore/include/linux/atomic/atomic-arch-fallback.h **** #define raw_try_cmpxchg_acquire arch_try_cmpxchg_acquire
 207:/mnt/c/Users/31740/Desktop/newcore/include/linux/atomic/atomic-arch-fallback.h **** #elif defined(arch_try_cmpxchg_relaxed)
 208:/mnt/c/Users/31740/Desktop/newcore/include/linux/atomic/atomic-arch-fallback.h **** #define raw_try_cmpxchg_acquire(...) \
 209:/mnt/c/Users/31740/Desktop/newcore/include/linux/atomic/atomic-arch-fallback.h **** 	__atomic_op_acquire(arch_try_cmpxchg, __VA_ARGS__)
 210:/mnt/c/Users/31740/Desktop/newcore/include/linux/atomic/atomic-arch-fallback.h **** #elif defined(arch_try_cmpxchg)
 211:/mnt/c/Users/31740/Desktop/newcore/include/linux/atomic/atomic-arch-fallback.h **** #define raw_try_cmpxchg_acquire arch_try_cmpxchg
 212:/mnt/c/Users/31740/Desktop/newcore/include/linux/atomic/atomic-arch-fallback.h **** #else
 213:/mnt/c/Users/31740/Desktop/newcore/include/linux/atomic/atomic-arch-fallback.h **** #define raw_try_cmpxchg_acquire(_ptr, _oldp, _new) \
 214:/mnt/c/Users/31740/Desktop/newcore/include/linux/atomic/atomic-arch-fallback.h **** ({ \
 215:/mnt/c/Users/31740/Desktop/newcore/include/linux/atomic/atomic-arch-fallback.h **** 	typeof(*(_ptr)) *___op = (_oldp), ___o = *___op, ___r; \
 216:/mnt/c/Users/31740/Desktop/newcore/include/linux/atomic/atomic-arch-fallback.h **** 	___r = raw_cmpxchg_acquire((_ptr), ___o, (_new)); \
 217:/mnt/c/Users/31740/Desktop/newcore/include/linux/atomic/atomic-arch-fallback.h **** 	if (unlikely(___r != ___o)) \
 218:/mnt/c/Users/31740/Desktop/newcore/include/linux/atomic/atomic-arch-fallback.h **** 		*___op = ___r; \
 219:/mnt/c/Users/31740/Desktop/newcore/include/linux/atomic/atomic-arch-fallback.h **** 	likely(___r == ___o); \
ARM GAS  /tmp/cctjQXNb.s 			page 18


 220:/mnt/c/Users/31740/Desktop/newcore/include/linux/atomic/atomic-arch-fallback.h **** })
 221:/mnt/c/Users/31740/Desktop/newcore/include/linux/atomic/atomic-arch-fallback.h **** #endif
 222:/mnt/c/Users/31740/Desktop/newcore/include/linux/atomic/atomic-arch-fallback.h **** 
 223:/mnt/c/Users/31740/Desktop/newcore/include/linux/atomic/atomic-arch-fallback.h **** #if defined(arch_try_cmpxchg_release)
 224:/mnt/c/Users/31740/Desktop/newcore/include/linux/atomic/atomic-arch-fallback.h **** #define raw_try_cmpxchg_release arch_try_cmpxchg_release
 225:/mnt/c/Users/31740/Desktop/newcore/include/linux/atomic/atomic-arch-fallback.h **** #elif defined(arch_try_cmpxchg_relaxed)
 226:/mnt/c/Users/31740/Desktop/newcore/include/linux/atomic/atomic-arch-fallback.h **** #define raw_try_cmpxchg_release(...) \
 227:/mnt/c/Users/31740/Desktop/newcore/include/linux/atomic/atomic-arch-fallback.h **** 	__atomic_op_release(arch_try_cmpxchg, __VA_ARGS__)
 228:/mnt/c/Users/31740/Desktop/newcore/include/linux/atomic/atomic-arch-fallback.h **** #elif defined(arch_try_cmpxchg)
 229:/mnt/c/Users/31740/Desktop/newcore/include/linux/atomic/atomic-arch-fallback.h **** #define raw_try_cmpxchg_release arch_try_cmpxchg
 230:/mnt/c/Users/31740/Desktop/newcore/include/linux/atomic/atomic-arch-fallback.h **** #else
 231:/mnt/c/Users/31740/Desktop/newcore/include/linux/atomic/atomic-arch-fallback.h **** #define raw_try_cmpxchg_release(_ptr, _oldp, _new) \
 232:/mnt/c/Users/31740/Desktop/newcore/include/linux/atomic/atomic-arch-fallback.h **** ({ \
 233:/mnt/c/Users/31740/Desktop/newcore/include/linux/atomic/atomic-arch-fallback.h **** 	typeof(*(_ptr)) *___op = (_oldp), ___o = *___op, ___r; \
 234:/mnt/c/Users/31740/Desktop/newcore/include/linux/atomic/atomic-arch-fallback.h **** 	___r = raw_cmpxchg_release((_ptr), ___o, (_new)); \
 235:/mnt/c/Users/31740/Desktop/newcore/include/linux/atomic/atomic-arch-fallback.h **** 	if (unlikely(___r != ___o)) \
 236:/mnt/c/Users/31740/Desktop/newcore/include/linux/atomic/atomic-arch-fallback.h **** 		*___op = ___r; \
 237:/mnt/c/Users/31740/Desktop/newcore/include/linux/atomic/atomic-arch-fallback.h **** 	likely(___r == ___o); \
 238:/mnt/c/Users/31740/Desktop/newcore/include/linux/atomic/atomic-arch-fallback.h **** })
 239:/mnt/c/Users/31740/Desktop/newcore/include/linux/atomic/atomic-arch-fallback.h **** #endif
 240:/mnt/c/Users/31740/Desktop/newcore/include/linux/atomic/atomic-arch-fallback.h **** 
 241:/mnt/c/Users/31740/Desktop/newcore/include/linux/atomic/atomic-arch-fallback.h **** #if defined(arch_try_cmpxchg_relaxed)
 242:/mnt/c/Users/31740/Desktop/newcore/include/linux/atomic/atomic-arch-fallback.h **** #define raw_try_cmpxchg_relaxed arch_try_cmpxchg_relaxed
 243:/mnt/c/Users/31740/Desktop/newcore/include/linux/atomic/atomic-arch-fallback.h **** #elif defined(arch_try_cmpxchg)
 244:/mnt/c/Users/31740/Desktop/newcore/include/linux/atomic/atomic-arch-fallback.h **** #define raw_try_cmpxchg_relaxed arch_try_cmpxchg
 245:/mnt/c/Users/31740/Desktop/newcore/include/linux/atomic/atomic-arch-fallback.h **** #else
 246:/mnt/c/Users/31740/Desktop/newcore/include/linux/atomic/atomic-arch-fallback.h **** #define raw_try_cmpxchg_relaxed(_ptr, _oldp, _new) \
 247:/mnt/c/Users/31740/Desktop/newcore/include/linux/atomic/atomic-arch-fallback.h **** ({ \
 248:/mnt/c/Users/31740/Desktop/newcore/include/linux/atomic/atomic-arch-fallback.h **** 	typeof(*(_ptr)) *___op = (_oldp), ___o = *___op, ___r; \
 249:/mnt/c/Users/31740/Desktop/newcore/include/linux/atomic/atomic-arch-fallback.h **** 	___r = raw_cmpxchg_relaxed((_ptr), ___o, (_new)); \
 250:/mnt/c/Users/31740/Desktop/newcore/include/linux/atomic/atomic-arch-fallback.h **** 	if (unlikely(___r != ___o)) \
 251:/mnt/c/Users/31740/Desktop/newcore/include/linux/atomic/atomic-arch-fallback.h **** 		*___op = ___r; \
 252:/mnt/c/Users/31740/Desktop/newcore/include/linux/atomic/atomic-arch-fallback.h **** 	likely(___r == ___o); \
 253:/mnt/c/Users/31740/Desktop/newcore/include/linux/atomic/atomic-arch-fallback.h **** })
 254:/mnt/c/Users/31740/Desktop/newcore/include/linux/atomic/atomic-arch-fallback.h **** #endif
 255:/mnt/c/Users/31740/Desktop/newcore/include/linux/atomic/atomic-arch-fallback.h **** 
 256:/mnt/c/Users/31740/Desktop/newcore/include/linux/atomic/atomic-arch-fallback.h **** #if defined(arch_try_cmpxchg64)
 257:/mnt/c/Users/31740/Desktop/newcore/include/linux/atomic/atomic-arch-fallback.h **** #define raw_try_cmpxchg64 arch_try_cmpxchg64
 258:/mnt/c/Users/31740/Desktop/newcore/include/linux/atomic/atomic-arch-fallback.h **** #elif defined(arch_try_cmpxchg64_relaxed)
 259:/mnt/c/Users/31740/Desktop/newcore/include/linux/atomic/atomic-arch-fallback.h **** #define raw_try_cmpxchg64(...) \
 260:/mnt/c/Users/31740/Desktop/newcore/include/linux/atomic/atomic-arch-fallback.h **** 	__atomic_op_fence(arch_try_cmpxchg64, __VA_ARGS__)
 261:/mnt/c/Users/31740/Desktop/newcore/include/linux/atomic/atomic-arch-fallback.h **** #else
 262:/mnt/c/Users/31740/Desktop/newcore/include/linux/atomic/atomic-arch-fallback.h **** #define raw_try_cmpxchg64(_ptr, _oldp, _new) \
 263:/mnt/c/Users/31740/Desktop/newcore/include/linux/atomic/atomic-arch-fallback.h **** ({ \
 264:/mnt/c/Users/31740/Desktop/newcore/include/linux/atomic/atomic-arch-fallback.h **** 	typeof(*(_ptr)) *___op = (_oldp), ___o = *___op, ___r; \
 265:/mnt/c/Users/31740/Desktop/newcore/include/linux/atomic/atomic-arch-fallback.h **** 	___r = raw_cmpxchg64((_ptr), ___o, (_new)); \
 266:/mnt/c/Users/31740/Desktop/newcore/include/linux/atomic/atomic-arch-fallback.h **** 	if (unlikely(___r != ___o)) \
 267:/mnt/c/Users/31740/Desktop/newcore/include/linux/atomic/atomic-arch-fallback.h **** 		*___op = ___r; \
 268:/mnt/c/Users/31740/Desktop/newcore/include/linux/atomic/atomic-arch-fallback.h **** 	likely(___r == ___o); \
 269:/mnt/c/Users/31740/Desktop/newcore/include/linux/atomic/atomic-arch-fallback.h **** })
 270:/mnt/c/Users/31740/Desktop/newcore/include/linux/atomic/atomic-arch-fallback.h **** #endif
 271:/mnt/c/Users/31740/Desktop/newcore/include/linux/atomic/atomic-arch-fallback.h **** 
 272:/mnt/c/Users/31740/Desktop/newcore/include/linux/atomic/atomic-arch-fallback.h **** #if defined(arch_try_cmpxchg64_acquire)
 273:/mnt/c/Users/31740/Desktop/newcore/include/linux/atomic/atomic-arch-fallback.h **** #define raw_try_cmpxchg64_acquire arch_try_cmpxchg64_acquire
 274:/mnt/c/Users/31740/Desktop/newcore/include/linux/atomic/atomic-arch-fallback.h **** #elif defined(arch_try_cmpxchg64_relaxed)
 275:/mnt/c/Users/31740/Desktop/newcore/include/linux/atomic/atomic-arch-fallback.h **** #define raw_try_cmpxchg64_acquire(...) \
 276:/mnt/c/Users/31740/Desktop/newcore/include/linux/atomic/atomic-arch-fallback.h **** 	__atomic_op_acquire(arch_try_cmpxchg64, __VA_ARGS__)
ARM GAS  /tmp/cctjQXNb.s 			page 19


 277:/mnt/c/Users/31740/Desktop/newcore/include/linux/atomic/atomic-arch-fallback.h **** #elif defined(arch_try_cmpxchg64)
 278:/mnt/c/Users/31740/Desktop/newcore/include/linux/atomic/atomic-arch-fallback.h **** #define raw_try_cmpxchg64_acquire arch_try_cmpxchg64
 279:/mnt/c/Users/31740/Desktop/newcore/include/linux/atomic/atomic-arch-fallback.h **** #else
 280:/mnt/c/Users/31740/Desktop/newcore/include/linux/atomic/atomic-arch-fallback.h **** #define raw_try_cmpxchg64_acquire(_ptr, _oldp, _new) \
 281:/mnt/c/Users/31740/Desktop/newcore/include/linux/atomic/atomic-arch-fallback.h **** ({ \
 282:/mnt/c/Users/31740/Desktop/newcore/include/linux/atomic/atomic-arch-fallback.h **** 	typeof(*(_ptr)) *___op = (_oldp), ___o = *___op, ___r; \
 283:/mnt/c/Users/31740/Desktop/newcore/include/linux/atomic/atomic-arch-fallback.h **** 	___r = raw_cmpxchg64_acquire((_ptr), ___o, (_new)); \
 284:/mnt/c/Users/31740/Desktop/newcore/include/linux/atomic/atomic-arch-fallback.h **** 	if (unlikely(___r != ___o)) \
 285:/mnt/c/Users/31740/Desktop/newcore/include/linux/atomic/atomic-arch-fallback.h **** 		*___op = ___r; \
 286:/mnt/c/Users/31740/Desktop/newcore/include/linux/atomic/atomic-arch-fallback.h **** 	likely(___r == ___o); \
 287:/mnt/c/Users/31740/Desktop/newcore/include/linux/atomic/atomic-arch-fallback.h **** })
 288:/mnt/c/Users/31740/Desktop/newcore/include/linux/atomic/atomic-arch-fallback.h **** #endif
 289:/mnt/c/Users/31740/Desktop/newcore/include/linux/atomic/atomic-arch-fallback.h **** 
 290:/mnt/c/Users/31740/Desktop/newcore/include/linux/atomic/atomic-arch-fallback.h **** #if defined(arch_try_cmpxchg64_release)
 291:/mnt/c/Users/31740/Desktop/newcore/include/linux/atomic/atomic-arch-fallback.h **** #define raw_try_cmpxchg64_release arch_try_cmpxchg64_release
 292:/mnt/c/Users/31740/Desktop/newcore/include/linux/atomic/atomic-arch-fallback.h **** #elif defined(arch_try_cmpxchg64_relaxed)
 293:/mnt/c/Users/31740/Desktop/newcore/include/linux/atomic/atomic-arch-fallback.h **** #define raw_try_cmpxchg64_release(...) \
 294:/mnt/c/Users/31740/Desktop/newcore/include/linux/atomic/atomic-arch-fallback.h **** 	__atomic_op_release(arch_try_cmpxchg64, __VA_ARGS__)
 295:/mnt/c/Users/31740/Desktop/newcore/include/linux/atomic/atomic-arch-fallback.h **** #elif defined(arch_try_cmpxchg64)
 296:/mnt/c/Users/31740/Desktop/newcore/include/linux/atomic/atomic-arch-fallback.h **** #define raw_try_cmpxchg64_release arch_try_cmpxchg64
 297:/mnt/c/Users/31740/Desktop/newcore/include/linux/atomic/atomic-arch-fallback.h **** #else
 298:/mnt/c/Users/31740/Desktop/newcore/include/linux/atomic/atomic-arch-fallback.h **** #define raw_try_cmpxchg64_release(_ptr, _oldp, _new) \
 299:/mnt/c/Users/31740/Desktop/newcore/include/linux/atomic/atomic-arch-fallback.h **** ({ \
 300:/mnt/c/Users/31740/Desktop/newcore/include/linux/atomic/atomic-arch-fallback.h **** 	typeof(*(_ptr)) *___op = (_oldp), ___o = *___op, ___r; \
 301:/mnt/c/Users/31740/Desktop/newcore/include/linux/atomic/atomic-arch-fallback.h **** 	___r = raw_cmpxchg64_release((_ptr), ___o, (_new)); \
 302:/mnt/c/Users/31740/Desktop/newcore/include/linux/atomic/atomic-arch-fallback.h **** 	if (unlikely(___r != ___o)) \
 303:/mnt/c/Users/31740/Desktop/newcore/include/linux/atomic/atomic-arch-fallback.h **** 		*___op = ___r; \
 304:/mnt/c/Users/31740/Desktop/newcore/include/linux/atomic/atomic-arch-fallback.h **** 	likely(___r == ___o); \
 305:/mnt/c/Users/31740/Desktop/newcore/include/linux/atomic/atomic-arch-fallback.h **** })
 306:/mnt/c/Users/31740/Desktop/newcore/include/linux/atomic/atomic-arch-fallback.h **** #endif
 307:/mnt/c/Users/31740/Desktop/newcore/include/linux/atomic/atomic-arch-fallback.h **** 
 308:/mnt/c/Users/31740/Desktop/newcore/include/linux/atomic/atomic-arch-fallback.h **** #if defined(arch_try_cmpxchg64_relaxed)
 309:/mnt/c/Users/31740/Desktop/newcore/include/linux/atomic/atomic-arch-fallback.h **** #define raw_try_cmpxchg64_relaxed arch_try_cmpxchg64_relaxed
 310:/mnt/c/Users/31740/Desktop/newcore/include/linux/atomic/atomic-arch-fallback.h **** #elif defined(arch_try_cmpxchg64)
 311:/mnt/c/Users/31740/Desktop/newcore/include/linux/atomic/atomic-arch-fallback.h **** #define raw_try_cmpxchg64_relaxed arch_try_cmpxchg64
 312:/mnt/c/Users/31740/Desktop/newcore/include/linux/atomic/atomic-arch-fallback.h **** #else
 313:/mnt/c/Users/31740/Desktop/newcore/include/linux/atomic/atomic-arch-fallback.h **** #define raw_try_cmpxchg64_relaxed(_ptr, _oldp, _new) \
 314:/mnt/c/Users/31740/Desktop/newcore/include/linux/atomic/atomic-arch-fallback.h **** ({ \
 315:/mnt/c/Users/31740/Desktop/newcore/include/linux/atomic/atomic-arch-fallback.h **** 	typeof(*(_ptr)) *___op = (_oldp), ___o = *___op, ___r; \
 316:/mnt/c/Users/31740/Desktop/newcore/include/linux/atomic/atomic-arch-fallback.h **** 	___r = raw_cmpxchg64_relaxed((_ptr), ___o, (_new)); \
 317:/mnt/c/Users/31740/Desktop/newcore/include/linux/atomic/atomic-arch-fallback.h **** 	if (unlikely(___r != ___o)) \
 318:/mnt/c/Users/31740/Desktop/newcore/include/linux/atomic/atomic-arch-fallback.h **** 		*___op = ___r; \
 319:/mnt/c/Users/31740/Desktop/newcore/include/linux/atomic/atomic-arch-fallback.h **** 	likely(___r == ___o); \
 320:/mnt/c/Users/31740/Desktop/newcore/include/linux/atomic/atomic-arch-fallback.h **** })
 321:/mnt/c/Users/31740/Desktop/newcore/include/linux/atomic/atomic-arch-fallback.h **** #endif
 322:/mnt/c/Users/31740/Desktop/newcore/include/linux/atomic/atomic-arch-fallback.h **** 
 323:/mnt/c/Users/31740/Desktop/newcore/include/linux/atomic/atomic-arch-fallback.h **** #if defined(arch_try_cmpxchg128)
 324:/mnt/c/Users/31740/Desktop/newcore/include/linux/atomic/atomic-arch-fallback.h **** #define raw_try_cmpxchg128 arch_try_cmpxchg128
 325:/mnt/c/Users/31740/Desktop/newcore/include/linux/atomic/atomic-arch-fallback.h **** #elif defined(arch_try_cmpxchg128_relaxed)
 326:/mnt/c/Users/31740/Desktop/newcore/include/linux/atomic/atomic-arch-fallback.h **** #define raw_try_cmpxchg128(...) \
 327:/mnt/c/Users/31740/Desktop/newcore/include/linux/atomic/atomic-arch-fallback.h **** 	__atomic_op_fence(arch_try_cmpxchg128, __VA_ARGS__)
 328:/mnt/c/Users/31740/Desktop/newcore/include/linux/atomic/atomic-arch-fallback.h **** #else
 329:/mnt/c/Users/31740/Desktop/newcore/include/linux/atomic/atomic-arch-fallback.h **** #define raw_try_cmpxchg128(_ptr, _oldp, _new) \
 330:/mnt/c/Users/31740/Desktop/newcore/include/linux/atomic/atomic-arch-fallback.h **** ({ \
 331:/mnt/c/Users/31740/Desktop/newcore/include/linux/atomic/atomic-arch-fallback.h **** 	typeof(*(_ptr)) *___op = (_oldp), ___o = *___op, ___r; \
 332:/mnt/c/Users/31740/Desktop/newcore/include/linux/atomic/atomic-arch-fallback.h **** 	___r = raw_cmpxchg128((_ptr), ___o, (_new)); \
 333:/mnt/c/Users/31740/Desktop/newcore/include/linux/atomic/atomic-arch-fallback.h **** 	if (unlikely(___r != ___o)) \
ARM GAS  /tmp/cctjQXNb.s 			page 20


 334:/mnt/c/Users/31740/Desktop/newcore/include/linux/atomic/atomic-arch-fallback.h **** 		*___op = ___r; \
 335:/mnt/c/Users/31740/Desktop/newcore/include/linux/atomic/atomic-arch-fallback.h **** 	likely(___r == ___o); \
 336:/mnt/c/Users/31740/Desktop/newcore/include/linux/atomic/atomic-arch-fallback.h **** })
 337:/mnt/c/Users/31740/Desktop/newcore/include/linux/atomic/atomic-arch-fallback.h **** #endif
 338:/mnt/c/Users/31740/Desktop/newcore/include/linux/atomic/atomic-arch-fallback.h **** 
 339:/mnt/c/Users/31740/Desktop/newcore/include/linux/atomic/atomic-arch-fallback.h **** #if defined(arch_try_cmpxchg128_acquire)
 340:/mnt/c/Users/31740/Desktop/newcore/include/linux/atomic/atomic-arch-fallback.h **** #define raw_try_cmpxchg128_acquire arch_try_cmpxchg128_acquire
 341:/mnt/c/Users/31740/Desktop/newcore/include/linux/atomic/atomic-arch-fallback.h **** #elif defined(arch_try_cmpxchg128_relaxed)
 342:/mnt/c/Users/31740/Desktop/newcore/include/linux/atomic/atomic-arch-fallback.h **** #define raw_try_cmpxchg128_acquire(...) \
 343:/mnt/c/Users/31740/Desktop/newcore/include/linux/atomic/atomic-arch-fallback.h **** 	__atomic_op_acquire(arch_try_cmpxchg128, __VA_ARGS__)
 344:/mnt/c/Users/31740/Desktop/newcore/include/linux/atomic/atomic-arch-fallback.h **** #elif defined(arch_try_cmpxchg128)
 345:/mnt/c/Users/31740/Desktop/newcore/include/linux/atomic/atomic-arch-fallback.h **** #define raw_try_cmpxchg128_acquire arch_try_cmpxchg128
 346:/mnt/c/Users/31740/Desktop/newcore/include/linux/atomic/atomic-arch-fallback.h **** #else
 347:/mnt/c/Users/31740/Desktop/newcore/include/linux/atomic/atomic-arch-fallback.h **** #define raw_try_cmpxchg128_acquire(_ptr, _oldp, _new) \
 348:/mnt/c/Users/31740/Desktop/newcore/include/linux/atomic/atomic-arch-fallback.h **** ({ \
 349:/mnt/c/Users/31740/Desktop/newcore/include/linux/atomic/atomic-arch-fallback.h **** 	typeof(*(_ptr)) *___op = (_oldp), ___o = *___op, ___r; \
 350:/mnt/c/Users/31740/Desktop/newcore/include/linux/atomic/atomic-arch-fallback.h **** 	___r = raw_cmpxchg128_acquire((_ptr), ___o, (_new)); \
 351:/mnt/c/Users/31740/Desktop/newcore/include/linux/atomic/atomic-arch-fallback.h **** 	if (unlikely(___r != ___o)) \
 352:/mnt/c/Users/31740/Desktop/newcore/include/linux/atomic/atomic-arch-fallback.h **** 		*___op = ___r; \
 353:/mnt/c/Users/31740/Desktop/newcore/include/linux/atomic/atomic-arch-fallback.h **** 	likely(___r == ___o); \
 354:/mnt/c/Users/31740/Desktop/newcore/include/linux/atomic/atomic-arch-fallback.h **** })
 355:/mnt/c/Users/31740/Desktop/newcore/include/linux/atomic/atomic-arch-fallback.h **** #endif
 356:/mnt/c/Users/31740/Desktop/newcore/include/linux/atomic/atomic-arch-fallback.h **** 
 357:/mnt/c/Users/31740/Desktop/newcore/include/linux/atomic/atomic-arch-fallback.h **** #if defined(arch_try_cmpxchg128_release)
 358:/mnt/c/Users/31740/Desktop/newcore/include/linux/atomic/atomic-arch-fallback.h **** #define raw_try_cmpxchg128_release arch_try_cmpxchg128_release
 359:/mnt/c/Users/31740/Desktop/newcore/include/linux/atomic/atomic-arch-fallback.h **** #elif defined(arch_try_cmpxchg128_relaxed)
 360:/mnt/c/Users/31740/Desktop/newcore/include/linux/atomic/atomic-arch-fallback.h **** #define raw_try_cmpxchg128_release(...) \
 361:/mnt/c/Users/31740/Desktop/newcore/include/linux/atomic/atomic-arch-fallback.h **** 	__atomic_op_release(arch_try_cmpxchg128, __VA_ARGS__)
 362:/mnt/c/Users/31740/Desktop/newcore/include/linux/atomic/atomic-arch-fallback.h **** #elif defined(arch_try_cmpxchg128)
 363:/mnt/c/Users/31740/Desktop/newcore/include/linux/atomic/atomic-arch-fallback.h **** #define raw_try_cmpxchg128_release arch_try_cmpxchg128
 364:/mnt/c/Users/31740/Desktop/newcore/include/linux/atomic/atomic-arch-fallback.h **** #else
 365:/mnt/c/Users/31740/Desktop/newcore/include/linux/atomic/atomic-arch-fallback.h **** #define raw_try_cmpxchg128_release(_ptr, _oldp, _new) \
 366:/mnt/c/Users/31740/Desktop/newcore/include/linux/atomic/atomic-arch-fallback.h **** ({ \
 367:/mnt/c/Users/31740/Desktop/newcore/include/linux/atomic/atomic-arch-fallback.h **** 	typeof(*(_ptr)) *___op = (_oldp), ___o = *___op, ___r; \
 368:/mnt/c/Users/31740/Desktop/newcore/include/linux/atomic/atomic-arch-fallback.h **** 	___r = raw_cmpxchg128_release((_ptr), ___o, (_new)); \
 369:/mnt/c/Users/31740/Desktop/newcore/include/linux/atomic/atomic-arch-fallback.h **** 	if (unlikely(___r != ___o)) \
 370:/mnt/c/Users/31740/Desktop/newcore/include/linux/atomic/atomic-arch-fallback.h **** 		*___op = ___r; \
 371:/mnt/c/Users/31740/Desktop/newcore/include/linux/atomic/atomic-arch-fallback.h **** 	likely(___r == ___o); \
 372:/mnt/c/Users/31740/Desktop/newcore/include/linux/atomic/atomic-arch-fallback.h **** })
 373:/mnt/c/Users/31740/Desktop/newcore/include/linux/atomic/atomic-arch-fallback.h **** #endif
 374:/mnt/c/Users/31740/Desktop/newcore/include/linux/atomic/atomic-arch-fallback.h **** 
 375:/mnt/c/Users/31740/Desktop/newcore/include/linux/atomic/atomic-arch-fallback.h **** #if defined(arch_try_cmpxchg128_relaxed)
 376:/mnt/c/Users/31740/Desktop/newcore/include/linux/atomic/atomic-arch-fallback.h **** #define raw_try_cmpxchg128_relaxed arch_try_cmpxchg128_relaxed
 377:/mnt/c/Users/31740/Desktop/newcore/include/linux/atomic/atomic-arch-fallback.h **** #elif defined(arch_try_cmpxchg128)
 378:/mnt/c/Users/31740/Desktop/newcore/include/linux/atomic/atomic-arch-fallback.h **** #define raw_try_cmpxchg128_relaxed arch_try_cmpxchg128
 379:/mnt/c/Users/31740/Desktop/newcore/include/linux/atomic/atomic-arch-fallback.h **** #else
 380:/mnt/c/Users/31740/Desktop/newcore/include/linux/atomic/atomic-arch-fallback.h **** #define raw_try_cmpxchg128_relaxed(_ptr, _oldp, _new) \
 381:/mnt/c/Users/31740/Desktop/newcore/include/linux/atomic/atomic-arch-fallback.h **** ({ \
 382:/mnt/c/Users/31740/Desktop/newcore/include/linux/atomic/atomic-arch-fallback.h **** 	typeof(*(_ptr)) *___op = (_oldp), ___o = *___op, ___r; \
 383:/mnt/c/Users/31740/Desktop/newcore/include/linux/atomic/atomic-arch-fallback.h **** 	___r = raw_cmpxchg128_relaxed((_ptr), ___o, (_new)); \
 384:/mnt/c/Users/31740/Desktop/newcore/include/linux/atomic/atomic-arch-fallback.h **** 	if (unlikely(___r != ___o)) \
 385:/mnt/c/Users/31740/Desktop/newcore/include/linux/atomic/atomic-arch-fallback.h **** 		*___op = ___r; \
 386:/mnt/c/Users/31740/Desktop/newcore/include/linux/atomic/atomic-arch-fallback.h **** 	likely(___r == ___o); \
 387:/mnt/c/Users/31740/Desktop/newcore/include/linux/atomic/atomic-arch-fallback.h **** })
 388:/mnt/c/Users/31740/Desktop/newcore/include/linux/atomic/atomic-arch-fallback.h **** #endif
 389:/mnt/c/Users/31740/Desktop/newcore/include/linux/atomic/atomic-arch-fallback.h **** 
 390:/mnt/c/Users/31740/Desktop/newcore/include/linux/atomic/atomic-arch-fallback.h **** #define raw_cmpxchg_local arch_cmpxchg_local
ARM GAS  /tmp/cctjQXNb.s 			page 21


 391:/mnt/c/Users/31740/Desktop/newcore/include/linux/atomic/atomic-arch-fallback.h **** 
 392:/mnt/c/Users/31740/Desktop/newcore/include/linux/atomic/atomic-arch-fallback.h **** #ifdef arch_try_cmpxchg_local
 393:/mnt/c/Users/31740/Desktop/newcore/include/linux/atomic/atomic-arch-fallback.h **** #define raw_try_cmpxchg_local arch_try_cmpxchg_local
 394:/mnt/c/Users/31740/Desktop/newcore/include/linux/atomic/atomic-arch-fallback.h **** #else
 395:/mnt/c/Users/31740/Desktop/newcore/include/linux/atomic/atomic-arch-fallback.h **** #define raw_try_cmpxchg_local(_ptr, _oldp, _new) \
 396:/mnt/c/Users/31740/Desktop/newcore/include/linux/atomic/atomic-arch-fallback.h **** ({ \
 397:/mnt/c/Users/31740/Desktop/newcore/include/linux/atomic/atomic-arch-fallback.h **** 	typeof(*(_ptr)) *___op = (_oldp), ___o = *___op, ___r; \
 398:/mnt/c/Users/31740/Desktop/newcore/include/linux/atomic/atomic-arch-fallback.h **** 	___r = raw_cmpxchg_local((_ptr), ___o, (_new)); \
 399:/mnt/c/Users/31740/Desktop/newcore/include/linux/atomic/atomic-arch-fallback.h **** 	if (unlikely(___r != ___o)) \
 400:/mnt/c/Users/31740/Desktop/newcore/include/linux/atomic/atomic-arch-fallback.h **** 		*___op = ___r; \
 401:/mnt/c/Users/31740/Desktop/newcore/include/linux/atomic/atomic-arch-fallback.h **** 	likely(___r == ___o); \
 402:/mnt/c/Users/31740/Desktop/newcore/include/linux/atomic/atomic-arch-fallback.h **** })
 403:/mnt/c/Users/31740/Desktop/newcore/include/linux/atomic/atomic-arch-fallback.h **** #endif
 404:/mnt/c/Users/31740/Desktop/newcore/include/linux/atomic/atomic-arch-fallback.h **** 
 405:/mnt/c/Users/31740/Desktop/newcore/include/linux/atomic/atomic-arch-fallback.h **** #define raw_cmpxchg64_local arch_cmpxchg64_local
 406:/mnt/c/Users/31740/Desktop/newcore/include/linux/atomic/atomic-arch-fallback.h **** 
 407:/mnt/c/Users/31740/Desktop/newcore/include/linux/atomic/atomic-arch-fallback.h **** #ifdef arch_try_cmpxchg64_local
 408:/mnt/c/Users/31740/Desktop/newcore/include/linux/atomic/atomic-arch-fallback.h **** #define raw_try_cmpxchg64_local arch_try_cmpxchg64_local
 409:/mnt/c/Users/31740/Desktop/newcore/include/linux/atomic/atomic-arch-fallback.h **** #else
 410:/mnt/c/Users/31740/Desktop/newcore/include/linux/atomic/atomic-arch-fallback.h **** #define raw_try_cmpxchg64_local(_ptr, _oldp, _new) \
 411:/mnt/c/Users/31740/Desktop/newcore/include/linux/atomic/atomic-arch-fallback.h **** ({ \
 412:/mnt/c/Users/31740/Desktop/newcore/include/linux/atomic/atomic-arch-fallback.h **** 	typeof(*(_ptr)) *___op = (_oldp), ___o = *___op, ___r; \
 413:/mnt/c/Users/31740/Desktop/newcore/include/linux/atomic/atomic-arch-fallback.h **** 	___r = raw_cmpxchg64_local((_ptr), ___o, (_new)); \
 414:/mnt/c/Users/31740/Desktop/newcore/include/linux/atomic/atomic-arch-fallback.h **** 	if (unlikely(___r != ___o)) \
 415:/mnt/c/Users/31740/Desktop/newcore/include/linux/atomic/atomic-arch-fallback.h **** 		*___op = ___r; \
 416:/mnt/c/Users/31740/Desktop/newcore/include/linux/atomic/atomic-arch-fallback.h **** 	likely(___r == ___o); \
 417:/mnt/c/Users/31740/Desktop/newcore/include/linux/atomic/atomic-arch-fallback.h **** })
 418:/mnt/c/Users/31740/Desktop/newcore/include/linux/atomic/atomic-arch-fallback.h **** #endif
 419:/mnt/c/Users/31740/Desktop/newcore/include/linux/atomic/atomic-arch-fallback.h **** 
 420:/mnt/c/Users/31740/Desktop/newcore/include/linux/atomic/atomic-arch-fallback.h **** #define raw_cmpxchg128_local arch_cmpxchg128_local
 421:/mnt/c/Users/31740/Desktop/newcore/include/linux/atomic/atomic-arch-fallback.h **** 
 422:/mnt/c/Users/31740/Desktop/newcore/include/linux/atomic/atomic-arch-fallback.h **** #ifdef arch_try_cmpxchg128_local
 423:/mnt/c/Users/31740/Desktop/newcore/include/linux/atomic/atomic-arch-fallback.h **** #define raw_try_cmpxchg128_local arch_try_cmpxchg128_local
 424:/mnt/c/Users/31740/Desktop/newcore/include/linux/atomic/atomic-arch-fallback.h **** #else
 425:/mnt/c/Users/31740/Desktop/newcore/include/linux/atomic/atomic-arch-fallback.h **** #define raw_try_cmpxchg128_local(_ptr, _oldp, _new) \
 426:/mnt/c/Users/31740/Desktop/newcore/include/linux/atomic/atomic-arch-fallback.h **** ({ \
 427:/mnt/c/Users/31740/Desktop/newcore/include/linux/atomic/atomic-arch-fallback.h **** 	typeof(*(_ptr)) *___op = (_oldp), ___o = *___op, ___r; \
 428:/mnt/c/Users/31740/Desktop/newcore/include/linux/atomic/atomic-arch-fallback.h **** 	___r = raw_cmpxchg128_local((_ptr), ___o, (_new)); \
 429:/mnt/c/Users/31740/Desktop/newcore/include/linux/atomic/atomic-arch-fallback.h **** 	if (unlikely(___r != ___o)) \
 430:/mnt/c/Users/31740/Desktop/newcore/include/linux/atomic/atomic-arch-fallback.h **** 		*___op = ___r; \
 431:/mnt/c/Users/31740/Desktop/newcore/include/linux/atomic/atomic-arch-fallback.h **** 	likely(___r == ___o); \
 432:/mnt/c/Users/31740/Desktop/newcore/include/linux/atomic/atomic-arch-fallback.h **** })
 433:/mnt/c/Users/31740/Desktop/newcore/include/linux/atomic/atomic-arch-fallback.h **** #endif
 434:/mnt/c/Users/31740/Desktop/newcore/include/linux/atomic/atomic-arch-fallback.h **** 
 435:/mnt/c/Users/31740/Desktop/newcore/include/linux/atomic/atomic-arch-fallback.h **** #define raw_sync_cmpxchg arch_sync_cmpxchg
 436:/mnt/c/Users/31740/Desktop/newcore/include/linux/atomic/atomic-arch-fallback.h **** 
 437:/mnt/c/Users/31740/Desktop/newcore/include/linux/atomic/atomic-arch-fallback.h **** #ifdef arch_sync_try_cmpxchg
 438:/mnt/c/Users/31740/Desktop/newcore/include/linux/atomic/atomic-arch-fallback.h **** #define raw_sync_try_cmpxchg arch_sync_try_cmpxchg
 439:/mnt/c/Users/31740/Desktop/newcore/include/linux/atomic/atomic-arch-fallback.h **** #else
 440:/mnt/c/Users/31740/Desktop/newcore/include/linux/atomic/atomic-arch-fallback.h **** #define raw_sync_try_cmpxchg(_ptr, _oldp, _new) \
 441:/mnt/c/Users/31740/Desktop/newcore/include/linux/atomic/atomic-arch-fallback.h **** ({ \
 442:/mnt/c/Users/31740/Desktop/newcore/include/linux/atomic/atomic-arch-fallback.h **** 	typeof(*(_ptr)) *___op = (_oldp), ___o = *___op, ___r; \
 443:/mnt/c/Users/31740/Desktop/newcore/include/linux/atomic/atomic-arch-fallback.h **** 	___r = raw_sync_cmpxchg((_ptr), ___o, (_new)); \
 444:/mnt/c/Users/31740/Desktop/newcore/include/linux/atomic/atomic-arch-fallback.h **** 	if (unlikely(___r != ___o)) \
 445:/mnt/c/Users/31740/Desktop/newcore/include/linux/atomic/atomic-arch-fallback.h **** 		*___op = ___r; \
 446:/mnt/c/Users/31740/Desktop/newcore/include/linux/atomic/atomic-arch-fallback.h **** 	likely(___r == ___o); \
 447:/mnt/c/Users/31740/Desktop/newcore/include/linux/atomic/atomic-arch-fallback.h **** })
ARM GAS  /tmp/cctjQXNb.s 			page 22


 448:/mnt/c/Users/31740/Desktop/newcore/include/linux/atomic/atomic-arch-fallback.h **** #endif
 449:/mnt/c/Users/31740/Desktop/newcore/include/linux/atomic/atomic-arch-fallback.h **** 
 450:/mnt/c/Users/31740/Desktop/newcore/include/linux/atomic/atomic-arch-fallback.h **** /**
 451:/mnt/c/Users/31740/Desktop/newcore/include/linux/atomic/atomic-arch-fallback.h ****  * raw_atomic_read() - atomic load with relaxed ordering
 452:/mnt/c/Users/31740/Desktop/newcore/include/linux/atomic/atomic-arch-fallback.h ****  * @v: pointer to atomic_t
 453:/mnt/c/Users/31740/Desktop/newcore/include/linux/atomic/atomic-arch-fallback.h ****  *
 454:/mnt/c/Users/31740/Desktop/newcore/include/linux/atomic/atomic-arch-fallback.h ****  * Atomically loads the value of @v with relaxed ordering.
 455:/mnt/c/Users/31740/Desktop/newcore/include/linux/atomic/atomic-arch-fallback.h ****  *
 456:/mnt/c/Users/31740/Desktop/newcore/include/linux/atomic/atomic-arch-fallback.h ****  * Safe to use in noinstr code; prefer atomic_read() elsewhere.
 457:/mnt/c/Users/31740/Desktop/newcore/include/linux/atomic/atomic-arch-fallback.h ****  *
 458:/mnt/c/Users/31740/Desktop/newcore/include/linux/atomic/atomic-arch-fallback.h ****  * Return: The value loaded from @v.
 459:/mnt/c/Users/31740/Desktop/newcore/include/linux/atomic/atomic-arch-fallback.h ****  */
 460:/mnt/c/Users/31740/Desktop/newcore/include/linux/atomic/atomic-arch-fallback.h **** static __always_inline int
 461:/mnt/c/Users/31740/Desktop/newcore/include/linux/atomic/atomic-arch-fallback.h **** raw_atomic_read(const atomic_t *v)
 462:/mnt/c/Users/31740/Desktop/newcore/include/linux/atomic/atomic-arch-fallback.h **** {
 463:/mnt/c/Users/31740/Desktop/newcore/include/linux/atomic/atomic-arch-fallback.h **** 	return arch_atomic_read(v);
 464:/mnt/c/Users/31740/Desktop/newcore/include/linux/atomic/atomic-arch-fallback.h **** }
 465:/mnt/c/Users/31740/Desktop/newcore/include/linux/atomic/atomic-arch-fallback.h **** 
 466:/mnt/c/Users/31740/Desktop/newcore/include/linux/atomic/atomic-arch-fallback.h **** /**
 467:/mnt/c/Users/31740/Desktop/newcore/include/linux/atomic/atomic-arch-fallback.h ****  * raw_atomic_read_acquire() - atomic load with acquire ordering
 468:/mnt/c/Users/31740/Desktop/newcore/include/linux/atomic/atomic-arch-fallback.h ****  * @v: pointer to atomic_t
 469:/mnt/c/Users/31740/Desktop/newcore/include/linux/atomic/atomic-arch-fallback.h ****  *
 470:/mnt/c/Users/31740/Desktop/newcore/include/linux/atomic/atomic-arch-fallback.h ****  * Atomically loads the value of @v with acquire ordering.
 471:/mnt/c/Users/31740/Desktop/newcore/include/linux/atomic/atomic-arch-fallback.h ****  *
 472:/mnt/c/Users/31740/Desktop/newcore/include/linux/atomic/atomic-arch-fallback.h ****  * Safe to use in noinstr code; prefer atomic_read_acquire() elsewhere.
 473:/mnt/c/Users/31740/Desktop/newcore/include/linux/atomic/atomic-arch-fallback.h ****  *
 474:/mnt/c/Users/31740/Desktop/newcore/include/linux/atomic/atomic-arch-fallback.h ****  * Return: The value loaded from @v.
 475:/mnt/c/Users/31740/Desktop/newcore/include/linux/atomic/atomic-arch-fallback.h ****  */
 476:/mnt/c/Users/31740/Desktop/newcore/include/linux/atomic/atomic-arch-fallback.h **** static __always_inline int
 477:/mnt/c/Users/31740/Desktop/newcore/include/linux/atomic/atomic-arch-fallback.h **** raw_atomic_read_acquire(const atomic_t *v)
 478:/mnt/c/Users/31740/Desktop/newcore/include/linux/atomic/atomic-arch-fallback.h **** {
 479:/mnt/c/Users/31740/Desktop/newcore/include/linux/atomic/atomic-arch-fallback.h **** #if defined(arch_atomic_read_acquire)
 480:/mnt/c/Users/31740/Desktop/newcore/include/linux/atomic/atomic-arch-fallback.h **** 	return arch_atomic_read_acquire(v);
 481:/mnt/c/Users/31740/Desktop/newcore/include/linux/atomic/atomic-arch-fallback.h **** #else
 482:/mnt/c/Users/31740/Desktop/newcore/include/linux/atomic/atomic-arch-fallback.h **** 	int ret;
 483:/mnt/c/Users/31740/Desktop/newcore/include/linux/atomic/atomic-arch-fallback.h **** 
 484:/mnt/c/Users/31740/Desktop/newcore/include/linux/atomic/atomic-arch-fallback.h **** 	if (__native_word(atomic_t)) {
 485:/mnt/c/Users/31740/Desktop/newcore/include/linux/atomic/atomic-arch-fallback.h **** 		ret = smp_load_acquire(&(v)->counter);
 486:/mnt/c/Users/31740/Desktop/newcore/include/linux/atomic/atomic-arch-fallback.h **** 	} else {
 487:/mnt/c/Users/31740/Desktop/newcore/include/linux/atomic/atomic-arch-fallback.h **** 		ret = raw_atomic_read(v);
 488:/mnt/c/Users/31740/Desktop/newcore/include/linux/atomic/atomic-arch-fallback.h **** 		__atomic_acquire_fence();
 489:/mnt/c/Users/31740/Desktop/newcore/include/linux/atomic/atomic-arch-fallback.h **** 	}
 490:/mnt/c/Users/31740/Desktop/newcore/include/linux/atomic/atomic-arch-fallback.h **** 
 491:/mnt/c/Users/31740/Desktop/newcore/include/linux/atomic/atomic-arch-fallback.h **** 	return ret;
 492:/mnt/c/Users/31740/Desktop/newcore/include/linux/atomic/atomic-arch-fallback.h **** #endif
 493:/mnt/c/Users/31740/Desktop/newcore/include/linux/atomic/atomic-arch-fallback.h **** }
 494:/mnt/c/Users/31740/Desktop/newcore/include/linux/atomic/atomic-arch-fallback.h **** 
 495:/mnt/c/Users/31740/Desktop/newcore/include/linux/atomic/atomic-arch-fallback.h **** /**
 496:/mnt/c/Users/31740/Desktop/newcore/include/linux/atomic/atomic-arch-fallback.h ****  * raw_atomic_set() - atomic set with relaxed ordering
 497:/mnt/c/Users/31740/Desktop/newcore/include/linux/atomic/atomic-arch-fallback.h ****  * @v: pointer to atomic_t
 498:/mnt/c/Users/31740/Desktop/newcore/include/linux/atomic/atomic-arch-fallback.h ****  * @i: int value to assign
 499:/mnt/c/Users/31740/Desktop/newcore/include/linux/atomic/atomic-arch-fallback.h ****  *
 500:/mnt/c/Users/31740/Desktop/newcore/include/linux/atomic/atomic-arch-fallback.h ****  * Atomically sets @v to @i with relaxed ordering.
 501:/mnt/c/Users/31740/Desktop/newcore/include/linux/atomic/atomic-arch-fallback.h ****  *
 502:/mnt/c/Users/31740/Desktop/newcore/include/linux/atomic/atomic-arch-fallback.h ****  * Safe to use in noinstr code; prefer atomic_set() elsewhere.
 503:/mnt/c/Users/31740/Desktop/newcore/include/linux/atomic/atomic-arch-fallback.h ****  *
 504:/mnt/c/Users/31740/Desktop/newcore/include/linux/atomic/atomic-arch-fallback.h ****  * Return: Nothing.
ARM GAS  /tmp/cctjQXNb.s 			page 23


 505:/mnt/c/Users/31740/Desktop/newcore/include/linux/atomic/atomic-arch-fallback.h ****  */
 506:/mnt/c/Users/31740/Desktop/newcore/include/linux/atomic/atomic-arch-fallback.h **** static __always_inline void
 507:/mnt/c/Users/31740/Desktop/newcore/include/linux/atomic/atomic-arch-fallback.h **** raw_atomic_set(atomic_t *v, int i)
 192              		.loc 6 507 1 view .LVU51
 193              	.LBB84:
 508:/mnt/c/Users/31740/Desktop/newcore/include/linux/atomic/atomic-arch-fallback.h **** {
 509:/mnt/c/Users/31740/Desktop/newcore/include/linux/atomic/atomic-arch-fallback.h **** 	arch_atomic_set(v, i);
 194              		.loc 6 509 2 view .LVU52
 195              		.loc 6 509 2 view .LVU53
 196              	.LBB85:
 197              		.loc 6 509 2 view .LVU54
 198              		.loc 6 509 2 view .LVU55
 199              	.LBE85:
 200              		.loc 6 509 2 discriminator 2 view .LVU56
 201              		.loc 6 509 2 discriminator 2 view .LVU57
 202              		.loc 6 509 2 discriminator 2 view .LVU58
 203 004a 0122     		movs	r2, #1
 204 004c 6261     		str	r2, [r4, #20]
 205              		.loc 6 509 2 discriminator 2 view .LVU59
 206              		.loc 6 509 2 discriminator 2 view .LVU60
 207              	.LVL14:
 208              		.loc 6 509 2 is_stmt 0 discriminator 2 view .LVU61
 209              	.LBE84:
 210              	.LBE83:
 211              	.LBE82:
  50:/mnt/c/Users/31740/Desktop/newcore/block/bio.c ****     atomic_set(&bio->__bi_cnt, 1);
 212              		.loc 1 50 5 is_stmt 1 view .LVU62
 213              	.LBB86:
 214              	.LBI86:
  65:/mnt/c/Users/31740/Desktop/newcore/include/linux/atomic/atomic-instrumented.h **** {
 215              		.loc 5 65 1 view .LVU63
  67:/mnt/c/Users/31740/Desktop/newcore/include/linux/atomic/atomic-instrumented.h **** 	raw_atomic_set(v, i);
 216              		.loc 5 67 2 view .LVU64
 217              		.loc 5 68 2 view .LVU65
 218              	.LBB87:
 219              	.LBI87:
 507:/mnt/c/Users/31740/Desktop/newcore/include/linux/atomic/atomic-arch-fallback.h **** {
 220              		.loc 6 507 1 view .LVU66
 221              	.LBB88:
 222              		.loc 6 509 2 view .LVU67
 223              		.loc 6 509 2 view .LVU68
 224              	.LBB89:
 225              		.loc 6 509 2 view .LVU69
 226              		.loc 6 509 2 view .LVU70
 227              	.LBE89:
 228              		.loc 6 509 2 discriminator 2 view .LVU71
 229              		.loc 6 509 2 discriminator 2 view .LVU72
 230              		.loc 6 509 2 discriminator 2 view .LVU73
 231 004e A263     		str	r2, [r4, #56]
 232              		.loc 6 509 2 discriminator 2 view .LVU74
 233              		.loc 6 509 2 discriminator 2 view .LVU75
 234              	.LVL15:
 235              		.loc 6 509 2 is_stmt 0 discriminator 2 view .LVU76
 236              	.LBE88:
 237              	.LBE87:
 238              	.LBE86:
  51:/mnt/c/Users/31740/Desktop/newcore/block/bio.c ****     bio->bi_iter.bi_sector = 0;
ARM GAS  /tmp/cctjQXNb.s 			page 24


 239              		.loc 1 51 5 is_stmt 1 view .LVU77
 240              		.loc 1 51 28 is_stmt 0 view .LVU78
 241 0050 A361     		str	r3, [r4, #24]
  52:/mnt/c/Users/31740/Desktop/newcore/block/bio.c ****     bio->bi_iter.bi_size   = 0;
 242              		.loc 1 52 5 is_stmt 1 view .LVU79
 243              		.loc 1 52 28 is_stmt 0 view .LVU80
 244 0052 E361     		str	r3, [r4, #28]
  53:/mnt/c/Users/31740/Desktop/newcore/block/bio.c ****     bio->bi_iter.bi_idx    = 0;
 245              		.loc 1 53 5 is_stmt 1 view .LVU81
 246              		.loc 1 53 28 is_stmt 0 view .LVU82
 247 0054 2362     		str	r3, [r4, #32]
  54:/mnt/c/Users/31740/Desktop/newcore/block/bio.c ****     bio->bi_iter.bi_bvec_done = 0;
 248              		.loc 1 54 5 is_stmt 1 view .LVU83
 249              		.loc 1 54 31 is_stmt 0 view .LVU84
 250 0056 6362     		str	r3, [r4, #36]
  55:/mnt/c/Users/31740/Desktop/newcore/block/bio.c ****     bio->bi_vcnt    = 0;
 251              		.loc 1 55 5 is_stmt 1 view .LVU85
 252              		.loc 1 55 21 is_stmt 0 view .LVU86
 253 0058 A386     		strh	r3, [r4, #52]	@ movhi
  56:/mnt/c/Users/31740/Desktop/newcore/block/bio.c ****     bio->bi_end_io  = NULL;
 254              		.loc 1 56 5 is_stmt 1 view .LVU87
 255              		.loc 1 56 21 is_stmt 0 view .LVU88
 256 005a E362     		str	r3, [r4, #44]
  57:/mnt/c/Users/31740/Desktop/newcore/block/bio.c ****     bio->bi_private = NULL;
 257              		.loc 1 57 5 is_stmt 1 view .LVU89
 258              		.loc 1 57 21 is_stmt 0 view .LVU90
 259 005c 2363     		str	r3, [r4, #48]
  58:/mnt/c/Users/31740/Desktop/newcore/block/bio.c ****     bio->bi_bdev = bdev;
 260              		.loc 1 58 5 is_stmt 1 view .LVU91
 261              		.loc 1 58 18 is_stmt 0 view .LVU92
 262 005e C4F80480 		str	r8, [r4, #4]
  59:/mnt/c/Users/31740/Desktop/newcore/block/bio.c ****     bio->bi_opf  = opf;
 263              		.loc 1 59 5 is_stmt 1 view .LVU93
 264              		.loc 1 59 18 is_stmt 0 view .LVU94
 265 0062 A760     		str	r7, [r4, #8]
  60:/mnt/c/Users/31740/Desktop/newcore/block/bio.c ****     return bio;
 266              		.loc 1 60 5 is_stmt 1 view .LVU95
 267              	.LVL16:
 268              	.L4:
  61:/mnt/c/Users/31740/Desktop/newcore/block/bio.c **** }
 269              		.loc 1 61 1 is_stmt 0 view .LVU96
 270 0064 2046     		mov	r0, r4
 271 0066 BDE8F087 		pop	{r4, r5, r6, r7, r8, r9, r10, pc}
 272              	.LVL17:
 273              	.L10:
  20:/mnt/c/Users/31740/Desktop/newcore/block/bio.c ****     if (nr_iovecs <= BIO_INLINE_VECS)
 274              		.loc 1 20 10 view .LVU97
 275 006a 4FF0000A 		mov	r10, #0
  26:/mnt/c/Users/31740/Desktop/newcore/block/bio.c ****     bio = kmalloc(bio_size, gfp_mask);
 276              		.loc 1 26 19 view .LVU98
 277 006e 4426     		movs	r6, #68
 278 0070 D4E7     		b	.L5
 279              	.LVL18:
 280              	.L7:
  37:/mnt/c/Users/31740/Desktop/newcore/block/bio.c ****         if (!bio->bi_io_vec) {
 281              		.loc 1 37 9 is_stmt 1 view .LVU99
 282              	.LBB90:
ARM GAS  /tmp/cctjQXNb.s 			page 25


 283              	.LBI90:
 381:/mnt/c/Users/31740/Desktop/newcore/include/linux/slab.h **** }
 382:/mnt/c/Users/31740/Desktop/newcore/include/linux/slab.h **** 
 383:/mnt/c/Users/31740/Desktop/newcore/include/linux/slab.h **** static void inline kfree(const void *ptr){
 384:/mnt/c/Users/31740/Desktop/newcore/include/linux/slab.h **** 	__sfree__((void*)ptr);
 385:/mnt/c/Users/31740/Desktop/newcore/include/linux/slab.h **** }
 386:/mnt/c/Users/31740/Desktop/newcore/include/linux/slab.h **** 
 387:/mnt/c/Users/31740/Desktop/newcore/include/linux/slab.h **** 
 388:/mnt/c/Users/31740/Desktop/newcore/include/linux/slab.h **** 
 389:/mnt/c/Users/31740/Desktop/newcore/include/linux/slab.h **** static inline void *kmalloc_array(size_t n, size_t size, gfp_t flags){
 284              		.loc 4 389 21 view .LVU100
 285              	.LBB91:
 390:/mnt/c/Users/31740/Desktop/newcore/include/linux/slab.h **** 	return kmalloc(n * size, flags);
 286              		.loc 4 390 2 view .LVU101
 287              		.loc 4 390 9 is_stmt 0 view .LVU102
 288 0072 05EB4500 		add	r0, r5, r5, lsl #1
 289              	.LVL19:
 290              	.LBB92:
 291              	.LBI92:
 379:/mnt/c/Users/31740/Desktop/newcore/include/linux/slab.h **** 	return __smalloc__((u32)size,flags);
 292              		.loc 4 379 21 is_stmt 1 view .LVU103
 293              	.LBB93:
 380:/mnt/c/Users/31740/Desktop/newcore/include/linux/slab.h **** }
 294              		.loc 4 380 2 view .LVU104
 380:/mnt/c/Users/31740/Desktop/newcore/include/linux/slab.h **** }
 295              		.loc 4 380 9 is_stmt 0 view .LVU105
 296 0076 4946     		mov	r1, r9
 297 0078 8000     		lsls	r0, r0, #2
 298 007a FFF7FEFF 		bl	__smalloc__
 299              	.LVL20:
 300 007e 0646     		mov	r6, r0
 301              	.LVL21:
 380:/mnt/c/Users/31740/Desktop/newcore/include/linux/slab.h **** }
 302              		.loc 4 380 9 view .LVU106
 303              	.LBE93:
 304              	.LBE92:
 305              	.LBE91:
 306              	.LBE90:
  37:/mnt/c/Users/31740/Desktop/newcore/block/bio.c ****         if (!bio->bi_io_vec) {
 307              		.loc 1 37 24 discriminator 1 view .LVU107
 308 0080 E063     		str	r0, [r4, #60]
  38:/mnt/c/Users/31740/Desktop/newcore/block/bio.c ****             kfree(bio);
 309              		.loc 1 38 9 is_stmt 1 view .LVU108
  38:/mnt/c/Users/31740/Desktop/newcore/block/bio.c ****             kfree(bio);
 310              		.loc 1 38 12 is_stmt 0 view .LVU109
 311 0082 08B1     		cbz	r0, .L12
  42:/mnt/c/Users/31740/Desktop/newcore/block/bio.c ****     }
 312              		.loc 1 42 9 is_stmt 1 view .LVU110
  42:/mnt/c/Users/31740/Desktop/newcore/block/bio.c ****     }
 313              		.loc 1 42 26 is_stmt 0 view .LVU111
 314 0084 E586     		strh	r5, [r4, #54]	@ movhi
 315 0086 DAE7     		b	.L8
 316              	.L12:
  39:/mnt/c/Users/31740/Desktop/newcore/block/bio.c ****             return NULL;
 317              		.loc 1 39 13 is_stmt 1 view .LVU112
 318              	.LVL22:
 319              	.LBB94:
ARM GAS  /tmp/cctjQXNb.s 			page 26


 320              	.LBI94:
 383:/mnt/c/Users/31740/Desktop/newcore/include/linux/slab.h **** 	__sfree__((void*)ptr);
 321              		.loc 4 383 20 view .LVU113
 322              	.LBB95:
 384:/mnt/c/Users/31740/Desktop/newcore/include/linux/slab.h **** }
 323              		.loc 4 384 2 view .LVU114
 324 0088 2046     		mov	r0, r4
 325 008a FFF7FEFF 		bl	__sfree__
 326              	.LVL23:
 384:/mnt/c/Users/31740/Desktop/newcore/include/linux/slab.h **** }
 327              		.loc 4 384 2 is_stmt 0 view .LVU115
 328              	.LBE95:
 329              	.LBE94:
  40:/mnt/c/Users/31740/Desktop/newcore/block/bio.c ****         }
 330              		.loc 1 40 13 is_stmt 1 view .LVU116
  40:/mnt/c/Users/31740/Desktop/newcore/block/bio.c ****         }
 331              		.loc 1 40 20 is_stmt 0 view .LVU117
 332 008e 3446     		mov	r4, r6
 333              	.LVL24:
  40:/mnt/c/Users/31740/Desktop/newcore/block/bio.c ****         }
 334              		.loc 1 40 20 view .LVU118
 335 0090 E8E7     		b	.L4
 336              		.cfi_endproc
 337              	.LFE1034:
 339              		.section	.text.bio_put,"ax",%progbits
 340              		.align	1
 341              		.global	bio_put
 342              		.syntax unified
 343              		.thumb
 344              		.thumb_func
 346              	bio_put:
 347              	.LVL25:
 348              	.LFB1035:
  62:/mnt/c/Users/31740/Desktop/newcore/block/bio.c **** EXPORT_SYMBOL(bio_alloc_bioset);
  63:/mnt/c/Users/31740/Desktop/newcore/block/bio.c ****  
  64:/mnt/c/Users/31740/Desktop/newcore/block/bio.c **** 
  65:/mnt/c/Users/31740/Desktop/newcore/block/bio.c **** 
  66:/mnt/c/Users/31740/Desktop/newcore/block/bio.c **** void bio_put(struct bio *bio)
  67:/mnt/c/Users/31740/Desktop/newcore/block/bio.c **** {
 349              		.loc 1 67 1 is_stmt 1 view -0
 350              		.cfi_startproc
 351              		@ args = 0, pretend = 0, frame = 0
 352              		@ frame_needed = 0, uses_anonymous_args = 0
  68:/mnt/c/Users/31740/Desktop/newcore/block/bio.c ****     if(!bio)return;
 353              		.loc 1 68 5 view .LVU120
 354              		.loc 1 68 7 is_stmt 0 view .LVU121
 355 0000 C0B1     		cbz	r0, .L17
  67:/mnt/c/Users/31740/Desktop/newcore/block/bio.c ****     if(!bio)return;
 356              		.loc 1 67 1 view .LVU122
 357 0002 10B5     		push	{r4, lr}
 358              	.LCFI2:
 359              		.cfi_def_cfa_offset 8
 360              		.cfi_offset 4, -8
 361              		.cfi_offset 14, -4
 362 0004 0446     		mov	r4, r0
  69:/mnt/c/Users/31740/Desktop/newcore/block/bio.c ****     if (atomic_dec_and_test(&bio->__bi_cnt)) {
 363              		.loc 1 69 5 is_stmt 1 view .LVU123
ARM GAS  /tmp/cctjQXNb.s 			page 27


 364              		.loc 1 69 9 is_stmt 0 view .LVU124
 365 0006 00F13803 		add	r3, r0, #56
 366              	.LBB96:
 367              	.LBI96:
  69:/mnt/c/Users/31740/Desktop/newcore/include/linux/atomic/atomic-instrumented.h **** }
  70:/mnt/c/Users/31740/Desktop/newcore/include/linux/atomic/atomic-instrumented.h **** 
  71:/mnt/c/Users/31740/Desktop/newcore/include/linux/atomic/atomic-instrumented.h **** /**
  72:/mnt/c/Users/31740/Desktop/newcore/include/linux/atomic/atomic-instrumented.h ****  * atomic_set_release() - atomic set with release ordering
  73:/mnt/c/Users/31740/Desktop/newcore/include/linux/atomic/atomic-instrumented.h ****  * @v: pointer to atomic_t
  74:/mnt/c/Users/31740/Desktop/newcore/include/linux/atomic/atomic-instrumented.h ****  * @i: int value to assign
  75:/mnt/c/Users/31740/Desktop/newcore/include/linux/atomic/atomic-instrumented.h ****  *
  76:/mnt/c/Users/31740/Desktop/newcore/include/linux/atomic/atomic-instrumented.h ****  * Atomically sets @v to @i with release ordering.
  77:/mnt/c/Users/31740/Desktop/newcore/include/linux/atomic/atomic-instrumented.h ****  *
  78:/mnt/c/Users/31740/Desktop/newcore/include/linux/atomic/atomic-instrumented.h ****  * Unsafe to use in noinstr code; use raw_atomic_set_release() there.
  79:/mnt/c/Users/31740/Desktop/newcore/include/linux/atomic/atomic-instrumented.h ****  *
  80:/mnt/c/Users/31740/Desktop/newcore/include/linux/atomic/atomic-instrumented.h ****  * Return: Nothing.
  81:/mnt/c/Users/31740/Desktop/newcore/include/linux/atomic/atomic-instrumented.h ****  */
  82:/mnt/c/Users/31740/Desktop/newcore/include/linux/atomic/atomic-instrumented.h **** static __always_inline void
  83:/mnt/c/Users/31740/Desktop/newcore/include/linux/atomic/atomic-instrumented.h **** atomic_set_release(atomic_t *v, int i)
  84:/mnt/c/Users/31740/Desktop/newcore/include/linux/atomic/atomic-instrumented.h **** {
  85:/mnt/c/Users/31740/Desktop/newcore/include/linux/atomic/atomic-instrumented.h **** 	kcsan_release();
  86:/mnt/c/Users/31740/Desktop/newcore/include/linux/atomic/atomic-instrumented.h **** 	instrument_atomic_write(v, sizeof(*v));
  87:/mnt/c/Users/31740/Desktop/newcore/include/linux/atomic/atomic-instrumented.h **** 	raw_atomic_set_release(v, i);
  88:/mnt/c/Users/31740/Desktop/newcore/include/linux/atomic/atomic-instrumented.h **** }
  89:/mnt/c/Users/31740/Desktop/newcore/include/linux/atomic/atomic-instrumented.h **** 
  90:/mnt/c/Users/31740/Desktop/newcore/include/linux/atomic/atomic-instrumented.h **** /**
  91:/mnt/c/Users/31740/Desktop/newcore/include/linux/atomic/atomic-instrumented.h ****  * atomic_add() - atomic add with relaxed ordering
  92:/mnt/c/Users/31740/Desktop/newcore/include/linux/atomic/atomic-instrumented.h ****  * @i: int value to add
  93:/mnt/c/Users/31740/Desktop/newcore/include/linux/atomic/atomic-instrumented.h ****  * @v: pointer to atomic_t
  94:/mnt/c/Users/31740/Desktop/newcore/include/linux/atomic/atomic-instrumented.h ****  *
  95:/mnt/c/Users/31740/Desktop/newcore/include/linux/atomic/atomic-instrumented.h ****  * Atomically updates @v to (@v + @i) with relaxed ordering.
  96:/mnt/c/Users/31740/Desktop/newcore/include/linux/atomic/atomic-instrumented.h ****  *
  97:/mnt/c/Users/31740/Desktop/newcore/include/linux/atomic/atomic-instrumented.h ****  * Unsafe to use in noinstr code; use raw_atomic_add() there.
  98:/mnt/c/Users/31740/Desktop/newcore/include/linux/atomic/atomic-instrumented.h ****  *
  99:/mnt/c/Users/31740/Desktop/newcore/include/linux/atomic/atomic-instrumented.h ****  * Return: Nothing.
 100:/mnt/c/Users/31740/Desktop/newcore/include/linux/atomic/atomic-instrumented.h ****  */
 101:/mnt/c/Users/31740/Desktop/newcore/include/linux/atomic/atomic-instrumented.h **** static __always_inline void
 102:/mnt/c/Users/31740/Desktop/newcore/include/linux/atomic/atomic-instrumented.h **** atomic_add(int i, atomic_t *v)
 103:/mnt/c/Users/31740/Desktop/newcore/include/linux/atomic/atomic-instrumented.h **** {
 104:/mnt/c/Users/31740/Desktop/newcore/include/linux/atomic/atomic-instrumented.h **** 	instrument_atomic_read_write(v, sizeof(*v));
 105:/mnt/c/Users/31740/Desktop/newcore/include/linux/atomic/atomic-instrumented.h **** 	raw_atomic_add(i, v);
 106:/mnt/c/Users/31740/Desktop/newcore/include/linux/atomic/atomic-instrumented.h **** }
 107:/mnt/c/Users/31740/Desktop/newcore/include/linux/atomic/atomic-instrumented.h **** 
 108:/mnt/c/Users/31740/Desktop/newcore/include/linux/atomic/atomic-instrumented.h **** /**
 109:/mnt/c/Users/31740/Desktop/newcore/include/linux/atomic/atomic-instrumented.h ****  * atomic_add_return() - atomic add with full ordering
 110:/mnt/c/Users/31740/Desktop/newcore/include/linux/atomic/atomic-instrumented.h ****  * @i: int value to add
 111:/mnt/c/Users/31740/Desktop/newcore/include/linux/atomic/atomic-instrumented.h ****  * @v: pointer to atomic_t
 112:/mnt/c/Users/31740/Desktop/newcore/include/linux/atomic/atomic-instrumented.h ****  *
 113:/mnt/c/Users/31740/Desktop/newcore/include/linux/atomic/atomic-instrumented.h ****  * Atomically updates @v to (@v + @i) with full ordering.
 114:/mnt/c/Users/31740/Desktop/newcore/include/linux/atomic/atomic-instrumented.h ****  *
 115:/mnt/c/Users/31740/Desktop/newcore/include/linux/atomic/atomic-instrumented.h ****  * Unsafe to use in noinstr code; use raw_atomic_add_return() there.
 116:/mnt/c/Users/31740/Desktop/newcore/include/linux/atomic/atomic-instrumented.h ****  *
 117:/mnt/c/Users/31740/Desktop/newcore/include/linux/atomic/atomic-instrumented.h ****  * Return: The updated value of @v.
 118:/mnt/c/Users/31740/Desktop/newcore/include/linux/atomic/atomic-instrumented.h ****  */
 119:/mnt/c/Users/31740/Desktop/newcore/include/linux/atomic/atomic-instrumented.h **** static __always_inline int
 120:/mnt/c/Users/31740/Desktop/newcore/include/linux/atomic/atomic-instrumented.h **** atomic_add_return(int i, atomic_t *v)
 121:/mnt/c/Users/31740/Desktop/newcore/include/linux/atomic/atomic-instrumented.h **** {
ARM GAS  /tmp/cctjQXNb.s 			page 28


 122:/mnt/c/Users/31740/Desktop/newcore/include/linux/atomic/atomic-instrumented.h **** 	kcsan_mb();
 123:/mnt/c/Users/31740/Desktop/newcore/include/linux/atomic/atomic-instrumented.h **** 	instrument_atomic_read_write(v, sizeof(*v));
 124:/mnt/c/Users/31740/Desktop/newcore/include/linux/atomic/atomic-instrumented.h **** 	return raw_atomic_add_return(i, v);
 125:/mnt/c/Users/31740/Desktop/newcore/include/linux/atomic/atomic-instrumented.h **** }
 126:/mnt/c/Users/31740/Desktop/newcore/include/linux/atomic/atomic-instrumented.h **** 
 127:/mnt/c/Users/31740/Desktop/newcore/include/linux/atomic/atomic-instrumented.h **** /**
 128:/mnt/c/Users/31740/Desktop/newcore/include/linux/atomic/atomic-instrumented.h ****  * atomic_add_return_acquire() - atomic add with acquire ordering
 129:/mnt/c/Users/31740/Desktop/newcore/include/linux/atomic/atomic-instrumented.h ****  * @i: int value to add
 130:/mnt/c/Users/31740/Desktop/newcore/include/linux/atomic/atomic-instrumented.h ****  * @v: pointer to atomic_t
 131:/mnt/c/Users/31740/Desktop/newcore/include/linux/atomic/atomic-instrumented.h ****  *
 132:/mnt/c/Users/31740/Desktop/newcore/include/linux/atomic/atomic-instrumented.h ****  * Atomically updates @v to (@v + @i) with acquire ordering.
 133:/mnt/c/Users/31740/Desktop/newcore/include/linux/atomic/atomic-instrumented.h ****  *
 134:/mnt/c/Users/31740/Desktop/newcore/include/linux/atomic/atomic-instrumented.h ****  * Unsafe to use in noinstr code; use raw_atomic_add_return_acquire() there.
 135:/mnt/c/Users/31740/Desktop/newcore/include/linux/atomic/atomic-instrumented.h ****  *
 136:/mnt/c/Users/31740/Desktop/newcore/include/linux/atomic/atomic-instrumented.h ****  * Return: The updated value of @v.
 137:/mnt/c/Users/31740/Desktop/newcore/include/linux/atomic/atomic-instrumented.h ****  */
 138:/mnt/c/Users/31740/Desktop/newcore/include/linux/atomic/atomic-instrumented.h **** static __always_inline int
 139:/mnt/c/Users/31740/Desktop/newcore/include/linux/atomic/atomic-instrumented.h **** atomic_add_return_acquire(int i, atomic_t *v)
 140:/mnt/c/Users/31740/Desktop/newcore/include/linux/atomic/atomic-instrumented.h **** {
 141:/mnt/c/Users/31740/Desktop/newcore/include/linux/atomic/atomic-instrumented.h **** 	instrument_atomic_read_write(v, sizeof(*v));
 142:/mnt/c/Users/31740/Desktop/newcore/include/linux/atomic/atomic-instrumented.h **** 	return raw_atomic_add_return_acquire(i, v);
 143:/mnt/c/Users/31740/Desktop/newcore/include/linux/atomic/atomic-instrumented.h **** }
 144:/mnt/c/Users/31740/Desktop/newcore/include/linux/atomic/atomic-instrumented.h **** 
 145:/mnt/c/Users/31740/Desktop/newcore/include/linux/atomic/atomic-instrumented.h **** /**
 146:/mnt/c/Users/31740/Desktop/newcore/include/linux/atomic/atomic-instrumented.h ****  * atomic_add_return_release() - atomic add with release ordering
 147:/mnt/c/Users/31740/Desktop/newcore/include/linux/atomic/atomic-instrumented.h ****  * @i: int value to add
 148:/mnt/c/Users/31740/Desktop/newcore/include/linux/atomic/atomic-instrumented.h ****  * @v: pointer to atomic_t
 149:/mnt/c/Users/31740/Desktop/newcore/include/linux/atomic/atomic-instrumented.h ****  *
 150:/mnt/c/Users/31740/Desktop/newcore/include/linux/atomic/atomic-instrumented.h ****  * Atomically updates @v to (@v + @i) with release ordering.
 151:/mnt/c/Users/31740/Desktop/newcore/include/linux/atomic/atomic-instrumented.h ****  *
 152:/mnt/c/Users/31740/Desktop/newcore/include/linux/atomic/atomic-instrumented.h ****  * Unsafe to use in noinstr code; use raw_atomic_add_return_release() there.
 153:/mnt/c/Users/31740/Desktop/newcore/include/linux/atomic/atomic-instrumented.h ****  *
 154:/mnt/c/Users/31740/Desktop/newcore/include/linux/atomic/atomic-instrumented.h ****  * Return: The updated value of @v.
 155:/mnt/c/Users/31740/Desktop/newcore/include/linux/atomic/atomic-instrumented.h ****  */
 156:/mnt/c/Users/31740/Desktop/newcore/include/linux/atomic/atomic-instrumented.h **** static __always_inline int
 157:/mnt/c/Users/31740/Desktop/newcore/include/linux/atomic/atomic-instrumented.h **** atomic_add_return_release(int i, atomic_t *v)
 158:/mnt/c/Users/31740/Desktop/newcore/include/linux/atomic/atomic-instrumented.h **** {
 159:/mnt/c/Users/31740/Desktop/newcore/include/linux/atomic/atomic-instrumented.h **** 	kcsan_release();
 160:/mnt/c/Users/31740/Desktop/newcore/include/linux/atomic/atomic-instrumented.h **** 	instrument_atomic_read_write(v, sizeof(*v));
 161:/mnt/c/Users/31740/Desktop/newcore/include/linux/atomic/atomic-instrumented.h **** 	return raw_atomic_add_return_release(i, v);
 162:/mnt/c/Users/31740/Desktop/newcore/include/linux/atomic/atomic-instrumented.h **** }
 163:/mnt/c/Users/31740/Desktop/newcore/include/linux/atomic/atomic-instrumented.h **** 
 164:/mnt/c/Users/31740/Desktop/newcore/include/linux/atomic/atomic-instrumented.h **** /**
 165:/mnt/c/Users/31740/Desktop/newcore/include/linux/atomic/atomic-instrumented.h ****  * atomic_add_return_relaxed() - atomic add with relaxed ordering
 166:/mnt/c/Users/31740/Desktop/newcore/include/linux/atomic/atomic-instrumented.h ****  * @i: int value to add
 167:/mnt/c/Users/31740/Desktop/newcore/include/linux/atomic/atomic-instrumented.h ****  * @v: pointer to atomic_t
 168:/mnt/c/Users/31740/Desktop/newcore/include/linux/atomic/atomic-instrumented.h ****  *
 169:/mnt/c/Users/31740/Desktop/newcore/include/linux/atomic/atomic-instrumented.h ****  * Atomically updates @v to (@v + @i) with relaxed ordering.
 170:/mnt/c/Users/31740/Desktop/newcore/include/linux/atomic/atomic-instrumented.h ****  *
 171:/mnt/c/Users/31740/Desktop/newcore/include/linux/atomic/atomic-instrumented.h ****  * Unsafe to use in noinstr code; use raw_atomic_add_return_relaxed() there.
 172:/mnt/c/Users/31740/Desktop/newcore/include/linux/atomic/atomic-instrumented.h ****  *
 173:/mnt/c/Users/31740/Desktop/newcore/include/linux/atomic/atomic-instrumented.h ****  * Return: The updated value of @v.
 174:/mnt/c/Users/31740/Desktop/newcore/include/linux/atomic/atomic-instrumented.h ****  */
 175:/mnt/c/Users/31740/Desktop/newcore/include/linux/atomic/atomic-instrumented.h **** static __always_inline int
 176:/mnt/c/Users/31740/Desktop/newcore/include/linux/atomic/atomic-instrumented.h **** atomic_add_return_relaxed(int i, atomic_t *v)
 177:/mnt/c/Users/31740/Desktop/newcore/include/linux/atomic/atomic-instrumented.h **** {
 178:/mnt/c/Users/31740/Desktop/newcore/include/linux/atomic/atomic-instrumented.h **** 	instrument_atomic_read_write(v, sizeof(*v));
ARM GAS  /tmp/cctjQXNb.s 			page 29


 179:/mnt/c/Users/31740/Desktop/newcore/include/linux/atomic/atomic-instrumented.h **** 	return raw_atomic_add_return_relaxed(i, v);
 180:/mnt/c/Users/31740/Desktop/newcore/include/linux/atomic/atomic-instrumented.h **** }
 181:/mnt/c/Users/31740/Desktop/newcore/include/linux/atomic/atomic-instrumented.h **** 
 182:/mnt/c/Users/31740/Desktop/newcore/include/linux/atomic/atomic-instrumented.h **** /**
 183:/mnt/c/Users/31740/Desktop/newcore/include/linux/atomic/atomic-instrumented.h ****  * atomic_fetch_add() - atomic add with full ordering
 184:/mnt/c/Users/31740/Desktop/newcore/include/linux/atomic/atomic-instrumented.h ****  * @i: int value to add
 185:/mnt/c/Users/31740/Desktop/newcore/include/linux/atomic/atomic-instrumented.h ****  * @v: pointer to atomic_t
 186:/mnt/c/Users/31740/Desktop/newcore/include/linux/atomic/atomic-instrumented.h ****  *
 187:/mnt/c/Users/31740/Desktop/newcore/include/linux/atomic/atomic-instrumented.h ****  * Atomically updates @v to (@v + @i) with full ordering.
 188:/mnt/c/Users/31740/Desktop/newcore/include/linux/atomic/atomic-instrumented.h ****  *
 189:/mnt/c/Users/31740/Desktop/newcore/include/linux/atomic/atomic-instrumented.h ****  * Unsafe to use in noinstr code; use raw_atomic_fetch_add() there.
 190:/mnt/c/Users/31740/Desktop/newcore/include/linux/atomic/atomic-instrumented.h ****  *
 191:/mnt/c/Users/31740/Desktop/newcore/include/linux/atomic/atomic-instrumented.h ****  * Return: The original value of @v.
 192:/mnt/c/Users/31740/Desktop/newcore/include/linux/atomic/atomic-instrumented.h ****  */
 193:/mnt/c/Users/31740/Desktop/newcore/include/linux/atomic/atomic-instrumented.h **** static __always_inline int
 194:/mnt/c/Users/31740/Desktop/newcore/include/linux/atomic/atomic-instrumented.h **** atomic_fetch_add(int i, atomic_t *v)
 195:/mnt/c/Users/31740/Desktop/newcore/include/linux/atomic/atomic-instrumented.h **** {
 196:/mnt/c/Users/31740/Desktop/newcore/include/linux/atomic/atomic-instrumented.h **** 	kcsan_mb();
 197:/mnt/c/Users/31740/Desktop/newcore/include/linux/atomic/atomic-instrumented.h **** 	instrument_atomic_read_write(v, sizeof(*v));
 198:/mnt/c/Users/31740/Desktop/newcore/include/linux/atomic/atomic-instrumented.h **** 	return raw_atomic_fetch_add(i, v);
 199:/mnt/c/Users/31740/Desktop/newcore/include/linux/atomic/atomic-instrumented.h **** }
 200:/mnt/c/Users/31740/Desktop/newcore/include/linux/atomic/atomic-instrumented.h **** 
 201:/mnt/c/Users/31740/Desktop/newcore/include/linux/atomic/atomic-instrumented.h **** /**
 202:/mnt/c/Users/31740/Desktop/newcore/include/linux/atomic/atomic-instrumented.h ****  * atomic_fetch_add_acquire() - atomic add with acquire ordering
 203:/mnt/c/Users/31740/Desktop/newcore/include/linux/atomic/atomic-instrumented.h ****  * @i: int value to add
 204:/mnt/c/Users/31740/Desktop/newcore/include/linux/atomic/atomic-instrumented.h ****  * @v: pointer to atomic_t
 205:/mnt/c/Users/31740/Desktop/newcore/include/linux/atomic/atomic-instrumented.h ****  *
 206:/mnt/c/Users/31740/Desktop/newcore/include/linux/atomic/atomic-instrumented.h ****  * Atomically updates @v to (@v + @i) with acquire ordering.
 207:/mnt/c/Users/31740/Desktop/newcore/include/linux/atomic/atomic-instrumented.h ****  *
 208:/mnt/c/Users/31740/Desktop/newcore/include/linux/atomic/atomic-instrumented.h ****  * Unsafe to use in noinstr code; use raw_atomic_fetch_add_acquire() there.
 209:/mnt/c/Users/31740/Desktop/newcore/include/linux/atomic/atomic-instrumented.h ****  *
 210:/mnt/c/Users/31740/Desktop/newcore/include/linux/atomic/atomic-instrumented.h ****  * Return: The original value of @v.
 211:/mnt/c/Users/31740/Desktop/newcore/include/linux/atomic/atomic-instrumented.h ****  */
 212:/mnt/c/Users/31740/Desktop/newcore/include/linux/atomic/atomic-instrumented.h **** static __always_inline int
 213:/mnt/c/Users/31740/Desktop/newcore/include/linux/atomic/atomic-instrumented.h **** atomic_fetch_add_acquire(int i, atomic_t *v)
 214:/mnt/c/Users/31740/Desktop/newcore/include/linux/atomic/atomic-instrumented.h **** {
 215:/mnt/c/Users/31740/Desktop/newcore/include/linux/atomic/atomic-instrumented.h **** 	instrument_atomic_read_write(v, sizeof(*v));
 216:/mnt/c/Users/31740/Desktop/newcore/include/linux/atomic/atomic-instrumented.h **** 	return raw_atomic_fetch_add_acquire(i, v);
 217:/mnt/c/Users/31740/Desktop/newcore/include/linux/atomic/atomic-instrumented.h **** }
 218:/mnt/c/Users/31740/Desktop/newcore/include/linux/atomic/atomic-instrumented.h **** 
 219:/mnt/c/Users/31740/Desktop/newcore/include/linux/atomic/atomic-instrumented.h **** /**
 220:/mnt/c/Users/31740/Desktop/newcore/include/linux/atomic/atomic-instrumented.h ****  * atomic_fetch_add_release() - atomic add with release ordering
 221:/mnt/c/Users/31740/Desktop/newcore/include/linux/atomic/atomic-instrumented.h ****  * @i: int value to add
 222:/mnt/c/Users/31740/Desktop/newcore/include/linux/atomic/atomic-instrumented.h ****  * @v: pointer to atomic_t
 223:/mnt/c/Users/31740/Desktop/newcore/include/linux/atomic/atomic-instrumented.h ****  *
 224:/mnt/c/Users/31740/Desktop/newcore/include/linux/atomic/atomic-instrumented.h ****  * Atomically updates @v to (@v + @i) with release ordering.
 225:/mnt/c/Users/31740/Desktop/newcore/include/linux/atomic/atomic-instrumented.h ****  *
 226:/mnt/c/Users/31740/Desktop/newcore/include/linux/atomic/atomic-instrumented.h ****  * Unsafe to use in noinstr code; use raw_atomic_fetch_add_release() there.
 227:/mnt/c/Users/31740/Desktop/newcore/include/linux/atomic/atomic-instrumented.h ****  *
 228:/mnt/c/Users/31740/Desktop/newcore/include/linux/atomic/atomic-instrumented.h ****  * Return: The original value of @v.
 229:/mnt/c/Users/31740/Desktop/newcore/include/linux/atomic/atomic-instrumented.h ****  */
 230:/mnt/c/Users/31740/Desktop/newcore/include/linux/atomic/atomic-instrumented.h **** static __always_inline int
 231:/mnt/c/Users/31740/Desktop/newcore/include/linux/atomic/atomic-instrumented.h **** atomic_fetch_add_release(int i, atomic_t *v)
 232:/mnt/c/Users/31740/Desktop/newcore/include/linux/atomic/atomic-instrumented.h **** {
 233:/mnt/c/Users/31740/Desktop/newcore/include/linux/atomic/atomic-instrumented.h **** 	kcsan_release();
 234:/mnt/c/Users/31740/Desktop/newcore/include/linux/atomic/atomic-instrumented.h **** 	instrument_atomic_read_write(v, sizeof(*v));
 235:/mnt/c/Users/31740/Desktop/newcore/include/linux/atomic/atomic-instrumented.h **** 	return raw_atomic_fetch_add_release(i, v);
ARM GAS  /tmp/cctjQXNb.s 			page 30


 236:/mnt/c/Users/31740/Desktop/newcore/include/linux/atomic/atomic-instrumented.h **** }
 237:/mnt/c/Users/31740/Desktop/newcore/include/linux/atomic/atomic-instrumented.h **** 
 238:/mnt/c/Users/31740/Desktop/newcore/include/linux/atomic/atomic-instrumented.h **** /**
 239:/mnt/c/Users/31740/Desktop/newcore/include/linux/atomic/atomic-instrumented.h ****  * atomic_fetch_add_relaxed() - atomic add with relaxed ordering
 240:/mnt/c/Users/31740/Desktop/newcore/include/linux/atomic/atomic-instrumented.h ****  * @i: int value to add
 241:/mnt/c/Users/31740/Desktop/newcore/include/linux/atomic/atomic-instrumented.h ****  * @v: pointer to atomic_t
 242:/mnt/c/Users/31740/Desktop/newcore/include/linux/atomic/atomic-instrumented.h ****  *
 243:/mnt/c/Users/31740/Desktop/newcore/include/linux/atomic/atomic-instrumented.h ****  * Atomically updates @v to (@v + @i) with relaxed ordering.
 244:/mnt/c/Users/31740/Desktop/newcore/include/linux/atomic/atomic-instrumented.h ****  *
 245:/mnt/c/Users/31740/Desktop/newcore/include/linux/atomic/atomic-instrumented.h ****  * Unsafe to use in noinstr code; use raw_atomic_fetch_add_relaxed() there.
 246:/mnt/c/Users/31740/Desktop/newcore/include/linux/atomic/atomic-instrumented.h ****  *
 247:/mnt/c/Users/31740/Desktop/newcore/include/linux/atomic/atomic-instrumented.h ****  * Return: The original value of @v.
 248:/mnt/c/Users/31740/Desktop/newcore/include/linux/atomic/atomic-instrumented.h ****  */
 249:/mnt/c/Users/31740/Desktop/newcore/include/linux/atomic/atomic-instrumented.h **** static __always_inline int
 250:/mnt/c/Users/31740/Desktop/newcore/include/linux/atomic/atomic-instrumented.h **** atomic_fetch_add_relaxed(int i, atomic_t *v)
 251:/mnt/c/Users/31740/Desktop/newcore/include/linux/atomic/atomic-instrumented.h **** {
 252:/mnt/c/Users/31740/Desktop/newcore/include/linux/atomic/atomic-instrumented.h **** 	instrument_atomic_read_write(v, sizeof(*v));
 253:/mnt/c/Users/31740/Desktop/newcore/include/linux/atomic/atomic-instrumented.h **** 	return raw_atomic_fetch_add_relaxed(i, v);
 254:/mnt/c/Users/31740/Desktop/newcore/include/linux/atomic/atomic-instrumented.h **** }
 255:/mnt/c/Users/31740/Desktop/newcore/include/linux/atomic/atomic-instrumented.h **** 
 256:/mnt/c/Users/31740/Desktop/newcore/include/linux/atomic/atomic-instrumented.h **** /**
 257:/mnt/c/Users/31740/Desktop/newcore/include/linux/atomic/atomic-instrumented.h ****  * atomic_sub() - atomic subtract with relaxed ordering
 258:/mnt/c/Users/31740/Desktop/newcore/include/linux/atomic/atomic-instrumented.h ****  * @i: int value to subtract
 259:/mnt/c/Users/31740/Desktop/newcore/include/linux/atomic/atomic-instrumented.h ****  * @v: pointer to atomic_t
 260:/mnt/c/Users/31740/Desktop/newcore/include/linux/atomic/atomic-instrumented.h ****  *
 261:/mnt/c/Users/31740/Desktop/newcore/include/linux/atomic/atomic-instrumented.h ****  * Atomically updates @v to (@v - @i) with relaxed ordering.
 262:/mnt/c/Users/31740/Desktop/newcore/include/linux/atomic/atomic-instrumented.h ****  *
 263:/mnt/c/Users/31740/Desktop/newcore/include/linux/atomic/atomic-instrumented.h ****  * Unsafe to use in noinstr code; use raw_atomic_sub() there.
 264:/mnt/c/Users/31740/Desktop/newcore/include/linux/atomic/atomic-instrumented.h ****  *
 265:/mnt/c/Users/31740/Desktop/newcore/include/linux/atomic/atomic-instrumented.h ****  * Return: Nothing.
 266:/mnt/c/Users/31740/Desktop/newcore/include/linux/atomic/atomic-instrumented.h ****  */
 267:/mnt/c/Users/31740/Desktop/newcore/include/linux/atomic/atomic-instrumented.h **** static __always_inline void
 268:/mnt/c/Users/31740/Desktop/newcore/include/linux/atomic/atomic-instrumented.h **** atomic_sub(int i, atomic_t *v)
 269:/mnt/c/Users/31740/Desktop/newcore/include/linux/atomic/atomic-instrumented.h **** {
 270:/mnt/c/Users/31740/Desktop/newcore/include/linux/atomic/atomic-instrumented.h **** 	instrument_atomic_read_write(v, sizeof(*v));
 271:/mnt/c/Users/31740/Desktop/newcore/include/linux/atomic/atomic-instrumented.h **** 	raw_atomic_sub(i, v);
 272:/mnt/c/Users/31740/Desktop/newcore/include/linux/atomic/atomic-instrumented.h **** }
 273:/mnt/c/Users/31740/Desktop/newcore/include/linux/atomic/atomic-instrumented.h **** 
 274:/mnt/c/Users/31740/Desktop/newcore/include/linux/atomic/atomic-instrumented.h **** /**
 275:/mnt/c/Users/31740/Desktop/newcore/include/linux/atomic/atomic-instrumented.h ****  * atomic_sub_return() - atomic subtract with full ordering
 276:/mnt/c/Users/31740/Desktop/newcore/include/linux/atomic/atomic-instrumented.h ****  * @i: int value to subtract
 277:/mnt/c/Users/31740/Desktop/newcore/include/linux/atomic/atomic-instrumented.h ****  * @v: pointer to atomic_t
 278:/mnt/c/Users/31740/Desktop/newcore/include/linux/atomic/atomic-instrumented.h ****  *
 279:/mnt/c/Users/31740/Desktop/newcore/include/linux/atomic/atomic-instrumented.h ****  * Atomically updates @v to (@v - @i) with full ordering.
 280:/mnt/c/Users/31740/Desktop/newcore/include/linux/atomic/atomic-instrumented.h ****  *
 281:/mnt/c/Users/31740/Desktop/newcore/include/linux/atomic/atomic-instrumented.h ****  * Unsafe to use in noinstr code; use raw_atomic_sub_return() there.
 282:/mnt/c/Users/31740/Desktop/newcore/include/linux/atomic/atomic-instrumented.h ****  *
 283:/mnt/c/Users/31740/Desktop/newcore/include/linux/atomic/atomic-instrumented.h ****  * Return: The updated value of @v.
 284:/mnt/c/Users/31740/Desktop/newcore/include/linux/atomic/atomic-instrumented.h ****  */
 285:/mnt/c/Users/31740/Desktop/newcore/include/linux/atomic/atomic-instrumented.h **** static __always_inline int
 286:/mnt/c/Users/31740/Desktop/newcore/include/linux/atomic/atomic-instrumented.h **** atomic_sub_return(int i, atomic_t *v)
 287:/mnt/c/Users/31740/Desktop/newcore/include/linux/atomic/atomic-instrumented.h **** {
 288:/mnt/c/Users/31740/Desktop/newcore/include/linux/atomic/atomic-instrumented.h **** 	kcsan_mb();
 289:/mnt/c/Users/31740/Desktop/newcore/include/linux/atomic/atomic-instrumented.h **** 	instrument_atomic_read_write(v, sizeof(*v));
 290:/mnt/c/Users/31740/Desktop/newcore/include/linux/atomic/atomic-instrumented.h **** 	return raw_atomic_sub_return(i, v);
 291:/mnt/c/Users/31740/Desktop/newcore/include/linux/atomic/atomic-instrumented.h **** }
 292:/mnt/c/Users/31740/Desktop/newcore/include/linux/atomic/atomic-instrumented.h **** 
ARM GAS  /tmp/cctjQXNb.s 			page 31


 293:/mnt/c/Users/31740/Desktop/newcore/include/linux/atomic/atomic-instrumented.h **** /**
 294:/mnt/c/Users/31740/Desktop/newcore/include/linux/atomic/atomic-instrumented.h ****  * atomic_sub_return_acquire() - atomic subtract with acquire ordering
 295:/mnt/c/Users/31740/Desktop/newcore/include/linux/atomic/atomic-instrumented.h ****  * @i: int value to subtract
 296:/mnt/c/Users/31740/Desktop/newcore/include/linux/atomic/atomic-instrumented.h ****  * @v: pointer to atomic_t
 297:/mnt/c/Users/31740/Desktop/newcore/include/linux/atomic/atomic-instrumented.h ****  *
 298:/mnt/c/Users/31740/Desktop/newcore/include/linux/atomic/atomic-instrumented.h ****  * Atomically updates @v to (@v - @i) with acquire ordering.
 299:/mnt/c/Users/31740/Desktop/newcore/include/linux/atomic/atomic-instrumented.h ****  *
 300:/mnt/c/Users/31740/Desktop/newcore/include/linux/atomic/atomic-instrumented.h ****  * Unsafe to use in noinstr code; use raw_atomic_sub_return_acquire() there.
 301:/mnt/c/Users/31740/Desktop/newcore/include/linux/atomic/atomic-instrumented.h ****  *
 302:/mnt/c/Users/31740/Desktop/newcore/include/linux/atomic/atomic-instrumented.h ****  * Return: The updated value of @v.
 303:/mnt/c/Users/31740/Desktop/newcore/include/linux/atomic/atomic-instrumented.h ****  */
 304:/mnt/c/Users/31740/Desktop/newcore/include/linux/atomic/atomic-instrumented.h **** static __always_inline int
 305:/mnt/c/Users/31740/Desktop/newcore/include/linux/atomic/atomic-instrumented.h **** atomic_sub_return_acquire(int i, atomic_t *v)
 306:/mnt/c/Users/31740/Desktop/newcore/include/linux/atomic/atomic-instrumented.h **** {
 307:/mnt/c/Users/31740/Desktop/newcore/include/linux/atomic/atomic-instrumented.h **** 	instrument_atomic_read_write(v, sizeof(*v));
 308:/mnt/c/Users/31740/Desktop/newcore/include/linux/atomic/atomic-instrumented.h **** 	return raw_atomic_sub_return_acquire(i, v);
 309:/mnt/c/Users/31740/Desktop/newcore/include/linux/atomic/atomic-instrumented.h **** }
 310:/mnt/c/Users/31740/Desktop/newcore/include/linux/atomic/atomic-instrumented.h **** 
 311:/mnt/c/Users/31740/Desktop/newcore/include/linux/atomic/atomic-instrumented.h **** /**
 312:/mnt/c/Users/31740/Desktop/newcore/include/linux/atomic/atomic-instrumented.h ****  * atomic_sub_return_release() - atomic subtract with release ordering
 313:/mnt/c/Users/31740/Desktop/newcore/include/linux/atomic/atomic-instrumented.h ****  * @i: int value to subtract
 314:/mnt/c/Users/31740/Desktop/newcore/include/linux/atomic/atomic-instrumented.h ****  * @v: pointer to atomic_t
 315:/mnt/c/Users/31740/Desktop/newcore/include/linux/atomic/atomic-instrumented.h ****  *
 316:/mnt/c/Users/31740/Desktop/newcore/include/linux/atomic/atomic-instrumented.h ****  * Atomically updates @v to (@v - @i) with release ordering.
 317:/mnt/c/Users/31740/Desktop/newcore/include/linux/atomic/atomic-instrumented.h ****  *
 318:/mnt/c/Users/31740/Desktop/newcore/include/linux/atomic/atomic-instrumented.h ****  * Unsafe to use in noinstr code; use raw_atomic_sub_return_release() there.
 319:/mnt/c/Users/31740/Desktop/newcore/include/linux/atomic/atomic-instrumented.h ****  *
 320:/mnt/c/Users/31740/Desktop/newcore/include/linux/atomic/atomic-instrumented.h ****  * Return: The updated value of @v.
 321:/mnt/c/Users/31740/Desktop/newcore/include/linux/atomic/atomic-instrumented.h ****  */
 322:/mnt/c/Users/31740/Desktop/newcore/include/linux/atomic/atomic-instrumented.h **** static __always_inline int
 323:/mnt/c/Users/31740/Desktop/newcore/include/linux/atomic/atomic-instrumented.h **** atomic_sub_return_release(int i, atomic_t *v)
 324:/mnt/c/Users/31740/Desktop/newcore/include/linux/atomic/atomic-instrumented.h **** {
 325:/mnt/c/Users/31740/Desktop/newcore/include/linux/atomic/atomic-instrumented.h **** 	kcsan_release();
 326:/mnt/c/Users/31740/Desktop/newcore/include/linux/atomic/atomic-instrumented.h **** 	instrument_atomic_read_write(v, sizeof(*v));
 327:/mnt/c/Users/31740/Desktop/newcore/include/linux/atomic/atomic-instrumented.h **** 	return raw_atomic_sub_return_release(i, v);
 328:/mnt/c/Users/31740/Desktop/newcore/include/linux/atomic/atomic-instrumented.h **** }
 329:/mnt/c/Users/31740/Desktop/newcore/include/linux/atomic/atomic-instrumented.h **** 
 330:/mnt/c/Users/31740/Desktop/newcore/include/linux/atomic/atomic-instrumented.h **** /**
 331:/mnt/c/Users/31740/Desktop/newcore/include/linux/atomic/atomic-instrumented.h ****  * atomic_sub_return_relaxed() - atomic subtract with relaxed ordering
 332:/mnt/c/Users/31740/Desktop/newcore/include/linux/atomic/atomic-instrumented.h ****  * @i: int value to subtract
 333:/mnt/c/Users/31740/Desktop/newcore/include/linux/atomic/atomic-instrumented.h ****  * @v: pointer to atomic_t
 334:/mnt/c/Users/31740/Desktop/newcore/include/linux/atomic/atomic-instrumented.h ****  *
 335:/mnt/c/Users/31740/Desktop/newcore/include/linux/atomic/atomic-instrumented.h ****  * Atomically updates @v to (@v - @i) with relaxed ordering.
 336:/mnt/c/Users/31740/Desktop/newcore/include/linux/atomic/atomic-instrumented.h ****  *
 337:/mnt/c/Users/31740/Desktop/newcore/include/linux/atomic/atomic-instrumented.h ****  * Unsafe to use in noinstr code; use raw_atomic_sub_return_relaxed() there.
 338:/mnt/c/Users/31740/Desktop/newcore/include/linux/atomic/atomic-instrumented.h ****  *
 339:/mnt/c/Users/31740/Desktop/newcore/include/linux/atomic/atomic-instrumented.h ****  * Return: The updated value of @v.
 340:/mnt/c/Users/31740/Desktop/newcore/include/linux/atomic/atomic-instrumented.h ****  */
 341:/mnt/c/Users/31740/Desktop/newcore/include/linux/atomic/atomic-instrumented.h **** static __always_inline int
 342:/mnt/c/Users/31740/Desktop/newcore/include/linux/atomic/atomic-instrumented.h **** atomic_sub_return_relaxed(int i, atomic_t *v)
 343:/mnt/c/Users/31740/Desktop/newcore/include/linux/atomic/atomic-instrumented.h **** {
 344:/mnt/c/Users/31740/Desktop/newcore/include/linux/atomic/atomic-instrumented.h **** 	instrument_atomic_read_write(v, sizeof(*v));
 345:/mnt/c/Users/31740/Desktop/newcore/include/linux/atomic/atomic-instrumented.h **** 	return raw_atomic_sub_return_relaxed(i, v);
 346:/mnt/c/Users/31740/Desktop/newcore/include/linux/atomic/atomic-instrumented.h **** }
 347:/mnt/c/Users/31740/Desktop/newcore/include/linux/atomic/atomic-instrumented.h **** 
 348:/mnt/c/Users/31740/Desktop/newcore/include/linux/atomic/atomic-instrumented.h **** /**
 349:/mnt/c/Users/31740/Desktop/newcore/include/linux/atomic/atomic-instrumented.h ****  * atomic_fetch_sub() - atomic subtract with full ordering
ARM GAS  /tmp/cctjQXNb.s 			page 32


 350:/mnt/c/Users/31740/Desktop/newcore/include/linux/atomic/atomic-instrumented.h ****  * @i: int value to subtract
 351:/mnt/c/Users/31740/Desktop/newcore/include/linux/atomic/atomic-instrumented.h ****  * @v: pointer to atomic_t
 352:/mnt/c/Users/31740/Desktop/newcore/include/linux/atomic/atomic-instrumented.h ****  *
 353:/mnt/c/Users/31740/Desktop/newcore/include/linux/atomic/atomic-instrumented.h ****  * Atomically updates @v to (@v - @i) with full ordering.
 354:/mnt/c/Users/31740/Desktop/newcore/include/linux/atomic/atomic-instrumented.h ****  *
 355:/mnt/c/Users/31740/Desktop/newcore/include/linux/atomic/atomic-instrumented.h ****  * Unsafe to use in noinstr code; use raw_atomic_fetch_sub() there.
 356:/mnt/c/Users/31740/Desktop/newcore/include/linux/atomic/atomic-instrumented.h ****  *
 357:/mnt/c/Users/31740/Desktop/newcore/include/linux/atomic/atomic-instrumented.h ****  * Return: The original value of @v.
 358:/mnt/c/Users/31740/Desktop/newcore/include/linux/atomic/atomic-instrumented.h ****  */
 359:/mnt/c/Users/31740/Desktop/newcore/include/linux/atomic/atomic-instrumented.h **** static __always_inline int
 360:/mnt/c/Users/31740/Desktop/newcore/include/linux/atomic/atomic-instrumented.h **** atomic_fetch_sub(int i, atomic_t *v)
 361:/mnt/c/Users/31740/Desktop/newcore/include/linux/atomic/atomic-instrumented.h **** {
 362:/mnt/c/Users/31740/Desktop/newcore/include/linux/atomic/atomic-instrumented.h **** 	kcsan_mb();
 363:/mnt/c/Users/31740/Desktop/newcore/include/linux/atomic/atomic-instrumented.h **** 	instrument_atomic_read_write(v, sizeof(*v));
 364:/mnt/c/Users/31740/Desktop/newcore/include/linux/atomic/atomic-instrumented.h **** 	return raw_atomic_fetch_sub(i, v);
 365:/mnt/c/Users/31740/Desktop/newcore/include/linux/atomic/atomic-instrumented.h **** }
 366:/mnt/c/Users/31740/Desktop/newcore/include/linux/atomic/atomic-instrumented.h **** 
 367:/mnt/c/Users/31740/Desktop/newcore/include/linux/atomic/atomic-instrumented.h **** /**
 368:/mnt/c/Users/31740/Desktop/newcore/include/linux/atomic/atomic-instrumented.h ****  * atomic_fetch_sub_acquire() - atomic subtract with acquire ordering
 369:/mnt/c/Users/31740/Desktop/newcore/include/linux/atomic/atomic-instrumented.h ****  * @i: int value to subtract
 370:/mnt/c/Users/31740/Desktop/newcore/include/linux/atomic/atomic-instrumented.h ****  * @v: pointer to atomic_t
 371:/mnt/c/Users/31740/Desktop/newcore/include/linux/atomic/atomic-instrumented.h ****  *
 372:/mnt/c/Users/31740/Desktop/newcore/include/linux/atomic/atomic-instrumented.h ****  * Atomically updates @v to (@v - @i) with acquire ordering.
 373:/mnt/c/Users/31740/Desktop/newcore/include/linux/atomic/atomic-instrumented.h ****  *
 374:/mnt/c/Users/31740/Desktop/newcore/include/linux/atomic/atomic-instrumented.h ****  * Unsafe to use in noinstr code; use raw_atomic_fetch_sub_acquire() there.
 375:/mnt/c/Users/31740/Desktop/newcore/include/linux/atomic/atomic-instrumented.h ****  *
 376:/mnt/c/Users/31740/Desktop/newcore/include/linux/atomic/atomic-instrumented.h ****  * Return: The original value of @v.
 377:/mnt/c/Users/31740/Desktop/newcore/include/linux/atomic/atomic-instrumented.h ****  */
 378:/mnt/c/Users/31740/Desktop/newcore/include/linux/atomic/atomic-instrumented.h **** static __always_inline int
 379:/mnt/c/Users/31740/Desktop/newcore/include/linux/atomic/atomic-instrumented.h **** atomic_fetch_sub_acquire(int i, atomic_t *v)
 380:/mnt/c/Users/31740/Desktop/newcore/include/linux/atomic/atomic-instrumented.h **** {
 381:/mnt/c/Users/31740/Desktop/newcore/include/linux/atomic/atomic-instrumented.h **** 	instrument_atomic_read_write(v, sizeof(*v));
 382:/mnt/c/Users/31740/Desktop/newcore/include/linux/atomic/atomic-instrumented.h **** 	return raw_atomic_fetch_sub_acquire(i, v);
 383:/mnt/c/Users/31740/Desktop/newcore/include/linux/atomic/atomic-instrumented.h **** }
 384:/mnt/c/Users/31740/Desktop/newcore/include/linux/atomic/atomic-instrumented.h **** 
 385:/mnt/c/Users/31740/Desktop/newcore/include/linux/atomic/atomic-instrumented.h **** /**
 386:/mnt/c/Users/31740/Desktop/newcore/include/linux/atomic/atomic-instrumented.h ****  * atomic_fetch_sub_release() - atomic subtract with release ordering
 387:/mnt/c/Users/31740/Desktop/newcore/include/linux/atomic/atomic-instrumented.h ****  * @i: int value to subtract
 388:/mnt/c/Users/31740/Desktop/newcore/include/linux/atomic/atomic-instrumented.h ****  * @v: pointer to atomic_t
 389:/mnt/c/Users/31740/Desktop/newcore/include/linux/atomic/atomic-instrumented.h ****  *
 390:/mnt/c/Users/31740/Desktop/newcore/include/linux/atomic/atomic-instrumented.h ****  * Atomically updates @v to (@v - @i) with release ordering.
 391:/mnt/c/Users/31740/Desktop/newcore/include/linux/atomic/atomic-instrumented.h ****  *
 392:/mnt/c/Users/31740/Desktop/newcore/include/linux/atomic/atomic-instrumented.h ****  * Unsafe to use in noinstr code; use raw_atomic_fetch_sub_release() there.
 393:/mnt/c/Users/31740/Desktop/newcore/include/linux/atomic/atomic-instrumented.h ****  *
 394:/mnt/c/Users/31740/Desktop/newcore/include/linux/atomic/atomic-instrumented.h ****  * Return: The original value of @v.
 395:/mnt/c/Users/31740/Desktop/newcore/include/linux/atomic/atomic-instrumented.h ****  */
 396:/mnt/c/Users/31740/Desktop/newcore/include/linux/atomic/atomic-instrumented.h **** static __always_inline int
 397:/mnt/c/Users/31740/Desktop/newcore/include/linux/atomic/atomic-instrumented.h **** atomic_fetch_sub_release(int i, atomic_t *v)
 398:/mnt/c/Users/31740/Desktop/newcore/include/linux/atomic/atomic-instrumented.h **** {
 399:/mnt/c/Users/31740/Desktop/newcore/include/linux/atomic/atomic-instrumented.h **** 	kcsan_release();
 400:/mnt/c/Users/31740/Desktop/newcore/include/linux/atomic/atomic-instrumented.h **** 	instrument_atomic_read_write(v, sizeof(*v));
 401:/mnt/c/Users/31740/Desktop/newcore/include/linux/atomic/atomic-instrumented.h **** 	return raw_atomic_fetch_sub_release(i, v);
 402:/mnt/c/Users/31740/Desktop/newcore/include/linux/atomic/atomic-instrumented.h **** }
 403:/mnt/c/Users/31740/Desktop/newcore/include/linux/atomic/atomic-instrumented.h **** 
 404:/mnt/c/Users/31740/Desktop/newcore/include/linux/atomic/atomic-instrumented.h **** /**
 405:/mnt/c/Users/31740/Desktop/newcore/include/linux/atomic/atomic-instrumented.h ****  * atomic_fetch_sub_relaxed() - atomic subtract with relaxed ordering
 406:/mnt/c/Users/31740/Desktop/newcore/include/linux/atomic/atomic-instrumented.h ****  * @i: int value to subtract
ARM GAS  /tmp/cctjQXNb.s 			page 33


 407:/mnt/c/Users/31740/Desktop/newcore/include/linux/atomic/atomic-instrumented.h ****  * @v: pointer to atomic_t
 408:/mnt/c/Users/31740/Desktop/newcore/include/linux/atomic/atomic-instrumented.h ****  *
 409:/mnt/c/Users/31740/Desktop/newcore/include/linux/atomic/atomic-instrumented.h ****  * Atomically updates @v to (@v - @i) with relaxed ordering.
 410:/mnt/c/Users/31740/Desktop/newcore/include/linux/atomic/atomic-instrumented.h ****  *
 411:/mnt/c/Users/31740/Desktop/newcore/include/linux/atomic/atomic-instrumented.h ****  * Unsafe to use in noinstr code; use raw_atomic_fetch_sub_relaxed() there.
 412:/mnt/c/Users/31740/Desktop/newcore/include/linux/atomic/atomic-instrumented.h ****  *
 413:/mnt/c/Users/31740/Desktop/newcore/include/linux/atomic/atomic-instrumented.h ****  * Return: The original value of @v.
 414:/mnt/c/Users/31740/Desktop/newcore/include/linux/atomic/atomic-instrumented.h ****  */
 415:/mnt/c/Users/31740/Desktop/newcore/include/linux/atomic/atomic-instrumented.h **** static __always_inline int
 416:/mnt/c/Users/31740/Desktop/newcore/include/linux/atomic/atomic-instrumented.h **** atomic_fetch_sub_relaxed(int i, atomic_t *v)
 417:/mnt/c/Users/31740/Desktop/newcore/include/linux/atomic/atomic-instrumented.h **** {
 418:/mnt/c/Users/31740/Desktop/newcore/include/linux/atomic/atomic-instrumented.h **** 	instrument_atomic_read_write(v, sizeof(*v));
 419:/mnt/c/Users/31740/Desktop/newcore/include/linux/atomic/atomic-instrumented.h **** 	return raw_atomic_fetch_sub_relaxed(i, v);
 420:/mnt/c/Users/31740/Desktop/newcore/include/linux/atomic/atomic-instrumented.h **** }
 421:/mnt/c/Users/31740/Desktop/newcore/include/linux/atomic/atomic-instrumented.h **** 
 422:/mnt/c/Users/31740/Desktop/newcore/include/linux/atomic/atomic-instrumented.h **** /**
 423:/mnt/c/Users/31740/Desktop/newcore/include/linux/atomic/atomic-instrumented.h ****  * atomic_inc() - atomic increment with relaxed ordering
 424:/mnt/c/Users/31740/Desktop/newcore/include/linux/atomic/atomic-instrumented.h ****  * @v: pointer to atomic_t
 425:/mnt/c/Users/31740/Desktop/newcore/include/linux/atomic/atomic-instrumented.h ****  *
 426:/mnt/c/Users/31740/Desktop/newcore/include/linux/atomic/atomic-instrumented.h ****  * Atomically updates @v to (@v + 1) with relaxed ordering.
 427:/mnt/c/Users/31740/Desktop/newcore/include/linux/atomic/atomic-instrumented.h ****  *
 428:/mnt/c/Users/31740/Desktop/newcore/include/linux/atomic/atomic-instrumented.h ****  * Unsafe to use in noinstr code; use raw_atomic_inc() there.
 429:/mnt/c/Users/31740/Desktop/newcore/include/linux/atomic/atomic-instrumented.h ****  *
 430:/mnt/c/Users/31740/Desktop/newcore/include/linux/atomic/atomic-instrumented.h ****  * Return: Nothing.
 431:/mnt/c/Users/31740/Desktop/newcore/include/linux/atomic/atomic-instrumented.h ****  */
 432:/mnt/c/Users/31740/Desktop/newcore/include/linux/atomic/atomic-instrumented.h **** static __always_inline void
 433:/mnt/c/Users/31740/Desktop/newcore/include/linux/atomic/atomic-instrumented.h **** atomic_inc(atomic_t *v)
 434:/mnt/c/Users/31740/Desktop/newcore/include/linux/atomic/atomic-instrumented.h **** {
 435:/mnt/c/Users/31740/Desktop/newcore/include/linux/atomic/atomic-instrumented.h **** 	instrument_atomic_read_write(v, sizeof(*v));
 436:/mnt/c/Users/31740/Desktop/newcore/include/linux/atomic/atomic-instrumented.h **** 	raw_atomic_inc(v);
 437:/mnt/c/Users/31740/Desktop/newcore/include/linux/atomic/atomic-instrumented.h **** }
 438:/mnt/c/Users/31740/Desktop/newcore/include/linux/atomic/atomic-instrumented.h **** 
 439:/mnt/c/Users/31740/Desktop/newcore/include/linux/atomic/atomic-instrumented.h **** /**
 440:/mnt/c/Users/31740/Desktop/newcore/include/linux/atomic/atomic-instrumented.h ****  * atomic_inc_return() - atomic increment with full ordering
 441:/mnt/c/Users/31740/Desktop/newcore/include/linux/atomic/atomic-instrumented.h ****  * @v: pointer to atomic_t
 442:/mnt/c/Users/31740/Desktop/newcore/include/linux/atomic/atomic-instrumented.h ****  *
 443:/mnt/c/Users/31740/Desktop/newcore/include/linux/atomic/atomic-instrumented.h ****  * Atomically updates @v to (@v + 1) with full ordering.
 444:/mnt/c/Users/31740/Desktop/newcore/include/linux/atomic/atomic-instrumented.h ****  *
 445:/mnt/c/Users/31740/Desktop/newcore/include/linux/atomic/atomic-instrumented.h ****  * Unsafe to use in noinstr code; use raw_atomic_inc_return() there.
 446:/mnt/c/Users/31740/Desktop/newcore/include/linux/atomic/atomic-instrumented.h ****  *
 447:/mnt/c/Users/31740/Desktop/newcore/include/linux/atomic/atomic-instrumented.h ****  * Return: The updated value of @v.
 448:/mnt/c/Users/31740/Desktop/newcore/include/linux/atomic/atomic-instrumented.h ****  */
 449:/mnt/c/Users/31740/Desktop/newcore/include/linux/atomic/atomic-instrumented.h **** static __always_inline int
 450:/mnt/c/Users/31740/Desktop/newcore/include/linux/atomic/atomic-instrumented.h **** atomic_inc_return(atomic_t *v)
 451:/mnt/c/Users/31740/Desktop/newcore/include/linux/atomic/atomic-instrumented.h **** {
 452:/mnt/c/Users/31740/Desktop/newcore/include/linux/atomic/atomic-instrumented.h **** 	kcsan_mb();
 453:/mnt/c/Users/31740/Desktop/newcore/include/linux/atomic/atomic-instrumented.h **** 	instrument_atomic_read_write(v, sizeof(*v));
 454:/mnt/c/Users/31740/Desktop/newcore/include/linux/atomic/atomic-instrumented.h **** 	return raw_atomic_inc_return(v);
 455:/mnt/c/Users/31740/Desktop/newcore/include/linux/atomic/atomic-instrumented.h **** }
 456:/mnt/c/Users/31740/Desktop/newcore/include/linux/atomic/atomic-instrumented.h **** 
 457:/mnt/c/Users/31740/Desktop/newcore/include/linux/atomic/atomic-instrumented.h **** /**
 458:/mnt/c/Users/31740/Desktop/newcore/include/linux/atomic/atomic-instrumented.h ****  * atomic_inc_return_acquire() - atomic increment with acquire ordering
 459:/mnt/c/Users/31740/Desktop/newcore/include/linux/atomic/atomic-instrumented.h ****  * @v: pointer to atomic_t
 460:/mnt/c/Users/31740/Desktop/newcore/include/linux/atomic/atomic-instrumented.h ****  *
 461:/mnt/c/Users/31740/Desktop/newcore/include/linux/atomic/atomic-instrumented.h ****  * Atomically updates @v to (@v + 1) with acquire ordering.
 462:/mnt/c/Users/31740/Desktop/newcore/include/linux/atomic/atomic-instrumented.h ****  *
 463:/mnt/c/Users/31740/Desktop/newcore/include/linux/atomic/atomic-instrumented.h ****  * Unsafe to use in noinstr code; use raw_atomic_inc_return_acquire() there.
ARM GAS  /tmp/cctjQXNb.s 			page 34


 464:/mnt/c/Users/31740/Desktop/newcore/include/linux/atomic/atomic-instrumented.h ****  *
 465:/mnt/c/Users/31740/Desktop/newcore/include/linux/atomic/atomic-instrumented.h ****  * Return: The updated value of @v.
 466:/mnt/c/Users/31740/Desktop/newcore/include/linux/atomic/atomic-instrumented.h ****  */
 467:/mnt/c/Users/31740/Desktop/newcore/include/linux/atomic/atomic-instrumented.h **** static __always_inline int
 468:/mnt/c/Users/31740/Desktop/newcore/include/linux/atomic/atomic-instrumented.h **** atomic_inc_return_acquire(atomic_t *v)
 469:/mnt/c/Users/31740/Desktop/newcore/include/linux/atomic/atomic-instrumented.h **** {
 470:/mnt/c/Users/31740/Desktop/newcore/include/linux/atomic/atomic-instrumented.h **** 	instrument_atomic_read_write(v, sizeof(*v));
 471:/mnt/c/Users/31740/Desktop/newcore/include/linux/atomic/atomic-instrumented.h **** 	return raw_atomic_inc_return_acquire(v);
 472:/mnt/c/Users/31740/Desktop/newcore/include/linux/atomic/atomic-instrumented.h **** }
 473:/mnt/c/Users/31740/Desktop/newcore/include/linux/atomic/atomic-instrumented.h **** 
 474:/mnt/c/Users/31740/Desktop/newcore/include/linux/atomic/atomic-instrumented.h **** /**
 475:/mnt/c/Users/31740/Desktop/newcore/include/linux/atomic/atomic-instrumented.h ****  * atomic_inc_return_release() - atomic increment with release ordering
 476:/mnt/c/Users/31740/Desktop/newcore/include/linux/atomic/atomic-instrumented.h ****  * @v: pointer to atomic_t
 477:/mnt/c/Users/31740/Desktop/newcore/include/linux/atomic/atomic-instrumented.h ****  *
 478:/mnt/c/Users/31740/Desktop/newcore/include/linux/atomic/atomic-instrumented.h ****  * Atomically updates @v to (@v + 1) with release ordering.
 479:/mnt/c/Users/31740/Desktop/newcore/include/linux/atomic/atomic-instrumented.h ****  *
 480:/mnt/c/Users/31740/Desktop/newcore/include/linux/atomic/atomic-instrumented.h ****  * Unsafe to use in noinstr code; use raw_atomic_inc_return_release() there.
 481:/mnt/c/Users/31740/Desktop/newcore/include/linux/atomic/atomic-instrumented.h ****  *
 482:/mnt/c/Users/31740/Desktop/newcore/include/linux/atomic/atomic-instrumented.h ****  * Return: The updated value of @v.
 483:/mnt/c/Users/31740/Desktop/newcore/include/linux/atomic/atomic-instrumented.h ****  */
 484:/mnt/c/Users/31740/Desktop/newcore/include/linux/atomic/atomic-instrumented.h **** static __always_inline int
 485:/mnt/c/Users/31740/Desktop/newcore/include/linux/atomic/atomic-instrumented.h **** atomic_inc_return_release(atomic_t *v)
 486:/mnt/c/Users/31740/Desktop/newcore/include/linux/atomic/atomic-instrumented.h **** {
 487:/mnt/c/Users/31740/Desktop/newcore/include/linux/atomic/atomic-instrumented.h **** 	kcsan_release();
 488:/mnt/c/Users/31740/Desktop/newcore/include/linux/atomic/atomic-instrumented.h **** 	instrument_atomic_read_write(v, sizeof(*v));
 489:/mnt/c/Users/31740/Desktop/newcore/include/linux/atomic/atomic-instrumented.h **** 	return raw_atomic_inc_return_release(v);
 490:/mnt/c/Users/31740/Desktop/newcore/include/linux/atomic/atomic-instrumented.h **** }
 491:/mnt/c/Users/31740/Desktop/newcore/include/linux/atomic/atomic-instrumented.h **** 
 492:/mnt/c/Users/31740/Desktop/newcore/include/linux/atomic/atomic-instrumented.h **** /**
 493:/mnt/c/Users/31740/Desktop/newcore/include/linux/atomic/atomic-instrumented.h ****  * atomic_inc_return_relaxed() - atomic increment with relaxed ordering
 494:/mnt/c/Users/31740/Desktop/newcore/include/linux/atomic/atomic-instrumented.h ****  * @v: pointer to atomic_t
 495:/mnt/c/Users/31740/Desktop/newcore/include/linux/atomic/atomic-instrumented.h ****  *
 496:/mnt/c/Users/31740/Desktop/newcore/include/linux/atomic/atomic-instrumented.h ****  * Atomically updates @v to (@v + 1) with relaxed ordering.
 497:/mnt/c/Users/31740/Desktop/newcore/include/linux/atomic/atomic-instrumented.h ****  *
 498:/mnt/c/Users/31740/Desktop/newcore/include/linux/atomic/atomic-instrumented.h ****  * Unsafe to use in noinstr code; use raw_atomic_inc_return_relaxed() there.
 499:/mnt/c/Users/31740/Desktop/newcore/include/linux/atomic/atomic-instrumented.h ****  *
 500:/mnt/c/Users/31740/Desktop/newcore/include/linux/atomic/atomic-instrumented.h ****  * Return: The updated value of @v.
 501:/mnt/c/Users/31740/Desktop/newcore/include/linux/atomic/atomic-instrumented.h ****  */
 502:/mnt/c/Users/31740/Desktop/newcore/include/linux/atomic/atomic-instrumented.h **** static __always_inline int
 503:/mnt/c/Users/31740/Desktop/newcore/include/linux/atomic/atomic-instrumented.h **** atomic_inc_return_relaxed(atomic_t *v)
 504:/mnt/c/Users/31740/Desktop/newcore/include/linux/atomic/atomic-instrumented.h **** {
 505:/mnt/c/Users/31740/Desktop/newcore/include/linux/atomic/atomic-instrumented.h **** 	instrument_atomic_read_write(v, sizeof(*v));
 506:/mnt/c/Users/31740/Desktop/newcore/include/linux/atomic/atomic-instrumented.h **** 	return raw_atomic_inc_return_relaxed(v);
 507:/mnt/c/Users/31740/Desktop/newcore/include/linux/atomic/atomic-instrumented.h **** }
 508:/mnt/c/Users/31740/Desktop/newcore/include/linux/atomic/atomic-instrumented.h **** 
 509:/mnt/c/Users/31740/Desktop/newcore/include/linux/atomic/atomic-instrumented.h **** /**
 510:/mnt/c/Users/31740/Desktop/newcore/include/linux/atomic/atomic-instrumented.h ****  * atomic_fetch_inc() - atomic increment with full ordering
 511:/mnt/c/Users/31740/Desktop/newcore/include/linux/atomic/atomic-instrumented.h ****  * @v: pointer to atomic_t
 512:/mnt/c/Users/31740/Desktop/newcore/include/linux/atomic/atomic-instrumented.h ****  *
 513:/mnt/c/Users/31740/Desktop/newcore/include/linux/atomic/atomic-instrumented.h ****  * Atomically updates @v to (@v + 1) with full ordering.
 514:/mnt/c/Users/31740/Desktop/newcore/include/linux/atomic/atomic-instrumented.h ****  *
 515:/mnt/c/Users/31740/Desktop/newcore/include/linux/atomic/atomic-instrumented.h ****  * Unsafe to use in noinstr code; use raw_atomic_fetch_inc() there.
 516:/mnt/c/Users/31740/Desktop/newcore/include/linux/atomic/atomic-instrumented.h ****  *
 517:/mnt/c/Users/31740/Desktop/newcore/include/linux/atomic/atomic-instrumented.h ****  * Return: The original value of @v.
 518:/mnt/c/Users/31740/Desktop/newcore/include/linux/atomic/atomic-instrumented.h ****  */
 519:/mnt/c/Users/31740/Desktop/newcore/include/linux/atomic/atomic-instrumented.h **** static __always_inline int
 520:/mnt/c/Users/31740/Desktop/newcore/include/linux/atomic/atomic-instrumented.h **** atomic_fetch_inc(atomic_t *v)
ARM GAS  /tmp/cctjQXNb.s 			page 35


 521:/mnt/c/Users/31740/Desktop/newcore/include/linux/atomic/atomic-instrumented.h **** {
 522:/mnt/c/Users/31740/Desktop/newcore/include/linux/atomic/atomic-instrumented.h **** 	kcsan_mb();
 523:/mnt/c/Users/31740/Desktop/newcore/include/linux/atomic/atomic-instrumented.h **** 	instrument_atomic_read_write(v, sizeof(*v));
 524:/mnt/c/Users/31740/Desktop/newcore/include/linux/atomic/atomic-instrumented.h **** 	return raw_atomic_fetch_inc(v);
 525:/mnt/c/Users/31740/Desktop/newcore/include/linux/atomic/atomic-instrumented.h **** }
 526:/mnt/c/Users/31740/Desktop/newcore/include/linux/atomic/atomic-instrumented.h **** 
 527:/mnt/c/Users/31740/Desktop/newcore/include/linux/atomic/atomic-instrumented.h **** /**
 528:/mnt/c/Users/31740/Desktop/newcore/include/linux/atomic/atomic-instrumented.h ****  * atomic_fetch_inc_acquire() - atomic increment with acquire ordering
 529:/mnt/c/Users/31740/Desktop/newcore/include/linux/atomic/atomic-instrumented.h ****  * @v: pointer to atomic_t
 530:/mnt/c/Users/31740/Desktop/newcore/include/linux/atomic/atomic-instrumented.h ****  *
 531:/mnt/c/Users/31740/Desktop/newcore/include/linux/atomic/atomic-instrumented.h ****  * Atomically updates @v to (@v + 1) with acquire ordering.
 532:/mnt/c/Users/31740/Desktop/newcore/include/linux/atomic/atomic-instrumented.h ****  *
 533:/mnt/c/Users/31740/Desktop/newcore/include/linux/atomic/atomic-instrumented.h ****  * Unsafe to use in noinstr code; use raw_atomic_fetch_inc_acquire() there.
 534:/mnt/c/Users/31740/Desktop/newcore/include/linux/atomic/atomic-instrumented.h ****  *
 535:/mnt/c/Users/31740/Desktop/newcore/include/linux/atomic/atomic-instrumented.h ****  * Return: The original value of @v.
 536:/mnt/c/Users/31740/Desktop/newcore/include/linux/atomic/atomic-instrumented.h ****  */
 537:/mnt/c/Users/31740/Desktop/newcore/include/linux/atomic/atomic-instrumented.h **** static __always_inline int
 538:/mnt/c/Users/31740/Desktop/newcore/include/linux/atomic/atomic-instrumented.h **** atomic_fetch_inc_acquire(atomic_t *v)
 539:/mnt/c/Users/31740/Desktop/newcore/include/linux/atomic/atomic-instrumented.h **** {
 540:/mnt/c/Users/31740/Desktop/newcore/include/linux/atomic/atomic-instrumented.h **** 	instrument_atomic_read_write(v, sizeof(*v));
 541:/mnt/c/Users/31740/Desktop/newcore/include/linux/atomic/atomic-instrumented.h **** 	return raw_atomic_fetch_inc_acquire(v);
 542:/mnt/c/Users/31740/Desktop/newcore/include/linux/atomic/atomic-instrumented.h **** }
 543:/mnt/c/Users/31740/Desktop/newcore/include/linux/atomic/atomic-instrumented.h **** 
 544:/mnt/c/Users/31740/Desktop/newcore/include/linux/atomic/atomic-instrumented.h **** /**
 545:/mnt/c/Users/31740/Desktop/newcore/include/linux/atomic/atomic-instrumented.h ****  * atomic_fetch_inc_release() - atomic increment with release ordering
 546:/mnt/c/Users/31740/Desktop/newcore/include/linux/atomic/atomic-instrumented.h ****  * @v: pointer to atomic_t
 547:/mnt/c/Users/31740/Desktop/newcore/include/linux/atomic/atomic-instrumented.h ****  *
 548:/mnt/c/Users/31740/Desktop/newcore/include/linux/atomic/atomic-instrumented.h ****  * Atomically updates @v to (@v + 1) with release ordering.
 549:/mnt/c/Users/31740/Desktop/newcore/include/linux/atomic/atomic-instrumented.h ****  *
 550:/mnt/c/Users/31740/Desktop/newcore/include/linux/atomic/atomic-instrumented.h ****  * Unsafe to use in noinstr code; use raw_atomic_fetch_inc_release() there.
 551:/mnt/c/Users/31740/Desktop/newcore/include/linux/atomic/atomic-instrumented.h ****  *
 552:/mnt/c/Users/31740/Desktop/newcore/include/linux/atomic/atomic-instrumented.h ****  * Return: The original value of @v.
 553:/mnt/c/Users/31740/Desktop/newcore/include/linux/atomic/atomic-instrumented.h ****  */
 554:/mnt/c/Users/31740/Desktop/newcore/include/linux/atomic/atomic-instrumented.h **** static __always_inline int
 555:/mnt/c/Users/31740/Desktop/newcore/include/linux/atomic/atomic-instrumented.h **** atomic_fetch_inc_release(atomic_t *v)
 556:/mnt/c/Users/31740/Desktop/newcore/include/linux/atomic/atomic-instrumented.h **** {
 557:/mnt/c/Users/31740/Desktop/newcore/include/linux/atomic/atomic-instrumented.h **** 	kcsan_release();
 558:/mnt/c/Users/31740/Desktop/newcore/include/linux/atomic/atomic-instrumented.h **** 	instrument_atomic_read_write(v, sizeof(*v));
 559:/mnt/c/Users/31740/Desktop/newcore/include/linux/atomic/atomic-instrumented.h **** 	return raw_atomic_fetch_inc_release(v);
 560:/mnt/c/Users/31740/Desktop/newcore/include/linux/atomic/atomic-instrumented.h **** }
 561:/mnt/c/Users/31740/Desktop/newcore/include/linux/atomic/atomic-instrumented.h **** 
 562:/mnt/c/Users/31740/Desktop/newcore/include/linux/atomic/atomic-instrumented.h **** /**
 563:/mnt/c/Users/31740/Desktop/newcore/include/linux/atomic/atomic-instrumented.h ****  * atomic_fetch_inc_relaxed() - atomic increment with relaxed ordering
 564:/mnt/c/Users/31740/Desktop/newcore/include/linux/atomic/atomic-instrumented.h ****  * @v: pointer to atomic_t
 565:/mnt/c/Users/31740/Desktop/newcore/include/linux/atomic/atomic-instrumented.h ****  *
 566:/mnt/c/Users/31740/Desktop/newcore/include/linux/atomic/atomic-instrumented.h ****  * Atomically updates @v to (@v + 1) with relaxed ordering.
 567:/mnt/c/Users/31740/Desktop/newcore/include/linux/atomic/atomic-instrumented.h ****  *
 568:/mnt/c/Users/31740/Desktop/newcore/include/linux/atomic/atomic-instrumented.h ****  * Unsafe to use in noinstr code; use raw_atomic_fetch_inc_relaxed() there.
 569:/mnt/c/Users/31740/Desktop/newcore/include/linux/atomic/atomic-instrumented.h ****  *
 570:/mnt/c/Users/31740/Desktop/newcore/include/linux/atomic/atomic-instrumented.h ****  * Return: The original value of @v.
 571:/mnt/c/Users/31740/Desktop/newcore/include/linux/atomic/atomic-instrumented.h ****  */
 572:/mnt/c/Users/31740/Desktop/newcore/include/linux/atomic/atomic-instrumented.h **** static __always_inline int
 573:/mnt/c/Users/31740/Desktop/newcore/include/linux/atomic/atomic-instrumented.h **** atomic_fetch_inc_relaxed(atomic_t *v)
 574:/mnt/c/Users/31740/Desktop/newcore/include/linux/atomic/atomic-instrumented.h **** {
 575:/mnt/c/Users/31740/Desktop/newcore/include/linux/atomic/atomic-instrumented.h **** 	instrument_atomic_read_write(v, sizeof(*v));
 576:/mnt/c/Users/31740/Desktop/newcore/include/linux/atomic/atomic-instrumented.h **** 	return raw_atomic_fetch_inc_relaxed(v);
 577:/mnt/c/Users/31740/Desktop/newcore/include/linux/atomic/atomic-instrumented.h **** }
ARM GAS  /tmp/cctjQXNb.s 			page 36


 578:/mnt/c/Users/31740/Desktop/newcore/include/linux/atomic/atomic-instrumented.h **** 
 579:/mnt/c/Users/31740/Desktop/newcore/include/linux/atomic/atomic-instrumented.h **** /**
 580:/mnt/c/Users/31740/Desktop/newcore/include/linux/atomic/atomic-instrumented.h ****  * atomic_dec() - atomic decrement with relaxed ordering
 581:/mnt/c/Users/31740/Desktop/newcore/include/linux/atomic/atomic-instrumented.h ****  * @v: pointer to atomic_t
 582:/mnt/c/Users/31740/Desktop/newcore/include/linux/atomic/atomic-instrumented.h ****  *
 583:/mnt/c/Users/31740/Desktop/newcore/include/linux/atomic/atomic-instrumented.h ****  * Atomically updates @v to (@v - 1) with relaxed ordering.
 584:/mnt/c/Users/31740/Desktop/newcore/include/linux/atomic/atomic-instrumented.h ****  *
 585:/mnt/c/Users/31740/Desktop/newcore/include/linux/atomic/atomic-instrumented.h ****  * Unsafe to use in noinstr code; use raw_atomic_dec() there.
 586:/mnt/c/Users/31740/Desktop/newcore/include/linux/atomic/atomic-instrumented.h ****  *
 587:/mnt/c/Users/31740/Desktop/newcore/include/linux/atomic/atomic-instrumented.h ****  * Return: Nothing.
 588:/mnt/c/Users/31740/Desktop/newcore/include/linux/atomic/atomic-instrumented.h ****  */
 589:/mnt/c/Users/31740/Desktop/newcore/include/linux/atomic/atomic-instrumented.h **** static __always_inline void
 590:/mnt/c/Users/31740/Desktop/newcore/include/linux/atomic/atomic-instrumented.h **** atomic_dec(atomic_t *v)
 591:/mnt/c/Users/31740/Desktop/newcore/include/linux/atomic/atomic-instrumented.h **** {
 592:/mnt/c/Users/31740/Desktop/newcore/include/linux/atomic/atomic-instrumented.h **** 	instrument_atomic_read_write(v, sizeof(*v));
 593:/mnt/c/Users/31740/Desktop/newcore/include/linux/atomic/atomic-instrumented.h **** 	raw_atomic_dec(v);
 594:/mnt/c/Users/31740/Desktop/newcore/include/linux/atomic/atomic-instrumented.h **** }
 595:/mnt/c/Users/31740/Desktop/newcore/include/linux/atomic/atomic-instrumented.h **** 
 596:/mnt/c/Users/31740/Desktop/newcore/include/linux/atomic/atomic-instrumented.h **** /**
 597:/mnt/c/Users/31740/Desktop/newcore/include/linux/atomic/atomic-instrumented.h ****  * atomic_dec_return() - atomic decrement with full ordering
 598:/mnt/c/Users/31740/Desktop/newcore/include/linux/atomic/atomic-instrumented.h ****  * @v: pointer to atomic_t
 599:/mnt/c/Users/31740/Desktop/newcore/include/linux/atomic/atomic-instrumented.h ****  *
 600:/mnt/c/Users/31740/Desktop/newcore/include/linux/atomic/atomic-instrumented.h ****  * Atomically updates @v to (@v - 1) with full ordering.
 601:/mnt/c/Users/31740/Desktop/newcore/include/linux/atomic/atomic-instrumented.h ****  *
 602:/mnt/c/Users/31740/Desktop/newcore/include/linux/atomic/atomic-instrumented.h ****  * Unsafe to use in noinstr code; use raw_atomic_dec_return() there.
 603:/mnt/c/Users/31740/Desktop/newcore/include/linux/atomic/atomic-instrumented.h ****  *
 604:/mnt/c/Users/31740/Desktop/newcore/include/linux/atomic/atomic-instrumented.h ****  * Return: The updated value of @v.
 605:/mnt/c/Users/31740/Desktop/newcore/include/linux/atomic/atomic-instrumented.h ****  */
 606:/mnt/c/Users/31740/Desktop/newcore/include/linux/atomic/atomic-instrumented.h **** static __always_inline int
 607:/mnt/c/Users/31740/Desktop/newcore/include/linux/atomic/atomic-instrumented.h **** atomic_dec_return(atomic_t *v)
 608:/mnt/c/Users/31740/Desktop/newcore/include/linux/atomic/atomic-instrumented.h **** {
 609:/mnt/c/Users/31740/Desktop/newcore/include/linux/atomic/atomic-instrumented.h **** 	kcsan_mb();
 610:/mnt/c/Users/31740/Desktop/newcore/include/linux/atomic/atomic-instrumented.h **** 	instrument_atomic_read_write(v, sizeof(*v));
 611:/mnt/c/Users/31740/Desktop/newcore/include/linux/atomic/atomic-instrumented.h **** 	return raw_atomic_dec_return(v);
 612:/mnt/c/Users/31740/Desktop/newcore/include/linux/atomic/atomic-instrumented.h **** }
 613:/mnt/c/Users/31740/Desktop/newcore/include/linux/atomic/atomic-instrumented.h **** 
 614:/mnt/c/Users/31740/Desktop/newcore/include/linux/atomic/atomic-instrumented.h **** /**
 615:/mnt/c/Users/31740/Desktop/newcore/include/linux/atomic/atomic-instrumented.h ****  * atomic_dec_return_acquire() - atomic decrement with acquire ordering
 616:/mnt/c/Users/31740/Desktop/newcore/include/linux/atomic/atomic-instrumented.h ****  * @v: pointer to atomic_t
 617:/mnt/c/Users/31740/Desktop/newcore/include/linux/atomic/atomic-instrumented.h ****  *
 618:/mnt/c/Users/31740/Desktop/newcore/include/linux/atomic/atomic-instrumented.h ****  * Atomically updates @v to (@v - 1) with acquire ordering.
 619:/mnt/c/Users/31740/Desktop/newcore/include/linux/atomic/atomic-instrumented.h ****  *
 620:/mnt/c/Users/31740/Desktop/newcore/include/linux/atomic/atomic-instrumented.h ****  * Unsafe to use in noinstr code; use raw_atomic_dec_return_acquire() there.
 621:/mnt/c/Users/31740/Desktop/newcore/include/linux/atomic/atomic-instrumented.h ****  *
 622:/mnt/c/Users/31740/Desktop/newcore/include/linux/atomic/atomic-instrumented.h ****  * Return: The updated value of @v.
 623:/mnt/c/Users/31740/Desktop/newcore/include/linux/atomic/atomic-instrumented.h ****  */
 624:/mnt/c/Users/31740/Desktop/newcore/include/linux/atomic/atomic-instrumented.h **** static __always_inline int
 625:/mnt/c/Users/31740/Desktop/newcore/include/linux/atomic/atomic-instrumented.h **** atomic_dec_return_acquire(atomic_t *v)
 626:/mnt/c/Users/31740/Desktop/newcore/include/linux/atomic/atomic-instrumented.h **** {
 627:/mnt/c/Users/31740/Desktop/newcore/include/linux/atomic/atomic-instrumented.h **** 	instrument_atomic_read_write(v, sizeof(*v));
 628:/mnt/c/Users/31740/Desktop/newcore/include/linux/atomic/atomic-instrumented.h **** 	return raw_atomic_dec_return_acquire(v);
 629:/mnt/c/Users/31740/Desktop/newcore/include/linux/atomic/atomic-instrumented.h **** }
 630:/mnt/c/Users/31740/Desktop/newcore/include/linux/atomic/atomic-instrumented.h **** 
 631:/mnt/c/Users/31740/Desktop/newcore/include/linux/atomic/atomic-instrumented.h **** /**
 632:/mnt/c/Users/31740/Desktop/newcore/include/linux/atomic/atomic-instrumented.h ****  * atomic_dec_return_release() - atomic decrement with release ordering
 633:/mnt/c/Users/31740/Desktop/newcore/include/linux/atomic/atomic-instrumented.h ****  * @v: pointer to atomic_t
 634:/mnt/c/Users/31740/Desktop/newcore/include/linux/atomic/atomic-instrumented.h ****  *
ARM GAS  /tmp/cctjQXNb.s 			page 37


 635:/mnt/c/Users/31740/Desktop/newcore/include/linux/atomic/atomic-instrumented.h ****  * Atomically updates @v to (@v - 1) with release ordering.
 636:/mnt/c/Users/31740/Desktop/newcore/include/linux/atomic/atomic-instrumented.h ****  *
 637:/mnt/c/Users/31740/Desktop/newcore/include/linux/atomic/atomic-instrumented.h ****  * Unsafe to use in noinstr code; use raw_atomic_dec_return_release() there.
 638:/mnt/c/Users/31740/Desktop/newcore/include/linux/atomic/atomic-instrumented.h ****  *
 639:/mnt/c/Users/31740/Desktop/newcore/include/linux/atomic/atomic-instrumented.h ****  * Return: The updated value of @v.
 640:/mnt/c/Users/31740/Desktop/newcore/include/linux/atomic/atomic-instrumented.h ****  */
 641:/mnt/c/Users/31740/Desktop/newcore/include/linux/atomic/atomic-instrumented.h **** static __always_inline int
 642:/mnt/c/Users/31740/Desktop/newcore/include/linux/atomic/atomic-instrumented.h **** atomic_dec_return_release(atomic_t *v)
 643:/mnt/c/Users/31740/Desktop/newcore/include/linux/atomic/atomic-instrumented.h **** {
 644:/mnt/c/Users/31740/Desktop/newcore/include/linux/atomic/atomic-instrumented.h **** 	kcsan_release();
 645:/mnt/c/Users/31740/Desktop/newcore/include/linux/atomic/atomic-instrumented.h **** 	instrument_atomic_read_write(v, sizeof(*v));
 646:/mnt/c/Users/31740/Desktop/newcore/include/linux/atomic/atomic-instrumented.h **** 	return raw_atomic_dec_return_release(v);
 647:/mnt/c/Users/31740/Desktop/newcore/include/linux/atomic/atomic-instrumented.h **** }
 648:/mnt/c/Users/31740/Desktop/newcore/include/linux/atomic/atomic-instrumented.h **** 
 649:/mnt/c/Users/31740/Desktop/newcore/include/linux/atomic/atomic-instrumented.h **** /**
 650:/mnt/c/Users/31740/Desktop/newcore/include/linux/atomic/atomic-instrumented.h ****  * atomic_dec_return_relaxed() - atomic decrement with relaxed ordering
 651:/mnt/c/Users/31740/Desktop/newcore/include/linux/atomic/atomic-instrumented.h ****  * @v: pointer to atomic_t
 652:/mnt/c/Users/31740/Desktop/newcore/include/linux/atomic/atomic-instrumented.h ****  *
 653:/mnt/c/Users/31740/Desktop/newcore/include/linux/atomic/atomic-instrumented.h ****  * Atomically updates @v to (@v - 1) with relaxed ordering.
 654:/mnt/c/Users/31740/Desktop/newcore/include/linux/atomic/atomic-instrumented.h ****  *
 655:/mnt/c/Users/31740/Desktop/newcore/include/linux/atomic/atomic-instrumented.h ****  * Unsafe to use in noinstr code; use raw_atomic_dec_return_relaxed() there.
 656:/mnt/c/Users/31740/Desktop/newcore/include/linux/atomic/atomic-instrumented.h ****  *
 657:/mnt/c/Users/31740/Desktop/newcore/include/linux/atomic/atomic-instrumented.h ****  * Return: The updated value of @v.
 658:/mnt/c/Users/31740/Desktop/newcore/include/linux/atomic/atomic-instrumented.h ****  */
 659:/mnt/c/Users/31740/Desktop/newcore/include/linux/atomic/atomic-instrumented.h **** static __always_inline int
 660:/mnt/c/Users/31740/Desktop/newcore/include/linux/atomic/atomic-instrumented.h **** atomic_dec_return_relaxed(atomic_t *v)
 661:/mnt/c/Users/31740/Desktop/newcore/include/linux/atomic/atomic-instrumented.h **** {
 662:/mnt/c/Users/31740/Desktop/newcore/include/linux/atomic/atomic-instrumented.h **** 	instrument_atomic_read_write(v, sizeof(*v));
 663:/mnt/c/Users/31740/Desktop/newcore/include/linux/atomic/atomic-instrumented.h **** 	return raw_atomic_dec_return_relaxed(v);
 664:/mnt/c/Users/31740/Desktop/newcore/include/linux/atomic/atomic-instrumented.h **** }
 665:/mnt/c/Users/31740/Desktop/newcore/include/linux/atomic/atomic-instrumented.h **** 
 666:/mnt/c/Users/31740/Desktop/newcore/include/linux/atomic/atomic-instrumented.h **** /**
 667:/mnt/c/Users/31740/Desktop/newcore/include/linux/atomic/atomic-instrumented.h ****  * atomic_fetch_dec() - atomic decrement with full ordering
 668:/mnt/c/Users/31740/Desktop/newcore/include/linux/atomic/atomic-instrumented.h ****  * @v: pointer to atomic_t
 669:/mnt/c/Users/31740/Desktop/newcore/include/linux/atomic/atomic-instrumented.h ****  *
 670:/mnt/c/Users/31740/Desktop/newcore/include/linux/atomic/atomic-instrumented.h ****  * Atomically updates @v to (@v - 1) with full ordering.
 671:/mnt/c/Users/31740/Desktop/newcore/include/linux/atomic/atomic-instrumented.h ****  *
 672:/mnt/c/Users/31740/Desktop/newcore/include/linux/atomic/atomic-instrumented.h ****  * Unsafe to use in noinstr code; use raw_atomic_fetch_dec() there.
 673:/mnt/c/Users/31740/Desktop/newcore/include/linux/atomic/atomic-instrumented.h ****  *
 674:/mnt/c/Users/31740/Desktop/newcore/include/linux/atomic/atomic-instrumented.h ****  * Return: The original value of @v.
 675:/mnt/c/Users/31740/Desktop/newcore/include/linux/atomic/atomic-instrumented.h ****  */
 676:/mnt/c/Users/31740/Desktop/newcore/include/linux/atomic/atomic-instrumented.h **** static __always_inline int
 677:/mnt/c/Users/31740/Desktop/newcore/include/linux/atomic/atomic-instrumented.h **** atomic_fetch_dec(atomic_t *v)
 678:/mnt/c/Users/31740/Desktop/newcore/include/linux/atomic/atomic-instrumented.h **** {
 679:/mnt/c/Users/31740/Desktop/newcore/include/linux/atomic/atomic-instrumented.h **** 	kcsan_mb();
 680:/mnt/c/Users/31740/Desktop/newcore/include/linux/atomic/atomic-instrumented.h **** 	instrument_atomic_read_write(v, sizeof(*v));
 681:/mnt/c/Users/31740/Desktop/newcore/include/linux/atomic/atomic-instrumented.h **** 	return raw_atomic_fetch_dec(v);
 682:/mnt/c/Users/31740/Desktop/newcore/include/linux/atomic/atomic-instrumented.h **** }
 683:/mnt/c/Users/31740/Desktop/newcore/include/linux/atomic/atomic-instrumented.h **** 
 684:/mnt/c/Users/31740/Desktop/newcore/include/linux/atomic/atomic-instrumented.h **** /**
 685:/mnt/c/Users/31740/Desktop/newcore/include/linux/atomic/atomic-instrumented.h ****  * atomic_fetch_dec_acquire() - atomic decrement with acquire ordering
 686:/mnt/c/Users/31740/Desktop/newcore/include/linux/atomic/atomic-instrumented.h ****  * @v: pointer to atomic_t
 687:/mnt/c/Users/31740/Desktop/newcore/include/linux/atomic/atomic-instrumented.h ****  *
 688:/mnt/c/Users/31740/Desktop/newcore/include/linux/atomic/atomic-instrumented.h ****  * Atomically updates @v to (@v - 1) with acquire ordering.
 689:/mnt/c/Users/31740/Desktop/newcore/include/linux/atomic/atomic-instrumented.h ****  *
 690:/mnt/c/Users/31740/Desktop/newcore/include/linux/atomic/atomic-instrumented.h ****  * Unsafe to use in noinstr code; use raw_atomic_fetch_dec_acquire() there.
 691:/mnt/c/Users/31740/Desktop/newcore/include/linux/atomic/atomic-instrumented.h ****  *
ARM GAS  /tmp/cctjQXNb.s 			page 38


 692:/mnt/c/Users/31740/Desktop/newcore/include/linux/atomic/atomic-instrumented.h ****  * Return: The original value of @v.
 693:/mnt/c/Users/31740/Desktop/newcore/include/linux/atomic/atomic-instrumented.h ****  */
 694:/mnt/c/Users/31740/Desktop/newcore/include/linux/atomic/atomic-instrumented.h **** static __always_inline int
 695:/mnt/c/Users/31740/Desktop/newcore/include/linux/atomic/atomic-instrumented.h **** atomic_fetch_dec_acquire(atomic_t *v)
 696:/mnt/c/Users/31740/Desktop/newcore/include/linux/atomic/atomic-instrumented.h **** {
 697:/mnt/c/Users/31740/Desktop/newcore/include/linux/atomic/atomic-instrumented.h **** 	instrument_atomic_read_write(v, sizeof(*v));
 698:/mnt/c/Users/31740/Desktop/newcore/include/linux/atomic/atomic-instrumented.h **** 	return raw_atomic_fetch_dec_acquire(v);
 699:/mnt/c/Users/31740/Desktop/newcore/include/linux/atomic/atomic-instrumented.h **** }
 700:/mnt/c/Users/31740/Desktop/newcore/include/linux/atomic/atomic-instrumented.h **** 
 701:/mnt/c/Users/31740/Desktop/newcore/include/linux/atomic/atomic-instrumented.h **** /**
 702:/mnt/c/Users/31740/Desktop/newcore/include/linux/atomic/atomic-instrumented.h ****  * atomic_fetch_dec_release() - atomic decrement with release ordering
 703:/mnt/c/Users/31740/Desktop/newcore/include/linux/atomic/atomic-instrumented.h ****  * @v: pointer to atomic_t
 704:/mnt/c/Users/31740/Desktop/newcore/include/linux/atomic/atomic-instrumented.h ****  *
 705:/mnt/c/Users/31740/Desktop/newcore/include/linux/atomic/atomic-instrumented.h ****  * Atomically updates @v to (@v - 1) with release ordering.
 706:/mnt/c/Users/31740/Desktop/newcore/include/linux/atomic/atomic-instrumented.h ****  *
 707:/mnt/c/Users/31740/Desktop/newcore/include/linux/atomic/atomic-instrumented.h ****  * Unsafe to use in noinstr code; use raw_atomic_fetch_dec_release() there.
 708:/mnt/c/Users/31740/Desktop/newcore/include/linux/atomic/atomic-instrumented.h ****  *
 709:/mnt/c/Users/31740/Desktop/newcore/include/linux/atomic/atomic-instrumented.h ****  * Return: The original value of @v.
 710:/mnt/c/Users/31740/Desktop/newcore/include/linux/atomic/atomic-instrumented.h ****  */
 711:/mnt/c/Users/31740/Desktop/newcore/include/linux/atomic/atomic-instrumented.h **** static __always_inline int
 712:/mnt/c/Users/31740/Desktop/newcore/include/linux/atomic/atomic-instrumented.h **** atomic_fetch_dec_release(atomic_t *v)
 713:/mnt/c/Users/31740/Desktop/newcore/include/linux/atomic/atomic-instrumented.h **** {
 714:/mnt/c/Users/31740/Desktop/newcore/include/linux/atomic/atomic-instrumented.h **** 	kcsan_release();
 715:/mnt/c/Users/31740/Desktop/newcore/include/linux/atomic/atomic-instrumented.h **** 	instrument_atomic_read_write(v, sizeof(*v));
 716:/mnt/c/Users/31740/Desktop/newcore/include/linux/atomic/atomic-instrumented.h **** 	return raw_atomic_fetch_dec_release(v);
 717:/mnt/c/Users/31740/Desktop/newcore/include/linux/atomic/atomic-instrumented.h **** }
 718:/mnt/c/Users/31740/Desktop/newcore/include/linux/atomic/atomic-instrumented.h **** 
 719:/mnt/c/Users/31740/Desktop/newcore/include/linux/atomic/atomic-instrumented.h **** /**
 720:/mnt/c/Users/31740/Desktop/newcore/include/linux/atomic/atomic-instrumented.h ****  * atomic_fetch_dec_relaxed() - atomic decrement with relaxed ordering
 721:/mnt/c/Users/31740/Desktop/newcore/include/linux/atomic/atomic-instrumented.h ****  * @v: pointer to atomic_t
 722:/mnt/c/Users/31740/Desktop/newcore/include/linux/atomic/atomic-instrumented.h ****  *
 723:/mnt/c/Users/31740/Desktop/newcore/include/linux/atomic/atomic-instrumented.h ****  * Atomically updates @v to (@v - 1) with relaxed ordering.
 724:/mnt/c/Users/31740/Desktop/newcore/include/linux/atomic/atomic-instrumented.h ****  *
 725:/mnt/c/Users/31740/Desktop/newcore/include/linux/atomic/atomic-instrumented.h ****  * Unsafe to use in noinstr code; use raw_atomic_fetch_dec_relaxed() there.
 726:/mnt/c/Users/31740/Desktop/newcore/include/linux/atomic/atomic-instrumented.h ****  *
 727:/mnt/c/Users/31740/Desktop/newcore/include/linux/atomic/atomic-instrumented.h ****  * Return: The original value of @v.
 728:/mnt/c/Users/31740/Desktop/newcore/include/linux/atomic/atomic-instrumented.h ****  */
 729:/mnt/c/Users/31740/Desktop/newcore/include/linux/atomic/atomic-instrumented.h **** static __always_inline int
 730:/mnt/c/Users/31740/Desktop/newcore/include/linux/atomic/atomic-instrumented.h **** atomic_fetch_dec_relaxed(atomic_t *v)
 731:/mnt/c/Users/31740/Desktop/newcore/include/linux/atomic/atomic-instrumented.h **** {
 732:/mnt/c/Users/31740/Desktop/newcore/include/linux/atomic/atomic-instrumented.h **** 	instrument_atomic_read_write(v, sizeof(*v));
 733:/mnt/c/Users/31740/Desktop/newcore/include/linux/atomic/atomic-instrumented.h **** 	return raw_atomic_fetch_dec_relaxed(v);
 734:/mnt/c/Users/31740/Desktop/newcore/include/linux/atomic/atomic-instrumented.h **** }
 735:/mnt/c/Users/31740/Desktop/newcore/include/linux/atomic/atomic-instrumented.h **** 
 736:/mnt/c/Users/31740/Desktop/newcore/include/linux/atomic/atomic-instrumented.h **** /**
 737:/mnt/c/Users/31740/Desktop/newcore/include/linux/atomic/atomic-instrumented.h ****  * atomic_and() - atomic bitwise AND with relaxed ordering
 738:/mnt/c/Users/31740/Desktop/newcore/include/linux/atomic/atomic-instrumented.h ****  * @i: int value
 739:/mnt/c/Users/31740/Desktop/newcore/include/linux/atomic/atomic-instrumented.h ****  * @v: pointer to atomic_t
 740:/mnt/c/Users/31740/Desktop/newcore/include/linux/atomic/atomic-instrumented.h ****  *
 741:/mnt/c/Users/31740/Desktop/newcore/include/linux/atomic/atomic-instrumented.h ****  * Atomically updates @v to (@v & @i) with relaxed ordering.
 742:/mnt/c/Users/31740/Desktop/newcore/include/linux/atomic/atomic-instrumented.h ****  *
 743:/mnt/c/Users/31740/Desktop/newcore/include/linux/atomic/atomic-instrumented.h ****  * Unsafe to use in noinstr code; use raw_atomic_and() there.
 744:/mnt/c/Users/31740/Desktop/newcore/include/linux/atomic/atomic-instrumented.h ****  *
 745:/mnt/c/Users/31740/Desktop/newcore/include/linux/atomic/atomic-instrumented.h ****  * Return: Nothing.
 746:/mnt/c/Users/31740/Desktop/newcore/include/linux/atomic/atomic-instrumented.h ****  */
 747:/mnt/c/Users/31740/Desktop/newcore/include/linux/atomic/atomic-instrumented.h **** static __always_inline void
 748:/mnt/c/Users/31740/Desktop/newcore/include/linux/atomic/atomic-instrumented.h **** atomic_and(int i, atomic_t *v)
ARM GAS  /tmp/cctjQXNb.s 			page 39


 749:/mnt/c/Users/31740/Desktop/newcore/include/linux/atomic/atomic-instrumented.h **** {
 750:/mnt/c/Users/31740/Desktop/newcore/include/linux/atomic/atomic-instrumented.h **** 	instrument_atomic_read_write(v, sizeof(*v));
 751:/mnt/c/Users/31740/Desktop/newcore/include/linux/atomic/atomic-instrumented.h **** 	raw_atomic_and(i, v);
 752:/mnt/c/Users/31740/Desktop/newcore/include/linux/atomic/atomic-instrumented.h **** }
 753:/mnt/c/Users/31740/Desktop/newcore/include/linux/atomic/atomic-instrumented.h **** 
 754:/mnt/c/Users/31740/Desktop/newcore/include/linux/atomic/atomic-instrumented.h **** /**
 755:/mnt/c/Users/31740/Desktop/newcore/include/linux/atomic/atomic-instrumented.h ****  * atomic_fetch_and() - atomic bitwise AND with full ordering
 756:/mnt/c/Users/31740/Desktop/newcore/include/linux/atomic/atomic-instrumented.h ****  * @i: int value
 757:/mnt/c/Users/31740/Desktop/newcore/include/linux/atomic/atomic-instrumented.h ****  * @v: pointer to atomic_t
 758:/mnt/c/Users/31740/Desktop/newcore/include/linux/atomic/atomic-instrumented.h ****  *
 759:/mnt/c/Users/31740/Desktop/newcore/include/linux/atomic/atomic-instrumented.h ****  * Atomically updates @v to (@v & @i) with full ordering.
 760:/mnt/c/Users/31740/Desktop/newcore/include/linux/atomic/atomic-instrumented.h ****  *
 761:/mnt/c/Users/31740/Desktop/newcore/include/linux/atomic/atomic-instrumented.h ****  * Unsafe to use in noinstr code; use raw_atomic_fetch_and() there.
 762:/mnt/c/Users/31740/Desktop/newcore/include/linux/atomic/atomic-instrumented.h ****  *
 763:/mnt/c/Users/31740/Desktop/newcore/include/linux/atomic/atomic-instrumented.h ****  * Return: The original value of @v.
 764:/mnt/c/Users/31740/Desktop/newcore/include/linux/atomic/atomic-instrumented.h ****  */
 765:/mnt/c/Users/31740/Desktop/newcore/include/linux/atomic/atomic-instrumented.h **** static __always_inline int
 766:/mnt/c/Users/31740/Desktop/newcore/include/linux/atomic/atomic-instrumented.h **** atomic_fetch_and(int i, atomic_t *v)
 767:/mnt/c/Users/31740/Desktop/newcore/include/linux/atomic/atomic-instrumented.h **** {
 768:/mnt/c/Users/31740/Desktop/newcore/include/linux/atomic/atomic-instrumented.h **** 	kcsan_mb();
 769:/mnt/c/Users/31740/Desktop/newcore/include/linux/atomic/atomic-instrumented.h **** 	instrument_atomic_read_write(v, sizeof(*v));
 770:/mnt/c/Users/31740/Desktop/newcore/include/linux/atomic/atomic-instrumented.h **** 	return raw_atomic_fetch_and(i, v);
 771:/mnt/c/Users/31740/Desktop/newcore/include/linux/atomic/atomic-instrumented.h **** }
 772:/mnt/c/Users/31740/Desktop/newcore/include/linux/atomic/atomic-instrumented.h **** 
 773:/mnt/c/Users/31740/Desktop/newcore/include/linux/atomic/atomic-instrumented.h **** /**
 774:/mnt/c/Users/31740/Desktop/newcore/include/linux/atomic/atomic-instrumented.h ****  * atomic_fetch_and_acquire() - atomic bitwise AND with acquire ordering
 775:/mnt/c/Users/31740/Desktop/newcore/include/linux/atomic/atomic-instrumented.h ****  * @i: int value
 776:/mnt/c/Users/31740/Desktop/newcore/include/linux/atomic/atomic-instrumented.h ****  * @v: pointer to atomic_t
 777:/mnt/c/Users/31740/Desktop/newcore/include/linux/atomic/atomic-instrumented.h ****  *
 778:/mnt/c/Users/31740/Desktop/newcore/include/linux/atomic/atomic-instrumented.h ****  * Atomically updates @v to (@v & @i) with acquire ordering.
 779:/mnt/c/Users/31740/Desktop/newcore/include/linux/atomic/atomic-instrumented.h ****  *
 780:/mnt/c/Users/31740/Desktop/newcore/include/linux/atomic/atomic-instrumented.h ****  * Unsafe to use in noinstr code; use raw_atomic_fetch_and_acquire() there.
 781:/mnt/c/Users/31740/Desktop/newcore/include/linux/atomic/atomic-instrumented.h ****  *
 782:/mnt/c/Users/31740/Desktop/newcore/include/linux/atomic/atomic-instrumented.h ****  * Return: The original value of @v.
 783:/mnt/c/Users/31740/Desktop/newcore/include/linux/atomic/atomic-instrumented.h ****  */
 784:/mnt/c/Users/31740/Desktop/newcore/include/linux/atomic/atomic-instrumented.h **** static __always_inline int
 785:/mnt/c/Users/31740/Desktop/newcore/include/linux/atomic/atomic-instrumented.h **** atomic_fetch_and_acquire(int i, atomic_t *v)
 786:/mnt/c/Users/31740/Desktop/newcore/include/linux/atomic/atomic-instrumented.h **** {
 787:/mnt/c/Users/31740/Desktop/newcore/include/linux/atomic/atomic-instrumented.h **** 	instrument_atomic_read_write(v, sizeof(*v));
 788:/mnt/c/Users/31740/Desktop/newcore/include/linux/atomic/atomic-instrumented.h **** 	return raw_atomic_fetch_and_acquire(i, v);
 789:/mnt/c/Users/31740/Desktop/newcore/include/linux/atomic/atomic-instrumented.h **** }
 790:/mnt/c/Users/31740/Desktop/newcore/include/linux/atomic/atomic-instrumented.h **** 
 791:/mnt/c/Users/31740/Desktop/newcore/include/linux/atomic/atomic-instrumented.h **** /**
 792:/mnt/c/Users/31740/Desktop/newcore/include/linux/atomic/atomic-instrumented.h ****  * atomic_fetch_and_release() - atomic bitwise AND with release ordering
 793:/mnt/c/Users/31740/Desktop/newcore/include/linux/atomic/atomic-instrumented.h ****  * @i: int value
 794:/mnt/c/Users/31740/Desktop/newcore/include/linux/atomic/atomic-instrumented.h ****  * @v: pointer to atomic_t
 795:/mnt/c/Users/31740/Desktop/newcore/include/linux/atomic/atomic-instrumented.h ****  *
 796:/mnt/c/Users/31740/Desktop/newcore/include/linux/atomic/atomic-instrumented.h ****  * Atomically updates @v to (@v & @i) with release ordering.
 797:/mnt/c/Users/31740/Desktop/newcore/include/linux/atomic/atomic-instrumented.h ****  *
 798:/mnt/c/Users/31740/Desktop/newcore/include/linux/atomic/atomic-instrumented.h ****  * Unsafe to use in noinstr code; use raw_atomic_fetch_and_release() there.
 799:/mnt/c/Users/31740/Desktop/newcore/include/linux/atomic/atomic-instrumented.h ****  *
 800:/mnt/c/Users/31740/Desktop/newcore/include/linux/atomic/atomic-instrumented.h ****  * Return: The original value of @v.
 801:/mnt/c/Users/31740/Desktop/newcore/include/linux/atomic/atomic-instrumented.h ****  */
 802:/mnt/c/Users/31740/Desktop/newcore/include/linux/atomic/atomic-instrumented.h **** static __always_inline int
 803:/mnt/c/Users/31740/Desktop/newcore/include/linux/atomic/atomic-instrumented.h **** atomic_fetch_and_release(int i, atomic_t *v)
 804:/mnt/c/Users/31740/Desktop/newcore/include/linux/atomic/atomic-instrumented.h **** {
 805:/mnt/c/Users/31740/Desktop/newcore/include/linux/atomic/atomic-instrumented.h **** 	kcsan_release();
ARM GAS  /tmp/cctjQXNb.s 			page 40


 806:/mnt/c/Users/31740/Desktop/newcore/include/linux/atomic/atomic-instrumented.h **** 	instrument_atomic_read_write(v, sizeof(*v));
 807:/mnt/c/Users/31740/Desktop/newcore/include/linux/atomic/atomic-instrumented.h **** 	return raw_atomic_fetch_and_release(i, v);
 808:/mnt/c/Users/31740/Desktop/newcore/include/linux/atomic/atomic-instrumented.h **** }
 809:/mnt/c/Users/31740/Desktop/newcore/include/linux/atomic/atomic-instrumented.h **** 
 810:/mnt/c/Users/31740/Desktop/newcore/include/linux/atomic/atomic-instrumented.h **** /**
 811:/mnt/c/Users/31740/Desktop/newcore/include/linux/atomic/atomic-instrumented.h ****  * atomic_fetch_and_relaxed() - atomic bitwise AND with relaxed ordering
 812:/mnt/c/Users/31740/Desktop/newcore/include/linux/atomic/atomic-instrumented.h ****  * @i: int value
 813:/mnt/c/Users/31740/Desktop/newcore/include/linux/atomic/atomic-instrumented.h ****  * @v: pointer to atomic_t
 814:/mnt/c/Users/31740/Desktop/newcore/include/linux/atomic/atomic-instrumented.h ****  *
 815:/mnt/c/Users/31740/Desktop/newcore/include/linux/atomic/atomic-instrumented.h ****  * Atomically updates @v to (@v & @i) with relaxed ordering.
 816:/mnt/c/Users/31740/Desktop/newcore/include/linux/atomic/atomic-instrumented.h ****  *
 817:/mnt/c/Users/31740/Desktop/newcore/include/linux/atomic/atomic-instrumented.h ****  * Unsafe to use in noinstr code; use raw_atomic_fetch_and_relaxed() there.
 818:/mnt/c/Users/31740/Desktop/newcore/include/linux/atomic/atomic-instrumented.h ****  *
 819:/mnt/c/Users/31740/Desktop/newcore/include/linux/atomic/atomic-instrumented.h ****  * Return: The original value of @v.
 820:/mnt/c/Users/31740/Desktop/newcore/include/linux/atomic/atomic-instrumented.h ****  */
 821:/mnt/c/Users/31740/Desktop/newcore/include/linux/atomic/atomic-instrumented.h **** static __always_inline int
 822:/mnt/c/Users/31740/Desktop/newcore/include/linux/atomic/atomic-instrumented.h **** atomic_fetch_and_relaxed(int i, atomic_t *v)
 823:/mnt/c/Users/31740/Desktop/newcore/include/linux/atomic/atomic-instrumented.h **** {
 824:/mnt/c/Users/31740/Desktop/newcore/include/linux/atomic/atomic-instrumented.h **** 	instrument_atomic_read_write(v, sizeof(*v));
 825:/mnt/c/Users/31740/Desktop/newcore/include/linux/atomic/atomic-instrumented.h **** 	return raw_atomic_fetch_and_relaxed(i, v);
 826:/mnt/c/Users/31740/Desktop/newcore/include/linux/atomic/atomic-instrumented.h **** }
 827:/mnt/c/Users/31740/Desktop/newcore/include/linux/atomic/atomic-instrumented.h **** 
 828:/mnt/c/Users/31740/Desktop/newcore/include/linux/atomic/atomic-instrumented.h **** /**
 829:/mnt/c/Users/31740/Desktop/newcore/include/linux/atomic/atomic-instrumented.h ****  * atomic_andnot() - atomic bitwise AND NOT with relaxed ordering
 830:/mnt/c/Users/31740/Desktop/newcore/include/linux/atomic/atomic-instrumented.h ****  * @i: int value
 831:/mnt/c/Users/31740/Desktop/newcore/include/linux/atomic/atomic-instrumented.h ****  * @v: pointer to atomic_t
 832:/mnt/c/Users/31740/Desktop/newcore/include/linux/atomic/atomic-instrumented.h ****  *
 833:/mnt/c/Users/31740/Desktop/newcore/include/linux/atomic/atomic-instrumented.h ****  * Atomically updates @v to (@v & ~@i) with relaxed ordering.
 834:/mnt/c/Users/31740/Desktop/newcore/include/linux/atomic/atomic-instrumented.h ****  *
 835:/mnt/c/Users/31740/Desktop/newcore/include/linux/atomic/atomic-instrumented.h ****  * Unsafe to use in noinstr code; use raw_atomic_andnot() there.
 836:/mnt/c/Users/31740/Desktop/newcore/include/linux/atomic/atomic-instrumented.h ****  *
 837:/mnt/c/Users/31740/Desktop/newcore/include/linux/atomic/atomic-instrumented.h ****  * Return: Nothing.
 838:/mnt/c/Users/31740/Desktop/newcore/include/linux/atomic/atomic-instrumented.h ****  */
 839:/mnt/c/Users/31740/Desktop/newcore/include/linux/atomic/atomic-instrumented.h **** static __always_inline void
 840:/mnt/c/Users/31740/Desktop/newcore/include/linux/atomic/atomic-instrumented.h **** atomic_andnot(int i, atomic_t *v)
 841:/mnt/c/Users/31740/Desktop/newcore/include/linux/atomic/atomic-instrumented.h **** {
 842:/mnt/c/Users/31740/Desktop/newcore/include/linux/atomic/atomic-instrumented.h **** 	instrument_atomic_read_write(v, sizeof(*v));
 843:/mnt/c/Users/31740/Desktop/newcore/include/linux/atomic/atomic-instrumented.h **** 	raw_atomic_andnot(i, v);
 844:/mnt/c/Users/31740/Desktop/newcore/include/linux/atomic/atomic-instrumented.h **** }
 845:/mnt/c/Users/31740/Desktop/newcore/include/linux/atomic/atomic-instrumented.h **** 
 846:/mnt/c/Users/31740/Desktop/newcore/include/linux/atomic/atomic-instrumented.h **** /**
 847:/mnt/c/Users/31740/Desktop/newcore/include/linux/atomic/atomic-instrumented.h ****  * atomic_fetch_andnot() - atomic bitwise AND NOT with full ordering
 848:/mnt/c/Users/31740/Desktop/newcore/include/linux/atomic/atomic-instrumented.h ****  * @i: int value
 849:/mnt/c/Users/31740/Desktop/newcore/include/linux/atomic/atomic-instrumented.h ****  * @v: pointer to atomic_t
 850:/mnt/c/Users/31740/Desktop/newcore/include/linux/atomic/atomic-instrumented.h ****  *
 851:/mnt/c/Users/31740/Desktop/newcore/include/linux/atomic/atomic-instrumented.h ****  * Atomically updates @v to (@v & ~@i) with full ordering.
 852:/mnt/c/Users/31740/Desktop/newcore/include/linux/atomic/atomic-instrumented.h ****  *
 853:/mnt/c/Users/31740/Desktop/newcore/include/linux/atomic/atomic-instrumented.h ****  * Unsafe to use in noinstr code; use raw_atomic_fetch_andnot() there.
 854:/mnt/c/Users/31740/Desktop/newcore/include/linux/atomic/atomic-instrumented.h ****  *
 855:/mnt/c/Users/31740/Desktop/newcore/include/linux/atomic/atomic-instrumented.h ****  * Return: The original value of @v.
 856:/mnt/c/Users/31740/Desktop/newcore/include/linux/atomic/atomic-instrumented.h ****  */
 857:/mnt/c/Users/31740/Desktop/newcore/include/linux/atomic/atomic-instrumented.h **** static __always_inline int
 858:/mnt/c/Users/31740/Desktop/newcore/include/linux/atomic/atomic-instrumented.h **** atomic_fetch_andnot(int i, atomic_t *v)
 859:/mnt/c/Users/31740/Desktop/newcore/include/linux/atomic/atomic-instrumented.h **** {
 860:/mnt/c/Users/31740/Desktop/newcore/include/linux/atomic/atomic-instrumented.h **** 	kcsan_mb();
 861:/mnt/c/Users/31740/Desktop/newcore/include/linux/atomic/atomic-instrumented.h **** 	instrument_atomic_read_write(v, sizeof(*v));
 862:/mnt/c/Users/31740/Desktop/newcore/include/linux/atomic/atomic-instrumented.h **** 	return raw_atomic_fetch_andnot(i, v);
ARM GAS  /tmp/cctjQXNb.s 			page 41


 863:/mnt/c/Users/31740/Desktop/newcore/include/linux/atomic/atomic-instrumented.h **** }
 864:/mnt/c/Users/31740/Desktop/newcore/include/linux/atomic/atomic-instrumented.h **** 
 865:/mnt/c/Users/31740/Desktop/newcore/include/linux/atomic/atomic-instrumented.h **** /**
 866:/mnt/c/Users/31740/Desktop/newcore/include/linux/atomic/atomic-instrumented.h ****  * atomic_fetch_andnot_acquire() - atomic bitwise AND NOT with acquire ordering
 867:/mnt/c/Users/31740/Desktop/newcore/include/linux/atomic/atomic-instrumented.h ****  * @i: int value
 868:/mnt/c/Users/31740/Desktop/newcore/include/linux/atomic/atomic-instrumented.h ****  * @v: pointer to atomic_t
 869:/mnt/c/Users/31740/Desktop/newcore/include/linux/atomic/atomic-instrumented.h ****  *
 870:/mnt/c/Users/31740/Desktop/newcore/include/linux/atomic/atomic-instrumented.h ****  * Atomically updates @v to (@v & ~@i) with acquire ordering.
 871:/mnt/c/Users/31740/Desktop/newcore/include/linux/atomic/atomic-instrumented.h ****  *
 872:/mnt/c/Users/31740/Desktop/newcore/include/linux/atomic/atomic-instrumented.h ****  * Unsafe to use in noinstr code; use raw_atomic_fetch_andnot_acquire() there.
 873:/mnt/c/Users/31740/Desktop/newcore/include/linux/atomic/atomic-instrumented.h ****  *
 874:/mnt/c/Users/31740/Desktop/newcore/include/linux/atomic/atomic-instrumented.h ****  * Return: The original value of @v.
 875:/mnt/c/Users/31740/Desktop/newcore/include/linux/atomic/atomic-instrumented.h ****  */
 876:/mnt/c/Users/31740/Desktop/newcore/include/linux/atomic/atomic-instrumented.h **** static __always_inline int
 877:/mnt/c/Users/31740/Desktop/newcore/include/linux/atomic/atomic-instrumented.h **** atomic_fetch_andnot_acquire(int i, atomic_t *v)
 878:/mnt/c/Users/31740/Desktop/newcore/include/linux/atomic/atomic-instrumented.h **** {
 879:/mnt/c/Users/31740/Desktop/newcore/include/linux/atomic/atomic-instrumented.h **** 	instrument_atomic_read_write(v, sizeof(*v));
 880:/mnt/c/Users/31740/Desktop/newcore/include/linux/atomic/atomic-instrumented.h **** 	return raw_atomic_fetch_andnot_acquire(i, v);
 881:/mnt/c/Users/31740/Desktop/newcore/include/linux/atomic/atomic-instrumented.h **** }
 882:/mnt/c/Users/31740/Desktop/newcore/include/linux/atomic/atomic-instrumented.h **** 
 883:/mnt/c/Users/31740/Desktop/newcore/include/linux/atomic/atomic-instrumented.h **** /**
 884:/mnt/c/Users/31740/Desktop/newcore/include/linux/atomic/atomic-instrumented.h ****  * atomic_fetch_andnot_release() - atomic bitwise AND NOT with release ordering
 885:/mnt/c/Users/31740/Desktop/newcore/include/linux/atomic/atomic-instrumented.h ****  * @i: int value
 886:/mnt/c/Users/31740/Desktop/newcore/include/linux/atomic/atomic-instrumented.h ****  * @v: pointer to atomic_t
 887:/mnt/c/Users/31740/Desktop/newcore/include/linux/atomic/atomic-instrumented.h ****  *
 888:/mnt/c/Users/31740/Desktop/newcore/include/linux/atomic/atomic-instrumented.h ****  * Atomically updates @v to (@v & ~@i) with release ordering.
 889:/mnt/c/Users/31740/Desktop/newcore/include/linux/atomic/atomic-instrumented.h ****  *
 890:/mnt/c/Users/31740/Desktop/newcore/include/linux/atomic/atomic-instrumented.h ****  * Unsafe to use in noinstr code; use raw_atomic_fetch_andnot_release() there.
 891:/mnt/c/Users/31740/Desktop/newcore/include/linux/atomic/atomic-instrumented.h ****  *
 892:/mnt/c/Users/31740/Desktop/newcore/include/linux/atomic/atomic-instrumented.h ****  * Return: The original value of @v.
 893:/mnt/c/Users/31740/Desktop/newcore/include/linux/atomic/atomic-instrumented.h ****  */
 894:/mnt/c/Users/31740/Desktop/newcore/include/linux/atomic/atomic-instrumented.h **** static __always_inline int
 895:/mnt/c/Users/31740/Desktop/newcore/include/linux/atomic/atomic-instrumented.h **** atomic_fetch_andnot_release(int i, atomic_t *v)
 896:/mnt/c/Users/31740/Desktop/newcore/include/linux/atomic/atomic-instrumented.h **** {
 897:/mnt/c/Users/31740/Desktop/newcore/include/linux/atomic/atomic-instrumented.h **** 	kcsan_release();
 898:/mnt/c/Users/31740/Desktop/newcore/include/linux/atomic/atomic-instrumented.h **** 	instrument_atomic_read_write(v, sizeof(*v));
 899:/mnt/c/Users/31740/Desktop/newcore/include/linux/atomic/atomic-instrumented.h **** 	return raw_atomic_fetch_andnot_release(i, v);
 900:/mnt/c/Users/31740/Desktop/newcore/include/linux/atomic/atomic-instrumented.h **** }
 901:/mnt/c/Users/31740/Desktop/newcore/include/linux/atomic/atomic-instrumented.h **** 
 902:/mnt/c/Users/31740/Desktop/newcore/include/linux/atomic/atomic-instrumented.h **** /**
 903:/mnt/c/Users/31740/Desktop/newcore/include/linux/atomic/atomic-instrumented.h ****  * atomic_fetch_andnot_relaxed() - atomic bitwise AND NOT with relaxed ordering
 904:/mnt/c/Users/31740/Desktop/newcore/include/linux/atomic/atomic-instrumented.h ****  * @i: int value
 905:/mnt/c/Users/31740/Desktop/newcore/include/linux/atomic/atomic-instrumented.h ****  * @v: pointer to atomic_t
 906:/mnt/c/Users/31740/Desktop/newcore/include/linux/atomic/atomic-instrumented.h ****  *
 907:/mnt/c/Users/31740/Desktop/newcore/include/linux/atomic/atomic-instrumented.h ****  * Atomically updates @v to (@v & ~@i) with relaxed ordering.
 908:/mnt/c/Users/31740/Desktop/newcore/include/linux/atomic/atomic-instrumented.h ****  *
 909:/mnt/c/Users/31740/Desktop/newcore/include/linux/atomic/atomic-instrumented.h ****  * Unsafe to use in noinstr code; use raw_atomic_fetch_andnot_relaxed() there.
 910:/mnt/c/Users/31740/Desktop/newcore/include/linux/atomic/atomic-instrumented.h ****  *
 911:/mnt/c/Users/31740/Desktop/newcore/include/linux/atomic/atomic-instrumented.h ****  * Return: The original value of @v.
 912:/mnt/c/Users/31740/Desktop/newcore/include/linux/atomic/atomic-instrumented.h ****  */
 913:/mnt/c/Users/31740/Desktop/newcore/include/linux/atomic/atomic-instrumented.h **** static __always_inline int
 914:/mnt/c/Users/31740/Desktop/newcore/include/linux/atomic/atomic-instrumented.h **** atomic_fetch_andnot_relaxed(int i, atomic_t *v)
 915:/mnt/c/Users/31740/Desktop/newcore/include/linux/atomic/atomic-instrumented.h **** {
 916:/mnt/c/Users/31740/Desktop/newcore/include/linux/atomic/atomic-instrumented.h **** 	instrument_atomic_read_write(v, sizeof(*v));
 917:/mnt/c/Users/31740/Desktop/newcore/include/linux/atomic/atomic-instrumented.h **** 	return raw_atomic_fetch_andnot_relaxed(i, v);
 918:/mnt/c/Users/31740/Desktop/newcore/include/linux/atomic/atomic-instrumented.h **** }
 919:/mnt/c/Users/31740/Desktop/newcore/include/linux/atomic/atomic-instrumented.h **** 
ARM GAS  /tmp/cctjQXNb.s 			page 42


 920:/mnt/c/Users/31740/Desktop/newcore/include/linux/atomic/atomic-instrumented.h **** /**
 921:/mnt/c/Users/31740/Desktop/newcore/include/linux/atomic/atomic-instrumented.h ****  * atomic_or() - atomic bitwise OR with relaxed ordering
 922:/mnt/c/Users/31740/Desktop/newcore/include/linux/atomic/atomic-instrumented.h ****  * @i: int value
 923:/mnt/c/Users/31740/Desktop/newcore/include/linux/atomic/atomic-instrumented.h ****  * @v: pointer to atomic_t
 924:/mnt/c/Users/31740/Desktop/newcore/include/linux/atomic/atomic-instrumented.h ****  *
 925:/mnt/c/Users/31740/Desktop/newcore/include/linux/atomic/atomic-instrumented.h ****  * Atomically updates @v to (@v | @i) with relaxed ordering.
 926:/mnt/c/Users/31740/Desktop/newcore/include/linux/atomic/atomic-instrumented.h ****  *
 927:/mnt/c/Users/31740/Desktop/newcore/include/linux/atomic/atomic-instrumented.h ****  * Unsafe to use in noinstr code; use raw_atomic_or() there.
 928:/mnt/c/Users/31740/Desktop/newcore/include/linux/atomic/atomic-instrumented.h ****  *
 929:/mnt/c/Users/31740/Desktop/newcore/include/linux/atomic/atomic-instrumented.h ****  * Return: Nothing.
 930:/mnt/c/Users/31740/Desktop/newcore/include/linux/atomic/atomic-instrumented.h ****  */
 931:/mnt/c/Users/31740/Desktop/newcore/include/linux/atomic/atomic-instrumented.h **** static __always_inline void
 932:/mnt/c/Users/31740/Desktop/newcore/include/linux/atomic/atomic-instrumented.h **** atomic_or(int i, atomic_t *v)
 933:/mnt/c/Users/31740/Desktop/newcore/include/linux/atomic/atomic-instrumented.h **** {
 934:/mnt/c/Users/31740/Desktop/newcore/include/linux/atomic/atomic-instrumented.h **** 	instrument_atomic_read_write(v, sizeof(*v));
 935:/mnt/c/Users/31740/Desktop/newcore/include/linux/atomic/atomic-instrumented.h **** 	raw_atomic_or(i, v);
 936:/mnt/c/Users/31740/Desktop/newcore/include/linux/atomic/atomic-instrumented.h **** }
 937:/mnt/c/Users/31740/Desktop/newcore/include/linux/atomic/atomic-instrumented.h **** 
 938:/mnt/c/Users/31740/Desktop/newcore/include/linux/atomic/atomic-instrumented.h **** /**
 939:/mnt/c/Users/31740/Desktop/newcore/include/linux/atomic/atomic-instrumented.h ****  * atomic_fetch_or() - atomic bitwise OR with full ordering
 940:/mnt/c/Users/31740/Desktop/newcore/include/linux/atomic/atomic-instrumented.h ****  * @i: int value
 941:/mnt/c/Users/31740/Desktop/newcore/include/linux/atomic/atomic-instrumented.h ****  * @v: pointer to atomic_t
 942:/mnt/c/Users/31740/Desktop/newcore/include/linux/atomic/atomic-instrumented.h ****  *
 943:/mnt/c/Users/31740/Desktop/newcore/include/linux/atomic/atomic-instrumented.h ****  * Atomically updates @v to (@v | @i) with full ordering.
 944:/mnt/c/Users/31740/Desktop/newcore/include/linux/atomic/atomic-instrumented.h ****  *
 945:/mnt/c/Users/31740/Desktop/newcore/include/linux/atomic/atomic-instrumented.h ****  * Unsafe to use in noinstr code; use raw_atomic_fetch_or() there.
 946:/mnt/c/Users/31740/Desktop/newcore/include/linux/atomic/atomic-instrumented.h ****  *
 947:/mnt/c/Users/31740/Desktop/newcore/include/linux/atomic/atomic-instrumented.h ****  * Return: The original value of @v.
 948:/mnt/c/Users/31740/Desktop/newcore/include/linux/atomic/atomic-instrumented.h ****  */
 949:/mnt/c/Users/31740/Desktop/newcore/include/linux/atomic/atomic-instrumented.h **** static __always_inline int
 950:/mnt/c/Users/31740/Desktop/newcore/include/linux/atomic/atomic-instrumented.h **** atomic_fetch_or(int i, atomic_t *v)
 951:/mnt/c/Users/31740/Desktop/newcore/include/linux/atomic/atomic-instrumented.h **** {
 952:/mnt/c/Users/31740/Desktop/newcore/include/linux/atomic/atomic-instrumented.h **** 	kcsan_mb();
 953:/mnt/c/Users/31740/Desktop/newcore/include/linux/atomic/atomic-instrumented.h **** 	instrument_atomic_read_write(v, sizeof(*v));
 954:/mnt/c/Users/31740/Desktop/newcore/include/linux/atomic/atomic-instrumented.h **** 	return raw_atomic_fetch_or(i, v);
 955:/mnt/c/Users/31740/Desktop/newcore/include/linux/atomic/atomic-instrumented.h **** }
 956:/mnt/c/Users/31740/Desktop/newcore/include/linux/atomic/atomic-instrumented.h **** 
 957:/mnt/c/Users/31740/Desktop/newcore/include/linux/atomic/atomic-instrumented.h **** /**
 958:/mnt/c/Users/31740/Desktop/newcore/include/linux/atomic/atomic-instrumented.h ****  * atomic_fetch_or_acquire() - atomic bitwise OR with acquire ordering
 959:/mnt/c/Users/31740/Desktop/newcore/include/linux/atomic/atomic-instrumented.h ****  * @i: int value
 960:/mnt/c/Users/31740/Desktop/newcore/include/linux/atomic/atomic-instrumented.h ****  * @v: pointer to atomic_t
 961:/mnt/c/Users/31740/Desktop/newcore/include/linux/atomic/atomic-instrumented.h ****  *
 962:/mnt/c/Users/31740/Desktop/newcore/include/linux/atomic/atomic-instrumented.h ****  * Atomically updates @v to (@v | @i) with acquire ordering.
 963:/mnt/c/Users/31740/Desktop/newcore/include/linux/atomic/atomic-instrumented.h ****  *
 964:/mnt/c/Users/31740/Desktop/newcore/include/linux/atomic/atomic-instrumented.h ****  * Unsafe to use in noinstr code; use raw_atomic_fetch_or_acquire() there.
 965:/mnt/c/Users/31740/Desktop/newcore/include/linux/atomic/atomic-instrumented.h ****  *
 966:/mnt/c/Users/31740/Desktop/newcore/include/linux/atomic/atomic-instrumented.h ****  * Return: The original value of @v.
 967:/mnt/c/Users/31740/Desktop/newcore/include/linux/atomic/atomic-instrumented.h ****  */
 968:/mnt/c/Users/31740/Desktop/newcore/include/linux/atomic/atomic-instrumented.h **** static __always_inline int
 969:/mnt/c/Users/31740/Desktop/newcore/include/linux/atomic/atomic-instrumented.h **** atomic_fetch_or_acquire(int i, atomic_t *v)
 970:/mnt/c/Users/31740/Desktop/newcore/include/linux/atomic/atomic-instrumented.h **** {
 971:/mnt/c/Users/31740/Desktop/newcore/include/linux/atomic/atomic-instrumented.h **** 	instrument_atomic_read_write(v, sizeof(*v));
 972:/mnt/c/Users/31740/Desktop/newcore/include/linux/atomic/atomic-instrumented.h **** 	return raw_atomic_fetch_or_acquire(i, v);
 973:/mnt/c/Users/31740/Desktop/newcore/include/linux/atomic/atomic-instrumented.h **** }
 974:/mnt/c/Users/31740/Desktop/newcore/include/linux/atomic/atomic-instrumented.h **** 
 975:/mnt/c/Users/31740/Desktop/newcore/include/linux/atomic/atomic-instrumented.h **** /**
 976:/mnt/c/Users/31740/Desktop/newcore/include/linux/atomic/atomic-instrumented.h ****  * atomic_fetch_or_release() - atomic bitwise OR with release ordering
ARM GAS  /tmp/cctjQXNb.s 			page 43


 977:/mnt/c/Users/31740/Desktop/newcore/include/linux/atomic/atomic-instrumented.h ****  * @i: int value
 978:/mnt/c/Users/31740/Desktop/newcore/include/linux/atomic/atomic-instrumented.h ****  * @v: pointer to atomic_t
 979:/mnt/c/Users/31740/Desktop/newcore/include/linux/atomic/atomic-instrumented.h ****  *
 980:/mnt/c/Users/31740/Desktop/newcore/include/linux/atomic/atomic-instrumented.h ****  * Atomically updates @v to (@v | @i) with release ordering.
 981:/mnt/c/Users/31740/Desktop/newcore/include/linux/atomic/atomic-instrumented.h ****  *
 982:/mnt/c/Users/31740/Desktop/newcore/include/linux/atomic/atomic-instrumented.h ****  * Unsafe to use in noinstr code; use raw_atomic_fetch_or_release() there.
 983:/mnt/c/Users/31740/Desktop/newcore/include/linux/atomic/atomic-instrumented.h ****  *
 984:/mnt/c/Users/31740/Desktop/newcore/include/linux/atomic/atomic-instrumented.h ****  * Return: The original value of @v.
 985:/mnt/c/Users/31740/Desktop/newcore/include/linux/atomic/atomic-instrumented.h ****  */
 986:/mnt/c/Users/31740/Desktop/newcore/include/linux/atomic/atomic-instrumented.h **** static __always_inline int
 987:/mnt/c/Users/31740/Desktop/newcore/include/linux/atomic/atomic-instrumented.h **** atomic_fetch_or_release(int i, atomic_t *v)
 988:/mnt/c/Users/31740/Desktop/newcore/include/linux/atomic/atomic-instrumented.h **** {
 989:/mnt/c/Users/31740/Desktop/newcore/include/linux/atomic/atomic-instrumented.h **** 	kcsan_release();
 990:/mnt/c/Users/31740/Desktop/newcore/include/linux/atomic/atomic-instrumented.h **** 	instrument_atomic_read_write(v, sizeof(*v));
 991:/mnt/c/Users/31740/Desktop/newcore/include/linux/atomic/atomic-instrumented.h **** 	return raw_atomic_fetch_or_release(i, v);
 992:/mnt/c/Users/31740/Desktop/newcore/include/linux/atomic/atomic-instrumented.h **** }
 993:/mnt/c/Users/31740/Desktop/newcore/include/linux/atomic/atomic-instrumented.h **** 
 994:/mnt/c/Users/31740/Desktop/newcore/include/linux/atomic/atomic-instrumented.h **** /**
 995:/mnt/c/Users/31740/Desktop/newcore/include/linux/atomic/atomic-instrumented.h ****  * atomic_fetch_or_relaxed() - atomic bitwise OR with relaxed ordering
 996:/mnt/c/Users/31740/Desktop/newcore/include/linux/atomic/atomic-instrumented.h ****  * @i: int value
 997:/mnt/c/Users/31740/Desktop/newcore/include/linux/atomic/atomic-instrumented.h ****  * @v: pointer to atomic_t
 998:/mnt/c/Users/31740/Desktop/newcore/include/linux/atomic/atomic-instrumented.h ****  *
 999:/mnt/c/Users/31740/Desktop/newcore/include/linux/atomic/atomic-instrumented.h ****  * Atomically updates @v to (@v | @i) with relaxed ordering.
1000:/mnt/c/Users/31740/Desktop/newcore/include/linux/atomic/atomic-instrumented.h ****  *
1001:/mnt/c/Users/31740/Desktop/newcore/include/linux/atomic/atomic-instrumented.h ****  * Unsafe to use in noinstr code; use raw_atomic_fetch_or_relaxed() there.
1002:/mnt/c/Users/31740/Desktop/newcore/include/linux/atomic/atomic-instrumented.h ****  *
1003:/mnt/c/Users/31740/Desktop/newcore/include/linux/atomic/atomic-instrumented.h ****  * Return: The original value of @v.
1004:/mnt/c/Users/31740/Desktop/newcore/include/linux/atomic/atomic-instrumented.h ****  */
1005:/mnt/c/Users/31740/Desktop/newcore/include/linux/atomic/atomic-instrumented.h **** static __always_inline int
1006:/mnt/c/Users/31740/Desktop/newcore/include/linux/atomic/atomic-instrumented.h **** atomic_fetch_or_relaxed(int i, atomic_t *v)
1007:/mnt/c/Users/31740/Desktop/newcore/include/linux/atomic/atomic-instrumented.h **** {
1008:/mnt/c/Users/31740/Desktop/newcore/include/linux/atomic/atomic-instrumented.h **** 	instrument_atomic_read_write(v, sizeof(*v));
1009:/mnt/c/Users/31740/Desktop/newcore/include/linux/atomic/atomic-instrumented.h **** 	return raw_atomic_fetch_or_relaxed(i, v);
1010:/mnt/c/Users/31740/Desktop/newcore/include/linux/atomic/atomic-instrumented.h **** }
1011:/mnt/c/Users/31740/Desktop/newcore/include/linux/atomic/atomic-instrumented.h **** 
1012:/mnt/c/Users/31740/Desktop/newcore/include/linux/atomic/atomic-instrumented.h **** /**
1013:/mnt/c/Users/31740/Desktop/newcore/include/linux/atomic/atomic-instrumented.h ****  * atomic_xor() - atomic bitwise XOR with relaxed ordering
1014:/mnt/c/Users/31740/Desktop/newcore/include/linux/atomic/atomic-instrumented.h ****  * @i: int value
1015:/mnt/c/Users/31740/Desktop/newcore/include/linux/atomic/atomic-instrumented.h ****  * @v: pointer to atomic_t
1016:/mnt/c/Users/31740/Desktop/newcore/include/linux/atomic/atomic-instrumented.h ****  *
1017:/mnt/c/Users/31740/Desktop/newcore/include/linux/atomic/atomic-instrumented.h ****  * Atomically updates @v to (@v ^ @i) with relaxed ordering.
1018:/mnt/c/Users/31740/Desktop/newcore/include/linux/atomic/atomic-instrumented.h ****  *
1019:/mnt/c/Users/31740/Desktop/newcore/include/linux/atomic/atomic-instrumented.h ****  * Unsafe to use in noinstr code; use raw_atomic_xor() there.
1020:/mnt/c/Users/31740/Desktop/newcore/include/linux/atomic/atomic-instrumented.h ****  *
1021:/mnt/c/Users/31740/Desktop/newcore/include/linux/atomic/atomic-instrumented.h ****  * Return: Nothing.
1022:/mnt/c/Users/31740/Desktop/newcore/include/linux/atomic/atomic-instrumented.h ****  */
1023:/mnt/c/Users/31740/Desktop/newcore/include/linux/atomic/atomic-instrumented.h **** static __always_inline void
1024:/mnt/c/Users/31740/Desktop/newcore/include/linux/atomic/atomic-instrumented.h **** atomic_xor(int i, atomic_t *v)
1025:/mnt/c/Users/31740/Desktop/newcore/include/linux/atomic/atomic-instrumented.h **** {
1026:/mnt/c/Users/31740/Desktop/newcore/include/linux/atomic/atomic-instrumented.h **** 	instrument_atomic_read_write(v, sizeof(*v));
1027:/mnt/c/Users/31740/Desktop/newcore/include/linux/atomic/atomic-instrumented.h **** 	raw_atomic_xor(i, v);
1028:/mnt/c/Users/31740/Desktop/newcore/include/linux/atomic/atomic-instrumented.h **** }
1029:/mnt/c/Users/31740/Desktop/newcore/include/linux/atomic/atomic-instrumented.h **** 
1030:/mnt/c/Users/31740/Desktop/newcore/include/linux/atomic/atomic-instrumented.h **** /**
1031:/mnt/c/Users/31740/Desktop/newcore/include/linux/atomic/atomic-instrumented.h ****  * atomic_fetch_xor() - atomic bitwise XOR with full ordering
1032:/mnt/c/Users/31740/Desktop/newcore/include/linux/atomic/atomic-instrumented.h ****  * @i: int value
1033:/mnt/c/Users/31740/Desktop/newcore/include/linux/atomic/atomic-instrumented.h ****  * @v: pointer to atomic_t
ARM GAS  /tmp/cctjQXNb.s 			page 44


1034:/mnt/c/Users/31740/Desktop/newcore/include/linux/atomic/atomic-instrumented.h ****  *
1035:/mnt/c/Users/31740/Desktop/newcore/include/linux/atomic/atomic-instrumented.h ****  * Atomically updates @v to (@v ^ @i) with full ordering.
1036:/mnt/c/Users/31740/Desktop/newcore/include/linux/atomic/atomic-instrumented.h ****  *
1037:/mnt/c/Users/31740/Desktop/newcore/include/linux/atomic/atomic-instrumented.h ****  * Unsafe to use in noinstr code; use raw_atomic_fetch_xor() there.
1038:/mnt/c/Users/31740/Desktop/newcore/include/linux/atomic/atomic-instrumented.h ****  *
1039:/mnt/c/Users/31740/Desktop/newcore/include/linux/atomic/atomic-instrumented.h ****  * Return: The original value of @v.
1040:/mnt/c/Users/31740/Desktop/newcore/include/linux/atomic/atomic-instrumented.h ****  */
1041:/mnt/c/Users/31740/Desktop/newcore/include/linux/atomic/atomic-instrumented.h **** static __always_inline int
1042:/mnt/c/Users/31740/Desktop/newcore/include/linux/atomic/atomic-instrumented.h **** atomic_fetch_xor(int i, atomic_t *v)
1043:/mnt/c/Users/31740/Desktop/newcore/include/linux/atomic/atomic-instrumented.h **** {
1044:/mnt/c/Users/31740/Desktop/newcore/include/linux/atomic/atomic-instrumented.h **** 	kcsan_mb();
1045:/mnt/c/Users/31740/Desktop/newcore/include/linux/atomic/atomic-instrumented.h **** 	instrument_atomic_read_write(v, sizeof(*v));
1046:/mnt/c/Users/31740/Desktop/newcore/include/linux/atomic/atomic-instrumented.h **** 	return raw_atomic_fetch_xor(i, v);
1047:/mnt/c/Users/31740/Desktop/newcore/include/linux/atomic/atomic-instrumented.h **** }
1048:/mnt/c/Users/31740/Desktop/newcore/include/linux/atomic/atomic-instrumented.h **** 
1049:/mnt/c/Users/31740/Desktop/newcore/include/linux/atomic/atomic-instrumented.h **** /**
1050:/mnt/c/Users/31740/Desktop/newcore/include/linux/atomic/atomic-instrumented.h ****  * atomic_fetch_xor_acquire() - atomic bitwise XOR with acquire ordering
1051:/mnt/c/Users/31740/Desktop/newcore/include/linux/atomic/atomic-instrumented.h ****  * @i: int value
1052:/mnt/c/Users/31740/Desktop/newcore/include/linux/atomic/atomic-instrumented.h ****  * @v: pointer to atomic_t
1053:/mnt/c/Users/31740/Desktop/newcore/include/linux/atomic/atomic-instrumented.h ****  *
1054:/mnt/c/Users/31740/Desktop/newcore/include/linux/atomic/atomic-instrumented.h ****  * Atomically updates @v to (@v ^ @i) with acquire ordering.
1055:/mnt/c/Users/31740/Desktop/newcore/include/linux/atomic/atomic-instrumented.h ****  *
1056:/mnt/c/Users/31740/Desktop/newcore/include/linux/atomic/atomic-instrumented.h ****  * Unsafe to use in noinstr code; use raw_atomic_fetch_xor_acquire() there.
1057:/mnt/c/Users/31740/Desktop/newcore/include/linux/atomic/atomic-instrumented.h ****  *
1058:/mnt/c/Users/31740/Desktop/newcore/include/linux/atomic/atomic-instrumented.h ****  * Return: The original value of @v.
1059:/mnt/c/Users/31740/Desktop/newcore/include/linux/atomic/atomic-instrumented.h ****  */
1060:/mnt/c/Users/31740/Desktop/newcore/include/linux/atomic/atomic-instrumented.h **** static __always_inline int
1061:/mnt/c/Users/31740/Desktop/newcore/include/linux/atomic/atomic-instrumented.h **** atomic_fetch_xor_acquire(int i, atomic_t *v)
1062:/mnt/c/Users/31740/Desktop/newcore/include/linux/atomic/atomic-instrumented.h **** {
1063:/mnt/c/Users/31740/Desktop/newcore/include/linux/atomic/atomic-instrumented.h **** 	instrument_atomic_read_write(v, sizeof(*v));
1064:/mnt/c/Users/31740/Desktop/newcore/include/linux/atomic/atomic-instrumented.h **** 	return raw_atomic_fetch_xor_acquire(i, v);
1065:/mnt/c/Users/31740/Desktop/newcore/include/linux/atomic/atomic-instrumented.h **** }
1066:/mnt/c/Users/31740/Desktop/newcore/include/linux/atomic/atomic-instrumented.h **** 
1067:/mnt/c/Users/31740/Desktop/newcore/include/linux/atomic/atomic-instrumented.h **** /**
1068:/mnt/c/Users/31740/Desktop/newcore/include/linux/atomic/atomic-instrumented.h ****  * atomic_fetch_xor_release() - atomic bitwise XOR with release ordering
1069:/mnt/c/Users/31740/Desktop/newcore/include/linux/atomic/atomic-instrumented.h ****  * @i: int value
1070:/mnt/c/Users/31740/Desktop/newcore/include/linux/atomic/atomic-instrumented.h ****  * @v: pointer to atomic_t
1071:/mnt/c/Users/31740/Desktop/newcore/include/linux/atomic/atomic-instrumented.h ****  *
1072:/mnt/c/Users/31740/Desktop/newcore/include/linux/atomic/atomic-instrumented.h ****  * Atomically updates @v to (@v ^ @i) with release ordering.
1073:/mnt/c/Users/31740/Desktop/newcore/include/linux/atomic/atomic-instrumented.h ****  *
1074:/mnt/c/Users/31740/Desktop/newcore/include/linux/atomic/atomic-instrumented.h ****  * Unsafe to use in noinstr code; use raw_atomic_fetch_xor_release() there.
1075:/mnt/c/Users/31740/Desktop/newcore/include/linux/atomic/atomic-instrumented.h ****  *
1076:/mnt/c/Users/31740/Desktop/newcore/include/linux/atomic/atomic-instrumented.h ****  * Return: The original value of @v.
1077:/mnt/c/Users/31740/Desktop/newcore/include/linux/atomic/atomic-instrumented.h ****  */
1078:/mnt/c/Users/31740/Desktop/newcore/include/linux/atomic/atomic-instrumented.h **** static __always_inline int
