ARM GAS  /tmp/ccZI6Oms.s 			page 1


   1              		.cpu cortex-m33
   2              		.arch armv8-m.main
   3              		.fpu fpv4-sp-d16
   4              		.arch_extension dsp
   5              		.eabi_attribute 27, 1
   6              		.eabi_attribute 28, 1
   7              		.eabi_attribute 20, 1
   8              		.eabi_attribute 21, 1
   9              		.eabi_attribute 23, 3
  10              		.eabi_attribute 24, 1
  11              		.eabi_attribute 25, 1
  12              		.eabi_attribute 26, 1
  13              		.eabi_attribute 30, 1
  14              		.eabi_attribute 34, 1
  15              		.eabi_attribute 18, 4
  16              		.file	"char_device.c"
  17              		.text
  18              	.Ltext0:
  19              		.cfi_sections	.debug_frame
  20              		.file 1 "/mnt/c/Users/31740/Documents/codes/newcore-rp2350/fs/char_device.c"
  21              		.section	.text.sized_strscpy,"ax",%progbits
  22              		.align	1
  23              		.syntax unified
  24              		.thumb
  25              		.thumb_func
  27              	sized_strscpy:
  28              	.LVL0:
  29              	.LFB241:
  30              		.file 2 "/mnt/c/Users/31740/Documents/codes/newcore-rp2350/include/linux/string.h"
   1:/mnt/c/Users/31740/Documents/codes/newcore-rp2350/include/linux/string.h **** /* SPDX-License-Identifier: GPL-2.0 */
   2:/mnt/c/Users/31740/Documents/codes/newcore-rp2350/include/linux/string.h **** #ifndef _LINUX_STRING_H_
   3:/mnt/c/Users/31740/Documents/codes/newcore-rp2350/include/linux/string.h **** #define _LINUX_STRING_H_ 
   4:/mnt/c/Users/31740/Documents/codes/newcore-rp2350/include/linux/string.h **** 
   5:/mnt/c/Users/31740/Documents/codes/newcore-rp2350/include/linux/string.h **** #include <linux/args.h>
   6:/mnt/c/Users/31740/Documents/codes/newcore-rp2350/include/linux/string.h **** #include <linux/array_size.h>
   7:/mnt/c/Users/31740/Documents/codes/newcore-rp2350/include/linux/string.h **** #include <linux/compiler.h>	/* for inline */
   8:/mnt/c/Users/31740/Documents/codes/newcore-rp2350/include/linux/string.h **** #include <linux/types.h>	/* for size_t */
   9:/mnt/c/Users/31740/Documents/codes/newcore-rp2350/include/linux/string.h **** #include <linux/stddef.h>	/* for NULL */
  10:/mnt/c/Users/31740/Documents/codes/newcore-rp2350/include/linux/string.h **** #include <linux/err.h>		/* for ERR_PTR() */
  11:/mnt/c/Users/31740/Documents/codes/newcore-rp2350/include/linux/string.h **** #include <linux/errno.h>	/* for E2BIG */
  12:/mnt/c/Users/31740/Documents/codes/newcore-rp2350/include/linux/string.h **** #include <linux/overflow.h>	/* for check_mul_overflow() */
  13:/mnt/c/Users/31740/Documents/codes/newcore-rp2350/include/linux/string.h **** #include <linux/stdarg.h>
  14:/mnt/c/Users/31740/Documents/codes/newcore-rp2350/include/linux/string.h **** #include <uapi/linux/string.h>
  15:/mnt/c/Users/31740/Documents/codes/newcore-rp2350/include/linux/string.h **** 
  16:/mnt/c/Users/31740/Documents/codes/newcore-rp2350/include/linux/string.h **** 
  17:/mnt/c/Users/31740/Documents/codes/newcore-rp2350/include/linux/string.h **** extern char *strndup_user(const char __user *, long);
  18:/mnt/c/Users/31740/Documents/codes/newcore-rp2350/include/linux/string.h **** extern void *memdup_user(const void __user *, size_t) __realloc_size(2);
  19:/mnt/c/Users/31740/Documents/codes/newcore-rp2350/include/linux/string.h **** extern void *vmemdup_user(const void __user *, size_t) __realloc_size(2);
  20:/mnt/c/Users/31740/Documents/codes/newcore-rp2350/include/linux/string.h **** extern void *memdup_user_nul(const void __user *, size_t);
  21:/mnt/c/Users/31740/Documents/codes/newcore-rp2350/include/linux/string.h **** 
  22:/mnt/c/Users/31740/Documents/codes/newcore-rp2350/include/linux/string.h **** 
  23:/mnt/c/Users/31740/Documents/codes/newcore-rp2350/include/linux/string.h **** 
  24:/mnt/c/Users/31740/Documents/codes/newcore-rp2350/include/linux/string.h **** static ssize_t sized_strscpy(char *dest, const char *src, size_t slen) {
  31              		.loc 2 24 72 view -0
  32              		.cfi_startproc
  33              		@ args = 0, pretend = 0, frame = 0
  34              		@ frame_needed = 0, uses_anonymous_args = 0
ARM GAS  /tmp/ccZI6Oms.s 			page 2


  35              		@ link register save eliminated.
  36              		.loc 2 24 72 is_stmt 0 view .LVU1
  37 0000 10B4     		push	{r4}
  38              	.LCFI0:
  39              		.cfi_def_cfa_offset 4
  40              		.cfi_offset 4, -4
  25:/mnt/c/Users/31740/Documents/codes/newcore-rp2350/include/linux/string.h ****     size_t i;
  41              		.loc 2 25 5 is_stmt 1 view .LVU2
  26:/mnt/c/Users/31740/Documents/codes/newcore-rp2350/include/linux/string.h **** 
  27:/mnt/c/Users/31740/Documents/codes/newcore-rp2350/include/linux/string.h ****     for (i = 0;  i < slen && src[i] != '\0'; i++) {
  42              		.loc 2 27 5 view .LVU3
  43              	.LVL1:
  44              		.loc 2 27 12 is_stmt 0 view .LVU4
  45 0002 0023     		movs	r3, #0
  46              		.loc 2 27 5 view .LVU5
  47 0004 01E0     		b	.L2
  48              	.LVL2:
  49              	.L4:
  28:/mnt/c/Users/31740/Documents/codes/newcore-rp2350/include/linux/string.h ****         dest[i] = src[i];
  50              		.loc 2 28 9 is_stmt 1 view .LVU6
  51              		.loc 2 28 17 is_stmt 0 view .LVU7
  52 0006 C454     		strb	r4, [r0, r3]
  27:/mnt/c/Users/31740/Documents/codes/newcore-rp2350/include/linux/string.h ****         dest[i] = src[i];
  53              		.loc 2 27 47 is_stmt 1 discriminator 4 view .LVU8
  54 0008 0133     		adds	r3, r3, #1
  55              	.LVL3:
  56              	.L2:
  27:/mnt/c/Users/31740/Documents/codes/newcore-rp2350/include/linux/string.h ****         dest[i] = src[i];
  57              		.loc 2 27 27 discriminator 1 view .LVU9
  58 000a 9342     		cmp	r3, r2
  59 000c 02D2     		bcs	.L3
  27:/mnt/c/Users/31740/Documents/codes/newcore-rp2350/include/linux/string.h ****         dest[i] = src[i];
  60              		.loc 2 27 33 is_stmt 0 discriminator 3 view .LVU10
  61 000e CC5C     		ldrb	r4, [r1, r3]	@ zero_extendqisi2
  27:/mnt/c/Users/31740/Documents/codes/newcore-rp2350/include/linux/string.h ****         dest[i] = src[i];
  62              		.loc 2 27 27 discriminator 3 view .LVU11
  63 0010 002C     		cmp	r4, #0
  64 0012 F8D1     		bne	.L4
  65              	.L3:
  29:/mnt/c/Users/31740/Documents/codes/newcore-rp2350/include/linux/string.h ****     }
  30:/mnt/c/Users/31740/Documents/codes/newcore-rp2350/include/linux/string.h ****     dest[i] = '\0';  
  66              		.loc 2 30 5 is_stmt 1 view .LVU12
  67              		.loc 2 30 13 is_stmt 0 view .LVU13
  68 0014 0024     		movs	r4, #0
  69 0016 C454     		strb	r4, [r0, r3]
  31:/mnt/c/Users/31740/Documents/codes/newcore-rp2350/include/linux/string.h ****     if (i == slen || src[i] == '\0') {
  70              		.loc 2 31 5 is_stmt 1 view .LVU14
  71              		.loc 2 31 8 is_stmt 0 view .LVU15
  72 0018 9342     		cmp	r3, r2
  73 001a 01D0     		beq	.L5
  74              		.loc 2 31 25 discriminator 1 view .LVU16
  75 001c CA5C     		ldrb	r2, [r1, r3]	@ zero_extendqisi2
  76              	.LVL4:
  77              		.loc 2 31 19 discriminator 1 view .LVU17
  78 001e 1AB9     		cbnz	r2, .L7
  79              	.L5:
  32:/mnt/c/Users/31740/Documents/codes/newcore-rp2350/include/linux/string.h ****         return i; 
ARM GAS  /tmp/ccZI6Oms.s 			page 3


  80              		.loc 2 32 9 is_stmt 1 view .LVU18
  81              		.loc 2 32 16 is_stmt 0 view .LVU19
  82 0020 1846     		mov	r0, r3
  83              	.LVL5:
  84              	.L1:
  33:/mnt/c/Users/31740/Documents/codes/newcore-rp2350/include/linux/string.h ****     }
  34:/mnt/c/Users/31740/Documents/codes/newcore-rp2350/include/linux/string.h ****     return -1;
  35:/mnt/c/Users/31740/Documents/codes/newcore-rp2350/include/linux/string.h **** }
  85              		.loc 2 35 1 view .LVU20
  86 0022 5DF8044B 		ldr	r4, [sp], #4
  87              	.LCFI1:
  88              		.cfi_remember_state
  89              		.cfi_restore 4
  90              		.cfi_def_cfa_offset 0
  91 0026 7047     		bx	lr
  92              	.LVL6:
  93              	.L7:
  94              	.LCFI2:
  95              		.cfi_restore_state
  34:/mnt/c/Users/31740/Documents/codes/newcore-rp2350/include/linux/string.h **** }
  96              		.loc 2 34 12 view .LVU21
  97 0028 4FF0FF30 		mov	r0, #-1
  98              	.LVL7:
  34:/mnt/c/Users/31740/Documents/codes/newcore-rp2350/include/linux/string.h **** }
  99              		.loc 2 34 12 view .LVU22
 100 002c F9E7     		b	.L1
 101              		.cfi_endproc
 102              	.LFE241:
 104              		.section	.text.find_dynamic_major,"ax",%progbits
 105              		.align	1
 106              		.syntax unified
 107              		.thumb
 108              		.thumb_func
 110              	find_dynamic_major:
 111              	.LFB1033:
   1:/mnt/c/Users/31740/Documents/codes/newcore-rp2350/fs/char_device.c **** #include <linux/kernel.h>
   2:/mnt/c/Users/31740/Documents/codes/newcore-rp2350/fs/char_device.c **** #include <linux/list.h>
   3:/mnt/c/Users/31740/Documents/codes/newcore-rp2350/fs/char_device.c **** #include <linux/fs.h>
   4:/mnt/c/Users/31740/Documents/codes/newcore-rp2350/fs/char_device.c **** #include <linux/slab.h>
   5:/mnt/c/Users/31740/Documents/codes/newcore-rp2350/fs/char_device.c **** #include <linux/init.h>
   6:/mnt/c/Users/31740/Documents/codes/newcore-rp2350/fs/char_device.c **** #include <linux/fs.h>
   7:/mnt/c/Users/31740/Documents/codes/newcore-rp2350/fs/char_device.c **** #include <linux/kdev_t.h>
   8:/mnt/c/Users/31740/Documents/codes/newcore-rp2350/fs/char_device.c **** #include <linux/slab.h>
   9:/mnt/c/Users/31740/Documents/codes/newcore-rp2350/fs/char_device.c **** #include <linux/string.h>
  10:/mnt/c/Users/31740/Documents/codes/newcore-rp2350/fs/char_device.c **** #include <linux/cdev.h>
  11:/mnt/c/Users/31740/Documents/codes/newcore-rp2350/fs/char_device.c **** #include <linux/major.h>
  12:/mnt/c/Users/31740/Documents/codes/newcore-rp2350/fs/char_device.c **** #include <linux/errno.h>
  13:/mnt/c/Users/31740/Documents/codes/newcore-rp2350/fs/char_device.c **** #include <linux/module.h>
  14:/mnt/c/Users/31740/Documents/codes/newcore-rp2350/fs/char_device.c **** #include <linux/mutex.h>
  15:/mnt/c/Users/31740/Documents/codes/newcore-rp2350/fs/char_device.c **** 
  16:/mnt/c/Users/31740/Documents/codes/newcore-rp2350/fs/char_device.c **** 
  17:/mnt/c/Users/31740/Documents/codes/newcore-rp2350/fs/char_device.c **** #define CHRDEV_MAJOR_HASH_SIZE 127
  18:/mnt/c/Users/31740/Documents/codes/newcore-rp2350/fs/char_device.c **** 
  19:/mnt/c/Users/31740/Documents/codes/newcore-rp2350/fs/char_device.c **** static DEFINE_MUTEX(chrdevs_lock);
  20:/mnt/c/Users/31740/Documents/codes/newcore-rp2350/fs/char_device.c **** 
  21:/mnt/c/Users/31740/Documents/codes/newcore-rp2350/fs/char_device.c **** static struct char_device_struct 
  22:/mnt/c/Users/31740/Documents/codes/newcore-rp2350/fs/char_device.c **** {
ARM GAS  /tmp/ccZI6Oms.s 			page 4


  23:/mnt/c/Users/31740/Documents/codes/newcore-rp2350/fs/char_device.c ****     struct char_device_struct *next; 
  24:/mnt/c/Users/31740/Documents/codes/newcore-rp2350/fs/char_device.c ****     unsigned int major; 
  25:/mnt/c/Users/31740/Documents/codes/newcore-rp2350/fs/char_device.c ****     unsigned int baseminor; 
  26:/mnt/c/Users/31740/Documents/codes/newcore-rp2350/fs/char_device.c ****     int minorct;
  27:/mnt/c/Users/31740/Documents/codes/newcore-rp2350/fs/char_device.c ****     char name[64]; 
  28:/mnt/c/Users/31740/Documents/codes/newcore-rp2350/fs/char_device.c ****     struct cdev *cdev; /* will die */ 
  29:/mnt/c/Users/31740/Documents/codes/newcore-rp2350/fs/char_device.c **** } *chrdevs[CHRDEV_MAJOR_HASH_SIZE];
  30:/mnt/c/Users/31740/Documents/codes/newcore-rp2350/fs/char_device.c **** 
  31:/mnt/c/Users/31740/Documents/codes/newcore-rp2350/fs/char_device.c **** 
  32:/mnt/c/Users/31740/Documents/codes/newcore-rp2350/fs/char_device.c **** static inline int major_to_index(unsigned major)
  33:/mnt/c/Users/31740/Documents/codes/newcore-rp2350/fs/char_device.c **** {
  34:/mnt/c/Users/31740/Documents/codes/newcore-rp2350/fs/char_device.c **** 	return major % CHRDEV_MAJOR_HASH_SIZE;
  35:/mnt/c/Users/31740/Documents/codes/newcore-rp2350/fs/char_device.c **** }
  36:/mnt/c/Users/31740/Documents/codes/newcore-rp2350/fs/char_device.c **** 
  37:/mnt/c/Users/31740/Documents/codes/newcore-rp2350/fs/char_device.c **** 
  38:/mnt/c/Users/31740/Documents/codes/newcore-rp2350/fs/char_device.c **** static int find_dynamic_major(void)
  39:/mnt/c/Users/31740/Documents/codes/newcore-rp2350/fs/char_device.c **** {
 112              		.loc 1 39 1 is_stmt 1 view -0
 113              		.cfi_startproc
 114              		@ args = 0, pretend = 0, frame = 0
 115              		@ frame_needed = 0, uses_anonymous_args = 0
 116              		@ link register save eliminated.
  40:/mnt/c/Users/31740/Documents/codes/newcore-rp2350/fs/char_device.c **** 	int i;
 117              		.loc 1 40 2 view .LVU24
  41:/mnt/c/Users/31740/Documents/codes/newcore-rp2350/fs/char_device.c **** 	struct char_device_struct *cd;
 118              		.loc 1 41 2 view .LVU25
  42:/mnt/c/Users/31740/Documents/codes/newcore-rp2350/fs/char_device.c **** 	for (i = ARRAY_SIZE(chrdevs)-1; i >= CHRDEV_MAJOR_DYN_END; i--) {
 119              		.loc 1 42 2 view .LVU26
 120              	.LVL8:
 121              	.LBB67:
 122              		.loc 1 42 36 discriminator 1 view .LVU27
 123              	.LBE67:
  43:/mnt/c/Users/31740/Documents/codes/newcore-rp2350/fs/char_device.c **** 		if (chrdevs[i] == NULL)
  44:/mnt/c/Users/31740/Documents/codes/newcore-rp2350/fs/char_device.c **** 			return i;
  45:/mnt/c/Users/31740/Documents/codes/newcore-rp2350/fs/char_device.c **** 	}
  46:/mnt/c/Users/31740/Documents/codes/newcore-rp2350/fs/char_device.c **** 	for (i = CHRDEV_MAJOR_DYN_EXT_START;
 124              		.loc 1 46 2 view .LVU28
 125              		.loc 1 46 9 is_stmt 0 view .LVU29
 126 0000 40F2FF10 		movw	r0, #511
 127              	.LVL9:
 128              	.L10:
  47:/mnt/c/Users/31740/Documents/codes/newcore-rp2350/fs/char_device.c **** 	     i >= CHRDEV_MAJOR_DYN_EXT_END; i--) {
 129              		.loc 1 47 9 is_stmt 1 discriminator 1 view .LVU30
 130 0004 B0F5C07F 		cmp	r0, #384
 131 0008 16DB     		blt	.L16
  48:/mnt/c/Users/31740/Documents/codes/newcore-rp2350/fs/char_device.c **** 		for (cd = chrdevs[major_to_index(i)]; cd; cd = cd->next)
 132              		.loc 1 48 3 view .LVU31
 133              		.loc 1 48 21 is_stmt 0 view .LVU32
 134 000a 0146     		mov	r1, r0
 135              	.LVL10:
 136              	.LBB68:
 137              	.LBI68:
  32:/mnt/c/Users/31740/Documents/codes/newcore-rp2350/fs/char_device.c **** {
 138              		.loc 1 32 19 is_stmt 1 view .LVU33
 139              	.LBB69:
  34:/mnt/c/Users/31740/Documents/codes/newcore-rp2350/fs/char_device.c **** }
 140              		.loc 1 34 2 view .LVU34
ARM GAS  /tmp/ccZI6Oms.s 			page 5


  34:/mnt/c/Users/31740/Documents/codes/newcore-rp2350/fs/char_device.c **** }
 141              		.loc 1 34 15 is_stmt 0 view .LVU35
 142 000c 0C4B     		ldr	r3, .L18
 143 000e A3FB0023 		umull	r2, r3, r3, r0
 144 0012 C21A     		subs	r2, r0, r3
 145 0014 03EB5203 		add	r3, r3, r2, lsr #1
 146 0018 9B09     		lsrs	r3, r3, #6
 147 001a C3EBC313 		rsb	r3, r3, r3, lsl #7
 148 001e C31A     		subs	r3, r0, r3
 149              	.LVL11:
  34:/mnt/c/Users/31740/Documents/codes/newcore-rp2350/fs/char_device.c **** }
 150              		.loc 1 34 15 view .LVU36
 151              	.LBE69:
 152              	.LBE68:
 153              		.loc 1 48 11 discriminator 1 view .LVU37
 154 0020 084A     		ldr	r2, .L18+4
 155 0022 52F82330 		ldr	r3, [r2, r3, lsl #2]
 156              	.LVL12:
 157              	.L11:
 158              		.loc 1 48 41 is_stmt 1 discriminator 1 view .LVU38
 159 0026 23B1     		cbz	r3, .L17
  49:/mnt/c/Users/31740/Documents/codes/newcore-rp2350/fs/char_device.c **** 			if (cd->major == i)
 160              		.loc 1 49 4 view .LVU39
 161              		.loc 1 49 10 is_stmt 0 view .LVU40
 162 0028 5A68     		ldr	r2, [r3, #4]
 163              		.loc 1 49 7 view .LVU41
 164 002a 9142     		cmp	r1, r2
 165 002c 02D0     		beq	.L12
  48:/mnt/c/Users/31740/Documents/codes/newcore-rp2350/fs/char_device.c **** 			if (cd->major == i)
 166              		.loc 1 48 48 is_stmt 1 discriminator 2 view .LVU42
 167 002e 1B68     		ldr	r3, [r3]
 168              	.LVL13:
  48:/mnt/c/Users/31740/Documents/codes/newcore-rp2350/fs/char_device.c **** 			if (cd->major == i)
 169              		.loc 1 48 48 is_stmt 0 discriminator 2 view .LVU43
 170 0030 F9E7     		b	.L11
 171              	.L17:
  48:/mnt/c/Users/31740/Documents/codes/newcore-rp2350/fs/char_device.c **** 			if (cd->major == i)
 172              		.loc 1 48 48 discriminator 2 view .LVU44
 173 0032 7047     		bx	lr
 174              	.L12:
  50:/mnt/c/Users/31740/Documents/codes/newcore-rp2350/fs/char_device.c **** 				break;
  51:/mnt/c/Users/31740/Documents/codes/newcore-rp2350/fs/char_device.c **** 		if (cd == NULL)
 175              		.loc 1 51 3 is_stmt 1 view .LVU45
  47:/mnt/c/Users/31740/Documents/codes/newcore-rp2350/fs/char_device.c **** 		for (cd = chrdevs[major_to_index(i)]; cd; cd = cd->next)
 176              		.loc 1 47 39 view .LVU46
 177 0034 0138     		subs	r0, r0, #1
 178              	.LVL14:
  47:/mnt/c/Users/31740/Documents/codes/newcore-rp2350/fs/char_device.c **** 		for (cd = chrdevs[major_to_index(i)]; cd; cd = cd->next)
 179              		.loc 1 47 39 is_stmt 0 view .LVU47
 180 0036 E5E7     		b	.L10
 181              	.LVL15:
 182              	.L16:
  52:/mnt/c/Users/31740/Documents/codes/newcore-rp2350/fs/char_device.c **** 			return i;
  53:/mnt/c/Users/31740/Documents/codes/newcore-rp2350/fs/char_device.c **** 	}
  54:/mnt/c/Users/31740/Documents/codes/newcore-rp2350/fs/char_device.c **** 	return -EBUSY;
 183              		.loc 1 54 9 view .LVU48
 184 0038 6FF00F00 		mvn	r0, #15
ARM GAS  /tmp/ccZI6Oms.s 			page 6


 185              	.LVL16:
  55:/mnt/c/Users/31740/Documents/codes/newcore-rp2350/fs/char_device.c **** }
 186              		.loc 1 55 1 view .LVU49
 187 003c 7047     		bx	lr
 188              	.L19:
 189 003e 00BF     		.align	2
 190              	.L18:
 191 0040 11080402 		.word	33818641
 192 0044 00000000 		.word	chrdevs
 193              		.cfi_endproc
 194              	.LFE1033:
 196              		.section	.text.__unregister_chrdev_region,"ax",%progbits
 197              		.align	1
 198              		.syntax unified
 199              		.thumb
 200              		.thumb_func
 202              	__unregister_chrdev_region:
 203              	.LVL17:
 204              	.LFB1035:
  56:/mnt/c/Users/31740/Documents/codes/newcore-rp2350/fs/char_device.c **** 
  57:/mnt/c/Users/31740/Documents/codes/newcore-rp2350/fs/char_device.c **** 
  58:/mnt/c/Users/31740/Documents/codes/newcore-rp2350/fs/char_device.c **** 
  59:/mnt/c/Users/31740/Documents/codes/newcore-rp2350/fs/char_device.c **** static struct char_device_struct *
  60:/mnt/c/Users/31740/Documents/codes/newcore-rp2350/fs/char_device.c **** __register_chrdev_region(unsigned int major, unsigned int baseminor,
  61:/mnt/c/Users/31740/Documents/codes/newcore-rp2350/fs/char_device.c **** 			   int minorct, const char *name)
  62:/mnt/c/Users/31740/Documents/codes/newcore-rp2350/fs/char_device.c **** {
  63:/mnt/c/Users/31740/Documents/codes/newcore-rp2350/fs/char_device.c **** 	struct char_device_struct *cd, *curr, *prev = NULL;
  64:/mnt/c/Users/31740/Documents/codes/newcore-rp2350/fs/char_device.c **** 	int ret;
  65:/mnt/c/Users/31740/Documents/codes/newcore-rp2350/fs/char_device.c **** 	int i;
  66:/mnt/c/Users/31740/Documents/codes/newcore-rp2350/fs/char_device.c **** 
  67:/mnt/c/Users/31740/Documents/codes/newcore-rp2350/fs/char_device.c **** 	if (major >= CHRDEV_MAJOR_MAX) {
  68:/mnt/c/Users/31740/Documents/codes/newcore-rp2350/fs/char_device.c **** 		pr_err("CHRDEV \"%s\" major requested (%u) is greater than the maximum (%u)\n",
  69:/mnt/c/Users/31740/Documents/codes/newcore-rp2350/fs/char_device.c **** 		       name, major, CHRDEV_MAJOR_MAX-1);
  70:/mnt/c/Users/31740/Documents/codes/newcore-rp2350/fs/char_device.c **** 		return ERR_PTR(-EINVAL);
  71:/mnt/c/Users/31740/Documents/codes/newcore-rp2350/fs/char_device.c **** 	}
  72:/mnt/c/Users/31740/Documents/codes/newcore-rp2350/fs/char_device.c **** 
  73:/mnt/c/Users/31740/Documents/codes/newcore-rp2350/fs/char_device.c **** 	if (minorct > MINORMASK + 1 - baseminor) {
  74:/mnt/c/Users/31740/Documents/codes/newcore-rp2350/fs/char_device.c **** 		pr_err("CHRDEV \"%s\" minor range requested (%u-%u) is out of range of maximum range (%u-%u) for 
  75:/mnt/c/Users/31740/Documents/codes/newcore-rp2350/fs/char_device.c **** 			name, baseminor, baseminor + minorct - 1, 0, MINORMASK);
  76:/mnt/c/Users/31740/Documents/codes/newcore-rp2350/fs/char_device.c **** 		return ERR_PTR(-EINVAL);
  77:/mnt/c/Users/31740/Documents/codes/newcore-rp2350/fs/char_device.c **** 	}
  78:/mnt/c/Users/31740/Documents/codes/newcore-rp2350/fs/char_device.c **** 
  79:/mnt/c/Users/31740/Documents/codes/newcore-rp2350/fs/char_device.c **** 	cd = kzalloc(sizeof(struct char_device_struct), GFP_KERNEL);
  80:/mnt/c/Users/31740/Documents/codes/newcore-rp2350/fs/char_device.c **** 	if (cd == NULL)
  81:/mnt/c/Users/31740/Documents/codes/newcore-rp2350/fs/char_device.c **** 		return ERR_PTR(-ENOMEM);
  82:/mnt/c/Users/31740/Documents/codes/newcore-rp2350/fs/char_device.c **** 
  83:/mnt/c/Users/31740/Documents/codes/newcore-rp2350/fs/char_device.c **** 	mutex_lock(&chrdevs_lock);
  84:/mnt/c/Users/31740/Documents/codes/newcore-rp2350/fs/char_device.c **** 
  85:/mnt/c/Users/31740/Documents/codes/newcore-rp2350/fs/char_device.c **** 	if (major == 0) {
  86:/mnt/c/Users/31740/Documents/codes/newcore-rp2350/fs/char_device.c **** 		ret = find_dynamic_major();
  87:/mnt/c/Users/31740/Documents/codes/newcore-rp2350/fs/char_device.c **** 		if (ret < 0) {
  88:/mnt/c/Users/31740/Documents/codes/newcore-rp2350/fs/char_device.c **** 			pr_err("CHRDEV \"%s\" dynamic allocation region is full\n",
  89:/mnt/c/Users/31740/Documents/codes/newcore-rp2350/fs/char_device.c **** 			       name);
  90:/mnt/c/Users/31740/Documents/codes/newcore-rp2350/fs/char_device.c **** 			goto out;
  91:/mnt/c/Users/31740/Documents/codes/newcore-rp2350/fs/char_device.c **** 		}
  92:/mnt/c/Users/31740/Documents/codes/newcore-rp2350/fs/char_device.c **** 		major = ret;
  93:/mnt/c/Users/31740/Documents/codes/newcore-rp2350/fs/char_device.c **** 	}
ARM GAS  /tmp/ccZI6Oms.s 			page 7


  94:/mnt/c/Users/31740/Documents/codes/newcore-rp2350/fs/char_device.c **** 
  95:/mnt/c/Users/31740/Documents/codes/newcore-rp2350/fs/char_device.c **** 	ret = -EBUSY;
  96:/mnt/c/Users/31740/Documents/codes/newcore-rp2350/fs/char_device.c **** 	i = major_to_index(major);
  97:/mnt/c/Users/31740/Documents/codes/newcore-rp2350/fs/char_device.c **** 	for (curr = chrdevs[i]; curr; prev = curr, curr = curr->next) {
  98:/mnt/c/Users/31740/Documents/codes/newcore-rp2350/fs/char_device.c **** 		if (curr->major < major)
  99:/mnt/c/Users/31740/Documents/codes/newcore-rp2350/fs/char_device.c **** 			continue;
 100:/mnt/c/Users/31740/Documents/codes/newcore-rp2350/fs/char_device.c **** 
 101:/mnt/c/Users/31740/Documents/codes/newcore-rp2350/fs/char_device.c **** 		if (curr->major > major)
 102:/mnt/c/Users/31740/Documents/codes/newcore-rp2350/fs/char_device.c **** 			break;
 103:/mnt/c/Users/31740/Documents/codes/newcore-rp2350/fs/char_device.c **** 
 104:/mnt/c/Users/31740/Documents/codes/newcore-rp2350/fs/char_device.c **** 		if (curr->baseminor + curr->minorct <= baseminor)
 105:/mnt/c/Users/31740/Documents/codes/newcore-rp2350/fs/char_device.c **** 			continue;
 106:/mnt/c/Users/31740/Documents/codes/newcore-rp2350/fs/char_device.c **** 
 107:/mnt/c/Users/31740/Documents/codes/newcore-rp2350/fs/char_device.c **** 		if (curr->baseminor >= baseminor + minorct)
 108:/mnt/c/Users/31740/Documents/codes/newcore-rp2350/fs/char_device.c **** 			break;
 109:/mnt/c/Users/31740/Documents/codes/newcore-rp2350/fs/char_device.c **** 
 110:/mnt/c/Users/31740/Documents/codes/newcore-rp2350/fs/char_device.c **** 		goto out;
 111:/mnt/c/Users/31740/Documents/codes/newcore-rp2350/fs/char_device.c **** 	}
 112:/mnt/c/Users/31740/Documents/codes/newcore-rp2350/fs/char_device.c **** 
 113:/mnt/c/Users/31740/Documents/codes/newcore-rp2350/fs/char_device.c **** 	cd->major = major;
 114:/mnt/c/Users/31740/Documents/codes/newcore-rp2350/fs/char_device.c **** 	cd->baseminor = baseminor;
 115:/mnt/c/Users/31740/Documents/codes/newcore-rp2350/fs/char_device.c **** 	cd->minorct = minorct;
 116:/mnt/c/Users/31740/Documents/codes/newcore-rp2350/fs/char_device.c **** 	strscpy(cd->name, name, sizeof(cd->name));
 117:/mnt/c/Users/31740/Documents/codes/newcore-rp2350/fs/char_device.c **** 
 118:/mnt/c/Users/31740/Documents/codes/newcore-rp2350/fs/char_device.c **** 	if (!prev) {
 119:/mnt/c/Users/31740/Documents/codes/newcore-rp2350/fs/char_device.c **** 		cd->next = curr;
 120:/mnt/c/Users/31740/Documents/codes/newcore-rp2350/fs/char_device.c **** 		chrdevs[i] = cd;
 121:/mnt/c/Users/31740/Documents/codes/newcore-rp2350/fs/char_device.c **** 	} else {
 122:/mnt/c/Users/31740/Documents/codes/newcore-rp2350/fs/char_device.c **** 		cd->next = prev->next;
 123:/mnt/c/Users/31740/Documents/codes/newcore-rp2350/fs/char_device.c **** 		prev->next = cd;
 124:/mnt/c/Users/31740/Documents/codes/newcore-rp2350/fs/char_device.c **** 	}
 125:/mnt/c/Users/31740/Documents/codes/newcore-rp2350/fs/char_device.c **** 
 126:/mnt/c/Users/31740/Documents/codes/newcore-rp2350/fs/char_device.c **** 	mutex_unlock(&chrdevs_lock);
 127:/mnt/c/Users/31740/Documents/codes/newcore-rp2350/fs/char_device.c **** 	return cd;
 128:/mnt/c/Users/31740/Documents/codes/newcore-rp2350/fs/char_device.c **** out:
 129:/mnt/c/Users/31740/Documents/codes/newcore-rp2350/fs/char_device.c **** 	mutex_unlock(&chrdevs_lock);
 130:/mnt/c/Users/31740/Documents/codes/newcore-rp2350/fs/char_device.c **** 	kfree(cd);
 131:/mnt/c/Users/31740/Documents/codes/newcore-rp2350/fs/char_device.c **** 	return ERR_PTR(ret);
 132:/mnt/c/Users/31740/Documents/codes/newcore-rp2350/fs/char_device.c **** }
 133:/mnt/c/Users/31740/Documents/codes/newcore-rp2350/fs/char_device.c **** 
 134:/mnt/c/Users/31740/Documents/codes/newcore-rp2350/fs/char_device.c **** 
 135:/mnt/c/Users/31740/Documents/codes/newcore-rp2350/fs/char_device.c **** static struct char_device_struct *
 136:/mnt/c/Users/31740/Documents/codes/newcore-rp2350/fs/char_device.c **** __unregister_chrdev_region(unsigned major, unsigned baseminor, int minorct)
 137:/mnt/c/Users/31740/Documents/codes/newcore-rp2350/fs/char_device.c **** {
 205              		.loc 1 137 1 is_stmt 1 view -0
 206              		.cfi_startproc
 207              		@ args = 0, pretend = 0, frame = 0
 208              		@ frame_needed = 0, uses_anonymous_args = 0
 209              		@ link register save eliminated.
 210              		.loc 1 137 1 is_stmt 0 view .LVU51
 211 0000 8446     		mov	ip, r0
 138:/mnt/c/Users/31740/Documents/codes/newcore-rp2350/fs/char_device.c **** 	struct char_device_struct *cd = NULL, **cp;
 212              		.loc 1 138 2 is_stmt 1 view .LVU52
 213              	.LVL18:
 139:/mnt/c/Users/31740/Documents/codes/newcore-rp2350/fs/char_device.c **** 	int i = major_to_index(major);
 214              		.loc 1 139 2 view .LVU53
 215              	.LBB70:
ARM GAS  /tmp/ccZI6Oms.s 			page 8


 216              	.LBI70:
  32:/mnt/c/Users/31740/Documents/codes/newcore-rp2350/fs/char_device.c **** {
 217              		.loc 1 32 19 view .LVU54
 218              	.LBB71:
  34:/mnt/c/Users/31740/Documents/codes/newcore-rp2350/fs/char_device.c **** }
 219              		.loc 1 34 2 view .LVU55
  34:/mnt/c/Users/31740/Documents/codes/newcore-rp2350/fs/char_device.c **** }
 220              		.loc 1 34 15 is_stmt 0 view .LVU56
 221 0002 1548     		ldr	r0, .L33
 222              	.LVL19:
  34:/mnt/c/Users/31740/Documents/codes/newcore-rp2350/fs/char_device.c **** }
 223              		.loc 1 34 15 view .LVU57
 224 0004 A0FB0C30 		umull	r3, r0, r0, ip
 225 0008 ACEB0003 		sub	r3, ip, r0
 226 000c 00EB5300 		add	r0, r0, r3, lsr #1
 227 0010 8009     		lsrs	r0, r0, #6
 228 0012 C0EBC010 		rsb	r0, r0, r0, lsl #7
 229 0016 ACEB0000 		sub	r0, ip, r0
 230              	.LVL20:
  34:/mnt/c/Users/31740/Documents/codes/newcore-rp2350/fs/char_device.c **** }
 231              		.loc 1 34 15 view .LVU58
 232              	.LBE71:
 233              	.LBE70:
 140:/mnt/c/Users/31740/Documents/codes/newcore-rp2350/fs/char_device.c **** 
 141:/mnt/c/Users/31740/Documents/codes/newcore-rp2350/fs/char_device.c **** 	mutex_lock(&chrdevs_lock);
 234              		.loc 1 141 2 is_stmt 1 view .LVU59
 142:/mnt/c/Users/31740/Documents/codes/newcore-rp2350/fs/char_device.c **** 	for (cp = &chrdevs[i]; *cp; cp = &(*cp)->next)
 235              		.loc 1 142 2 view .LVU60
 236              		.loc 1 142 10 is_stmt 0 view .LVU61
 237 001a 104B     		ldr	r3, .L33+4
 238 001c 03EB8003 		add	r3, r3, r0, lsl #2
 239              	.LVL21:
 240              		.loc 1 142 25 is_stmt 1 discriminator 1 view .LVU62
 241 0020 1868     		ldr	r0, [r3]
 242              	.LVL22:
 243              		.loc 1 142 25 is_stmt 0 discriminator 1 view .LVU63
 244 0022 98B1     		cbz	r0, .L32
 137:/mnt/c/Users/31740/Documents/codes/newcore-rp2350/fs/char_device.c **** 	struct char_device_struct *cd = NULL, **cp;
 245              		.loc 1 137 1 view .LVU64
 246 0024 10B4     		push	{r4}
 247              	.LCFI3:
 248              		.cfi_def_cfa_offset 4
 249              		.cfi_offset 4, -4
 250 0026 02E0     		b	.L24
 251              	.L22:
 252              		.loc 1 142 33 is_stmt 1 discriminator 2 view .LVU65
 253 0028 0346     		mov	r3, r0
 254              	.LVL23:
 255              		.loc 1 142 25 discriminator 1 view .LVU66
 256 002a 0068     		ldr	r0, [r0]
 257 002c 40B1     		cbz	r0, .L23
 258              	.L24:
 143:/mnt/c/Users/31740/Documents/codes/newcore-rp2350/fs/char_device.c **** 		if ((*cp)->major == major &&
 259              		.loc 1 143 3 view .LVU67
 260              		.loc 1 143 6 is_stmt 0 view .LVU68
 261 002e 4468     		ldr	r4, [r0, #4]
 262 0030 6445     		cmp	r4, ip
ARM GAS  /tmp/ccZI6Oms.s 			page 9


 263 0032 F9D1     		bne	.L22
 264              		.loc 1 143 29 discriminator 1 view .LVU69
 265 0034 8468     		ldr	r4, [r0, #8]
 266 0036 8C42     		cmp	r4, r1
 267 0038 F6D1     		bne	.L22
 144:/mnt/c/Users/31740/Documents/codes/newcore-rp2350/fs/char_device.c **** 		    (*cp)->baseminor == baseminor &&
 268              		.loc 1 144 37 view .LVU70
 269 003a C468     		ldr	r4, [r0, #12]
 270 003c 9442     		cmp	r4, r2
 271 003e F3D1     		bne	.L22
 272              	.L23:
 145:/mnt/c/Users/31740/Documents/codes/newcore-rp2350/fs/char_device.c **** 		    (*cp)->minorct == minorct)
 146:/mnt/c/Users/31740/Documents/codes/newcore-rp2350/fs/char_device.c **** 			break;
 147:/mnt/c/Users/31740/Documents/codes/newcore-rp2350/fs/char_device.c **** 	if (*cp) {
 273              		.loc 1 147 2 is_stmt 1 view .LVU71
 274              		.loc 1 147 5 is_stmt 0 view .LVU72
 275 0040 08B1     		cbz	r0, .L20
 148:/mnt/c/Users/31740/Documents/codes/newcore-rp2350/fs/char_device.c **** 		cd = *cp;
 276              		.loc 1 148 3 is_stmt 1 view .LVU73
 277              	.LVL24:
 149:/mnt/c/Users/31740/Documents/codes/newcore-rp2350/fs/char_device.c **** 		*cp = cd->next;
 278              		.loc 1 149 3 view .LVU74
 279              		.loc 1 149 11 is_stmt 0 view .LVU75
 280 0042 0268     		ldr	r2, [r0]
 281              	.LVL25:
 282              		.loc 1 149 7 view .LVU76
 283 0044 1A60     		str	r2, [r3]
 150:/mnt/c/Users/31740/Documents/codes/newcore-rp2350/fs/char_device.c **** 	}
 151:/mnt/c/Users/31740/Documents/codes/newcore-rp2350/fs/char_device.c **** 	mutex_unlock(&chrdevs_lock);
 284              		.loc 1 151 2 is_stmt 1 view .LVU77
 152:/mnt/c/Users/31740/Documents/codes/newcore-rp2350/fs/char_device.c **** 	return cd;
 285              		.loc 1 152 2 view .LVU78
 286              	.LVL26:
 287              	.L20:
 153:/mnt/c/Users/31740/Documents/codes/newcore-rp2350/fs/char_device.c **** }
 288              		.loc 1 153 1 is_stmt 0 view .LVU79
 289 0046 5DF8044B 		ldr	r4, [sp], #4
 290              	.LCFI4:
 291              		.cfi_restore 4
 292              		.cfi_def_cfa_offset 0
 293 004a 7047     		bx	lr
 294              	.LVL27:
 295              	.L32:
 147:/mnt/c/Users/31740/Documents/codes/newcore-rp2350/fs/char_device.c **** 		cd = *cp;
 296              		.loc 1 147 2 is_stmt 1 view .LVU80
 147:/mnt/c/Users/31740/Documents/codes/newcore-rp2350/fs/char_device.c **** 		cd = *cp;
 297              		.loc 1 147 5 is_stmt 0 view .LVU81
 298 004c 10B1     		cbz	r0, .L30
 148:/mnt/c/Users/31740/Documents/codes/newcore-rp2350/fs/char_device.c **** 		*cp = cd->next;
 299              		.loc 1 148 3 is_stmt 1 view .LVU82
 300              	.LVL28:
 149:/mnt/c/Users/31740/Documents/codes/newcore-rp2350/fs/char_device.c **** 	}
 301              		.loc 1 149 3 view .LVU83
 149:/mnt/c/Users/31740/Documents/codes/newcore-rp2350/fs/char_device.c **** 	}
 302              		.loc 1 149 11 is_stmt 0 view .LVU84
 303 004e 0268     		ldr	r2, [r0]
 304              	.LVL29:
ARM GAS  /tmp/ccZI6Oms.s 			page 10


 149:/mnt/c/Users/31740/Documents/codes/newcore-rp2350/fs/char_device.c **** 	}
 305              		.loc 1 149 7 view .LVU85
 306 0050 1A60     		str	r2, [r3]
 151:/mnt/c/Users/31740/Documents/codes/newcore-rp2350/fs/char_device.c **** 	return cd;
 307              		.loc 1 151 2 is_stmt 1 view .LVU86
 152:/mnt/c/Users/31740/Documents/codes/newcore-rp2350/fs/char_device.c **** }
 308              		.loc 1 152 2 view .LVU87
 309 0052 7047     		bx	lr
 310              	.LVL30:
 311              	.L30:
 312              		.loc 1 153 1 is_stmt 0 view .LVU88
 313 0054 7047     		bx	lr
 314              	.L34:
 315 0056 00BF     		.align	2
 316              	.L33:
 317 0058 11080402 		.word	33818641
 318 005c 00000000 		.word	chrdevs
 319              		.cfi_endproc
 320              	.LFE1035:
 322              		.section	.text.cdev_add,"ax",%progbits
 323              		.align	1
 324              		.global	cdev_add
 325              		.syntax unified
 326              		.thumb
 327              		.thumb_func
 329              	cdev_add:
 330              	.LVL31:
 331              	.LFB1042:
 154:/mnt/c/Users/31740/Documents/codes/newcore-rp2350/fs/char_device.c **** 
 155:/mnt/c/Users/31740/Documents/codes/newcore-rp2350/fs/char_device.c **** 
 156:/mnt/c/Users/31740/Documents/codes/newcore-rp2350/fs/char_device.c **** /**
 157:/mnt/c/Users/31740/Documents/codes/newcore-rp2350/fs/char_device.c ****  * register_chrdev_region() - register a range of device numbers
 158:/mnt/c/Users/31740/Documents/codes/newcore-rp2350/fs/char_device.c ****  * @from: the first in the desired range of device numbers; must include
 159:/mnt/c/Users/31740/Documents/codes/newcore-rp2350/fs/char_device.c ****  *        the major number.
 160:/mnt/c/Users/31740/Documents/codes/newcore-rp2350/fs/char_device.c ****  * @count: the number of consecutive device numbers required
 161:/mnt/c/Users/31740/Documents/codes/newcore-rp2350/fs/char_device.c ****  * @name: the name of the device or driver.
 162:/mnt/c/Users/31740/Documents/codes/newcore-rp2350/fs/char_device.c ****  *
 163:/mnt/c/Users/31740/Documents/codes/newcore-rp2350/fs/char_device.c ****  * Return value is zero on success, a negative error code on failure.
 164:/mnt/c/Users/31740/Documents/codes/newcore-rp2350/fs/char_device.c ****  */
 165:/mnt/c/Users/31740/Documents/codes/newcore-rp2350/fs/char_device.c **** int register_chrdev_region(dev_t from, unsigned count, const char *name)
 166:/mnt/c/Users/31740/Documents/codes/newcore-rp2350/fs/char_device.c **** {
 167:/mnt/c/Users/31740/Documents/codes/newcore-rp2350/fs/char_device.c **** 	struct char_device_struct *cd;
 168:/mnt/c/Users/31740/Documents/codes/newcore-rp2350/fs/char_device.c **** 	dev_t to = from + count;
 169:/mnt/c/Users/31740/Documents/codes/newcore-rp2350/fs/char_device.c **** 	dev_t n, next;
 170:/mnt/c/Users/31740/Documents/codes/newcore-rp2350/fs/char_device.c **** 
 171:/mnt/c/Users/31740/Documents/codes/newcore-rp2350/fs/char_device.c **** 	for (n = from; n < to; n = next) {
 172:/mnt/c/Users/31740/Documents/codes/newcore-rp2350/fs/char_device.c **** 		next = MKDEV(MAJOR(n)+1, 0);
 173:/mnt/c/Users/31740/Documents/codes/newcore-rp2350/fs/char_device.c **** 		if (next > to)
 174:/mnt/c/Users/31740/Documents/codes/newcore-rp2350/fs/char_device.c **** 			next = to;
 175:/mnt/c/Users/31740/Documents/codes/newcore-rp2350/fs/char_device.c **** 		cd = __register_chrdev_region(MAJOR(n), MINOR(n),
 176:/mnt/c/Users/31740/Documents/codes/newcore-rp2350/fs/char_device.c **** 			       next - n, name);
 177:/mnt/c/Users/31740/Documents/codes/newcore-rp2350/fs/char_device.c **** 		if (IS_ERR(cd))
 178:/mnt/c/Users/31740/Documents/codes/newcore-rp2350/fs/char_device.c **** 			goto fail;
 179:/mnt/c/Users/31740/Documents/codes/newcore-rp2350/fs/char_device.c **** 	}
 180:/mnt/c/Users/31740/Documents/codes/newcore-rp2350/fs/char_device.c **** 	return 0;
 181:/mnt/c/Users/31740/Documents/codes/newcore-rp2350/fs/char_device.c **** fail:
 182:/mnt/c/Users/31740/Documents/codes/newcore-rp2350/fs/char_device.c **** 	to = n;
ARM GAS  /tmp/ccZI6Oms.s 			page 11


 183:/mnt/c/Users/31740/Documents/codes/newcore-rp2350/fs/char_device.c **** 	for (n = from; n < to; n = next) {
 184:/mnt/c/Users/31740/Documents/codes/newcore-rp2350/fs/char_device.c **** 		next = MKDEV(MAJOR(n)+1, 0);
 185:/mnt/c/Users/31740/Documents/codes/newcore-rp2350/fs/char_device.c **** 		kfree(__unregister_chrdev_region(MAJOR(n), MINOR(n), next - n));
 186:/mnt/c/Users/31740/Documents/codes/newcore-rp2350/fs/char_device.c **** 	}
 187:/mnt/c/Users/31740/Documents/codes/newcore-rp2350/fs/char_device.c **** 	return PTR_ERR(cd);
 188:/mnt/c/Users/31740/Documents/codes/newcore-rp2350/fs/char_device.c **** }
 189:/mnt/c/Users/31740/Documents/codes/newcore-rp2350/fs/char_device.c **** 
 190:/mnt/c/Users/31740/Documents/codes/newcore-rp2350/fs/char_device.c **** /**
 191:/mnt/c/Users/31740/Documents/codes/newcore-rp2350/fs/char_device.c ****  * alloc_chrdev_region() - register a range of char device numbers
 192:/mnt/c/Users/31740/Documents/codes/newcore-rp2350/fs/char_device.c ****  * @dev: output parameter for first assigned number
 193:/mnt/c/Users/31740/Documents/codes/newcore-rp2350/fs/char_device.c ****  * @baseminor: first of the requested range of minor numbers
 194:/mnt/c/Users/31740/Documents/codes/newcore-rp2350/fs/char_device.c ****  * @count: the number of minor numbers required
 195:/mnt/c/Users/31740/Documents/codes/newcore-rp2350/fs/char_device.c ****  * @name: the name of the associated device or driver
 196:/mnt/c/Users/31740/Documents/codes/newcore-rp2350/fs/char_device.c ****  *
 197:/mnt/c/Users/31740/Documents/codes/newcore-rp2350/fs/char_device.c ****  * Allocates a range of char device numbers.  The major number will be
 198:/mnt/c/Users/31740/Documents/codes/newcore-rp2350/fs/char_device.c ****  * chosen dynamically, and returned (along with the first minor number)
 199:/mnt/c/Users/31740/Documents/codes/newcore-rp2350/fs/char_device.c ****  * in @dev.  Returns zero or a negative error code.
 200:/mnt/c/Users/31740/Documents/codes/newcore-rp2350/fs/char_device.c ****  */
 201:/mnt/c/Users/31740/Documents/codes/newcore-rp2350/fs/char_device.c **** int alloc_chrdev_region(dev_t *dev, unsigned baseminor, unsigned count,
 202:/mnt/c/Users/31740/Documents/codes/newcore-rp2350/fs/char_device.c ****     const char *name)
 203:/mnt/c/Users/31740/Documents/codes/newcore-rp2350/fs/char_device.c **** {
 204:/mnt/c/Users/31740/Documents/codes/newcore-rp2350/fs/char_device.c **** struct char_device_struct *cd;
 205:/mnt/c/Users/31740/Documents/codes/newcore-rp2350/fs/char_device.c **** cd = __register_chrdev_region(0, baseminor, count, name);
 206:/mnt/c/Users/31740/Documents/codes/newcore-rp2350/fs/char_device.c **** if (IS_ERR(cd))
 207:/mnt/c/Users/31740/Documents/codes/newcore-rp2350/fs/char_device.c **** return PTR_ERR(cd);
 208:/mnt/c/Users/31740/Documents/codes/newcore-rp2350/fs/char_device.c **** *dev = MKDEV(cd->major, cd->baseminor);
 209:/mnt/c/Users/31740/Documents/codes/newcore-rp2350/fs/char_device.c **** return 0;
 210:/mnt/c/Users/31740/Documents/codes/newcore-rp2350/fs/char_device.c **** }
 211:/mnt/c/Users/31740/Documents/codes/newcore-rp2350/fs/char_device.c **** 
 212:/mnt/c/Users/31740/Documents/codes/newcore-rp2350/fs/char_device.c **** /**
 213:/mnt/c/Users/31740/Documents/codes/newcore-rp2350/fs/char_device.c ****  * __register_chrdev() - create and register a cdev occupying a range of minors
 214:/mnt/c/Users/31740/Documents/codes/newcore-rp2350/fs/char_device.c ****  * @major: major device number or 0 for dynamic allocation
 215:/mnt/c/Users/31740/Documents/codes/newcore-rp2350/fs/char_device.c ****  * @baseminor: first of the requested range of minor numbers
 216:/mnt/c/Users/31740/Documents/codes/newcore-rp2350/fs/char_device.c ****  * @count: the number of minor numbers required
 217:/mnt/c/Users/31740/Documents/codes/newcore-rp2350/fs/char_device.c ****  * @name: name of this range of devices
 218:/mnt/c/Users/31740/Documents/codes/newcore-rp2350/fs/char_device.c ****  * @fops: file operations associated with this devices
 219:/mnt/c/Users/31740/Documents/codes/newcore-rp2350/fs/char_device.c ****  *
 220:/mnt/c/Users/31740/Documents/codes/newcore-rp2350/fs/char_device.c ****  * If @major == 0 this functions will dynamically allocate a major and return
 221:/mnt/c/Users/31740/Documents/codes/newcore-rp2350/fs/char_device.c ****  * its number.
 222:/mnt/c/Users/31740/Documents/codes/newcore-rp2350/fs/char_device.c ****  *
 223:/mnt/c/Users/31740/Documents/codes/newcore-rp2350/fs/char_device.c ****  * If @major > 0 this function will attempt to reserve a device with the given
 224:/mnt/c/Users/31740/Documents/codes/newcore-rp2350/fs/char_device.c ****  * major number and will return zero on success.
 225:/mnt/c/Users/31740/Documents/codes/newcore-rp2350/fs/char_device.c ****  *
 226:/mnt/c/Users/31740/Documents/codes/newcore-rp2350/fs/char_device.c ****  * Returns a -ve errno on failure.
 227:/mnt/c/Users/31740/Documents/codes/newcore-rp2350/fs/char_device.c ****  *
 228:/mnt/c/Users/31740/Documents/codes/newcore-rp2350/fs/char_device.c ****  * The name of this device has nothing to do with the name of the device in
 229:/mnt/c/Users/31740/Documents/codes/newcore-rp2350/fs/char_device.c ****  * /dev. It only helps to keep track of the different owners of devices. If
 230:/mnt/c/Users/31740/Documents/codes/newcore-rp2350/fs/char_device.c ****  * your module name has only one type of devices it's ok to use e.g. the name
 231:/mnt/c/Users/31740/Documents/codes/newcore-rp2350/fs/char_device.c ****  * of the module here.
 232:/mnt/c/Users/31740/Documents/codes/newcore-rp2350/fs/char_device.c ****  */
 233:/mnt/c/Users/31740/Documents/codes/newcore-rp2350/fs/char_device.c **** int __register_chrdev(unsigned int major, unsigned int baseminor,
 234:/mnt/c/Users/31740/Documents/codes/newcore-rp2350/fs/char_device.c ****     unsigned int count, const char *name,
 235:/mnt/c/Users/31740/Documents/codes/newcore-rp2350/fs/char_device.c ****     const struct file_operations *fops)
 236:/mnt/c/Users/31740/Documents/codes/newcore-rp2350/fs/char_device.c **** {
 237:/mnt/c/Users/31740/Documents/codes/newcore-rp2350/fs/char_device.c ****     struct char_device_struct *cd;
 238:/mnt/c/Users/31740/Documents/codes/newcore-rp2350/fs/char_device.c ****     struct cdev *cdev;
 239:/mnt/c/Users/31740/Documents/codes/newcore-rp2350/fs/char_device.c ****     int err = -ENOMEM;
ARM GAS  /tmp/ccZI6Oms.s 			page 12


 240:/mnt/c/Users/31740/Documents/codes/newcore-rp2350/fs/char_device.c **** 
 241:/mnt/c/Users/31740/Documents/codes/newcore-rp2350/fs/char_device.c ****     cd = __register_chrdev_region(major, baseminor, count, name);
 242:/mnt/c/Users/31740/Documents/codes/newcore-rp2350/fs/char_device.c ****     if (IS_ERR(cd))
 243:/mnt/c/Users/31740/Documents/codes/newcore-rp2350/fs/char_device.c ****     return PTR_ERR(cd);
 244:/mnt/c/Users/31740/Documents/codes/newcore-rp2350/fs/char_device.c **** 
 245:/mnt/c/Users/31740/Documents/codes/newcore-rp2350/fs/char_device.c ****     cdev = cdev_alloc();
 246:/mnt/c/Users/31740/Documents/codes/newcore-rp2350/fs/char_device.c ****     if (!cdev)
 247:/mnt/c/Users/31740/Documents/codes/newcore-rp2350/fs/char_device.c ****     goto out2;
 248:/mnt/c/Users/31740/Documents/codes/newcore-rp2350/fs/char_device.c **** 
 249:/mnt/c/Users/31740/Documents/codes/newcore-rp2350/fs/char_device.c ****     cdev->owner = fops->owner;
 250:/mnt/c/Users/31740/Documents/codes/newcore-rp2350/fs/char_device.c ****     cdev->ops = fops;
 251:/mnt/c/Users/31740/Documents/codes/newcore-rp2350/fs/char_device.c ****     // kobject_set_name(&cdev->kobj, "%s", name);
 252:/mnt/c/Users/31740/Documents/codes/newcore-rp2350/fs/char_device.c **** 
 253:/mnt/c/Users/31740/Documents/codes/newcore-rp2350/fs/char_device.c **** 
 254:/mnt/c/Users/31740/Documents/codes/newcore-rp2350/fs/char_device.c ****     err = cdev_add(cdev, MKDEV(cd->major, baseminor), count);
 255:/mnt/c/Users/31740/Documents/codes/newcore-rp2350/fs/char_device.c ****     if (err)
 256:/mnt/c/Users/31740/Documents/codes/newcore-rp2350/fs/char_device.c ****     goto out;
 257:/mnt/c/Users/31740/Documents/codes/newcore-rp2350/fs/char_device.c **** 
 258:/mnt/c/Users/31740/Documents/codes/newcore-rp2350/fs/char_device.c ****     cd->cdev = cdev;
 259:/mnt/c/Users/31740/Documents/codes/newcore-rp2350/fs/char_device.c **** 
 260:/mnt/c/Users/31740/Documents/codes/newcore-rp2350/fs/char_device.c ****     return major ? 0 : cd->major;
 261:/mnt/c/Users/31740/Documents/codes/newcore-rp2350/fs/char_device.c **** out:
 262:/mnt/c/Users/31740/Documents/codes/newcore-rp2350/fs/char_device.c ****     //kobject_put(&cdev->kobj);
 263:/mnt/c/Users/31740/Documents/codes/newcore-rp2350/fs/char_device.c **** out2:
 264:/mnt/c/Users/31740/Documents/codes/newcore-rp2350/fs/char_device.c ****     kfree(__unregister_chrdev_region(cd->major, baseminor, count));
 265:/mnt/c/Users/31740/Documents/codes/newcore-rp2350/fs/char_device.c ****     return err;
 266:/mnt/c/Users/31740/Documents/codes/newcore-rp2350/fs/char_device.c **** }
 267:/mnt/c/Users/31740/Documents/codes/newcore-rp2350/fs/char_device.c **** 
 268:/mnt/c/Users/31740/Documents/codes/newcore-rp2350/fs/char_device.c **** /**
 269:/mnt/c/Users/31740/Documents/codes/newcore-rp2350/fs/char_device.c ****  * unregister_chrdev_region() - unregister a range of device numbers
 270:/mnt/c/Users/31740/Documents/codes/newcore-rp2350/fs/char_device.c ****  * @from: the first in the range of numbers to unregister
 271:/mnt/c/Users/31740/Documents/codes/newcore-rp2350/fs/char_device.c ****  * @count: the number of device numbers to unregister
 272:/mnt/c/Users/31740/Documents/codes/newcore-rp2350/fs/char_device.c ****  *
 273:/mnt/c/Users/31740/Documents/codes/newcore-rp2350/fs/char_device.c ****  * This function will unregister a range of @count device numbers,
 274:/mnt/c/Users/31740/Documents/codes/newcore-rp2350/fs/char_device.c ****  * starting with @from.  The caller should normally be the one who
 275:/mnt/c/Users/31740/Documents/codes/newcore-rp2350/fs/char_device.c ****  * allocated those numbers in the first place...
 276:/mnt/c/Users/31740/Documents/codes/newcore-rp2350/fs/char_device.c ****  */
 277:/mnt/c/Users/31740/Documents/codes/newcore-rp2350/fs/char_device.c **** void unregister_chrdev_region(dev_t from, unsigned count)
 278:/mnt/c/Users/31740/Documents/codes/newcore-rp2350/fs/char_device.c **** {
 279:/mnt/c/Users/31740/Documents/codes/newcore-rp2350/fs/char_device.c **** 	dev_t to = from + count;
 280:/mnt/c/Users/31740/Documents/codes/newcore-rp2350/fs/char_device.c **** 	dev_t n, next;
 281:/mnt/c/Users/31740/Documents/codes/newcore-rp2350/fs/char_device.c **** 
 282:/mnt/c/Users/31740/Documents/codes/newcore-rp2350/fs/char_device.c **** 	for (n = from; n < to; n = next) {
 283:/mnt/c/Users/31740/Documents/codes/newcore-rp2350/fs/char_device.c **** 		next = MKDEV(MAJOR(n)+1, 0);
 284:/mnt/c/Users/31740/Documents/codes/newcore-rp2350/fs/char_device.c **** 		if (next > to)
 285:/mnt/c/Users/31740/Documents/codes/newcore-rp2350/fs/char_device.c **** 			next = to;
 286:/mnt/c/Users/31740/Documents/codes/newcore-rp2350/fs/char_device.c **** 		kfree(__unregister_chrdev_region(MAJOR(n), MINOR(n), next - n));
 287:/mnt/c/Users/31740/Documents/codes/newcore-rp2350/fs/char_device.c **** 	}
 288:/mnt/c/Users/31740/Documents/codes/newcore-rp2350/fs/char_device.c **** }
 289:/mnt/c/Users/31740/Documents/codes/newcore-rp2350/fs/char_device.c **** 
 290:/mnt/c/Users/31740/Documents/codes/newcore-rp2350/fs/char_device.c **** /**
 291:/mnt/c/Users/31740/Documents/codes/newcore-rp2350/fs/char_device.c ****  * __unregister_chrdev - unregister and destroy a cdev
 292:/mnt/c/Users/31740/Documents/codes/newcore-rp2350/fs/char_device.c ****  * @major: major device number
 293:/mnt/c/Users/31740/Documents/codes/newcore-rp2350/fs/char_device.c ****  * @baseminor: first of the range of minor numbers
 294:/mnt/c/Users/31740/Documents/codes/newcore-rp2350/fs/char_device.c ****  * @count: the number of minor numbers this cdev is occupying
 295:/mnt/c/Users/31740/Documents/codes/newcore-rp2350/fs/char_device.c ****  * @name: name of this range of devices
 296:/mnt/c/Users/31740/Documents/codes/newcore-rp2350/fs/char_device.c ****  *
ARM GAS  /tmp/ccZI6Oms.s 			page 13


 297:/mnt/c/Users/31740/Documents/codes/newcore-rp2350/fs/char_device.c ****  * Unregister and destroy the cdev occupying the region described by
 298:/mnt/c/Users/31740/Documents/codes/newcore-rp2350/fs/char_device.c ****  * @major, @baseminor and @count.  This function undoes what
 299:/mnt/c/Users/31740/Documents/codes/newcore-rp2350/fs/char_device.c ****  * __register_chrdev() did.
 300:/mnt/c/Users/31740/Documents/codes/newcore-rp2350/fs/char_device.c ****  */
 301:/mnt/c/Users/31740/Documents/codes/newcore-rp2350/fs/char_device.c **** void __unregister_chrdev(unsigned int major, unsigned int baseminor,
 302:/mnt/c/Users/31740/Documents/codes/newcore-rp2350/fs/char_device.c ****     unsigned int count, const char *name)
 303:/mnt/c/Users/31740/Documents/codes/newcore-rp2350/fs/char_device.c **** {
 304:/mnt/c/Users/31740/Documents/codes/newcore-rp2350/fs/char_device.c **** struct char_device_struct *cd;
 305:/mnt/c/Users/31740/Documents/codes/newcore-rp2350/fs/char_device.c **** 
 306:/mnt/c/Users/31740/Documents/codes/newcore-rp2350/fs/char_device.c **** cd = __unregister_chrdev_region(major, baseminor, count);
 307:/mnt/c/Users/31740/Documents/codes/newcore-rp2350/fs/char_device.c **** if (cd && cd->cdev)
 308:/mnt/c/Users/31740/Documents/codes/newcore-rp2350/fs/char_device.c **** cdev_del(cd->cdev);
 309:/mnt/c/Users/31740/Documents/codes/newcore-rp2350/fs/char_device.c **** kfree(cd);
 310:/mnt/c/Users/31740/Documents/codes/newcore-rp2350/fs/char_device.c **** }
 311:/mnt/c/Users/31740/Documents/codes/newcore-rp2350/fs/char_device.c **** 
 312:/mnt/c/Users/31740/Documents/codes/newcore-rp2350/fs/char_device.c **** 
 313:/mnt/c/Users/31740/Documents/codes/newcore-rp2350/fs/char_device.c **** 
 314:/mnt/c/Users/31740/Documents/codes/newcore-rp2350/fs/char_device.c **** 
 315:/mnt/c/Users/31740/Documents/codes/newcore-rp2350/fs/char_device.c **** void cdev_put(struct cdev *p)
 316:/mnt/c/Users/31740/Documents/codes/newcore-rp2350/fs/char_device.c **** {
 317:/mnt/c/Users/31740/Documents/codes/newcore-rp2350/fs/char_device.c **** 	if (p) {
 318:/mnt/c/Users/31740/Documents/codes/newcore-rp2350/fs/char_device.c **** 		struct module *owner = p->owner;
 319:/mnt/c/Users/31740/Documents/codes/newcore-rp2350/fs/char_device.c **** 		//kobject_put(&p->kobj);
 320:/mnt/c/Users/31740/Documents/codes/newcore-rp2350/fs/char_device.c **** 		//module_put(owner);
 321:/mnt/c/Users/31740/Documents/codes/newcore-rp2350/fs/char_device.c **** 	}
 322:/mnt/c/Users/31740/Documents/codes/newcore-rp2350/fs/char_device.c **** }
 323:/mnt/c/Users/31740/Documents/codes/newcore-rp2350/fs/char_device.c **** 
 324:/mnt/c/Users/31740/Documents/codes/newcore-rp2350/fs/char_device.c **** 
 325:/mnt/c/Users/31740/Documents/codes/newcore-rp2350/fs/char_device.c **** /**
 326:/mnt/c/Users/31740/Documents/codes/newcore-rp2350/fs/char_device.c ****  * cdev_add() - add a char device to the system
 327:/mnt/c/Users/31740/Documents/codes/newcore-rp2350/fs/char_device.c ****  * @p: the cdev structure for the device
 328:/mnt/c/Users/31740/Documents/codes/newcore-rp2350/fs/char_device.c ****  * @dev: the first device number for which this device is responsible
 329:/mnt/c/Users/31740/Documents/codes/newcore-rp2350/fs/char_device.c ****  * @count: the number of consecutive minor numbers corresponding to this
 330:/mnt/c/Users/31740/Documents/codes/newcore-rp2350/fs/char_device.c ****  *         device
 331:/mnt/c/Users/31740/Documents/codes/newcore-rp2350/fs/char_device.c ****  *
 332:/mnt/c/Users/31740/Documents/codes/newcore-rp2350/fs/char_device.c ****  * cdev_add() adds the device represented by @p to the system, making it
 333:/mnt/c/Users/31740/Documents/codes/newcore-rp2350/fs/char_device.c ****  * live immediately.  A negative error code is returned on failure.
 334:/mnt/c/Users/31740/Documents/codes/newcore-rp2350/fs/char_device.c ****  */
 335:/mnt/c/Users/31740/Documents/codes/newcore-rp2350/fs/char_device.c **** int cdev_add(struct cdev *p, dev_t dev, unsigned count)
 336:/mnt/c/Users/31740/Documents/codes/newcore-rp2350/fs/char_device.c **** {
 332              		.loc 1 336 1 is_stmt 1 view -0
 333              		.cfi_startproc
 334              		@ args = 0, pretend = 0, frame = 0
 335              		@ frame_needed = 0, uses_anonymous_args = 0
 336              		@ link register save eliminated.
 337:/mnt/c/Users/31740/Documents/codes/newcore-rp2350/fs/char_device.c **** 	int error;
 337              		.loc 1 337 2 view .LVU90
 338:/mnt/c/Users/31740/Documents/codes/newcore-rp2350/fs/char_device.c **** 
 339:/mnt/c/Users/31740/Documents/codes/newcore-rp2350/fs/char_device.c **** 	p->dev = dev;
 338              		.loc 1 339 2 view .LVU91
 339              		.loc 1 339 9 is_stmt 0 view .LVU92
 340 0000 0161     		str	r1, [r0, #16]
 340:/mnt/c/Users/31740/Documents/codes/newcore-rp2350/fs/char_device.c **** 	p->count = count;
 341              		.loc 1 340 2 is_stmt 1 view .LVU93
 342              		.loc 1 340 11 is_stmt 0 view .LVU94
 343 0002 4261     		str	r2, [r0, #20]
 341:/mnt/c/Users/31740/Documents/codes/newcore-rp2350/fs/char_device.c **** 
ARM GAS  /tmp/ccZI6Oms.s 			page 14


 342:/mnt/c/Users/31740/Documents/codes/newcore-rp2350/fs/char_device.c **** 	// if (WARN_ON(dev == WHITEOUT_DEV)) {
 343:/mnt/c/Users/31740/Documents/codes/newcore-rp2350/fs/char_device.c **** 	// 	error = -EBUSY;
 344:/mnt/c/Users/31740/Documents/codes/newcore-rp2350/fs/char_device.c **** 	// 	return error;
 345:/mnt/c/Users/31740/Documents/codes/newcore-rp2350/fs/char_device.c ****     //     goto err;
 346:/mnt/c/Users/31740/Documents/codes/newcore-rp2350/fs/char_device.c **** 	// }
 347:/mnt/c/Users/31740/Documents/codes/newcore-rp2350/fs/char_device.c **** 
 348:/mnt/c/Users/31740/Documents/codes/newcore-rp2350/fs/char_device.c **** 	// error = kobj_map(cdev_map, dev, count, NULL,
 349:/mnt/c/Users/31740/Documents/codes/newcore-rp2350/fs/char_device.c **** 	// 		 exact_match, exact_lock, p);
 350:/mnt/c/Users/31740/Documents/codes/newcore-rp2350/fs/char_device.c **** 	// if (error)
 351:/mnt/c/Users/31740/Documents/codes/newcore-rp2350/fs/char_device.c **** 	// 	goto err;
 352:/mnt/c/Users/31740/Documents/codes/newcore-rp2350/fs/char_device.c **** 
 353:/mnt/c/Users/31740/Documents/codes/newcore-rp2350/fs/char_device.c **** 	// kobject_get(p->kobj.parent);
 354:/mnt/c/Users/31740/Documents/codes/newcore-rp2350/fs/char_device.c **** 
 355:/mnt/c/Users/31740/Documents/codes/newcore-rp2350/fs/char_device.c **** 	return 0;
 344              		.loc 1 355 2 is_stmt 1 view .LVU95
 356:/mnt/c/Users/31740/Documents/codes/newcore-rp2350/fs/char_device.c **** 
 357:/mnt/c/Users/31740/Documents/codes/newcore-rp2350/fs/char_device.c **** // err:
 358:/mnt/c/Users/31740/Documents/codes/newcore-rp2350/fs/char_device.c **** // 	kfree_const(p->kobj.name);
 359:/mnt/c/Users/31740/Documents/codes/newcore-rp2350/fs/char_device.c **** // 	p->kobj.name = NULL;
 360:/mnt/c/Users/31740/Documents/codes/newcore-rp2350/fs/char_device.c **** // 	return error;
 361:/mnt/c/Users/31740/Documents/codes/newcore-rp2350/fs/char_device.c **** }
 345              		.loc 1 361 1 is_stmt 0 view .LVU96
 346 0004 0020     		movs	r0, #0
 347              	.LVL32:
 348              		.loc 1 361 1 view .LVU97
 349 0006 7047     		bx	lr
 350              		.cfi_endproc
 351              	.LFE1042:
 353              		.section	.text.find_chrdev,"ax",%progbits
 354              		.align	1
 355              		.global	find_chrdev
 356              		.syntax unified
 357              		.thumb
 358              		.thumb_func
 360              	find_chrdev:
 361              	.LVL33:
 362              	.LFB1046:
 362:/mnt/c/Users/31740/Documents/codes/newcore-rp2350/fs/char_device.c **** 
 363:/mnt/c/Users/31740/Documents/codes/newcore-rp2350/fs/char_device.c **** 
 364:/mnt/c/Users/31740/Documents/codes/newcore-rp2350/fs/char_device.c **** 
 365:/mnt/c/Users/31740/Documents/codes/newcore-rp2350/fs/char_device.c **** 
 366:/mnt/c/Users/31740/Documents/codes/newcore-rp2350/fs/char_device.c **** 
 367:/mnt/c/Users/31740/Documents/codes/newcore-rp2350/fs/char_device.c **** /**
 368:/mnt/c/Users/31740/Documents/codes/newcore-rp2350/fs/char_device.c ****  * cdev_alloc() - allocate a cdev structure
 369:/mnt/c/Users/31740/Documents/codes/newcore-rp2350/fs/char_device.c ****  *
 370:/mnt/c/Users/31740/Documents/codes/newcore-rp2350/fs/char_device.c ****  * Allocates and returns a cdev structure, or NULL on failure.
 371:/mnt/c/Users/31740/Documents/codes/newcore-rp2350/fs/char_device.c ****  */
 372:/mnt/c/Users/31740/Documents/codes/newcore-rp2350/fs/char_device.c **** struct cdev *cdev_alloc(void)
 373:/mnt/c/Users/31740/Documents/codes/newcore-rp2350/fs/char_device.c **** {
 374:/mnt/c/Users/31740/Documents/codes/newcore-rp2350/fs/char_device.c **** 	struct cdev *p = kzalloc(sizeof(struct cdev), GFP_KERNEL);
 375:/mnt/c/Users/31740/Documents/codes/newcore-rp2350/fs/char_device.c **** 	if (p) {
 376:/mnt/c/Users/31740/Documents/codes/newcore-rp2350/fs/char_device.c **** 		INIT_LIST_HEAD(&p->list);
 377:/mnt/c/Users/31740/Documents/codes/newcore-rp2350/fs/char_device.c **** 		// kobject_init(&p->kobj, &ktype_cdev_dynamic);
 378:/mnt/c/Users/31740/Documents/codes/newcore-rp2350/fs/char_device.c **** 	}
 379:/mnt/c/Users/31740/Documents/codes/newcore-rp2350/fs/char_device.c **** 	return p;
 380:/mnt/c/Users/31740/Documents/codes/newcore-rp2350/fs/char_device.c **** } 
 381:/mnt/c/Users/31740/Documents/codes/newcore-rp2350/fs/char_device.c **** 
ARM GAS  /tmp/ccZI6Oms.s 			page 15


 382:/mnt/c/Users/31740/Documents/codes/newcore-rp2350/fs/char_device.c **** /**
 383:/mnt/c/Users/31740/Documents/codes/newcore-rp2350/fs/char_device.c ****  * cdev_init() - initialize a cdev structure
 384:/mnt/c/Users/31740/Documents/codes/newcore-rp2350/fs/char_device.c ****  * @cdev: the structure to initialize
 385:/mnt/c/Users/31740/Documents/codes/newcore-rp2350/fs/char_device.c ****  * @fops: the file_operations for this device
 386:/mnt/c/Users/31740/Documents/codes/newcore-rp2350/fs/char_device.c ****  *
 387:/mnt/c/Users/31740/Documents/codes/newcore-rp2350/fs/char_device.c ****  * Initializes @cdev, remembering @fops, making it ready to add to the
 388:/mnt/c/Users/31740/Documents/codes/newcore-rp2350/fs/char_device.c ****  * system with cdev_add().
 389:/mnt/c/Users/31740/Documents/codes/newcore-rp2350/fs/char_device.c ****  */
 390:/mnt/c/Users/31740/Documents/codes/newcore-rp2350/fs/char_device.c **** void cdev_init(struct cdev *cdev, const struct file_operations *fops)
 391:/mnt/c/Users/31740/Documents/codes/newcore-rp2350/fs/char_device.c **** {
 392:/mnt/c/Users/31740/Documents/codes/newcore-rp2350/fs/char_device.c **** 	memset(cdev, 0, sizeof *cdev);
 393:/mnt/c/Users/31740/Documents/codes/newcore-rp2350/fs/char_device.c **** 	INIT_LIST_HEAD(&cdev->list);
 394:/mnt/c/Users/31740/Documents/codes/newcore-rp2350/fs/char_device.c **** 	// kobject_init(&cdev->kobj, &ktype_cdev_default);
 395:/mnt/c/Users/31740/Documents/codes/newcore-rp2350/fs/char_device.c **** 	cdev->ops = fops;
 396:/mnt/c/Users/31740/Documents/codes/newcore-rp2350/fs/char_device.c **** }
 397:/mnt/c/Users/31740/Documents/codes/newcore-rp2350/fs/char_device.c **** 
 398:/mnt/c/Users/31740/Documents/codes/newcore-rp2350/fs/char_device.c **** 
 399:/mnt/c/Users/31740/Documents/codes/newcore-rp2350/fs/char_device.c **** /**
 400:/mnt/c/Users/31740/Documents/codes/newcore-rp2350/fs/char_device.c ****  * cdev_del() - remove a cdev from the system
 401:/mnt/c/Users/31740/Documents/codes/newcore-rp2350/fs/char_device.c ****  * @p: the cdev structure to be removed
 402:/mnt/c/Users/31740/Documents/codes/newcore-rp2350/fs/char_device.c ****  *
 403:/mnt/c/Users/31740/Documents/codes/newcore-rp2350/fs/char_device.c ****  * cdev_del() removes @p from the system, possibly freeing the structure
 404:/mnt/c/Users/31740/Documents/codes/newcore-rp2350/fs/char_device.c ****  * itself.
 405:/mnt/c/Users/31740/Documents/codes/newcore-rp2350/fs/char_device.c ****  *
 406:/mnt/c/Users/31740/Documents/codes/newcore-rp2350/fs/char_device.c ****  * NOTE: This guarantees that cdev device will no longer be able to be
 407:/mnt/c/Users/31740/Documents/codes/newcore-rp2350/fs/char_device.c ****  * opened, however any cdevs already open will remain and their fops will
 408:/mnt/c/Users/31740/Documents/codes/newcore-rp2350/fs/char_device.c ****  * still be callable even after cdev_del returns.
 409:/mnt/c/Users/31740/Documents/codes/newcore-rp2350/fs/char_device.c ****  */
 410:/mnt/c/Users/31740/Documents/codes/newcore-rp2350/fs/char_device.c **** void cdev_del(struct cdev *p)
 411:/mnt/c/Users/31740/Documents/codes/newcore-rp2350/fs/char_device.c **** {
 412:/mnt/c/Users/31740/Documents/codes/newcore-rp2350/fs/char_device.c ****     kfree(p);
 413:/mnt/c/Users/31740/Documents/codes/newcore-rp2350/fs/char_device.c ****     // cdev_unmap(p->dev, p->count);
 414:/mnt/c/Users/31740/Documents/codes/newcore-rp2350/fs/char_device.c **** 	// kobject_put(&p->kobj);
 415:/mnt/c/Users/31740/Documents/codes/newcore-rp2350/fs/char_device.c **** }
 416:/mnt/c/Users/31740/Documents/codes/newcore-rp2350/fs/char_device.c **** 
 417:/mnt/c/Users/31740/Documents/codes/newcore-rp2350/fs/char_device.c **** 
 418:/mnt/c/Users/31740/Documents/codes/newcore-rp2350/fs/char_device.c **** 
 419:/mnt/c/Users/31740/Documents/codes/newcore-rp2350/fs/char_device.c **** 
 420:/mnt/c/Users/31740/Documents/codes/newcore-rp2350/fs/char_device.c **** 
 421:/mnt/c/Users/31740/Documents/codes/newcore-rp2350/fs/char_device.c **** struct file_operations *find_chrdev(unsigned int major, unsigned int minor)
 422:/mnt/c/Users/31740/Documents/codes/newcore-rp2350/fs/char_device.c **** {
 363              		.loc 1 422 1 is_stmt 1 view -0
 364              		.cfi_startproc
 365              		@ args = 0, pretend = 0, frame = 0
 366              		@ frame_needed = 0, uses_anonymous_args = 0
 367              		@ link register save eliminated.
 368              		.loc 1 422 1 is_stmt 0 view .LVU99
 369 0000 0246     		mov	r2, r0
 423:/mnt/c/Users/31740/Documents/codes/newcore-rp2350/fs/char_device.c **** 	int i = major_to_index(major);
 370              		.loc 1 423 2 is_stmt 1 view .LVU100
 371              	.LVL34:
 372              	.LBB72:
 373              	.LBI72:
  32:/mnt/c/Users/31740/Documents/codes/newcore-rp2350/fs/char_device.c **** {
 374              		.loc 1 32 19 view .LVU101
 375              	.LBB73:
  34:/mnt/c/Users/31740/Documents/codes/newcore-rp2350/fs/char_device.c **** }
ARM GAS  /tmp/ccZI6Oms.s 			page 16


 376              		.loc 1 34 2 view .LVU102
  34:/mnt/c/Users/31740/Documents/codes/newcore-rp2350/fs/char_device.c **** }
 377              		.loc 1 34 15 is_stmt 0 view .LVU103
 378 0002 154B     		ldr	r3, .L51
 379 0004 A3FB0203 		umull	r0, r3, r3, r2
 380              	.LVL35:
  34:/mnt/c/Users/31740/Documents/codes/newcore-rp2350/fs/char_device.c **** }
 381              		.loc 1 34 15 view .LVU104
 382 0008 D01A     		subs	r0, r2, r3
 383 000a 03EB5003 		add	r3, r3, r0, lsr #1
 384 000e 9B09     		lsrs	r3, r3, #6
 385 0010 C3EBC313 		rsb	r3, r3, r3, lsl #7
 386 0014 D31A     		subs	r3, r2, r3
 387              	.LVL36:
  34:/mnt/c/Users/31740/Documents/codes/newcore-rp2350/fs/char_device.c **** }
 388              		.loc 1 34 15 view .LVU105
 389              	.LBE73:
 390              	.LBE72:
 424:/mnt/c/Users/31740/Documents/codes/newcore-rp2350/fs/char_device.c **** 	struct char_device_struct *cd;
 391              		.loc 1 424 2 is_stmt 1 view .LVU106
 425:/mnt/c/Users/31740/Documents/codes/newcore-rp2350/fs/char_device.c **** 
 426:/mnt/c/Users/31740/Documents/codes/newcore-rp2350/fs/char_device.c **** 	mutex_lock(&chrdevs_lock);
 392              		.loc 1 426 2 view .LVU107
 427:/mnt/c/Users/31740/Documents/codes/newcore-rp2350/fs/char_device.c **** 	for (cd = chrdevs[i]; cd; cd = cd->next) {
 393              		.loc 1 427 2 view .LVU108
 394              		.loc 1 427 10 is_stmt 0 view .LVU109
 395 0016 1148     		ldr	r0, .L51+4
 396 0018 50F82300 		ldr	r0, [r0, r3, lsl #2]
 397              	.LVL37:
 398              		.loc 1 427 2 view .LVU110
 399 001c 05E0     		b	.L42
 400              	.LVL38:
 401              	.L50:
 402              	.LCFI5:
 403              		.cfi_def_cfa_offset 4
 404              		.cfi_offset 4, -4
 428:/mnt/c/Users/31740/Documents/codes/newcore-rp2350/fs/char_device.c **** 		if (cd->major != major)
 429:/mnt/c/Users/31740/Documents/codes/newcore-rp2350/fs/char_device.c **** 			continue;
 430:/mnt/c/Users/31740/Documents/codes/newcore-rp2350/fs/char_device.c **** 		if (cd->baseminor <= minor && minor < cd->baseminor + cd->minorct) {
 431:/mnt/c/Users/31740/Documents/codes/newcore-rp2350/fs/char_device.c **** 			mutex_unlock(&chrdevs_lock);
 405              		.loc 1 431 4 is_stmt 1 view .LVU111
 432:/mnt/c/Users/31740/Documents/codes/newcore-rp2350/fs/char_device.c **** 			return cd->cdev->ops;
 406              		.loc 1 432 4 view .LVU112
 407              		.loc 1 432 13 is_stmt 0 view .LVU113
 408 001e 036D     		ldr	r3, [r0, #80]
 409              		.loc 1 432 19 view .LVU114
 410 0020 5868     		ldr	r0, [r3, #4]
 411              	.LVL39:
 412              	.L36:
 433:/mnt/c/Users/31740/Documents/codes/newcore-rp2350/fs/char_device.c **** 		}
 434:/mnt/c/Users/31740/Documents/codes/newcore-rp2350/fs/char_device.c **** 	}
 435:/mnt/c/Users/31740/Documents/codes/newcore-rp2350/fs/char_device.c **** 	mutex_unlock(&chrdevs_lock);
 436:/mnt/c/Users/31740/Documents/codes/newcore-rp2350/fs/char_device.c **** 	return NULL;
 437:/mnt/c/Users/31740/Documents/codes/newcore-rp2350/fs/char_device.c **** }
 413              		.loc 1 437 1 view .LVU115
 414 0022 5DF8044B 		ldr	r4, [sp], #4
 415              	.LCFI6:
ARM GAS  /tmp/ccZI6Oms.s 			page 17


 416              		.cfi_restore 4
 417              		.cfi_def_cfa_offset 0
 418 0026 7047     		bx	lr
 419              	.LVL40:
 420              	.L43:
 427:/mnt/c/Users/31740/Documents/codes/newcore-rp2350/fs/char_device.c **** 		if (cd->major != major)
 421              		.loc 1 427 31 is_stmt 1 discriminator 2 view .LVU116
 422 0028 0068     		ldr	r0, [r0]
 423              	.LVL41:
 424              	.L42:
 427:/mnt/c/Users/31740/Documents/codes/newcore-rp2350/fs/char_device.c **** 		if (cd->major != major)
 425              		.loc 1 427 24 discriminator 1 view .LVU117
 426 002a A0B1     		cbz	r0, .L49
 428:/mnt/c/Users/31740/Documents/codes/newcore-rp2350/fs/char_device.c **** 			continue;
 427              		.loc 1 428 3 view .LVU118
 428:/mnt/c/Users/31740/Documents/codes/newcore-rp2350/fs/char_device.c **** 			continue;
 428              		.loc 1 428 9 is_stmt 0 view .LVU119
 429 002c 4368     		ldr	r3, [r0, #4]
 428:/mnt/c/Users/31740/Documents/codes/newcore-rp2350/fs/char_device.c **** 			continue;
 430              		.loc 1 428 6 view .LVU120
 431 002e 9342     		cmp	r3, r2
 432 0030 FAD1     		bne	.L43
 430:/mnt/c/Users/31740/Documents/codes/newcore-rp2350/fs/char_device.c **** 			mutex_unlock(&chrdevs_lock);
 433              		.loc 1 430 3 is_stmt 1 view .LVU121
 430:/mnt/c/Users/31740/Documents/codes/newcore-rp2350/fs/char_device.c **** 			mutex_unlock(&chrdevs_lock);
 434              		.loc 1 430 9 is_stmt 0 view .LVU122
 435 0032 8368     		ldr	r3, [r0, #8]
 430:/mnt/c/Users/31740/Documents/codes/newcore-rp2350/fs/char_device.c **** 			mutex_unlock(&chrdevs_lock);
 436              		.loc 1 430 6 view .LVU123
 437 0034 8B42     		cmp	r3, r1
 438 0036 F7D8     		bhi	.L43
 422:/mnt/c/Users/31740/Documents/codes/newcore-rp2350/fs/char_device.c **** 	int i = major_to_index(major);
 439              		.loc 1 422 1 view .LVU124
 440 0038 10B4     		push	{r4}
 441              	.LCFI7:
 442              		.cfi_def_cfa_offset 4
 443              		.cfi_offset 4, -4
 444              	.L45:
 430:/mnt/c/Users/31740/Documents/codes/newcore-rp2350/fs/char_device.c **** 			mutex_unlock(&chrdevs_lock);
 445              		.loc 1 430 55 discriminator 1 view .LVU125
 446 003a C468     		ldr	r4, [r0, #12]
 447 003c 2344     		add	r3, r3, r4
 430:/mnt/c/Users/31740/Documents/codes/newcore-rp2350/fs/char_device.c **** 			mutex_unlock(&chrdevs_lock);
 448              		.loc 1 430 30 discriminator 1 view .LVU126
 449 003e 8B42     		cmp	r3, r1
 450 0040 EDD8     		bhi	.L50
 451              	.L38:
 427:/mnt/c/Users/31740/Documents/codes/newcore-rp2350/fs/char_device.c **** 		if (cd->major != major)
 452              		.loc 1 427 31 is_stmt 1 discriminator 2 view .LVU127
 453 0042 0068     		ldr	r0, [r0]
 454              	.LVL42:
 427:/mnt/c/Users/31740/Documents/codes/newcore-rp2350/fs/char_device.c **** 		if (cd->major != major)
 455              		.loc 1 427 24 discriminator 1 view .LVU128
 456 0044 0028     		cmp	r0, #0
 457 0046 ECD0     		beq	.L36
 428:/mnt/c/Users/31740/Documents/codes/newcore-rp2350/fs/char_device.c **** 			continue;
 458              		.loc 1 428 3 view .LVU129
ARM GAS  /tmp/ccZI6Oms.s 			page 18


 428:/mnt/c/Users/31740/Documents/codes/newcore-rp2350/fs/char_device.c **** 			continue;
 459              		.loc 1 428 9 is_stmt 0 view .LVU130
 460 0048 4368     		ldr	r3, [r0, #4]
 428:/mnt/c/Users/31740/Documents/codes/newcore-rp2350/fs/char_device.c **** 			continue;
 461              		.loc 1 428 6 view .LVU131
 462 004a 9342     		cmp	r3, r2
 463 004c F9D1     		bne	.L38
 430:/mnt/c/Users/31740/Documents/codes/newcore-rp2350/fs/char_device.c **** 			mutex_unlock(&chrdevs_lock);
 464              		.loc 1 430 3 is_stmt 1 view .LVU132
 430:/mnt/c/Users/31740/Documents/codes/newcore-rp2350/fs/char_device.c **** 			mutex_unlock(&chrdevs_lock);
 465              		.loc 1 430 9 is_stmt 0 view .LVU133
 466 004e 8368     		ldr	r3, [r0, #8]
 430:/mnt/c/Users/31740/Documents/codes/newcore-rp2350/fs/char_device.c **** 			mutex_unlock(&chrdevs_lock);
 467              		.loc 1 430 6 view .LVU134
 468 0050 8B42     		cmp	r3, r1
 469 0052 F6D8     		bhi	.L38
 470 0054 F1E7     		b	.L45
 471              	.L49:
 472              	.LCFI8:
 473              		.cfi_def_cfa_offset 0
 474              		.cfi_restore 4
 430:/mnt/c/Users/31740/Documents/codes/newcore-rp2350/fs/char_device.c **** 			mutex_unlock(&chrdevs_lock);
 475              		.loc 1 430 6 view .LVU135
 476 0056 7047     		bx	lr
 477              	.L52:
 478              		.align	2
 479              	.L51:
 480 0058 11080402 		.word	33818641
 481 005c 00000000 		.word	chrdevs
 482              		.cfi_endproc
 483              	.LFE1046:
 485              		.section	.text.kzalloc,"ax",%progbits
 486              		.align	1
 487              		.syntax unified
 488              		.thumb
 489              		.thumb_func
 491              	kzalloc:
 492              	.LVL43:
 493              	.LFB329:
 494              		.file 3 "/mnt/c/Users/31740/Documents/codes/newcore-rp2350/include/linux/slab.h"
   1:/mnt/c/Users/31740/Documents/codes/newcore-rp2350/include/linux/slab.h **** /* SPDX-License-Identifier: GPL-2.0 */
   2:/mnt/c/Users/31740/Documents/codes/newcore-rp2350/include/linux/slab.h **** /*
   3:/mnt/c/Users/31740/Documents/codes/newcore-rp2350/include/linux/slab.h ****  * Written by Mark Hemment, 1996 (markhe@nextd.demon.co.uk).
   4:/mnt/c/Users/31740/Documents/codes/newcore-rp2350/include/linux/slab.h ****  *
   5:/mnt/c/Users/31740/Documents/codes/newcore-rp2350/include/linux/slab.h ****  * (C) SGI 2006, Christoph Lameter
   6:/mnt/c/Users/31740/Documents/codes/newcore-rp2350/include/linux/slab.h ****  * 	Cleaned up and restructured to ease the addition of alternative
   7:/mnt/c/Users/31740/Documents/codes/newcore-rp2350/include/linux/slab.h ****  * 	implementations of SLAB allocators.
   8:/mnt/c/Users/31740/Documents/codes/newcore-rp2350/include/linux/slab.h ****  * (C) Linux Foundation 2008-2013
   9:/mnt/c/Users/31740/Documents/codes/newcore-rp2350/include/linux/slab.h ****  *      Unified interface for all slab allocators
  10:/mnt/c/Users/31740/Documents/codes/newcore-rp2350/include/linux/slab.h ****  */
  11:/mnt/c/Users/31740/Documents/codes/newcore-rp2350/include/linux/slab.h **** 
  12:/mnt/c/Users/31740/Documents/codes/newcore-rp2350/include/linux/slab.h **** #ifndef _LINUX_SLAB_H
  13:/mnt/c/Users/31740/Documents/codes/newcore-rp2350/include/linux/slab.h **** #define	_LINUX_SLAB_H
  14:/mnt/c/Users/31740/Documents/codes/newcore-rp2350/include/linux/slab.h **** 
  15:/mnt/c/Users/31740/Documents/codes/newcore-rp2350/include/linux/slab.h **** #include <linux/cache.h>
  16:/mnt/c/Users/31740/Documents/codes/newcore-rp2350/include/linux/slab.h **** #include <linux/overflow.h>
  17:/mnt/c/Users/31740/Documents/codes/newcore-rp2350/include/linux/slab.h **** #include <linux/types.h>
ARM GAS  /tmp/ccZI6Oms.s 			page 19


  18:/mnt/c/Users/31740/Documents/codes/newcore-rp2350/include/linux/slab.h **** #include <linux/raid/pq.h>
  19:/mnt/c/Users/31740/Documents/codes/newcore-rp2350/include/linux/slab.h **** #include <linux/gfp_types.h>
  20:/mnt/c/Users/31740/Documents/codes/newcore-rp2350/include/linux/slab.h **** #include <linux/numa.h>
  21:/mnt/c/Users/31740/Documents/codes/newcore-rp2350/include/linux/slab.h **** #include <linux/reciprocal_div.h>
  22:/mnt/c/Users/31740/Documents/codes/newcore-rp2350/include/linux/slab.h **** #include <linux/spinlock.h>
  23:/mnt/c/Users/31740/Documents/codes/newcore-rp2350/include/linux/slab.h **** 
  24:/mnt/c/Users/31740/Documents/codes/newcore-rp2350/include/linux/slab.h **** enum _slab_flag_bits {
  25:/mnt/c/Users/31740/Documents/codes/newcore-rp2350/include/linux/slab.h **** 	_SLAB_CONSISTENCY_CHECKS,
  26:/mnt/c/Users/31740/Documents/codes/newcore-rp2350/include/linux/slab.h **** 	_SLAB_RED_ZONE,
  27:/mnt/c/Users/31740/Documents/codes/newcore-rp2350/include/linux/slab.h **** 	_SLAB_POISON,
  28:/mnt/c/Users/31740/Documents/codes/newcore-rp2350/include/linux/slab.h **** 	_SLAB_KMALLOC,
  29:/mnt/c/Users/31740/Documents/codes/newcore-rp2350/include/linux/slab.h **** 	_SLAB_HWCACHE_ALIGN,
  30:/mnt/c/Users/31740/Documents/codes/newcore-rp2350/include/linux/slab.h **** 	_SLAB_CACHE_DMA,
  31:/mnt/c/Users/31740/Documents/codes/newcore-rp2350/include/linux/slab.h **** 	_SLAB_CACHE_DMA32,
  32:/mnt/c/Users/31740/Documents/codes/newcore-rp2350/include/linux/slab.h **** 	_SLAB_STORE_USER,
  33:/mnt/c/Users/31740/Documents/codes/newcore-rp2350/include/linux/slab.h **** 	_SLAB_PANIC,
  34:/mnt/c/Users/31740/Documents/codes/newcore-rp2350/include/linux/slab.h **** 	_SLAB_TYPESAFE_BY_RCU,
  35:/mnt/c/Users/31740/Documents/codes/newcore-rp2350/include/linux/slab.h **** 	_SLAB_TRACE,
  36:/mnt/c/Users/31740/Documents/codes/newcore-rp2350/include/linux/slab.h **** #ifdef CONFIG_DEBUG_OBJECTS
  37:/mnt/c/Users/31740/Documents/codes/newcore-rp2350/include/linux/slab.h **** 	_SLAB_DEBUG_OBJECTS,
  38:/mnt/c/Users/31740/Documents/codes/newcore-rp2350/include/linux/slab.h **** #endif
  39:/mnt/c/Users/31740/Documents/codes/newcore-rp2350/include/linux/slab.h **** 	_SLAB_NOLEAKTRACE,
  40:/mnt/c/Users/31740/Documents/codes/newcore-rp2350/include/linux/slab.h **** 	_SLAB_NO_MERGE,
  41:/mnt/c/Users/31740/Documents/codes/newcore-rp2350/include/linux/slab.h **** #ifdef CONFIG_FAILSLAB
  42:/mnt/c/Users/31740/Documents/codes/newcore-rp2350/include/linux/slab.h **** 	_SLAB_FAILSLAB,
  43:/mnt/c/Users/31740/Documents/codes/newcore-rp2350/include/linux/slab.h **** #endif
  44:/mnt/c/Users/31740/Documents/codes/newcore-rp2350/include/linux/slab.h **** #ifdef CONFIG_MEMCG
  45:/mnt/c/Users/31740/Documents/codes/newcore-rp2350/include/linux/slab.h **** 	_SLAB_ACCOUNT,
  46:/mnt/c/Users/31740/Documents/codes/newcore-rp2350/include/linux/slab.h **** #endif
  47:/mnt/c/Users/31740/Documents/codes/newcore-rp2350/include/linux/slab.h **** #ifdef CONFIG_KASAN_GENERIC
  48:/mnt/c/Users/31740/Documents/codes/newcore-rp2350/include/linux/slab.h **** 	_SLAB_KASAN,
  49:/mnt/c/Users/31740/Documents/codes/newcore-rp2350/include/linux/slab.h **** #endif
  50:/mnt/c/Users/31740/Documents/codes/newcore-rp2350/include/linux/slab.h **** 	_SLAB_NO_USER_FLAGS,
  51:/mnt/c/Users/31740/Documents/codes/newcore-rp2350/include/linux/slab.h **** #ifdef CONFIG_KFENCE
  52:/mnt/c/Users/31740/Documents/codes/newcore-rp2350/include/linux/slab.h **** 	_SLAB_SKIP_KFENCE,
  53:/mnt/c/Users/31740/Documents/codes/newcore-rp2350/include/linux/slab.h **** #endif
  54:/mnt/c/Users/31740/Documents/codes/newcore-rp2350/include/linux/slab.h **** #ifndef CONFIG_SLUB_TINY
  55:/mnt/c/Users/31740/Documents/codes/newcore-rp2350/include/linux/slab.h **** 	_SLAB_RECLAIM_ACCOUNT,
  56:/mnt/c/Users/31740/Documents/codes/newcore-rp2350/include/linux/slab.h **** #endif
  57:/mnt/c/Users/31740/Documents/codes/newcore-rp2350/include/linux/slab.h **** 	_SLAB_OBJECT_POISON,
  58:/mnt/c/Users/31740/Documents/codes/newcore-rp2350/include/linux/slab.h **** 	_SLAB_CMPXCHG_DOUBLE,
  59:/mnt/c/Users/31740/Documents/codes/newcore-rp2350/include/linux/slab.h **** #ifdef CONFIG_SLAB_OBJ_EXT
  60:/mnt/c/Users/31740/Documents/codes/newcore-rp2350/include/linux/slab.h **** 	_SLAB_NO_OBJ_EXT,
  61:/mnt/c/Users/31740/Documents/codes/newcore-rp2350/include/linux/slab.h **** #endif
  62:/mnt/c/Users/31740/Documents/codes/newcore-rp2350/include/linux/slab.h **** 	_SLAB_FLAGS_LAST_BIT
  63:/mnt/c/Users/31740/Documents/codes/newcore-rp2350/include/linux/slab.h **** };
  64:/mnt/c/Users/31740/Documents/codes/newcore-rp2350/include/linux/slab.h **** 
  65:/mnt/c/Users/31740/Documents/codes/newcore-rp2350/include/linux/slab.h **** 
  66:/mnt/c/Users/31740/Documents/codes/newcore-rp2350/include/linux/slab.h **** 
  67:/mnt/c/Users/31740/Documents/codes/newcore-rp2350/include/linux/slab.h **** #define __SLAB_FLAG_BIT(nr)	((slab_flags_t __force)(1U << (nr)))
  68:/mnt/c/Users/31740/Documents/codes/newcore-rp2350/include/linux/slab.h **** #define __SLAB_FLAG_UNUSED	((slab_flags_t __force)(0U))
  69:/mnt/c/Users/31740/Documents/codes/newcore-rp2350/include/linux/slab.h **** 
  70:/mnt/c/Users/31740/Documents/codes/newcore-rp2350/include/linux/slab.h **** /*
  71:/mnt/c/Users/31740/Documents/codes/newcore-rp2350/include/linux/slab.h ****  * Flags to pass to kmem_cache_create().
  72:/mnt/c/Users/31740/Documents/codes/newcore-rp2350/include/linux/slab.h ****  * The ones marked DEBUG need CONFIG_SLUB_DEBUG enabled, otherwise are no-op
  73:/mnt/c/Users/31740/Documents/codes/newcore-rp2350/include/linux/slab.h ****  */
  74:/mnt/c/Users/31740/Documents/codes/newcore-rp2350/include/linux/slab.h **** /* DEBUG: Perform (expensive) checks on alloc/free */
ARM GAS  /tmp/ccZI6Oms.s 			page 20


  75:/mnt/c/Users/31740/Documents/codes/newcore-rp2350/include/linux/slab.h **** #define SLAB_CONSISTENCY_CHECKS	__SLAB_FLAG_BIT(_SLAB_CONSISTENCY_CHECKS)
  76:/mnt/c/Users/31740/Documents/codes/newcore-rp2350/include/linux/slab.h **** /* DEBUG: Red zone objs in a cache */
  77:/mnt/c/Users/31740/Documents/codes/newcore-rp2350/include/linux/slab.h **** #define SLAB_RED_ZONE		__SLAB_FLAG_BIT(_SLAB_RED_ZONE)
  78:/mnt/c/Users/31740/Documents/codes/newcore-rp2350/include/linux/slab.h **** /* DEBUG: Poison objects */
  79:/mnt/c/Users/31740/Documents/codes/newcore-rp2350/include/linux/slab.h **** #define SLAB_POISON		__SLAB_FLAG_BIT(_SLAB_POISON)
  80:/mnt/c/Users/31740/Documents/codes/newcore-rp2350/include/linux/slab.h **** /* Indicate a kmalloc slab */
  81:/mnt/c/Users/31740/Documents/codes/newcore-rp2350/include/linux/slab.h **** #define SLAB_KMALLOC		__SLAB_FLAG_BIT(_SLAB_KMALLOC)
  82:/mnt/c/Users/31740/Documents/codes/newcore-rp2350/include/linux/slab.h **** /**
  83:/mnt/c/Users/31740/Documents/codes/newcore-rp2350/include/linux/slab.h ****  * define SLAB_HWCACHE_ALIGN - Align objects on cache line boundaries.
  84:/mnt/c/Users/31740/Documents/codes/newcore-rp2350/include/linux/slab.h ****  *
  85:/mnt/c/Users/31740/Documents/codes/newcore-rp2350/include/linux/slab.h ****  * Sufficiently large objects are aligned on cache line boundary. For object
  86:/mnt/c/Users/31740/Documents/codes/newcore-rp2350/include/linux/slab.h ****  * size smaller than a half of cache line size, the alignment is on the half of
  87:/mnt/c/Users/31740/Documents/codes/newcore-rp2350/include/linux/slab.h ****  * cache line size. In general, if object size is smaller than 1/2^n of cache
  88:/mnt/c/Users/31740/Documents/codes/newcore-rp2350/include/linux/slab.h ****  * line size, the alignment is adjusted to 1/2^n.
  89:/mnt/c/Users/31740/Documents/codes/newcore-rp2350/include/linux/slab.h ****  *
  90:/mnt/c/Users/31740/Documents/codes/newcore-rp2350/include/linux/slab.h ****  * If explicit alignment is also requested by the respective
  91:/mnt/c/Users/31740/Documents/codes/newcore-rp2350/include/linux/slab.h ****  * &struct kmem_cache_args field, the greater of both is alignments is applied.
  92:/mnt/c/Users/31740/Documents/codes/newcore-rp2350/include/linux/slab.h ****  */
  93:/mnt/c/Users/31740/Documents/codes/newcore-rp2350/include/linux/slab.h **** #define SLAB_HWCACHE_ALIGN	__SLAB_FLAG_BIT(_SLAB_HWCACHE_ALIGN)
  94:/mnt/c/Users/31740/Documents/codes/newcore-rp2350/include/linux/slab.h **** /* Use GFP_DMA memory */
  95:/mnt/c/Users/31740/Documents/codes/newcore-rp2350/include/linux/slab.h **** #define SLAB_CACHE_DMA		__SLAB_FLAG_BIT(_SLAB_CACHE_DMA)
  96:/mnt/c/Users/31740/Documents/codes/newcore-rp2350/include/linux/slab.h **** /* Use GFP_DMA32 memory */
  97:/mnt/c/Users/31740/Documents/codes/newcore-rp2350/include/linux/slab.h **** #define SLAB_CACHE_DMA32	__SLAB_FLAG_BIT(_SLAB_CACHE_DMA32)
  98:/mnt/c/Users/31740/Documents/codes/newcore-rp2350/include/linux/slab.h **** /* DEBUG: Store the last owner for bug hunting */
  99:/mnt/c/Users/31740/Documents/codes/newcore-rp2350/include/linux/slab.h **** #define SLAB_STORE_USER		__SLAB_FLAG_BIT(_SLAB_STORE_USER)
 100:/mnt/c/Users/31740/Documents/codes/newcore-rp2350/include/linux/slab.h **** /* Panic if kmem_cache_create() fails */
 101:/mnt/c/Users/31740/Documents/codes/newcore-rp2350/include/linux/slab.h **** #define SLAB_PANIC		__SLAB_FLAG_BIT(_SLAB_PANIC)
 102:/mnt/c/Users/31740/Documents/codes/newcore-rp2350/include/linux/slab.h **** /**
 103:/mnt/c/Users/31740/Documents/codes/newcore-rp2350/include/linux/slab.h ****  * define SLAB_TYPESAFE_BY_RCU - **WARNING** READ THIS!
 104:/mnt/c/Users/31740/Documents/codes/newcore-rp2350/include/linux/slab.h ****  *
 105:/mnt/c/Users/31740/Documents/codes/newcore-rp2350/include/linux/slab.h ****  * This delays freeing the SLAB page by a grace period, it does _NOT_
 106:/mnt/c/Users/31740/Documents/codes/newcore-rp2350/include/linux/slab.h ****  * delay object freeing. This means that if you do kmem_cache_free()
 107:/mnt/c/Users/31740/Documents/codes/newcore-rp2350/include/linux/slab.h ****  * that memory location is free to be reused at any time. Thus it may
 108:/mnt/c/Users/31740/Documents/codes/newcore-rp2350/include/linux/slab.h ****  * be possible to see another object there in the same RCU grace period.
 109:/mnt/c/Users/31740/Documents/codes/newcore-rp2350/include/linux/slab.h ****  *
 110:/mnt/c/Users/31740/Documents/codes/newcore-rp2350/include/linux/slab.h ****  * This feature only ensures the memory location backing the object
 111:/mnt/c/Users/31740/Documents/codes/newcore-rp2350/include/linux/slab.h ****  * stays valid, the trick to using this is relying on an independent
 112:/mnt/c/Users/31740/Documents/codes/newcore-rp2350/include/linux/slab.h ****  * object validation pass. Something like:
 113:/mnt/c/Users/31740/Documents/codes/newcore-rp2350/include/linux/slab.h ****  *
 114:/mnt/c/Users/31740/Documents/codes/newcore-rp2350/include/linux/slab.h ****  * ::
 115:/mnt/c/Users/31740/Documents/codes/newcore-rp2350/include/linux/slab.h ****  *
 116:/mnt/c/Users/31740/Documents/codes/newcore-rp2350/include/linux/slab.h ****  *  begin:
 117:/mnt/c/Users/31740/Documents/codes/newcore-rp2350/include/linux/slab.h ****  *   rcu_read_lock();
 118:/mnt/c/Users/31740/Documents/codes/newcore-rp2350/include/linux/slab.h ****  *   obj = lockless_lookup(key);
 119:/mnt/c/Users/31740/Documents/codes/newcore-rp2350/include/linux/slab.h ****  *   if (obj) {
 120:/mnt/c/Users/31740/Documents/codes/newcore-rp2350/include/linux/slab.h ****  *     if (!try_get_ref(obj)) // might fail for free objects
 121:/mnt/c/Users/31740/Documents/codes/newcore-rp2350/include/linux/slab.h ****  *       rcu_read_unlock();
 122:/mnt/c/Users/31740/Documents/codes/newcore-rp2350/include/linux/slab.h ****  *       goto begin;
 123:/mnt/c/Users/31740/Documents/codes/newcore-rp2350/include/linux/slab.h ****  *
 124:/mnt/c/Users/31740/Documents/codes/newcore-rp2350/include/linux/slab.h ****  *     if (obj->key != key) { // not the object we expected
 125:/mnt/c/Users/31740/Documents/codes/newcore-rp2350/include/linux/slab.h ****  *       put_ref(obj);
 126:/mnt/c/Users/31740/Documents/codes/newcore-rp2350/include/linux/slab.h ****  *       rcu_read_unlock();
 127:/mnt/c/Users/31740/Documents/codes/newcore-rp2350/include/linux/slab.h ****  *       goto begin;
 128:/mnt/c/Users/31740/Documents/codes/newcore-rp2350/include/linux/slab.h ****  *     }
 129:/mnt/c/Users/31740/Documents/codes/newcore-rp2350/include/linux/slab.h ****  *   }
 130:/mnt/c/Users/31740/Documents/codes/newcore-rp2350/include/linux/slab.h ****  *  rcu_read_unlock();
 131:/mnt/c/Users/31740/Documents/codes/newcore-rp2350/include/linux/slab.h ****  *
ARM GAS  /tmp/ccZI6Oms.s 			page 21


 132:/mnt/c/Users/31740/Documents/codes/newcore-rp2350/include/linux/slab.h ****  * This is useful if we need to approach a kernel structure obliquely,
 133:/mnt/c/Users/31740/Documents/codes/newcore-rp2350/include/linux/slab.h ****  * from its address obtained without the usual locking. We can lock
 134:/mnt/c/Users/31740/Documents/codes/newcore-rp2350/include/linux/slab.h ****  * the structure to stabilize it and check it's still at the given address,
 135:/mnt/c/Users/31740/Documents/codes/newcore-rp2350/include/linux/slab.h ****  * only if we can be sure that the memory has not been meanwhile reused
 136:/mnt/c/Users/31740/Documents/codes/newcore-rp2350/include/linux/slab.h ****  * for some other kind of object (which our subsystem's lock might corrupt).
 137:/mnt/c/Users/31740/Documents/codes/newcore-rp2350/include/linux/slab.h ****  *
 138:/mnt/c/Users/31740/Documents/codes/newcore-rp2350/include/linux/slab.h ****  * rcu_read_lock before reading the address, then rcu_read_unlock after
 139:/mnt/c/Users/31740/Documents/codes/newcore-rp2350/include/linux/slab.h ****  * taking the spinlock within the structure expected at that address.
 140:/mnt/c/Users/31740/Documents/codes/newcore-rp2350/include/linux/slab.h ****  *
 141:/mnt/c/Users/31740/Documents/codes/newcore-rp2350/include/linux/slab.h ****  * Note that it is not possible to acquire a lock within a structure
 142:/mnt/c/Users/31740/Documents/codes/newcore-rp2350/include/linux/slab.h ****  * allocated with SLAB_TYPESAFE_BY_RCU without first acquiring a reference
 143:/mnt/c/Users/31740/Documents/codes/newcore-rp2350/include/linux/slab.h ****  * as described above.  The reason is that SLAB_TYPESAFE_BY_RCU pages
 144:/mnt/c/Users/31740/Documents/codes/newcore-rp2350/include/linux/slab.h ****  * are not zeroed before being given to the slab, which means that any
 145:/mnt/c/Users/31740/Documents/codes/newcore-rp2350/include/linux/slab.h ****  * locks must be initialized after each and every kmem_struct_alloc().
 146:/mnt/c/Users/31740/Documents/codes/newcore-rp2350/include/linux/slab.h ****  * Alternatively, make the ctor passed to kmem_cache_create() initialize
 147:/mnt/c/Users/31740/Documents/codes/newcore-rp2350/include/linux/slab.h ****  * the locks at page-allocation time, as is done in __i915_request_ctor(),
 148:/mnt/c/Users/31740/Documents/codes/newcore-rp2350/include/linux/slab.h ****  * sighand_ctor(), and anon_vma_ctor().  Such a ctor permits readers
 149:/mnt/c/Users/31740/Documents/codes/newcore-rp2350/include/linux/slab.h ****  * to safely acquire those ctor-initialized locks under rcu_read_lock()
 150:/mnt/c/Users/31740/Documents/codes/newcore-rp2350/include/linux/slab.h ****  * protection.
 151:/mnt/c/Users/31740/Documents/codes/newcore-rp2350/include/linux/slab.h ****  *
 152:/mnt/c/Users/31740/Documents/codes/newcore-rp2350/include/linux/slab.h ****  * Note that SLAB_TYPESAFE_BY_RCU was originally named SLAB_DESTROY_BY_RCU.
 153:/mnt/c/Users/31740/Documents/codes/newcore-rp2350/include/linux/slab.h ****  */
 154:/mnt/c/Users/31740/Documents/codes/newcore-rp2350/include/linux/slab.h **** #define SLAB_TYPESAFE_BY_RCU	__SLAB_FLAG_BIT(_SLAB_TYPESAFE_BY_RCU)
 155:/mnt/c/Users/31740/Documents/codes/newcore-rp2350/include/linux/slab.h **** /* Trace allocations and frees */
 156:/mnt/c/Users/31740/Documents/codes/newcore-rp2350/include/linux/slab.h **** #define SLAB_TRACE		__SLAB_FLAG_BIT(_SLAB_TRACE)
 157:/mnt/c/Users/31740/Documents/codes/newcore-rp2350/include/linux/slab.h **** 
 158:/mnt/c/Users/31740/Documents/codes/newcore-rp2350/include/linux/slab.h **** /* Flag to prevent checks on free */
 159:/mnt/c/Users/31740/Documents/codes/newcore-rp2350/include/linux/slab.h **** #ifdef CONFIG_DEBUG_OBJECTS
 160:/mnt/c/Users/31740/Documents/codes/newcore-rp2350/include/linux/slab.h **** # define SLAB_DEBUG_OBJECTS	__SLAB_FLAG_BIT(_SLAB_DEBUG_OBJECTS)
 161:/mnt/c/Users/31740/Documents/codes/newcore-rp2350/include/linux/slab.h **** #else
 162:/mnt/c/Users/31740/Documents/codes/newcore-rp2350/include/linux/slab.h **** # define SLAB_DEBUG_OBJECTS	__SLAB_FLAG_UNUSED
 163:/mnt/c/Users/31740/Documents/codes/newcore-rp2350/include/linux/slab.h **** #endif
 164:/mnt/c/Users/31740/Documents/codes/newcore-rp2350/include/linux/slab.h **** 
 165:/mnt/c/Users/31740/Documents/codes/newcore-rp2350/include/linux/slab.h **** /* Avoid kmemleak tracing */
 166:/mnt/c/Users/31740/Documents/codes/newcore-rp2350/include/linux/slab.h **** #define SLAB_NOLEAKTRACE	__SLAB_FLAG_BIT(_SLAB_NOLEAKTRACE)
 167:/mnt/c/Users/31740/Documents/codes/newcore-rp2350/include/linux/slab.h **** 
 168:/mnt/c/Users/31740/Documents/codes/newcore-rp2350/include/linux/slab.h **** /*
 169:/mnt/c/Users/31740/Documents/codes/newcore-rp2350/include/linux/slab.h ****  * Prevent merging with compatible kmem caches. This flag should be used
 170:/mnt/c/Users/31740/Documents/codes/newcore-rp2350/include/linux/slab.h ****  * cautiously. Valid use cases:
 171:/mnt/c/Users/31740/Documents/codes/newcore-rp2350/include/linux/slab.h ****  *
 172:/mnt/c/Users/31740/Documents/codes/newcore-rp2350/include/linux/slab.h ****  * - caches created for self-tests (e.g. kunit)
 173:/mnt/c/Users/31740/Documents/codes/newcore-rp2350/include/linux/slab.h ****  * - general caches created and used by a subsystem, only when a
 174:/mnt/c/Users/31740/Documents/codes/newcore-rp2350/include/linux/slab.h ****  *   (subsystem-specific) debug option is enabled
 175:/mnt/c/Users/31740/Documents/codes/newcore-rp2350/include/linux/slab.h ****  * - performance critical caches, should be very rare and consulted with slab
 176:/mnt/c/Users/31740/Documents/codes/newcore-rp2350/include/linux/slab.h ****  *   maintainers, and not used together with CONFIG_SLUB_TINY
 177:/mnt/c/Users/31740/Documents/codes/newcore-rp2350/include/linux/slab.h ****  */
 178:/mnt/c/Users/31740/Documents/codes/newcore-rp2350/include/linux/slab.h **** #define SLAB_NO_MERGE		__SLAB_FLAG_BIT(_SLAB_NO_MERGE)
 179:/mnt/c/Users/31740/Documents/codes/newcore-rp2350/include/linux/slab.h **** 
 180:/mnt/c/Users/31740/Documents/codes/newcore-rp2350/include/linux/slab.h **** /* Fault injection mark */
 181:/mnt/c/Users/31740/Documents/codes/newcore-rp2350/include/linux/slab.h **** #ifdef CONFIG_FAILSLAB
 182:/mnt/c/Users/31740/Documents/codes/newcore-rp2350/include/linux/slab.h **** # define SLAB_FAILSLAB		__SLAB_FLAG_BIT(_SLAB_FAILSLAB)
 183:/mnt/c/Users/31740/Documents/codes/newcore-rp2350/include/linux/slab.h **** #else
 184:/mnt/c/Users/31740/Documents/codes/newcore-rp2350/include/linux/slab.h **** # define SLAB_FAILSLAB		__SLAB_FLAG_UNUSED
 185:/mnt/c/Users/31740/Documents/codes/newcore-rp2350/include/linux/slab.h **** #endif
 186:/mnt/c/Users/31740/Documents/codes/newcore-rp2350/include/linux/slab.h **** /**
 187:/mnt/c/Users/31740/Documents/codes/newcore-rp2350/include/linux/slab.h ****  * define SLAB_ACCOUNT - Account allocations to memcg.
 188:/mnt/c/Users/31740/Documents/codes/newcore-rp2350/include/linux/slab.h ****  *
ARM GAS  /tmp/ccZI6Oms.s 			page 22


 189:/mnt/c/Users/31740/Documents/codes/newcore-rp2350/include/linux/slab.h ****  * All object allocations from this cache will be memcg accounted, regardless of
 190:/mnt/c/Users/31740/Documents/codes/newcore-rp2350/include/linux/slab.h ****  * __GFP_ACCOUNT being or not being passed to individual allocations.
 191:/mnt/c/Users/31740/Documents/codes/newcore-rp2350/include/linux/slab.h ****  */
 192:/mnt/c/Users/31740/Documents/codes/newcore-rp2350/include/linux/slab.h **** #ifdef CONFIG_MEMCG
 193:/mnt/c/Users/31740/Documents/codes/newcore-rp2350/include/linux/slab.h **** # define SLAB_ACCOUNT		__SLAB_FLAG_BIT(_SLAB_ACCOUNT)
 194:/mnt/c/Users/31740/Documents/codes/newcore-rp2350/include/linux/slab.h **** #else
 195:/mnt/c/Users/31740/Documents/codes/newcore-rp2350/include/linux/slab.h **** # define SLAB_ACCOUNT		__SLAB_FLAG_UNUSED
 196:/mnt/c/Users/31740/Documents/codes/newcore-rp2350/include/linux/slab.h **** #endif
 197:/mnt/c/Users/31740/Documents/codes/newcore-rp2350/include/linux/slab.h **** 
 198:/mnt/c/Users/31740/Documents/codes/newcore-rp2350/include/linux/slab.h **** #ifdef CONFIG_KASAN_GENERIC
 199:/mnt/c/Users/31740/Documents/codes/newcore-rp2350/include/linux/slab.h **** #define SLAB_KASAN		__SLAB_FLAG_BIT(_SLAB_KASAN)
 200:/mnt/c/Users/31740/Documents/codes/newcore-rp2350/include/linux/slab.h **** #else
 201:/mnt/c/Users/31740/Documents/codes/newcore-rp2350/include/linux/slab.h **** #define SLAB_KASAN		__SLAB_FLAG_UNUSED
 202:/mnt/c/Users/31740/Documents/codes/newcore-rp2350/include/linux/slab.h **** #endif
 203:/mnt/c/Users/31740/Documents/codes/newcore-rp2350/include/linux/slab.h **** 
 204:/mnt/c/Users/31740/Documents/codes/newcore-rp2350/include/linux/slab.h **** /*
 205:/mnt/c/Users/31740/Documents/codes/newcore-rp2350/include/linux/slab.h ****  * Ignore user specified debugging flags.
 206:/mnt/c/Users/31740/Documents/codes/newcore-rp2350/include/linux/slab.h ****  * Intended for caches created for self-tests so they have only flags
 207:/mnt/c/Users/31740/Documents/codes/newcore-rp2350/include/linux/slab.h ****  * specified in the code and other flags are ignored.
 208:/mnt/c/Users/31740/Documents/codes/newcore-rp2350/include/linux/slab.h ****  */
 209:/mnt/c/Users/31740/Documents/codes/newcore-rp2350/include/linux/slab.h **** #define SLAB_NO_USER_FLAGS	__SLAB_FLAG_BIT(_SLAB_NO_USER_FLAGS)
 210:/mnt/c/Users/31740/Documents/codes/newcore-rp2350/include/linux/slab.h **** 
 211:/mnt/c/Users/31740/Documents/codes/newcore-rp2350/include/linux/slab.h **** #ifdef CONFIG_KFENCE
 212:/mnt/c/Users/31740/Documents/codes/newcore-rp2350/include/linux/slab.h **** #define SLAB_SKIP_KFENCE	__SLAB_FLAG_BIT(_SLAB_SKIP_KFENCE)
 213:/mnt/c/Users/31740/Documents/codes/newcore-rp2350/include/linux/slab.h **** #else
 214:/mnt/c/Users/31740/Documents/codes/newcore-rp2350/include/linux/slab.h **** #define SLAB_SKIP_KFENCE	__SLAB_FLAG_UNUSED
 215:/mnt/c/Users/31740/Documents/codes/newcore-rp2350/include/linux/slab.h **** #endif
 216:/mnt/c/Users/31740/Documents/codes/newcore-rp2350/include/linux/slab.h **** 
 217:/mnt/c/Users/31740/Documents/codes/newcore-rp2350/include/linux/slab.h **** /* The following flags affect the page allocator grouping pages by mobility */
 218:/mnt/c/Users/31740/Documents/codes/newcore-rp2350/include/linux/slab.h **** /**
 219:/mnt/c/Users/31740/Documents/codes/newcore-rp2350/include/linux/slab.h ****  * define SLAB_RECLAIM_ACCOUNT - Objects are reclaimable.
 220:/mnt/c/Users/31740/Documents/codes/newcore-rp2350/include/linux/slab.h ****  *
 221:/mnt/c/Users/31740/Documents/codes/newcore-rp2350/include/linux/slab.h ****  * Use this flag for caches that have an associated shrinker. As a result, slab
 222:/mnt/c/Users/31740/Documents/codes/newcore-rp2350/include/linux/slab.h ****  * pages are allocated with __GFP_RECLAIMABLE, which affects grouping pages by
 223:/mnt/c/Users/31740/Documents/codes/newcore-rp2350/include/linux/slab.h ****  * mobility, and are accounted in SReclaimable counter in /proc/meminfo
 224:/mnt/c/Users/31740/Documents/codes/newcore-rp2350/include/linux/slab.h ****  */
 225:/mnt/c/Users/31740/Documents/codes/newcore-rp2350/include/linux/slab.h **** #ifndef CONFIG_SLUB_TINY
 226:/mnt/c/Users/31740/Documents/codes/newcore-rp2350/include/linux/slab.h **** #define SLAB_RECLAIM_ACCOUNT	__SLAB_FLAG_BIT(_SLAB_RECLAIM_ACCOUNT)
 227:/mnt/c/Users/31740/Documents/codes/newcore-rp2350/include/linux/slab.h **** #else
 228:/mnt/c/Users/31740/Documents/codes/newcore-rp2350/include/linux/slab.h **** #define SLAB_RECLAIM_ACCOUNT	__SLAB_FLAG_UNUSED
 229:/mnt/c/Users/31740/Documents/codes/newcore-rp2350/include/linux/slab.h **** #endif
 230:/mnt/c/Users/31740/Documents/codes/newcore-rp2350/include/linux/slab.h **** #define SLAB_TEMPORARY		SLAB_RECLAIM_ACCOUNT	/* Objects are short-lived */
 231:/mnt/c/Users/31740/Documents/codes/newcore-rp2350/include/linux/slab.h **** 
 232:/mnt/c/Users/31740/Documents/codes/newcore-rp2350/include/linux/slab.h **** /* Slab created using create_boot_cache */
 233:/mnt/c/Users/31740/Documents/codes/newcore-rp2350/include/linux/slab.h **** #ifdef CONFIG_SLAB_OBJ_EXT
 234:/mnt/c/Users/31740/Documents/codes/newcore-rp2350/include/linux/slab.h **** #define SLAB_NO_OBJ_EXT		__SLAB_FLAG_BIT(_SLAB_NO_OBJ_EXT)
 235:/mnt/c/Users/31740/Documents/codes/newcore-rp2350/include/linux/slab.h **** #else
 236:/mnt/c/Users/31740/Documents/codes/newcore-rp2350/include/linux/slab.h **** #define SLAB_NO_OBJ_EXT		__SLAB_FLAG_UNUSED
 237:/mnt/c/Users/31740/Documents/codes/newcore-rp2350/include/linux/slab.h **** #endif
 238:/mnt/c/Users/31740/Documents/codes/newcore-rp2350/include/linux/slab.h **** 
 239:/mnt/c/Users/31740/Documents/codes/newcore-rp2350/include/linux/slab.h **** /*
 240:/mnt/c/Users/31740/Documents/codes/newcore-rp2350/include/linux/slab.h ****  * freeptr_t represents a SLUB freelist pointer, which might be encoded
 241:/mnt/c/Users/31740/Documents/codes/newcore-rp2350/include/linux/slab.h ****  * and not dereferenceable if CONFIG_SLAB_FREELIST_HARDENED is enabled.
 242:/mnt/c/Users/31740/Documents/codes/newcore-rp2350/include/linux/slab.h ****  */
 243:/mnt/c/Users/31740/Documents/codes/newcore-rp2350/include/linux/slab.h **** typedef struct { unsigned long v; } freeptr_t;
 244:/mnt/c/Users/31740/Documents/codes/newcore-rp2350/include/linux/slab.h **** 
 245:/mnt/c/Users/31740/Documents/codes/newcore-rp2350/include/linux/slab.h **** /*
ARM GAS  /tmp/ccZI6Oms.s 			page 23


 246:/mnt/c/Users/31740/Documents/codes/newcore-rp2350/include/linux/slab.h ****  * ZERO_SIZE_PTR will be returned for zero sized kmalloc requests.
 247:/mnt/c/Users/31740/Documents/codes/newcore-rp2350/include/linux/slab.h ****  *
 248:/mnt/c/Users/31740/Documents/codes/newcore-rp2350/include/linux/slab.h ****  * Dereferencing ZERO_SIZE_PTR will lead to a distinct access fault.
 249:/mnt/c/Users/31740/Documents/codes/newcore-rp2350/include/linux/slab.h ****  *
 250:/mnt/c/Users/31740/Documents/codes/newcore-rp2350/include/linux/slab.h ****  * ZERO_SIZE_PTR can be passed to kfree though in the same way that NULL can.
 251:/mnt/c/Users/31740/Documents/codes/newcore-rp2350/include/linux/slab.h ****  * Both make kfree a no-op.
 252:/mnt/c/Users/31740/Documents/codes/newcore-rp2350/include/linux/slab.h ****  */
 253:/mnt/c/Users/31740/Documents/codes/newcore-rp2350/include/linux/slab.h **** #define ZERO_SIZE_PTR ((void *)16)
 254:/mnt/c/Users/31740/Documents/codes/newcore-rp2350/include/linux/slab.h **** 
 255:/mnt/c/Users/31740/Documents/codes/newcore-rp2350/include/linux/slab.h **** #define ZERO_OR_NULL_PTR(x) ((unsigned long)(x) <= \
 256:/mnt/c/Users/31740/Documents/codes/newcore-rp2350/include/linux/slab.h **** 				(unsigned long)ZERO_SIZE_PTR)
 257:/mnt/c/Users/31740/Documents/codes/newcore-rp2350/include/linux/slab.h **** 
 258:/mnt/c/Users/31740/Documents/codes/newcore-rp2350/include/linux/slab.h **** 
 259:/mnt/c/Users/31740/Documents/codes/newcore-rp2350/include/linux/slab.h **** 
 260:/mnt/c/Users/31740/Documents/codes/newcore-rp2350/include/linux/slab.h **** 
 261:/mnt/c/Users/31740/Documents/codes/newcore-rp2350/include/linux/slab.h **** 
 262:/mnt/c/Users/31740/Documents/codes/newcore-rp2350/include/linux/slab.h **** #ifdef CONFIG_SLUB_CPU_PARTIAL
 263:/mnt/c/Users/31740/Documents/codes/newcore-rp2350/include/linux/slab.h **** #define slub_percpu_partial(c)			((c)->partial)
 264:/mnt/c/Users/31740/Documents/codes/newcore-rp2350/include/linux/slab.h **** 
 265:/mnt/c/Users/31740/Documents/codes/newcore-rp2350/include/linux/slab.h **** #define slub_set_percpu_partial(c, p)		\
 266:/mnt/c/Users/31740/Documents/codes/newcore-rp2350/include/linux/slab.h **** ({						\
 267:/mnt/c/Users/31740/Documents/codes/newcore-rp2350/include/linux/slab.h **** 	slub_percpu_partial(c) = (p)->next;	\
 268:/mnt/c/Users/31740/Documents/codes/newcore-rp2350/include/linux/slab.h **** })
 269:/mnt/c/Users/31740/Documents/codes/newcore-rp2350/include/linux/slab.h **** 
 270:/mnt/c/Users/31740/Documents/codes/newcore-rp2350/include/linux/slab.h **** #define slub_percpu_partial_read_once(c)	READ_ONCE(slub_percpu_partial(c))
 271:/mnt/c/Users/31740/Documents/codes/newcore-rp2350/include/linux/slab.h **** #else
 272:/mnt/c/Users/31740/Documents/codes/newcore-rp2350/include/linux/slab.h **** #define slub_percpu_partial(c)			NULL
 273:/mnt/c/Users/31740/Documents/codes/newcore-rp2350/include/linux/slab.h **** 
 274:/mnt/c/Users/31740/Documents/codes/newcore-rp2350/include/linux/slab.h **** #define slub_set_percpu_partial(c, p)
 275:/mnt/c/Users/31740/Documents/codes/newcore-rp2350/include/linux/slab.h **** 
 276:/mnt/c/Users/31740/Documents/codes/newcore-rp2350/include/linux/slab.h **** #define slub_percpu_partial_read_once(c)	NULL
 277:/mnt/c/Users/31740/Documents/codes/newcore-rp2350/include/linux/slab.h **** 
 278:/mnt/c/Users/31740/Documents/codes/newcore-rp2350/include/linux/slab.h **** 
 279:/mnt/c/Users/31740/Documents/codes/newcore-rp2350/include/linux/slab.h **** #endif // CONFIG_SLUB_CPU_PARTIAL
 280:/mnt/c/Users/31740/Documents/codes/newcore-rp2350/include/linux/slab.h **** 
 281:/mnt/c/Users/31740/Documents/codes/newcore-rp2350/include/linux/slab.h **** /*
 282:/mnt/c/Users/31740/Documents/codes/newcore-rp2350/include/linux/slab.h **** 	* Word size structure that can be atomically updated or read and that
 283:/mnt/c/Users/31740/Documents/codes/newcore-rp2350/include/linux/slab.h **** 	* contains both the order and the number of objects that a slab of the
 284:/mnt/c/Users/31740/Documents/codes/newcore-rp2350/include/linux/slab.h **** 	* given order would contain.
 285:/mnt/c/Users/31740/Documents/codes/newcore-rp2350/include/linux/slab.h **** 	*/				
 286:/mnt/c/Users/31740/Documents/codes/newcore-rp2350/include/linux/slab.h **** struct kmem_cache_order_objects {
 287:/mnt/c/Users/31740/Documents/codes/newcore-rp2350/include/linux/slab.h **** 	unsigned int x;
 288:/mnt/c/Users/31740/Documents/codes/newcore-rp2350/include/linux/slab.h **** };
 289:/mnt/c/Users/31740/Documents/codes/newcore-rp2350/include/linux/slab.h **** 
 290:/mnt/c/Users/31740/Documents/codes/newcore-rp2350/include/linux/slab.h **** struct kmem_cache_node {
 291:/mnt/c/Users/31740/Documents/codes/newcore-rp2350/include/linux/slab.h **** 	spinlock_t list_lock;
 292:/mnt/c/Users/31740/Documents/codes/newcore-rp2350/include/linux/slab.h **** 	unsigned long nr_partial;
 293:/mnt/c/Users/31740/Documents/codes/newcore-rp2350/include/linux/slab.h **** 	struct list_head partial;
 294:/mnt/c/Users/31740/Documents/codes/newcore-rp2350/include/linux/slab.h **** #ifdef CONFIG_SLUB_DEBUG
 295:/mnt/c/Users/31740/Documents/codes/newcore-rp2350/include/linux/slab.h **** 	atomic_long_t nr_slabs;
 296:/mnt/c/Users/31740/Documents/codes/newcore-rp2350/include/linux/slab.h **** 	atomic_long_t total_objects;
 297:/mnt/c/Users/31740/Documents/codes/newcore-rp2350/include/linux/slab.h **** 	struct list_head full;
 298:/mnt/c/Users/31740/Documents/codes/newcore-rp2350/include/linux/slab.h **** #endif
 299:/mnt/c/Users/31740/Documents/codes/newcore-rp2350/include/linux/slab.h **** };
 300:/mnt/c/Users/31740/Documents/codes/newcore-rp2350/include/linux/slab.h **** 
 301:/mnt/c/Users/31740/Documents/codes/newcore-rp2350/include/linux/slab.h **** struct kmem_cache {
 302:/mnt/c/Users/31740/Documents/codes/newcore-rp2350/include/linux/slab.h **** 	#ifndef CONFIG_SLUB_TINY
ARM GAS  /tmp/ccZI6Oms.s 			page 24


 303:/mnt/c/Users/31740/Documents/codes/newcore-rp2350/include/linux/slab.h **** 	//	struct kmem_cache_cpu __percpu *cpu_slab;
 304:/mnt/c/Users/31740/Documents/codes/newcore-rp2350/include/linux/slab.h **** 	#endif
 305:/mnt/c/Users/31740/Documents/codes/newcore-rp2350/include/linux/slab.h **** 		/* Used for retrieving partial slabs, etc. */
 306:/mnt/c/Users/31740/Documents/codes/newcore-rp2350/include/linux/slab.h **** 		slab_flags_t flags;
 307:/mnt/c/Users/31740/Documents/codes/newcore-rp2350/include/linux/slab.h **** 		unsigned long min_partial;
 308:/mnt/c/Users/31740/Documents/codes/newcore-rp2350/include/linux/slab.h **** 		unsigned int size;		/* Object size including metadata */
 309:/mnt/c/Users/31740/Documents/codes/newcore-rp2350/include/linux/slab.h **** 		unsigned int object_size;	/* Object size without metadata */
 310:/mnt/c/Users/31740/Documents/codes/newcore-rp2350/include/linux/slab.h **** 		struct reciprocal_value reciprocal_size;
 311:/mnt/c/Users/31740/Documents/codes/newcore-rp2350/include/linux/slab.h **** 		unsigned int offset;		/* Free pointer offset */
 312:/mnt/c/Users/31740/Documents/codes/newcore-rp2350/include/linux/slab.h **** 	#ifdef CONFIG_SLUB_CPU_PARTIAL
 313:/mnt/c/Users/31740/Documents/codes/newcore-rp2350/include/linux/slab.h **** 		/* Number of per cpu partial objects to keep around */
 314:/mnt/c/Users/31740/Documents/codes/newcore-rp2350/include/linux/slab.h **** 		unsigned int cpu_partial;
 315:/mnt/c/Users/31740/Documents/codes/newcore-rp2350/include/linux/slab.h **** 		/* Number of per cpu partial slabs to keep around */
 316:/mnt/c/Users/31740/Documents/codes/newcore-rp2350/include/linux/slab.h **** 		unsigned int cpu_partial_slabs;
 317:/mnt/c/Users/31740/Documents/codes/newcore-rp2350/include/linux/slab.h **** 	#endif
 318:/mnt/c/Users/31740/Documents/codes/newcore-rp2350/include/linux/slab.h **** 		struct kmem_cache_order_objects oo;
 319:/mnt/c/Users/31740/Documents/codes/newcore-rp2350/include/linux/slab.h **** 	
 320:/mnt/c/Users/31740/Documents/codes/newcore-rp2350/include/linux/slab.h **** 		/* Allocation and freeing of slabs */
 321:/mnt/c/Users/31740/Documents/codes/newcore-rp2350/include/linux/slab.h **** 		struct kmem_cache_order_objects min;
 322:/mnt/c/Users/31740/Documents/codes/newcore-rp2350/include/linux/slab.h **** 		gfp_t allocflags;		/* gfp flags to use on each alloc */
 323:/mnt/c/Users/31740/Documents/codes/newcore-rp2350/include/linux/slab.h **** 		int refcount;			/* Refcount for slab cache destroy */
 324:/mnt/c/Users/31740/Documents/codes/newcore-rp2350/include/linux/slab.h **** 		void (*ctor)(void *object);	/* Object constructor */
 325:/mnt/c/Users/31740/Documents/codes/newcore-rp2350/include/linux/slab.h **** 		unsigned int inuse;		/* Offset to metadata */
 326:/mnt/c/Users/31740/Documents/codes/newcore-rp2350/include/linux/slab.h **** 		unsigned int align;		/* Alignment */
 327:/mnt/c/Users/31740/Documents/codes/newcore-rp2350/include/linux/slab.h **** 		unsigned int red_left_pad;	/* Left redzone padding size */
 328:/mnt/c/Users/31740/Documents/codes/newcore-rp2350/include/linux/slab.h **** 		const char *name;		/* Name (only for display!) */
 329:/mnt/c/Users/31740/Documents/codes/newcore-rp2350/include/linux/slab.h **** 		struct list_head list;		/* List of slab caches */
 330:/mnt/c/Users/31740/Documents/codes/newcore-rp2350/include/linux/slab.h **** 	#ifdef CONFIG_SYSFS
 331:/mnt/c/Users/31740/Documents/codes/newcore-rp2350/include/linux/slab.h **** 		struct kobject kobj;		/* For sysfs */
 332:/mnt/c/Users/31740/Documents/codes/newcore-rp2350/include/linux/slab.h **** 	#endif
 333:/mnt/c/Users/31740/Documents/codes/newcore-rp2350/include/linux/slab.h **** 	#ifdef CONFIG_SLAB_FREELIST_HARDENED
 334:/mnt/c/Users/31740/Documents/codes/newcore-rp2350/include/linux/slab.h **** 		unsigned long random;
 335:/mnt/c/Users/31740/Documents/codes/newcore-rp2350/include/linux/slab.h **** 	#endif
 336:/mnt/c/Users/31740/Documents/codes/newcore-rp2350/include/linux/slab.h **** 	
 337:/mnt/c/Users/31740/Documents/codes/newcore-rp2350/include/linux/slab.h **** 	#ifdef CONFIG_NUMA
 338:/mnt/c/Users/31740/Documents/codes/newcore-rp2350/include/linux/slab.h **** 		/*
 339:/mnt/c/Users/31740/Documents/codes/newcore-rp2350/include/linux/slab.h **** 			* Defragmentation by allocating from a remote node.
 340:/mnt/c/Users/31740/Documents/codes/newcore-rp2350/include/linux/slab.h **** 			*/
 341:/mnt/c/Users/31740/Documents/codes/newcore-rp2350/include/linux/slab.h **** 		unsigned int remote_node_defrag_ratio;
 342:/mnt/c/Users/31740/Documents/codes/newcore-rp2350/include/linux/slab.h **** 	#endif
 343:/mnt/c/Users/31740/Documents/codes/newcore-rp2350/include/linux/slab.h **** 	
 344:/mnt/c/Users/31740/Documents/codes/newcore-rp2350/include/linux/slab.h **** 	#ifdef CONFIG_SLAB_FREELIST_RANDOM
 345:/mnt/c/Users/31740/Documents/codes/newcore-rp2350/include/linux/slab.h **** 		unsigned int *random_seq;
 346:/mnt/c/Users/31740/Documents/codes/newcore-rp2350/include/linux/slab.h **** 	#endif
 347:/mnt/c/Users/31740/Documents/codes/newcore-rp2350/include/linux/slab.h **** 	
 348:/mnt/c/Users/31740/Documents/codes/newcore-rp2350/include/linux/slab.h **** 	#ifdef CONFIG_KASAN_GENERIC
 349:/mnt/c/Users/31740/Documents/codes/newcore-rp2350/include/linux/slab.h **** 		struct kasan_cache kasan_info;
 350:/mnt/c/Users/31740/Documents/codes/newcore-rp2350/include/linux/slab.h **** 	#endif
 351:/mnt/c/Users/31740/Documents/codes/newcore-rp2350/include/linux/slab.h **** 	
 352:/mnt/c/Users/31740/Documents/codes/newcore-rp2350/include/linux/slab.h **** 	#ifdef CONFIG_HARDENED_USERCOPY
 353:/mnt/c/Users/31740/Documents/codes/newcore-rp2350/include/linux/slab.h **** 		unsigned int useroffset;	/* Usercopy region offset */
 354:/mnt/c/Users/31740/Documents/codes/newcore-rp2350/include/linux/slab.h **** 		unsigned int usersize;		/* Usercopy region size */
 355:/mnt/c/Users/31740/Documents/codes/newcore-rp2350/include/linux/slab.h **** 	#endif
 356:/mnt/c/Users/31740/Documents/codes/newcore-rp2350/include/linux/slab.h **** 	
 357:/mnt/c/Users/31740/Documents/codes/newcore-rp2350/include/linux/slab.h **** 		struct kmem_cache_node *node[MAX_NUMNODES];
 358:/mnt/c/Users/31740/Documents/codes/newcore-rp2350/include/linux/slab.h **** 	};
 359:/mnt/c/Users/31740/Documents/codes/newcore-rp2350/include/linux/slab.h **** 					
ARM GAS  /tmp/ccZI6Oms.s 			page 25


 360:/mnt/c/Users/31740/Documents/codes/newcore-rp2350/include/linux/slab.h **** 
 361:/mnt/c/Users/31740/Documents/codes/newcore-rp2350/include/linux/slab.h **** 
 362:/mnt/c/Users/31740/Documents/codes/newcore-rp2350/include/linux/slab.h **** 
 363:/mnt/c/Users/31740/Documents/codes/newcore-rp2350/include/linux/slab.h **** 
 364:/mnt/c/Users/31740/Documents/codes/newcore-rp2350/include/linux/slab.h **** #define KMALLOC_WAIT 1
 365:/mnt/c/Users/31740/Documents/codes/newcore-rp2350/include/linux/slab.h **** 
 366:/mnt/c/Users/31740/Documents/codes/newcore-rp2350/include/linux/slab.h **** 
 367:/mnt/c/Users/31740/Documents/codes/newcore-rp2350/include/linux/slab.h **** extern void* __smalloc__(u32 size, gfp_t flags);
 368:/mnt/c/Users/31740/Documents/codes/newcore-rp2350/include/linux/slab.h **** extern void  __sfree__(void* addr);
 369:/mnt/c/Users/31740/Documents/codes/newcore-rp2350/include/linux/slab.h **** 
 370:/mnt/c/Users/31740/Documents/codes/newcore-rp2350/include/linux/slab.h **** 
 371:/mnt/c/Users/31740/Documents/codes/newcore-rp2350/include/linux/slab.h **** static void inline *vmalloc(unsigned long size){
 372:/mnt/c/Users/31740/Documents/codes/newcore-rp2350/include/linux/slab.h **** 	return __smalloc__(size,GFP_TRANSHUGE_LIGHT);
 373:/mnt/c/Users/31740/Documents/codes/newcore-rp2350/include/linux/slab.h **** }
 374:/mnt/c/Users/31740/Documents/codes/newcore-rp2350/include/linux/slab.h **** 
 375:/mnt/c/Users/31740/Documents/codes/newcore-rp2350/include/linux/slab.h **** static void inline vfree(void *addr){
 376:/mnt/c/Users/31740/Documents/codes/newcore-rp2350/include/linux/slab.h **** 	__sfree__(addr);
 377:/mnt/c/Users/31740/Documents/codes/newcore-rp2350/include/linux/slab.h **** }
 378:/mnt/c/Users/31740/Documents/codes/newcore-rp2350/include/linux/slab.h **** 
 379:/mnt/c/Users/31740/Documents/codes/newcore-rp2350/include/linux/slab.h **** static void inline *kmalloc(size_t size, gfp_t flags){
 380:/mnt/c/Users/31740/Documents/codes/newcore-rp2350/include/linux/slab.h **** 	return __smalloc__((u32)size,flags);
 381:/mnt/c/Users/31740/Documents/codes/newcore-rp2350/include/linux/slab.h **** }
 382:/mnt/c/Users/31740/Documents/codes/newcore-rp2350/include/linux/slab.h **** 
 383:/mnt/c/Users/31740/Documents/codes/newcore-rp2350/include/linux/slab.h **** static void inline kfree(const void *ptr){
 384:/mnt/c/Users/31740/Documents/codes/newcore-rp2350/include/linux/slab.h **** 	__sfree__((void*)ptr);
 385:/mnt/c/Users/31740/Documents/codes/newcore-rp2350/include/linux/slab.h **** }
 386:/mnt/c/Users/31740/Documents/codes/newcore-rp2350/include/linux/slab.h **** 
 387:/mnt/c/Users/31740/Documents/codes/newcore-rp2350/include/linux/slab.h **** 
 388:/mnt/c/Users/31740/Documents/codes/newcore-rp2350/include/linux/slab.h **** 
 389:/mnt/c/Users/31740/Documents/codes/newcore-rp2350/include/linux/slab.h **** static inline void *kmalloc_array(size_t n, size_t size, gfp_t flags){
 390:/mnt/c/Users/31740/Documents/codes/newcore-rp2350/include/linux/slab.h **** 	return kmalloc(n * size, flags);
 391:/mnt/c/Users/31740/Documents/codes/newcore-rp2350/include/linux/slab.h **** }
 392:/mnt/c/Users/31740/Documents/codes/newcore-rp2350/include/linux/slab.h **** 
 393:/mnt/c/Users/31740/Documents/codes/newcore-rp2350/include/linux/slab.h **** 
 394:/mnt/c/Users/31740/Documents/codes/newcore-rp2350/include/linux/slab.h **** static void kfree_array(void **ptr,int n){
 395:/mnt/c/Users/31740/Documents/codes/newcore-rp2350/include/linux/slab.h **** 	int i;
 396:/mnt/c/Users/31740/Documents/codes/newcore-rp2350/include/linux/slab.h **** 	if (ptr) {
 397:/mnt/c/Users/31740/Documents/codes/newcore-rp2350/include/linux/slab.h **** 		for (i = 0; i < n; i++) {
 398:/mnt/c/Users/31740/Documents/codes/newcore-rp2350/include/linux/slab.h **** 			__sfree__(ptr[i]);
 399:/mnt/c/Users/31740/Documents/codes/newcore-rp2350/include/linux/slab.h **** 		}
 400:/mnt/c/Users/31740/Documents/codes/newcore-rp2350/include/linux/slab.h **** 		__sfree__(ptr);
 401:/mnt/c/Users/31740/Documents/codes/newcore-rp2350/include/linux/slab.h **** 	}
 402:/mnt/c/Users/31740/Documents/codes/newcore-rp2350/include/linux/slab.h **** }
 403:/mnt/c/Users/31740/Documents/codes/newcore-rp2350/include/linux/slab.h **** 
 404:/mnt/c/Users/31740/Documents/codes/newcore-rp2350/include/linux/slab.h **** static inline void* kmalloc_node_noprof(size_t size, gfp_t flags, int node)
 405:/mnt/c/Users/31740/Documents/codes/newcore-rp2350/include/linux/slab.h **** {
 406:/mnt/c/Users/31740/Documents/codes/newcore-rp2350/include/linux/slab.h ****     return kmalloc((u32)size,flags);
 407:/mnt/c/Users/31740/Documents/codes/newcore-rp2350/include/linux/slab.h **** }
 408:/mnt/c/Users/31740/Documents/codes/newcore-rp2350/include/linux/slab.h **** 
 409:/mnt/c/Users/31740/Documents/codes/newcore-rp2350/include/linux/slab.h **** 
 410:/mnt/c/Users/31740/Documents/codes/newcore-rp2350/include/linux/slab.h **** static void inline *kzalloc(size_t size, gfp_t flags){
 495              		.loc 3 410 54 is_stmt 1 view -0
 496              		.cfi_startproc
 497              		@ args = 0, pretend = 0, frame = 0
 498              		@ frame_needed = 0, uses_anonymous_args = 0
 499              		.loc 3 410 54 is_stmt 0 view .LVU137
 500 0000 38B5     		push	{r3, r4, r5, lr}
ARM GAS  /tmp/ccZI6Oms.s 			page 26


 501              	.LCFI9:
 502              		.cfi_def_cfa_offset 16
 503              		.cfi_offset 3, -16
 504              		.cfi_offset 4, -12
 505              		.cfi_offset 5, -8
 506              		.cfi_offset 14, -4
 507 0002 0546     		mov	r5, r0
 411:/mnt/c/Users/31740/Documents/codes/newcore-rp2350/include/linux/slab.h **** 	void* data = __smalloc__((u32)size,flags);
 508              		.loc 3 411 2 is_stmt 1 view .LVU138
 509              		.loc 3 411 15 is_stmt 0 view .LVU139
 510 0004 FFF7FEFF 		bl	__smalloc__
 511              	.LVL44:
 512              		.loc 3 411 15 view .LVU140
 513 0008 0446     		mov	r4, r0
 514              	.LVL45:
 412:/mnt/c/Users/31740/Documents/codes/newcore-rp2350/include/linux/slab.h **** 	memset(data,0,size);
 515              		.loc 3 412 2 is_stmt 1 view .LVU141
 516 000a 2A46     		mov	r2, r5
 517 000c 0021     		movs	r1, #0
 518 000e FFF7FEFF 		bl	memset
 519              	.LVL46:
 413:/mnt/c/Users/31740/Documents/codes/newcore-rp2350/include/linux/slab.h **** 	return data;
 520              		.loc 3 413 2 view .LVU142
 414:/mnt/c/Users/31740/Documents/codes/newcore-rp2350/include/linux/slab.h **** }
 521              		.loc 3 414 1 is_stmt 0 view .LVU143
 522 0012 2046     		mov	r0, r4
 523 0014 38BD     		pop	{r3, r4, r5, pc}
 524              		.loc 3 414 1 view .LVU144
 525              		.cfi_endproc
 526              	.LFE329:
 528              		.section	.text.cdev_alloc,"ax",%progbits
 529              		.align	1
 530              		.global	cdev_alloc
 531              		.syntax unified
 532              		.thumb
 533              		.thumb_func
 535              	cdev_alloc:
 536              	.LFB1043:
 373:/mnt/c/Users/31740/Documents/codes/newcore-rp2350/fs/char_device.c **** 	struct cdev *p = kzalloc(sizeof(struct cdev), GFP_KERNEL);
 537              		.loc 1 373 1 is_stmt 1 view -0
 538              		.cfi_startproc
 539              		@ args = 0, pretend = 0, frame = 0
 540              		@ frame_needed = 0, uses_anonymous_args = 0
 541 0000 08B5     		push	{r3, lr}
 542              	.LCFI10:
 543              		.cfi_def_cfa_offset 8
 544              		.cfi_offset 3, -8
 545              		.cfi_offset 14, -4
 374:/mnt/c/Users/31740/Documents/codes/newcore-rp2350/fs/char_device.c **** 	if (p) {
 546              		.loc 1 374 2 view .LVU146
 374:/mnt/c/Users/31740/Documents/codes/newcore-rp2350/fs/char_device.c **** 	if (p) {
 547              		.loc 1 374 19 is_stmt 0 view .LVU147
 548 0002 4FF44C61 		mov	r1, #3264
 549 0006 1820     		movs	r0, #24
 550 0008 FFF7FEFF 		bl	kzalloc
 551              	.LVL47:
 375:/mnt/c/Users/31740/Documents/codes/newcore-rp2350/fs/char_device.c **** 		INIT_LIST_HEAD(&p->list);
ARM GAS  /tmp/ccZI6Oms.s 			page 27


 552              		.loc 1 375 2 is_stmt 1 view .LVU148
 375:/mnt/c/Users/31740/Documents/codes/newcore-rp2350/fs/char_device.c **** 		INIT_LIST_HEAD(&p->list);
 553              		.loc 1 375 5 is_stmt 0 view .LVU149
 554 000c 0346     		mov	r3, r0
 555 000e 18B1     		cbz	r0, .L55
 376:/mnt/c/Users/31740/Documents/codes/newcore-rp2350/fs/char_device.c **** 		// kobject_init(&p->kobj, &ktype_cdev_dynamic);
 556              		.loc 1 376 3 is_stmt 1 view .LVU150
 557 0010 00F10802 		add	r2, r0, #8
 558              	.LVL48:
 559              	.LBB74:
 560              	.LBI74:
 561              		.file 4 "/mnt/c/Users/31740/Documents/codes/newcore-rp2350/include/linux/list.h"
   1:/mnt/c/Users/31740/Documents/codes/newcore-rp2350/include/linux/list.h **** /* SPDX-License-Identifier: GPL-2.0 */
   2:/mnt/c/Users/31740/Documents/codes/newcore-rp2350/include/linux/list.h **** #ifndef _LINUX_LIST_H
   3:/mnt/c/Users/31740/Documents/codes/newcore-rp2350/include/linux/list.h **** #define _LINUX_LIST_H
   4:/mnt/c/Users/31740/Documents/codes/newcore-rp2350/include/linux/list.h **** 
   5:/mnt/c/Users/31740/Documents/codes/newcore-rp2350/include/linux/list.h **** #include <linux/container_of.h>
   6:/mnt/c/Users/31740/Documents/codes/newcore-rp2350/include/linux/list.h **** #include <linux/types.h>
   7:/mnt/c/Users/31740/Documents/codes/newcore-rp2350/include/linux/list.h **** #include <linux/stddef.h>
   8:/mnt/c/Users/31740/Documents/codes/newcore-rp2350/include/linux/list.h **** #include <linux/poison.h>
   9:/mnt/c/Users/31740/Documents/codes/newcore-rp2350/include/linux/list.h **** #include <linux/const.h>
  10:/mnt/c/Users/31740/Documents/codes/newcore-rp2350/include/linux/list.h **** 
  11:/mnt/c/Users/31740/Documents/codes/newcore-rp2350/include/linux/list.h **** #include <asm/barrier.h>
  12:/mnt/c/Users/31740/Documents/codes/newcore-rp2350/include/linux/list.h **** #include <linux/rwonce.h>
  13:/mnt/c/Users/31740/Documents/codes/newcore-rp2350/include/linux/list.h **** /*
  14:/mnt/c/Users/31740/Documents/codes/newcore-rp2350/include/linux/list.h ****  * Circular doubly linked list implementation.
  15:/mnt/c/Users/31740/Documents/codes/newcore-rp2350/include/linux/list.h ****  *
  16:/mnt/c/Users/31740/Documents/codes/newcore-rp2350/include/linux/list.h ****  * Some of the internal functions ("__xxx") are useful when
  17:/mnt/c/Users/31740/Documents/codes/newcore-rp2350/include/linux/list.h ****  * manipulating whole lists rather than single entries, as
  18:/mnt/c/Users/31740/Documents/codes/newcore-rp2350/include/linux/list.h ****  * sometimes we already know the next/prev entries and we can
  19:/mnt/c/Users/31740/Documents/codes/newcore-rp2350/include/linux/list.h ****  * generate better code by using them directly rather than
  20:/mnt/c/Users/31740/Documents/codes/newcore-rp2350/include/linux/list.h ****  * using the generic single-entry routines.
  21:/mnt/c/Users/31740/Documents/codes/newcore-rp2350/include/linux/list.h ****  */
  22:/mnt/c/Users/31740/Documents/codes/newcore-rp2350/include/linux/list.h **** 
  23:/mnt/c/Users/31740/Documents/codes/newcore-rp2350/include/linux/list.h **** #define LIST_HEAD_INIT(name) { &(name), &(name) }
  24:/mnt/c/Users/31740/Documents/codes/newcore-rp2350/include/linux/list.h **** 
  25:/mnt/c/Users/31740/Documents/codes/newcore-rp2350/include/linux/list.h **** #define LIST_HEAD(name) \
  26:/mnt/c/Users/31740/Documents/codes/newcore-rp2350/include/linux/list.h **** 	struct list_head name = LIST_HEAD_INIT(name)
  27:/mnt/c/Users/31740/Documents/codes/newcore-rp2350/include/linux/list.h **** 
  28:/mnt/c/Users/31740/Documents/codes/newcore-rp2350/include/linux/list.h **** /**
  29:/mnt/c/Users/31740/Documents/codes/newcore-rp2350/include/linux/list.h ****  * INIT_LIST_HEAD - Initialize a list_head structure
  30:/mnt/c/Users/31740/Documents/codes/newcore-rp2350/include/linux/list.h ****  * @list: list_head structure to be initialized.
  31:/mnt/c/Users/31740/Documents/codes/newcore-rp2350/include/linux/list.h ****  *
  32:/mnt/c/Users/31740/Documents/codes/newcore-rp2350/include/linux/list.h ****  * Initializes the list_head to point to itself.  If it is a list header,
  33:/mnt/c/Users/31740/Documents/codes/newcore-rp2350/include/linux/list.h ****  * the result is an empty list.
  34:/mnt/c/Users/31740/Documents/codes/newcore-rp2350/include/linux/list.h ****  */
  35:/mnt/c/Users/31740/Documents/codes/newcore-rp2350/include/linux/list.h **** static inline void INIT_LIST_HEAD(struct list_head *list)
 562              		.loc 4 35 20 view .LVU151
 563              	.LBB75:
  36:/mnt/c/Users/31740/Documents/codes/newcore-rp2350/include/linux/list.h **** {
  37:/mnt/c/Users/31740/Documents/codes/newcore-rp2350/include/linux/list.h **** 	WRITE_ONCE(list->next, list);
 564              		.loc 4 37 2 view .LVU152
 565              		.loc 4 37 2 view .LVU153
 566              	.LBB76:
 567              		.loc 4 37 2 view .LVU154
 568              		.loc 4 37 2 view .LVU155
 569              	.LBE76:
ARM GAS  /tmp/ccZI6Oms.s 			page 28


 570              		.loc 4 37 2 discriminator 2 view .LVU156
 571              		.loc 4 37 2 discriminator 2 view .LVU157
 572              		.loc 4 37 2 discriminator 2 view .LVU158
 573 0014 8260     		str	r2, [r0, #8]
 574              		.loc 4 37 2 discriminator 2 view .LVU159
 575              		.loc 4 37 2 discriminator 2 view .LVU160
  38:/mnt/c/Users/31740/Documents/codes/newcore-rp2350/include/linux/list.h **** 	WRITE_ONCE(list->prev, list);
 576              		.loc 4 38 2 view .LVU161
 577              		.loc 4 38 2 view .LVU162
 578              	.LBB77:
 579              		.loc 4 38 2 view .LVU163
 580              		.loc 4 38 2 view .LVU164
 581              	.LBE77:
 582              		.loc 4 38 2 discriminator 2 view .LVU165
 583              		.loc 4 38 2 discriminator 2 view .LVU166
 584              		.loc 4 38 2 discriminator 2 view .LVU167
 585 0016 C260     		str	r2, [r0, #12]
 586              		.loc 4 38 2 discriminator 2 view .LVU168
 587              		.loc 4 38 2 discriminator 2 view .LVU169
 588              	.LVL49:
 589              		.loc 4 38 2 is_stmt 0 discriminator 2 view .LVU170
 590              	.LBE75:
 591              	.LBE74:
 379:/mnt/c/Users/31740/Documents/codes/newcore-rp2350/fs/char_device.c **** } 
 592              		.loc 1 379 2 is_stmt 1 view .LVU171
 593              	.L55:
 380:/mnt/c/Users/31740/Documents/codes/newcore-rp2350/fs/char_device.c **** 
 594              		.loc 1 380 1 is_stmt 0 view .LVU172
 595 0018 1846     		mov	r0, r3
 596              	.LVL50:
 380:/mnt/c/Users/31740/Documents/codes/newcore-rp2350/fs/char_device.c **** 
 597              		.loc 1 380 1 view .LVU173
 598 001a 08BD     		pop	{r3, pc}
 380:/mnt/c/Users/31740/Documents/codes/newcore-rp2350/fs/char_device.c **** 
 599              		.loc 1 380 1 view .LVU174
 600              		.cfi_endproc
 601              	.LFE1043:
 603              		.section	.text.cdev_init,"ax",%progbits
 604              		.align	1
 605              		.global	cdev_init
 606              		.syntax unified
 607              		.thumb
 608              		.thumb_func
 610              	cdev_init:
 611              	.LVL51:
 612              	.LFB1044:
 391:/mnt/c/Users/31740/Documents/codes/newcore-rp2350/fs/char_device.c **** 	memset(cdev, 0, sizeof *cdev);
 613              		.loc 1 391 1 is_stmt 1 view -0
 614              		.cfi_startproc
 615              		@ args = 0, pretend = 0, frame = 0
 616              		@ frame_needed = 0, uses_anonymous_args = 0
 617              		@ link register save eliminated.
 392:/mnt/c/Users/31740/Documents/codes/newcore-rp2350/fs/char_device.c **** 	INIT_LIST_HEAD(&cdev->list);
 618              		.loc 1 392 2 view .LVU176
 619 0000 0023     		movs	r3, #0
 620 0002 0360     		str	r3, [r0]	@ unaligned
 621 0004 4360     		str	r3, [r0, #4]	@ unaligned
ARM GAS  /tmp/ccZI6Oms.s 			page 29


 622 0006 8360     		str	r3, [r0, #8]	@ unaligned
 623 0008 C360     		str	r3, [r0, #12]	@ unaligned
 624 000a 0361     		str	r3, [r0, #16]	@ unaligned
 625 000c 4361     		str	r3, [r0, #20]	@ unaligned
 393:/mnt/c/Users/31740/Documents/codes/newcore-rp2350/fs/char_device.c **** 	// kobject_init(&cdev->kobj, &ktype_cdev_default);
 626              		.loc 1 393 2 view .LVU177
 627 000e 00F10803 		add	r3, r0, #8
 628              	.LVL52:
 629              	.LBB78:
 630              	.LBI78:
  35:/mnt/c/Users/31740/Documents/codes/newcore-rp2350/include/linux/list.h **** {
 631              		.loc 4 35 20 view .LVU178
 632              	.LBB79:
  37:/mnt/c/Users/31740/Documents/codes/newcore-rp2350/include/linux/list.h **** 	WRITE_ONCE(list->prev, list);
 633              		.loc 4 37 2 view .LVU179
  37:/mnt/c/Users/31740/Documents/codes/newcore-rp2350/include/linux/list.h **** 	WRITE_ONCE(list->prev, list);
 634              		.loc 4 37 2 view .LVU180
 635              	.LBB80:
  37:/mnt/c/Users/31740/Documents/codes/newcore-rp2350/include/linux/list.h **** 	WRITE_ONCE(list->prev, list);
 636              		.loc 4 37 2 view .LVU181
  37:/mnt/c/Users/31740/Documents/codes/newcore-rp2350/include/linux/list.h **** 	WRITE_ONCE(list->prev, list);
 637              		.loc 4 37 2 view .LVU182
 638              	.LBE80:
  37:/mnt/c/Users/31740/Documents/codes/newcore-rp2350/include/linux/list.h **** 	WRITE_ONCE(list->prev, list);
 639              		.loc 4 37 2 discriminator 2 view .LVU183
  37:/mnt/c/Users/31740/Documents/codes/newcore-rp2350/include/linux/list.h **** 	WRITE_ONCE(list->prev, list);
 640              		.loc 4 37 2 discriminator 2 view .LVU184
  37:/mnt/c/Users/31740/Documents/codes/newcore-rp2350/include/linux/list.h **** 	WRITE_ONCE(list->prev, list);
 641              		.loc 4 37 2 discriminator 2 view .LVU185
 642 0012 8360     		str	r3, [r0, #8]
  37:/mnt/c/Users/31740/Documents/codes/newcore-rp2350/include/linux/list.h **** 	WRITE_ONCE(list->prev, list);
 643              		.loc 4 37 2 discriminator 2 view .LVU186
  37:/mnt/c/Users/31740/Documents/codes/newcore-rp2350/include/linux/list.h **** 	WRITE_ONCE(list->prev, list);
 644              		.loc 4 37 2 discriminator 2 view .LVU187
 645              		.loc 4 38 2 view .LVU188
 646              		.loc 4 38 2 view .LVU189
 647              	.LBB81:
 648              		.loc 4 38 2 view .LVU190
 649              		.loc 4 38 2 view .LVU191
 650              	.LBE81:
 651              		.loc 4 38 2 discriminator 2 view .LVU192
 652              		.loc 4 38 2 discriminator 2 view .LVU193
 653              		.loc 4 38 2 discriminator 2 view .LVU194
 654 0014 C360     		str	r3, [r0, #12]
 655              		.loc 4 38 2 discriminator 2 view .LVU195
 656              		.loc 4 38 2 discriminator 2 view .LVU196
 657              	.LVL53:
 658              		.loc 4 38 2 is_stmt 0 discriminator 2 view .LVU197
 659              	.LBE79:
 660              	.LBE78:
 395:/mnt/c/Users/31740/Documents/codes/newcore-rp2350/fs/char_device.c **** }
 661              		.loc 1 395 2 is_stmt 1 view .LVU198
 395:/mnt/c/Users/31740/Documents/codes/newcore-rp2350/fs/char_device.c **** }
 662              		.loc 1 395 12 is_stmt 0 view .LVU199
 663 0016 4160     		str	r1, [r0, #4]
 396:/mnt/c/Users/31740/Documents/codes/newcore-rp2350/fs/char_device.c **** 
 664              		.loc 1 396 1 view .LVU200
ARM GAS  /tmp/ccZI6Oms.s 			page 30


 665 0018 7047     		bx	lr
 666              		.cfi_endproc
 667              	.LFE1044:
 669              		.section	.rodata.__register_chrdev_region.str1.4,"aMS",%progbits,1
 670              		.align	2
 671              	.LC0:
 672 0000 43485244 		.ascii	"CHRDEV \"%s\" major requested (%u) is greater than "
 672      45562022 
 672      25732220 
 672      6D616A6F 
 672      72207265 
 673 0031 74686520 		.ascii	"the maximum (%u)\012\000"
 673      6D617869 
 673      6D756D20 
 673      28257529 
 673      0A00
 674 0043 00       		.align	2
 675              	.LC1:
 676 0044 43485244 		.ascii	"CHRDEV \"%s\" minor range requested (%u-%u) is out "
 676      45562022 
 676      25732220 
 676      6D696E6F 
 676      72207261 
 677 0075 6F662072 		.ascii	"of range of maximum range (%u-%u) for a single majo"
 677      616E6765 
 677      206F6620 
 677      6D617869 
 677      6D756D20 
 678 00a8 720A00   		.ascii	"r\012\000"
 679 00ab 00       		.align	2
 680              	.LC2:
 681 00ac 43485244 		.ascii	"CHRDEV \"%s\" dynamic allocation region is full\012"
 681      45562022 
 681      25732220 
 681      64796E61 
 681      6D696320 
 682 00da 00       		.ascii	"\000"
 683              		.section	.text.__register_chrdev_region,"ax",%progbits
 684              		.align	1
 685              		.syntax unified
 686              		.thumb
 687              		.thumb_func
 689              	__register_chrdev_region:
 690              	.LVL54:
 691              	.LFB1034:
  62:/mnt/c/Users/31740/Documents/codes/newcore-rp2350/fs/char_device.c **** 	struct char_device_struct *cd, *curr, *prev = NULL;
 692              		.loc 1 62 1 is_stmt 1 view -0
 693              		.cfi_startproc
 694              		@ args = 0, pretend = 0, frame = 0
 695              		@ frame_needed = 0, uses_anonymous_args = 0
  62:/mnt/c/Users/31740/Documents/codes/newcore-rp2350/fs/char_device.c **** 	struct char_device_struct *cd, *curr, *prev = NULL;
 696              		.loc 1 62 1 is_stmt 0 view .LVU202
 697 0000 2DE9F04F 		push	{r4, r5, r6, r7, r8, r9, r10, fp, lr}
 698              	.LCFI11:
 699              		.cfi_def_cfa_offset 36
 700              		.cfi_offset 4, -36
 701              		.cfi_offset 5, -32
ARM GAS  /tmp/ccZI6Oms.s 			page 31


 702              		.cfi_offset 6, -28
 703              		.cfi_offset 7, -24
 704              		.cfi_offset 8, -20
 705              		.cfi_offset 9, -16
 706              		.cfi_offset 10, -12
 707              		.cfi_offset 11, -8
 708              		.cfi_offset 14, -4
 709 0004 85B0     		sub	sp, sp, #20
 710              	.LCFI12:
 711              		.cfi_def_cfa_offset 56
 712 0006 0446     		mov	r4, r0
 713 0008 9946     		mov	r9, r3
  63:/mnt/c/Users/31740/Documents/codes/newcore-rp2350/fs/char_device.c **** 	int ret;
 714              		.loc 1 63 2 is_stmt 1 view .LVU203
 715              	.LVL55:
  64:/mnt/c/Users/31740/Documents/codes/newcore-rp2350/fs/char_device.c **** 	int i;
 716              		.loc 1 64 2 view .LVU204
  65:/mnt/c/Users/31740/Documents/codes/newcore-rp2350/fs/char_device.c **** 
 717              		.loc 1 65 2 view .LVU205
  67:/mnt/c/Users/31740/Documents/codes/newcore-rp2350/fs/char_device.c **** 		pr_err("CHRDEV \"%s\" major requested (%u) is greater than the maximum (%u)\n",
 718              		.loc 1 67 2 view .LVU206
  67:/mnt/c/Users/31740/Documents/codes/newcore-rp2350/fs/char_device.c **** 		pr_err("CHRDEV \"%s\" major requested (%u) is greater than the maximum (%u)\n",
 719              		.loc 1 67 5 is_stmt 0 view .LVU207
 720 000a B0F5007F 		cmp	r0, #512
 721 000e 1ED2     		bcs	.L73
 722 0010 0F46     		mov	r7, r1
 723 0012 1646     		mov	r6, r2
  73:/mnt/c/Users/31740/Documents/codes/newcore-rp2350/fs/char_device.c **** 		pr_err("CHRDEV \"%s\" minor range requested (%u-%u) is out of range of maximum range (%u-%u) for 
 724              		.loc 1 73 2 is_stmt 1 view .LVU208
  73:/mnt/c/Users/31740/Documents/codes/newcore-rp2350/fs/char_device.c **** 		pr_err("CHRDEV \"%s\" minor range requested (%u-%u) is out of range of maximum range (%u-%u) for 
 725              		.loc 1 73 30 is_stmt 0 view .LVU209
 726 0014 C1F58013 		rsb	r3, r1, #1048576
 727              	.LVL56:
  73:/mnt/c/Users/31740/Documents/codes/newcore-rp2350/fs/char_device.c **** 		pr_err("CHRDEV \"%s\" minor range requested (%u-%u) is out of range of maximum range (%u-%u) for 
 728              		.loc 1 73 5 view .LVU210
 729 0018 9342     		cmp	r3, r2
 730 001a 24D3     		bcc	.L74
  79:/mnt/c/Users/31740/Documents/codes/newcore-rp2350/fs/char_device.c **** 	if (cd == NULL)
 731              		.loc 1 79 2 is_stmt 1 view .LVU211
  79:/mnt/c/Users/31740/Documents/codes/newcore-rp2350/fs/char_device.c **** 	if (cd == NULL)
 732              		.loc 1 79 7 is_stmt 0 view .LVU212
 733 001c 4FF44C61 		mov	r1, #3264
 734              	.LVL57:
  79:/mnt/c/Users/31740/Documents/codes/newcore-rp2350/fs/char_device.c **** 	if (cd == NULL)
 735              		.loc 1 79 7 view .LVU213
 736 0020 5420     		movs	r0, #84
 737              	.LVL58:
  79:/mnt/c/Users/31740/Documents/codes/newcore-rp2350/fs/char_device.c **** 	if (cd == NULL)
 738              		.loc 1 79 7 view .LVU214
 739 0022 FFF7FEFF 		bl	kzalloc
 740              	.LVL59:
  80:/mnt/c/Users/31740/Documents/codes/newcore-rp2350/fs/char_device.c **** 		return ERR_PTR(-ENOMEM);
 741              		.loc 1 80 2 is_stmt 1 view .LVU215
  80:/mnt/c/Users/31740/Documents/codes/newcore-rp2350/fs/char_device.c **** 		return ERR_PTR(-ENOMEM);
 742              		.loc 1 80 5 is_stmt 0 view .LVU216
 743 0026 8046     		mov	r8, r0
 744 0028 0028     		cmp	r0, #0
ARM GAS  /tmp/ccZI6Oms.s 			page 32


 745 002a 71D0     		beq	.L71
  83:/mnt/c/Users/31740/Documents/codes/newcore-rp2350/fs/char_device.c **** 
 746              		.loc 1 83 2 is_stmt 1 view .LVU217
  85:/mnt/c/Users/31740/Documents/codes/newcore-rp2350/fs/char_device.c **** 		ret = find_dynamic_major();
 747              		.loc 1 85 2 view .LVU218
  85:/mnt/c/Users/31740/Documents/codes/newcore-rp2350/fs/char_device.c **** 		ret = find_dynamic_major();
 748              		.loc 1 85 5 is_stmt 0 view .LVU219
 749 002c 74B3     		cbz	r4, .L75
 750              	.LVL60:
 751              	.L63:
  95:/mnt/c/Users/31740/Documents/codes/newcore-rp2350/fs/char_device.c **** 	i = major_to_index(major);
 752              		.loc 1 95 2 is_stmt 1 view .LVU220
  96:/mnt/c/Users/31740/Documents/codes/newcore-rp2350/fs/char_device.c **** 	for (curr = chrdevs[i]; curr; prev = curr, curr = curr->next) {
 753              		.loc 1 96 2 view .LVU221
 754              	.LBB82:
 755              	.LBI82:
  32:/mnt/c/Users/31740/Documents/codes/newcore-rp2350/fs/char_device.c **** {
 756              		.loc 1 32 19 view .LVU222
 757              	.LBB83:
  34:/mnt/c/Users/31740/Documents/codes/newcore-rp2350/fs/char_device.c **** }
 758              		.loc 1 34 2 view .LVU223
  34:/mnt/c/Users/31740/Documents/codes/newcore-rp2350/fs/char_device.c **** }
 759              		.loc 1 34 15 is_stmt 0 view .LVU224
 760 002e 3A4D     		ldr	r5, .L78
 761 0030 A5FB0435 		umull	r3, r5, r5, r4
 762 0034 631B     		subs	r3, r4, r5
 763 0036 05EB5305 		add	r5, r5, r3, lsr #1
 764 003a AD09     		lsrs	r5, r5, #6
 765 003c C5EBC515 		rsb	r5, r5, r5, lsl #7
 766 0040 651B     		subs	r5, r4, r5
 767              	.LVL61:
  34:/mnt/c/Users/31740/Documents/codes/newcore-rp2350/fs/char_device.c **** }
 768              		.loc 1 34 15 view .LVU225
 769              	.LBE83:
 770              	.LBE82:
  97:/mnt/c/Users/31740/Documents/codes/newcore-rp2350/fs/char_device.c **** 		if (curr->major < major)
 771              		.loc 1 97 2 is_stmt 1 view .LVU226
  97:/mnt/c/Users/31740/Documents/codes/newcore-rp2350/fs/char_device.c **** 		if (curr->major < major)
 772              		.loc 1 97 12 is_stmt 0 view .LVU227
 773 0042 364B     		ldr	r3, .L78+4
 774 0044 53F825A0 		ldr	r10, [r3, r5, lsl #2]
 775              	.LVL62:
  63:/mnt/c/Users/31740/Documents/codes/newcore-rp2350/fs/char_device.c **** 	int ret;
 776              		.loc 1 63 41 view .LVU228
 777 0048 4FF0000B 		mov	fp, #0
  97:/mnt/c/Users/31740/Documents/codes/newcore-rp2350/fs/char_device.c **** 		if (curr->major < major)
 778              		.loc 1 97 2 view .LVU229
 779 004c 32E0     		b	.L66
 780              	.LVL63:
 781              	.L73:
  68:/mnt/c/Users/31740/Documents/codes/newcore-rp2350/fs/char_device.c **** 		       name, major, CHRDEV_MAJOR_MAX-1);
 782              		.loc 1 68 3 is_stmt 1 view .LVU230
 783 004e 40F2FF13 		movw	r3, #511
 784              	.LVL64:
  68:/mnt/c/Users/31740/Documents/codes/newcore-rp2350/fs/char_device.c **** 		       name, major, CHRDEV_MAJOR_MAX-1);
 785              		.loc 1 68 3 is_stmt 0 view .LVU231
 786 0052 0093     		str	r3, [sp]
ARM GAS  /tmp/ccZI6Oms.s 			page 33


 787 0054 0346     		mov	r3, r0
 788 0056 4A46     		mov	r2, r9
 789              	.LVL65:
  68:/mnt/c/Users/31740/Documents/codes/newcore-rp2350/fs/char_device.c **** 		       name, major, CHRDEV_MAJOR_MAX-1);
 790              		.loc 1 68 3 view .LVU232
 791 0058 3149     		ldr	r1, .L78+8
 792              	.LVL66:
  68:/mnt/c/Users/31740/Documents/codes/newcore-rp2350/fs/char_device.c **** 		       name, major, CHRDEV_MAJOR_MAX-1);
 793              		.loc 1 68 3 view .LVU233
 794 005a 0320     		movs	r0, #3
 795              	.LVL67:
  68:/mnt/c/Users/31740/Documents/codes/newcore-rp2350/fs/char_device.c **** 		       name, major, CHRDEV_MAJOR_MAX-1);
 796              		.loc 1 68 3 view .LVU234
 797 005c FFF7FEFF 		bl	printk
 798              	.LVL68:
  70:/mnt/c/Users/31740/Documents/codes/newcore-rp2350/fs/char_device.c **** 	}
 799              		.loc 1 70 3 is_stmt 1 view .LVU235
  70:/mnt/c/Users/31740/Documents/codes/newcore-rp2350/fs/char_device.c **** 	}
 800              		.loc 1 70 10 is_stmt 0 view .LVU236
 801 0060 6FF01508 		mvn	r8, #21
 802 0064 0EE0     		b	.L59
 803              	.LVL69:
 804              	.L74:
  74:/mnt/c/Users/31740/Documents/codes/newcore-rp2350/fs/char_device.c **** 			name, baseminor, baseminor + minorct - 1, 0, MINORMASK);
 805              		.loc 1 74 3 is_stmt 1 view .LVU237
 806 0066 0E44     		add	r6, r6, r1
 807 0068 2E4B     		ldr	r3, .L78+12
 808 006a 0293     		str	r3, [sp, #8]
 809 006c 0023     		movs	r3, #0
 810 006e 0193     		str	r3, [sp, #4]
 811 0070 013E     		subs	r6, r6, #1
 812 0072 0096     		str	r6, [sp]
 813 0074 0B46     		mov	r3, r1
 814 0076 4A46     		mov	r2, r9
 815              	.LVL70:
  74:/mnt/c/Users/31740/Documents/codes/newcore-rp2350/fs/char_device.c **** 			name, baseminor, baseminor + minorct - 1, 0, MINORMASK);
 816              		.loc 1 74 3 is_stmt 0 view .LVU238
 817 0078 2B49     		ldr	r1, .L78+16
 818              	.LVL71:
  74:/mnt/c/Users/31740/Documents/codes/newcore-rp2350/fs/char_device.c **** 			name, baseminor, baseminor + minorct - 1, 0, MINORMASK);
 819              		.loc 1 74 3 view .LVU239
 820 007a 0320     		movs	r0, #3
 821              	.LVL72:
  74:/mnt/c/Users/31740/Documents/codes/newcore-rp2350/fs/char_device.c **** 			name, baseminor, baseminor + minorct - 1, 0, MINORMASK);
 822              		.loc 1 74 3 view .LVU240
 823 007c FFF7FEFF 		bl	printk
 824              	.LVL73:
  76:/mnt/c/Users/31740/Documents/codes/newcore-rp2350/fs/char_device.c **** 	}
 825              		.loc 1 76 3 is_stmt 1 view .LVU241
  76:/mnt/c/Users/31740/Documents/codes/newcore-rp2350/fs/char_device.c **** 	}
 826              		.loc 1 76 10 is_stmt 0 view .LVU242
 827 0080 6FF01508 		mvn	r8, #21
 828              	.LVL74:
 829              	.L59:
 132:/mnt/c/Users/31740/Documents/codes/newcore-rp2350/fs/char_device.c **** 
 830              		.loc 1 132 1 view .LVU243
 831 0084 4046     		mov	r0, r8
ARM GAS  /tmp/ccZI6Oms.s 			page 34


 832 0086 05B0     		add	sp, sp, #20
 833              	.LCFI13:
 834              		.cfi_remember_state
 835              		.cfi_def_cfa_offset 36
 836              		@ sp needed
 837 0088 BDE8F08F 		pop	{r4, r5, r6, r7, r8, r9, r10, fp, pc}
 838              	.LVL75:
 839              	.L75:
 840              	.LCFI14:
 841              		.cfi_restore_state
  86:/mnt/c/Users/31740/Documents/codes/newcore-rp2350/fs/char_device.c **** 		if (ret < 0) {
 842              		.loc 1 86 3 is_stmt 1 view .LVU244
  86:/mnt/c/Users/31740/Documents/codes/newcore-rp2350/fs/char_device.c **** 		if (ret < 0) {
 843              		.loc 1 86 9 is_stmt 0 view .LVU245
 844 008c FFF7FEFF 		bl	find_dynamic_major
 845              	.LVL76:
  87:/mnt/c/Users/31740/Documents/codes/newcore-rp2350/fs/char_device.c **** 			pr_err("CHRDEV \"%s\" dynamic allocation region is full\n",
 846              		.loc 1 87 3 is_stmt 1 view .LVU246
  87:/mnt/c/Users/31740/Documents/codes/newcore-rp2350/fs/char_device.c **** 			pr_err("CHRDEV \"%s\" dynamic allocation region is full\n",
 847              		.loc 1 87 6 is_stmt 0 view .LVU247
 848 0090 041E     		subs	r4, r0, #0
 849              	.LVL77:
  87:/mnt/c/Users/31740/Documents/codes/newcore-rp2350/fs/char_device.c **** 			pr_err("CHRDEV \"%s\" dynamic allocation region is full\n",
 850              		.loc 1 87 6 view .LVU248
 851 0092 CCDA     		bge	.L63
  88:/mnt/c/Users/31740/Documents/codes/newcore-rp2350/fs/char_device.c **** 			       name);
 852              		.loc 1 88 4 is_stmt 1 view .LVU249
 853 0094 4A46     		mov	r2, r9
 854 0096 2549     		ldr	r1, .L78+20
 855 0098 0320     		movs	r0, #3
 856              	.LVL78:
  88:/mnt/c/Users/31740/Documents/codes/newcore-rp2350/fs/char_device.c **** 			       name);
 857              		.loc 1 88 4 is_stmt 0 view .LVU250
 858 009a FFF7FEFF 		bl	printk
 859              	.LVL79:
  90:/mnt/c/Users/31740/Documents/codes/newcore-rp2350/fs/char_device.c **** 		}
 860              		.loc 1 90 4 is_stmt 1 view .LVU251
 861 009e 01E0     		b	.L65
 862              	.LVL80:
 863              	.L76:
  95:/mnt/c/Users/31740/Documents/codes/newcore-rp2350/fs/char_device.c **** 	i = major_to_index(major);
 864              		.loc 1 95 6 is_stmt 0 view .LVU252
 865 00a0 6FF00F04 		mvn	r4, #15
 866              	.LVL81:
 867              	.L65:
 129:/mnt/c/Users/31740/Documents/codes/newcore-rp2350/fs/char_device.c **** 	kfree(cd);
 868              		.loc 1 129 2 is_stmt 1 view .LVU253
 130:/mnt/c/Users/31740/Documents/codes/newcore-rp2350/fs/char_device.c **** 	return ERR_PTR(ret);
 869              		.loc 1 130 2 view .LVU254
 870              	.LBB84:
 871              	.LBI84:
 383:/mnt/c/Users/31740/Documents/codes/newcore-rp2350/include/linux/slab.h **** 	__sfree__((void*)ptr);
 872              		.loc 3 383 20 view .LVU255
 873              	.LBB85:
 384:/mnt/c/Users/31740/Documents/codes/newcore-rp2350/include/linux/slab.h **** }
 874              		.loc 3 384 2 view .LVU256
 875 00a4 4046     		mov	r0, r8
ARM GAS  /tmp/ccZI6Oms.s 			page 35


 876 00a6 FFF7FEFF 		bl	__sfree__
 877              	.LVL82:
 384:/mnt/c/Users/31740/Documents/codes/newcore-rp2350/include/linux/slab.h **** }
 878              		.loc 3 384 2 is_stmt 0 view .LVU257
 879              	.LBE85:
 880              	.LBE84:
 131:/mnt/c/Users/31740/Documents/codes/newcore-rp2350/fs/char_device.c **** }
 881              		.loc 1 131 2 is_stmt 1 view .LVU258
 882              	.LBB86:
 883              	.LBI86:
 884              		.file 5 "/mnt/c/Users/31740/Documents/codes/newcore-rp2350/include/linux/err.h"
   1:/mnt/c/Users/31740/Documents/codes/newcore-rp2350/include/linux/err.h **** /* SPDX-License-Identifier: GPL-2.0 */
   2:/mnt/c/Users/31740/Documents/codes/newcore-rp2350/include/linux/err.h **** #ifndef _LINUX_ERR_H
   3:/mnt/c/Users/31740/Documents/codes/newcore-rp2350/include/linux/err.h **** #define _LINUX_ERR_H
   4:/mnt/c/Users/31740/Documents/codes/newcore-rp2350/include/linux/err.h **** 
   5:/mnt/c/Users/31740/Documents/codes/newcore-rp2350/include/linux/err.h **** #include <linux/compiler_attributes.h>
   6:/mnt/c/Users/31740/Documents/codes/newcore-rp2350/include/linux/err.h **** #include <linux/compiler.h>
   7:/mnt/c/Users/31740/Documents/codes/newcore-rp2350/include/linux/err.h **** #include <linux/types.h>
   8:/mnt/c/Users/31740/Documents/codes/newcore-rp2350/include/linux/err.h **** 
   9:/mnt/c/Users/31740/Documents/codes/newcore-rp2350/include/linux/err.h **** #include <asm/errno.h>
  10:/mnt/c/Users/31740/Documents/codes/newcore-rp2350/include/linux/err.h **** 
  11:/mnt/c/Users/31740/Documents/codes/newcore-rp2350/include/linux/err.h **** /*
  12:/mnt/c/Users/31740/Documents/codes/newcore-rp2350/include/linux/err.h ****  * Kernel pointers have redundant information, so we can use a
  13:/mnt/c/Users/31740/Documents/codes/newcore-rp2350/include/linux/err.h ****  * scheme where we can return either an error code or a normal
  14:/mnt/c/Users/31740/Documents/codes/newcore-rp2350/include/linux/err.h ****  * pointer with the same return value.
  15:/mnt/c/Users/31740/Documents/codes/newcore-rp2350/include/linux/err.h ****  *
  16:/mnt/c/Users/31740/Documents/codes/newcore-rp2350/include/linux/err.h ****  * This should be a per-architecture thing, to allow different
  17:/mnt/c/Users/31740/Documents/codes/newcore-rp2350/include/linux/err.h ****  * error and pointer decisions.
  18:/mnt/c/Users/31740/Documents/codes/newcore-rp2350/include/linux/err.h ****  */
  19:/mnt/c/Users/31740/Documents/codes/newcore-rp2350/include/linux/err.h **** #define MAX_ERRNO	4095
  20:/mnt/c/Users/31740/Documents/codes/newcore-rp2350/include/linux/err.h **** 
  21:/mnt/c/Users/31740/Documents/codes/newcore-rp2350/include/linux/err.h **** #ifndef __ASSEMBLY__
  22:/mnt/c/Users/31740/Documents/codes/newcore-rp2350/include/linux/err.h **** 
  23:/mnt/c/Users/31740/Documents/codes/newcore-rp2350/include/linux/err.h **** /**
  24:/mnt/c/Users/31740/Documents/codes/newcore-rp2350/include/linux/err.h ****  * IS_ERR_VALUE - Detect an error pointer.
  25:/mnt/c/Users/31740/Documents/codes/newcore-rp2350/include/linux/err.h ****  * @x: The pointer to check.
  26:/mnt/c/Users/31740/Documents/codes/newcore-rp2350/include/linux/err.h ****  *
  27:/mnt/c/Users/31740/Documents/codes/newcore-rp2350/include/linux/err.h ****  * Like IS_ERR(), but does not generate a compiler warning if result is unused.
  28:/mnt/c/Users/31740/Documents/codes/newcore-rp2350/include/linux/err.h ****  */
  29:/mnt/c/Users/31740/Documents/codes/newcore-rp2350/include/linux/err.h **** 
  30:/mnt/c/Users/31740/Documents/codes/newcore-rp2350/include/linux/err.h **** #ifndef unlikely
  31:/mnt/c/Users/31740/Documents/codes/newcore-rp2350/include/linux/err.h **** #  define unlikely(x) __builtin_expect(!!(x), 0)
  32:/mnt/c/Users/31740/Documents/codes/newcore-rp2350/include/linux/err.h **** #endif
  33:/mnt/c/Users/31740/Documents/codes/newcore-rp2350/include/linux/err.h **** 
  34:/mnt/c/Users/31740/Documents/codes/newcore-rp2350/include/linux/err.h **** #ifndef likely
  35:/mnt/c/Users/31740/Documents/codes/newcore-rp2350/include/linux/err.h **** #  define likely(x) __builtin_expect(!!(x), 1)
  36:/mnt/c/Users/31740/Documents/codes/newcore-rp2350/include/linux/err.h **** #endif
  37:/mnt/c/Users/31740/Documents/codes/newcore-rp2350/include/linux/err.h **** 
  38:/mnt/c/Users/31740/Documents/codes/newcore-rp2350/include/linux/err.h **** #define IS_ERR_VALUE(x) unlikely((unsigned long)(void *)(x) >= (unsigned long)-MAX_ERRNO)
  39:/mnt/c/Users/31740/Documents/codes/newcore-rp2350/include/linux/err.h **** 
  40:/mnt/c/Users/31740/Documents/codes/newcore-rp2350/include/linux/err.h **** /**
  41:/mnt/c/Users/31740/Documents/codes/newcore-rp2350/include/linux/err.h ****  * ERR_PTR - Create an error pointer.
  42:/mnt/c/Users/31740/Documents/codes/newcore-rp2350/include/linux/err.h ****  * @error: A negative error code.
  43:/mnt/c/Users/31740/Documents/codes/newcore-rp2350/include/linux/err.h ****  *
  44:/mnt/c/Users/31740/Documents/codes/newcore-rp2350/include/linux/err.h ****  * Encodes @error into a pointer value. Users should consider the result
  45:/mnt/c/Users/31740/Documents/codes/newcore-rp2350/include/linux/err.h ****  * opaque and not assume anything about how the error is encoded.
  46:/mnt/c/Users/31740/Documents/codes/newcore-rp2350/include/linux/err.h ****  *
ARM GAS  /tmp/ccZI6Oms.s 			page 36


  47:/mnt/c/Users/31740/Documents/codes/newcore-rp2350/include/linux/err.h ****  * Return: A pointer with @error encoded within its value.
  48:/mnt/c/Users/31740/Documents/codes/newcore-rp2350/include/linux/err.h ****  */
  49:/mnt/c/Users/31740/Documents/codes/newcore-rp2350/include/linux/err.h **** static inline void * __must_check ERR_PTR(long error)
 885              		.loc 5 49 35 view .LVU259
 886              	.LBB87:
  50:/mnt/c/Users/31740/Documents/codes/newcore-rp2350/include/linux/err.h **** {
  51:/mnt/c/Users/31740/Documents/codes/newcore-rp2350/include/linux/err.h **** 	return (void *) error;
 887              		.loc 5 51 2 view .LVU260
 888              		.loc 5 51 9 is_stmt 0 view .LVU261
 889 00aa A046     		mov	r8, r4
 890              	.LVL83:
 891              		.loc 5 51 9 view .LVU262
 892              	.LBE87:
 893              	.LBE86:
 131:/mnt/c/Users/31740/Documents/codes/newcore-rp2350/fs/char_device.c **** }
 894              		.loc 1 131 9 view .LVU263
 895 00ac EAE7     		b	.L59
 896              	.LVL84:
 897              	.L67:
  97:/mnt/c/Users/31740/Documents/codes/newcore-rp2350/fs/char_device.c **** 		if (curr->major < major)
 898              		.loc 1 97 43 is_stmt 1 discriminator 2 view .LVU264
  97:/mnt/c/Users/31740/Documents/codes/newcore-rp2350/fs/char_device.c **** 		if (curr->major < major)
 899              		.loc 1 97 37 is_stmt 0 discriminator 2 view .LVU265
 900 00ae D346     		mov	fp, r10
  97:/mnt/c/Users/31740/Documents/codes/newcore-rp2350/fs/char_device.c **** 		if (curr->major < major)
 901              		.loc 1 97 50 discriminator 2 view .LVU266
 902 00b0 DAF800A0 		ldr	r10, [r10]
 903              	.LVL85:
 904              	.L66:
  97:/mnt/c/Users/31740/Documents/codes/newcore-rp2350/fs/char_device.c **** 		if (curr->major < major)
 905              		.loc 1 97 26 is_stmt 1 discriminator 1 view .LVU267
 906 00b4 BAF1000F 		cmp	r10, #0
 907 00b8 0ED0     		beq	.L68
  98:/mnt/c/Users/31740/Documents/codes/newcore-rp2350/fs/char_device.c **** 			continue;
 908              		.loc 1 98 3 view .LVU268
  98:/mnt/c/Users/31740/Documents/codes/newcore-rp2350/fs/char_device.c **** 			continue;
 909              		.loc 1 98 11 is_stmt 0 view .LVU269
 910 00ba DAF80430 		ldr	r3, [r10, #4]
  98:/mnt/c/Users/31740/Documents/codes/newcore-rp2350/fs/char_device.c **** 			continue;
 911              		.loc 1 98 6 view .LVU270
 912 00be A342     		cmp	r3, r4
 913 00c0 F5D3     		bcc	.L67
 101:/mnt/c/Users/31740/Documents/codes/newcore-rp2350/fs/char_device.c **** 			break;
 914              		.loc 1 101 3 is_stmt 1 view .LVU271
 101:/mnt/c/Users/31740/Documents/codes/newcore-rp2350/fs/char_device.c **** 			break;
 915              		.loc 1 101 6 is_stmt 0 view .LVU272
 916 00c2 09D8     		bhi	.L68
 104:/mnt/c/Users/31740/Documents/codes/newcore-rp2350/fs/char_device.c **** 			continue;
 917              		.loc 1 104 3 is_stmt 1 view .LVU273
 104:/mnt/c/Users/31740/Documents/codes/newcore-rp2350/fs/char_device.c **** 			continue;
 918              		.loc 1 104 11 is_stmt 0 view .LVU274
 919 00c4 DAF80820 		ldr	r2, [r10, #8]
 104:/mnt/c/Users/31740/Documents/codes/newcore-rp2350/fs/char_device.c **** 			continue;
 920              		.loc 1 104 29 view .LVU275
 921 00c8 DAF80C30 		ldr	r3, [r10, #12]
 104:/mnt/c/Users/31740/Documents/codes/newcore-rp2350/fs/char_device.c **** 			continue;
 922              		.loc 1 104 23 view .LVU276
ARM GAS  /tmp/ccZI6Oms.s 			page 37


 923 00cc 1344     		add	r3, r3, r2
 104:/mnt/c/Users/31740/Documents/codes/newcore-rp2350/fs/char_device.c **** 			continue;
 924              		.loc 1 104 6 view .LVU277
 925 00ce BB42     		cmp	r3, r7
 926 00d0 EDD9     		bls	.L67
 107:/mnt/c/Users/31740/Documents/codes/newcore-rp2350/fs/char_device.c **** 			break;
 927              		.loc 1 107 3 is_stmt 1 view .LVU278
 107:/mnt/c/Users/31740/Documents/codes/newcore-rp2350/fs/char_device.c **** 			break;
 928              		.loc 1 107 36 is_stmt 0 view .LVU279
 929 00d2 F319     		adds	r3, r6, r7
 107:/mnt/c/Users/31740/Documents/codes/newcore-rp2350/fs/char_device.c **** 			break;
 930              		.loc 1 107 6 view .LVU280
 931 00d4 9A42     		cmp	r2, r3
 932 00d6 E3D3     		bcc	.L76
 933              	.L68:
 113:/mnt/c/Users/31740/Documents/codes/newcore-rp2350/fs/char_device.c **** 	cd->baseminor = baseminor;
 934              		.loc 1 113 2 is_stmt 1 view .LVU281
 113:/mnt/c/Users/31740/Documents/codes/newcore-rp2350/fs/char_device.c **** 	cd->baseminor = baseminor;
 935              		.loc 1 113 12 is_stmt 0 view .LVU282
 936 00d8 C8F80440 		str	r4, [r8, #4]
 114:/mnt/c/Users/31740/Documents/codes/newcore-rp2350/fs/char_device.c **** 	cd->minorct = minorct;
 937              		.loc 1 114 2 is_stmt 1 view .LVU283
 114:/mnt/c/Users/31740/Documents/codes/newcore-rp2350/fs/char_device.c **** 	cd->minorct = minorct;
 938              		.loc 1 114 16 is_stmt 0 view .LVU284
 939 00dc C8F80870 		str	r7, [r8, #8]
 115:/mnt/c/Users/31740/Documents/codes/newcore-rp2350/fs/char_device.c **** 	strscpy(cd->name, name, sizeof(cd->name));
 940              		.loc 1 115 2 is_stmt 1 view .LVU285
 115:/mnt/c/Users/31740/Documents/codes/newcore-rp2350/fs/char_device.c **** 	strscpy(cd->name, name, sizeof(cd->name));
 941              		.loc 1 115 14 is_stmt 0 view .LVU286
 942 00e0 C8F80C60 		str	r6, [r8, #12]
 116:/mnt/c/Users/31740/Documents/codes/newcore-rp2350/fs/char_device.c **** 
 943              		.loc 1 116 2 is_stmt 1 view .LVU287
 944 00e4 4022     		movs	r2, #64
 945 00e6 4946     		mov	r1, r9
 946 00e8 08F11000 		add	r0, r8, #16
 947 00ec FFF7FEFF 		bl	sized_strscpy
 948              	.LVL86:
 118:/mnt/c/Users/31740/Documents/codes/newcore-rp2350/fs/char_device.c **** 		cd->next = curr;
 949              		.loc 1 118 2 view .LVU288
 118:/mnt/c/Users/31740/Documents/codes/newcore-rp2350/fs/char_device.c **** 		cd->next = curr;
 950              		.loc 1 118 5 is_stmt 0 view .LVU289
 951 00f0 BBF1000F 		cmp	fp, #0
 952 00f4 06D0     		beq	.L77
 122:/mnt/c/Users/31740/Documents/codes/newcore-rp2350/fs/char_device.c **** 		prev->next = cd;
 953              		.loc 1 122 3 is_stmt 1 view .LVU290
 122:/mnt/c/Users/31740/Documents/codes/newcore-rp2350/fs/char_device.c **** 		prev->next = cd;
 954              		.loc 1 122 18 is_stmt 0 view .LVU291
 955 00f6 DBF80030 		ldr	r3, [fp]
 122:/mnt/c/Users/31740/Documents/codes/newcore-rp2350/fs/char_device.c **** 		prev->next = cd;
 956              		.loc 1 122 12 view .LVU292
 957 00fa C8F80030 		str	r3, [r8]
 123:/mnt/c/Users/31740/Documents/codes/newcore-rp2350/fs/char_device.c **** 	}
 958              		.loc 1 123 3 is_stmt 1 view .LVU293
 123:/mnt/c/Users/31740/Documents/codes/newcore-rp2350/fs/char_device.c **** 	}
 959              		.loc 1 123 14 is_stmt 0 view .LVU294
 960 00fe CBF80080 		str	r8, [fp]
 961 0102 BFE7     		b	.L59
ARM GAS  /tmp/ccZI6Oms.s 			page 38


 962              	.L77:
 119:/mnt/c/Users/31740/Documents/codes/newcore-rp2350/fs/char_device.c **** 		chrdevs[i] = cd;
 963              		.loc 1 119 3 is_stmt 1 view .LVU295
 119:/mnt/c/Users/31740/Documents/codes/newcore-rp2350/fs/char_device.c **** 		chrdevs[i] = cd;
 964              		.loc 1 119 12 is_stmt 0 view .LVU296
 965 0104 C8F800A0 		str	r10, [r8]
 120:/mnt/c/Users/31740/Documents/codes/newcore-rp2350/fs/char_device.c **** 	} else {
 966              		.loc 1 120 3 is_stmt 1 view .LVU297
 120:/mnt/c/Users/31740/Documents/codes/newcore-rp2350/fs/char_device.c **** 	} else {
 967              		.loc 1 120 14 is_stmt 0 view .LVU298
 968 0108 044B     		ldr	r3, .L78+4
 969 010a 43F82580 		str	r8, [r3, r5, lsl #2]
 970 010e B9E7     		b	.L59
 971              	.LVL87:
 972              	.L71:
  81:/mnt/c/Users/31740/Documents/codes/newcore-rp2350/fs/char_device.c **** 
 973              		.loc 1 81 10 view .LVU299
 974 0110 6FF00B08 		mvn	r8, #11
 975 0114 B6E7     		b	.L59
 976              	.L79:
 977 0116 00BF     		.align	2
 978              	.L78:
 979 0118 11080402 		.word	33818641
 980 011c 00000000 		.word	chrdevs
 981 0120 00000000 		.word	.LC0
 982 0124 FFFF0F00 		.word	1048575
 983 0128 44000000 		.word	.LC1
 984 012c AC000000 		.word	.LC2
 985              		.cfi_endproc
 986              	.LFE1034:
 988              		.section	.text.alloc_chrdev_region,"ax",%progbits
 989              		.align	1
 990              		.global	alloc_chrdev_region
 991              		.syntax unified
 992              		.thumb
 993              		.thumb_func
 995              	alloc_chrdev_region:
 996              	.LVL88:
 997              	.LFB1037:
 203:/mnt/c/Users/31740/Documents/codes/newcore-rp2350/fs/char_device.c **** struct char_device_struct *cd;
 998              		.loc 1 203 1 is_stmt 1 view -0
 999              		.cfi_startproc
 1000              		@ args = 0, pretend = 0, frame = 0
 1001              		@ frame_needed = 0, uses_anonymous_args = 0
 203:/mnt/c/Users/31740/Documents/codes/newcore-rp2350/fs/char_device.c **** struct char_device_struct *cd;
 1002              		.loc 1 203 1 is_stmt 0 view .LVU301
 1003 0000 10B5     		push	{r4, lr}
 1004              	.LCFI15:
 1005              		.cfi_def_cfa_offset 8
 1006              		.cfi_offset 4, -8
 1007              		.cfi_offset 14, -4
 1008 0002 0446     		mov	r4, r0
 204:/mnt/c/Users/31740/Documents/codes/newcore-rp2350/fs/char_device.c **** cd = __register_chrdev_region(0, baseminor, count, name);
 1009              		.loc 1 204 1 is_stmt 1 view .LVU302
 205:/mnt/c/Users/31740/Documents/codes/newcore-rp2350/fs/char_device.c **** if (IS_ERR(cd))
 1010              		.loc 1 205 1 view .LVU303
 205:/mnt/c/Users/31740/Documents/codes/newcore-rp2350/fs/char_device.c **** if (IS_ERR(cd))
ARM GAS  /tmp/ccZI6Oms.s 			page 39


 1011              		.loc 1 205 6 is_stmt 0 view .LVU304
 1012 0004 0020     		movs	r0, #0
 1013              	.LVL89:
 205:/mnt/c/Users/31740/Documents/codes/newcore-rp2350/fs/char_device.c **** if (IS_ERR(cd))
 1014              		.loc 1 205 6 view .LVU305
 1015 0006 FFF7FEFF 		bl	__register_chrdev_region
 1016              	.LVL90:
 205:/mnt/c/Users/31740/Documents/codes/newcore-rp2350/fs/char_device.c **** if (IS_ERR(cd))
 1017              		.loc 1 205 6 view .LVU306
 1018 000a 0346     		mov	r3, r0
 1019              	.LVL91:
 206:/mnt/c/Users/31740/Documents/codes/newcore-rp2350/fs/char_device.c **** return PTR_ERR(cd);
 1020              		.loc 1 206 1 is_stmt 1 view .LVU307
 1021              	.LBB88:
 1022              	.LBI88:
  52:/mnt/c/Users/31740/Documents/codes/newcore-rp2350/include/linux/err.h **** }
  53:/mnt/c/Users/31740/Documents/codes/newcore-rp2350/include/linux/err.h **** 
  54:/mnt/c/Users/31740/Documents/codes/newcore-rp2350/include/linux/err.h **** /* Return the pointer in the percpu address space. */
  55:/mnt/c/Users/31740/Documents/codes/newcore-rp2350/include/linux/err.h **** #define ERR_PTR_PCPU(error) ((void __percpu *)(unsigned long)ERR_PTR(error))
  56:/mnt/c/Users/31740/Documents/codes/newcore-rp2350/include/linux/err.h **** 
  57:/mnt/c/Users/31740/Documents/codes/newcore-rp2350/include/linux/err.h **** /**
  58:/mnt/c/Users/31740/Documents/codes/newcore-rp2350/include/linux/err.h ****  * PTR_ERR - Extract the error code from an error pointer.
  59:/mnt/c/Users/31740/Documents/codes/newcore-rp2350/include/linux/err.h ****  * @ptr: An error pointer.
  60:/mnt/c/Users/31740/Documents/codes/newcore-rp2350/include/linux/err.h ****  * Return: The error code within @ptr.
  61:/mnt/c/Users/31740/Documents/codes/newcore-rp2350/include/linux/err.h ****  */
  62:/mnt/c/Users/31740/Documents/codes/newcore-rp2350/include/linux/err.h **** static inline long __must_check PTR_ERR(__force const void *ptr)
  63:/mnt/c/Users/31740/Documents/codes/newcore-rp2350/include/linux/err.h **** {
  64:/mnt/c/Users/31740/Documents/codes/newcore-rp2350/include/linux/err.h **** 	return (long) ptr;
  65:/mnt/c/Users/31740/Documents/codes/newcore-rp2350/include/linux/err.h **** }
  66:/mnt/c/Users/31740/Documents/codes/newcore-rp2350/include/linux/err.h **** 
  67:/mnt/c/Users/31740/Documents/codes/newcore-rp2350/include/linux/err.h **** /* Read an error pointer from the percpu address space. */
  68:/mnt/c/Users/31740/Documents/codes/newcore-rp2350/include/linux/err.h **** #define PTR_ERR_PCPU(ptr) (PTR_ERR((const void *)(__force const unsigned long)(ptr)))
  69:/mnt/c/Users/31740/Documents/codes/newcore-rp2350/include/linux/err.h **** 
  70:/mnt/c/Users/31740/Documents/codes/newcore-rp2350/include/linux/err.h **** /**
  71:/mnt/c/Users/31740/Documents/codes/newcore-rp2350/include/linux/err.h ****  * IS_ERR - Detect an error pointer.
  72:/mnt/c/Users/31740/Documents/codes/newcore-rp2350/include/linux/err.h ****  * @ptr: The pointer to check.
  73:/mnt/c/Users/31740/Documents/codes/newcore-rp2350/include/linux/err.h ****  * Return: true if @ptr is an error pointer, false otherwise.
  74:/mnt/c/Users/31740/Documents/codes/newcore-rp2350/include/linux/err.h ****  */
  75:/mnt/c/Users/31740/Documents/codes/newcore-rp2350/include/linux/err.h **** static inline bool __must_check IS_ERR(__force const void *ptr)
 1023              		.loc 5 75 33 view .LVU308
 1024              	.LBB89:
  76:/mnt/c/Users/31740/Documents/codes/newcore-rp2350/include/linux/err.h **** {
  77:/mnt/c/Users/31740/Documents/codes/newcore-rp2350/include/linux/err.h **** 	return IS_ERR_VALUE((unsigned long)ptr);
 1025              		.loc 5 77 2 view .LVU309
 1026              		.loc 5 77 9 is_stmt 0 view .LVU310
 1027 000c 10F5805F 		cmn	r0, #4096
 1028 0010 94BF     		ite	ls
 1029 0012 0020     		movls	r0, #0
 1030              	.LVL92:
 1031              		.loc 5 77 9 view .LVU311
 1032 0014 0120     		movhi	r0, #1
 1033              	.LVL93:
 1034              		.loc 5 77 9 view .LVU312
 1035              	.LBE89:
 1036              	.LBE88:
 206:/mnt/c/Users/31740/Documents/codes/newcore-rp2350/fs/char_device.c **** return PTR_ERR(cd);
 1037              		.loc 1 206 4 discriminator 1 view .LVU313
ARM GAS  /tmp/ccZI6Oms.s 			page 40


 1038 0016 28B9     		cbnz	r0, .L84
 208:/mnt/c/Users/31740/Documents/codes/newcore-rp2350/fs/char_device.c **** return 0;
 1039              		.loc 1 208 1 is_stmt 1 view .LVU314
 208:/mnt/c/Users/31740/Documents/codes/newcore-rp2350/fs/char_device.c **** return 0;
 1040              		.loc 1 208 8 is_stmt 0 view .LVU315
 1041 0018 5A68     		ldr	r2, [r3, #4]
 1042 001a 9B68     		ldr	r3, [r3, #8]
 1043              	.LVL94:
 208:/mnt/c/Users/31740/Documents/codes/newcore-rp2350/fs/char_device.c **** return 0;
 1044              		.loc 1 208 8 view .LVU316
 1045 001c 43EA0253 		orr	r3, r3, r2, lsl #20
 208:/mnt/c/Users/31740/Documents/codes/newcore-rp2350/fs/char_device.c **** return 0;
 1046              		.loc 1 208 6 view .LVU317
 1047 0020 2360     		str	r3, [r4]
 209:/mnt/c/Users/31740/Documents/codes/newcore-rp2350/fs/char_device.c **** }
 1048              		.loc 1 209 1 is_stmt 1 view .LVU318
 1049              	.L80:
 210:/mnt/c/Users/31740/Documents/codes/newcore-rp2350/fs/char_device.c **** 
 1050              		.loc 1 210 1 is_stmt 0 view .LVU319
 1051 0022 10BD     		pop	{r4, pc}
 1052              	.LVL95:
 1053              	.L84:
 207:/mnt/c/Users/31740/Documents/codes/newcore-rp2350/fs/char_device.c **** *dev = MKDEV(cd->major, cd->baseminor);
 1054              		.loc 1 207 1 is_stmt 1 view .LVU320
 1055              	.LBB90:
 1056              	.LBI90:
  62:/mnt/c/Users/31740/Documents/codes/newcore-rp2350/include/linux/err.h **** {
 1057              		.loc 5 62 33 view .LVU321
 1058              	.LBB91:
  64:/mnt/c/Users/31740/Documents/codes/newcore-rp2350/include/linux/err.h **** }
 1059              		.loc 5 64 2 view .LVU322
  64:/mnt/c/Users/31740/Documents/codes/newcore-rp2350/include/linux/err.h **** }
 1060              		.loc 5 64 9 is_stmt 0 view .LVU323
 1061 0024 1846     		mov	r0, r3
 1062              	.LVL96:
  64:/mnt/c/Users/31740/Documents/codes/newcore-rp2350/include/linux/err.h **** }
 1063              		.loc 5 64 9 view .LVU324
 1064              	.LBE91:
 1065              	.LBE90:
 207:/mnt/c/Users/31740/Documents/codes/newcore-rp2350/fs/char_device.c **** *dev = MKDEV(cd->major, cd->baseminor);
 1066              		.loc 1 207 8 view .LVU325
 1067 0026 FCE7     		b	.L80
 1068              		.cfi_endproc
 1069              	.LFE1037:
 1071              		.section	.text.register_chrdev_region,"ax",%progbits
 1072              		.align	1
 1073              		.global	register_chrdev_region
 1074              		.syntax unified
 1075              		.thumb
 1076              		.thumb_func
 1078              	register_chrdev_region:
 1079              	.LVL97:
 1080              	.LFB1036:
 166:/mnt/c/Users/31740/Documents/codes/newcore-rp2350/fs/char_device.c **** 	struct char_device_struct *cd;
 1081              		.loc 1 166 1 is_stmt 1 view -0
 1082              		.cfi_startproc
 1083              		@ args = 0, pretend = 0, frame = 0
ARM GAS  /tmp/ccZI6Oms.s 			page 41


 1084              		@ frame_needed = 0, uses_anonymous_args = 0
 166:/mnt/c/Users/31740/Documents/codes/newcore-rp2350/fs/char_device.c **** 	struct char_device_struct *cd;
 1085              		.loc 1 166 1 is_stmt 0 view .LVU327
 1086 0000 2DE9F843 		push	{r3, r4, r5, r6, r7, r8, r9, lr}
 1087              	.LCFI16:
 1088              		.cfi_def_cfa_offset 32
 1089              		.cfi_offset 3, -32
 1090              		.cfi_offset 4, -28
 1091              		.cfi_offset 5, -24
 1092              		.cfi_offset 6, -20
 1093              		.cfi_offset 7, -16
 1094              		.cfi_offset 8, -12
 1095              		.cfi_offset 9, -8
 1096              		.cfi_offset 14, -4
 1097 0004 0546     		mov	r5, r0
 1098 0006 9146     		mov	r9, r2
 167:/mnt/c/Users/31740/Documents/codes/newcore-rp2350/fs/char_device.c **** 	dev_t to = from + count;
 1099              		.loc 1 167 2 is_stmt 1 view .LVU328
 168:/mnt/c/Users/31740/Documents/codes/newcore-rp2350/fs/char_device.c **** 	dev_t n, next;
 1100              		.loc 1 168 2 view .LVU329
 168:/mnt/c/Users/31740/Documents/codes/newcore-rp2350/fs/char_device.c **** 	dev_t n, next;
 1101              		.loc 1 168 8 is_stmt 0 view .LVU330
 1102 0008 00EB0108 		add	r8, r0, r1
 1103              	.LVL98:
 169:/mnt/c/Users/31740/Documents/codes/newcore-rp2350/fs/char_device.c **** 
 1104              		.loc 1 169 2 is_stmt 1 view .LVU331
 171:/mnt/c/Users/31740/Documents/codes/newcore-rp2350/fs/char_device.c **** 		next = MKDEV(MAJOR(n)+1, 0);
 1105              		.loc 1 171 2 view .LVU332
 171:/mnt/c/Users/31740/Documents/codes/newcore-rp2350/fs/char_device.c **** 		next = MKDEV(MAJOR(n)+1, 0);
 1106              		.loc 1 171 9 is_stmt 0 view .LVU333
 1107 000c 0446     		mov	r4, r0
 171:/mnt/c/Users/31740/Documents/codes/newcore-rp2350/fs/char_device.c **** 		next = MKDEV(MAJOR(n)+1, 0);
 1108              		.loc 1 171 2 view .LVU334
 1109 000e 0AE0     		b	.L86
 1110              	.LVL99:
 1111              	.L87:
 175:/mnt/c/Users/31740/Documents/codes/newcore-rp2350/fs/char_device.c **** 			       next - n, name);
 1112              		.loc 1 175 3 is_stmt 1 view .LVU335
 175:/mnt/c/Users/31740/Documents/codes/newcore-rp2350/fs/char_device.c **** 			       next - n, name);
 1113              		.loc 1 175 8 is_stmt 0 view .LVU336
 1114 0010 4B46     		mov	r3, r9
 1115 0012 3A1B     		subs	r2, r7, r4
 1116 0014 C4F31301 		ubfx	r1, r4, #0, #20
 1117 0018 FFF7FEFF 		bl	__register_chrdev_region
 1118              	.LVL100:
 1119 001c 0646     		mov	r6, r0
 1120              	.LVL101:
 177:/mnt/c/Users/31740/Documents/codes/newcore-rp2350/fs/char_device.c **** 			goto fail;
 1121              		.loc 1 177 3 is_stmt 1 view .LVU337
 1122              	.LBB92:
 1123              	.LBI92:
  75:/mnt/c/Users/31740/Documents/codes/newcore-rp2350/include/linux/err.h **** {
 1124              		.loc 5 75 33 view .LVU338
 1125              	.LBB93:
 1126              		.loc 5 77 2 view .LVU339
 1127              		.loc 5 77 2 is_stmt 0 view .LVU340
 1128              	.LBE93:
ARM GAS  /tmp/ccZI6Oms.s 			page 42


 1129              	.LBE92:
 177:/mnt/c/Users/31740/Documents/codes/newcore-rp2350/fs/char_device.c **** 			goto fail;
 1130              		.loc 1 177 6 discriminator 1 view .LVU341
 1131 001e 10F5805F 		cmn	r0, #4096
 1132 0022 18D8     		bhi	.L88
 171:/mnt/c/Users/31740/Documents/codes/newcore-rp2350/fs/char_device.c **** 		next = MKDEV(MAJOR(n)+1, 0);
 1133              		.loc 1 171 27 discriminator 2 view .LVU342
 1134 0024 3C46     		mov	r4, r7
 1135              	.LVL102:
 1136              	.L86:
 171:/mnt/c/Users/31740/Documents/codes/newcore-rp2350/fs/char_device.c **** 		next = MKDEV(MAJOR(n)+1, 0);
 1137              		.loc 1 171 19 is_stmt 1 discriminator 1 view .LVU343
 1138 0026 4445     		cmp	r4, r8
 1139 0028 07D2     		bcs	.L94
 172:/mnt/c/Users/31740/Documents/codes/newcore-rp2350/fs/char_device.c **** 		if (next > to)
 1140              		.loc 1 172 3 view .LVU344
 172:/mnt/c/Users/31740/Documents/codes/newcore-rp2350/fs/char_device.c **** 		if (next > to)
 1141              		.loc 1 172 10 is_stmt 0 view .LVU345
 1142 002a 200D     		lsrs	r0, r4, #20
 1143 002c 461C     		adds	r6, r0, #1
 172:/mnt/c/Users/31740/Documents/codes/newcore-rp2350/fs/char_device.c **** 		if (next > to)
 1144              		.loc 1 172 8 view .LVU346
 1145 002e 3705     		lsls	r7, r6, #20
 1146              	.LVL103:
 173:/mnt/c/Users/31740/Documents/codes/newcore-rp2350/fs/char_device.c **** 			next = to;
 1147              		.loc 1 173 3 is_stmt 1 view .LVU347
 173:/mnt/c/Users/31740/Documents/codes/newcore-rp2350/fs/char_device.c **** 			next = to;
 1148              		.loc 1 173 6 is_stmt 0 view .LVU348
 1149 0030 B8EB065F 		cmp	r8, r6, lsl #20
 1150 0034 ECD2     		bcs	.L87
 174:/mnt/c/Users/31740/Documents/codes/newcore-rp2350/fs/char_device.c **** 		cd = __register_chrdev_region(MAJOR(n), MINOR(n),
 1151              		.loc 1 174 9 view .LVU349
 1152 0036 4746     		mov	r7, r8
 1153              	.LVL104:
 174:/mnt/c/Users/31740/Documents/codes/newcore-rp2350/fs/char_device.c **** 		cd = __register_chrdev_region(MAJOR(n), MINOR(n),
 1154              		.loc 1 174 9 view .LVU350
 1155 0038 EAE7     		b	.L87
 1156              	.LVL105:
 1157              	.L94:
 180:/mnt/c/Users/31740/Documents/codes/newcore-rp2350/fs/char_device.c **** fail:
 1158              		.loc 1 180 9 view .LVU351
 1159 003a 0020     		movs	r0, #0
 1160 003c 0EE0     		b	.L85
 1161              	.LVL106:
 1162              	.L91:
 184:/mnt/c/Users/31740/Documents/codes/newcore-rp2350/fs/char_device.c **** 		kfree(__unregister_chrdev_region(MAJOR(n), MINOR(n), next - n));
 1163              		.loc 1 184 3 is_stmt 1 view .LVU352
 184:/mnt/c/Users/31740/Documents/codes/newcore-rp2350/fs/char_device.c **** 		kfree(__unregister_chrdev_region(MAJOR(n), MINOR(n), next - n));
 1164              		.loc 1 184 10 is_stmt 0 view .LVU353
 1165 003e 280D     		lsrs	r0, r5, #20
 1166 0040 421C     		adds	r2, r0, #1
 184:/mnt/c/Users/31740/Documents/codes/newcore-rp2350/fs/char_device.c **** 		kfree(__unregister_chrdev_region(MAJOR(n), MINOR(n), next - n));
 1167              		.loc 1 184 8 view .LVU354
 1168 0042 1705     		lsls	r7, r2, #20
 1169              	.LVL107:
 185:/mnt/c/Users/31740/Documents/codes/newcore-rp2350/fs/char_device.c **** 	}
 1170              		.loc 1 185 3 is_stmt 1 view .LVU355
ARM GAS  /tmp/ccZI6Oms.s 			page 43


 185:/mnt/c/Users/31740/Documents/codes/newcore-rp2350/fs/char_device.c **** 	}
 1171              		.loc 1 185 9 is_stmt 0 view .LVU356
 1172 0044 C5EB0252 		rsb	r2, r5, r2, lsl #20
 1173 0048 C5F31301 		ubfx	r1, r5, #0, #20
 1174 004c FFF7FEFF 		bl	__unregister_chrdev_region
 1175              	.LVL108:
 1176              	.LBB94:
 1177              	.LBI94:
 383:/mnt/c/Users/31740/Documents/codes/newcore-rp2350/include/linux/slab.h **** 	__sfree__((void*)ptr);
 1178              		.loc 3 383 20 is_stmt 1 view .LVU357
 1179              	.LBB95:
 384:/mnt/c/Users/31740/Documents/codes/newcore-rp2350/include/linux/slab.h **** }
 1180              		.loc 3 384 2 view .LVU358
 1181 0050 FFF7FEFF 		bl	__sfree__
 1182              	.LVL109:
 384:/mnt/c/Users/31740/Documents/codes/newcore-rp2350/include/linux/slab.h **** }
 1183              		.loc 3 384 2 is_stmt 0 view .LVU359
 1184              	.LBE95:
 1185              	.LBE94:
 183:/mnt/c/Users/31740/Documents/codes/newcore-rp2350/fs/char_device.c **** 		next = MKDEV(MAJOR(n)+1, 0);
 1186              		.loc 1 183 27 is_stmt 1 discriminator 3 view .LVU360
 183:/mnt/c/Users/31740/Documents/codes/newcore-rp2350/fs/char_device.c **** 		next = MKDEV(MAJOR(n)+1, 0);
 1187              		.loc 1 183 27 is_stmt 0 discriminator 3 view .LVU361
 1188 0054 3D46     		mov	r5, r7
 1189              	.LVL110:
 1190              	.L88:
 1191              	.LDL1:
 183:/mnt/c/Users/31740/Documents/codes/newcore-rp2350/fs/char_device.c **** 		next = MKDEV(MAJOR(n)+1, 0);
 1192              		.loc 1 183 19 is_stmt 1 discriminator 1 view .LVU362
 1193 0056 AC42     		cmp	r4, r5
 1194 0058 F1D8     		bhi	.L91
 187:/mnt/c/Users/31740/Documents/codes/newcore-rp2350/fs/char_device.c **** }
 1195              		.loc 1 187 2 view .LVU363
 1196              	.LVL111:
 1197              	.LBB96:
 1198              	.LBI96:
  62:/mnt/c/Users/31740/Documents/codes/newcore-rp2350/include/linux/err.h **** {
 1199              		.loc 5 62 33 view .LVU364
 1200              	.LBB97:
  64:/mnt/c/Users/31740/Documents/codes/newcore-rp2350/include/linux/err.h **** }
 1201              		.loc 5 64 2 view .LVU365
  64:/mnt/c/Users/31740/Documents/codes/newcore-rp2350/include/linux/err.h **** }
 1202              		.loc 5 64 9 is_stmt 0 view .LVU366
 1203 005a 3046     		mov	r0, r6
 1204              	.LVL112:
 1205              	.L85:
  64:/mnt/c/Users/31740/Documents/codes/newcore-rp2350/include/linux/err.h **** }
 1206              		.loc 5 64 9 view .LVU367
 1207              	.LBE97:
 1208              	.LBE96:
 188:/mnt/c/Users/31740/Documents/codes/newcore-rp2350/fs/char_device.c **** 
 1209              		.loc 1 188 1 view .LVU368
 1210 005c BDE8F883 		pop	{r3, r4, r5, r6, r7, r8, r9, pc}
 188:/mnt/c/Users/31740/Documents/codes/newcore-rp2350/fs/char_device.c **** 
 1211              		.loc 1 188 1 view .LVU369
 1212              		.cfi_endproc
 1213              	.LFE1036:
ARM GAS  /tmp/ccZI6Oms.s 			page 44


 1215              		.section	.text.__register_chrdev,"ax",%progbits
 1216              		.align	1
 1217              		.global	__register_chrdev
 1218              		.syntax unified
 1219              		.thumb
 1220              		.thumb_func
 1222              	__register_chrdev:
 1223              	.LVL113:
 1224              	.LFB1038:
 236:/mnt/c/Users/31740/Documents/codes/newcore-rp2350/fs/char_device.c ****     struct char_device_struct *cd;
 1225              		.loc 1 236 1 is_stmt 1 view -0
 1226              		.cfi_startproc
 1227              		@ args = 4, pretend = 0, frame = 0
 1228              		@ frame_needed = 0, uses_anonymous_args = 0
 236:/mnt/c/Users/31740/Documents/codes/newcore-rp2350/fs/char_device.c ****     struct char_device_struct *cd;
 1229              		.loc 1 236 1 is_stmt 0 view .LVU371
 1230 0000 2DE9F843 		push	{r3, r4, r5, r6, r7, r8, r9, lr}
 1231              	.LCFI17:
 1232              		.cfi_def_cfa_offset 32
 1233              		.cfi_offset 3, -32
 1234              		.cfi_offset 4, -28
 1235              		.cfi_offset 5, -24
 1236              		.cfi_offset 6, -20
 1237              		.cfi_offset 7, -16
 1238              		.cfi_offset 8, -12
 1239              		.cfi_offset 9, -8
 1240              		.cfi_offset 14, -4
 1241 0004 8046     		mov	r8, r0
 1242 0006 0E46     		mov	r6, r1
 1243 0008 1746     		mov	r7, r2
 1244 000a 089D     		ldr	r5, [sp, #32]
 237:/mnt/c/Users/31740/Documents/codes/newcore-rp2350/fs/char_device.c ****     struct cdev *cdev;
 1245              		.loc 1 237 5 is_stmt 1 view .LVU372
 238:/mnt/c/Users/31740/Documents/codes/newcore-rp2350/fs/char_device.c ****     int err = -ENOMEM;
 1246              		.loc 1 238 5 view .LVU373
 239:/mnt/c/Users/31740/Documents/codes/newcore-rp2350/fs/char_device.c **** 
 1247              		.loc 1 239 5 view .LVU374
 1248              	.LVL114:
 241:/mnt/c/Users/31740/Documents/codes/newcore-rp2350/fs/char_device.c ****     if (IS_ERR(cd))
 1249              		.loc 1 241 5 view .LVU375
 241:/mnt/c/Users/31740/Documents/codes/newcore-rp2350/fs/char_device.c ****     if (IS_ERR(cd))
 1250              		.loc 1 241 10 is_stmt 0 view .LVU376
 1251 000c FFF7FEFF 		bl	__register_chrdev_region
 1252              	.LVL115:
 241:/mnt/c/Users/31740/Documents/codes/newcore-rp2350/fs/char_device.c ****     if (IS_ERR(cd))
 1253              		.loc 1 241 10 view .LVU377
 1254 0010 0446     		mov	r4, r0
 1255              	.LVL116:
 242:/mnt/c/Users/31740/Documents/codes/newcore-rp2350/fs/char_device.c ****     return PTR_ERR(cd);
 1256              		.loc 1 242 5 is_stmt 1 view .LVU378
 1257              	.LBB98:
 1258              	.LBI98:
  75:/mnt/c/Users/31740/Documents/codes/newcore-rp2350/include/linux/err.h **** {
 1259              		.loc 5 75 33 view .LVU379
 1260              	.LBB99:
 1261              		.loc 5 77 2 view .LVU380
 1262              		.loc 5 77 2 is_stmt 0 view .LVU381
ARM GAS  /tmp/ccZI6Oms.s 			page 45


 1263              	.LBE99:
 1264              	.LBE98:
 242:/mnt/c/Users/31740/Documents/codes/newcore-rp2350/fs/char_device.c ****     return PTR_ERR(cd);
 1265              		.loc 1 242 8 discriminator 1 view .LVU382
 1266 0012 10F5805F 		cmn	r0, #4096
 1267 0016 15D8     		bhi	.L101
 245:/mnt/c/Users/31740/Documents/codes/newcore-rp2350/fs/char_device.c ****     if (!cdev)
 1268              		.loc 1 245 5 is_stmt 1 view .LVU383
 245:/mnt/c/Users/31740/Documents/codes/newcore-rp2350/fs/char_device.c ****     if (!cdev)
 1269              		.loc 1 245 12 is_stmt 0 view .LVU384
 1270 0018 FFF7FEFF 		bl	cdev_alloc
 1271              	.LVL117:
 246:/mnt/c/Users/31740/Documents/codes/newcore-rp2350/fs/char_device.c ****     goto out2;
 1272              		.loc 1 246 5 is_stmt 1 view .LVU385
 246:/mnt/c/Users/31740/Documents/codes/newcore-rp2350/fs/char_device.c ****     goto out2;
 1273              		.loc 1 246 8 is_stmt 0 view .LVU386
 1274 001c 8146     		mov	r9, r0
 1275 001e 98B1     		cbz	r0, .L99
 249:/mnt/c/Users/31740/Documents/codes/newcore-rp2350/fs/char_device.c ****     cdev->ops = fops;
 1276              		.loc 1 249 5 is_stmt 1 view .LVU387
 249:/mnt/c/Users/31740/Documents/codes/newcore-rp2350/fs/char_device.c ****     cdev->ops = fops;
 1277              		.loc 1 249 23 is_stmt 0 view .LVU388
 1278 0020 2B68     		ldr	r3, [r5]
 249:/mnt/c/Users/31740/Documents/codes/newcore-rp2350/fs/char_device.c ****     cdev->ops = fops;
 1279              		.loc 1 249 17 view .LVU389
 1280 0022 0360     		str	r3, [r0]
 250:/mnt/c/Users/31740/Documents/codes/newcore-rp2350/fs/char_device.c ****     // kobject_set_name(&cdev->kobj, "%s", name);
 1281              		.loc 1 250 5 is_stmt 1 view .LVU390
 250:/mnt/c/Users/31740/Documents/codes/newcore-rp2350/fs/char_device.c ****     // kobject_set_name(&cdev->kobj, "%s", name);
 1282              		.loc 1 250 15 is_stmt 0 view .LVU391
 1283 0024 4560     		str	r5, [r0, #4]
 254:/mnt/c/Users/31740/Documents/codes/newcore-rp2350/fs/char_device.c ****     if (err)
 1284              		.loc 1 254 5 is_stmt 1 view .LVU392
 254:/mnt/c/Users/31740/Documents/codes/newcore-rp2350/fs/char_device.c ****     if (err)
 1285              		.loc 1 254 26 is_stmt 0 view .LVU393
 1286 0026 6168     		ldr	r1, [r4, #4]
 254:/mnt/c/Users/31740/Documents/codes/newcore-rp2350/fs/char_device.c ****     if (err)
 1287              		.loc 1 254 11 view .LVU394
 1288 0028 3A46     		mov	r2, r7
 1289 002a 46EA0151 		orr	r1, r6, r1, lsl #20
 1290 002e FFF7FEFF 		bl	cdev_add
 1291              	.LVL118:
 255:/mnt/c/Users/31740/Documents/codes/newcore-rp2350/fs/char_device.c ****     goto out;
 1292              		.loc 1 255 5 is_stmt 1 view .LVU395
 255:/mnt/c/Users/31740/Documents/codes/newcore-rp2350/fs/char_device.c ****     goto out;
 1293              		.loc 1 255 8 is_stmt 0 view .LVU396
 1294 0032 0546     		mov	r5, r0
 1295 0034 50B9     		cbnz	r0, .L98
 258:/mnt/c/Users/31740/Documents/codes/newcore-rp2350/fs/char_device.c **** 
 1296              		.loc 1 258 5 is_stmt 1 view .LVU397
 258:/mnt/c/Users/31740/Documents/codes/newcore-rp2350/fs/char_device.c **** 
 1297              		.loc 1 258 14 is_stmt 0 view .LVU398
 1298 0036 C4F85090 		str	r9, [r4, #80]
 260:/mnt/c/Users/31740/Documents/codes/newcore-rp2350/fs/char_device.c **** out:
 1299              		.loc 1 260 5 is_stmt 1 view .LVU399
 260:/mnt/c/Users/31740/Documents/codes/newcore-rp2350/fs/char_device.c **** out:
 1300              		.loc 1 260 22 is_stmt 0 view .LVU400
ARM GAS  /tmp/ccZI6Oms.s 			page 46


 1301 003a B8F1000F 		cmp	r8, #0
 1302 003e 0CD1     		bne	.L95
 260:/mnt/c/Users/31740/Documents/codes/newcore-rp2350/fs/char_device.c **** out:
 1303              		.loc 1 260 26 discriminator 1 view .LVU401
 1304 0040 6568     		ldr	r5, [r4, #4]
 1305 0042 0AE0     		b	.L95
 1306              	.LVL119:
 1307              	.L101:
 243:/mnt/c/Users/31740/Documents/codes/newcore-rp2350/fs/char_device.c **** 
 1308              		.loc 1 243 5 is_stmt 1 view .LVU402
 1309              	.LBB100:
 1310              	.LBI100:
  62:/mnt/c/Users/31740/Documents/codes/newcore-rp2350/include/linux/err.h **** {
 1311              		.loc 5 62 33 view .LVU403
 1312              	.LBB101:
  64:/mnt/c/Users/31740/Documents/codes/newcore-rp2350/include/linux/err.h **** }
 1313              		.loc 5 64 2 view .LVU404
  64:/mnt/c/Users/31740/Documents/codes/newcore-rp2350/include/linux/err.h **** }
 1314              		.loc 5 64 9 is_stmt 0 view .LVU405
 1315 0044 0546     		mov	r5, r0
 1316              	.LVL120:
  64:/mnt/c/Users/31740/Documents/codes/newcore-rp2350/include/linux/err.h **** }
 1317              		.loc 5 64 9 view .LVU406
 1318              	.LBE101:
 1319              	.LBE100:
 243:/mnt/c/Users/31740/Documents/codes/newcore-rp2350/fs/char_device.c **** 
 1320              		.loc 1 243 12 view .LVU407
 1321 0046 08E0     		b	.L95
 1322              	.LVL121:
 1323              	.L99:
 239:/mnt/c/Users/31740/Documents/codes/newcore-rp2350/fs/char_device.c **** 
 1324              		.loc 1 239 9 view .LVU408
 1325 0048 6FF00B05 		mvn	r5, #11
 1326              	.LVL122:
 1327              	.L98:
 1328              	.LDL2:
 264:/mnt/c/Users/31740/Documents/codes/newcore-rp2350/fs/char_device.c ****     return err;
 1329              		.loc 1 264 5 is_stmt 1 view .LVU409
 264:/mnt/c/Users/31740/Documents/codes/newcore-rp2350/fs/char_device.c ****     return err;
 1330              		.loc 1 264 11 is_stmt 0 view .LVU410
 1331 004c 3A46     		mov	r2, r7
 1332 004e 3146     		mov	r1, r6
 1333 0050 6068     		ldr	r0, [r4, #4]
 1334 0052 FFF7FEFF 		bl	__unregister_chrdev_region
 1335              	.LVL123:
 1336              	.LBB102:
 1337              	.LBI102:
 383:/mnt/c/Users/31740/Documents/codes/newcore-rp2350/include/linux/slab.h **** 	__sfree__((void*)ptr);
 1338              		.loc 3 383 20 is_stmt 1 view .LVU411
 1339              	.LBB103:
 384:/mnt/c/Users/31740/Documents/codes/newcore-rp2350/include/linux/slab.h **** }
 1340              		.loc 3 384 2 view .LVU412
 1341 0056 FFF7FEFF 		bl	__sfree__
 1342              	.LVL124:
 384:/mnt/c/Users/31740/Documents/codes/newcore-rp2350/include/linux/slab.h **** }
 1343              		.loc 3 384 2 is_stmt 0 view .LVU413
 1344              	.LBE103:
ARM GAS  /tmp/ccZI6Oms.s 			page 47


 1345              	.LBE102:
 265:/mnt/c/Users/31740/Documents/codes/newcore-rp2350/fs/char_device.c **** }
 1346              		.loc 1 265 5 is_stmt 1 view .LVU414
 1347              	.L95:
 266:/mnt/c/Users/31740/Documents/codes/newcore-rp2350/fs/char_device.c **** 
 1348              		.loc 1 266 1 is_stmt 0 view .LVU415
 1349 005a 2846     		mov	r0, r5
 1350 005c BDE8F883 		pop	{r3, r4, r5, r6, r7, r8, r9, pc}
 266:/mnt/c/Users/31740/Documents/codes/newcore-rp2350/fs/char_device.c **** 
 1351              		.loc 1 266 1 view .LVU416
 1352              		.cfi_endproc
 1353              	.LFE1038:
 1355              		.section	.text.unregister_chrdev_region,"ax",%progbits
 1356              		.align	1
 1357              		.global	unregister_chrdev_region
 1358              		.syntax unified
 1359              		.thumb
 1360              		.thumb_func
 1362              	unregister_chrdev_region:
 1363              	.LVL125:
 1364              	.LFB1039:
 278:/mnt/c/Users/31740/Documents/codes/newcore-rp2350/fs/char_device.c **** 	dev_t to = from + count;
 1365              		.loc 1 278 1 is_stmt 1 view -0
 1366              		.cfi_startproc
 1367              		@ args = 0, pretend = 0, frame = 0
 1368              		@ frame_needed = 0, uses_anonymous_args = 0
 278:/mnt/c/Users/31740/Documents/codes/newcore-rp2350/fs/char_device.c **** 	dev_t to = from + count;
 1369              		.loc 1 278 1 is_stmt 0 view .LVU418
 1370 0000 38B5     		push	{r3, r4, r5, lr}
 1371              	.LCFI18:
 1372              		.cfi_def_cfa_offset 16
 1373              		.cfi_offset 3, -16
 1374              		.cfi_offset 4, -12
 1375              		.cfi_offset 5, -8
 1376              		.cfi_offset 14, -4
 1377 0002 0346     		mov	r3, r0
 279:/mnt/c/Users/31740/Documents/codes/newcore-rp2350/fs/char_device.c **** 	dev_t n, next;
 1378              		.loc 1 279 2 is_stmt 1 view .LVU419
 279:/mnt/c/Users/31740/Documents/codes/newcore-rp2350/fs/char_device.c **** 	dev_t n, next;
 1379              		.loc 1 279 8 is_stmt 0 view .LVU420
 1380 0004 4518     		adds	r5, r0, r1
 1381              	.LVL126:
 280:/mnt/c/Users/31740/Documents/codes/newcore-rp2350/fs/char_device.c **** 
 1382              		.loc 1 280 2 is_stmt 1 view .LVU421
 282:/mnt/c/Users/31740/Documents/codes/newcore-rp2350/fs/char_device.c **** 		next = MKDEV(MAJOR(n)+1, 0);
 1383              		.loc 1 282 2 view .LVU422
 282:/mnt/c/Users/31740/Documents/codes/newcore-rp2350/fs/char_device.c **** 		next = MKDEV(MAJOR(n)+1, 0);
 1384              		.loc 1 282 2 is_stmt 0 view .LVU423
 1385 0006 07E0     		b	.L103
 1386              	.LVL127:
 1387              	.L104:
 286:/mnt/c/Users/31740/Documents/codes/newcore-rp2350/fs/char_device.c **** 	}
 1388              		.loc 1 286 3 is_stmt 1 view .LVU424
 286:/mnt/c/Users/31740/Documents/codes/newcore-rp2350/fs/char_device.c **** 	}
 1389              		.loc 1 286 9 is_stmt 0 view .LVU425
 1390 0008 E21A     		subs	r2, r4, r3
 1391 000a C3F31301 		ubfx	r1, r3, #0, #20
ARM GAS  /tmp/ccZI6Oms.s 			page 48


 1392 000e FFF7FEFF 		bl	__unregister_chrdev_region
 1393              	.LVL128:
 1394              	.LBB104:
 1395              	.LBI104:
 383:/mnt/c/Users/31740/Documents/codes/newcore-rp2350/include/linux/slab.h **** 	__sfree__((void*)ptr);
 1396              		.loc 3 383 20 is_stmt 1 view .LVU426
 1397              	.LBB105:
 384:/mnt/c/Users/31740/Documents/codes/newcore-rp2350/include/linux/slab.h **** }
 1398              		.loc 3 384 2 view .LVU427
 1399 0012 FFF7FEFF 		bl	__sfree__
 1400              	.LVL129:
 384:/mnt/c/Users/31740/Documents/codes/newcore-rp2350/include/linux/slab.h **** }
 1401              		.loc 3 384 2 is_stmt 0 view .LVU428
 1402              	.LBE105:
 1403              	.LBE104:
 282:/mnt/c/Users/31740/Documents/codes/newcore-rp2350/fs/char_device.c **** 		next = MKDEV(MAJOR(n)+1, 0);
 1404              		.loc 1 282 27 is_stmt 1 discriminator 2 view .LVU429
 282:/mnt/c/Users/31740/Documents/codes/newcore-rp2350/fs/char_device.c **** 		next = MKDEV(MAJOR(n)+1, 0);
 1405              		.loc 1 282 27 is_stmt 0 discriminator 2 view .LVU430
 1406 0016 2346     		mov	r3, r4
 1407              	.LVL130:
 1408              	.L103:
 282:/mnt/c/Users/31740/Documents/codes/newcore-rp2350/fs/char_device.c **** 		next = MKDEV(MAJOR(n)+1, 0);
 1409              		.loc 1 282 19 is_stmt 1 discriminator 1 view .LVU431
 1410 0018 AB42     		cmp	r3, r5
 1411 001a 07D2     		bcs	.L108
 283:/mnt/c/Users/31740/Documents/codes/newcore-rp2350/fs/char_device.c **** 		if (next > to)
 1412              		.loc 1 283 3 view .LVU432
 283:/mnt/c/Users/31740/Documents/codes/newcore-rp2350/fs/char_device.c **** 		if (next > to)
 1413              		.loc 1 283 10 is_stmt 0 view .LVU433
 1414 001c 180D     		lsrs	r0, r3, #20
 1415 001e 421C     		adds	r2, r0, #1
 283:/mnt/c/Users/31740/Documents/codes/newcore-rp2350/fs/char_device.c **** 		if (next > to)
 1416              		.loc 1 283 8 view .LVU434
 1417 0020 1405     		lsls	r4, r2, #20
 1418              	.LVL131:
 284:/mnt/c/Users/31740/Documents/codes/newcore-rp2350/fs/char_device.c **** 			next = to;
 1419              		.loc 1 284 3 is_stmt 1 view .LVU435
 284:/mnt/c/Users/31740/Documents/codes/newcore-rp2350/fs/char_device.c **** 			next = to;
 1420              		.loc 1 284 6 is_stmt 0 view .LVU436
 1421 0022 B5EB025F 		cmp	r5, r2, lsl #20
 1422 0026 EFD2     		bcs	.L104
 285:/mnt/c/Users/31740/Documents/codes/newcore-rp2350/fs/char_device.c **** 		kfree(__unregister_chrdev_region(MAJOR(n), MINOR(n), next - n));
 1423              		.loc 1 285 9 view .LVU437
 1424 0028 2C46     		mov	r4, r5
 1425              	.LVL132:
 285:/mnt/c/Users/31740/Documents/codes/newcore-rp2350/fs/char_device.c **** 		kfree(__unregister_chrdev_region(MAJOR(n), MINOR(n), next - n));
 1426              		.loc 1 285 9 view .LVU438
 1427 002a EDE7     		b	.L104
 1428              	.LVL133:
 1429              	.L108:
 288:/mnt/c/Users/31740/Documents/codes/newcore-rp2350/fs/char_device.c **** 
 1430              		.loc 1 288 1 view .LVU439
 1431 002c 38BD     		pop	{r3, r4, r5, pc}
 288:/mnt/c/Users/31740/Documents/codes/newcore-rp2350/fs/char_device.c **** 
 1432              		.loc 1 288 1 view .LVU440
 1433              		.cfi_endproc
ARM GAS  /tmp/ccZI6Oms.s 			page 49


 1434              	.LFE1039:
 1436              		.section	.text.cdev_del,"ax",%progbits
 1437              		.align	1
 1438              		.global	cdev_del
 1439              		.syntax unified
 1440              		.thumb
 1441              		.thumb_func
 1443              	cdev_del:
 1444              	.LVL134:
 1445              	.LFB1045:
 411:/mnt/c/Users/31740/Documents/codes/newcore-rp2350/fs/char_device.c ****     kfree(p);
 1446              		.loc 1 411 1 is_stmt 1 view -0
 1447              		.cfi_startproc
 1448              		@ args = 0, pretend = 0, frame = 0
 1449              		@ frame_needed = 0, uses_anonymous_args = 0
 411:/mnt/c/Users/31740/Documents/codes/newcore-rp2350/fs/char_device.c ****     kfree(p);
 1450              		.loc 1 411 1 is_stmt 0 view .LVU442
 1451 0000 08B5     		push	{r3, lr}
 1452              	.LCFI19:
 1453              		.cfi_def_cfa_offset 8
 1454              		.cfi_offset 3, -8
 1455              		.cfi_offset 14, -4
 412:/mnt/c/Users/31740/Documents/codes/newcore-rp2350/fs/char_device.c ****     // cdev_unmap(p->dev, p->count);
 1456              		.loc 1 412 5 is_stmt 1 view .LVU443
 1457              	.LVL135:
 1458              	.LBB106:
 1459              	.LBI106:
 383:/mnt/c/Users/31740/Documents/codes/newcore-rp2350/include/linux/slab.h **** 	__sfree__((void*)ptr);
 1460              		.loc 3 383 20 view .LVU444
 1461              	.LBB107:
 384:/mnt/c/Users/31740/Documents/codes/newcore-rp2350/include/linux/slab.h **** }
 1462              		.loc 3 384 2 view .LVU445
 1463 0002 FFF7FEFF 		bl	__sfree__
 1464              	.LVL136:
 384:/mnt/c/Users/31740/Documents/codes/newcore-rp2350/include/linux/slab.h **** }
 1465              		.loc 3 384 2 is_stmt 0 view .LVU446
 1466              	.LBE107:
 1467              	.LBE106:
 415:/mnt/c/Users/31740/Documents/codes/newcore-rp2350/fs/char_device.c **** 
 1468              		.loc 1 415 1 view .LVU447
 1469 0006 08BD     		pop	{r3, pc}
 1470              		.cfi_endproc
 1471              	.LFE1045:
 1473              		.section	.text.__unregister_chrdev,"ax",%progbits
 1474              		.align	1
 1475              		.global	__unregister_chrdev
 1476              		.syntax unified
 1477              		.thumb
 1478              		.thumb_func
 1480              	__unregister_chrdev:
 1481              	.LVL137:
 1482              	.LFB1040:
 303:/mnt/c/Users/31740/Documents/codes/newcore-rp2350/fs/char_device.c **** struct char_device_struct *cd;
 1483              		.loc 1 303 1 is_stmt 1 view -0
 1484              		.cfi_startproc
 1485              		@ args = 0, pretend = 0, frame = 0
 1486              		@ frame_needed = 0, uses_anonymous_args = 0
ARM GAS  /tmp/ccZI6Oms.s 			page 50


 303:/mnt/c/Users/31740/Documents/codes/newcore-rp2350/fs/char_device.c **** struct char_device_struct *cd;
 1487              		.loc 1 303 1 is_stmt 0 view .LVU449
 1488 0000 10B5     		push	{r4, lr}
 1489              	.LCFI20:
 1490              		.cfi_def_cfa_offset 8
 1491              		.cfi_offset 4, -8
 1492              		.cfi_offset 14, -4
 304:/mnt/c/Users/31740/Documents/codes/newcore-rp2350/fs/char_device.c **** 
 1493              		.loc 1 304 1 is_stmt 1 view .LVU450
 306:/mnt/c/Users/31740/Documents/codes/newcore-rp2350/fs/char_device.c **** if (cd && cd->cdev)
 1494              		.loc 1 306 1 view .LVU451
 306:/mnt/c/Users/31740/Documents/codes/newcore-rp2350/fs/char_device.c **** if (cd && cd->cdev)
 1495              		.loc 1 306 6 is_stmt 0 view .LVU452
 1496 0002 FFF7FEFF 		bl	__unregister_chrdev_region
 1497              	.LVL138:
 307:/mnt/c/Users/31740/Documents/codes/newcore-rp2350/fs/char_device.c **** cdev_del(cd->cdev);
 1498              		.loc 1 307 1 is_stmt 1 view .LVU453
 307:/mnt/c/Users/31740/Documents/codes/newcore-rp2350/fs/char_device.c **** cdev_del(cd->cdev);
 1499              		.loc 1 307 4 is_stmt 0 view .LVU454
 1500 0006 0446     		mov	r4, r0
 1501 0008 18B1     		cbz	r0, .L112
 307:/mnt/c/Users/31740/Documents/codes/newcore-rp2350/fs/char_device.c **** cdev_del(cd->cdev);
 1502              		.loc 1 307 13 discriminator 1 view .LVU455
 1503 000a 006D     		ldr	r0, [r0, #80]
 1504              	.LVL139:
 307:/mnt/c/Users/31740/Documents/codes/newcore-rp2350/fs/char_device.c **** cdev_del(cd->cdev);
 1505              		.loc 1 307 8 discriminator 1 view .LVU456
 1506 000c 08B1     		cbz	r0, .L112
 308:/mnt/c/Users/31740/Documents/codes/newcore-rp2350/fs/char_device.c **** kfree(cd);
 1507              		.loc 1 308 1 is_stmt 1 view .LVU457
 1508 000e FFF7FEFF 		bl	cdev_del
 1509              	.LVL140:
 1510              	.L112:
 309:/mnt/c/Users/31740/Documents/codes/newcore-rp2350/fs/char_device.c **** }
 1511              		.loc 1 309 1 view .LVU458
 1512              	.LBB108:
 1513              	.LBI108:
 383:/mnt/c/Users/31740/Documents/codes/newcore-rp2350/include/linux/slab.h **** 	__sfree__((void*)ptr);
 1514              		.loc 3 383 20 view .LVU459
 1515              	.LBB109:
 384:/mnt/c/Users/31740/Documents/codes/newcore-rp2350/include/linux/slab.h **** }
 1516              		.loc 3 384 2 view .LVU460
 1517 0012 2046     		mov	r0, r4
 1518 0014 FFF7FEFF 		bl	__sfree__
 1519              	.LVL141:
 384:/mnt/c/Users/31740/Documents/codes/newcore-rp2350/include/linux/slab.h **** }
 1520              		.loc 3 384 2 is_stmt 0 view .LVU461
 1521              	.LBE109:
 1522              	.LBE108:
 310:/mnt/c/Users/31740/Documents/codes/newcore-rp2350/fs/char_device.c **** 
 1523              		.loc 1 310 1 view .LVU462
 1524 0018 10BD     		pop	{r4, pc}
 310:/mnt/c/Users/31740/Documents/codes/newcore-rp2350/fs/char_device.c **** 
 1525              		.loc 1 310 1 view .LVU463
 1526              		.cfi_endproc
 1527              	.LFE1040:
 1529              		.section	.text.cdev_put,"ax",%progbits
ARM GAS  /tmp/ccZI6Oms.s 			page 51


 1530              		.align	1
 1531              		.global	cdev_put
 1532              		.syntax unified
 1533              		.thumb
 1534              		.thumb_func
 1536              	cdev_put:
 1537              	.LVL142:
 1538              	.LFB1041:
 316:/mnt/c/Users/31740/Documents/codes/newcore-rp2350/fs/char_device.c **** 	if (p) {
 1539              		.loc 1 316 1 is_stmt 1 view -0
 1540              		.cfi_startproc
 1541              		@ args = 0, pretend = 0, frame = 0
 1542              		@ frame_needed = 0, uses_anonymous_args = 0
 1543              		@ link register save eliminated.
 317:/mnt/c/Users/31740/Documents/codes/newcore-rp2350/fs/char_device.c **** 		struct module *owner = p->owner;
 1544              		.loc 1 317 2 view .LVU465
 318:/mnt/c/Users/31740/Documents/codes/newcore-rp2350/fs/char_device.c **** 		//kobject_put(&p->kobj);
 1545              		.loc 1 318 3 view .LVU466
 322:/mnt/c/Users/31740/Documents/codes/newcore-rp2350/fs/char_device.c **** 
 1546              		.loc 1 322 1 is_stmt 0 view .LVU467
 1547 0000 7047     		bx	lr
 1548              		.cfi_endproc
 1549              	.LFE1041:
 1551              		.section	.rodata.str1.4,"aMS",%progbits,1
 1552              		.align	2
 1553              	.LC3:
 1554 0000 5F5F756E 		.ascii	"__unregister_chrdev\000"
 1554      72656769 
 1554      73746572 
 1554      5F636872 
 1554      64657600 
 1555              		.align	2
 1556              	.LC4:
 1557 0014 00       		.ascii	"\000"
 1558              		.section	.export_table,"aw"
 1559              		.align	2
 1562              	__unregister_chrdev_export_struct:
 1563 0000 00000000 		.word	.LC3
 1564 0004 14000000 		.word	.LC4
 1565 0008 00000000 		.word	__unregister_chrdev
 1566              		.section	.rodata.str1.4
 1567 0015 000000   		.align	2
 1568              	.LC5:
 1569 0018 5F5F7265 		.ascii	"__register_chrdev\000"
 1569      67697374 
 1569      65725F63 
 1569      68726465 
 1569      7600
 1570              		.section	.export_table
 1571              		.align	2
 1574              	__register_chrdev_export_struct:
 1575 000c 18000000 		.word	.LC5
 1576 0010 14000000 		.word	.LC4
 1577 0014 00000000 		.word	__register_chrdev
 1578              		.section	.rodata.str1.4
 1579 002a 0000     		.align	2
 1580              	.LC6:
ARM GAS  /tmp/ccZI6Oms.s 			page 52


 1581 002c 63646576 		.ascii	"cdev_add\000"
 1581      5F616464 
 1581      00
 1582              		.section	.export_table
 1583              		.align	2
 1586              	cdev_add_export_struct:
 1587 0018 2C000000 		.word	.LC6
 1588 001c 14000000 		.word	.LC4
 1589 0020 00000000 		.word	cdev_add
 1590              		.section	.rodata.str1.4
 1591 0035 000000   		.align	2
 1592              	.LC7:
 1593 0038 63646576 		.ascii	"cdev_del\000"
 1593      5F64656C 
 1593      00
 1594              		.section	.export_table
 1595              		.align	2
 1598              	cdev_del_export_struct:
 1599 0024 38000000 		.word	.LC7
 1600 0028 14000000 		.word	.LC4
 1601 002c 00000000 		.word	cdev_del
 1602              		.section	.rodata.str1.4
 1603 0041 000000   		.align	2
 1604              	.LC8:
 1605 0044 63646576 		.ascii	"cdev_alloc\000"
 1605      5F616C6C 
 1605      6F6300
 1606              		.section	.export_table
 1607              		.align	2
 1610              	cdev_alloc_export_struct:
 1611 0030 44000000 		.word	.LC8
 1612 0034 14000000 		.word	.LC4
 1613 0038 00000000 		.word	cdev_alloc
 1614              		.section	.rodata.str1.4
 1615 004f 00       		.align	2
 1616              	.LC9:
 1617 0050 63646576 		.ascii	"cdev_init\000"
 1617      5F696E69 
 1617      7400
 1618              		.section	.export_table
 1619              		.align	2
 1622              	cdev_init_export_struct:
 1623 003c 50000000 		.word	.LC9
 1624 0040 14000000 		.word	.LC4
 1625 0044 00000000 		.word	cdev_init
 1626              		.section	.rodata.str1.4
 1627 005a 0000     		.align	2
 1628              	.LC10:
 1629 005c 616C6C6F 		.ascii	"alloc_chrdev_region\000"
 1629      635F6368 
 1629      72646576 
 1629      5F726567 
 1629      696F6E00 
 1630              		.section	.export_table
 1631              		.align	2
 1634              	alloc_chrdev_region_export_struct:
 1635 0048 5C000000 		.word	.LC10
ARM GAS  /tmp/ccZI6Oms.s 			page 53


 1636 004c 14000000 		.word	.LC4
 1637 0050 00000000 		.word	alloc_chrdev_region
 1638              		.section	.rodata.str1.4
 1639              		.align	2
 1640              	.LC11:
 1641 0070 756E7265 		.ascii	"unregister_chrdev_region\000"
 1641      67697374 
 1641      65725F63 
 1641      68726465 
 1641      765F7265 
 1642              		.section	.export_table
 1643              		.align	2
 1646              	unregister_chrdev_region_export_struct:
 1647 0054 70000000 		.word	.LC11
 1648 0058 14000000 		.word	.LC4
 1649 005c 00000000 		.word	unregister_chrdev_region
 1650              		.section	.rodata.str1.4
 1651 0089 000000   		.align	2
 1652              	.LC12:
 1653 008c 72656769 		.ascii	"register_chrdev_region\000"
 1653      73746572 
 1653      5F636872 
 1653      6465765F 
 1653      72656769 
 1654              		.section	.export_table
 1655              		.align	2
 1658              	register_chrdev_region_export_struct:
 1659 0060 8C000000 		.word	.LC12
 1660 0064 14000000 		.word	.LC4
 1661 0068 00000000 		.word	register_chrdev_region
 1662              		.section	.rodata.str1.4
 1663 00a3 00       		.align	2
 1664              	.LC13:
 1665 00a4 66696E64 		.ascii	"find_chrdev\000"
 1665      5F636872 
 1665      64657600 
 1666              		.section	.export_table
 1667              		.align	2
 1670              	find_chrdev_export_struct:
 1671 006c A4000000 		.word	.LC13
 1672 0070 14000000 		.word	.LC4
 1673 0074 00000000 		.word	find_chrdev
 1674              		.section	.bss.chrdevs,"aw",%nobits
 1675              		.align	2
 1678              	chrdevs:
 1679 0000 00000000 		.space	508
 1679      00000000 
 1679      00000000 
 1679      00000000 
 1679      00000000 
 1680              		.text
 1681              	.Letext0:
 1682              		.file 6 "/mnt/c/Users/31740/Documents/codes/newcore-rp2350/include/asm-generic/int-l64.h"
 1683              		.file 7 "/mnt/c/Users/31740/Documents/codes/newcore-rp2350/include/asm-generic/posix_types.h"
 1684              		.file 8 "/mnt/c/Users/31740/Documents/codes/newcore-rp2350/include/uapi/linux/types.h"
 1685              		.file 9 "/mnt/c/Users/31740/Documents/codes/newcore-rp2350/include/linux/types.h"
 1686              		.file 10 "/mnt/c/Users/31740/Documents/codes/newcore-rp2350/include/linux/export.h"
ARM GAS  /tmp/ccZI6Oms.s 			page 54


 1687              		.file 11 "/mnt/c/Users/31740/Documents/codes/newcore-rp2350/include/linux/errseq.h"
 1688              		.file 12 "/mnt/c/Users/31740/Documents/codes/newcore-rp2350/include/linux/time64.h"
 1689              		.file 13 "/mnt/c/Users/31740/Documents/codes/newcore-rp2350/arch/arm_m/include/asm/spinlock.h"
 1690              		.file 14 "/mnt/c/Users/31740/Documents/codes/newcore-rp2350/include/linux/spinlock_types_raw.h"
 1691              		.file 15 "/mnt/c/Users/31740/Documents/codes/newcore-rp2350/include/linux/spinlock_types.h"
 1692              		.file 16 "/mnt/c/Users/31740/Documents/codes/newcore-rp2350/include/linux/rbtree_types.h"
 1693              		.file 17 "/mnt/c/Users/31740/Documents/codes/newcore-rp2350/include/linux/uidgid_types.h"
 1694              		.file 18 "/mnt/c/Users/31740/Documents/codes/newcore-rp2350/include/linux/projid.h"
 1695              		.file 19 "/mnt/c/Users/31740/Documents/codes/newcore-rp2350/include/linux/fs.h"
 1696              		.file 20 "/mnt/c/Users/31740/Documents/codes/newcore-rp2350/include/linux/mnt_idmapping.h"
 1697              		.file 21 "/mnt/c/Users/31740/Documents/codes/newcore-rp2350/include/linux/mutex.h"
 1698              		.file 22 "/mnt/c/Users/31740/Documents/codes/newcore-rp2350/include/linux/uio.h"
 1699              		.file 23 "/mnt/c/Users/31740/Documents/codes/newcore-rp2350/include/linux/wait.h"
 1700              		.file 24 "/mnt/c/Users/31740/Documents/codes/newcore-rp2350/include/linux/xarray.h"
 1701              		.file 25 "/mnt/c/Users/31740/Documents/codes/newcore-rp2350/include/linux/migrate_mode.h"
 1702              		.file 26 "/mnt/c/Users/31740/Documents/codes/newcore-rp2350/include/linux/rw_hint.h"
 1703              		.file 27 "/mnt/c/Users/31740/Documents/codes/newcore-rp2350/include/linux/reciprocal_div.h"
 1704              		.file 28 "/mnt/c/Users/31740/Documents/codes/newcore-rp2350/include/linux/mm_type.h"
 1705              		.file 29 "/mnt/c/Users/31740/Documents/codes/newcore-rp2350/include/linux/bvec.h"
 1706              		.file 30 "/mnt/c/Users/31740/Documents/codes/newcore-rp2350/include/linux/blk_types.h"
 1707              		.file 31 "/mnt/c/Users/31740/Documents/codes/newcore-rp2350/include/linux/blkdev.h"
 1708              		.file 32 "/mnt/c/Users/31740/Documents/codes/newcore-rp2350/include/linux/bio.h"
 1709              		.file 33 "/mnt/c/Users/31740/Documents/codes/newcore-rp2350/include/linux/mempool_super_haper.h"
 1710              		.file 34 "/mnt/c/Users/31740/Documents/codes/newcore-rp2350/include/linux/mempool.h"
 1711              		.file 35 "/mnt/c/Users/31740/Documents/codes/newcore-rp2350/include/linux/lockdep_types.h"
 1712              		.file 36 "/mnt/c/Users/31740/Documents/codes/newcore-rp2350/include/linux/workqueue_types.h"
 1713              		.file 37 "/mnt/c/Users/31740/Documents/codes/newcore-rp2350/include/linux/blk-mq.h"
 1714              		.file 38 "/mnt/c/Users/31740/Documents/codes/newcore-rp2350/include/linux/dcache.h"
 1715              		.file 39 "/mnt/c/Users/31740/Documents/codes/newcore-rp2350/include/uapi/linux/pr.h"
 1716              		.file 40 "/mnt/c/Users/31740/Documents/codes/newcore-rp2350/include/linux/pr.h"
 1717              		.file 41 "/mnt/c/Users/31740/Documents/codes/newcore-rp2350/include/linux/hdreg.h"
 1718              		.file 42 "/mnt/c/Users/31740/Documents/codes/newcore-rp2350/include/linux/lockref.h"
 1719              		.file 43 "/mnt/c/Users/31740/Documents/codes/newcore-rp2350/include/linux/path.h"
 1720              		.file 44 "/mnt/c/Users/31740/Documents/codes/newcore-rp2350/include/linux/statfs.h"
 1721              		.file 45 "/mnt/c/Users/31740/Documents/codes/newcore-rp2350/include/linux/stat.h"
 1722              		.file 46 "/mnt/c/Users/31740/Documents/codes/newcore-rp2350/include/linux/gfp_types.h"
 1723              		.file 47 "/mnt/c/Users/31740/Documents/codes/newcore-rp2350/include/linux/cdev.h"
 1724              		.file 48 "/mnt/c/Users/31740/Documents/codes/newcore-rp2350/arch/arm_m/include/asm/string.h"
 1725              		.file 49 "/mnt/c/Users/31740/Documents/codes/newcore-rp2350/include/linux/printk.h"
 1726              		.file 50 "<built-in>"
ARM GAS  /tmp/ccZI6Oms.s 			page 55


DEFINED SYMBOLS
                            *ABS*:00000000 char_device.c
     /tmp/ccZI6Oms.s:22     .text.sized_strscpy:00000000 $t
     /tmp/ccZI6Oms.s:27     .text.sized_strscpy:00000000 sized_strscpy
     /tmp/ccZI6Oms.s:105    .text.find_dynamic_major:00000000 $t
     /tmp/ccZI6Oms.s:110    .text.find_dynamic_major:00000000 find_dynamic_major
     /tmp/ccZI6Oms.s:191    .text.find_dynamic_major:00000040 $d
     /tmp/ccZI6Oms.s:1678   .bss.chrdevs:00000000 chrdevs
     /tmp/ccZI6Oms.s:197    .text.__unregister_chrdev_region:00000000 $t
     /tmp/ccZI6Oms.s:202    .text.__unregister_chrdev_region:00000000 __unregister_chrdev_region
     /tmp/ccZI6Oms.s:317    .text.__unregister_chrdev_region:00000058 $d
     /tmp/ccZI6Oms.s:323    .text.cdev_add:00000000 $t
     /tmp/ccZI6Oms.s:329    .text.cdev_add:00000000 cdev_add
     /tmp/ccZI6Oms.s:354    .text.find_chrdev:00000000 $t
     /tmp/ccZI6Oms.s:360    .text.find_chrdev:00000000 find_chrdev
     /tmp/ccZI6Oms.s:480    .text.find_chrdev:00000058 $d
     /tmp/ccZI6Oms.s:486    .text.kzalloc:00000000 $t
     /tmp/ccZI6Oms.s:491    .text.kzalloc:00000000 kzalloc
     /tmp/ccZI6Oms.s:529    .text.cdev_alloc:00000000 $t
     /tmp/ccZI6Oms.s:535    .text.cdev_alloc:00000000 cdev_alloc
     /tmp/ccZI6Oms.s:604    .text.cdev_init:00000000 $t
     /tmp/ccZI6Oms.s:610    .text.cdev_init:00000000 cdev_init
     /tmp/ccZI6Oms.s:670    .rodata.__register_chrdev_region.str1.4:00000000 $d
     /tmp/ccZI6Oms.s:684    .text.__register_chrdev_region:00000000 $t
     /tmp/ccZI6Oms.s:689    .text.__register_chrdev_region:00000000 __register_chrdev_region
     /tmp/ccZI6Oms.s:979    .text.__register_chrdev_region:00000118 $d
     /tmp/ccZI6Oms.s:989    .text.alloc_chrdev_region:00000000 $t
     /tmp/ccZI6Oms.s:995    .text.alloc_chrdev_region:00000000 alloc_chrdev_region
     /tmp/ccZI6Oms.s:1072   .text.register_chrdev_region:00000000 $t
     /tmp/ccZI6Oms.s:1078   .text.register_chrdev_region:00000000 register_chrdev_region
     /tmp/ccZI6Oms.s:1216   .text.__register_chrdev:00000000 $t
     /tmp/ccZI6Oms.s:1222   .text.__register_chrdev:00000000 __register_chrdev
     /tmp/ccZI6Oms.s:1356   .text.unregister_chrdev_region:00000000 $t
     /tmp/ccZI6Oms.s:1362   .text.unregister_chrdev_region:00000000 unregister_chrdev_region
     /tmp/ccZI6Oms.s:1437   .text.cdev_del:00000000 $t
     /tmp/ccZI6Oms.s:1443   .text.cdev_del:00000000 cdev_del
     /tmp/ccZI6Oms.s:1474   .text.__unregister_chrdev:00000000 $t
     /tmp/ccZI6Oms.s:1480   .text.__unregister_chrdev:00000000 __unregister_chrdev
     /tmp/ccZI6Oms.s:1530   .text.cdev_put:00000000 $t
     /tmp/ccZI6Oms.s:1536   .text.cdev_put:00000000 cdev_put
     /tmp/ccZI6Oms.s:1552   .rodata.str1.4:00000000 $d
     /tmp/ccZI6Oms.s:1559   .export_table:00000000 $d
     /tmp/ccZI6Oms.s:1562   .export_table:00000000 __unregister_chrdev_export_struct
     /tmp/ccZI6Oms.s:1574   .export_table:0000000c __register_chrdev_export_struct
     /tmp/ccZI6Oms.s:1586   .export_table:00000018 cdev_add_export_struct
     /tmp/ccZI6Oms.s:1598   .export_table:00000024 cdev_del_export_struct
     /tmp/ccZI6Oms.s:1610   .export_table:00000030 cdev_alloc_export_struct
     /tmp/ccZI6Oms.s:1622   .export_table:0000003c cdev_init_export_struct
     /tmp/ccZI6Oms.s:1634   .export_table:00000048 alloc_chrdev_region_export_struct
     /tmp/ccZI6Oms.s:1646   .export_table:00000054 unregister_chrdev_region_export_struct
     /tmp/ccZI6Oms.s:1658   .export_table:00000060 register_chrdev_region_export_struct
     /tmp/ccZI6Oms.s:1670   .export_table:0000006c find_chrdev_export_struct
     /tmp/ccZI6Oms.s:1675   .bss.chrdevs:00000000 $d

UNDEFINED SYMBOLS
__smalloc__
memset
ARM GAS  /tmp/ccZI6Oms.s 			page 56


printk
__sfree__
