ARM GAS  /tmp/cc6j5Zku.s 			page 1


   1              		.cpu cortex-m4
   2              		.arch armv7e-m
   3              		.fpu fpv4-sp-d16
   4              		.eabi_attribute 27, 1
   5              		.eabi_attribute 28, 1
   6              		.eabi_attribute 20, 1
   7              		.eabi_attribute 21, 1
   8              		.eabi_attribute 23, 3
   9              		.eabi_attribute 24, 1
  10              		.eabi_attribute 25, 1
  11              		.eabi_attribute 26, 1
  12              		.eabi_attribute 30, 1
  13              		.eabi_attribute 34, 1
  14              		.eabi_attribute 18, 4
  15              		.file	"driver.c"
  16              		.text
  17              	.Ltext0:
  18              		.cfi_sections	.debug_frame
  19              		.file 1 "/mnt/c/Users/31740/Desktop/newcore/drivers/driver.c"
  20              		.section	.rodata.class_create.str1.4,"aMS",%progbits,1
  21              		.align	2
  22              	.LC0:
  23 0000 636C6173 		.ascii	"class_create: create class  %s\012\000"
  23      735F6372 
  23      65617465 
  23      3A206372 
  23      65617465 
  24              		.section	.text.class_create,"ax",%progbits
  25              		.align	1
  26              		.global	class_create
  27              		.syntax unified
  28              		.thumb
  29              		.thumb_func
  31              	class_create:
  32              	.LVL0:
  33              	.LFB1033:
   1:/mnt/c/Users/31740/Desktop/newcore/drivers/driver.c **** #include <linux/kernel.h>
   2:/mnt/c/Users/31740/Desktop/newcore/drivers/driver.c **** #include <linux/fs.h>
   3:/mnt/c/Users/31740/Desktop/newcore/drivers/driver.c **** #include <linux/device.h>
   4:/mnt/c/Users/31740/Desktop/newcore/drivers/driver.c **** #include <linux/devfs.h>
   5:/mnt/c/Users/31740/Desktop/newcore/drivers/driver.c **** 
   6:/mnt/c/Users/31740/Desktop/newcore/drivers/driver.c **** 
   7:/mnt/c/Users/31740/Desktop/newcore/drivers/driver.c **** struct  dentry * create_new_dentry(char * path,umode_t i_mode);
   8:/mnt/c/Users/31740/Desktop/newcore/drivers/driver.c **** 
   9:/mnt/c/Users/31740/Desktop/newcore/drivers/driver.c **** struct class *class_create(void *owner,char *name)
  10:/mnt/c/Users/31740/Desktop/newcore/drivers/driver.c **** {
  34              		.loc 1 10 1 view -0
  35              		.cfi_startproc
  36              		@ args = 0, pretend = 0, frame = 0
  37              		@ frame_needed = 0, uses_anonymous_args = 0
  38              		.loc 1 10 1 is_stmt 0 view .LVU1
  39 0000 F8B5     		push	{r3, r4, r5, r6, r7, lr}
  40              	.LCFI0:
  41              		.cfi_def_cfa_offset 24
  42              		.cfi_offset 3, -24
  43              		.cfi_offset 4, -20
  44              		.cfi_offset 5, -16
ARM GAS  /tmp/cc6j5Zku.s 			page 2


  45              		.cfi_offset 6, -12
  46              		.cfi_offset 7, -8
  47              		.cfi_offset 14, -4
  48 0002 0546     		mov	r5, r0
  49 0004 0C46     		mov	r4, r1
  11:/mnt/c/Users/31740/Desktop/newcore/drivers/driver.c ****     pr_info("class_create: create class  %s\n",name);
  50              		.loc 1 11 5 is_stmt 1 view .LVU2
  51 0006 0A46     		mov	r2, r1
  52 0008 1049     		ldr	r1, .L6
  53              	.LVL1:
  54              		.loc 1 11 5 is_stmt 0 view .LVU3
  55 000a 0620     		movs	r0, #6
  56              	.LVL2:
  57              		.loc 1 11 5 view .LVU4
  58 000c FFF7FEFF 		bl	printk
  59              	.LVL3:
  12:/mnt/c/Users/31740/Desktop/newcore/drivers/driver.c ****     struct class *newclass = kmalloc(sizeof(struct class),GFP_KERNEL);
  60              		.loc 1 12 5 is_stmt 1 view .LVU5
  61              	.LBB13:
  62              	.LBI13:
  63              		.file 2 "/mnt/c/Users/31740/Desktop/newcore/include/linux/slab.h"
   1:/mnt/c/Users/31740/Desktop/newcore/include/linux/slab.h **** /* SPDX-License-Identifier: GPL-2.0 */
   2:/mnt/c/Users/31740/Desktop/newcore/include/linux/slab.h **** /*
   3:/mnt/c/Users/31740/Desktop/newcore/include/linux/slab.h ****  * Written by Mark Hemment, 1996 (markhe@nextd.demon.co.uk).
   4:/mnt/c/Users/31740/Desktop/newcore/include/linux/slab.h ****  *
   5:/mnt/c/Users/31740/Desktop/newcore/include/linux/slab.h ****  * (C) SGI 2006, Christoph Lameter
   6:/mnt/c/Users/31740/Desktop/newcore/include/linux/slab.h ****  * 	Cleaned up and restructured to ease the addition of alternative
   7:/mnt/c/Users/31740/Desktop/newcore/include/linux/slab.h ****  * 	implementations of SLAB allocators.
   8:/mnt/c/Users/31740/Desktop/newcore/include/linux/slab.h ****  * (C) Linux Foundation 2008-2013
   9:/mnt/c/Users/31740/Desktop/newcore/include/linux/slab.h ****  *      Unified interface for all slab allocators
  10:/mnt/c/Users/31740/Desktop/newcore/include/linux/slab.h ****  */
  11:/mnt/c/Users/31740/Desktop/newcore/include/linux/slab.h **** 
  12:/mnt/c/Users/31740/Desktop/newcore/include/linux/slab.h **** #ifndef _LINUX_SLAB_H
  13:/mnt/c/Users/31740/Desktop/newcore/include/linux/slab.h **** #define	_LINUX_SLAB_H
  14:/mnt/c/Users/31740/Desktop/newcore/include/linux/slab.h **** 
  15:/mnt/c/Users/31740/Desktop/newcore/include/linux/slab.h **** #include <linux/cache.h>
  16:/mnt/c/Users/31740/Desktop/newcore/include/linux/slab.h **** #include <linux/overflow.h>
  17:/mnt/c/Users/31740/Desktop/newcore/include/linux/slab.h **** #include <linux/types.h>
  18:/mnt/c/Users/31740/Desktop/newcore/include/linux/slab.h **** #include <linux/raid/pq.h>
  19:/mnt/c/Users/31740/Desktop/newcore/include/linux/slab.h **** #include <linux/gfp_types.h>
  20:/mnt/c/Users/31740/Desktop/newcore/include/linux/slab.h **** #include <linux/numa.h>
  21:/mnt/c/Users/31740/Desktop/newcore/include/linux/slab.h **** #include <linux/reciprocal_div.h>
  22:/mnt/c/Users/31740/Desktop/newcore/include/linux/slab.h **** #include <linux/spinlock.h>
  23:/mnt/c/Users/31740/Desktop/newcore/include/linux/slab.h **** 
  24:/mnt/c/Users/31740/Desktop/newcore/include/linux/slab.h **** enum _slab_flag_bits {
  25:/mnt/c/Users/31740/Desktop/newcore/include/linux/slab.h **** 	_SLAB_CONSISTENCY_CHECKS,
  26:/mnt/c/Users/31740/Desktop/newcore/include/linux/slab.h **** 	_SLAB_RED_ZONE,
  27:/mnt/c/Users/31740/Desktop/newcore/include/linux/slab.h **** 	_SLAB_POISON,
  28:/mnt/c/Users/31740/Desktop/newcore/include/linux/slab.h **** 	_SLAB_KMALLOC,
  29:/mnt/c/Users/31740/Desktop/newcore/include/linux/slab.h **** 	_SLAB_HWCACHE_ALIGN,
  30:/mnt/c/Users/31740/Desktop/newcore/include/linux/slab.h **** 	_SLAB_CACHE_DMA,
  31:/mnt/c/Users/31740/Desktop/newcore/include/linux/slab.h **** 	_SLAB_CACHE_DMA32,
  32:/mnt/c/Users/31740/Desktop/newcore/include/linux/slab.h **** 	_SLAB_STORE_USER,
  33:/mnt/c/Users/31740/Desktop/newcore/include/linux/slab.h **** 	_SLAB_PANIC,
  34:/mnt/c/Users/31740/Desktop/newcore/include/linux/slab.h **** 	_SLAB_TYPESAFE_BY_RCU,
  35:/mnt/c/Users/31740/Desktop/newcore/include/linux/slab.h **** 	_SLAB_TRACE,
  36:/mnt/c/Users/31740/Desktop/newcore/include/linux/slab.h **** #ifdef CONFIG_DEBUG_OBJECTS
ARM GAS  /tmp/cc6j5Zku.s 			page 3


  37:/mnt/c/Users/31740/Desktop/newcore/include/linux/slab.h **** 	_SLAB_DEBUG_OBJECTS,
  38:/mnt/c/Users/31740/Desktop/newcore/include/linux/slab.h **** #endif
  39:/mnt/c/Users/31740/Desktop/newcore/include/linux/slab.h **** 	_SLAB_NOLEAKTRACE,
  40:/mnt/c/Users/31740/Desktop/newcore/include/linux/slab.h **** 	_SLAB_NO_MERGE,
  41:/mnt/c/Users/31740/Desktop/newcore/include/linux/slab.h **** #ifdef CONFIG_FAILSLAB
  42:/mnt/c/Users/31740/Desktop/newcore/include/linux/slab.h **** 	_SLAB_FAILSLAB,
  43:/mnt/c/Users/31740/Desktop/newcore/include/linux/slab.h **** #endif
  44:/mnt/c/Users/31740/Desktop/newcore/include/linux/slab.h **** #ifdef CONFIG_MEMCG
  45:/mnt/c/Users/31740/Desktop/newcore/include/linux/slab.h **** 	_SLAB_ACCOUNT,
  46:/mnt/c/Users/31740/Desktop/newcore/include/linux/slab.h **** #endif
  47:/mnt/c/Users/31740/Desktop/newcore/include/linux/slab.h **** #ifdef CONFIG_KASAN_GENERIC
  48:/mnt/c/Users/31740/Desktop/newcore/include/linux/slab.h **** 	_SLAB_KASAN,
  49:/mnt/c/Users/31740/Desktop/newcore/include/linux/slab.h **** #endif
  50:/mnt/c/Users/31740/Desktop/newcore/include/linux/slab.h **** 	_SLAB_NO_USER_FLAGS,
  51:/mnt/c/Users/31740/Desktop/newcore/include/linux/slab.h **** #ifdef CONFIG_KFENCE
  52:/mnt/c/Users/31740/Desktop/newcore/include/linux/slab.h **** 	_SLAB_SKIP_KFENCE,
  53:/mnt/c/Users/31740/Desktop/newcore/include/linux/slab.h **** #endif
  54:/mnt/c/Users/31740/Desktop/newcore/include/linux/slab.h **** #ifndef CONFIG_SLUB_TINY
  55:/mnt/c/Users/31740/Desktop/newcore/include/linux/slab.h **** 	_SLAB_RECLAIM_ACCOUNT,
  56:/mnt/c/Users/31740/Desktop/newcore/include/linux/slab.h **** #endif
  57:/mnt/c/Users/31740/Desktop/newcore/include/linux/slab.h **** 	_SLAB_OBJECT_POISON,
  58:/mnt/c/Users/31740/Desktop/newcore/include/linux/slab.h **** 	_SLAB_CMPXCHG_DOUBLE,
  59:/mnt/c/Users/31740/Desktop/newcore/include/linux/slab.h **** #ifdef CONFIG_SLAB_OBJ_EXT
  60:/mnt/c/Users/31740/Desktop/newcore/include/linux/slab.h **** 	_SLAB_NO_OBJ_EXT,
  61:/mnt/c/Users/31740/Desktop/newcore/include/linux/slab.h **** #endif
  62:/mnt/c/Users/31740/Desktop/newcore/include/linux/slab.h **** 	_SLAB_FLAGS_LAST_BIT
  63:/mnt/c/Users/31740/Desktop/newcore/include/linux/slab.h **** };
  64:/mnt/c/Users/31740/Desktop/newcore/include/linux/slab.h **** 
  65:/mnt/c/Users/31740/Desktop/newcore/include/linux/slab.h **** 
  66:/mnt/c/Users/31740/Desktop/newcore/include/linux/slab.h **** 
  67:/mnt/c/Users/31740/Desktop/newcore/include/linux/slab.h **** #define __SLAB_FLAG_BIT(nr)	((slab_flags_t __force)(1U << (nr)))
  68:/mnt/c/Users/31740/Desktop/newcore/include/linux/slab.h **** #define __SLAB_FLAG_UNUSED	((slab_flags_t __force)(0U))
  69:/mnt/c/Users/31740/Desktop/newcore/include/linux/slab.h **** 
  70:/mnt/c/Users/31740/Desktop/newcore/include/linux/slab.h **** /*
  71:/mnt/c/Users/31740/Desktop/newcore/include/linux/slab.h ****  * Flags to pass to kmem_cache_create().
  72:/mnt/c/Users/31740/Desktop/newcore/include/linux/slab.h ****  * The ones marked DEBUG need CONFIG_SLUB_DEBUG enabled, otherwise are no-op
  73:/mnt/c/Users/31740/Desktop/newcore/include/linux/slab.h ****  */
  74:/mnt/c/Users/31740/Desktop/newcore/include/linux/slab.h **** /* DEBUG: Perform (expensive) checks on alloc/free */
  75:/mnt/c/Users/31740/Desktop/newcore/include/linux/slab.h **** #define SLAB_CONSISTENCY_CHECKS	__SLAB_FLAG_BIT(_SLAB_CONSISTENCY_CHECKS)
  76:/mnt/c/Users/31740/Desktop/newcore/include/linux/slab.h **** /* DEBUG: Red zone objs in a cache */
  77:/mnt/c/Users/31740/Desktop/newcore/include/linux/slab.h **** #define SLAB_RED_ZONE		__SLAB_FLAG_BIT(_SLAB_RED_ZONE)
  78:/mnt/c/Users/31740/Desktop/newcore/include/linux/slab.h **** /* DEBUG: Poison objects */
  79:/mnt/c/Users/31740/Desktop/newcore/include/linux/slab.h **** #define SLAB_POISON		__SLAB_FLAG_BIT(_SLAB_POISON)
  80:/mnt/c/Users/31740/Desktop/newcore/include/linux/slab.h **** /* Indicate a kmalloc slab */
  81:/mnt/c/Users/31740/Desktop/newcore/include/linux/slab.h **** #define SLAB_KMALLOC		__SLAB_FLAG_BIT(_SLAB_KMALLOC)
  82:/mnt/c/Users/31740/Desktop/newcore/include/linux/slab.h **** /**
  83:/mnt/c/Users/31740/Desktop/newcore/include/linux/slab.h ****  * define SLAB_HWCACHE_ALIGN - Align objects on cache line boundaries.
  84:/mnt/c/Users/31740/Desktop/newcore/include/linux/slab.h ****  *
  85:/mnt/c/Users/31740/Desktop/newcore/include/linux/slab.h ****  * Sufficiently large objects are aligned on cache line boundary. For object
  86:/mnt/c/Users/31740/Desktop/newcore/include/linux/slab.h ****  * size smaller than a half of cache line size, the alignment is on the half of
  87:/mnt/c/Users/31740/Desktop/newcore/include/linux/slab.h ****  * cache line size. In general, if object size is smaller than 1/2^n of cache
  88:/mnt/c/Users/31740/Desktop/newcore/include/linux/slab.h ****  * line size, the alignment is adjusted to 1/2^n.
  89:/mnt/c/Users/31740/Desktop/newcore/include/linux/slab.h ****  *
  90:/mnt/c/Users/31740/Desktop/newcore/include/linux/slab.h ****  * If explicit alignment is also requested by the respective
  91:/mnt/c/Users/31740/Desktop/newcore/include/linux/slab.h ****  * &struct kmem_cache_args field, the greater of both is alignments is applied.
  92:/mnt/c/Users/31740/Desktop/newcore/include/linux/slab.h ****  */
  93:/mnt/c/Users/31740/Desktop/newcore/include/linux/slab.h **** #define SLAB_HWCACHE_ALIGN	__SLAB_FLAG_BIT(_SLAB_HWCACHE_ALIGN)
ARM GAS  /tmp/cc6j5Zku.s 			page 4


  94:/mnt/c/Users/31740/Desktop/newcore/include/linux/slab.h **** /* Use GFP_DMA memory */
  95:/mnt/c/Users/31740/Desktop/newcore/include/linux/slab.h **** #define SLAB_CACHE_DMA		__SLAB_FLAG_BIT(_SLAB_CACHE_DMA)
  96:/mnt/c/Users/31740/Desktop/newcore/include/linux/slab.h **** /* Use GFP_DMA32 memory */
  97:/mnt/c/Users/31740/Desktop/newcore/include/linux/slab.h **** #define SLAB_CACHE_DMA32	__SLAB_FLAG_BIT(_SLAB_CACHE_DMA32)
  98:/mnt/c/Users/31740/Desktop/newcore/include/linux/slab.h **** /* DEBUG: Store the last owner for bug hunting */
  99:/mnt/c/Users/31740/Desktop/newcore/include/linux/slab.h **** #define SLAB_STORE_USER		__SLAB_FLAG_BIT(_SLAB_STORE_USER)
 100:/mnt/c/Users/31740/Desktop/newcore/include/linux/slab.h **** /* Panic if kmem_cache_create() fails */
 101:/mnt/c/Users/31740/Desktop/newcore/include/linux/slab.h **** #define SLAB_PANIC		__SLAB_FLAG_BIT(_SLAB_PANIC)
 102:/mnt/c/Users/31740/Desktop/newcore/include/linux/slab.h **** /**
 103:/mnt/c/Users/31740/Desktop/newcore/include/linux/slab.h ****  * define SLAB_TYPESAFE_BY_RCU - **WARNING** READ THIS!
 104:/mnt/c/Users/31740/Desktop/newcore/include/linux/slab.h ****  *
 105:/mnt/c/Users/31740/Desktop/newcore/include/linux/slab.h ****  * This delays freeing the SLAB page by a grace period, it does _NOT_
 106:/mnt/c/Users/31740/Desktop/newcore/include/linux/slab.h ****  * delay object freeing. This means that if you do kmem_cache_free()
 107:/mnt/c/Users/31740/Desktop/newcore/include/linux/slab.h ****  * that memory location is free to be reused at any time. Thus it may
 108:/mnt/c/Users/31740/Desktop/newcore/include/linux/slab.h ****  * be possible to see another object there in the same RCU grace period.
 109:/mnt/c/Users/31740/Desktop/newcore/include/linux/slab.h ****  *
 110:/mnt/c/Users/31740/Desktop/newcore/include/linux/slab.h ****  * This feature only ensures the memory location backing the object
 111:/mnt/c/Users/31740/Desktop/newcore/include/linux/slab.h ****  * stays valid, the trick to using this is relying on an independent
 112:/mnt/c/Users/31740/Desktop/newcore/include/linux/slab.h ****  * object validation pass. Something like:
 113:/mnt/c/Users/31740/Desktop/newcore/include/linux/slab.h ****  *
 114:/mnt/c/Users/31740/Desktop/newcore/include/linux/slab.h ****  * ::
 115:/mnt/c/Users/31740/Desktop/newcore/include/linux/slab.h ****  *
 116:/mnt/c/Users/31740/Desktop/newcore/include/linux/slab.h ****  *  begin:
 117:/mnt/c/Users/31740/Desktop/newcore/include/linux/slab.h ****  *   rcu_read_lock();
 118:/mnt/c/Users/31740/Desktop/newcore/include/linux/slab.h ****  *   obj = lockless_lookup(key);
 119:/mnt/c/Users/31740/Desktop/newcore/include/linux/slab.h ****  *   if (obj) {
 120:/mnt/c/Users/31740/Desktop/newcore/include/linux/slab.h ****  *     if (!try_get_ref(obj)) // might fail for free objects
 121:/mnt/c/Users/31740/Desktop/newcore/include/linux/slab.h ****  *       rcu_read_unlock();
 122:/mnt/c/Users/31740/Desktop/newcore/include/linux/slab.h ****  *       goto begin;
 123:/mnt/c/Users/31740/Desktop/newcore/include/linux/slab.h ****  *
 124:/mnt/c/Users/31740/Desktop/newcore/include/linux/slab.h ****  *     if (obj->key != key) { // not the object we expected
 125:/mnt/c/Users/31740/Desktop/newcore/include/linux/slab.h ****  *       put_ref(obj);
 126:/mnt/c/Users/31740/Desktop/newcore/include/linux/slab.h ****  *       rcu_read_unlock();
 127:/mnt/c/Users/31740/Desktop/newcore/include/linux/slab.h ****  *       goto begin;
 128:/mnt/c/Users/31740/Desktop/newcore/include/linux/slab.h ****  *     }
 129:/mnt/c/Users/31740/Desktop/newcore/include/linux/slab.h ****  *   }
 130:/mnt/c/Users/31740/Desktop/newcore/include/linux/slab.h ****  *  rcu_read_unlock();
 131:/mnt/c/Users/31740/Desktop/newcore/include/linux/slab.h ****  *
 132:/mnt/c/Users/31740/Desktop/newcore/include/linux/slab.h ****  * This is useful if we need to approach a kernel structure obliquely,
 133:/mnt/c/Users/31740/Desktop/newcore/include/linux/slab.h ****  * from its address obtained without the usual locking. We can lock
 134:/mnt/c/Users/31740/Desktop/newcore/include/linux/slab.h ****  * the structure to stabilize it and check it's still at the given address,
 135:/mnt/c/Users/31740/Desktop/newcore/include/linux/slab.h ****  * only if we can be sure that the memory has not been meanwhile reused
 136:/mnt/c/Users/31740/Desktop/newcore/include/linux/slab.h ****  * for some other kind of object (which our subsystem's lock might corrupt).
 137:/mnt/c/Users/31740/Desktop/newcore/include/linux/slab.h ****  *
 138:/mnt/c/Users/31740/Desktop/newcore/include/linux/slab.h ****  * rcu_read_lock before reading the address, then rcu_read_unlock after
 139:/mnt/c/Users/31740/Desktop/newcore/include/linux/slab.h ****  * taking the spinlock within the structure expected at that address.
 140:/mnt/c/Users/31740/Desktop/newcore/include/linux/slab.h ****  *
 141:/mnt/c/Users/31740/Desktop/newcore/include/linux/slab.h ****  * Note that it is not possible to acquire a lock within a structure
 142:/mnt/c/Users/31740/Desktop/newcore/include/linux/slab.h ****  * allocated with SLAB_TYPESAFE_BY_RCU without first acquiring a reference
 143:/mnt/c/Users/31740/Desktop/newcore/include/linux/slab.h ****  * as described above.  The reason is that SLAB_TYPESAFE_BY_RCU pages
 144:/mnt/c/Users/31740/Desktop/newcore/include/linux/slab.h ****  * are not zeroed before being given to the slab, which means that any
 145:/mnt/c/Users/31740/Desktop/newcore/include/linux/slab.h ****  * locks must be initialized after each and every kmem_struct_alloc().
 146:/mnt/c/Users/31740/Desktop/newcore/include/linux/slab.h ****  * Alternatively, make the ctor passed to kmem_cache_create() initialize
 147:/mnt/c/Users/31740/Desktop/newcore/include/linux/slab.h ****  * the locks at page-allocation time, as is done in __i915_request_ctor(),
 148:/mnt/c/Users/31740/Desktop/newcore/include/linux/slab.h ****  * sighand_ctor(), and anon_vma_ctor().  Such a ctor permits readers
 149:/mnt/c/Users/31740/Desktop/newcore/include/linux/slab.h ****  * to safely acquire those ctor-initialized locks under rcu_read_lock()
 150:/mnt/c/Users/31740/Desktop/newcore/include/linux/slab.h ****  * protection.
ARM GAS  /tmp/cc6j5Zku.s 			page 5


 151:/mnt/c/Users/31740/Desktop/newcore/include/linux/slab.h ****  *
 152:/mnt/c/Users/31740/Desktop/newcore/include/linux/slab.h ****  * Note that SLAB_TYPESAFE_BY_RCU was originally named SLAB_DESTROY_BY_RCU.
 153:/mnt/c/Users/31740/Desktop/newcore/include/linux/slab.h ****  */
 154:/mnt/c/Users/31740/Desktop/newcore/include/linux/slab.h **** #define SLAB_TYPESAFE_BY_RCU	__SLAB_FLAG_BIT(_SLAB_TYPESAFE_BY_RCU)
 155:/mnt/c/Users/31740/Desktop/newcore/include/linux/slab.h **** /* Trace allocations and frees */
 156:/mnt/c/Users/31740/Desktop/newcore/include/linux/slab.h **** #define SLAB_TRACE		__SLAB_FLAG_BIT(_SLAB_TRACE)
 157:/mnt/c/Users/31740/Desktop/newcore/include/linux/slab.h **** 
 158:/mnt/c/Users/31740/Desktop/newcore/include/linux/slab.h **** /* Flag to prevent checks on free */
 159:/mnt/c/Users/31740/Desktop/newcore/include/linux/slab.h **** #ifdef CONFIG_DEBUG_OBJECTS
 160:/mnt/c/Users/31740/Desktop/newcore/include/linux/slab.h **** # define SLAB_DEBUG_OBJECTS	__SLAB_FLAG_BIT(_SLAB_DEBUG_OBJECTS)
 161:/mnt/c/Users/31740/Desktop/newcore/include/linux/slab.h **** #else
 162:/mnt/c/Users/31740/Desktop/newcore/include/linux/slab.h **** # define SLAB_DEBUG_OBJECTS	__SLAB_FLAG_UNUSED
 163:/mnt/c/Users/31740/Desktop/newcore/include/linux/slab.h **** #endif
 164:/mnt/c/Users/31740/Desktop/newcore/include/linux/slab.h **** 
 165:/mnt/c/Users/31740/Desktop/newcore/include/linux/slab.h **** /* Avoid kmemleak tracing */
 166:/mnt/c/Users/31740/Desktop/newcore/include/linux/slab.h **** #define SLAB_NOLEAKTRACE	__SLAB_FLAG_BIT(_SLAB_NOLEAKTRACE)
 167:/mnt/c/Users/31740/Desktop/newcore/include/linux/slab.h **** 
 168:/mnt/c/Users/31740/Desktop/newcore/include/linux/slab.h **** /*
 169:/mnt/c/Users/31740/Desktop/newcore/include/linux/slab.h ****  * Prevent merging with compatible kmem caches. This flag should be used
 170:/mnt/c/Users/31740/Desktop/newcore/include/linux/slab.h ****  * cautiously. Valid use cases:
 171:/mnt/c/Users/31740/Desktop/newcore/include/linux/slab.h ****  *
 172:/mnt/c/Users/31740/Desktop/newcore/include/linux/slab.h ****  * - caches created for self-tests (e.g. kunit)
 173:/mnt/c/Users/31740/Desktop/newcore/include/linux/slab.h ****  * - general caches created and used by a subsystem, only when a
 174:/mnt/c/Users/31740/Desktop/newcore/include/linux/slab.h ****  *   (subsystem-specific) debug option is enabled
 175:/mnt/c/Users/31740/Desktop/newcore/include/linux/slab.h ****  * - performance critical caches, should be very rare and consulted with slab
 176:/mnt/c/Users/31740/Desktop/newcore/include/linux/slab.h ****  *   maintainers, and not used together with CONFIG_SLUB_TINY
 177:/mnt/c/Users/31740/Desktop/newcore/include/linux/slab.h ****  */
 178:/mnt/c/Users/31740/Desktop/newcore/include/linux/slab.h **** #define SLAB_NO_MERGE		__SLAB_FLAG_BIT(_SLAB_NO_MERGE)
 179:/mnt/c/Users/31740/Desktop/newcore/include/linux/slab.h **** 
 180:/mnt/c/Users/31740/Desktop/newcore/include/linux/slab.h **** /* Fault injection mark */
 181:/mnt/c/Users/31740/Desktop/newcore/include/linux/slab.h **** #ifdef CONFIG_FAILSLAB
 182:/mnt/c/Users/31740/Desktop/newcore/include/linux/slab.h **** # define SLAB_FAILSLAB		__SLAB_FLAG_BIT(_SLAB_FAILSLAB)
 183:/mnt/c/Users/31740/Desktop/newcore/include/linux/slab.h **** #else
 184:/mnt/c/Users/31740/Desktop/newcore/include/linux/slab.h **** # define SLAB_FAILSLAB		__SLAB_FLAG_UNUSED
 185:/mnt/c/Users/31740/Desktop/newcore/include/linux/slab.h **** #endif
 186:/mnt/c/Users/31740/Desktop/newcore/include/linux/slab.h **** /**
 187:/mnt/c/Users/31740/Desktop/newcore/include/linux/slab.h ****  * define SLAB_ACCOUNT - Account allocations to memcg.
 188:/mnt/c/Users/31740/Desktop/newcore/include/linux/slab.h ****  *
 189:/mnt/c/Users/31740/Desktop/newcore/include/linux/slab.h ****  * All object allocations from this cache will be memcg accounted, regardless of
 190:/mnt/c/Users/31740/Desktop/newcore/include/linux/slab.h ****  * __GFP_ACCOUNT being or not being passed to individual allocations.
 191:/mnt/c/Users/31740/Desktop/newcore/include/linux/slab.h ****  */
 192:/mnt/c/Users/31740/Desktop/newcore/include/linux/slab.h **** #ifdef CONFIG_MEMCG
 193:/mnt/c/Users/31740/Desktop/newcore/include/linux/slab.h **** # define SLAB_ACCOUNT		__SLAB_FLAG_BIT(_SLAB_ACCOUNT)
 194:/mnt/c/Users/31740/Desktop/newcore/include/linux/slab.h **** #else
 195:/mnt/c/Users/31740/Desktop/newcore/include/linux/slab.h **** # define SLAB_ACCOUNT		__SLAB_FLAG_UNUSED
 196:/mnt/c/Users/31740/Desktop/newcore/include/linux/slab.h **** #endif
 197:/mnt/c/Users/31740/Desktop/newcore/include/linux/slab.h **** 
 198:/mnt/c/Users/31740/Desktop/newcore/include/linux/slab.h **** #ifdef CONFIG_KASAN_GENERIC
 199:/mnt/c/Users/31740/Desktop/newcore/include/linux/slab.h **** #define SLAB_KASAN		__SLAB_FLAG_BIT(_SLAB_KASAN)
 200:/mnt/c/Users/31740/Desktop/newcore/include/linux/slab.h **** #else
 201:/mnt/c/Users/31740/Desktop/newcore/include/linux/slab.h **** #define SLAB_KASAN		__SLAB_FLAG_UNUSED
 202:/mnt/c/Users/31740/Desktop/newcore/include/linux/slab.h **** #endif
 203:/mnt/c/Users/31740/Desktop/newcore/include/linux/slab.h **** 
 204:/mnt/c/Users/31740/Desktop/newcore/include/linux/slab.h **** /*
 205:/mnt/c/Users/31740/Desktop/newcore/include/linux/slab.h ****  * Ignore user specified debugging flags.
 206:/mnt/c/Users/31740/Desktop/newcore/include/linux/slab.h ****  * Intended for caches created for self-tests so they have only flags
 207:/mnt/c/Users/31740/Desktop/newcore/include/linux/slab.h ****  * specified in the code and other flags are ignored.
ARM GAS  /tmp/cc6j5Zku.s 			page 6


 208:/mnt/c/Users/31740/Desktop/newcore/include/linux/slab.h ****  */
 209:/mnt/c/Users/31740/Desktop/newcore/include/linux/slab.h **** #define SLAB_NO_USER_FLAGS	__SLAB_FLAG_BIT(_SLAB_NO_USER_FLAGS)
 210:/mnt/c/Users/31740/Desktop/newcore/include/linux/slab.h **** 
 211:/mnt/c/Users/31740/Desktop/newcore/include/linux/slab.h **** #ifdef CONFIG_KFENCE
 212:/mnt/c/Users/31740/Desktop/newcore/include/linux/slab.h **** #define SLAB_SKIP_KFENCE	__SLAB_FLAG_BIT(_SLAB_SKIP_KFENCE)
 213:/mnt/c/Users/31740/Desktop/newcore/include/linux/slab.h **** #else
 214:/mnt/c/Users/31740/Desktop/newcore/include/linux/slab.h **** #define SLAB_SKIP_KFENCE	__SLAB_FLAG_UNUSED
 215:/mnt/c/Users/31740/Desktop/newcore/include/linux/slab.h **** #endif
 216:/mnt/c/Users/31740/Desktop/newcore/include/linux/slab.h **** 
 217:/mnt/c/Users/31740/Desktop/newcore/include/linux/slab.h **** /* The following flags affect the page allocator grouping pages by mobility */
 218:/mnt/c/Users/31740/Desktop/newcore/include/linux/slab.h **** /**
 219:/mnt/c/Users/31740/Desktop/newcore/include/linux/slab.h ****  * define SLAB_RECLAIM_ACCOUNT - Objects are reclaimable.
 220:/mnt/c/Users/31740/Desktop/newcore/include/linux/slab.h ****  *
 221:/mnt/c/Users/31740/Desktop/newcore/include/linux/slab.h ****  * Use this flag for caches that have an associated shrinker. As a result, slab
 222:/mnt/c/Users/31740/Desktop/newcore/include/linux/slab.h ****  * pages are allocated with __GFP_RECLAIMABLE, which affects grouping pages by
 223:/mnt/c/Users/31740/Desktop/newcore/include/linux/slab.h ****  * mobility, and are accounted in SReclaimable counter in /proc/meminfo
 224:/mnt/c/Users/31740/Desktop/newcore/include/linux/slab.h ****  */
 225:/mnt/c/Users/31740/Desktop/newcore/include/linux/slab.h **** #ifndef CONFIG_SLUB_TINY
 226:/mnt/c/Users/31740/Desktop/newcore/include/linux/slab.h **** #define SLAB_RECLAIM_ACCOUNT	__SLAB_FLAG_BIT(_SLAB_RECLAIM_ACCOUNT)
 227:/mnt/c/Users/31740/Desktop/newcore/include/linux/slab.h **** #else
 228:/mnt/c/Users/31740/Desktop/newcore/include/linux/slab.h **** #define SLAB_RECLAIM_ACCOUNT	__SLAB_FLAG_UNUSED
 229:/mnt/c/Users/31740/Desktop/newcore/include/linux/slab.h **** #endif
 230:/mnt/c/Users/31740/Desktop/newcore/include/linux/slab.h **** #define SLAB_TEMPORARY		SLAB_RECLAIM_ACCOUNT	/* Objects are short-lived */
 231:/mnt/c/Users/31740/Desktop/newcore/include/linux/slab.h **** 
 232:/mnt/c/Users/31740/Desktop/newcore/include/linux/slab.h **** /* Slab created using create_boot_cache */
 233:/mnt/c/Users/31740/Desktop/newcore/include/linux/slab.h **** #ifdef CONFIG_SLAB_OBJ_EXT
 234:/mnt/c/Users/31740/Desktop/newcore/include/linux/slab.h **** #define SLAB_NO_OBJ_EXT		__SLAB_FLAG_BIT(_SLAB_NO_OBJ_EXT)
 235:/mnt/c/Users/31740/Desktop/newcore/include/linux/slab.h **** #else
 236:/mnt/c/Users/31740/Desktop/newcore/include/linux/slab.h **** #define SLAB_NO_OBJ_EXT		__SLAB_FLAG_UNUSED
 237:/mnt/c/Users/31740/Desktop/newcore/include/linux/slab.h **** #endif
 238:/mnt/c/Users/31740/Desktop/newcore/include/linux/slab.h **** 
 239:/mnt/c/Users/31740/Desktop/newcore/include/linux/slab.h **** /*
 240:/mnt/c/Users/31740/Desktop/newcore/include/linux/slab.h ****  * freeptr_t represents a SLUB freelist pointer, which might be encoded
 241:/mnt/c/Users/31740/Desktop/newcore/include/linux/slab.h ****  * and not dereferenceable if CONFIG_SLAB_FREELIST_HARDENED is enabled.
 242:/mnt/c/Users/31740/Desktop/newcore/include/linux/slab.h ****  */
 243:/mnt/c/Users/31740/Desktop/newcore/include/linux/slab.h **** typedef struct { unsigned long v; } freeptr_t;
 244:/mnt/c/Users/31740/Desktop/newcore/include/linux/slab.h **** 
 245:/mnt/c/Users/31740/Desktop/newcore/include/linux/slab.h **** /*
 246:/mnt/c/Users/31740/Desktop/newcore/include/linux/slab.h ****  * ZERO_SIZE_PTR will be returned for zero sized kmalloc requests.
 247:/mnt/c/Users/31740/Desktop/newcore/include/linux/slab.h ****  *
 248:/mnt/c/Users/31740/Desktop/newcore/include/linux/slab.h ****  * Dereferencing ZERO_SIZE_PTR will lead to a distinct access fault.
 249:/mnt/c/Users/31740/Desktop/newcore/include/linux/slab.h ****  *
 250:/mnt/c/Users/31740/Desktop/newcore/include/linux/slab.h ****  * ZERO_SIZE_PTR can be passed to kfree though in the same way that NULL can.
 251:/mnt/c/Users/31740/Desktop/newcore/include/linux/slab.h ****  * Both make kfree a no-op.
 252:/mnt/c/Users/31740/Desktop/newcore/include/linux/slab.h ****  */
 253:/mnt/c/Users/31740/Desktop/newcore/include/linux/slab.h **** #define ZERO_SIZE_PTR ((void *)16)
 254:/mnt/c/Users/31740/Desktop/newcore/include/linux/slab.h **** 
 255:/mnt/c/Users/31740/Desktop/newcore/include/linux/slab.h **** #define ZERO_OR_NULL_PTR(x) ((unsigned long)(x) <= \
 256:/mnt/c/Users/31740/Desktop/newcore/include/linux/slab.h **** 				(unsigned long)ZERO_SIZE_PTR)
 257:/mnt/c/Users/31740/Desktop/newcore/include/linux/slab.h **** 
 258:/mnt/c/Users/31740/Desktop/newcore/include/linux/slab.h **** 
 259:/mnt/c/Users/31740/Desktop/newcore/include/linux/slab.h **** 
 260:/mnt/c/Users/31740/Desktop/newcore/include/linux/slab.h **** 
 261:/mnt/c/Users/31740/Desktop/newcore/include/linux/slab.h **** 
 262:/mnt/c/Users/31740/Desktop/newcore/include/linux/slab.h **** #ifdef CONFIG_SLUB_CPU_PARTIAL
 263:/mnt/c/Users/31740/Desktop/newcore/include/linux/slab.h **** #define slub_percpu_partial(c)			((c)->partial)
 264:/mnt/c/Users/31740/Desktop/newcore/include/linux/slab.h **** 
ARM GAS  /tmp/cc6j5Zku.s 			page 7


 265:/mnt/c/Users/31740/Desktop/newcore/include/linux/slab.h **** #define slub_set_percpu_partial(c, p)		\
 266:/mnt/c/Users/31740/Desktop/newcore/include/linux/slab.h **** ({						\
 267:/mnt/c/Users/31740/Desktop/newcore/include/linux/slab.h **** 	slub_percpu_partial(c) = (p)->next;	\
 268:/mnt/c/Users/31740/Desktop/newcore/include/linux/slab.h **** })
 269:/mnt/c/Users/31740/Desktop/newcore/include/linux/slab.h **** 
 270:/mnt/c/Users/31740/Desktop/newcore/include/linux/slab.h **** #define slub_percpu_partial_read_once(c)	READ_ONCE(slub_percpu_partial(c))
 271:/mnt/c/Users/31740/Desktop/newcore/include/linux/slab.h **** #else
 272:/mnt/c/Users/31740/Desktop/newcore/include/linux/slab.h **** #define slub_percpu_partial(c)			NULL
 273:/mnt/c/Users/31740/Desktop/newcore/include/linux/slab.h **** 
 274:/mnt/c/Users/31740/Desktop/newcore/include/linux/slab.h **** #define slub_set_percpu_partial(c, p)
 275:/mnt/c/Users/31740/Desktop/newcore/include/linux/slab.h **** 
 276:/mnt/c/Users/31740/Desktop/newcore/include/linux/slab.h **** #define slub_percpu_partial_read_once(c)	NULL
 277:/mnt/c/Users/31740/Desktop/newcore/include/linux/slab.h **** 
 278:/mnt/c/Users/31740/Desktop/newcore/include/linux/slab.h **** 
 279:/mnt/c/Users/31740/Desktop/newcore/include/linux/slab.h **** #endif // CONFIG_SLUB_CPU_PARTIAL
 280:/mnt/c/Users/31740/Desktop/newcore/include/linux/slab.h **** 
 281:/mnt/c/Users/31740/Desktop/newcore/include/linux/slab.h **** /*
 282:/mnt/c/Users/31740/Desktop/newcore/include/linux/slab.h **** 	* Word size structure that can be atomically updated or read and that
 283:/mnt/c/Users/31740/Desktop/newcore/include/linux/slab.h **** 	* contains both the order and the number of objects that a slab of the
 284:/mnt/c/Users/31740/Desktop/newcore/include/linux/slab.h **** 	* given order would contain.
 285:/mnt/c/Users/31740/Desktop/newcore/include/linux/slab.h **** 	*/				
 286:/mnt/c/Users/31740/Desktop/newcore/include/linux/slab.h **** struct kmem_cache_order_objects {
 287:/mnt/c/Users/31740/Desktop/newcore/include/linux/slab.h **** 	unsigned int x;
 288:/mnt/c/Users/31740/Desktop/newcore/include/linux/slab.h **** };
 289:/mnt/c/Users/31740/Desktop/newcore/include/linux/slab.h **** 
 290:/mnt/c/Users/31740/Desktop/newcore/include/linux/slab.h **** struct kmem_cache_node {
 291:/mnt/c/Users/31740/Desktop/newcore/include/linux/slab.h **** 	spinlock_t list_lock;
 292:/mnt/c/Users/31740/Desktop/newcore/include/linux/slab.h **** 	unsigned long nr_partial;
 293:/mnt/c/Users/31740/Desktop/newcore/include/linux/slab.h **** 	struct list_head partial;
 294:/mnt/c/Users/31740/Desktop/newcore/include/linux/slab.h **** #ifdef CONFIG_SLUB_DEBUG
 295:/mnt/c/Users/31740/Desktop/newcore/include/linux/slab.h **** 	atomic_long_t nr_slabs;
 296:/mnt/c/Users/31740/Desktop/newcore/include/linux/slab.h **** 	atomic_long_t total_objects;
 297:/mnt/c/Users/31740/Desktop/newcore/include/linux/slab.h **** 	struct list_head full;
 298:/mnt/c/Users/31740/Desktop/newcore/include/linux/slab.h **** #endif
 299:/mnt/c/Users/31740/Desktop/newcore/include/linux/slab.h **** };
 300:/mnt/c/Users/31740/Desktop/newcore/include/linux/slab.h **** 
 301:/mnt/c/Users/31740/Desktop/newcore/include/linux/slab.h **** struct kmem_cache {
 302:/mnt/c/Users/31740/Desktop/newcore/include/linux/slab.h **** 	#ifndef CONFIG_SLUB_TINY
 303:/mnt/c/Users/31740/Desktop/newcore/include/linux/slab.h **** 	//	struct kmem_cache_cpu __percpu *cpu_slab;
 304:/mnt/c/Users/31740/Desktop/newcore/include/linux/slab.h **** 	#endif
 305:/mnt/c/Users/31740/Desktop/newcore/include/linux/slab.h **** 		/* Used for retrieving partial slabs, etc. */
 306:/mnt/c/Users/31740/Desktop/newcore/include/linux/slab.h **** 		slab_flags_t flags;
 307:/mnt/c/Users/31740/Desktop/newcore/include/linux/slab.h **** 		unsigned long min_partial;
 308:/mnt/c/Users/31740/Desktop/newcore/include/linux/slab.h **** 		unsigned int size;		/* Object size including metadata */
 309:/mnt/c/Users/31740/Desktop/newcore/include/linux/slab.h **** 		unsigned int object_size;	/* Object size without metadata */
 310:/mnt/c/Users/31740/Desktop/newcore/include/linux/slab.h **** 		struct reciprocal_value reciprocal_size;
 311:/mnt/c/Users/31740/Desktop/newcore/include/linux/slab.h **** 		unsigned int offset;		/* Free pointer offset */
 312:/mnt/c/Users/31740/Desktop/newcore/include/linux/slab.h **** 	#ifdef CONFIG_SLUB_CPU_PARTIAL
 313:/mnt/c/Users/31740/Desktop/newcore/include/linux/slab.h **** 		/* Number of per cpu partial objects to keep around */
 314:/mnt/c/Users/31740/Desktop/newcore/include/linux/slab.h **** 		unsigned int cpu_partial;
 315:/mnt/c/Users/31740/Desktop/newcore/include/linux/slab.h **** 		/* Number of per cpu partial slabs to keep around */
 316:/mnt/c/Users/31740/Desktop/newcore/include/linux/slab.h **** 		unsigned int cpu_partial_slabs;
 317:/mnt/c/Users/31740/Desktop/newcore/include/linux/slab.h **** 	#endif
 318:/mnt/c/Users/31740/Desktop/newcore/include/linux/slab.h **** 		struct kmem_cache_order_objects oo;
 319:/mnt/c/Users/31740/Desktop/newcore/include/linux/slab.h **** 	
 320:/mnt/c/Users/31740/Desktop/newcore/include/linux/slab.h **** 		/* Allocation and freeing of slabs */
 321:/mnt/c/Users/31740/Desktop/newcore/include/linux/slab.h **** 		struct kmem_cache_order_objects min;
ARM GAS  /tmp/cc6j5Zku.s 			page 8


 322:/mnt/c/Users/31740/Desktop/newcore/include/linux/slab.h **** 		gfp_t allocflags;		/* gfp flags to use on each alloc */
 323:/mnt/c/Users/31740/Desktop/newcore/include/linux/slab.h **** 		int refcount;			/* Refcount for slab cache destroy */
 324:/mnt/c/Users/31740/Desktop/newcore/include/linux/slab.h **** 		void (*ctor)(void *object);	/* Object constructor */
 325:/mnt/c/Users/31740/Desktop/newcore/include/linux/slab.h **** 		unsigned int inuse;		/* Offset to metadata */
 326:/mnt/c/Users/31740/Desktop/newcore/include/linux/slab.h **** 		unsigned int align;		/* Alignment */
 327:/mnt/c/Users/31740/Desktop/newcore/include/linux/slab.h **** 		unsigned int red_left_pad;	/* Left redzone padding size */
 328:/mnt/c/Users/31740/Desktop/newcore/include/linux/slab.h **** 		const char *name;		/* Name (only for display!) */
 329:/mnt/c/Users/31740/Desktop/newcore/include/linux/slab.h **** 		struct list_head list;		/* List of slab caches */
 330:/mnt/c/Users/31740/Desktop/newcore/include/linux/slab.h **** 	#ifdef CONFIG_SYSFS
 331:/mnt/c/Users/31740/Desktop/newcore/include/linux/slab.h **** 		struct kobject kobj;		/* For sysfs */
 332:/mnt/c/Users/31740/Desktop/newcore/include/linux/slab.h **** 	#endif
 333:/mnt/c/Users/31740/Desktop/newcore/include/linux/slab.h **** 	#ifdef CONFIG_SLAB_FREELIST_HARDENED
 334:/mnt/c/Users/31740/Desktop/newcore/include/linux/slab.h **** 		unsigned long random;
 335:/mnt/c/Users/31740/Desktop/newcore/include/linux/slab.h **** 	#endif
 336:/mnt/c/Users/31740/Desktop/newcore/include/linux/slab.h **** 	
 337:/mnt/c/Users/31740/Desktop/newcore/include/linux/slab.h **** 	#ifdef CONFIG_NUMA
 338:/mnt/c/Users/31740/Desktop/newcore/include/linux/slab.h **** 		/*
 339:/mnt/c/Users/31740/Desktop/newcore/include/linux/slab.h **** 			* Defragmentation by allocating from a remote node.
 340:/mnt/c/Users/31740/Desktop/newcore/include/linux/slab.h **** 			*/
 341:/mnt/c/Users/31740/Desktop/newcore/include/linux/slab.h **** 		unsigned int remote_node_defrag_ratio;
 342:/mnt/c/Users/31740/Desktop/newcore/include/linux/slab.h **** 	#endif
 343:/mnt/c/Users/31740/Desktop/newcore/include/linux/slab.h **** 	
 344:/mnt/c/Users/31740/Desktop/newcore/include/linux/slab.h **** 	#ifdef CONFIG_SLAB_FREELIST_RANDOM
 345:/mnt/c/Users/31740/Desktop/newcore/include/linux/slab.h **** 		unsigned int *random_seq;
 346:/mnt/c/Users/31740/Desktop/newcore/include/linux/slab.h **** 	#endif
 347:/mnt/c/Users/31740/Desktop/newcore/include/linux/slab.h **** 	
 348:/mnt/c/Users/31740/Desktop/newcore/include/linux/slab.h **** 	#ifdef CONFIG_KASAN_GENERIC
 349:/mnt/c/Users/31740/Desktop/newcore/include/linux/slab.h **** 		struct kasan_cache kasan_info;
 350:/mnt/c/Users/31740/Desktop/newcore/include/linux/slab.h **** 	#endif
 351:/mnt/c/Users/31740/Desktop/newcore/include/linux/slab.h **** 	
 352:/mnt/c/Users/31740/Desktop/newcore/include/linux/slab.h **** 	#ifdef CONFIG_HARDENED_USERCOPY
 353:/mnt/c/Users/31740/Desktop/newcore/include/linux/slab.h **** 		unsigned int useroffset;	/* Usercopy region offset */
 354:/mnt/c/Users/31740/Desktop/newcore/include/linux/slab.h **** 		unsigned int usersize;		/* Usercopy region size */
 355:/mnt/c/Users/31740/Desktop/newcore/include/linux/slab.h **** 	#endif
 356:/mnt/c/Users/31740/Desktop/newcore/include/linux/slab.h **** 	
 357:/mnt/c/Users/31740/Desktop/newcore/include/linux/slab.h **** 		struct kmem_cache_node *node[MAX_NUMNODES];
 358:/mnt/c/Users/31740/Desktop/newcore/include/linux/slab.h **** 	};
 359:/mnt/c/Users/31740/Desktop/newcore/include/linux/slab.h **** 					
 360:/mnt/c/Users/31740/Desktop/newcore/include/linux/slab.h **** 
 361:/mnt/c/Users/31740/Desktop/newcore/include/linux/slab.h **** 
 362:/mnt/c/Users/31740/Desktop/newcore/include/linux/slab.h **** 
 363:/mnt/c/Users/31740/Desktop/newcore/include/linux/slab.h **** 
 364:/mnt/c/Users/31740/Desktop/newcore/include/linux/slab.h **** #define KMALLOC_WAIT 1
 365:/mnt/c/Users/31740/Desktop/newcore/include/linux/slab.h **** 
 366:/mnt/c/Users/31740/Desktop/newcore/include/linux/slab.h **** 
 367:/mnt/c/Users/31740/Desktop/newcore/include/linux/slab.h **** extern void* __smalloc__(u32 size, gfp_t flags);
 368:/mnt/c/Users/31740/Desktop/newcore/include/linux/slab.h **** extern void  __sfree__(void* addr);
 369:/mnt/c/Users/31740/Desktop/newcore/include/linux/slab.h **** 
 370:/mnt/c/Users/31740/Desktop/newcore/include/linux/slab.h **** 
 371:/mnt/c/Users/31740/Desktop/newcore/include/linux/slab.h **** static void inline *vmalloc(unsigned long size){
 372:/mnt/c/Users/31740/Desktop/newcore/include/linux/slab.h **** 	return __smalloc__(size,GFP_TRANSHUGE_LIGHT);
 373:/mnt/c/Users/31740/Desktop/newcore/include/linux/slab.h **** }
 374:/mnt/c/Users/31740/Desktop/newcore/include/linux/slab.h **** 
 375:/mnt/c/Users/31740/Desktop/newcore/include/linux/slab.h **** static void inline vfree(void *addr){
 376:/mnt/c/Users/31740/Desktop/newcore/include/linux/slab.h **** 	__sfree__(addr);
 377:/mnt/c/Users/31740/Desktop/newcore/include/linux/slab.h **** }
 378:/mnt/c/Users/31740/Desktop/newcore/include/linux/slab.h **** 
ARM GAS  /tmp/cc6j5Zku.s 			page 9


 379:/mnt/c/Users/31740/Desktop/newcore/include/linux/slab.h **** static void inline *kmalloc(size_t size, gfp_t flags){
  64              		.loc 2 379 21 view .LVU6
  65              	.LBB14:
 380:/mnt/c/Users/31740/Desktop/newcore/include/linux/slab.h **** 	return __smalloc__((u32)size,flags);
  66              		.loc 2 380 2 view .LVU7
  67              		.loc 2 380 9 is_stmt 0 view .LVU8
  68 0010 4FF44C61 		mov	r1, #3264
  69 0014 0820     		movs	r0, #8
  70 0016 FFF7FEFF 		bl	__smalloc__
  71              	.LVL4:
  72              		.loc 2 380 9 view .LVU9
  73              	.LBE14:
  74              	.LBE13:
  13:/mnt/c/Users/31740/Desktop/newcore/drivers/driver.c ****     if(newclass == NULL)
  75              		.loc 1 13 5 is_stmt 1 view .LVU10
  76              		.loc 1 13 7 is_stmt 0 view .LVU11
  77 001a 88B1     		cbz	r0, .L3
  78 001c 0646     		mov	r6, r0
  14:/mnt/c/Users/31740/Desktop/newcore/drivers/driver.c ****         return -ENOMEM;
  15:/mnt/c/Users/31740/Desktop/newcore/drivers/driver.c ****     char* class_name = kmalloc(strlen(name)+ 1,GFP_KERNEL);
  79              		.loc 1 15 5 is_stmt 1 view .LVU12
  80              		.loc 1 15 32 is_stmt 0 view .LVU13
  81 001e 2046     		mov	r0, r4
  82              	.LVL5:
  83              		.loc 1 15 32 view .LVU14
  84 0020 FFF7FEFF 		bl	strlen
  85              	.LVL6:
  86              	.LBB15:
  87              	.LBI15:
 379:/mnt/c/Users/31740/Desktop/newcore/include/linux/slab.h **** 	return __smalloc__((u32)size,flags);
  88              		.loc 2 379 21 is_stmt 1 view .LVU15
  89              	.LBB16:
  90              		.loc 2 380 2 view .LVU16
  91              		.loc 2 380 9 is_stmt 0 view .LVU17
  92 0024 4FF44C61 		mov	r1, #3264
  93 0028 0130     		adds	r0, r0, #1
  94              	.LVL7:
  95              		.loc 2 380 9 view .LVU18
  96 002a FFF7FEFF 		bl	__smalloc__
  97              	.LVL8:
  98              		.loc 2 380 9 view .LVU19
  99              	.LBE16:
 100              	.LBE15:
  16:/mnt/c/Users/31740/Desktop/newcore/drivers/driver.c ****     if(class_name == NULL) 
 101              		.loc 1 16 5 is_stmt 1 view .LVU20
 102              		.loc 1 16 7 is_stmt 0 view .LVU21
 103 002e 0746     		mov	r7, r0
 104 0030 48B1     		cbz	r0, .L4
  17:/mnt/c/Users/31740/Desktop/newcore/drivers/driver.c ****         return -ENOMEM;
  18:/mnt/c/Users/31740/Desktop/newcore/drivers/driver.c ****     strcpy(class_name,name);
 105              		.loc 1 18 5 is_stmt 1 view .LVU22
 106 0032 2146     		mov	r1, r4
 107 0034 FFF7FEFF 		bl	strcpy
 108              	.LVL9:
  19:/mnt/c/Users/31740/Desktop/newcore/drivers/driver.c ****     newclass->name = class_name;
 109              		.loc 1 19 5 view .LVU23
 110              		.loc 1 19 20 is_stmt 0 view .LVU24
ARM GAS  /tmp/cc6j5Zku.s 			page 10


 111 0038 7760     		str	r7, [r6, #4]
  20:/mnt/c/Users/31740/Desktop/newcore/drivers/driver.c ****     newclass->owner = owner;
 112              		.loc 1 20 5 is_stmt 1 view .LVU25
 113              		.loc 1 20 21 is_stmt 0 view .LVU26
 114 003a 3560     		str	r5, [r6]
  21:/mnt/c/Users/31740/Desktop/newcore/drivers/driver.c ****     return newclass;
 115              		.loc 1 21 5 is_stmt 1 view .LVU27
 116              	.LVL10:
 117              	.L1:
  22:/mnt/c/Users/31740/Desktop/newcore/drivers/driver.c **** }
 118              		.loc 1 22 1 is_stmt 0 view .LVU28
 119 003c 3046     		mov	r0, r6
 120 003e F8BD     		pop	{r3, r4, r5, r6, r7, pc}
 121              	.LVL11:
 122              	.L3:
  14:/mnt/c/Users/31740/Desktop/newcore/drivers/driver.c ****     char* class_name = kmalloc(strlen(name)+ 1,GFP_KERNEL);
 123              		.loc 1 14 16 view .LVU29
 124 0040 6FF00B06 		mvn	r6, #11
 125 0044 FAE7     		b	.L1
 126              	.LVL12:
 127              	.L4:
  17:/mnt/c/Users/31740/Desktop/newcore/drivers/driver.c ****     strcpy(class_name,name);
 128              		.loc 1 17 16 view .LVU30
 129 0046 6FF00B06 		mvn	r6, #11
 130              	.LVL13:
  17:/mnt/c/Users/31740/Desktop/newcore/drivers/driver.c ****     strcpy(class_name,name);
 131              		.loc 1 17 16 view .LVU31
 132 004a F7E7     		b	.L1
 133              	.L7:
 134              		.align	2
 135              	.L6:
 136 004c 00000000 		.word	.LC0
 137              		.cfi_endproc
 138              	.LFE1033:
 140              		.section	.rodata.device_create.str1.4,"aMS",%progbits,1
 141              		.align	2
 142              	.LC1:
 143 0000 2F646576 		.ascii	"/dev/%s\000"
 143      2F257300 
 144              		.align	2
 145              	.LC2:
 146 0008 64657669 		.ascii	"device_create: create char file %s \012\000"
 146      63655F63 
 146      72656174 
 146      653A2063 
 146      72656174 
 147              		.section	.text.device_create,"ax",%progbits
 148              		.align	1
 149              		.global	device_create
 150              		.syntax unified
 151              		.thumb
 152              		.thumb_func
 154              	device_create:
 155              	.LVL14:
 156              	.LFB1034:
  23:/mnt/c/Users/31740/Desktop/newcore/drivers/driver.c **** 
  24:/mnt/c/Users/31740/Desktop/newcore/drivers/driver.c **** 
ARM GAS  /tmp/cc6j5Zku.s 			page 11


  25:/mnt/c/Users/31740/Desktop/newcore/drivers/driver.c **** struct device *
  26:/mnt/c/Users/31740/Desktop/newcore/drivers/driver.c **** device_create(const struct class *cls, struct device *parent, dev_t devt,
  27:/mnt/c/Users/31740/Desktop/newcore/drivers/driver.c ****     void *drvdata, const char *fmt, ...){
 157              		.loc 1 27 41 is_stmt 1 view -0
 158              		.cfi_startproc
 159              		@ args = 4, pretend = 0, frame = 264
 160              		@ frame_needed = 0, uses_anonymous_args = 1
 161              		.loc 1 27 41 is_stmt 0 view .LVU33
 162 0000 2DE9F041 		push	{r4, r5, r6, r7, r8, lr}
 163              	.LCFI1:
 164              		.cfi_def_cfa_offset 24
 165              		.cfi_offset 4, -24
 166              		.cfi_offset 5, -20
 167              		.cfi_offset 6, -16
 168              		.cfi_offset 7, -12
 169              		.cfi_offset 8, -8
 170              		.cfi_offset 14, -4
 171 0004 C2B0     		sub	sp, sp, #264
 172              	.LCFI2:
 173              		.cfi_def_cfa_offset 288
 174 0006 0646     		mov	r6, r0
 175 0008 0F46     		mov	r7, r1
 176 000a 1546     		mov	r5, r2
 177 000c 48AB     		add	r3, sp, #288
 178              	.LVL15:
 179              		.loc 1 27 41 view .LVU34
 180 000e 53F8042B 		ldr	r2, [r3], #4
 181              	.LVL16:
  28:/mnt/c/Users/31740/Desktop/newcore/drivers/driver.c ****     char devname[128];
 182              		.loc 1 28 5 is_stmt 1 view .LVU35
  29:/mnt/c/Users/31740/Desktop/newcore/drivers/driver.c ****     va_list args;
 183              		.loc 1 29 5 view .LVU36
  30:/mnt/c/Users/31740/Desktop/newcore/drivers/driver.c ****     va_start(args, fmt);
 184              		.loc 1 30 5 view .LVU37
 185 0012 2193     		str	r3, [sp, #132]
  31:/mnt/c/Users/31740/Desktop/newcore/drivers/driver.c ****     vsnprintf(devname, sizeof(devname), fmt, args);
 186              		.loc 1 31 5 view .LVU38
 187 0014 8021     		movs	r1, #128
 188              	.LVL17:
 189              		.loc 1 31 5 is_stmt 0 view .LVU39
 190 0016 22A8     		add	r0, sp, #136
 191              	.LVL18:
 192              		.loc 1 31 5 view .LVU40
 193 0018 FFF7FEFF 		bl	vsnprintf
 194              	.LVL19:
  32:/mnt/c/Users/31740/Desktop/newcore/drivers/driver.c ****     va_end(args);
 195              		.loc 1 32 5 is_stmt 1 view .LVU41
  33:/mnt/c/Users/31740/Desktop/newcore/drivers/driver.c **** 
  34:/mnt/c/Users/31740/Desktop/newcore/drivers/driver.c ****     char path[128];
 196              		.loc 1 34 5 view .LVU42
  35:/mnt/c/Users/31740/Desktop/newcore/drivers/driver.c ****     snprintf(path,128,"/dev/%s",devname);
 197              		.loc 1 35 5 view .LVU43
 198 001c 22AB     		add	r3, sp, #136
 199 001e 174A     		ldr	r2, .L13
 200 0020 8021     		movs	r1, #128
 201 0022 01A8     		add	r0, sp, #4
 202 0024 FFF7FEFF 		bl	snprintf
ARM GAS  /tmp/cc6j5Zku.s 			page 12


 203              	.LVL20:
  36:/mnt/c/Users/31740/Desktop/newcore/drivers/driver.c **** 
  37:/mnt/c/Users/31740/Desktop/newcore/drivers/driver.c ****     pr_info ("device_create: create char file %s \n",path);
 204              		.loc 1 37 5 view .LVU44
 205 0028 01AA     		add	r2, sp, #4
 206 002a 1549     		ldr	r1, .L13+4
 207 002c 0620     		movs	r0, #6
 208 002e FFF7FEFF 		bl	printk
 209              	.LVL21:
  38:/mnt/c/Users/31740/Desktop/newcore/drivers/driver.c ****     
  39:/mnt/c/Users/31740/Desktop/newcore/drivers/driver.c ****     struct  dentry * dev_dentry = create_new_dentry(path , S_IFREG|0755);
 210              		.loc 1 39 5 view .LVU45
 211              		.loc 1 39 35 is_stmt 0 view .LVU46
 212 0032 48F2ED11 		movw	r1, #33261
 213 0036 01A8     		add	r0, sp, #4
 214 0038 FFF7FEFF 		bl	create_new_dentry
 215              	.LVL22:
 216 003c 0446     		mov	r4, r0
 217              	.LVL23:
  40:/mnt/c/Users/31740/Desktop/newcore/drivers/driver.c ****     if(IS_ERR(dev_dentry)){
 218              		.loc 1 40 5 is_stmt 1 view .LVU47
 219              	.LBB17:
 220              	.LBI17:
 221              		.file 3 "/mnt/c/Users/31740/Desktop/newcore/include/linux/err.h"
   1:/mnt/c/Users/31740/Desktop/newcore/include/linux/err.h **** /* SPDX-License-Identifier: GPL-2.0 */
   2:/mnt/c/Users/31740/Desktop/newcore/include/linux/err.h **** #ifndef _LINUX_ERR_H
   3:/mnt/c/Users/31740/Desktop/newcore/include/linux/err.h **** #define _LINUX_ERR_H
   4:/mnt/c/Users/31740/Desktop/newcore/include/linux/err.h **** 
   5:/mnt/c/Users/31740/Desktop/newcore/include/linux/err.h **** #include <linux/compiler_attributes.h>
   6:/mnt/c/Users/31740/Desktop/newcore/include/linux/err.h **** #include <linux/compiler.h>
   7:/mnt/c/Users/31740/Desktop/newcore/include/linux/err.h **** #include <linux/types.h>
   8:/mnt/c/Users/31740/Desktop/newcore/include/linux/err.h **** 
   9:/mnt/c/Users/31740/Desktop/newcore/include/linux/err.h **** #include <asm/errno.h>
  10:/mnt/c/Users/31740/Desktop/newcore/include/linux/err.h **** 
  11:/mnt/c/Users/31740/Desktop/newcore/include/linux/err.h **** /*
  12:/mnt/c/Users/31740/Desktop/newcore/include/linux/err.h ****  * Kernel pointers have redundant information, so we can use a
  13:/mnt/c/Users/31740/Desktop/newcore/include/linux/err.h ****  * scheme where we can return either an error code or a normal
  14:/mnt/c/Users/31740/Desktop/newcore/include/linux/err.h ****  * pointer with the same return value.
  15:/mnt/c/Users/31740/Desktop/newcore/include/linux/err.h ****  *
  16:/mnt/c/Users/31740/Desktop/newcore/include/linux/err.h ****  * This should be a per-architecture thing, to allow different
  17:/mnt/c/Users/31740/Desktop/newcore/include/linux/err.h ****  * error and pointer decisions.
  18:/mnt/c/Users/31740/Desktop/newcore/include/linux/err.h ****  */
  19:/mnt/c/Users/31740/Desktop/newcore/include/linux/err.h **** #define MAX_ERRNO	4095
  20:/mnt/c/Users/31740/Desktop/newcore/include/linux/err.h **** 
  21:/mnt/c/Users/31740/Desktop/newcore/include/linux/err.h **** #ifndef __ASSEMBLY__
  22:/mnt/c/Users/31740/Desktop/newcore/include/linux/err.h **** 
  23:/mnt/c/Users/31740/Desktop/newcore/include/linux/err.h **** /**
  24:/mnt/c/Users/31740/Desktop/newcore/include/linux/err.h ****  * IS_ERR_VALUE - Detect an error pointer.
  25:/mnt/c/Users/31740/Desktop/newcore/include/linux/err.h ****  * @x: The pointer to check.
  26:/mnt/c/Users/31740/Desktop/newcore/include/linux/err.h ****  *
  27:/mnt/c/Users/31740/Desktop/newcore/include/linux/err.h ****  * Like IS_ERR(), but does not generate a compiler warning if result is unused.
  28:/mnt/c/Users/31740/Desktop/newcore/include/linux/err.h ****  */
  29:/mnt/c/Users/31740/Desktop/newcore/include/linux/err.h **** 
  30:/mnt/c/Users/31740/Desktop/newcore/include/linux/err.h **** #ifndef unlikely
  31:/mnt/c/Users/31740/Desktop/newcore/include/linux/err.h **** #  define unlikely(x) __builtin_expect(!!(x), 0)
  32:/mnt/c/Users/31740/Desktop/newcore/include/linux/err.h **** #endif
  33:/mnt/c/Users/31740/Desktop/newcore/include/linux/err.h **** 
ARM GAS  /tmp/cc6j5Zku.s 			page 13


  34:/mnt/c/Users/31740/Desktop/newcore/include/linux/err.h **** #ifndef likely
  35:/mnt/c/Users/31740/Desktop/newcore/include/linux/err.h **** #  define likely(x) __builtin_expect(!!(x), 1)
  36:/mnt/c/Users/31740/Desktop/newcore/include/linux/err.h **** #endif
  37:/mnt/c/Users/31740/Desktop/newcore/include/linux/err.h **** 
  38:/mnt/c/Users/31740/Desktop/newcore/include/linux/err.h **** #define IS_ERR_VALUE(x) unlikely((unsigned long)(void *)(x) >= (unsigned long)-MAX_ERRNO)
  39:/mnt/c/Users/31740/Desktop/newcore/include/linux/err.h **** 
  40:/mnt/c/Users/31740/Desktop/newcore/include/linux/err.h **** /**
  41:/mnt/c/Users/31740/Desktop/newcore/include/linux/err.h ****  * ERR_PTR - Create an error pointer.
  42:/mnt/c/Users/31740/Desktop/newcore/include/linux/err.h ****  * @error: A negative error code.
  43:/mnt/c/Users/31740/Desktop/newcore/include/linux/err.h ****  *
  44:/mnt/c/Users/31740/Desktop/newcore/include/linux/err.h ****  * Encodes @error into a pointer value. Users should consider the result
  45:/mnt/c/Users/31740/Desktop/newcore/include/linux/err.h ****  * opaque and not assume anything about how the error is encoded.
  46:/mnt/c/Users/31740/Desktop/newcore/include/linux/err.h ****  *
  47:/mnt/c/Users/31740/Desktop/newcore/include/linux/err.h ****  * Return: A pointer with @error encoded within its value.
  48:/mnt/c/Users/31740/Desktop/newcore/include/linux/err.h ****  */
  49:/mnt/c/Users/31740/Desktop/newcore/include/linux/err.h **** static inline void * __must_check ERR_PTR(long error)
  50:/mnt/c/Users/31740/Desktop/newcore/include/linux/err.h **** {
  51:/mnt/c/Users/31740/Desktop/newcore/include/linux/err.h **** 	return (void *) error;
  52:/mnt/c/Users/31740/Desktop/newcore/include/linux/err.h **** }
  53:/mnt/c/Users/31740/Desktop/newcore/include/linux/err.h **** 
  54:/mnt/c/Users/31740/Desktop/newcore/include/linux/err.h **** /* Return the pointer in the percpu address space. */
  55:/mnt/c/Users/31740/Desktop/newcore/include/linux/err.h **** #define ERR_PTR_PCPU(error) ((void __percpu *)(unsigned long)ERR_PTR(error))
  56:/mnt/c/Users/31740/Desktop/newcore/include/linux/err.h **** 
  57:/mnt/c/Users/31740/Desktop/newcore/include/linux/err.h **** /**
  58:/mnt/c/Users/31740/Desktop/newcore/include/linux/err.h ****  * PTR_ERR - Extract the error code from an error pointer.
  59:/mnt/c/Users/31740/Desktop/newcore/include/linux/err.h ****  * @ptr: An error pointer.
  60:/mnt/c/Users/31740/Desktop/newcore/include/linux/err.h ****  * Return: The error code within @ptr.
  61:/mnt/c/Users/31740/Desktop/newcore/include/linux/err.h ****  */
  62:/mnt/c/Users/31740/Desktop/newcore/include/linux/err.h **** static inline long __must_check PTR_ERR(__force const void *ptr)
  63:/mnt/c/Users/31740/Desktop/newcore/include/linux/err.h **** {
  64:/mnt/c/Users/31740/Desktop/newcore/include/linux/err.h **** 	return (long) ptr;
  65:/mnt/c/Users/31740/Desktop/newcore/include/linux/err.h **** }
  66:/mnt/c/Users/31740/Desktop/newcore/include/linux/err.h **** 
  67:/mnt/c/Users/31740/Desktop/newcore/include/linux/err.h **** /* Read an error pointer from the percpu address space. */
  68:/mnt/c/Users/31740/Desktop/newcore/include/linux/err.h **** #define PTR_ERR_PCPU(ptr) (PTR_ERR((const void *)(__force const unsigned long)(ptr)))
  69:/mnt/c/Users/31740/Desktop/newcore/include/linux/err.h **** 
  70:/mnt/c/Users/31740/Desktop/newcore/include/linux/err.h **** /**
  71:/mnt/c/Users/31740/Desktop/newcore/include/linux/err.h ****  * IS_ERR - Detect an error pointer.
  72:/mnt/c/Users/31740/Desktop/newcore/include/linux/err.h ****  * @ptr: The pointer to check.
  73:/mnt/c/Users/31740/Desktop/newcore/include/linux/err.h ****  * Return: true if @ptr is an error pointer, false otherwise.
  74:/mnt/c/Users/31740/Desktop/newcore/include/linux/err.h ****  */
  75:/mnt/c/Users/31740/Desktop/newcore/include/linux/err.h **** static inline bool __must_check IS_ERR(__force const void *ptr)
 222              		.loc 3 75 33 view .LVU48
 223              	.LBB18:
  76:/mnt/c/Users/31740/Desktop/newcore/include/linux/err.h **** {
  77:/mnt/c/Users/31740/Desktop/newcore/include/linux/err.h **** 	return IS_ERR_VALUE((unsigned long)ptr);
 224              		.loc 3 77 2 view .LVU49
 225              		.loc 3 77 2 is_stmt 0 view .LVU50
 226              	.LBE18:
 227              	.LBE17:
 228              		.loc 1 40 7 discriminator 1 view .LVU51
 229 003e 10F5805F 		cmn	r0, #4096
 230 0042 15D8     		bhi	.L10
  41:/mnt/c/Users/31740/Desktop/newcore/drivers/driver.c ****         return dev_dentry;
  42:/mnt/c/Users/31740/Desktop/newcore/drivers/driver.c ****     }
  43:/mnt/c/Users/31740/Desktop/newcore/drivers/driver.c ****     struct device *device = kmalloc(sizeof(struct device),GFP_KERNEL);
 231              		.loc 1 43 5 is_stmt 1 view .LVU52
ARM GAS  /tmp/cc6j5Zku.s 			page 14


 232              	.LVL24:
 233              	.LBB19:
 234              	.LBI19:
 379:/mnt/c/Users/31740/Desktop/newcore/include/linux/slab.h **** 	return __smalloc__((u32)size,flags);
 235              		.loc 2 379 21 view .LVU53
 236              	.LBB20:
 237              		.loc 2 380 2 view .LVU54
 238              		.loc 2 380 9 is_stmt 0 view .LVU55
 239 0044 4FF44C61 		mov	r1, #3264
 240 0048 0C20     		movs	r0, #12
 241              	.LVL25:
 242              		.loc 2 380 9 view .LVU56
 243 004a FFF7FEFF 		bl	__smalloc__
 244              	.LVL26:
 245              		.loc 2 380 9 view .LVU57
 246              	.LBE20:
 247              	.LBE19:
  44:/mnt/c/Users/31740/Desktop/newcore/drivers/driver.c ****     if(device == NULL)
 248              		.loc 1 44 5 is_stmt 1 view .LVU58
 249              		.loc 1 44 7 is_stmt 0 view .LVU59
 250 004e 8046     		mov	r8, r0
 251 0050 80B1     		cbz	r0, .L11
  45:/mnt/c/Users/31740/Desktop/newcore/drivers/driver.c ****         return -ENOMEM; 
  46:/mnt/c/Users/31740/Desktop/newcore/drivers/driver.c ****     device->parent = parent;
 252              		.loc 1 46 5 is_stmt 1 view .LVU60
 253              		.loc 1 46 20 is_stmt 0 view .LVU61
 254 0052 0760     		str	r7, [r0]
  47:/mnt/c/Users/31740/Desktop/newcore/drivers/driver.c ****     device->class = cls;   
 255              		.loc 1 47 5 is_stmt 1 view .LVU62
 256              		.loc 1 47 19 is_stmt 0 view .LVU63
 257 0054 4660     		str	r6, [r0, #4]
  48:/mnt/c/Users/31740/Desktop/newcore/drivers/driver.c ****     struct file_operations * fop = find_chrdev(devt,0);
 258              		.loc 1 48 5 is_stmt 1 view .LVU64
 259              		.loc 1 48 36 is_stmt 0 view .LVU65
 260 0056 0021     		movs	r1, #0
 261 0058 2846     		mov	r0, r5
 262              	.LVL27:
 263              		.loc 1 48 36 view .LVU66
 264 005a FFF7FEFF 		bl	find_chrdev
 265              	.LVL28:
 266 005e 0246     		mov	r2, r0
 267              	.LVL29:
  49:/mnt/c/Users/31740/Desktop/newcore/drivers/driver.c **** 
  50:/mnt/c/Users/31740/Desktop/newcore/drivers/driver.c ****     devfs_mount_device(dev_dentry->d_inode,devt,fop); //, S_IFR
 268              		.loc 1 50 5 is_stmt 1 view .LVU67
 269 0060 2946     		mov	r1, r5
 270 0062 A06C     		ldr	r0, [r4, #72]
 271              	.LVL30:
 272              		.loc 1 50 5 is_stmt 0 view .LVU68
 273 0064 FFF7FEFF 		bl	devfs_mount_device
 274              	.LVL31:
  51:/mnt/c/Users/31740/Desktop/newcore/drivers/driver.c **** 
  52:/mnt/c/Users/31740/Desktop/newcore/drivers/driver.c ****     return device;
 275              		.loc 1 52 5 is_stmt 1 view .LVU69
 276              	.L8:
  53:/mnt/c/Users/31740/Desktop/newcore/drivers/driver.c **** }
 277              		.loc 1 53 1 is_stmt 0 view .LVU70
ARM GAS  /tmp/cc6j5Zku.s 			page 15


 278 0068 4046     		mov	r0, r8
 279 006a 42B0     		add	sp, sp, #264
 280              	.LCFI3:
 281              		.cfi_remember_state
 282              		.cfi_def_cfa_offset 24
 283              		@ sp needed
 284 006c BDE8F081 		pop	{r4, r5, r6, r7, r8, pc}
 285              	.LVL32:
 286              	.L10:
 287              	.LCFI4:
 288              		.cfi_restore_state
  41:/mnt/c/Users/31740/Desktop/newcore/drivers/driver.c ****     }
 289              		.loc 1 41 16 view .LVU71
 290 0070 8046     		mov	r8, r0
 291 0072 F9E7     		b	.L8
 292              	.LVL33:
 293              	.L11:
  45:/mnt/c/Users/31740/Desktop/newcore/drivers/driver.c ****     device->parent = parent;
 294              		.loc 1 45 16 view .LVU72
 295 0074 6FF00B08 		mvn	r8, #11
 296 0078 F6E7     		b	.L8
 297              	.L14:
 298 007a 00BF     		.align	2
 299              	.L13:
 300 007c 00000000 		.word	.LC1
 301 0080 08000000 		.word	.LC2
 302              		.cfi_endproc
 303              	.LFE1034:
 305              		.section	.rodata.__register_disk.str1.4,"aMS",%progbits,1
 306              		.align	2
 307              	.LC3:
 308 0000 64657669 		.ascii	"device_create: create block file %s \012\000"
 308      63655F63 
 308      72656174 
 308      653A2063 
 308      72656174 
 309              		.section	.text.__register_disk,"ax",%progbits
 310              		.align	1
 311              		.global	__register_disk
 312              		.syntax unified
 313              		.thumb
 314              		.thumb_func
 316              	__register_disk:
 317              	.LVL34:
 318              	.LFB1035:
  54:/mnt/c/Users/31740/Desktop/newcore/drivers/driver.c **** 
  55:/mnt/c/Users/31740/Desktop/newcore/drivers/driver.c **** 
  56:/mnt/c/Users/31740/Desktop/newcore/drivers/driver.c **** int __register_disk(struct block_device *dev,struct gendisk *disk,char *name,...)
  57:/mnt/c/Users/31740/Desktop/newcore/drivers/driver.c **** {
 319              		.loc 1 57 1 is_stmt 1 view -0
 320              		.cfi_startproc
 321              		@ args = 4, pretend = 8, frame = 200
 322              		@ frame_needed = 0, uses_anonymous_args = 1
 323              		.loc 1 57 1 is_stmt 0 view .LVU74
 324 0000 0CB4     		push	{r2, r3}
 325              	.LCFI5:
 326              		.cfi_def_cfa_offset 8
ARM GAS  /tmp/cc6j5Zku.s 			page 16


 327              		.cfi_offset 2, -8
 328              		.cfi_offset 3, -4
 329 0002 30B5     		push	{r4, r5, lr}
 330              	.LCFI6:
 331              		.cfi_def_cfa_offset 20
 332              		.cfi_offset 4, -20
 333              		.cfi_offset 5, -16
 334              		.cfi_offset 14, -12
 335 0004 B3B0     		sub	sp, sp, #204
 336              	.LCFI7:
 337              		.cfi_def_cfa_offset 224
 338 0006 0546     		mov	r5, r0
 339 0008 0C46     		mov	r4, r1
 340 000a 369A     		ldr	r2, [sp, #216]
  58:/mnt/c/Users/31740/Desktop/newcore/drivers/driver.c **** 
  59:/mnt/c/Users/31740/Desktop/newcore/drivers/driver.c ****     char devname[64];
 341              		.loc 1 59 5 is_stmt 1 view .LVU75
  60:/mnt/c/Users/31740/Desktop/newcore/drivers/driver.c ****     if(name!= NULL){
 342              		.loc 1 60 5 view .LVU76
 343              		.loc 1 60 7 is_stmt 0 view .LVU77
 344 000c 12B3     		cbz	r2, .L16
 345              	.LBB21:
  61:/mnt/c/Users/31740/Desktop/newcore/drivers/driver.c ****         va_list args;
 346              		.loc 1 61 9 is_stmt 1 view .LVU78
  62:/mnt/c/Users/31740/Desktop/newcore/drivers/driver.c ****         va_start(args, name);
 347              		.loc 1 62 9 view .LVU79
 348 000e 37AB     		add	r3, sp, #220
 349 0010 0193     		str	r3, [sp, #4]
  63:/mnt/c/Users/31740/Desktop/newcore/drivers/driver.c ****         vsnprintf(devname, sizeof(devname), name, args);
 350              		.loc 1 63 9 view .LVU80
 351 0012 4021     		movs	r1, #64
 352              	.LVL35:
 353              		.loc 1 63 9 is_stmt 0 view .LVU81
 354 0014 22A8     		add	r0, sp, #136
 355              	.LVL36:
 356              		.loc 1 63 9 view .LVU82
 357 0016 FFF7FEFF 		bl	vsnprintf
 358              	.LVL37:
  64:/mnt/c/Users/31740/Desktop/newcore/drivers/driver.c ****         va_end(args);
 359              		.loc 1 64 9 is_stmt 1 view .LVU83
 360              	.L17:
 361              	.LBE21:
  65:/mnt/c/Users/31740/Desktop/newcore/drivers/driver.c ****     }
  66:/mnt/c/Users/31740/Desktop/newcore/drivers/driver.c ****     else{
  67:/mnt/c/Users/31740/Desktop/newcore/drivers/driver.c ****         strcpy(devname, disk->disk_name);
  68:/mnt/c/Users/31740/Desktop/newcore/drivers/driver.c ****     }
  69:/mnt/c/Users/31740/Desktop/newcore/drivers/driver.c **** 
  70:/mnt/c/Users/31740/Desktop/newcore/drivers/driver.c **** 
  71:/mnt/c/Users/31740/Desktop/newcore/drivers/driver.c ****     char path[128];
 362              		.loc 1 71 5 view .LVU84
  72:/mnt/c/Users/31740/Desktop/newcore/drivers/driver.c ****     snprintf(path,128,"/dev/%s",devname);
 363              		.loc 1 72 5 view .LVU85
 364 001a 22AB     		add	r3, sp, #136
 365 001c 104A     		ldr	r2, .L20
 366 001e 8021     		movs	r1, #128
 367 0020 02A8     		add	r0, sp, #8
 368 0022 FFF7FEFF 		bl	snprintf
ARM GAS  /tmp/cc6j5Zku.s 			page 17


 369              	.LVL38:
  73:/mnt/c/Users/31740/Desktop/newcore/drivers/driver.c **** 
  74:/mnt/c/Users/31740/Desktop/newcore/drivers/driver.c ****     pr_info ("device_create: create block file %s \n",path);
 370              		.loc 1 74 5 view .LVU86
 371 0026 02AA     		add	r2, sp, #8
 372 0028 0E49     		ldr	r1, .L20+4
 373 002a 0620     		movs	r0, #6
 374 002c FFF7FEFF 		bl	printk
 375              	.LVL39:
  75:/mnt/c/Users/31740/Desktop/newcore/drivers/driver.c **** 
  76:/mnt/c/Users/31740/Desktop/newcore/drivers/driver.c ****     struct  dentry * dev_dentry = create_new_dentry(path , S_IFREG|0755);
 376              		.loc 1 76 5 view .LVU87
 377              		.loc 1 76 35 is_stmt 0 view .LVU88
 378 0030 48F2ED11 		movw	r1, #33261
 379 0034 02A8     		add	r0, sp, #8
 380 0036 FFF7FEFF 		bl	create_new_dentry
 381              	.LVL40:
  77:/mnt/c/Users/31740/Desktop/newcore/drivers/driver.c ****     if(IS_ERR(dev_dentry)){
 382              		.loc 1 77 5 is_stmt 1 view .LVU89
 383              	.LBB22:
 384              	.LBI22:
  75:/mnt/c/Users/31740/Desktop/newcore/include/linux/err.h **** {
 385              		.loc 3 75 33 view .LVU90
 386              	.LBB23:
 387              		.loc 3 77 2 view .LVU91
 388              		.loc 3 77 2 is_stmt 0 view .LVU92
 389              	.LBE23:
 390              	.LBE22:
 391              		.loc 1 77 7 discriminator 1 view .LVU93
 392 003a 10F5805F 		cmn	r0, #4096
 393 003e 04D8     		bhi	.L15
  78:/mnt/c/Users/31740/Desktop/newcore/drivers/driver.c ****         return dev_dentry;
  79:/mnt/c/Users/31740/Desktop/newcore/drivers/driver.c ****     }
  80:/mnt/c/Users/31740/Desktop/newcore/drivers/driver.c **** 
  81:/mnt/c/Users/31740/Desktop/newcore/drivers/driver.c ****     devfs_mount_blk_device(dev_dentry->d_inode,dev,disk->major);
 394              		.loc 1 81 5 is_stmt 1 view .LVU94
 395 0040 2268     		ldr	r2, [r4]
 396 0042 2946     		mov	r1, r5
 397 0044 806C     		ldr	r0, [r0, #72]
 398              	.LVL41:
 399              		.loc 1 81 5 is_stmt 0 view .LVU95
 400 0046 FFF7FEFF 		bl	devfs_mount_blk_device
 401              	.LVL42:
 402              	.L15:
  82:/mnt/c/Users/31740/Desktop/newcore/drivers/driver.c **** 
  83:/mnt/c/Users/31740/Desktop/newcore/drivers/driver.c **** }
 403              		.loc 1 83 1 view .LVU96
 404 004a 33B0     		add	sp, sp, #204
 405              	.LCFI8:
 406              		.cfi_remember_state
 407              		.cfi_def_cfa_offset 20
 408              		@ sp needed
 409 004c BDE83040 		pop	{r4, r5, lr}
 410              	.LCFI9:
 411              		.cfi_restore 14
 412              		.cfi_restore 5
 413              		.cfi_restore 4
ARM GAS  /tmp/cc6j5Zku.s 			page 18


 414              		.cfi_def_cfa_offset 8
 415              	.LVL43:
 416              		.loc 1 83 1 view .LVU97
 417 0050 02B0     		add	sp, sp, #8
 418              	.LCFI10:
 419              		.cfi_restore 3
 420              		.cfi_restore 2
 421              		.cfi_def_cfa_offset 0
 422 0052 7047     		bx	lr
 423              	.LVL44:
 424              	.L16:
 425              	.LCFI11:
 426              		.cfi_restore_state
  67:/mnt/c/Users/31740/Desktop/newcore/drivers/driver.c ****     }
 427              		.loc 1 67 9 is_stmt 1 view .LVU98
 428 0054 0C31     		adds	r1, r1, #12
 429              	.LVL45:
  67:/mnt/c/Users/31740/Desktop/newcore/drivers/driver.c ****     }
 430              		.loc 1 67 9 is_stmt 0 view .LVU99
 431 0056 22A8     		add	r0, sp, #136
 432              	.LVL46:
  67:/mnt/c/Users/31740/Desktop/newcore/drivers/driver.c ****     }
 433              		.loc 1 67 9 view .LVU100
 434 0058 FFF7FEFF 		bl	strcpy
 435              	.LVL47:
 436 005c DDE7     		b	.L17
 437              	.L21:
 438 005e 00BF     		.align	2
 439              	.L20:
 440 0060 00000000 		.word	.LC1
 441 0064 00000000 		.word	.LC3
 442              		.cfi_endproc
 443              	.LFE1035:
 445              		.text
 446              	.Letext0:
 447              		.file 4 "/mnt/c/Users/31740/Desktop/newcore/include/linux/stdarg.h"
 448              		.file 5 "/mnt/c/Users/31740/Desktop/newcore/include/asm-generic/int-l64.h"
 449              		.file 6 "/mnt/c/Users/31740/Desktop/newcore/include/asm-generic/posix_types.h"
 450              		.file 7 "/mnt/c/Users/31740/Desktop/newcore/include/uapi/linux/types.h"
 451              		.file 8 "/mnt/c/Users/31740/Desktop/newcore/include/linux/types.h"
 452              		.file 9 "/mnt/c/Users/31740/Desktop/newcore/include/linux/errseq.h"
 453              		.file 10 "/mnt/c/Users/31740/Desktop/newcore/include/linux/time64.h"
 454              		.file 11 "/mnt/c/Users/31740/Desktop/newcore/arch/arm_m/include/asm/spinlock.h"
 455              		.file 12 "/mnt/c/Users/31740/Desktop/newcore/include/linux/spinlock_types_raw.h"
 456              		.file 13 "/mnt/c/Users/31740/Desktop/newcore/include/linux/spinlock_types.h"
 457              		.file 14 "/mnt/c/Users/31740/Desktop/newcore/include/linux/rbtree_types.h"
 458              		.file 15 "/mnt/c/Users/31740/Desktop/newcore/include/linux/uidgid_types.h"
 459              		.file 16 "/mnt/c/Users/31740/Desktop/newcore/include/linux/projid.h"
 460              		.file 17 "/mnt/c/Users/31740/Desktop/newcore/include/linux/fs.h"
 461              		.file 18 "/mnt/c/Users/31740/Desktop/newcore/include/linux/mnt_idmapping.h"
 462              		.file 19 "/mnt/c/Users/31740/Desktop/newcore/include/linux/mutex.h"
 463              		.file 20 "/mnt/c/Users/31740/Desktop/newcore/include/linux/uio.h"
 464              		.file 21 "/mnt/c/Users/31740/Desktop/newcore/include/linux/wait.h"
 465              		.file 22 "/mnt/c/Users/31740/Desktop/newcore/include/linux/xarray.h"
 466              		.file 23 "/mnt/c/Users/31740/Desktop/newcore/include/linux/migrate_mode.h"
 467              		.file 24 "/mnt/c/Users/31740/Desktop/newcore/include/linux/rw_hint.h"
 468              		.file 25 "/mnt/c/Users/31740/Desktop/newcore/include/linux/reciprocal_div.h"
ARM GAS  /tmp/cc6j5Zku.s 			page 19


 469              		.file 26 "/mnt/c/Users/31740/Desktop/newcore/include/linux/mm_type.h"
 470              		.file 27 "/mnt/c/Users/31740/Desktop/newcore/include/linux/bvec.h"
 471              		.file 28 "/mnt/c/Users/31740/Desktop/newcore/include/linux/blk_types.h"
 472              		.file 29 "/mnt/c/Users/31740/Desktop/newcore/include/linux/blkdev.h"
 473              		.file 30 "/mnt/c/Users/31740/Desktop/newcore/include/linux/bio.h"
 474              		.file 31 "/mnt/c/Users/31740/Desktop/newcore/include/linux/mempool_super_haper.h"
 475              		.file 32 "/mnt/c/Users/31740/Desktop/newcore/include/linux/mempool.h"
 476              		.file 33 "/mnt/c/Users/31740/Desktop/newcore/include/linux/lockdep_types.h"
 477              		.file 34 "/mnt/c/Users/31740/Desktop/newcore/include/linux/workqueue_types.h"
 478              		.file 35 "/mnt/c/Users/31740/Desktop/newcore/include/linux/blk-mq.h"
 479              		.file 36 "/mnt/c/Users/31740/Desktop/newcore/include/linux/dcache.h"
 480              		.file 37 "/mnt/c/Users/31740/Desktop/newcore/include/uapi/linux/pr.h"
 481              		.file 38 "/mnt/c/Users/31740/Desktop/newcore/include/linux/pr.h"
 482              		.file 39 "/mnt/c/Users/31740/Desktop/newcore/include/linux/hdreg.h"
 483              		.file 40 "/mnt/c/Users/31740/Desktop/newcore/include/linux/lockref.h"
 484              		.file 41 "/mnt/c/Users/31740/Desktop/newcore/include/linux/path.h"
 485              		.file 42 "/mnt/c/Users/31740/Desktop/newcore/include/linux/statfs.h"
 486              		.file 43 "/mnt/c/Users/31740/Desktop/newcore/include/linux/stat.h"
 487              		.file 44 "/mnt/c/Users/31740/Desktop/newcore/include/linux/device.h"
 488              		.file 45 "/mnt/c/Users/31740/Desktop/newcore/include/linux/devfs.h"
 489              		.file 46 "/mnt/c/Users/31740/Desktop/newcore/include/linux/sprintf.h"
 490              		.file 47 "/mnt/c/Users/31740/Desktop/newcore/include/linux/string.h"
 491              		.file 48 "/mnt/c/Users/31740/Desktop/newcore/arch/arm_m/include/asm/string.h"
 492              		.file 49 "<built-in>"
 493              		.file 50 "/mnt/c/Users/31740/Desktop/newcore/include/linux/gfp_types.h"
 494              		.file 51 "/mnt/c/Users/31740/Desktop/newcore/include/linux/printk.h"
ARM GAS  /tmp/cc6j5Zku.s 			page 20

