ARM GAS  /tmp/cczJPWbc.s 			page 1


   1              		.cpu cortex-m33
   2              		.arch armv8-m.main
   3              		.fpu fpv4-sp-d16
   4              		.arch_extension dsp
   5              		.eabi_attribute 27, 1
   6              		.eabi_attribute 28, 1
   7              		.eabi_attribute 20, 1
   8              		.eabi_attribute 21, 1
   9              		.eabi_attribute 23, 3
  10              		.eabi_attribute 24, 1
  11              		.eabi_attribute 25, 1
  12              		.eabi_attribute 26, 1
  13              		.eabi_attribute 30, 1
  14              		.eabi_attribute 34, 1
  15              		.eabi_attribute 18, 4
  16              		.file	"error.c"
  17              		.text
  18              	.Ltext0:
  19              		.cfi_sections	.debug_frame
  20              		.file 1 "/mnt/c/Users/31740/Documents/codes/newcore-rp2350/lib/error.c"
  21              		.section	.text.__write_error_message,"ax",%progbits
  22              		.align	1
  23              		.syntax unified
  24              		.thumb
  25              		.thumb_func
  27              	__write_error_message:
  28              	.LVL0:
  29              	.LFB285:
   1:/mnt/c/Users/31740/Documents/codes/newcore-rp2350/lib/error.c **** #include <linux/kernel.h>
   2:/mnt/c/Users/31740/Documents/codes/newcore-rp2350/lib/error.c **** #include <linux/errno.h>
   3:/mnt/c/Users/31740/Documents/codes/newcore-rp2350/lib/error.c **** #include <linux/error.h>
   4:/mnt/c/Users/31740/Documents/codes/newcore-rp2350/lib/error.c **** #include <linux/time.h>
   5:/mnt/c/Users/31740/Documents/codes/newcore-rp2350/lib/error.c **** #include <linux/slab.h>
   6:/mnt/c/Users/31740/Documents/codes/newcore-rp2350/lib/error.c **** #include <linux/string.h>
   7:/mnt/c/Users/31740/Documents/codes/newcore-rp2350/lib/error.c **** #include <linux/stdarg.h>
   8:/mnt/c/Users/31740/Documents/codes/newcore-rp2350/lib/error.c **** #include <linux/sprintf.h>
   9:/mnt/c/Users/31740/Documents/codes/newcore-rp2350/lib/error.c **** 
  10:/mnt/c/Users/31740/Documents/codes/newcore-rp2350/lib/error.c **** 
  11:/mnt/c/Users/31740/Documents/codes/newcore-rp2350/lib/error.c **** error_t *l_error_create(void *target,char *name,size_t error_buffer_size,enum error_exception_mode 
  12:/mnt/c/Users/31740/Documents/codes/newcore-rp2350/lib/error.c **** {
  13:/mnt/c/Users/31740/Documents/codes/newcore-rp2350/lib/error.c ****     error_t *error = (error_t *)kmalloc(sizeof(error_t), GFP_KERNEL);
  14:/mnt/c/Users/31740/Documents/codes/newcore-rp2350/lib/error.c ****     if(error == NULL)return (error_t*)-MAX_ERRNO;
  15:/mnt/c/Users/31740/Documents/codes/newcore-rp2350/lib/error.c ****  
  16:/mnt/c/Users/31740/Documents/codes/newcore-rp2350/lib/error.c ****     if(error_buffer_size <= 0) error_buffer_size = DEFAULT_ERRR_BUFFER_SIZE;
  17:/mnt/c/Users/31740/Documents/codes/newcore-rp2350/lib/error.c ****     error->errmsg = (char *)kmalloc(error_buffer_size, GFP_KERNEL);
  18:/mnt/c/Users/31740/Documents/codes/newcore-rp2350/lib/error.c ****     if(error->errmsg == NULL){
  19:/mnt/c/Users/31740/Documents/codes/newcore-rp2350/lib/error.c ****         kfree(error);
  20:/mnt/c/Users/31740/Documents/codes/newcore-rp2350/lib/error.c ****         return (error_t*) -ENOMEM;
  21:/mnt/c/Users/31740/Documents/codes/newcore-rp2350/lib/error.c ****     }
  22:/mnt/c/Users/31740/Documents/codes/newcore-rp2350/lib/error.c ****     error->errmsg_size = error_buffer_size; 
  23:/mnt/c/Users/31740/Documents/codes/newcore-rp2350/lib/error.c ****  
  24:/mnt/c/Users/31740/Documents/codes/newcore-rp2350/lib/error.c ****     if(name == NULL) name = __FILE__;
  25:/mnt/c/Users/31740/Documents/codes/newcore-rp2350/lib/error.c ****     int name_length = strlen(name);
  26:/mnt/c/Users/31740/Documents/codes/newcore-rp2350/lib/error.c ****     error->name = (char *)kmalloc(name_length+1, GFP_KERNEL);
  27:/mnt/c/Users/31740/Documents/codes/newcore-rp2350/lib/error.c ****     if(error->name == NULL){
  28:/mnt/c/Users/31740/Documents/codes/newcore-rp2350/lib/error.c ****         kfree(error->errmsg);
  29:/mnt/c/Users/31740/Documents/codes/newcore-rp2350/lib/error.c ****         kfree(error);
ARM GAS  /tmp/cczJPWbc.s 			page 2


  30:/mnt/c/Users/31740/Documents/codes/newcore-rp2350/lib/error.c ****         return (error_t*)-ENOMEM;
  31:/mnt/c/Users/31740/Documents/codes/newcore-rp2350/lib/error.c ****     }        
  32:/mnt/c/Users/31740/Documents/codes/newcore-rp2350/lib/error.c ****     strcpy(error->name, name);
  33:/mnt/c/Users/31740/Documents/codes/newcore-rp2350/lib/error.c **** 
  34:/mnt/c/Users/31740/Documents/codes/newcore-rp2350/lib/error.c ****     error->target = target;
  35:/mnt/c/Users/31740/Documents/codes/newcore-rp2350/lib/error.c ****     error->error_count = 0;
  36:/mnt/c/Users/31740/Documents/codes/newcore-rp2350/lib/error.c ****     error->mode = mode;
  37:/mnt/c/Users/31740/Documents/codes/newcore-rp2350/lib/error.c ****     return error;
  38:/mnt/c/Users/31740/Documents/codes/newcore-rp2350/lib/error.c **** }
  39:/mnt/c/Users/31740/Documents/codes/newcore-rp2350/lib/error.c **** 
  40:/mnt/c/Users/31740/Documents/codes/newcore-rp2350/lib/error.c **** void l_delete_error(error_t *error)
  41:/mnt/c/Users/31740/Documents/codes/newcore-rp2350/lib/error.c **** {
  42:/mnt/c/Users/31740/Documents/codes/newcore-rp2350/lib/error.c ****     if(error == NULL) return;
  43:/mnt/c/Users/31740/Documents/codes/newcore-rp2350/lib/error.c ****     if(error->name != NULL) kfree(error->name);
  44:/mnt/c/Users/31740/Documents/codes/newcore-rp2350/lib/error.c ****     if(error->errmsg != NULL) kfree(error->errmsg);
  45:/mnt/c/Users/31740/Documents/codes/newcore-rp2350/lib/error.c ****     kfree(error);
  46:/mnt/c/Users/31740/Documents/codes/newcore-rp2350/lib/error.c **** }
  47:/mnt/c/Users/31740/Documents/codes/newcore-rp2350/lib/error.c **** 
  48:/mnt/c/Users/31740/Documents/codes/newcore-rp2350/lib/error.c **** static void __write_error_message(error_t *error,char *errmsg,...){
  30              		.loc 1 48 67 view -0
  31              		.cfi_startproc
  32              		@ args = 4, pretend = 12, frame = 8
  33              		@ frame_needed = 0, uses_anonymous_args = 1
  34              		.loc 1 48 67 is_stmt 0 view .LVU1
  35 0000 0EB4     		push	{r1, r2, r3}
  36              	.LCFI0:
  37              		.cfi_def_cfa_offset 12
  38              		.cfi_offset 1, -12
  39              		.cfi_offset 2, -8
  40              		.cfi_offset 3, -4
  41 0002 00B5     		push	{lr}
  42              	.LCFI1:
  43              		.cfi_def_cfa_offset 16
  44              		.cfi_offset 14, -16
  45 0004 82B0     		sub	sp, sp, #8
  46              	.LCFI2:
  47              		.cfi_def_cfa_offset 24
  48 0006 039A     		ldr	r2, [sp, #12]
  49:/mnt/c/Users/31740/Documents/codes/newcore-rp2350/lib/error.c ****     if(error == NULL) return;
  49              		.loc 1 49 5 is_stmt 1 view .LVU2
  50              		.loc 1 49 7 is_stmt 0 view .LVU3
  51 0008 30B1     		cbz	r0, .L1
  50:/mnt/c/Users/31740/Documents/codes/newcore-rp2350/lib/error.c ****     if(errmsg == NULL) return;
  52              		.loc 1 50 5 is_stmt 1 view .LVU4
  53              		.loc 1 50 7 is_stmt 0 view .LVU5
  54 000a 2AB1     		cbz	r2, .L1
  51:/mnt/c/Users/31740/Documents/codes/newcore-rp2350/lib/error.c ****     va_list args;
  55              		.loc 1 51 5 is_stmt 1 view .LVU6
  52:/mnt/c/Users/31740/Documents/codes/newcore-rp2350/lib/error.c ****     va_start(args, errmsg);
  56              		.loc 1 52 5 view .LVU7
  57 000c 04AB     		add	r3, sp, #16
  58 000e 0193     		str	r3, [sp, #4]
  53:/mnt/c/Users/31740/Documents/codes/newcore-rp2350/lib/error.c ****     vsnprintf(error->errmsg,error->errmsg_size,errmsg,args);
  59              		.loc 1 53 5 view .LVU8
  60 0010 0169     		ldr	r1, [r0, #16]
  61 0012 4069     		ldr	r0, [r0, #20]
  62              	.LVL1:
ARM GAS  /tmp/cczJPWbc.s 			page 3


  63              		.loc 1 53 5 is_stmt 0 view .LVU9
  64 0014 FFF7FEFF 		bl	vsnprintf
  65              	.LVL2:
  54:/mnt/c/Users/31740/Documents/codes/newcore-rp2350/lib/error.c ****     va_end(args);
  66              		.loc 1 54 5 is_stmt 1 view .LVU10
  55:/mnt/c/Users/31740/Documents/codes/newcore-rp2350/lib/error.c ****     return;
  67              		.loc 1 55 5 view .LVU11
  68              	.L1:
  56:/mnt/c/Users/31740/Documents/codes/newcore-rp2350/lib/error.c **** }
  69              		.loc 1 56 1 is_stmt 0 view .LVU12
  70 0018 02B0     		add	sp, sp, #8
  71              	.LCFI3:
  72              		.cfi_def_cfa_offset 16
  73              		@ sp needed
  74 001a 5DF804EB 		ldr	lr, [sp], #4
  75              	.LCFI4:
  76              		.cfi_restore 14
  77              		.cfi_def_cfa_offset 12
  78 001e 03B0     		add	sp, sp, #12
  79              	.LCFI5:
  80              		.cfi_restore 3
  81              		.cfi_restore 2
  82              		.cfi_restore 1
  83              		.cfi_def_cfa_offset 0
  84 0020 7047     		bx	lr
  85              		.cfi_endproc
  86              	.LFE285:
  88              		.section	.rodata.l_error_create.str1.4,"aMS",%progbits,1
  89              		.align	2
  90              	.LC0:
  91 0000 2F6D6E74 		.ascii	"/mnt/c/Users/31740/Documents/codes/newcore-rp2350/l"
  91      2F632F55 
  91      73657273 
  91      2F333137 
  91      34302F44 
  92 0033 69622F65 		.ascii	"ib/error.c\000"
  92      72726F72 
  92      2E6300
  93              		.section	.text.l_error_create,"ax",%progbits
  94              		.align	1
  95              		.global	l_error_create
  96              		.syntax unified
  97              		.thumb
  98              		.thumb_func
 100              	l_error_create:
 101              	.LVL3:
 102              	.LFB283:
  12:/mnt/c/Users/31740/Documents/codes/newcore-rp2350/lib/error.c ****     error_t *error = (error_t *)kmalloc(sizeof(error_t), GFP_KERNEL);
 103              		.loc 1 12 1 is_stmt 1 view -0
 104              		.cfi_startproc
 105              		@ args = 0, pretend = 0, frame = 0
 106              		@ frame_needed = 0, uses_anonymous_args = 0
  12:/mnt/c/Users/31740/Documents/codes/newcore-rp2350/lib/error.c ****     error_t *error = (error_t *)kmalloc(sizeof(error_t), GFP_KERNEL);
 107              		.loc 1 12 1 is_stmt 0 view .LVU14
 108 0000 2DE9F041 		push	{r4, r5, r6, r7, r8, lr}
 109              	.LCFI6:
 110              		.cfi_def_cfa_offset 24
ARM GAS  /tmp/cczJPWbc.s 			page 4


 111              		.cfi_offset 4, -24
 112              		.cfi_offset 5, -20
 113              		.cfi_offset 6, -16
 114              		.cfi_offset 7, -12
 115              		.cfi_offset 8, -8
 116              		.cfi_offset 14, -4
 117 0004 8046     		mov	r8, r0
 118 0006 0E46     		mov	r6, r1
 119 0008 1546     		mov	r5, r2
 120 000a 1F46     		mov	r7, r3
  13:/mnt/c/Users/31740/Documents/codes/newcore-rp2350/lib/error.c ****     if(error == NULL)return (error_t*)-MAX_ERRNO;
 121              		.loc 1 13 5 is_stmt 1 view .LVU15
 122              	.LVL4:
 123              	.LBB20:
 124              	.LBI20:
 125              		.file 2 "/mnt/c/Users/31740/Documents/codes/newcore-rp2350/include/linux/slab.h"
   1:/mnt/c/Users/31740/Documents/codes/newcore-rp2350/include/linux/slab.h **** /* SPDX-License-Identifier: GPL-2.0 */
   2:/mnt/c/Users/31740/Documents/codes/newcore-rp2350/include/linux/slab.h **** /*
   3:/mnt/c/Users/31740/Documents/codes/newcore-rp2350/include/linux/slab.h ****  * Written by Mark Hemment, 1996 (markhe@nextd.demon.co.uk).
   4:/mnt/c/Users/31740/Documents/codes/newcore-rp2350/include/linux/slab.h ****  *
   5:/mnt/c/Users/31740/Documents/codes/newcore-rp2350/include/linux/slab.h ****  * (C) SGI 2006, Christoph Lameter
   6:/mnt/c/Users/31740/Documents/codes/newcore-rp2350/include/linux/slab.h ****  * 	Cleaned up and restructured to ease the addition of alternative
   7:/mnt/c/Users/31740/Documents/codes/newcore-rp2350/include/linux/slab.h ****  * 	implementations of SLAB allocators.
   8:/mnt/c/Users/31740/Documents/codes/newcore-rp2350/include/linux/slab.h ****  * (C) Linux Foundation 2008-2013
   9:/mnt/c/Users/31740/Documents/codes/newcore-rp2350/include/linux/slab.h ****  *      Unified interface for all slab allocators
  10:/mnt/c/Users/31740/Documents/codes/newcore-rp2350/include/linux/slab.h ****  */
  11:/mnt/c/Users/31740/Documents/codes/newcore-rp2350/include/linux/slab.h **** 
  12:/mnt/c/Users/31740/Documents/codes/newcore-rp2350/include/linux/slab.h **** #ifndef _LINUX_SLAB_H
  13:/mnt/c/Users/31740/Documents/codes/newcore-rp2350/include/linux/slab.h **** #define	_LINUX_SLAB_H
  14:/mnt/c/Users/31740/Documents/codes/newcore-rp2350/include/linux/slab.h **** 
  15:/mnt/c/Users/31740/Documents/codes/newcore-rp2350/include/linux/slab.h **** #include <linux/cache.h>
  16:/mnt/c/Users/31740/Documents/codes/newcore-rp2350/include/linux/slab.h **** #include <linux/overflow.h>
  17:/mnt/c/Users/31740/Documents/codes/newcore-rp2350/include/linux/slab.h **** #include <linux/types.h>
  18:/mnt/c/Users/31740/Documents/codes/newcore-rp2350/include/linux/slab.h **** #include <linux/raid/pq.h>
  19:/mnt/c/Users/31740/Documents/codes/newcore-rp2350/include/linux/slab.h **** #include <linux/gfp_types.h>
  20:/mnt/c/Users/31740/Documents/codes/newcore-rp2350/include/linux/slab.h **** #include <linux/numa.h>
  21:/mnt/c/Users/31740/Documents/codes/newcore-rp2350/include/linux/slab.h **** #include <linux/reciprocal_div.h>
  22:/mnt/c/Users/31740/Documents/codes/newcore-rp2350/include/linux/slab.h **** #include <linux/spinlock.h>
  23:/mnt/c/Users/31740/Documents/codes/newcore-rp2350/include/linux/slab.h **** 
  24:/mnt/c/Users/31740/Documents/codes/newcore-rp2350/include/linux/slab.h **** enum _slab_flag_bits {
  25:/mnt/c/Users/31740/Documents/codes/newcore-rp2350/include/linux/slab.h **** 	_SLAB_CONSISTENCY_CHECKS,
  26:/mnt/c/Users/31740/Documents/codes/newcore-rp2350/include/linux/slab.h **** 	_SLAB_RED_ZONE,
  27:/mnt/c/Users/31740/Documents/codes/newcore-rp2350/include/linux/slab.h **** 	_SLAB_POISON,
  28:/mnt/c/Users/31740/Documents/codes/newcore-rp2350/include/linux/slab.h **** 	_SLAB_KMALLOC,
  29:/mnt/c/Users/31740/Documents/codes/newcore-rp2350/include/linux/slab.h **** 	_SLAB_HWCACHE_ALIGN,
  30:/mnt/c/Users/31740/Documents/codes/newcore-rp2350/include/linux/slab.h **** 	_SLAB_CACHE_DMA,
  31:/mnt/c/Users/31740/Documents/codes/newcore-rp2350/include/linux/slab.h **** 	_SLAB_CACHE_DMA32,
  32:/mnt/c/Users/31740/Documents/codes/newcore-rp2350/include/linux/slab.h **** 	_SLAB_STORE_USER,
  33:/mnt/c/Users/31740/Documents/codes/newcore-rp2350/include/linux/slab.h **** 	_SLAB_PANIC,
  34:/mnt/c/Users/31740/Documents/codes/newcore-rp2350/include/linux/slab.h **** 	_SLAB_TYPESAFE_BY_RCU,
  35:/mnt/c/Users/31740/Documents/codes/newcore-rp2350/include/linux/slab.h **** 	_SLAB_TRACE,
  36:/mnt/c/Users/31740/Documents/codes/newcore-rp2350/include/linux/slab.h **** #ifdef CONFIG_DEBUG_OBJECTS
  37:/mnt/c/Users/31740/Documents/codes/newcore-rp2350/include/linux/slab.h **** 	_SLAB_DEBUG_OBJECTS,
  38:/mnt/c/Users/31740/Documents/codes/newcore-rp2350/include/linux/slab.h **** #endif
  39:/mnt/c/Users/31740/Documents/codes/newcore-rp2350/include/linux/slab.h **** 	_SLAB_NOLEAKTRACE,
  40:/mnt/c/Users/31740/Documents/codes/newcore-rp2350/include/linux/slab.h **** 	_SLAB_NO_MERGE,
  41:/mnt/c/Users/31740/Documents/codes/newcore-rp2350/include/linux/slab.h **** #ifdef CONFIG_FAILSLAB
ARM GAS  /tmp/cczJPWbc.s 			page 5


  42:/mnt/c/Users/31740/Documents/codes/newcore-rp2350/include/linux/slab.h **** 	_SLAB_FAILSLAB,
  43:/mnt/c/Users/31740/Documents/codes/newcore-rp2350/include/linux/slab.h **** #endif
  44:/mnt/c/Users/31740/Documents/codes/newcore-rp2350/include/linux/slab.h **** #ifdef CONFIG_MEMCG
  45:/mnt/c/Users/31740/Documents/codes/newcore-rp2350/include/linux/slab.h **** 	_SLAB_ACCOUNT,
  46:/mnt/c/Users/31740/Documents/codes/newcore-rp2350/include/linux/slab.h **** #endif
  47:/mnt/c/Users/31740/Documents/codes/newcore-rp2350/include/linux/slab.h **** #ifdef CONFIG_KASAN_GENERIC
  48:/mnt/c/Users/31740/Documents/codes/newcore-rp2350/include/linux/slab.h **** 	_SLAB_KASAN,
  49:/mnt/c/Users/31740/Documents/codes/newcore-rp2350/include/linux/slab.h **** #endif
  50:/mnt/c/Users/31740/Documents/codes/newcore-rp2350/include/linux/slab.h **** 	_SLAB_NO_USER_FLAGS,
  51:/mnt/c/Users/31740/Documents/codes/newcore-rp2350/include/linux/slab.h **** #ifdef CONFIG_KFENCE
  52:/mnt/c/Users/31740/Documents/codes/newcore-rp2350/include/linux/slab.h **** 	_SLAB_SKIP_KFENCE,
  53:/mnt/c/Users/31740/Documents/codes/newcore-rp2350/include/linux/slab.h **** #endif
  54:/mnt/c/Users/31740/Documents/codes/newcore-rp2350/include/linux/slab.h **** #ifndef CONFIG_SLUB_TINY
  55:/mnt/c/Users/31740/Documents/codes/newcore-rp2350/include/linux/slab.h **** 	_SLAB_RECLAIM_ACCOUNT,
  56:/mnt/c/Users/31740/Documents/codes/newcore-rp2350/include/linux/slab.h **** #endif
  57:/mnt/c/Users/31740/Documents/codes/newcore-rp2350/include/linux/slab.h **** 	_SLAB_OBJECT_POISON,
  58:/mnt/c/Users/31740/Documents/codes/newcore-rp2350/include/linux/slab.h **** 	_SLAB_CMPXCHG_DOUBLE,
  59:/mnt/c/Users/31740/Documents/codes/newcore-rp2350/include/linux/slab.h **** #ifdef CONFIG_SLAB_OBJ_EXT
  60:/mnt/c/Users/31740/Documents/codes/newcore-rp2350/include/linux/slab.h **** 	_SLAB_NO_OBJ_EXT,
  61:/mnt/c/Users/31740/Documents/codes/newcore-rp2350/include/linux/slab.h **** #endif
  62:/mnt/c/Users/31740/Documents/codes/newcore-rp2350/include/linux/slab.h **** 	_SLAB_FLAGS_LAST_BIT
  63:/mnt/c/Users/31740/Documents/codes/newcore-rp2350/include/linux/slab.h **** };
  64:/mnt/c/Users/31740/Documents/codes/newcore-rp2350/include/linux/slab.h **** 
  65:/mnt/c/Users/31740/Documents/codes/newcore-rp2350/include/linux/slab.h **** 
  66:/mnt/c/Users/31740/Documents/codes/newcore-rp2350/include/linux/slab.h **** 
  67:/mnt/c/Users/31740/Documents/codes/newcore-rp2350/include/linux/slab.h **** #define __SLAB_FLAG_BIT(nr)	((slab_flags_t __force)(1U << (nr)))
  68:/mnt/c/Users/31740/Documents/codes/newcore-rp2350/include/linux/slab.h **** #define __SLAB_FLAG_UNUSED	((slab_flags_t __force)(0U))
  69:/mnt/c/Users/31740/Documents/codes/newcore-rp2350/include/linux/slab.h **** 
  70:/mnt/c/Users/31740/Documents/codes/newcore-rp2350/include/linux/slab.h **** /*
  71:/mnt/c/Users/31740/Documents/codes/newcore-rp2350/include/linux/slab.h ****  * Flags to pass to kmem_cache_create().
  72:/mnt/c/Users/31740/Documents/codes/newcore-rp2350/include/linux/slab.h ****  * The ones marked DEBUG need CONFIG_SLUB_DEBUG enabled, otherwise are no-op
  73:/mnt/c/Users/31740/Documents/codes/newcore-rp2350/include/linux/slab.h ****  */
  74:/mnt/c/Users/31740/Documents/codes/newcore-rp2350/include/linux/slab.h **** /* DEBUG: Perform (expensive) checks on alloc/free */
  75:/mnt/c/Users/31740/Documents/codes/newcore-rp2350/include/linux/slab.h **** #define SLAB_CONSISTENCY_CHECKS	__SLAB_FLAG_BIT(_SLAB_CONSISTENCY_CHECKS)
  76:/mnt/c/Users/31740/Documents/codes/newcore-rp2350/include/linux/slab.h **** /* DEBUG: Red zone objs in a cache */
  77:/mnt/c/Users/31740/Documents/codes/newcore-rp2350/include/linux/slab.h **** #define SLAB_RED_ZONE		__SLAB_FLAG_BIT(_SLAB_RED_ZONE)
  78:/mnt/c/Users/31740/Documents/codes/newcore-rp2350/include/linux/slab.h **** /* DEBUG: Poison objects */
  79:/mnt/c/Users/31740/Documents/codes/newcore-rp2350/include/linux/slab.h **** #define SLAB_POISON		__SLAB_FLAG_BIT(_SLAB_POISON)
  80:/mnt/c/Users/31740/Documents/codes/newcore-rp2350/include/linux/slab.h **** /* Indicate a kmalloc slab */
  81:/mnt/c/Users/31740/Documents/codes/newcore-rp2350/include/linux/slab.h **** #define SLAB_KMALLOC		__SLAB_FLAG_BIT(_SLAB_KMALLOC)
  82:/mnt/c/Users/31740/Documents/codes/newcore-rp2350/include/linux/slab.h **** /**
  83:/mnt/c/Users/31740/Documents/codes/newcore-rp2350/include/linux/slab.h ****  * define SLAB_HWCACHE_ALIGN - Align objects on cache line boundaries.
  84:/mnt/c/Users/31740/Documents/codes/newcore-rp2350/include/linux/slab.h ****  *
  85:/mnt/c/Users/31740/Documents/codes/newcore-rp2350/include/linux/slab.h ****  * Sufficiently large objects are aligned on cache line boundary. For object
  86:/mnt/c/Users/31740/Documents/codes/newcore-rp2350/include/linux/slab.h ****  * size smaller than a half of cache line size, the alignment is on the half of
  87:/mnt/c/Users/31740/Documents/codes/newcore-rp2350/include/linux/slab.h ****  * cache line size. In general, if object size is smaller than 1/2^n of cache
  88:/mnt/c/Users/31740/Documents/codes/newcore-rp2350/include/linux/slab.h ****  * line size, the alignment is adjusted to 1/2^n.
  89:/mnt/c/Users/31740/Documents/codes/newcore-rp2350/include/linux/slab.h ****  *
  90:/mnt/c/Users/31740/Documents/codes/newcore-rp2350/include/linux/slab.h ****  * If explicit alignment is also requested by the respective
  91:/mnt/c/Users/31740/Documents/codes/newcore-rp2350/include/linux/slab.h ****  * &struct kmem_cache_args field, the greater of both is alignments is applied.
  92:/mnt/c/Users/31740/Documents/codes/newcore-rp2350/include/linux/slab.h ****  */
  93:/mnt/c/Users/31740/Documents/codes/newcore-rp2350/include/linux/slab.h **** #define SLAB_HWCACHE_ALIGN	__SLAB_FLAG_BIT(_SLAB_HWCACHE_ALIGN)
  94:/mnt/c/Users/31740/Documents/codes/newcore-rp2350/include/linux/slab.h **** /* Use GFP_DMA memory */
  95:/mnt/c/Users/31740/Documents/codes/newcore-rp2350/include/linux/slab.h **** #define SLAB_CACHE_DMA		__SLAB_FLAG_BIT(_SLAB_CACHE_DMA)
  96:/mnt/c/Users/31740/Documents/codes/newcore-rp2350/include/linux/slab.h **** /* Use GFP_DMA32 memory */
  97:/mnt/c/Users/31740/Documents/codes/newcore-rp2350/include/linux/slab.h **** #define SLAB_CACHE_DMA32	__SLAB_FLAG_BIT(_SLAB_CACHE_DMA32)
  98:/mnt/c/Users/31740/Documents/codes/newcore-rp2350/include/linux/slab.h **** /* DEBUG: Store the last owner for bug hunting */
ARM GAS  /tmp/cczJPWbc.s 			page 6


  99:/mnt/c/Users/31740/Documents/codes/newcore-rp2350/include/linux/slab.h **** #define SLAB_STORE_USER		__SLAB_FLAG_BIT(_SLAB_STORE_USER)
 100:/mnt/c/Users/31740/Documents/codes/newcore-rp2350/include/linux/slab.h **** /* Panic if kmem_cache_create() fails */
 101:/mnt/c/Users/31740/Documents/codes/newcore-rp2350/include/linux/slab.h **** #define SLAB_PANIC		__SLAB_FLAG_BIT(_SLAB_PANIC)
 102:/mnt/c/Users/31740/Documents/codes/newcore-rp2350/include/linux/slab.h **** /**
 103:/mnt/c/Users/31740/Documents/codes/newcore-rp2350/include/linux/slab.h ****  * define SLAB_TYPESAFE_BY_RCU - **WARNING** READ THIS!
 104:/mnt/c/Users/31740/Documents/codes/newcore-rp2350/include/linux/slab.h ****  *
 105:/mnt/c/Users/31740/Documents/codes/newcore-rp2350/include/linux/slab.h ****  * This delays freeing the SLAB page by a grace period, it does _NOT_
 106:/mnt/c/Users/31740/Documents/codes/newcore-rp2350/include/linux/slab.h ****  * delay object freeing. This means that if you do kmem_cache_free()
 107:/mnt/c/Users/31740/Documents/codes/newcore-rp2350/include/linux/slab.h ****  * that memory location is free to be reused at any time. Thus it may
 108:/mnt/c/Users/31740/Documents/codes/newcore-rp2350/include/linux/slab.h ****  * be possible to see another object there in the same RCU grace period.
 109:/mnt/c/Users/31740/Documents/codes/newcore-rp2350/include/linux/slab.h ****  *
 110:/mnt/c/Users/31740/Documents/codes/newcore-rp2350/include/linux/slab.h ****  * This feature only ensures the memory location backing the object
 111:/mnt/c/Users/31740/Documents/codes/newcore-rp2350/include/linux/slab.h ****  * stays valid, the trick to using this is relying on an independent
 112:/mnt/c/Users/31740/Documents/codes/newcore-rp2350/include/linux/slab.h ****  * object validation pass. Something like:
 113:/mnt/c/Users/31740/Documents/codes/newcore-rp2350/include/linux/slab.h ****  *
 114:/mnt/c/Users/31740/Documents/codes/newcore-rp2350/include/linux/slab.h ****  * ::
 115:/mnt/c/Users/31740/Documents/codes/newcore-rp2350/include/linux/slab.h ****  *
 116:/mnt/c/Users/31740/Documents/codes/newcore-rp2350/include/linux/slab.h ****  *  begin:
 117:/mnt/c/Users/31740/Documents/codes/newcore-rp2350/include/linux/slab.h ****  *   rcu_read_lock();
 118:/mnt/c/Users/31740/Documents/codes/newcore-rp2350/include/linux/slab.h ****  *   obj = lockless_lookup(key);
 119:/mnt/c/Users/31740/Documents/codes/newcore-rp2350/include/linux/slab.h ****  *   if (obj) {
 120:/mnt/c/Users/31740/Documents/codes/newcore-rp2350/include/linux/slab.h ****  *     if (!try_get_ref(obj)) // might fail for free objects
 121:/mnt/c/Users/31740/Documents/codes/newcore-rp2350/include/linux/slab.h ****  *       rcu_read_unlock();
 122:/mnt/c/Users/31740/Documents/codes/newcore-rp2350/include/linux/slab.h ****  *       goto begin;
 123:/mnt/c/Users/31740/Documents/codes/newcore-rp2350/include/linux/slab.h ****  *
 124:/mnt/c/Users/31740/Documents/codes/newcore-rp2350/include/linux/slab.h ****  *     if (obj->key != key) { // not the object we expected
 125:/mnt/c/Users/31740/Documents/codes/newcore-rp2350/include/linux/slab.h ****  *       put_ref(obj);
 126:/mnt/c/Users/31740/Documents/codes/newcore-rp2350/include/linux/slab.h ****  *       rcu_read_unlock();
 127:/mnt/c/Users/31740/Documents/codes/newcore-rp2350/include/linux/slab.h ****  *       goto begin;
 128:/mnt/c/Users/31740/Documents/codes/newcore-rp2350/include/linux/slab.h ****  *     }
 129:/mnt/c/Users/31740/Documents/codes/newcore-rp2350/include/linux/slab.h ****  *   }
 130:/mnt/c/Users/31740/Documents/codes/newcore-rp2350/include/linux/slab.h ****  *  rcu_read_unlock();
 131:/mnt/c/Users/31740/Documents/codes/newcore-rp2350/include/linux/slab.h ****  *
 132:/mnt/c/Users/31740/Documents/codes/newcore-rp2350/include/linux/slab.h ****  * This is useful if we need to approach a kernel structure obliquely,
 133:/mnt/c/Users/31740/Documents/codes/newcore-rp2350/include/linux/slab.h ****  * from its address obtained without the usual locking. We can lock
 134:/mnt/c/Users/31740/Documents/codes/newcore-rp2350/include/linux/slab.h ****  * the structure to stabilize it and check it's still at the given address,
 135:/mnt/c/Users/31740/Documents/codes/newcore-rp2350/include/linux/slab.h ****  * only if we can be sure that the memory has not been meanwhile reused
 136:/mnt/c/Users/31740/Documents/codes/newcore-rp2350/include/linux/slab.h ****  * for some other kind of object (which our subsystem's lock might corrupt).
 137:/mnt/c/Users/31740/Documents/codes/newcore-rp2350/include/linux/slab.h ****  *
 138:/mnt/c/Users/31740/Documents/codes/newcore-rp2350/include/linux/slab.h ****  * rcu_read_lock before reading the address, then rcu_read_unlock after
 139:/mnt/c/Users/31740/Documents/codes/newcore-rp2350/include/linux/slab.h ****  * taking the spinlock within the structure expected at that address.
 140:/mnt/c/Users/31740/Documents/codes/newcore-rp2350/include/linux/slab.h ****  *
 141:/mnt/c/Users/31740/Documents/codes/newcore-rp2350/include/linux/slab.h ****  * Note that it is not possible to acquire a lock within a structure
 142:/mnt/c/Users/31740/Documents/codes/newcore-rp2350/include/linux/slab.h ****  * allocated with SLAB_TYPESAFE_BY_RCU without first acquiring a reference
 143:/mnt/c/Users/31740/Documents/codes/newcore-rp2350/include/linux/slab.h ****  * as described above.  The reason is that SLAB_TYPESAFE_BY_RCU pages
 144:/mnt/c/Users/31740/Documents/codes/newcore-rp2350/include/linux/slab.h ****  * are not zeroed before being given to the slab, which means that any
 145:/mnt/c/Users/31740/Documents/codes/newcore-rp2350/include/linux/slab.h ****  * locks must be initialized after each and every kmem_struct_alloc().
 146:/mnt/c/Users/31740/Documents/codes/newcore-rp2350/include/linux/slab.h ****  * Alternatively, make the ctor passed to kmem_cache_create() initialize
 147:/mnt/c/Users/31740/Documents/codes/newcore-rp2350/include/linux/slab.h ****  * the locks at page-allocation time, as is done in __i915_request_ctor(),
 148:/mnt/c/Users/31740/Documents/codes/newcore-rp2350/include/linux/slab.h ****  * sighand_ctor(), and anon_vma_ctor().  Such a ctor permits readers
 149:/mnt/c/Users/31740/Documents/codes/newcore-rp2350/include/linux/slab.h ****  * to safely acquire those ctor-initialized locks under rcu_read_lock()
 150:/mnt/c/Users/31740/Documents/codes/newcore-rp2350/include/linux/slab.h ****  * protection.
 151:/mnt/c/Users/31740/Documents/codes/newcore-rp2350/include/linux/slab.h ****  *
 152:/mnt/c/Users/31740/Documents/codes/newcore-rp2350/include/linux/slab.h ****  * Note that SLAB_TYPESAFE_BY_RCU was originally named SLAB_DESTROY_BY_RCU.
 153:/mnt/c/Users/31740/Documents/codes/newcore-rp2350/include/linux/slab.h ****  */
 154:/mnt/c/Users/31740/Documents/codes/newcore-rp2350/include/linux/slab.h **** #define SLAB_TYPESAFE_BY_RCU	__SLAB_FLAG_BIT(_SLAB_TYPESAFE_BY_RCU)
 155:/mnt/c/Users/31740/Documents/codes/newcore-rp2350/include/linux/slab.h **** /* Trace allocations and frees */
ARM GAS  /tmp/cczJPWbc.s 			page 7


 156:/mnt/c/Users/31740/Documents/codes/newcore-rp2350/include/linux/slab.h **** #define SLAB_TRACE		__SLAB_FLAG_BIT(_SLAB_TRACE)
 157:/mnt/c/Users/31740/Documents/codes/newcore-rp2350/include/linux/slab.h **** 
 158:/mnt/c/Users/31740/Documents/codes/newcore-rp2350/include/linux/slab.h **** /* Flag to prevent checks on free */
 159:/mnt/c/Users/31740/Documents/codes/newcore-rp2350/include/linux/slab.h **** #ifdef CONFIG_DEBUG_OBJECTS
 160:/mnt/c/Users/31740/Documents/codes/newcore-rp2350/include/linux/slab.h **** # define SLAB_DEBUG_OBJECTS	__SLAB_FLAG_BIT(_SLAB_DEBUG_OBJECTS)
 161:/mnt/c/Users/31740/Documents/codes/newcore-rp2350/include/linux/slab.h **** #else
 162:/mnt/c/Users/31740/Documents/codes/newcore-rp2350/include/linux/slab.h **** # define SLAB_DEBUG_OBJECTS	__SLAB_FLAG_UNUSED
 163:/mnt/c/Users/31740/Documents/codes/newcore-rp2350/include/linux/slab.h **** #endif
 164:/mnt/c/Users/31740/Documents/codes/newcore-rp2350/include/linux/slab.h **** 
 165:/mnt/c/Users/31740/Documents/codes/newcore-rp2350/include/linux/slab.h **** /* Avoid kmemleak tracing */
 166:/mnt/c/Users/31740/Documents/codes/newcore-rp2350/include/linux/slab.h **** #define SLAB_NOLEAKTRACE	__SLAB_FLAG_BIT(_SLAB_NOLEAKTRACE)
 167:/mnt/c/Users/31740/Documents/codes/newcore-rp2350/include/linux/slab.h **** 
 168:/mnt/c/Users/31740/Documents/codes/newcore-rp2350/include/linux/slab.h **** /*
 169:/mnt/c/Users/31740/Documents/codes/newcore-rp2350/include/linux/slab.h ****  * Prevent merging with compatible kmem caches. This flag should be used
 170:/mnt/c/Users/31740/Documents/codes/newcore-rp2350/include/linux/slab.h ****  * cautiously. Valid use cases:
 171:/mnt/c/Users/31740/Documents/codes/newcore-rp2350/include/linux/slab.h ****  *
 172:/mnt/c/Users/31740/Documents/codes/newcore-rp2350/include/linux/slab.h ****  * - caches created for self-tests (e.g. kunit)
 173:/mnt/c/Users/31740/Documents/codes/newcore-rp2350/include/linux/slab.h ****  * - general caches created and used by a subsystem, only when a
 174:/mnt/c/Users/31740/Documents/codes/newcore-rp2350/include/linux/slab.h ****  *   (subsystem-specific) debug option is enabled
 175:/mnt/c/Users/31740/Documents/codes/newcore-rp2350/include/linux/slab.h ****  * - performance critical caches, should be very rare and consulted with slab
 176:/mnt/c/Users/31740/Documents/codes/newcore-rp2350/include/linux/slab.h ****  *   maintainers, and not used together with CONFIG_SLUB_TINY
 177:/mnt/c/Users/31740/Documents/codes/newcore-rp2350/include/linux/slab.h ****  */
 178:/mnt/c/Users/31740/Documents/codes/newcore-rp2350/include/linux/slab.h **** #define SLAB_NO_MERGE		__SLAB_FLAG_BIT(_SLAB_NO_MERGE)
 179:/mnt/c/Users/31740/Documents/codes/newcore-rp2350/include/linux/slab.h **** 
 180:/mnt/c/Users/31740/Documents/codes/newcore-rp2350/include/linux/slab.h **** /* Fault injection mark */
 181:/mnt/c/Users/31740/Documents/codes/newcore-rp2350/include/linux/slab.h **** #ifdef CONFIG_FAILSLAB
 182:/mnt/c/Users/31740/Documents/codes/newcore-rp2350/include/linux/slab.h **** # define SLAB_FAILSLAB		__SLAB_FLAG_BIT(_SLAB_FAILSLAB)
 183:/mnt/c/Users/31740/Documents/codes/newcore-rp2350/include/linux/slab.h **** #else
 184:/mnt/c/Users/31740/Documents/codes/newcore-rp2350/include/linux/slab.h **** # define SLAB_FAILSLAB		__SLAB_FLAG_UNUSED
 185:/mnt/c/Users/31740/Documents/codes/newcore-rp2350/include/linux/slab.h **** #endif
 186:/mnt/c/Users/31740/Documents/codes/newcore-rp2350/include/linux/slab.h **** /**
 187:/mnt/c/Users/31740/Documents/codes/newcore-rp2350/include/linux/slab.h ****  * define SLAB_ACCOUNT - Account allocations to memcg.
 188:/mnt/c/Users/31740/Documents/codes/newcore-rp2350/include/linux/slab.h ****  *
 189:/mnt/c/Users/31740/Documents/codes/newcore-rp2350/include/linux/slab.h ****  * All object allocations from this cache will be memcg accounted, regardless of
 190:/mnt/c/Users/31740/Documents/codes/newcore-rp2350/include/linux/slab.h ****  * __GFP_ACCOUNT being or not being passed to individual allocations.
 191:/mnt/c/Users/31740/Documents/codes/newcore-rp2350/include/linux/slab.h ****  */
 192:/mnt/c/Users/31740/Documents/codes/newcore-rp2350/include/linux/slab.h **** #ifdef CONFIG_MEMCG
 193:/mnt/c/Users/31740/Documents/codes/newcore-rp2350/include/linux/slab.h **** # define SLAB_ACCOUNT		__SLAB_FLAG_BIT(_SLAB_ACCOUNT)
 194:/mnt/c/Users/31740/Documents/codes/newcore-rp2350/include/linux/slab.h **** #else
 195:/mnt/c/Users/31740/Documents/codes/newcore-rp2350/include/linux/slab.h **** # define SLAB_ACCOUNT		__SLAB_FLAG_UNUSED
 196:/mnt/c/Users/31740/Documents/codes/newcore-rp2350/include/linux/slab.h **** #endif
 197:/mnt/c/Users/31740/Documents/codes/newcore-rp2350/include/linux/slab.h **** 
 198:/mnt/c/Users/31740/Documents/codes/newcore-rp2350/include/linux/slab.h **** #ifdef CONFIG_KASAN_GENERIC
 199:/mnt/c/Users/31740/Documents/codes/newcore-rp2350/include/linux/slab.h **** #define SLAB_KASAN		__SLAB_FLAG_BIT(_SLAB_KASAN)
 200:/mnt/c/Users/31740/Documents/codes/newcore-rp2350/include/linux/slab.h **** #else
 201:/mnt/c/Users/31740/Documents/codes/newcore-rp2350/include/linux/slab.h **** #define SLAB_KASAN		__SLAB_FLAG_UNUSED
 202:/mnt/c/Users/31740/Documents/codes/newcore-rp2350/include/linux/slab.h **** #endif
 203:/mnt/c/Users/31740/Documents/codes/newcore-rp2350/include/linux/slab.h **** 
 204:/mnt/c/Users/31740/Documents/codes/newcore-rp2350/include/linux/slab.h **** /*
 205:/mnt/c/Users/31740/Documents/codes/newcore-rp2350/include/linux/slab.h ****  * Ignore user specified debugging flags.
 206:/mnt/c/Users/31740/Documents/codes/newcore-rp2350/include/linux/slab.h ****  * Intended for caches created for self-tests so they have only flags
 207:/mnt/c/Users/31740/Documents/codes/newcore-rp2350/include/linux/slab.h ****  * specified in the code and other flags are ignored.
 208:/mnt/c/Users/31740/Documents/codes/newcore-rp2350/include/linux/slab.h ****  */
 209:/mnt/c/Users/31740/Documents/codes/newcore-rp2350/include/linux/slab.h **** #define SLAB_NO_USER_FLAGS	__SLAB_FLAG_BIT(_SLAB_NO_USER_FLAGS)
 210:/mnt/c/Users/31740/Documents/codes/newcore-rp2350/include/linux/slab.h **** 
 211:/mnt/c/Users/31740/Documents/codes/newcore-rp2350/include/linux/slab.h **** #ifdef CONFIG_KFENCE
 212:/mnt/c/Users/31740/Documents/codes/newcore-rp2350/include/linux/slab.h **** #define SLAB_SKIP_KFENCE	__SLAB_FLAG_BIT(_SLAB_SKIP_KFENCE)
ARM GAS  /tmp/cczJPWbc.s 			page 8


 213:/mnt/c/Users/31740/Documents/codes/newcore-rp2350/include/linux/slab.h **** #else
 214:/mnt/c/Users/31740/Documents/codes/newcore-rp2350/include/linux/slab.h **** #define SLAB_SKIP_KFENCE	__SLAB_FLAG_UNUSED
 215:/mnt/c/Users/31740/Documents/codes/newcore-rp2350/include/linux/slab.h **** #endif
 216:/mnt/c/Users/31740/Documents/codes/newcore-rp2350/include/linux/slab.h **** 
 217:/mnt/c/Users/31740/Documents/codes/newcore-rp2350/include/linux/slab.h **** /* The following flags affect the page allocator grouping pages by mobility */
 218:/mnt/c/Users/31740/Documents/codes/newcore-rp2350/include/linux/slab.h **** /**
 219:/mnt/c/Users/31740/Documents/codes/newcore-rp2350/include/linux/slab.h ****  * define SLAB_RECLAIM_ACCOUNT - Objects are reclaimable.
 220:/mnt/c/Users/31740/Documents/codes/newcore-rp2350/include/linux/slab.h ****  *
 221:/mnt/c/Users/31740/Documents/codes/newcore-rp2350/include/linux/slab.h ****  * Use this flag for caches that have an associated shrinker. As a result, slab
 222:/mnt/c/Users/31740/Documents/codes/newcore-rp2350/include/linux/slab.h ****  * pages are allocated with __GFP_RECLAIMABLE, which affects grouping pages by
 223:/mnt/c/Users/31740/Documents/codes/newcore-rp2350/include/linux/slab.h ****  * mobility, and are accounted in SReclaimable counter in /proc/meminfo
 224:/mnt/c/Users/31740/Documents/codes/newcore-rp2350/include/linux/slab.h ****  */
 225:/mnt/c/Users/31740/Documents/codes/newcore-rp2350/include/linux/slab.h **** #ifndef CONFIG_SLUB_TINY
 226:/mnt/c/Users/31740/Documents/codes/newcore-rp2350/include/linux/slab.h **** #define SLAB_RECLAIM_ACCOUNT	__SLAB_FLAG_BIT(_SLAB_RECLAIM_ACCOUNT)
 227:/mnt/c/Users/31740/Documents/codes/newcore-rp2350/include/linux/slab.h **** #else
 228:/mnt/c/Users/31740/Documents/codes/newcore-rp2350/include/linux/slab.h **** #define SLAB_RECLAIM_ACCOUNT	__SLAB_FLAG_UNUSED
 229:/mnt/c/Users/31740/Documents/codes/newcore-rp2350/include/linux/slab.h **** #endif
 230:/mnt/c/Users/31740/Documents/codes/newcore-rp2350/include/linux/slab.h **** #define SLAB_TEMPORARY		SLAB_RECLAIM_ACCOUNT	/* Objects are short-lived */
 231:/mnt/c/Users/31740/Documents/codes/newcore-rp2350/include/linux/slab.h **** 
 232:/mnt/c/Users/31740/Documents/codes/newcore-rp2350/include/linux/slab.h **** /* Slab created using create_boot_cache */
 233:/mnt/c/Users/31740/Documents/codes/newcore-rp2350/include/linux/slab.h **** #ifdef CONFIG_SLAB_OBJ_EXT
 234:/mnt/c/Users/31740/Documents/codes/newcore-rp2350/include/linux/slab.h **** #define SLAB_NO_OBJ_EXT		__SLAB_FLAG_BIT(_SLAB_NO_OBJ_EXT)
 235:/mnt/c/Users/31740/Documents/codes/newcore-rp2350/include/linux/slab.h **** #else
 236:/mnt/c/Users/31740/Documents/codes/newcore-rp2350/include/linux/slab.h **** #define SLAB_NO_OBJ_EXT		__SLAB_FLAG_UNUSED
 237:/mnt/c/Users/31740/Documents/codes/newcore-rp2350/include/linux/slab.h **** #endif
 238:/mnt/c/Users/31740/Documents/codes/newcore-rp2350/include/linux/slab.h **** 
 239:/mnt/c/Users/31740/Documents/codes/newcore-rp2350/include/linux/slab.h **** /*
 240:/mnt/c/Users/31740/Documents/codes/newcore-rp2350/include/linux/slab.h ****  * freeptr_t represents a SLUB freelist pointer, which might be encoded
 241:/mnt/c/Users/31740/Documents/codes/newcore-rp2350/include/linux/slab.h ****  * and not dereferenceable if CONFIG_SLAB_FREELIST_HARDENED is enabled.
 242:/mnt/c/Users/31740/Documents/codes/newcore-rp2350/include/linux/slab.h ****  */
 243:/mnt/c/Users/31740/Documents/codes/newcore-rp2350/include/linux/slab.h **** typedef struct { unsigned long v; } freeptr_t;
 244:/mnt/c/Users/31740/Documents/codes/newcore-rp2350/include/linux/slab.h **** 
 245:/mnt/c/Users/31740/Documents/codes/newcore-rp2350/include/linux/slab.h **** /*
 246:/mnt/c/Users/31740/Documents/codes/newcore-rp2350/include/linux/slab.h ****  * ZERO_SIZE_PTR will be returned for zero sized kmalloc requests.
 247:/mnt/c/Users/31740/Documents/codes/newcore-rp2350/include/linux/slab.h ****  *
 248:/mnt/c/Users/31740/Documents/codes/newcore-rp2350/include/linux/slab.h ****  * Dereferencing ZERO_SIZE_PTR will lead to a distinct access fault.
 249:/mnt/c/Users/31740/Documents/codes/newcore-rp2350/include/linux/slab.h ****  *
 250:/mnt/c/Users/31740/Documents/codes/newcore-rp2350/include/linux/slab.h ****  * ZERO_SIZE_PTR can be passed to kfree though in the same way that NULL can.
 251:/mnt/c/Users/31740/Documents/codes/newcore-rp2350/include/linux/slab.h ****  * Both make kfree a no-op.
 252:/mnt/c/Users/31740/Documents/codes/newcore-rp2350/include/linux/slab.h ****  */
 253:/mnt/c/Users/31740/Documents/codes/newcore-rp2350/include/linux/slab.h **** #define ZERO_SIZE_PTR ((void *)16)
 254:/mnt/c/Users/31740/Documents/codes/newcore-rp2350/include/linux/slab.h **** 
 255:/mnt/c/Users/31740/Documents/codes/newcore-rp2350/include/linux/slab.h **** #define ZERO_OR_NULL_PTR(x) ((unsigned long)(x) <= \
 256:/mnt/c/Users/31740/Documents/codes/newcore-rp2350/include/linux/slab.h **** 				(unsigned long)ZERO_SIZE_PTR)
 257:/mnt/c/Users/31740/Documents/codes/newcore-rp2350/include/linux/slab.h **** 
 258:/mnt/c/Users/31740/Documents/codes/newcore-rp2350/include/linux/slab.h **** 
 259:/mnt/c/Users/31740/Documents/codes/newcore-rp2350/include/linux/slab.h **** 
 260:/mnt/c/Users/31740/Documents/codes/newcore-rp2350/include/linux/slab.h **** 
 261:/mnt/c/Users/31740/Documents/codes/newcore-rp2350/include/linux/slab.h **** 
 262:/mnt/c/Users/31740/Documents/codes/newcore-rp2350/include/linux/slab.h **** #ifdef CONFIG_SLUB_CPU_PARTIAL
 263:/mnt/c/Users/31740/Documents/codes/newcore-rp2350/include/linux/slab.h **** #define slub_percpu_partial(c)			((c)->partial)
 264:/mnt/c/Users/31740/Documents/codes/newcore-rp2350/include/linux/slab.h **** 
 265:/mnt/c/Users/31740/Documents/codes/newcore-rp2350/include/linux/slab.h **** #define slub_set_percpu_partial(c, p)		\
 266:/mnt/c/Users/31740/Documents/codes/newcore-rp2350/include/linux/slab.h **** ({						\
 267:/mnt/c/Users/31740/Documents/codes/newcore-rp2350/include/linux/slab.h **** 	slub_percpu_partial(c) = (p)->next;	\
 268:/mnt/c/Users/31740/Documents/codes/newcore-rp2350/include/linux/slab.h **** })
 269:/mnt/c/Users/31740/Documents/codes/newcore-rp2350/include/linux/slab.h **** 
ARM GAS  /tmp/cczJPWbc.s 			page 9


 270:/mnt/c/Users/31740/Documents/codes/newcore-rp2350/include/linux/slab.h **** #define slub_percpu_partial_read_once(c)	READ_ONCE(slub_percpu_partial(c))
 271:/mnt/c/Users/31740/Documents/codes/newcore-rp2350/include/linux/slab.h **** #else
 272:/mnt/c/Users/31740/Documents/codes/newcore-rp2350/include/linux/slab.h **** #define slub_percpu_partial(c)			NULL
 273:/mnt/c/Users/31740/Documents/codes/newcore-rp2350/include/linux/slab.h **** 
 274:/mnt/c/Users/31740/Documents/codes/newcore-rp2350/include/linux/slab.h **** #define slub_set_percpu_partial(c, p)
 275:/mnt/c/Users/31740/Documents/codes/newcore-rp2350/include/linux/slab.h **** 
 276:/mnt/c/Users/31740/Documents/codes/newcore-rp2350/include/linux/slab.h **** #define slub_percpu_partial_read_once(c)	NULL
 277:/mnt/c/Users/31740/Documents/codes/newcore-rp2350/include/linux/slab.h **** 
 278:/mnt/c/Users/31740/Documents/codes/newcore-rp2350/include/linux/slab.h **** 
 279:/mnt/c/Users/31740/Documents/codes/newcore-rp2350/include/linux/slab.h **** #endif // CONFIG_SLUB_CPU_PARTIAL
 280:/mnt/c/Users/31740/Documents/codes/newcore-rp2350/include/linux/slab.h **** 
 281:/mnt/c/Users/31740/Documents/codes/newcore-rp2350/include/linux/slab.h **** /*
 282:/mnt/c/Users/31740/Documents/codes/newcore-rp2350/include/linux/slab.h **** 	* Word size structure that can be atomically updated or read and that
 283:/mnt/c/Users/31740/Documents/codes/newcore-rp2350/include/linux/slab.h **** 	* contains both the order and the number of objects that a slab of the
 284:/mnt/c/Users/31740/Documents/codes/newcore-rp2350/include/linux/slab.h **** 	* given order would contain.
 285:/mnt/c/Users/31740/Documents/codes/newcore-rp2350/include/linux/slab.h **** 	*/				
 286:/mnt/c/Users/31740/Documents/codes/newcore-rp2350/include/linux/slab.h **** struct kmem_cache_order_objects {
 287:/mnt/c/Users/31740/Documents/codes/newcore-rp2350/include/linux/slab.h **** 	unsigned int x;
 288:/mnt/c/Users/31740/Documents/codes/newcore-rp2350/include/linux/slab.h **** };
 289:/mnt/c/Users/31740/Documents/codes/newcore-rp2350/include/linux/slab.h **** 
 290:/mnt/c/Users/31740/Documents/codes/newcore-rp2350/include/linux/slab.h **** struct kmem_cache_node {
 291:/mnt/c/Users/31740/Documents/codes/newcore-rp2350/include/linux/slab.h **** 	spinlock_t list_lock;
 292:/mnt/c/Users/31740/Documents/codes/newcore-rp2350/include/linux/slab.h **** 	unsigned long nr_partial;
 293:/mnt/c/Users/31740/Documents/codes/newcore-rp2350/include/linux/slab.h **** 	struct list_head partial;
 294:/mnt/c/Users/31740/Documents/codes/newcore-rp2350/include/linux/slab.h **** #ifdef CONFIG_SLUB_DEBUG
 295:/mnt/c/Users/31740/Documents/codes/newcore-rp2350/include/linux/slab.h **** 	atomic_long_t nr_slabs;
 296:/mnt/c/Users/31740/Documents/codes/newcore-rp2350/include/linux/slab.h **** 	atomic_long_t total_objects;
 297:/mnt/c/Users/31740/Documents/codes/newcore-rp2350/include/linux/slab.h **** 	struct list_head full;
 298:/mnt/c/Users/31740/Documents/codes/newcore-rp2350/include/linux/slab.h **** #endif
 299:/mnt/c/Users/31740/Documents/codes/newcore-rp2350/include/linux/slab.h **** };
 300:/mnt/c/Users/31740/Documents/codes/newcore-rp2350/include/linux/slab.h **** 
 301:/mnt/c/Users/31740/Documents/codes/newcore-rp2350/include/linux/slab.h **** struct kmem_cache {
 302:/mnt/c/Users/31740/Documents/codes/newcore-rp2350/include/linux/slab.h **** 	#ifndef CONFIG_SLUB_TINY
 303:/mnt/c/Users/31740/Documents/codes/newcore-rp2350/include/linux/slab.h **** 	//	struct kmem_cache_cpu __percpu *cpu_slab;
 304:/mnt/c/Users/31740/Documents/codes/newcore-rp2350/include/linux/slab.h **** 	#endif
 305:/mnt/c/Users/31740/Documents/codes/newcore-rp2350/include/linux/slab.h **** 		/* Used for retrieving partial slabs, etc. */
 306:/mnt/c/Users/31740/Documents/codes/newcore-rp2350/include/linux/slab.h **** 		slab_flags_t flags;
 307:/mnt/c/Users/31740/Documents/codes/newcore-rp2350/include/linux/slab.h **** 		unsigned long min_partial;
 308:/mnt/c/Users/31740/Documents/codes/newcore-rp2350/include/linux/slab.h **** 		unsigned int size;		/* Object size including metadata */
 309:/mnt/c/Users/31740/Documents/codes/newcore-rp2350/include/linux/slab.h **** 		unsigned int object_size;	/* Object size without metadata */
 310:/mnt/c/Users/31740/Documents/codes/newcore-rp2350/include/linux/slab.h **** 		struct reciprocal_value reciprocal_size;
 311:/mnt/c/Users/31740/Documents/codes/newcore-rp2350/include/linux/slab.h **** 		unsigned int offset;		/* Free pointer offset */
 312:/mnt/c/Users/31740/Documents/codes/newcore-rp2350/include/linux/slab.h **** 	#ifdef CONFIG_SLUB_CPU_PARTIAL
 313:/mnt/c/Users/31740/Documents/codes/newcore-rp2350/include/linux/slab.h **** 		/* Number of per cpu partial objects to keep around */
 314:/mnt/c/Users/31740/Documents/codes/newcore-rp2350/include/linux/slab.h **** 		unsigned int cpu_partial;
 315:/mnt/c/Users/31740/Documents/codes/newcore-rp2350/include/linux/slab.h **** 		/* Number of per cpu partial slabs to keep around */
 316:/mnt/c/Users/31740/Documents/codes/newcore-rp2350/include/linux/slab.h **** 		unsigned int cpu_partial_slabs;
 317:/mnt/c/Users/31740/Documents/codes/newcore-rp2350/include/linux/slab.h **** 	#endif
 318:/mnt/c/Users/31740/Documents/codes/newcore-rp2350/include/linux/slab.h **** 		struct kmem_cache_order_objects oo;
 319:/mnt/c/Users/31740/Documents/codes/newcore-rp2350/include/linux/slab.h **** 	
 320:/mnt/c/Users/31740/Documents/codes/newcore-rp2350/include/linux/slab.h **** 		/* Allocation and freeing of slabs */
 321:/mnt/c/Users/31740/Documents/codes/newcore-rp2350/include/linux/slab.h **** 		struct kmem_cache_order_objects min;
 322:/mnt/c/Users/31740/Documents/codes/newcore-rp2350/include/linux/slab.h **** 		gfp_t allocflags;		/* gfp flags to use on each alloc */
 323:/mnt/c/Users/31740/Documents/codes/newcore-rp2350/include/linux/slab.h **** 		int refcount;			/* Refcount for slab cache destroy */
 324:/mnt/c/Users/31740/Documents/codes/newcore-rp2350/include/linux/slab.h **** 		void (*ctor)(void *object);	/* Object constructor */
 325:/mnt/c/Users/31740/Documents/codes/newcore-rp2350/include/linux/slab.h **** 		unsigned int inuse;		/* Offset to metadata */
 326:/mnt/c/Users/31740/Documents/codes/newcore-rp2350/include/linux/slab.h **** 		unsigned int align;		/* Alignment */
ARM GAS  /tmp/cczJPWbc.s 			page 10


 327:/mnt/c/Users/31740/Documents/codes/newcore-rp2350/include/linux/slab.h **** 		unsigned int red_left_pad;	/* Left redzone padding size */
 328:/mnt/c/Users/31740/Documents/codes/newcore-rp2350/include/linux/slab.h **** 		const char *name;		/* Name (only for display!) */
 329:/mnt/c/Users/31740/Documents/codes/newcore-rp2350/include/linux/slab.h **** 		struct list_head list;		/* List of slab caches */
 330:/mnt/c/Users/31740/Documents/codes/newcore-rp2350/include/linux/slab.h **** 	#ifdef CONFIG_SYSFS
 331:/mnt/c/Users/31740/Documents/codes/newcore-rp2350/include/linux/slab.h **** 		struct kobject kobj;		/* For sysfs */
 332:/mnt/c/Users/31740/Documents/codes/newcore-rp2350/include/linux/slab.h **** 	#endif
 333:/mnt/c/Users/31740/Documents/codes/newcore-rp2350/include/linux/slab.h **** 	#ifdef CONFIG_SLAB_FREELIST_HARDENED
 334:/mnt/c/Users/31740/Documents/codes/newcore-rp2350/include/linux/slab.h **** 		unsigned long random;
 335:/mnt/c/Users/31740/Documents/codes/newcore-rp2350/include/linux/slab.h **** 	#endif
 336:/mnt/c/Users/31740/Documents/codes/newcore-rp2350/include/linux/slab.h **** 	
 337:/mnt/c/Users/31740/Documents/codes/newcore-rp2350/include/linux/slab.h **** 	#ifdef CONFIG_NUMA
 338:/mnt/c/Users/31740/Documents/codes/newcore-rp2350/include/linux/slab.h **** 		/*
 339:/mnt/c/Users/31740/Documents/codes/newcore-rp2350/include/linux/slab.h **** 			* Defragmentation by allocating from a remote node.
 340:/mnt/c/Users/31740/Documents/codes/newcore-rp2350/include/linux/slab.h **** 			*/
 341:/mnt/c/Users/31740/Documents/codes/newcore-rp2350/include/linux/slab.h **** 		unsigned int remote_node_defrag_ratio;
 342:/mnt/c/Users/31740/Documents/codes/newcore-rp2350/include/linux/slab.h **** 	#endif
 343:/mnt/c/Users/31740/Documents/codes/newcore-rp2350/include/linux/slab.h **** 	
 344:/mnt/c/Users/31740/Documents/codes/newcore-rp2350/include/linux/slab.h **** 	#ifdef CONFIG_SLAB_FREELIST_RANDOM
 345:/mnt/c/Users/31740/Documents/codes/newcore-rp2350/include/linux/slab.h **** 		unsigned int *random_seq;
 346:/mnt/c/Users/31740/Documents/codes/newcore-rp2350/include/linux/slab.h **** 	#endif
 347:/mnt/c/Users/31740/Documents/codes/newcore-rp2350/include/linux/slab.h **** 	
 348:/mnt/c/Users/31740/Documents/codes/newcore-rp2350/include/linux/slab.h **** 	#ifdef CONFIG_KASAN_GENERIC
 349:/mnt/c/Users/31740/Documents/codes/newcore-rp2350/include/linux/slab.h **** 		struct kasan_cache kasan_info;
 350:/mnt/c/Users/31740/Documents/codes/newcore-rp2350/include/linux/slab.h **** 	#endif
 351:/mnt/c/Users/31740/Documents/codes/newcore-rp2350/include/linux/slab.h **** 	
 352:/mnt/c/Users/31740/Documents/codes/newcore-rp2350/include/linux/slab.h **** 	#ifdef CONFIG_HARDENED_USERCOPY
 353:/mnt/c/Users/31740/Documents/codes/newcore-rp2350/include/linux/slab.h **** 		unsigned int useroffset;	/* Usercopy region offset */
 354:/mnt/c/Users/31740/Documents/codes/newcore-rp2350/include/linux/slab.h **** 		unsigned int usersize;		/* Usercopy region size */
 355:/mnt/c/Users/31740/Documents/codes/newcore-rp2350/include/linux/slab.h **** 	#endif
 356:/mnt/c/Users/31740/Documents/codes/newcore-rp2350/include/linux/slab.h **** 	
 357:/mnt/c/Users/31740/Documents/codes/newcore-rp2350/include/linux/slab.h **** 		struct kmem_cache_node *node[MAX_NUMNODES];
 358:/mnt/c/Users/31740/Documents/codes/newcore-rp2350/include/linux/slab.h **** 	};
 359:/mnt/c/Users/31740/Documents/codes/newcore-rp2350/include/linux/slab.h **** 					
 360:/mnt/c/Users/31740/Documents/codes/newcore-rp2350/include/linux/slab.h **** 
 361:/mnt/c/Users/31740/Documents/codes/newcore-rp2350/include/linux/slab.h **** 
 362:/mnt/c/Users/31740/Documents/codes/newcore-rp2350/include/linux/slab.h **** 
 363:/mnt/c/Users/31740/Documents/codes/newcore-rp2350/include/linux/slab.h **** 
 364:/mnt/c/Users/31740/Documents/codes/newcore-rp2350/include/linux/slab.h **** #define KMALLOC_WAIT 1
 365:/mnt/c/Users/31740/Documents/codes/newcore-rp2350/include/linux/slab.h **** 
 366:/mnt/c/Users/31740/Documents/codes/newcore-rp2350/include/linux/slab.h **** 
 367:/mnt/c/Users/31740/Documents/codes/newcore-rp2350/include/linux/slab.h **** extern void* __smalloc__(u32 size, gfp_t flags);
 368:/mnt/c/Users/31740/Documents/codes/newcore-rp2350/include/linux/slab.h **** extern void  __sfree__(void* addr);
 369:/mnt/c/Users/31740/Documents/codes/newcore-rp2350/include/linux/slab.h **** 
 370:/mnt/c/Users/31740/Documents/codes/newcore-rp2350/include/linux/slab.h **** 
 371:/mnt/c/Users/31740/Documents/codes/newcore-rp2350/include/linux/slab.h **** static void inline *vmalloc(unsigned long size){
 372:/mnt/c/Users/31740/Documents/codes/newcore-rp2350/include/linux/slab.h **** 	return __smalloc__(size,GFP_TRANSHUGE_LIGHT);
 373:/mnt/c/Users/31740/Documents/codes/newcore-rp2350/include/linux/slab.h **** }
 374:/mnt/c/Users/31740/Documents/codes/newcore-rp2350/include/linux/slab.h **** 
 375:/mnt/c/Users/31740/Documents/codes/newcore-rp2350/include/linux/slab.h **** static void inline vfree(void *addr){
 376:/mnt/c/Users/31740/Documents/codes/newcore-rp2350/include/linux/slab.h **** 	__sfree__(addr);
 377:/mnt/c/Users/31740/Documents/codes/newcore-rp2350/include/linux/slab.h **** }
 378:/mnt/c/Users/31740/Documents/codes/newcore-rp2350/include/linux/slab.h **** 
 379:/mnt/c/Users/31740/Documents/codes/newcore-rp2350/include/linux/slab.h **** static void inline *kmalloc(size_t size, gfp_t flags){
 126              		.loc 2 379 21 view .LVU16
 127              	.LBB21:
 380:/mnt/c/Users/31740/Documents/codes/newcore-rp2350/include/linux/slab.h **** 	return __smalloc__((u32)size,flags);
 128              		.loc 2 380 2 view .LVU17
ARM GAS  /tmp/cczJPWbc.s 			page 11


 129              		.loc 2 380 9 is_stmt 0 view .LVU18
 130 000c 4FF44C61 		mov	r1, #3264
 131              	.LVL5:
 132              		.loc 2 380 9 view .LVU19
 133 0010 3C20     		movs	r0, #60
 134              	.LVL6:
 135              		.loc 2 380 9 view .LVU20
 136 0012 FFF7FEFF 		bl	__smalloc__
 137              	.LVL7:
 138              		.loc 2 380 9 view .LVU21
 139              	.LBE21:
 140              	.LBE20:
  14:/mnt/c/Users/31740/Documents/codes/newcore-rp2350/lib/error.c ****  
 141              		.loc 1 14 5 is_stmt 1 view .LVU22
  14:/mnt/c/Users/31740/Documents/codes/newcore-rp2350/lib/error.c ****  
 142              		.loc 1 14 7 is_stmt 0 view .LVU23
 143 0016 90B3     		cbz	r0, .L10
 144 0018 0446     		mov	r4, r0
  16:/mnt/c/Users/31740/Documents/codes/newcore-rp2350/lib/error.c ****     error->errmsg = (char *)kmalloc(error_buffer_size, GFP_KERNEL);
 145              		.loc 1 16 5 is_stmt 1 view .LVU24
  16:/mnt/c/Users/31740/Documents/codes/newcore-rp2350/lib/error.c ****     error->errmsg = (char *)kmalloc(error_buffer_size, GFP_KERNEL);
 146              		.loc 1 16 7 is_stmt 0 view .LVU25
 147 001a 0DB9     		cbnz	r5, .L6
  16:/mnt/c/Users/31740/Documents/codes/newcore-rp2350/lib/error.c ****     error->errmsg = (char *)kmalloc(error_buffer_size, GFP_KERNEL);
 148              		.loc 1 16 50 discriminator 1 view .LVU26
 149 001c 4FF40075 		mov	r5, #512
 150              	.LVL8:
 151              	.L6:
  17:/mnt/c/Users/31740/Documents/codes/newcore-rp2350/lib/error.c ****     if(error->errmsg == NULL){
 152              		.loc 1 17 5 is_stmt 1 view .LVU27
 153              	.LBB22:
 154              	.LBI22:
 379:/mnt/c/Users/31740/Documents/codes/newcore-rp2350/include/linux/slab.h **** 	return __smalloc__((u32)size,flags);
 155              		.loc 2 379 21 view .LVU28
 156              	.LBB23:
 157              		.loc 2 380 2 view .LVU29
 158              		.loc 2 380 9 is_stmt 0 view .LVU30
 159 0020 4FF44C61 		mov	r1, #3264
 160 0024 2846     		mov	r0, r5
 161              	.LVL9:
 162              		.loc 2 380 9 view .LVU31
 163 0026 FFF7FEFF 		bl	__smalloc__
 164              	.LVL10:
 165              		.loc 2 380 9 view .LVU32
 166              	.LBE23:
 167              	.LBE22:
  17:/mnt/c/Users/31740/Documents/codes/newcore-rp2350/lib/error.c ****     if(error->errmsg == NULL){
 168              		.loc 1 17 19 discriminator 1 view .LVU33
 169 002a 6061     		str	r0, [r4, #20]
  18:/mnt/c/Users/31740/Documents/codes/newcore-rp2350/lib/error.c ****         kfree(error);
 170              		.loc 1 18 5 is_stmt 1 view .LVU34
  18:/mnt/c/Users/31740/Documents/codes/newcore-rp2350/lib/error.c ****         kfree(error);
 171              		.loc 1 18 7 is_stmt 0 view .LVU35
 172 002c B0B1     		cbz	r0, .L14
  22:/mnt/c/Users/31740/Documents/codes/newcore-rp2350/lib/error.c ****  
 173              		.loc 1 22 5 is_stmt 1 view .LVU36
  22:/mnt/c/Users/31740/Documents/codes/newcore-rp2350/lib/error.c ****  
ARM GAS  /tmp/cczJPWbc.s 			page 12


 174              		.loc 1 22 24 is_stmt 0 view .LVU37
 175 002e 2561     		str	r5, [r4, #16]
  24:/mnt/c/Users/31740/Documents/codes/newcore-rp2350/lib/error.c ****     int name_length = strlen(name);
 176              		.loc 1 24 5 is_stmt 1 view .LVU38
  24:/mnt/c/Users/31740/Documents/codes/newcore-rp2350/lib/error.c ****     int name_length = strlen(name);
 177              		.loc 1 24 7 is_stmt 0 view .LVU39
 178 0030 D6B1     		cbz	r6, .L15
 179              	.LVL11:
 180              	.L8:
  25:/mnt/c/Users/31740/Documents/codes/newcore-rp2350/lib/error.c ****     error->name = (char *)kmalloc(name_length+1, GFP_KERNEL);
 181              		.loc 1 25 5 is_stmt 1 view .LVU40
  25:/mnt/c/Users/31740/Documents/codes/newcore-rp2350/lib/error.c ****     error->name = (char *)kmalloc(name_length+1, GFP_KERNEL);
 182              		.loc 1 25 23 is_stmt 0 view .LVU41
 183 0032 3046     		mov	r0, r6
 184 0034 FFF7FEFF 		bl	strlen
 185              	.LVL12:
  26:/mnt/c/Users/31740/Documents/codes/newcore-rp2350/lib/error.c ****     if(error->name == NULL){
 186              		.loc 1 26 5 is_stmt 1 view .LVU42
 187              	.LBB24:
 188              	.LBI24:
 379:/mnt/c/Users/31740/Documents/codes/newcore-rp2350/include/linux/slab.h **** 	return __smalloc__((u32)size,flags);
 189              		.loc 2 379 21 view .LVU43
 190              	.LBB25:
 191              		.loc 2 380 2 view .LVU44
 192              		.loc 2 380 9 is_stmt 0 view .LVU45
 193 0038 4FF44C61 		mov	r1, #3264
 194 003c 0130     		adds	r0, r0, #1
 195              	.LVL13:
 196              		.loc 2 380 9 view .LVU46
 197 003e FFF7FEFF 		bl	__smalloc__
 198              	.LVL14:
 199              		.loc 2 380 9 view .LVU47
 200              	.LBE25:
 201              	.LBE24:
  26:/mnt/c/Users/31740/Documents/codes/newcore-rp2350/lib/error.c ****     if(error->name == NULL){
 202              		.loc 1 26 17 discriminator 1 view .LVU48
 203 0042 2060     		str	r0, [r4]
  27:/mnt/c/Users/31740/Documents/codes/newcore-rp2350/lib/error.c ****         kfree(error->errmsg);
 204              		.loc 1 27 5 is_stmt 1 view .LVU49
  27:/mnt/c/Users/31740/Documents/codes/newcore-rp2350/lib/error.c ****         kfree(error->errmsg);
 205              		.loc 1 27 7 is_stmt 0 view .LVU50
 206 0044 90B1     		cbz	r0, .L16
  32:/mnt/c/Users/31740/Documents/codes/newcore-rp2350/lib/error.c **** 
 207              		.loc 1 32 5 is_stmt 1 view .LVU51
 208 0046 3146     		mov	r1, r6
 209 0048 FFF7FEFF 		bl	strcpy
 210              	.LVL15:
  34:/mnt/c/Users/31740/Documents/codes/newcore-rp2350/lib/error.c ****     error->error_count = 0;
 211              		.loc 1 34 5 view .LVU52
  34:/mnt/c/Users/31740/Documents/codes/newcore-rp2350/lib/error.c ****     error->error_count = 0;
 212              		.loc 1 34 19 is_stmt 0 view .LVU53
 213 004c C4F82080 		str	r8, [r4, #32]
  35:/mnt/c/Users/31740/Documents/codes/newcore-rp2350/lib/error.c ****     error->mode = mode;
 214              		.loc 1 35 5 is_stmt 1 view .LVU54
  35:/mnt/c/Users/31740/Documents/codes/newcore-rp2350/lib/error.c ****     error->mode = mode;
 215              		.loc 1 35 24 is_stmt 0 view .LVU55
 216 0050 0023     		movs	r3, #0
ARM GAS  /tmp/cczJPWbc.s 			page 13


 217 0052 A361     		str	r3, [r4, #24]
  36:/mnt/c/Users/31740/Documents/codes/newcore-rp2350/lib/error.c ****     return error;
 218              		.loc 1 36 5 is_stmt 1 view .LVU56
  36:/mnt/c/Users/31740/Documents/codes/newcore-rp2350/lib/error.c ****     return error;
 219              		.loc 1 36 17 is_stmt 0 view .LVU57
 220 0054 2777     		strb	r7, [r4, #28]
  37:/mnt/c/Users/31740/Documents/codes/newcore-rp2350/lib/error.c **** }
 221              		.loc 1 37 5 is_stmt 1 view .LVU58
 222              	.LVL16:
 223              	.L4:
  38:/mnt/c/Users/31740/Documents/codes/newcore-rp2350/lib/error.c **** 
 224              		.loc 1 38 1 is_stmt 0 view .LVU59
 225 0056 2046     		mov	r0, r4
 226 0058 BDE8F081 		pop	{r4, r5, r6, r7, r8, pc}
 227              	.LVL17:
 228              	.L14:
  19:/mnt/c/Users/31740/Documents/codes/newcore-rp2350/lib/error.c ****         return (error_t*) -ENOMEM;
 229              		.loc 1 19 9 is_stmt 1 view .LVU60
 230              	.LBB26:
 231              	.LBI26:
 381:/mnt/c/Users/31740/Documents/codes/newcore-rp2350/include/linux/slab.h **** }
 382:/mnt/c/Users/31740/Documents/codes/newcore-rp2350/include/linux/slab.h **** 
 383:/mnt/c/Users/31740/Documents/codes/newcore-rp2350/include/linux/slab.h **** static void inline kfree(const void *ptr){
 232              		.loc 2 383 20 view .LVU61
 233              	.LBB27:
 384:/mnt/c/Users/31740/Documents/codes/newcore-rp2350/include/linux/slab.h **** 	__sfree__((void*)ptr);
 234              		.loc 2 384 2 view .LVU62
 235 005c 2046     		mov	r0, r4
 236 005e FFF7FEFF 		bl	__sfree__
 237              	.LVL18:
 238              		.loc 2 384 2 is_stmt 0 view .LVU63
 239              	.LBE27:
 240              	.LBE26:
  20:/mnt/c/Users/31740/Documents/codes/newcore-rp2350/lib/error.c ****     }
 241              		.loc 1 20 9 is_stmt 1 view .LVU64
  20:/mnt/c/Users/31740/Documents/codes/newcore-rp2350/lib/error.c ****     }
 242              		.loc 1 20 16 is_stmt 0 view .LVU65
 243 0062 6FF00B04 		mvn	r4, #11
 244              	.LVL19:
  20:/mnt/c/Users/31740/Documents/codes/newcore-rp2350/lib/error.c ****     }
 245              		.loc 1 20 16 view .LVU66
 246 0066 F6E7     		b	.L4
 247              	.LVL20:
 248              	.L15:
  24:/mnt/c/Users/31740/Documents/codes/newcore-rp2350/lib/error.c ****     int name_length = strlen(name);
 249              		.loc 1 24 27 discriminator 1 view .LVU67
 250 0068 064E     		ldr	r6, .L17
 251              	.LVL21:
  24:/mnt/c/Users/31740/Documents/codes/newcore-rp2350/lib/error.c ****     int name_length = strlen(name);
 252              		.loc 1 24 27 discriminator 1 view .LVU68
 253 006a E2E7     		b	.L8
 254              	.LVL22:
 255              	.L16:
  28:/mnt/c/Users/31740/Documents/codes/newcore-rp2350/lib/error.c ****         kfree(error);
 256              		.loc 1 28 9 is_stmt 1 view .LVU69
 257              	.LBB28:
 258              	.LBI28:
ARM GAS  /tmp/cczJPWbc.s 			page 14


 383:/mnt/c/Users/31740/Documents/codes/newcore-rp2350/include/linux/slab.h **** 	__sfree__((void*)ptr);
 259              		.loc 2 383 20 view .LVU70
 260              	.LBB29:
 261              		.loc 2 384 2 view .LVU71
 262 006c 6069     		ldr	r0, [r4, #20]
 263 006e FFF7FEFF 		bl	__sfree__
 264              	.LVL23:
 265              		.loc 2 384 2 is_stmt 0 view .LVU72
 266              	.LBE29:
 267              	.LBE28:
  29:/mnt/c/Users/31740/Documents/codes/newcore-rp2350/lib/error.c ****         return (error_t*)-ENOMEM;
 268              		.loc 1 29 9 is_stmt 1 view .LVU73
 269              	.LBB30:
 270              	.LBI30:
 383:/mnt/c/Users/31740/Documents/codes/newcore-rp2350/include/linux/slab.h **** 	__sfree__((void*)ptr);
 271              		.loc 2 383 20 view .LVU74
 272              	.LBB31:
 273              		.loc 2 384 2 view .LVU75
 274 0072 2046     		mov	r0, r4
 275 0074 FFF7FEFF 		bl	__sfree__
 276              	.LVL24:
 277              		.loc 2 384 2 is_stmt 0 view .LVU76
 278              	.LBE31:
 279              	.LBE30:
  30:/mnt/c/Users/31740/Documents/codes/newcore-rp2350/lib/error.c ****     }        
 280              		.loc 1 30 9 is_stmt 1 view .LVU77
  30:/mnt/c/Users/31740/Documents/codes/newcore-rp2350/lib/error.c ****     }        
 281              		.loc 1 30 16 is_stmt 0 view .LVU78
 282 0078 6FF00B04 		mvn	r4, #11
 283              	.LVL25:
  30:/mnt/c/Users/31740/Documents/codes/newcore-rp2350/lib/error.c ****     }        
 284              		.loc 1 30 16 view .LVU79
 285 007c EBE7     		b	.L4
 286              	.LVL26:
 287              	.L10:
  14:/mnt/c/Users/31740/Documents/codes/newcore-rp2350/lib/error.c ****  
 288              		.loc 1 14 29 discriminator 1 view .LVU80
 289 007e 024C     		ldr	r4, .L17+4
 290 0080 E9E7     		b	.L4
 291              	.L18:
 292 0082 00BF     		.align	2
 293              	.L17:
 294 0084 00000000 		.word	.LC0
 295 0088 01F0FFFF 		.word	-4095
 296              		.cfi_endproc
 297              	.LFE283:
 299              		.section	.text.l_delete_error,"ax",%progbits
 300              		.align	1
 301              		.global	l_delete_error
 302              		.syntax unified
 303              		.thumb
 304              		.thumb_func
 306              	l_delete_error:
 307              	.LVL27:
 308              	.LFB284:
  41:/mnt/c/Users/31740/Documents/codes/newcore-rp2350/lib/error.c ****     if(error == NULL) return;
 309              		.loc 1 41 1 is_stmt 1 view -0
ARM GAS  /tmp/cczJPWbc.s 			page 15


 310              		.cfi_startproc
 311              		@ args = 0, pretend = 0, frame = 0
 312              		@ frame_needed = 0, uses_anonymous_args = 0
  42:/mnt/c/Users/31740/Documents/codes/newcore-rp2350/lib/error.c ****     if(error->name != NULL) kfree(error->name);
 313              		.loc 1 42 5 view .LVU82
  42:/mnt/c/Users/31740/Documents/codes/newcore-rp2350/lib/error.c ****     if(error->name != NULL) kfree(error->name);
 314              		.loc 1 42 7 is_stmt 0 view .LVU83
 315 0000 68B1     		cbz	r0, .L24
  41:/mnt/c/Users/31740/Documents/codes/newcore-rp2350/lib/error.c ****     if(error == NULL) return;
 316              		.loc 1 41 1 view .LVU84
 317 0002 10B5     		push	{r4, lr}
 318              	.LCFI7:
 319              		.cfi_def_cfa_offset 8
 320              		.cfi_offset 4, -8
 321              		.cfi_offset 14, -4
 322 0004 0446     		mov	r4, r0
  43:/mnt/c/Users/31740/Documents/codes/newcore-rp2350/lib/error.c ****     if(error->errmsg != NULL) kfree(error->errmsg);
 323              		.loc 1 43 5 is_stmt 1 view .LVU85
  43:/mnt/c/Users/31740/Documents/codes/newcore-rp2350/lib/error.c ****     if(error->errmsg != NULL) kfree(error->errmsg);
 324              		.loc 1 43 13 is_stmt 0 view .LVU86
 325 0006 0068     		ldr	r0, [r0]
 326              	.LVL28:
  43:/mnt/c/Users/31740/Documents/codes/newcore-rp2350/lib/error.c ****     if(error->errmsg != NULL) kfree(error->errmsg);
 327              		.loc 1 43 7 view .LVU87
 328 0008 08B1     		cbz	r0, .L21
  43:/mnt/c/Users/31740/Documents/codes/newcore-rp2350/lib/error.c ****     if(error->errmsg != NULL) kfree(error->errmsg);
 329              		.loc 1 43 29 is_stmt 1 discriminator 1 view .LVU88
 330              	.LVL29:
 331              	.LBB32:
 332              	.LBI32:
 383:/mnt/c/Users/31740/Documents/codes/newcore-rp2350/include/linux/slab.h **** 	__sfree__((void*)ptr);
 333              		.loc 2 383 20 view .LVU89
 334              	.LBB33:
 335              		.loc 2 384 2 view .LVU90
 336 000a FFF7FEFF 		bl	__sfree__
 337              	.LVL30:
 338              	.L21:
 339              		.loc 2 384 2 is_stmt 0 view .LVU91
 340              	.LBE33:
 341              	.LBE32:
  44:/mnt/c/Users/31740/Documents/codes/newcore-rp2350/lib/error.c ****     kfree(error);
 342              		.loc 1 44 5 is_stmt 1 view .LVU92
  44:/mnt/c/Users/31740/Documents/codes/newcore-rp2350/lib/error.c ****     kfree(error);
 343              		.loc 1 44 13 is_stmt 0 view .LVU93
 344 000e 6069     		ldr	r0, [r4, #20]
  44:/mnt/c/Users/31740/Documents/codes/newcore-rp2350/lib/error.c ****     kfree(error);
 345              		.loc 1 44 7 view .LVU94
 346 0010 08B1     		cbz	r0, .L22
  44:/mnt/c/Users/31740/Documents/codes/newcore-rp2350/lib/error.c ****     kfree(error);
 347              		.loc 1 44 31 is_stmt 1 discriminator 1 view .LVU95
 348              	.LVL31:
 349              	.LBB34:
 350              	.LBI34:
 383:/mnt/c/Users/31740/Documents/codes/newcore-rp2350/include/linux/slab.h **** 	__sfree__((void*)ptr);
 351              		.loc 2 383 20 view .LVU96
 352              	.LBB35:
 353              		.loc 2 384 2 view .LVU97
ARM GAS  /tmp/cczJPWbc.s 			page 16


 354 0012 FFF7FEFF 		bl	__sfree__
 355              	.LVL32:
 356              	.L22:
 357              		.loc 2 384 2 is_stmt 0 view .LVU98
 358              	.LBE35:
 359              	.LBE34:
  45:/mnt/c/Users/31740/Documents/codes/newcore-rp2350/lib/error.c **** }
 360              		.loc 1 45 5 is_stmt 1 view .LVU99
 361              	.LBB36:
 362              	.LBI36:
 383:/mnt/c/Users/31740/Documents/codes/newcore-rp2350/include/linux/slab.h **** 	__sfree__((void*)ptr);
 363              		.loc 2 383 20 view .LVU100
 364              	.LBB37:
 365              		.loc 2 384 2 view .LVU101
 366 0016 2046     		mov	r0, r4
 367 0018 FFF7FEFF 		bl	__sfree__
 368              	.LVL33:
 369              		.loc 2 384 2 is_stmt 0 view .LVU102
 370              	.LBE37:
 371              	.LBE36:
  46:/mnt/c/Users/31740/Documents/codes/newcore-rp2350/lib/error.c **** 
 372              		.loc 1 46 1 view .LVU103
 373 001c 10BD     		pop	{r4, pc}
 374              	.LVL34:
 375              	.L24:
 376              	.LCFI8:
 377              		.cfi_def_cfa_offset 0
 378              		.cfi_restore 4
 379              		.cfi_restore 14
  46:/mnt/c/Users/31740/Documents/codes/newcore-rp2350/lib/error.c **** 
 380              		.loc 1 46 1 view .LVU104
 381 001e 7047     		bx	lr
 382              		.cfi_endproc
 383              	.LFE284:
 385              		.section	.rodata.l_output_error_message.str1.4,"aMS",%progbits,1
 386              		.align	2
 387              	.LC1:
 388 0000 2825752E 		.ascii	"(%u.%06u) (%d)[ \"%s\":(%d)] %s free memory size:%d"
 388      25303675 
 388      29202825 
 388      64295B20 
 388      22257322 
 389 0031 620A00   		.ascii	"b\012\000"
 390              		.section	.text.l_output_error_message,"ax",%progbits
 391              		.align	1
 392              		.global	l_output_error_message
 393              		.syntax unified
 394              		.thumb
 395              		.thumb_func
 397              	l_output_error_message:
 398              	.LVL35:
 399              	.LFB287:
  57:/mnt/c/Users/31740/Documents/codes/newcore-rp2350/lib/error.c **** 
  58:/mnt/c/Users/31740/Documents/codes/newcore-rp2350/lib/error.c **** extern size_t get_global_heap_size(void);
  59:/mnt/c/Users/31740/Documents/codes/newcore-rp2350/lib/error.c **** void l_error_exception(error_t *error, intptr_t errnum, int line, char *errmsg, ...) 
  60:/mnt/c/Users/31740/Documents/codes/newcore-rp2350/lib/error.c **** {
  61:/mnt/c/Users/31740/Documents/codes/newcore-rp2350/lib/error.c ****     if(error == NULL) return;
ARM GAS  /tmp/cczJPWbc.s 			page 17


  62:/mnt/c/Users/31740/Documents/codes/newcore-rp2350/lib/error.c ****     if(errnum >= 0) return;
  63:/mnt/c/Users/31740/Documents/codes/newcore-rp2350/lib/error.c ****     error->errnum = errnum;
  64:/mnt/c/Users/31740/Documents/codes/newcore-rp2350/lib/error.c ****     error->line = line;
  65:/mnt/c/Users/31740/Documents/codes/newcore-rp2350/lib/error.c ****     error->time = ktime_get();
  66:/mnt/c/Users/31740/Documents/codes/newcore-rp2350/lib/error.c ****     error->haper_size = get_global_heap_size();
  67:/mnt/c/Users/31740/Documents/codes/newcore-rp2350/lib/error.c ****     error->error_count++;
  68:/mnt/c/Users/31740/Documents/codes/newcore-rp2350/lib/error.c ****     if (errmsg != NULL) {
  69:/mnt/c/Users/31740/Documents/codes/newcore-rp2350/lib/error.c ****         va_list args;
  70:/mnt/c/Users/31740/Documents/codes/newcore-rp2350/lib/error.c ****         va_start(args, errmsg);
  71:/mnt/c/Users/31740/Documents/codes/newcore-rp2350/lib/error.c ****         vsnprintf(error->errmsg, error->errmsg_size, errmsg, args);
  72:/mnt/c/Users/31740/Documents/codes/newcore-rp2350/lib/error.c ****         va_end(args);
  73:/mnt/c/Users/31740/Documents/codes/newcore-rp2350/lib/error.c ****     } 
  74:/mnt/c/Users/31740/Documents/codes/newcore-rp2350/lib/error.c ****     else 
  75:/mnt/c/Users/31740/Documents/codes/newcore-rp2350/lib/error.c ****     {
  76:/mnt/c/Users/31740/Documents/codes/newcore-rp2350/lib/error.c ****         switch (errnum) {
  77:/mnt/c/Users/31740/Documents/codes/newcore-rp2350/lib/error.c ****             case -EPERM:
  78:/mnt/c/Users/31740/Documents/codes/newcore-rp2350/lib/error.c ****                 __write_error_message(error, "ERROR: EPERM: Operation not permitted");
  79:/mnt/c/Users/31740/Documents/codes/newcore-rp2350/lib/error.c ****                 break;
  80:/mnt/c/Users/31740/Documents/codes/newcore-rp2350/lib/error.c ****             case -ENOENT:
  81:/mnt/c/Users/31740/Documents/codes/newcore-rp2350/lib/error.c ****                 __write_error_message(error, "ERROR: ENOENT: No such file or directory");
  82:/mnt/c/Users/31740/Documents/codes/newcore-rp2350/lib/error.c ****                 break;
  83:/mnt/c/Users/31740/Documents/codes/newcore-rp2350/lib/error.c ****             case -ESRCH:
  84:/mnt/c/Users/31740/Documents/codes/newcore-rp2350/lib/error.c ****                 __write_error_message(error, "ERROR: ESRCH: No such process");
  85:/mnt/c/Users/31740/Documents/codes/newcore-rp2350/lib/error.c ****                 break;
  86:/mnt/c/Users/31740/Documents/codes/newcore-rp2350/lib/error.c ****             case -EINTR:
  87:/mnt/c/Users/31740/Documents/codes/newcore-rp2350/lib/error.c ****                 __write_error_message(error, "WARN: EINTR: Interrupted system call");
  88:/mnt/c/Users/31740/Documents/codes/newcore-rp2350/lib/error.c ****                 break;
  89:/mnt/c/Users/31740/Documents/codes/newcore-rp2350/lib/error.c ****             case -EIO:
  90:/mnt/c/Users/31740/Documents/codes/newcore-rp2350/lib/error.c ****                 __write_error_message(error, "ERROR: EIO: I/O error");
  91:/mnt/c/Users/31740/Documents/codes/newcore-rp2350/lib/error.c ****                 break;
  92:/mnt/c/Users/31740/Documents/codes/newcore-rp2350/lib/error.c ****             case -ENXIO:
  93:/mnt/c/Users/31740/Documents/codes/newcore-rp2350/lib/error.c ****                 __write_error_message(error, "ERROR: ENXIO: No such device or address");
  94:/mnt/c/Users/31740/Documents/codes/newcore-rp2350/lib/error.c ****                 break;
  95:/mnt/c/Users/31740/Documents/codes/newcore-rp2350/lib/error.c ****             case -E2BIG:
  96:/mnt/c/Users/31740/Documents/codes/newcore-rp2350/lib/error.c ****                 __write_error_message(error, "ERROR: E2BIG: Argument list too long");
  97:/mnt/c/Users/31740/Documents/codes/newcore-rp2350/lib/error.c ****                 break;
  98:/mnt/c/Users/31740/Documents/codes/newcore-rp2350/lib/error.c ****             case -ENOEXEC:
  99:/mnt/c/Users/31740/Documents/codes/newcore-rp2350/lib/error.c ****                 __write_error_message(error, "ERROR: ENOEXEC: Exec format error");
 100:/mnt/c/Users/31740/Documents/codes/newcore-rp2350/lib/error.c ****                 break;
 101:/mnt/c/Users/31740/Documents/codes/newcore-rp2350/lib/error.c ****             case -EBADF:
 102:/mnt/c/Users/31740/Documents/codes/newcore-rp2350/lib/error.c ****                 __write_error_message(error, "ERROR: EBADF: Bad file descriptor");
 103:/mnt/c/Users/31740/Documents/codes/newcore-rp2350/lib/error.c ****                 break;
 104:/mnt/c/Users/31740/Documents/codes/newcore-rp2350/lib/error.c ****             case -ECHILD:
 105:/mnt/c/Users/31740/Documents/codes/newcore-rp2350/lib/error.c ****                 __write_error_message(error, "ERROR: ECHILD: No child processes");
 106:/mnt/c/Users/31740/Documents/codes/newcore-rp2350/lib/error.c ****                 break;
 107:/mnt/c/Users/31740/Documents/codes/newcore-rp2350/lib/error.c ****             case -EAGAIN:
 108:/mnt/c/Users/31740/Documents/codes/newcore-rp2350/lib/error.c ****                 __write_error_message(error, "WARN: EAGAIN: Resource temporarily unavailable");
 109:/mnt/c/Users/31740/Documents/codes/newcore-rp2350/lib/error.c ****                 break;
 110:/mnt/c/Users/31740/Documents/codes/newcore-rp2350/lib/error.c ****             case -ENOMEM:
 111:/mnt/c/Users/31740/Documents/codes/newcore-rp2350/lib/error.c ****                 __write_error_message(error, "ERROR: ENOMEM: Out of memory");
 112:/mnt/c/Users/31740/Documents/codes/newcore-rp2350/lib/error.c ****                 break;
 113:/mnt/c/Users/31740/Documents/codes/newcore-rp2350/lib/error.c ****             case -EACCES:
 114:/mnt/c/Users/31740/Documents/codes/newcore-rp2350/lib/error.c ****                 __write_error_message(error, "ERROR: EACCES: Permission denied");
 115:/mnt/c/Users/31740/Documents/codes/newcore-rp2350/lib/error.c ****                 break;
 116:/mnt/c/Users/31740/Documents/codes/newcore-rp2350/lib/error.c ****             case -EFAULT:
 117:/mnt/c/Users/31740/Documents/codes/newcore-rp2350/lib/error.c ****                 __write_error_message(error, "ERROR: EFAULT: Bad address");
 118:/mnt/c/Users/31740/Documents/codes/newcore-rp2350/lib/error.c ****                 break;
ARM GAS  /tmp/cczJPWbc.s 			page 18


 119:/mnt/c/Users/31740/Documents/codes/newcore-rp2350/lib/error.c ****             case -ENOTBLK:
 120:/mnt/c/Users/31740/Documents/codes/newcore-rp2350/lib/error.c ****                 __write_error_message(error, "ERROR: ENOTBLK: Block device required");
 121:/mnt/c/Users/31740/Documents/codes/newcore-rp2350/lib/error.c ****                 break;
 122:/mnt/c/Users/31740/Documents/codes/newcore-rp2350/lib/error.c ****             case -EBUSY:
 123:/mnt/c/Users/31740/Documents/codes/newcore-rp2350/lib/error.c ****                 __write_error_message(error, "ERROR: EBUSY: Device or resource busy");
 124:/mnt/c/Users/31740/Documents/codes/newcore-rp2350/lib/error.c ****                 break;
 125:/mnt/c/Users/31740/Documents/codes/newcore-rp2350/lib/error.c ****             case -EEXIST:
 126:/mnt/c/Users/31740/Documents/codes/newcore-rp2350/lib/error.c ****                 __write_error_message(error, "ERROR: EEXIST: File exists");
 127:/mnt/c/Users/31740/Documents/codes/newcore-rp2350/lib/error.c ****                 break;
 128:/mnt/c/Users/31740/Documents/codes/newcore-rp2350/lib/error.c ****             case -EXDEV:
 129:/mnt/c/Users/31740/Documents/codes/newcore-rp2350/lib/error.c ****                 __write_error_message(error, "ERROR: EXDEV: Cross-device link");
 130:/mnt/c/Users/31740/Documents/codes/newcore-rp2350/lib/error.c ****                 break;
 131:/mnt/c/Users/31740/Documents/codes/newcore-rp2350/lib/error.c ****             case -ENODEV:
 132:/mnt/c/Users/31740/Documents/codes/newcore-rp2350/lib/error.c ****                 __write_error_message(error, "ERROR: ENODEV: No such device");
 133:/mnt/c/Users/31740/Documents/codes/newcore-rp2350/lib/error.c ****                 break;
 134:/mnt/c/Users/31740/Documents/codes/newcore-rp2350/lib/error.c ****             case -ENOTDIR:
 135:/mnt/c/Users/31740/Documents/codes/newcore-rp2350/lib/error.c ****                 __write_error_message(error, "ERROR: ENOTDIR: Not a directory");
 136:/mnt/c/Users/31740/Documents/codes/newcore-rp2350/lib/error.c ****                 break;
 137:/mnt/c/Users/31740/Documents/codes/newcore-rp2350/lib/error.c ****             case -EISDIR:
 138:/mnt/c/Users/31740/Documents/codes/newcore-rp2350/lib/error.c ****                 __write_error_message(error, "ERROR: EISDIR: Is a directory");
 139:/mnt/c/Users/31740/Documents/codes/newcore-rp2350/lib/error.c ****                 break;
 140:/mnt/c/Users/31740/Documents/codes/newcore-rp2350/lib/error.c ****             case -EINVAL:
 141:/mnt/c/Users/31740/Documents/codes/newcore-rp2350/lib/error.c ****                 __write_error_message(error, "ERROR: EINVAL: Invalid argument");
 142:/mnt/c/Users/31740/Documents/codes/newcore-rp2350/lib/error.c ****                 break;
 143:/mnt/c/Users/31740/Documents/codes/newcore-rp2350/lib/error.c ****             case -ENFILE:
 144:/mnt/c/Users/31740/Documents/codes/newcore-rp2350/lib/error.c ****                 __write_error_message(error, "ERROR: ENFILE: File table overflow");
 145:/mnt/c/Users/31740/Documents/codes/newcore-rp2350/lib/error.c ****                 break;
 146:/mnt/c/Users/31740/Documents/codes/newcore-rp2350/lib/error.c ****             case -EMFILE:
 147:/mnt/c/Users/31740/Documents/codes/newcore-rp2350/lib/error.c ****                 __write_error_message(error, "ERROR: EMFILE: Too many open files");
 148:/mnt/c/Users/31740/Documents/codes/newcore-rp2350/lib/error.c ****                 break;
 149:/mnt/c/Users/31740/Documents/codes/newcore-rp2350/lib/error.c ****             case -ENOTTY:
 150:/mnt/c/Users/31740/Documents/codes/newcore-rp2350/lib/error.c ****                 __write_error_message(error, "ERROR: ENOTTY: Not a terminal");
 151:/mnt/c/Users/31740/Documents/codes/newcore-rp2350/lib/error.c ****                 break;
 152:/mnt/c/Users/31740/Documents/codes/newcore-rp2350/lib/error.c ****             case -ETXTBSY:
 153:/mnt/c/Users/31740/Documents/codes/newcore-rp2350/lib/error.c ****                 __write_error_message(error, "ERROR: ETXTBSY: Text file busy");
 154:/mnt/c/Users/31740/Documents/codes/newcore-rp2350/lib/error.c ****                 break;
 155:/mnt/c/Users/31740/Documents/codes/newcore-rp2350/lib/error.c ****             case -EFBIG:
 156:/mnt/c/Users/31740/Documents/codes/newcore-rp2350/lib/error.c ****                 __write_error_message(error, "ERROR: EFBIG: File too large");
 157:/mnt/c/Users/31740/Documents/codes/newcore-rp2350/lib/error.c ****                 break;
 158:/mnt/c/Users/31740/Documents/codes/newcore-rp2350/lib/error.c ****             case -ENOSPC:
 159:/mnt/c/Users/31740/Documents/codes/newcore-rp2350/lib/error.c ****                 __write_error_message(error, "ERROR: ENOSPC: No space left on device");
 160:/mnt/c/Users/31740/Documents/codes/newcore-rp2350/lib/error.c ****                 break;
 161:/mnt/c/Users/31740/Documents/codes/newcore-rp2350/lib/error.c ****             case -ESPIPE:
 162:/mnt/c/Users/31740/Documents/codes/newcore-rp2350/lib/error.c ****                 __write_error_message(error, "ERROR: ESPIPE: Illegal seek");
 163:/mnt/c/Users/31740/Documents/codes/newcore-rp2350/lib/error.c ****                 break;
 164:/mnt/c/Users/31740/Documents/codes/newcore-rp2350/lib/error.c ****             case -EROFS:
 165:/mnt/c/Users/31740/Documents/codes/newcore-rp2350/lib/error.c ****                 __write_error_message(error, "ERROR: EROFS: Read-only file system");
 166:/mnt/c/Users/31740/Documents/codes/newcore-rp2350/lib/error.c ****                 break;
 167:/mnt/c/Users/31740/Documents/codes/newcore-rp2350/lib/error.c ****             case -EMLINK:
 168:/mnt/c/Users/31740/Documents/codes/newcore-rp2350/lib/error.c ****                 __write_error_message(error, "ERROR: EMLINK: Too many links");
 169:/mnt/c/Users/31740/Documents/codes/newcore-rp2350/lib/error.c ****                 break;
 170:/mnt/c/Users/31740/Documents/codes/newcore-rp2350/lib/error.c ****             case -EPIPE:
 171:/mnt/c/Users/31740/Documents/codes/newcore-rp2350/lib/error.c ****                 __write_error_message(error, "ERROR: EPIPE: Broken pipe");
 172:/mnt/c/Users/31740/Documents/codes/newcore-rp2350/lib/error.c ****                 break;
 173:/mnt/c/Users/31740/Documents/codes/newcore-rp2350/lib/error.c ****             case -EDOM:
 174:/mnt/c/Users/31740/Documents/codes/newcore-rp2350/lib/error.c ****                 __write_error_message(error, "ERROR: EDOM: Math argument out of domain");
 175:/mnt/c/Users/31740/Documents/codes/newcore-rp2350/lib/error.c ****                 break;
ARM GAS  /tmp/cczJPWbc.s 			page 19


 176:/mnt/c/Users/31740/Documents/codes/newcore-rp2350/lib/error.c ****             case -ERANGE:
 177:/mnt/c/Users/31740/Documents/codes/newcore-rp2350/lib/error.c ****                 __write_error_message(error, "ERROR: ERANGE: Math result not representable");
 178:/mnt/c/Users/31740/Documents/codes/newcore-rp2350/lib/error.c ****                 break;
 179:/mnt/c/Users/31740/Documents/codes/newcore-rp2350/lib/error.c ****         
 180:/mnt/c/Users/31740/Documents/codes/newcore-rp2350/lib/error.c ****             /*  (from errno.h) */
 181:/mnt/c/Users/31740/Documents/codes/newcore-rp2350/lib/error.c ****             case -EDEADLK:
 182:/mnt/c/Users/31740/Documents/codes/newcore-rp2350/lib/error.c ****                 __write_error_message(error, "ERROR: EDEADLK: Resource deadlock would occur");
 183:/mnt/c/Users/31740/Documents/codes/newcore-rp2350/lib/error.c ****                 break;
 184:/mnt/c/Users/31740/Documents/codes/newcore-rp2350/lib/error.c ****             case -ENAMETOOLONG:
 185:/mnt/c/Users/31740/Documents/codes/newcore-rp2350/lib/error.c ****                 __write_error_message(error, "ERROR: ENAMETOOLONG: File name too long");
 186:/mnt/c/Users/31740/Documents/codes/newcore-rp2350/lib/error.c ****                 break;
 187:/mnt/c/Users/31740/Documents/codes/newcore-rp2350/lib/error.c ****             case -ENOLCK:
 188:/mnt/c/Users/31740/Documents/codes/newcore-rp2350/lib/error.c ****                 __write_error_message(error, "ERROR: ENOLCK: No record locks available");
 189:/mnt/c/Users/31740/Documents/codes/newcore-rp2350/lib/error.c ****                 break;
 190:/mnt/c/Users/31740/Documents/codes/newcore-rp2350/lib/error.c ****             case -ENOSYS:
 191:/mnt/c/Users/31740/Documents/codes/newcore-rp2350/lib/error.c ****                 __write_error_message(error, "ERROR: ENOSYS: Function not implemented");
 192:/mnt/c/Users/31740/Documents/codes/newcore-rp2350/lib/error.c ****                 break;
 193:/mnt/c/Users/31740/Documents/codes/newcore-rp2350/lib/error.c ****             case -ENOTEMPTY:
 194:/mnt/c/Users/31740/Documents/codes/newcore-rp2350/lib/error.c ****                 __write_error_message(error, "ERROR: ENOTEMPTY: Directory not empty");
 195:/mnt/c/Users/31740/Documents/codes/newcore-rp2350/lib/error.c ****                 break;
 196:/mnt/c/Users/31740/Documents/codes/newcore-rp2350/lib/error.c ****             case -ELOOP:
 197:/mnt/c/Users/31740/Documents/codes/newcore-rp2350/lib/error.c ****                 __write_error_message(error, "ERROR: ELOOP: Too many symbolic links encountered");
 198:/mnt/c/Users/31740/Documents/codes/newcore-rp2350/lib/error.c ****                 break;
 199:/mnt/c/Users/31740/Documents/codes/newcore-rp2350/lib/error.c ****             /*  */
 200:/mnt/c/Users/31740/Documents/codes/newcore-rp2350/lib/error.c ****             case -ENOTSOCK:
 201:/mnt/c/Users/31740/Documents/codes/newcore-rp2350/lib/error.c ****                 __write_error_message(error, "ERROR: ENOTSOCK: Socket operation on non-socket");
 202:/mnt/c/Users/31740/Documents/codes/newcore-rp2350/lib/error.c ****                 break;
 203:/mnt/c/Users/31740/Documents/codes/newcore-rp2350/lib/error.c ****             case -EDESTADDRREQ:
 204:/mnt/c/Users/31740/Documents/codes/newcore-rp2350/lib/error.c ****                 __write_error_message(error, "ERROR: EDESTADDRREQ: Destination address required");
 205:/mnt/c/Users/31740/Documents/codes/newcore-rp2350/lib/error.c ****                 break;
 206:/mnt/c/Users/31740/Documents/codes/newcore-rp2350/lib/error.c ****             case -EMSGSIZE:
 207:/mnt/c/Users/31740/Documents/codes/newcore-rp2350/lib/error.c ****                 __write_error_message(error, "ERROR: EMSGSIZE: Message too long");
 208:/mnt/c/Users/31740/Documents/codes/newcore-rp2350/lib/error.c ****                 break;
 209:/mnt/c/Users/31740/Documents/codes/newcore-rp2350/lib/error.c ****             case -EPROTOTYPE:
 210:/mnt/c/Users/31740/Documents/codes/newcore-rp2350/lib/error.c ****                 __write_error_message(error, "ERROR: EPROTOTYPE: Protocol wrong type for socket");
 211:/mnt/c/Users/31740/Documents/codes/newcore-rp2350/lib/error.c ****                 break;
 212:/mnt/c/Users/31740/Documents/codes/newcore-rp2350/lib/error.c ****             case -ENOPROTOOPT:
 213:/mnt/c/Users/31740/Documents/codes/newcore-rp2350/lib/error.c ****                 __write_error_message(error, "ERROR: ENOPROTOOPT: Protocol not available");
 214:/mnt/c/Users/31740/Documents/codes/newcore-rp2350/lib/error.c ****                 break;
 215:/mnt/c/Users/31740/Documents/codes/newcore-rp2350/lib/error.c ****             case -EPROTONOSUPPORT:
 216:/mnt/c/Users/31740/Documents/codes/newcore-rp2350/lib/error.c ****                 __write_error_message(error, "ERROR: EPROTONOSUPPORT: Protocol not supported");
 217:/mnt/c/Users/31740/Documents/codes/newcore-rp2350/lib/error.c ****                 break;
 218:/mnt/c/Users/31740/Documents/codes/newcore-rp2350/lib/error.c ****             case -ESOCKTNOSUPPORT:
 219:/mnt/c/Users/31740/Documents/codes/newcore-rp2350/lib/error.c ****                 __write_error_message(error, "ERROR: ESOCKTNOSUPPORT: Socket type not supported");
 220:/mnt/c/Users/31740/Documents/codes/newcore-rp2350/lib/error.c ****                 break;
 221:/mnt/c/Users/31740/Documents/codes/newcore-rp2350/lib/error.c ****             case -EOPNOTSUPP:
 222:/mnt/c/Users/31740/Documents/codes/newcore-rp2350/lib/error.c ****                 __write_error_message(error, "ERROR: EOPNOTSUPP: Operation not supported");
 223:/mnt/c/Users/31740/Documents/codes/newcore-rp2350/lib/error.c ****                 break;
 224:/mnt/c/Users/31740/Documents/codes/newcore-rp2350/lib/error.c ****             case -EPFNOSUPPORT:
 225:/mnt/c/Users/31740/Documents/codes/newcore-rp2350/lib/error.c ****                 __write_error_message(error, "ERROR: EPFNOSUPPORT: Protocol family not supported");
 226:/mnt/c/Users/31740/Documents/codes/newcore-rp2350/lib/error.c ****                 break;
 227:/mnt/c/Users/31740/Documents/codes/newcore-rp2350/lib/error.c ****             case -EAFNOSUPPORT:
 228:/mnt/c/Users/31740/Documents/codes/newcore-rp2350/lib/error.c ****                 __write_error_message(error, "ERROR: EAFNOSUPPORT: Address family not supported");
 229:/mnt/c/Users/31740/Documents/codes/newcore-rp2350/lib/error.c ****                 break;
 230:/mnt/c/Users/31740/Documents/codes/newcore-rp2350/lib/error.c ****             case -EADDRINUSE:
 231:/mnt/c/Users/31740/Documents/codes/newcore-rp2350/lib/error.c ****                 __write_error_message(error, "ERROR: EADDRINUSE: Address already in use");
 232:/mnt/c/Users/31740/Documents/codes/newcore-rp2350/lib/error.c ****                 break;
ARM GAS  /tmp/cczJPWbc.s 			page 20


 233:/mnt/c/Users/31740/Documents/codes/newcore-rp2350/lib/error.c ****             case -EADDRNOTAVAIL:
 234:/mnt/c/Users/31740/Documents/codes/newcore-rp2350/lib/error.c ****                 __write_error_message(error, "ERROR: EADDRNOTAVAIL: Cannot assign requested address
 235:/mnt/c/Users/31740/Documents/codes/newcore-rp2350/lib/error.c ****                 break;
 236:/mnt/c/Users/31740/Documents/codes/newcore-rp2350/lib/error.c ****             case -ENETDOWN:
 237:/mnt/c/Users/31740/Documents/codes/newcore-rp2350/lib/error.c ****                 __write_error_message(error, "ERROR: ENETDOWN: Network is down");
 238:/mnt/c/Users/31740/Documents/codes/newcore-rp2350/lib/error.c ****                 break;
 239:/mnt/c/Users/31740/Documents/codes/newcore-rp2350/lib/error.c ****             case -ENETUNREACH:
 240:/mnt/c/Users/31740/Documents/codes/newcore-rp2350/lib/error.c ****                 __write_error_message(error, "ERROR: ENETUNREACH: Network is unreachable");
 241:/mnt/c/Users/31740/Documents/codes/newcore-rp2350/lib/error.c ****                 break;
 242:/mnt/c/Users/31740/Documents/codes/newcore-rp2350/lib/error.c ****             case -ENETRESET:
 243:/mnt/c/Users/31740/Documents/codes/newcore-rp2350/lib/error.c ****                 __write_error_message(error, "ERROR: ENETRESET: Network dropped connection on reset
 244:/mnt/c/Users/31740/Documents/codes/newcore-rp2350/lib/error.c ****                 break;
 245:/mnt/c/Users/31740/Documents/codes/newcore-rp2350/lib/error.c ****             case -ECONNABORTED:
 246:/mnt/c/Users/31740/Documents/codes/newcore-rp2350/lib/error.c ****                 __write_error_message(error, "ERROR: ECONNABORTED: Software caused connection abort
 247:/mnt/c/Users/31740/Documents/codes/newcore-rp2350/lib/error.c ****                 break;
 248:/mnt/c/Users/31740/Documents/codes/newcore-rp2350/lib/error.c ****             case -ECONNRESET:
 249:/mnt/c/Users/31740/Documents/codes/newcore-rp2350/lib/error.c ****                 __write_error_message(error, "ERROR: ECONNRESET: Connection reset by peer");
 250:/mnt/c/Users/31740/Documents/codes/newcore-rp2350/lib/error.c ****                 break;
 251:/mnt/c/Users/31740/Documents/codes/newcore-rp2350/lib/error.c ****             case -ENOBUFS:
 252:/mnt/c/Users/31740/Documents/codes/newcore-rp2350/lib/error.c ****                 __write_error_message(error, "ERROR: ENOBUFS: No buffer space available");
 253:/mnt/c/Users/31740/Documents/codes/newcore-rp2350/lib/error.c ****                 break;
 254:/mnt/c/Users/31740/Documents/codes/newcore-rp2350/lib/error.c ****             case -EISCONN:
 255:/mnt/c/Users/31740/Documents/codes/newcore-rp2350/lib/error.c ****                 __write_error_message(error, "ERROR: EISCONN: Transport endpoint is already connect
 256:/mnt/c/Users/31740/Documents/codes/newcore-rp2350/lib/error.c ****                 break;
 257:/mnt/c/Users/31740/Documents/codes/newcore-rp2350/lib/error.c ****             case -ENOTCONN:
 258:/mnt/c/Users/31740/Documents/codes/newcore-rp2350/lib/error.c ****                 __write_error_message(error, "ERROR: ENOTCONN: Transport endpoint is not connected"
 259:/mnt/c/Users/31740/Documents/codes/newcore-rp2350/lib/error.c ****                 break;
 260:/mnt/c/Users/31740/Documents/codes/newcore-rp2350/lib/error.c ****             case -ESHUTDOWN:
 261:/mnt/c/Users/31740/Documents/codes/newcore-rp2350/lib/error.c ****                 __write_error_message(error, "ERROR: ESHUTDOWN: Cannot send after transport endpoin
 262:/mnt/c/Users/31740/Documents/codes/newcore-rp2350/lib/error.c ****                 break;
 263:/mnt/c/Users/31740/Documents/codes/newcore-rp2350/lib/error.c ****             case -ETOOMANYREFS:
 264:/mnt/c/Users/31740/Documents/codes/newcore-rp2350/lib/error.c ****                 __write_error_message(error, "ERROR: ETOOMANYREFS: Too many references");
 265:/mnt/c/Users/31740/Documents/codes/newcore-rp2350/lib/error.c ****                 break;
 266:/mnt/c/Users/31740/Documents/codes/newcore-rp2350/lib/error.c ****             case -ETIMEDOUT:
 267:/mnt/c/Users/31740/Documents/codes/newcore-rp2350/lib/error.c ****                 __write_error_message(error, "ERROR: ETIMEDOUT: Connection timed out");
 268:/mnt/c/Users/31740/Documents/codes/newcore-rp2350/lib/error.c ****                 break;
 269:/mnt/c/Users/31740/Documents/codes/newcore-rp2350/lib/error.c ****             case -ECONNREFUSED:
 270:/mnt/c/Users/31740/Documents/codes/newcore-rp2350/lib/error.c ****                 __write_error_message(error, "ERROR: ECONNREFUSED: Connection refused");
 271:/mnt/c/Users/31740/Documents/codes/newcore-rp2350/lib/error.c ****                 break;
 272:/mnt/c/Users/31740/Documents/codes/newcore-rp2350/lib/error.c ****             case -EHOSTDOWN:
 273:/mnt/c/Users/31740/Documents/codes/newcore-rp2350/lib/error.c ****                 __write_error_message(error, "ERROR: EHOSTDOWN: Host is down");
 274:/mnt/c/Users/31740/Documents/codes/newcore-rp2350/lib/error.c ****                 break;
 275:/mnt/c/Users/31740/Documents/codes/newcore-rp2350/lib/error.c ****             case -EHOSTUNREACH:
 276:/mnt/c/Users/31740/Documents/codes/newcore-rp2350/lib/error.c ****                 __write_error_message(error, "ERROR: EHOSTUNREACH: No route to host");
 277:/mnt/c/Users/31740/Documents/codes/newcore-rp2350/lib/error.c ****                 break;
 278:/mnt/c/Users/31740/Documents/codes/newcore-rp2350/lib/error.c ****             /*  */
 279:/mnt/c/Users/31740/Documents/codes/newcore-rp2350/lib/error.c ****             case -EALREADY:
 280:/mnt/c/Users/31740/Documents/codes/newcore-rp2350/lib/error.c ****                 __write_error_message(error, "INFO: EALREADY: Operation already in progress");
 281:/mnt/c/Users/31740/Documents/codes/newcore-rp2350/lib/error.c ****                 break;
 282:/mnt/c/Users/31740/Documents/codes/newcore-rp2350/lib/error.c ****             case -EINPROGRESS:
 283:/mnt/c/Users/31740/Documents/codes/newcore-rp2350/lib/error.c ****                 __write_error_message(error, "INFO: EINPROGRESS: Operation now in progress");
 284:/mnt/c/Users/31740/Documents/codes/newcore-rp2350/lib/error.c ****                 break;
 285:/mnt/c/Users/31740/Documents/codes/newcore-rp2350/lib/error.c ****             case -ESTALE:
 286:/mnt/c/Users/31740/Documents/codes/newcore-rp2350/lib/error.c ****                 __write_error_message(error, "ERROR: ESTALE: Stale file handle");
 287:/mnt/c/Users/31740/Documents/codes/newcore-rp2350/lib/error.c ****                 break;
 288:/mnt/c/Users/31740/Documents/codes/newcore-rp2350/lib/error.c ****             case -EUCLEAN:
 289:/mnt/c/Users/31740/Documents/codes/newcore-rp2350/lib/error.c ****                 __write_error_message(error, "ERROR: EUCLEAN: Structure needs cleaning");
ARM GAS  /tmp/cczJPWbc.s 			page 21


 290:/mnt/c/Users/31740/Documents/codes/newcore-rp2350/lib/error.c ****                 break;
 291:/mnt/c/Users/31740/Documents/codes/newcore-rp2350/lib/error.c ****             case -ENOTNAM:
 292:/mnt/c/Users/31740/Documents/codes/newcore-rp2350/lib/error.c ****                 __write_error_message(error, "ERROR: ENOTNAM: Not a XENIX named type file");
 293:/mnt/c/Users/31740/Documents/codes/newcore-rp2350/lib/error.c ****                 break;
 294:/mnt/c/Users/31740/Documents/codes/newcore-rp2350/lib/error.c ****             case -ENAVAIL:
 295:/mnt/c/Users/31740/Documents/codes/newcore-rp2350/lib/error.c ****                 __write_error_message(error, "ERROR: ENAVAIL: No XENIX semaphores available");
 296:/mnt/c/Users/31740/Documents/codes/newcore-rp2350/lib/error.c ****                 break;
 297:/mnt/c/Users/31740/Documents/codes/newcore-rp2350/lib/error.c ****             case -EISNAM:
 298:/mnt/c/Users/31740/Documents/codes/newcore-rp2350/lib/error.c ****                 __write_error_message(error, "ERROR: EISNAM: Is a named type file");
 299:/mnt/c/Users/31740/Documents/codes/newcore-rp2350/lib/error.c ****                 break;
 300:/mnt/c/Users/31740/Documents/codes/newcore-rp2350/lib/error.c ****             case -EREMOTEIO:
 301:/mnt/c/Users/31740/Documents/codes/newcore-rp2350/lib/error.c ****                 __write_error_message(error, "ERROR: EREMOTEIO: Remote I/O error");
 302:/mnt/c/Users/31740/Documents/codes/newcore-rp2350/lib/error.c ****                 break;
 303:/mnt/c/Users/31740/Documents/codes/newcore-rp2350/lib/error.c ****             case -EDQUOT:
 304:/mnt/c/Users/31740/Documents/codes/newcore-rp2350/lib/error.c ****                 __write_error_message(error, "ERROR: EDQUOT: Disk quota exceeded");
 305:/mnt/c/Users/31740/Documents/codes/newcore-rp2350/lib/error.c ****                 break;
 306:/mnt/c/Users/31740/Documents/codes/newcore-rp2350/lib/error.c ****             case -ENOMEDIUM:
 307:/mnt/c/Users/31740/Documents/codes/newcore-rp2350/lib/error.c ****                 __write_error_message(error, "ERROR: ENOMEDIUM: No medium found");
 308:/mnt/c/Users/31740/Documents/codes/newcore-rp2350/lib/error.c ****                 break;
 309:/mnt/c/Users/31740/Documents/codes/newcore-rp2350/lib/error.c ****             case -EMEDIUMTYPE:
 310:/mnt/c/Users/31740/Documents/codes/newcore-rp2350/lib/error.c ****                 __write_error_message(error, "ERROR: EMEDIUMTYPE: Wrong medium type");
 311:/mnt/c/Users/31740/Documents/codes/newcore-rp2350/lib/error.c ****                 break;
 312:/mnt/c/Users/31740/Documents/codes/newcore-rp2350/lib/error.c ****             case -ECANCELED:
 313:/mnt/c/Users/31740/Documents/codes/newcore-rp2350/lib/error.c ****                 __write_error_message(error, "WARN: ECANCELED: Operation canceled");
 314:/mnt/c/Users/31740/Documents/codes/newcore-rp2350/lib/error.c ****                 break;
 315:/mnt/c/Users/31740/Documents/codes/newcore-rp2350/lib/error.c ****             case -ENOKEY:
 316:/mnt/c/Users/31740/Documents/codes/newcore-rp2350/lib/error.c ****                 __write_error_message(error, "ERROR: ENOKEY: Required key not available");
 317:/mnt/c/Users/31740/Documents/codes/newcore-rp2350/lib/error.c ****                 break;
 318:/mnt/c/Users/31740/Documents/codes/newcore-rp2350/lib/error.c ****             case -EKEYEXPIRED:
 319:/mnt/c/Users/31740/Documents/codes/newcore-rp2350/lib/error.c ****                 __write_error_message(error, "ERROR: EKEYEXPIRED: Key has expired");
 320:/mnt/c/Users/31740/Documents/codes/newcore-rp2350/lib/error.c ****                 break;
 321:/mnt/c/Users/31740/Documents/codes/newcore-rp2350/lib/error.c ****             case -EKEYREVOKED:
 322:/mnt/c/Users/31740/Documents/codes/newcore-rp2350/lib/error.c ****                 __write_error_message(error, "ERROR: EKEYREVOKED: Key has been revoked");
 323:/mnt/c/Users/31740/Documents/codes/newcore-rp2350/lib/error.c ****                 break;
 324:/mnt/c/Users/31740/Documents/codes/newcore-rp2350/lib/error.c ****             case -EKEYREJECTED:
 325:/mnt/c/Users/31740/Documents/codes/newcore-rp2350/lib/error.c ****                 __write_error_message(error, "ERROR: EKEYREJECTED: Key was rejected by service");
 326:/mnt/c/Users/31740/Documents/codes/newcore-rp2350/lib/error.c ****                 break;
 327:/mnt/c/Users/31740/Documents/codes/newcore-rp2350/lib/error.c ****             case -EOWNERDEAD:
 328:/mnt/c/Users/31740/Documents/codes/newcore-rp2350/lib/error.c ****                 __write_error_message(error, "ERROR: EOWNERDEAD: Owner died");
 329:/mnt/c/Users/31740/Documents/codes/newcore-rp2350/lib/error.c ****                 break;
 330:/mnt/c/Users/31740/Documents/codes/newcore-rp2350/lib/error.c ****             case -ENOTRECOVERABLE:
 331:/mnt/c/Users/31740/Documents/codes/newcore-rp2350/lib/error.c ****                 __write_error_message(error, "ERROR: ENOTRECOVERABLE: State not recoverable");
 332:/mnt/c/Users/31740/Documents/codes/newcore-rp2350/lib/error.c ****                 break;
 333:/mnt/c/Users/31740/Documents/codes/newcore-rp2350/lib/error.c ****             case -ERFKILL:
 334:/mnt/c/Users/31740/Documents/codes/newcore-rp2350/lib/error.c ****                 __write_error_message(error, "ERROR: ERFKILL: Operation not possible due to RF-kill
 335:/mnt/c/Users/31740/Documents/codes/newcore-rp2350/lib/error.c ****                 break;
 336:/mnt/c/Users/31740/Documents/codes/newcore-rp2350/lib/error.c ****             case -EHWPOISON:
 337:/mnt/c/Users/31740/Documents/codes/newcore-rp2350/lib/error.c ****                 __write_error_message(error, "ERROR: EHWPOISON: Memory page has hardware error");
 338:/mnt/c/Users/31740/Documents/codes/newcore-rp2350/lib/error.c ****                 break;
 339:/mnt/c/Users/31740/Documents/codes/newcore-rp2350/lib/error.c ****             default:
 340:/mnt/c/Users/31740/Documents/codes/newcore-rp2350/lib/error.c ****                 __write_error_message(error, "ERROR: Unknown error code");
 341:/mnt/c/Users/31740/Documents/codes/newcore-rp2350/lib/error.c ****                 break;
 342:/mnt/c/Users/31740/Documents/codes/newcore-rp2350/lib/error.c ****         }
 343:/mnt/c/Users/31740/Documents/codes/newcore-rp2350/lib/error.c ****     }
 344:/mnt/c/Users/31740/Documents/codes/newcore-rp2350/lib/error.c ****     if (error->mode == ERROR_SAVE_ONLY) {
 345:/mnt/c/Users/31740/Documents/codes/newcore-rp2350/lib/error.c ****         return;
 346:/mnt/c/Users/31740/Documents/codes/newcore-rp2350/lib/error.c ****     }
ARM GAS  /tmp/cczJPWbc.s 			page 22


 347:/mnt/c/Users/31740/Documents/codes/newcore-rp2350/lib/error.c ****     if (error->mode == ERROR_SAVE_AND_PRINT_TO_LOG || error->mode == ERROR_SAVE_AND_BLOCK) {
 348:/mnt/c/Users/31740/Documents/codes/newcore-rp2350/lib/error.c ****         l_output_error_message(error,NULL,0,printk);
 349:/mnt/c/Users/31740/Documents/codes/newcore-rp2350/lib/error.c ****     }
 350:/mnt/c/Users/31740/Documents/codes/newcore-rp2350/lib/error.c ****     if (error->mode == ERROR_SAVE_AND_BLOCK) 
 351:/mnt/c/Users/31740/Documents/codes/newcore-rp2350/lib/error.c ****     {
 352:/mnt/c/Users/31740/Documents/codes/newcore-rp2350/lib/error.c ****         while (1);
 353:/mnt/c/Users/31740/Documents/codes/newcore-rp2350/lib/error.c ****     }
 354:/mnt/c/Users/31740/Documents/codes/newcore-rp2350/lib/error.c ****     return;
 355:/mnt/c/Users/31740/Documents/codes/newcore-rp2350/lib/error.c **** }
 356:/mnt/c/Users/31740/Documents/codes/newcore-rp2350/lib/error.c **** 
 357:/mnt/c/Users/31740/Documents/codes/newcore-rp2350/lib/error.c **** 
 358:/mnt/c/Users/31740/Documents/codes/newcore-rp2350/lib/error.c **** int l_output_error_message(error_t *error,char *buffer,int buffer_size,void (out_function)(char *,.
 359:/mnt/c/Users/31740/Documents/codes/newcore-rp2350/lib/error.c **** {
 400              		.loc 1 359 1 is_stmt 1 view -0
 401              		.cfi_startproc
 402              		@ args = 0, pretend = 0, frame = 0
 403              		@ frame_needed = 0, uses_anonymous_args = 0
 360:/mnt/c/Users/31740/Documents/codes/newcore-rp2350/lib/error.c ****     if(error == NULL) return -1;
 404              		.loc 1 360 5 view .LVU106
 405              		.loc 1 360 7 is_stmt 0 view .LVU107
 406 0000 0028     		cmp	r0, #0
 407 0002 39D0     		beq	.L31
 359:/mnt/c/Users/31740/Documents/codes/newcore-rp2350/lib/error.c ****     if(error == NULL) return -1;
 408              		.loc 1 359 1 view .LVU108
 409 0004 70B5     		push	{r4, r5, r6, lr}
 410              	.LCFI9:
 411              		.cfi_def_cfa_offset 16
 412              		.cfi_offset 4, -16
 413              		.cfi_offset 5, -12
 414              		.cfi_offset 6, -8
 415              		.cfi_offset 14, -4
 416 0006 86B0     		sub	sp, sp, #24
 417              	.LCFI10:
 418              		.cfi_def_cfa_offset 40
 419 0008 0D46     		mov	r5, r1
 420 000a 1146     		mov	r1, r2
 421              	.LVL36:
 359:/mnt/c/Users/31740/Documents/codes/newcore-rp2350/lib/error.c ****     if(error == NULL) return -1;
 422              		.loc 1 359 1 view .LVU109
 423 000c 1E46     		mov	r6, r3
 424 000e 0446     		mov	r4, r0
 361:/mnt/c/Users/31740/Documents/codes/newcore-rp2350/lib/error.c ****     if(buffer != NULL)
 425              		.loc 1 361 5 is_stmt 1 view .LVU110
 426              		.loc 1 361 7 is_stmt 0 view .LVU111
 427 0010 DDB1     		cbz	r5, .L29
 428              	.LBB38:
 362:/mnt/c/Users/31740/Documents/codes/newcore-rp2350/lib/error.c ****     {
 363:/mnt/c/Users/31740/Documents/codes/newcore-rp2350/lib/error.c ****         uint32_t sec  = error->time / HZ;
 429              		.loc 1 363 9 is_stmt 1 view .LVU112
 430              		.loc 1 363 30 is_stmt 0 view .LVU113
 431 0012 8068     		ldr	r0, [r0, #8]
 432              	.LVL37:
 433              		.loc 1 363 37 view .LVU114
 434 0014 1A4B     		ldr	r3, .L36
 435              	.LVL38:
 436              		.loc 1 363 37 view .LVU115
 437 0016 1A68     		ldr	r2, [r3]
ARM GAS  /tmp/cczJPWbc.s 			page 23


 438              	.LVL39:
 439              		.loc 1 363 18 view .LVU116
 440 0018 B0FBF2F3 		udiv	r3, r0, r2
 441              	.LVL40:
 364:/mnt/c/Users/31740/Documents/codes/newcore-rp2350/lib/error.c ****         uint32_t nsec = error->time % HZ;
 442              		.loc 1 364 9 is_stmt 1 view .LVU117
 443              		.loc 1 364 18 is_stmt 0 view .LVU118
 444 001c 02FB1300 		mls	r0, r2, r3, r0
 445              	.LVL41:
 365:/mnt/c/Users/31740/Documents/codes/newcore-rp2350/lib/error.c ****         int len = snprintf(buffer, buffer_size, "(%u.%06u) (%d)[ \"%s\":(%d)] %s free memory size:%
 446              		.loc 1 365 9 is_stmt 1 view .LVU119
 447              		.loc 1 365 19 is_stmt 0 view .LVU120
 448 0020 626A     		ldr	r2, [r4, #36]
 449 0022 0592     		str	r2, [sp, #20]
 450 0024 6269     		ldr	r2, [r4, #20]
 451 0026 0492     		str	r2, [sp, #16]
 452 0028 E268     		ldr	r2, [r4, #12]
 453 002a 0392     		str	r2, [sp, #12]
 454 002c 2268     		ldr	r2, [r4]
 455 002e 0292     		str	r2, [sp, #8]
 456 0030 A269     		ldr	r2, [r4, #24]
 457 0032 0192     		str	r2, [sp, #4]
 458 0034 0090     		str	r0, [sp]
 459 0036 134A     		ldr	r2, .L36+4
 460 0038 2846     		mov	r0, r5
 461              	.LVL42:
 462              		.loc 1 365 19 view .LVU121
 463 003a FFF7FEFF 		bl	snprintf
 464              	.LVL43:
 366:/mnt/c/Users/31740/Documents/codes/newcore-rp2350/lib/error.c ****         if(len >= error->errmsg_size) return -1;
 465              		.loc 1 366 9 is_stmt 1 view .LVU122
 466              		.loc 1 366 24 is_stmt 0 view .LVU123
 467 003e 2369     		ldr	r3, [r4, #16]
 468              		.loc 1 366 11 view .LVU124
 469 0040 8342     		cmp	r3, r0
 470 0042 17D8     		bhi	.L27
 471              		.loc 1 366 46 discriminator 1 view .LVU125
 472 0044 4FF0FF30 		mov	r0, #-1
 473              	.LVL44:
 474              		.loc 1 366 46 discriminator 1 view .LVU126
 475 0048 14E0     		b	.L27
 476              	.LVL45:
 477              	.L29:
 478              		.loc 1 366 46 discriminator 1 view .LVU127
 479              	.LBE38:
 367:/mnt/c/Users/31740/Documents/codes/newcore-rp2350/lib/error.c ****         return len;
 368:/mnt/c/Users/31740/Documents/codes/newcore-rp2350/lib/error.c ****     }
 369:/mnt/c/Users/31740/Documents/codes/newcore-rp2350/lib/error.c ****     if(out_function != NULL)
 480              		.loc 1 369 5 is_stmt 1 view .LVU128
 481              		.loc 1 369 7 is_stmt 0 view .LVU129
 482 004a 9BB1     		cbz	r3, .L27
 483              	.LBB39:
 370:/mnt/c/Users/31740/Documents/codes/newcore-rp2350/lib/error.c ****     {
 371:/mnt/c/Users/31740/Documents/codes/newcore-rp2350/lib/error.c ****         uint32_t sec  = error->time / HZ;
 484              		.loc 1 371 9 is_stmt 1 view .LVU130
 485              		.loc 1 371 30 is_stmt 0 view .LVU131
 486 004c 8168     		ldr	r1, [r0, #8]
ARM GAS  /tmp/cczJPWbc.s 			page 24


 487              	.LVL46:
 488              		.loc 1 371 37 view .LVU132
 489 004e 0C4B     		ldr	r3, .L36
 490              	.LVL47:
 491              		.loc 1 371 37 view .LVU133
 492 0050 1B68     		ldr	r3, [r3]
 493              		.loc 1 371 18 view .LVU134
 494 0052 B1FBF3F2 		udiv	r2, r1, r3
 495              	.LVL48:
 372:/mnt/c/Users/31740/Documents/codes/newcore-rp2350/lib/error.c ****         uint32_t nsec = error->time % HZ;
 496              		.loc 1 372 9 is_stmt 1 view .LVU135
 373:/mnt/c/Users/31740/Documents/codes/newcore-rp2350/lib/error.c ****         out_function(KERN_INFO "(%u.%06u) (%d)[ \"%s\":(%d)] %s free memory size:%db\n",sec ,nsec,e
 497              		.loc 1 373 9 view .LVU136
 498 0056 406A     		ldr	r0, [r0, #36]
 499              	.LVL49:
 500              		.loc 1 373 9 is_stmt 0 view .LVU137
 501 0058 0490     		str	r0, [sp, #16]
 502 005a 6069     		ldr	r0, [r4, #20]
 503 005c 0390     		str	r0, [sp, #12]
 504 005e E068     		ldr	r0, [r4, #12]
 505 0060 0290     		str	r0, [sp, #8]
 506 0062 2068     		ldr	r0, [r4]
 507 0064 0190     		str	r0, [sp, #4]
 508 0066 A069     		ldr	r0, [r4, #24]
 509 0068 0090     		str	r0, [sp]
 510 006a 03FB1213 		mls	r3, r3, r2, r1
 511              	.LVL50:
 512              		.loc 1 373 9 view .LVU138
 513 006e 0549     		ldr	r1, .L36+4
 514 0070 0620     		movs	r0, #6
 515 0072 B047     		blx	r6
 516              	.LVL51:
 517              	.LVL52:
 518              	.L27:
 519              		.loc 1 373 9 view .LVU139
 520              	.LBE39:
 374:/mnt/c/Users/31740/Documents/codes/newcore-rp2350/lib/error.c ****     }
 375:/mnt/c/Users/31740/Documents/codes/newcore-rp2350/lib/error.c **** }...
 521              		.loc 1 375 1 view .LVU140
 522 0074 06B0     		add	sp, sp, #24
 523              	.LCFI11:
 524              		.cfi_def_cfa_offset 16
 525              		@ sp needed
 526 0076 70BD     		pop	{r4, r5, r6, pc}
 527              	.LVL53:
 528              	.L31:
 529              	.LCFI12:
 530              		.cfi_def_cfa_offset 0
 531              		.cfi_restore 4
 532              		.cfi_restore 5
 533              		.cfi_restore 6
 534              		.cfi_restore 14
 360:/mnt/c/Users/31740/Documents/codes/newcore-rp2350/lib/error.c ****     if(error == NULL) return -1;
 535              		.loc 1 360 30 discriminator 1 view .LVU141
 536 0078 4FF0FF30 		mov	r0, #-1
 537              	.LVL54:
 538              		.loc 1 375 1 view .LVU142
ARM GAS  /tmp/cczJPWbc.s 			page 25


 539 007c 7047     		bx	lr
 540              	.L37:
 541 007e 00BF     		.align	2
 542              	.L36:
 543 0080 00000000 		.word	HZ
 544 0084 00000000 		.word	.LC1
 545              		.cfi_endproc
 546              	.LFE287:
 548              		.section	.rodata.l_error_exception.str1.4,"aMS",%progbits,1
 549              		.align	2
 550              	.LC2:
 551 0000 4552524F 		.ascii	"ERROR: EPERM: Operation not permitted\000"
 551      523A2045 
 551      5045524D 
 551      3A204F70 
 551      65726174 
 552 0026 0000     		.align	2
 553              	.LC3:
 554 0028 4552524F 		.ascii	"ERROR: ENOENT: No such file or directory\000"
 554      523A2045 
 554      4E4F454E 
 554      543A204E 
 554      6F207375 
 555 0051 000000   		.align	2
 556              	.LC4:
 557 0054 4552524F 		.ascii	"ERROR: ESRCH: No such process\000"
 557      523A2045 
 557      53524348 
 557      3A204E6F 
 557      20737563 
 558 0072 0000     		.align	2
 559              	.LC5:
 560 0074 5741524E 		.ascii	"WARN: EINTR: Interrupted system call\000"
 560      3A204549 
 560      4E54523A 
 560      20496E74 
 560      65727275 
 561 0099 000000   		.align	2
 562              	.LC6:
 563 009c 4552524F 		.ascii	"ERROR: EIO: I/O error\000"
 563      523A2045 
 563      494F3A20 
 563      492F4F20 
 563      6572726F 
 564 00b2 0000     		.align	2
 565              	.LC7:
 566 00b4 4552524F 		.ascii	"ERROR: ENXIO: No such device or address\000"
 566      523A2045 
 566      4E58494F 
 566      3A204E6F 
 566      20737563 
 567              		.align	2
 568              	.LC8:
 569 00dc 4552524F 		.ascii	"ERROR: E2BIG: Argument list too long\000"
 569      523A2045 
 569      32424947 
 569      3A204172 
ARM GAS  /tmp/cczJPWbc.s 			page 26


 569      67756D65 
 570 0101 000000   		.align	2
 571              	.LC9:
 572 0104 4552524F 		.ascii	"ERROR: ENOEXEC: Exec format error\000"
 572      523A2045 
 572      4E4F4558 
 572      45433A20 
 572      45786563 
 573 0126 0000     		.align	2
 574              	.LC10:
 575 0128 4552524F 		.ascii	"ERROR: EBADF: Bad file descriptor\000"
 575      523A2045 
 575      42414446 
 575      3A204261 
 575      64206669 
 576 014a 0000     		.align	2
 577              	.LC11:
 578 014c 4552524F 		.ascii	"ERROR: ECHILD: No child processes\000"
 578      523A2045 
 578      4348494C 
 578      443A204E 
 578      6F206368 
 579 016e 0000     		.align	2
 580              	.LC12:
 581 0170 5741524E 		.ascii	"WARN: EAGAIN: Resource temporarily unavailable\000"
 581      3A204541 
 581      4741494E 
 581      3A205265 
 581      736F7572 
 582 019f 00       		.align	2
 583              	.LC13:
 584 01a0 4552524F 		.ascii	"ERROR: ENOMEM: Out of memory\000"
 584      523A2045 
 584      4E4F4D45 
 584      4D3A204F 
 584      7574206F 
 585 01bd 000000   		.align	2
 586              	.LC14:
 587 01c0 4552524F 		.ascii	"ERROR: EACCES: Permission denied\000"
 587      523A2045 
 587      41434345 
 587      533A2050 
 587      65726D69 
 588 01e1 000000   		.align	2
 589              	.LC15:
 590 01e4 4552524F 		.ascii	"ERROR: EFAULT: Bad address\000"
 590      523A2045 
 590      4641554C 
 590      543A2042 
 590      61642061 
 591 01ff 00       		.align	2
 592              	.LC16:
 593 0200 4552524F 		.ascii	"ERROR: ENOTBLK: Block device required\000"
 593      523A2045 
 593      4E4F5442 
 593      4C4B3A20 
 593      426C6F63 
ARM GAS  /tmp/cczJPWbc.s 			page 27


 594 0226 0000     		.align	2
 595              	.LC17:
 596 0228 4552524F 		.ascii	"ERROR: EBUSY: Device or resource busy\000"
 596      523A2045 
 596      42555359 
 596      3A204465 
 596      76696365 
 597 024e 0000     		.align	2
 598              	.LC18:
 599 0250 4552524F 		.ascii	"ERROR: EEXIST: File exists\000"
 599      523A2045 
 599      45584953 
 599      543A2046 
 599      696C6520 
 600 026b 00       		.align	2
 601              	.LC19:
 602 026c 4552524F 		.ascii	"ERROR: EXDEV: Cross-device link\000"
 602      523A2045 
 602      58444556 
 602      3A204372 
 602      6F73732D 
 603              		.align	2
 604              	.LC20:
 605 028c 4552524F 		.ascii	"ERROR: ENODEV: No such device\000"
 605      523A2045 
 605      4E4F4445 
 605      563A204E 
 605      6F207375 
 606 02aa 0000     		.align	2
 607              	.LC21:
 608 02ac 4552524F 		.ascii	"ERROR: ENOTDIR: Not a directory\000"
 608      523A2045 
 608      4E4F5444 
 608      49523A20 
 608      4E6F7420 
 609              		.align	2
 610              	.LC22:
 611 02cc 4552524F 		.ascii	"ERROR: EISDIR: Is a directory\000"
 611      523A2045 
 611      49534449 
 611      523A2049 
 611      73206120 
 612 02ea 0000     		.align	2
 613              	.LC23:
 614 02ec 4552524F 		.ascii	"ERROR: EINVAL: Invalid argument\000"
 614      523A2045 
 614      494E5641 
 614      4C3A2049 
 614      6E76616C 
 615              		.align	2
 616              	.LC24:
 617 030c 4552524F 		.ascii	"ERROR: ENFILE: File table overflow\000"
 617      523A2045 
 617      4E46494C 
 617      453A2046 
 617      696C6520 
 618 032f 00       		.align	2
ARM GAS  /tmp/cczJPWbc.s 			page 28


 619              	.LC25:
 620 0330 4552524F 		.ascii	"ERROR: EMFILE: Too many open files\000"
 620      523A2045 
 620      4D46494C 
 620      453A2054 
 620      6F6F206D 
 621 0353 00       		.align	2
 622              	.LC26:
 623 0354 4552524F 		.ascii	"ERROR: ENOTTY: Not a terminal\000"
 623      523A2045 
 623      4E4F5454 
 623      593A204E 
 623      6F742061 
 624 0372 0000     		.align	2
 625              	.LC27:
 626 0374 4552524F 		.ascii	"ERROR: ETXTBSY: Text file busy\000"
 626      523A2045 
 626      54585442 
 626      53593A20 
 626      54657874 
 627 0393 00       		.align	2
 628              	.LC28:
 629 0394 4552524F 		.ascii	"ERROR: EFBIG: File too large\000"
 629      523A2045 
 629      46424947 
 629      3A204669 
 629      6C652074 
 630 03b1 000000   		.align	2
 631              	.LC29:
 632 03b4 4552524F 		.ascii	"ERROR: ENOSPC: No space left on device\000"
 632      523A2045 
 632      4E4F5350 
 632      433A204E 
 632      6F207370 
 633 03db 00       		.align	2
 634              	.LC30:
 635 03dc 4552524F 		.ascii	"ERROR: ESPIPE: Illegal seek\000"
 635      523A2045 
 635      53504950 
 635      453A2049 
 635      6C6C6567 
 636              		.align	2
 637              	.LC31:
 638 03f8 4552524F 		.ascii	"ERROR: EROFS: Read-only file system\000"
 638      523A2045 
 638      524F4653 
 638      3A205265 
 638      61642D6F 
 639              		.align	2
 640              	.LC32:
 641 041c 4552524F 		.ascii	"ERROR: EMLINK: Too many links\000"
 641      523A2045 
 641      4D4C494E 
 641      4B3A2054 
 641      6F6F206D 
 642 043a 0000     		.align	2
 643              	.LC33:
ARM GAS  /tmp/cczJPWbc.s 			page 29


 644 043c 4552524F 		.ascii	"ERROR: EPIPE: Broken pipe\000"
 644      523A2045 
 644      50495045 
 644      3A204272 
 644      6F6B656E 
 645 0456 0000     		.align	2
 646              	.LC34:
 647 0458 4552524F 		.ascii	"ERROR: EDOM: Math argument out of domain\000"
 647      523A2045 
 647      444F4D3A 
 647      204D6174 
 647      68206172 
 648 0481 000000   		.align	2
 649              	.LC35:
 650 0484 4552524F 		.ascii	"ERROR: ERANGE: Math result not representable\000"
 650      523A2045 
 650      52414E47 
 650      453A204D 
 650      61746820 
 651 04b1 000000   		.align	2
 652              	.LC36:
 653 04b4 4552524F 		.ascii	"ERROR: EDEADLK: Resource deadlock would occur\000"
 653      523A2045 
 653      44454144 
 653      4C4B3A20 
 653      5265736F 
 654 04e2 0000     		.align	2
 655              	.LC37:
 656 04e4 4552524F 		.ascii	"ERROR: ENAMETOOLONG: File name too long\000"
 656      523A2045 
 656      4E414D45 
 656      544F4F4C 
 656      4F4E473A 
 657              		.align	2
 658              	.LC38:
 659 050c 4552524F 		.ascii	"ERROR: ENOLCK: No record locks available\000"
 659      523A2045 
 659      4E4F4C43 
 659      4B3A204E 
 659      6F207265 
 660 0535 000000   		.align	2
 661              	.LC39:
 662 0538 4552524F 		.ascii	"ERROR: ENOSYS: Function not implemented\000"
 662      523A2045 
 662      4E4F5359 
 662      533A2046 
 662      756E6374 
 663              		.align	2
 664              	.LC40:
 665 0560 4552524F 		.ascii	"ERROR: ENOTEMPTY: Directory not empty\000"
 665      523A2045 
 665      4E4F5445 
 665      4D505459 
 665      3A204469 
 666 0586 0000     		.align	2
 667              	.LC41:
 668 0588 4552524F 		.ascii	"ERROR: ELOOP: Too many symbolic links encountered\000"
ARM GAS  /tmp/cczJPWbc.s 			page 30


 668      523A2045 
 668      4C4F4F50 
 668      3A20546F 
 668      6F206D61 
 669 05ba 0000     		.align	2
 670              	.LC42:
 671 05bc 4552524F 		.ascii	"ERROR: ENOTSOCK: Socket operation on non-socket\000"
 671      523A2045 
 671      4E4F5453 
 671      4F434B3A 
 671      20536F63 
 672              		.align	2
 673              	.LC43:
 674 05ec 4552524F 		.ascii	"ERROR: EDESTADDRREQ: Destination address required\000"
 674      523A2045 
 674      44455354 
 674      41444452 
 674      5245513A 
 675 061e 0000     		.align	2
 676              	.LC44:
 677 0620 4552524F 		.ascii	"ERROR: EMSGSIZE: Message too long\000"
 677      523A2045 
 677      4D534753 
 677      495A453A 
 677      204D6573 
 678 0642 0000     		.align	2
 679              	.LC45:
 680 0644 4552524F 		.ascii	"ERROR: EPROTOTYPE: Protocol wrong type for socket\000"
 680      523A2045 
 680      50524F54 
 680      4F545950 
 680      453A2050 
 681 0676 0000     		.align	2
 682              	.LC46:
 683 0678 4552524F 		.ascii	"ERROR: ENOPROTOOPT: Protocol not available\000"
 683      523A2045 
 683      4E4F5052 
 683      4F544F4F 
 683      50543A20 
 684 06a3 00       		.align	2
 685              	.LC47:
 686 06a4 4552524F 		.ascii	"ERROR: EPROTONOSUPPORT: Protocol not supported\000"
 686      523A2045 
 686      50524F54 
 686      4F4E4F53 
 686      5550504F 
 687 06d3 00       		.align	2
 688              	.LC48:
 689 06d4 4552524F 		.ascii	"ERROR: ESOCKTNOSUPPORT: Socket type not supported\000"
 689      523A2045 
 689      534F434B 
 689      544E4F53 
 689      5550504F 
 690 0706 0000     		.align	2
 691              	.LC49:
 692 0708 4552524F 		.ascii	"ERROR: EOPNOTSUPP: Operation not supported\000"
 692      523A2045 
ARM GAS  /tmp/cczJPWbc.s 			page 31


 692      4F504E4F 
 692      54535550 
 692      503A204F 
 693 0733 00       		.align	2
 694              	.LC50:
 695 0734 4552524F 		.ascii	"ERROR: EPFNOSUPPORT: Protocol family not supported\000"
 695      523A2045 
 695      50464E4F 
 695      53555050 
 695      4F52543A 
 696 0767 00       		.align	2
 697              	.LC51:
 698 0768 4552524F 		.ascii	"ERROR: EAFNOSUPPORT: Address family not supported\000"
 698      523A2045 
 698      41464E4F 
 698      53555050 
 698      4F52543A 
 699 079a 0000     		.align	2
 700              	.LC52:
 701 079c 4552524F 		.ascii	"ERROR: EADDRINUSE: Address already in use\000"
 701      523A2045 
 701      41444452 
 701      494E5553 
 701      453A2041 
 702 07c6 0000     		.align	2
 703              	.LC53:
 704 07c8 4552524F 		.ascii	"ERROR: EADDRNOTAVAIL: Cannot assign requested addre"
 704      523A2045 
 704      41444452 
 704      4E4F5441 
 704      5641494C 
 705 07fb 737300   		.ascii	"ss\000"
 706 07fe 0000     		.align	2
 707              	.LC54:
 708 0800 4552524F 		.ascii	"ERROR: ENETDOWN: Network is down\000"
 708      523A2045 
 708      4E455444 
 708      4F574E3A 
 708      204E6574 
 709 0821 000000   		.align	2
 710              	.LC55:
 711 0824 4552524F 		.ascii	"ERROR: ENETUNREACH: Network is unreachable\000"
 711      523A2045 
 711      4E455455 
 711      4E524541 
 711      43483A20 
 712 084f 00       		.align	2
 713              	.LC56:
 714 0850 4552524F 		.ascii	"ERROR: ENETRESET: Network dropped connection on res"
 714      523A2045 
 714      4E455452 
 714      45534554 
 714      3A204E65 
 715 0883 657400   		.ascii	"et\000"
 716 0886 0000     		.align	2
 717              	.LC57:
 718 0888 4552524F 		.ascii	"ERROR: ECONNABORTED: Software caused connection abo"
ARM GAS  /tmp/cczJPWbc.s 			page 32


 718      523A2045 
 718      434F4E4E 
 718      41424F52 
 718      5445443A 
 719 08bb 727400   		.ascii	"rt\000"
 720 08be 0000     		.align	2
 721              	.LC58:
 722 08c0 4552524F 		.ascii	"ERROR: ECONNRESET: Connection reset by peer\000"
 722      523A2045 
 722      434F4E4E 
 722      52455345 
 722      543A2043 
 723              		.align	2
 724              	.LC59:
 725 08ec 4552524F 		.ascii	"ERROR: ENOBUFS: No buffer space available\000"
 725      523A2045 
 725      4E4F4255 
 725      46533A20 
 725      4E6F2062 
 726 0916 0000     		.align	2
 727              	.LC60:
 728 0918 4552524F 		.ascii	"ERROR: EISCONN: Transport endpoint is already conne"
 728      523A2045 
 728      4953434F 
 728      4E4E3A20 
 728      5472616E 
 729 094b 63746564 		.ascii	"cted\000"
 729      00
 730              		.align	2
 731              	.LC61:
 732 0950 4552524F 		.ascii	"ERROR: ENOTCONN: Transport endpoint is not connecte"
 732      523A2045 
 732      4E4F5443 
 732      4F4E4E3A 
 732      20547261 
 733 0983 6400     		.ascii	"d\000"
 734 0985 000000   		.align	2
 735              	.LC62:
 736 0988 4552524F 		.ascii	"ERROR: ESHUTDOWN: Cannot send after transport endpo"
 736      523A2045 
 736      53485554 
 736      444F574E 
 736      3A204361 
 737 09bb 696E7420 		.ascii	"int shutdown\000"
 737      73687574 
 737      646F776E 
 737      00
 738              		.align	2
 739              	.LC63:
 740 09c8 4552524F 		.ascii	"ERROR: ETOOMANYREFS: Too many references\000"
 740      523A2045 
 740      544F4F4D 
 740      414E5952 
 740      4546533A 
 741 09f1 000000   		.align	2
 742              	.LC64:
 743 09f4 4552524F 		.ascii	"ERROR: ETIMEDOUT: Connection timed out\000"
ARM GAS  /tmp/cczJPWbc.s 			page 33


 743      523A2045 
 743      54494D45 
 743      444F5554 
 743      3A20436F 
 744 0a1b 00       		.align	2
 745              	.LC65:
 746 0a1c 4552524F 		.ascii	"ERROR: ECONNREFUSED: Connection refused\000"
 746      523A2045 
 746      434F4E4E 
 746      52454655 
 746      5345443A 
 747              		.align	2
 748              	.LC66:
 749 0a44 4552524F 		.ascii	"ERROR: EHOSTDOWN: Host is down\000"
 749      523A2045 
 749      484F5354 
 749      444F574E 
 749      3A20486F 
 750 0a63 00       		.align	2
 751              	.LC67:
 752 0a64 4552524F 		.ascii	"ERROR: EHOSTUNREACH: No route to host\000"
 752      523A2045 
 752      484F5354 
 752      554E5245 
 752      4143483A 
 753 0a8a 0000     		.align	2
 754              	.LC68:
 755 0a8c 494E464F 		.ascii	"INFO: EALREADY: Operation already in progress\000"
 755      3A204541 
 755      4C524541 
 755      44593A20 
 755      4F706572 
 756 0aba 0000     		.align	2
 757              	.LC69:
 758 0abc 494E464F 		.ascii	"INFO: EINPROGRESS: Operation now in progress\000"
 758      3A204549 
 758      4E50524F 
 758      47524553 
 758      533A204F 
 759 0ae9 000000   		.align	2
 760              	.LC70:
 761 0aec 4552524F 		.ascii	"ERROR: ESTALE: Stale file handle\000"
 761      523A2045 
 761      5354414C 
 761      453A2053 
 761      74616C65 
 762 0b0d 000000   		.align	2
 763              	.LC71:
 764 0b10 4552524F 		.ascii	"ERROR: EUCLEAN: Structure needs cleaning\000"
 764      523A2045 
 764      55434C45 
 764      414E3A20 
 764      53747275 
 765 0b39 000000   		.align	2
 766              	.LC72:
 767 0b3c 4552524F 		.ascii	"ERROR: ENOTNAM: Not a XENIX named type file\000"
 767      523A2045 
ARM GAS  /tmp/cczJPWbc.s 			page 34


 767      4E4F544E 
 767      414D3A20 
 767      4E6F7420 
 768              		.align	2
 769              	.LC73:
 770 0b68 4552524F 		.ascii	"ERROR: ENAVAIL: No XENIX semaphores available\000"
 770      523A2045 
 770      4E415641 
 770      494C3A20 
 770      4E6F2058 
 771 0b96 0000     		.align	2
 772              	.LC74:
 773 0b98 4552524F 		.ascii	"ERROR: EISNAM: Is a named type file\000"
 773      523A2045 
 773      49534E41 
 773      4D3A2049 
 773      73206120 
 774              		.align	2
 775              	.LC75:
 776 0bbc 4552524F 		.ascii	"ERROR: EREMOTEIO: Remote I/O error\000"
 776      523A2045 
 776      52454D4F 
 776      5445494F 
 776      3A205265 
 777 0bdf 00       		.align	2
 778              	.LC76:
 779 0be0 4552524F 		.ascii	"ERROR: EDQUOT: Disk quota exceeded\000"
 779      523A2045 
 779      4451554F 
 779      543A2044 
 779      69736B20 
 780 0c03 00       		.align	2
 781              	.LC77:
 782 0c04 4552524F 		.ascii	"ERROR: ENOMEDIUM: No medium found\000"
 782      523A2045 
 782      4E4F4D45 
 782      4449554D 
 782      3A204E6F 
 783 0c26 0000     		.align	2
 784              	.LC78:
 785 0c28 4552524F 		.ascii	"ERROR: EMEDIUMTYPE: Wrong medium type\000"
 785      523A2045 
 785      4D454449 
 785      554D5459 
 785      50453A20 
 786 0c4e 0000     		.align	2
 787              	.LC79:
 788 0c50 5741524E 		.ascii	"WARN: ECANCELED: Operation canceled\000"
 788      3A204543 
 788      414E4345 
 788      4C45443A 
 788      204F7065 
 789              		.align	2
 790              	.LC80:
 791 0c74 4552524F 		.ascii	"ERROR: ENOKEY: Required key not available\000"
 791      523A2045 
 791      4E4F4B45 
ARM GAS  /tmp/cczJPWbc.s 			page 35


 791      593A2052 
 791      65717569 
 792 0c9e 0000     		.align	2
 793              	.LC81:
 794 0ca0 4552524F 		.ascii	"ERROR: EKEYEXPIRED: Key has expired\000"
 794      523A2045 
 794      4B455945 
 794      58504952 
 794      45443A20 
 795              		.align	2
 796              	.LC82:
 797 0cc4 4552524F 		.ascii	"ERROR: EKEYREVOKED: Key has been revoked\000"
 797      523A2045 
 797      4B455952 
 797      45564F4B 
 797      45443A20 
 798 0ced 000000   		.align	2
 799              	.LC83:
 800 0cf0 4552524F 		.ascii	"ERROR: EKEYREJECTED: Key was rejected by service\000"
 800      523A2045 
 800      4B455952 
 800      454A4543 
 800      5445443A 
 801 0d21 000000   		.align	2
 802              	.LC84:
 803 0d24 4552524F 		.ascii	"ERROR: EOWNERDEAD: Owner died\000"
 803      523A2045 
 803      4F574E45 
 803      52444541 
 803      443A204F 
 804 0d42 0000     		.align	2
 805              	.LC85:
 806 0d44 4552524F 		.ascii	"ERROR: ENOTRECOVERABLE: State not recoverable\000"
 806      523A2045 
 806      4E4F5452 
 806      45434F56 
 806      45524142 
 807 0d72 0000     		.align	2
 808              	.LC86:
 809 0d74 4552524F 		.ascii	"ERROR: ERFKILL: Operation not possible due to RF-ki"
 809      523A2045 
 809      52464B49 
 809      4C4C3A20 
 809      4F706572 
 810 0da7 6C6C00   		.ascii	"ll\000"
 811 0daa 0000     		.align	2
 812              	.LC87:
 813 0dac 4552524F 		.ascii	"ERROR: EHWPOISON: Memory page has hardware error\000"
 813      523A2045 
 813      4857504F 
 813      49534F4E 
 813      3A204D65 
 814 0ddd 000000   		.align	2
 815              	.LC88:
 816 0de0 4552524F 		.ascii	"ERROR: Unknown error code\000"
 816      523A2055 
 816      6E6B6E6F 
ARM GAS  /tmp/cczJPWbc.s 			page 36


 816      776E2065 
 816      72726F72 
 817              		.section	.text.l_error_exception,"ax",%progbits
 818              		.align	1
 819              		.global	l_error_exception
 820              		.syntax unified
 821              		.thumb
 822              		.thumb_func
 824              	l_error_exception:
 825              	.LVL55:
 826              	.LFB286:
  60:/mnt/c/Users/31740/Documents/codes/newcore-rp2350/lib/error.c **** {
 827              		.loc 1 60 1 is_stmt 1 view -0
 828              		.cfi_startproc
 829              		@ args = 4, pretend = 4, frame = 8
 830              		@ frame_needed = 0, uses_anonymous_args = 1
  61:/mnt/c/Users/31740/Documents/codes/newcore-rp2350/lib/error.c ****     if(error == NULL) return;
 831              		.loc 1 61 5 view .LVU144
  61:/mnt/c/Users/31740/Documents/codes/newcore-rp2350/lib/error.c ****     if(error == NULL) return;
 832              		.loc 1 61 7 is_stmt 0 view .LVU145
 833 0000 0028     		cmp	r0, #0
 834 0002 00F00783 		beq	.L133
  60:/mnt/c/Users/31740/Documents/codes/newcore-rp2350/lib/error.c **** {
 835              		.loc 1 60 1 view .LVU146
 836 0006 08B4     		push	{r3}
 837              	.LCFI13:
 838              		.cfi_def_cfa_offset 4
 839              		.cfi_offset 3, -4
 840 0008 30B5     		push	{r4, r5, lr}
 841              	.LCFI14:
 842              		.cfi_def_cfa_offset 16
 843              		.cfi_offset 4, -16
 844              		.cfi_offset 5, -12
 845              		.cfi_offset 14, -8
 846 000a 82B0     		sub	sp, sp, #8
 847              	.LCFI15:
 848              		.cfi_def_cfa_offset 24
 849 000c 0C46     		mov	r4, r1
 850 000e 0546     		mov	r5, r0
  62:/mnt/c/Users/31740/Documents/codes/newcore-rp2350/lib/error.c ****     if(errnum >= 0) return;
 851              		.loc 1 62 5 is_stmt 1 view .LVU147
  62:/mnt/c/Users/31740/Documents/codes/newcore-rp2350/lib/error.c ****     if(errnum >= 0) return;
 852              		.loc 1 62 7 is_stmt 0 view .LVU148
 853 0010 0029     		cmp	r1, #0
 854 0012 04DB     		blt	.L136
 855              	.LVL56:
 856              	.L38:
 355:/mnt/c/Users/31740/Documents/codes/newcore-rp2350/lib/error.c **** }
 857              		.loc 1 355 1 view .LVU149
 858 0014 02B0     		add	sp, sp, #8
 859              	.LCFI16:
 860              		.cfi_remember_state
 861              		.cfi_def_cfa_offset 16
 862              		@ sp needed
 863 0016 BDE83040 		pop	{r4, r5, lr}
 864              	.LCFI17:
 865              		.cfi_restore 14
ARM GAS  /tmp/cczJPWbc.s 			page 37


 866              		.cfi_restore 5
 867              		.cfi_restore 4
 868              		.cfi_def_cfa_offset 4
 869              	.LVL57:
 355:/mnt/c/Users/31740/Documents/codes/newcore-rp2350/lib/error.c **** }
 870              		.loc 1 355 1 view .LVU150
 871 001a 01B0     		add	sp, sp, #4
 872              	.LCFI18:
 873              		.cfi_restore 3
 874              		.cfi_def_cfa_offset 0
 875 001c 7047     		bx	lr
 876              	.LVL58:
 877              	.L136:
 878              	.LCFI19:
 879              		.cfi_restore_state
  63:/mnt/c/Users/31740/Documents/codes/newcore-rp2350/lib/error.c ****     error->errnum = errnum;
 880              		.loc 1 63 5 is_stmt 1 view .LVU151
  63:/mnt/c/Users/31740/Documents/codes/newcore-rp2350/lib/error.c ****     error->errnum = errnum;
 881              		.loc 1 63 19 is_stmt 0 view .LVU152
 882 001e 4160     		str	r1, [r0, #4]
  64:/mnt/c/Users/31740/Documents/codes/newcore-rp2350/lib/error.c ****     error->line = line;
 883              		.loc 1 64 5 is_stmt 1 view .LVU153
  64:/mnt/c/Users/31740/Documents/codes/newcore-rp2350/lib/error.c ****     error->line = line;
 884              		.loc 1 64 17 is_stmt 0 view .LVU154
 885 0020 C260     		str	r2, [r0, #12]
  65:/mnt/c/Users/31740/Documents/codes/newcore-rp2350/lib/error.c ****     error->time = ktime_get();
 886              		.loc 1 65 5 is_stmt 1 view .LVU155
  65:/mnt/c/Users/31740/Documents/codes/newcore-rp2350/lib/error.c ****     error->time = ktime_get();
 887              		.loc 1 65 19 is_stmt 0 view .LVU156
 888 0022 FFF7FEFF 		bl	ktime_get
 889              	.LVL59:
  65:/mnt/c/Users/31740/Documents/codes/newcore-rp2350/lib/error.c ****     error->time = ktime_get();
 890              		.loc 1 65 17 discriminator 1 view .LVU157
 891 0026 A860     		str	r0, [r5, #8]
  66:/mnt/c/Users/31740/Documents/codes/newcore-rp2350/lib/error.c ****     error->haper_size = get_global_heap_size();
 892              		.loc 1 66 5 is_stmt 1 view .LVU158
  66:/mnt/c/Users/31740/Documents/codes/newcore-rp2350/lib/error.c ****     error->haper_size = get_global_heap_size();
 893              		.loc 1 66 25 is_stmt 0 view .LVU159
 894 0028 FFF7FEFF 		bl	get_global_heap_size
 895              	.LVL60:
  66:/mnt/c/Users/31740/Documents/codes/newcore-rp2350/lib/error.c ****     error->haper_size = get_global_heap_size();
 896              		.loc 1 66 23 discriminator 1 view .LVU160
 897 002c 6862     		str	r0, [r5, #36]
  67:/mnt/c/Users/31740/Documents/codes/newcore-rp2350/lib/error.c ****     error->error_count++;
 898              		.loc 1 67 5 is_stmt 1 view .LVU161
  67:/mnt/c/Users/31740/Documents/codes/newcore-rp2350/lib/error.c ****     error->error_count++;
 899              		.loc 1 67 10 is_stmt 0 view .LVU162
 900 002e AB69     		ldr	r3, [r5, #24]
  67:/mnt/c/Users/31740/Documents/codes/newcore-rp2350/lib/error.c ****     error->error_count++;
 901              		.loc 1 67 23 view .LVU163
 902 0030 0133     		adds	r3, r3, #1
 903 0032 AB61     		str	r3, [r5, #24]
  68:/mnt/c/Users/31740/Documents/codes/newcore-rp2350/lib/error.c ****     if (errmsg != NULL) {
 904              		.loc 1 68 5 is_stmt 1 view .LVU164
  68:/mnt/c/Users/31740/Documents/codes/newcore-rp2350/lib/error.c ****     if (errmsg != NULL) {
 905              		.loc 1 68 8 is_stmt 0 view .LVU165
 906 0034 059B     		ldr	r3, [sp, #20]
ARM GAS  /tmp/cczJPWbc.s 			page 38


 907 0036 93B1     		cbz	r3, .L40
 908              	.LBB40:
  69:/mnt/c/Users/31740/Documents/codes/newcore-rp2350/lib/error.c ****         va_list args;
 909              		.loc 1 69 9 is_stmt 1 view .LVU166
  70:/mnt/c/Users/31740/Documents/codes/newcore-rp2350/lib/error.c ****         va_start(args, errmsg);
 910              		.loc 1 70 9 view .LVU167
 911 0038 06AB     		add	r3, sp, #24
 912 003a 0193     		str	r3, [sp, #4]
  71:/mnt/c/Users/31740/Documents/codes/newcore-rp2350/lib/error.c ****         vsnprintf(error->errmsg, error->errmsg_size, errmsg, args);
 913              		.loc 1 71 9 view .LVU168
 914 003c 059A     		ldr	r2, [sp, #20]
 915 003e 2969     		ldr	r1, [r5, #16]
 916 0040 6869     		ldr	r0, [r5, #20]
 917 0042 FFF7FEFF 		bl	vsnprintf
 918              	.LVL61:
  72:/mnt/c/Users/31740/Documents/codes/newcore-rp2350/lib/error.c ****         va_end(args);
 919              		.loc 1 72 9 view .LVU169
 920              	.L41:
  72:/mnt/c/Users/31740/Documents/codes/newcore-rp2350/lib/error.c ****         va_end(args);
 921              		.loc 1 72 9 is_stmt 0 view .LVU170
 922              	.LBE40:
 344:/mnt/c/Users/31740/Documents/codes/newcore-rp2350/lib/error.c ****     if (error->mode == ERROR_SAVE_ONLY) {
 923              		.loc 1 344 5 is_stmt 1 view .LVU171
 344:/mnt/c/Users/31740/Documents/codes/newcore-rp2350/lib/error.c ****     if (error->mode == ERROR_SAVE_ONLY) {
 924              		.loc 1 344 14 is_stmt 0 view .LVU172
 925 0046 2B7F     		ldrb	r3, [r5, #28]	@ zero_extendqisi2
 344:/mnt/c/Users/31740/Documents/codes/newcore-rp2350/lib/error.c ****     if (error->mode == ERROR_SAVE_ONLY) {
 926              		.loc 1 344 8 view .LVU173
 927 0048 002B     		cmp	r3, #0
 928 004a E3D0     		beq	.L38
 347:/mnt/c/Users/31740/Documents/codes/newcore-rp2350/lib/error.c ****     if (error->mode == ERROR_SAVE_AND_PRINT_TO_LOG || error->mode == ERROR_SAVE_AND_BLOCK) {
 929              		.loc 1 347 5 is_stmt 1 view .LVU174
 347:/mnt/c/Users/31740/Documents/codes/newcore-rp2350/lib/error.c ****     if (error->mode == ERROR_SAVE_AND_PRINT_TO_LOG || error->mode == ERROR_SAVE_AND_BLOCK) {
 930              		.loc 1 347 52 is_stmt 0 view .LVU175
 931 004c 013B     		subs	r3, r3, #1
 932 004e DBB2     		uxtb	r3, r3
 347:/mnt/c/Users/31740/Documents/codes/newcore-rp2350/lib/error.c ****     if (error->mode == ERROR_SAVE_AND_PRINT_TO_LOG || error->mode == ERROR_SAVE_AND_BLOCK) {
 933              		.loc 1 347 8 view .LVU176
 934 0050 012B     		cmp	r3, #1
 935 0052 40F2D882 		bls	.L137
 936              	.L130:
 350:/mnt/c/Users/31740/Documents/codes/newcore-rp2350/lib/error.c ****     if (error->mode == ERROR_SAVE_AND_BLOCK) 
 937              		.loc 1 350 5 is_stmt 1 view .LVU177
 350:/mnt/c/Users/31740/Documents/codes/newcore-rp2350/lib/error.c ****     if (error->mode == ERROR_SAVE_AND_BLOCK) 
 938              		.loc 1 350 14 is_stmt 0 view .LVU178
 939 0056 2B7F     		ldrb	r3, [r5, #28]	@ zero_extendqisi2
 350:/mnt/c/Users/31740/Documents/codes/newcore-rp2350/lib/error.c ****     if (error->mode == ERROR_SAVE_AND_BLOCK) 
 940              		.loc 1 350 8 view .LVU179
 941 0058 022B     		cmp	r3, #2
 942 005a DBD1     		bne	.L38
 943              	.L131:
 352:/mnt/c/Users/31740/Documents/codes/newcore-rp2350/lib/error.c ****         while (1);
 944              		.loc 1 352 9 is_stmt 1 view .LVU180
 352:/mnt/c/Users/31740/Documents/codes/newcore-rp2350/lib/error.c ****         while (1);
 945              		.loc 1 352 15 view .LVU181
 946 005c FEE7     		b	.L131
 947              	.LVL62:
ARM GAS  /tmp/cczJPWbc.s 			page 39


 948              	.L40:
  76:/mnt/c/Users/31740/Documents/codes/newcore-rp2350/lib/error.c ****         switch (errnum) {
 949              		.loc 1 76 9 view .LVU182
 950 005e 8B34     		adds	r4, r4, #139
 951              	.LVL63:
  76:/mnt/c/Users/31740/Documents/codes/newcore-rp2350/lib/error.c ****         switch (errnum) {
 952              		.loc 1 76 9 is_stmt 0 view .LVU183
 953 0060 8A2C     		cmp	r4, #138
 954 0062 00F2CB82 		bhi	.L42
 955 0066 DFE814F0 		tbh	[pc, r4, lsl #1]
 956              	.L44:
 957 006a C402     		.2byte	(.L129-.L44)/2
 958 006c BF02     		.2byte	(.L128-.L44)/2
 959 006e BA02     		.2byte	(.L127-.L44)/2
 960 0070 B502     		.2byte	(.L126-.L44)/2
 961 0072 B002     		.2byte	(.L125-.L44)/2
 962 0074 AB02     		.2byte	(.L124-.L44)/2
 963 0076 A602     		.2byte	(.L123-.L44)/2
 964 0078 A102     		.2byte	(.L122-.L44)/2
 965 007a 9C02     		.2byte	(.L121-.L44)/2
 966 007c 9702     		.2byte	(.L120-.L44)/2
 967 007e 9202     		.2byte	(.L119-.L44)/2
 968 0080 C902     		.2byte	(.L42-.L44)/2
 969 0082 C902     		.2byte	(.L42-.L44)/2
 970 0084 C902     		.2byte	(.L42-.L44)/2
 971 0086 C902     		.2byte	(.L42-.L44)/2
 972 0088 C902     		.2byte	(.L42-.L44)/2
 973 008a C902     		.2byte	(.L42-.L44)/2
 974 008c C902     		.2byte	(.L42-.L44)/2
 975 008e 8802     		.2byte	(.L118-.L44)/2
 976 0090 8302     		.2byte	(.L117-.L44)/2
 977 0092 EE01     		.2byte	(.L116-.L44)/2
 978 0094 E901     		.2byte	(.L115-.L44)/2
 979 0096 E401     		.2byte	(.L114-.L44)/2
 980 0098 C902     		.2byte	(.L42-.L44)/2
 981 009a C902     		.2byte	(.L42-.L44)/2
 982 009c C902     		.2byte	(.L42-.L44)/2
 983 009e C902     		.2byte	(.L42-.L44)/2
 984 00a0 C902     		.2byte	(.L42-.L44)/2
 985 00a2 C902     		.2byte	(.L42-.L44)/2
 986 00a4 C902     		.2byte	(.L42-.L44)/2
 987 00a6 C902     		.2byte	(.L42-.L44)/2
 988 00a8 C902     		.2byte	(.L42-.L44)/2
 989 00aa C902     		.2byte	(.L42-.L44)/2
 990 00ac C902     		.2byte	(.L42-.L44)/2
 991 00ae C902     		.2byte	(.L42-.L44)/2
 992 00b0 C902     		.2byte	(.L42-.L44)/2
 993 00b2 C902     		.2byte	(.L42-.L44)/2
 994 00b4 C902     		.2byte	(.L42-.L44)/2
 995 00b6 C902     		.2byte	(.L42-.L44)/2
 996 00b8 C902     		.2byte	(.L42-.L44)/2
 997 00ba C902     		.2byte	(.L42-.L44)/2
 998 00bc C902     		.2byte	(.L42-.L44)/2
 999 00be C902     		.2byte	(.L42-.L44)/2
 1000 00c0 C902     		.2byte	(.L42-.L44)/2
 1001 00c2 C902     		.2byte	(.L42-.L44)/2
 1002 00c4 C902     		.2byte	(.L42-.L44)/2
ARM GAS  /tmp/cczJPWbc.s 			page 40


 1003 00c6 C902     		.2byte	(.L42-.L44)/2
 1004 00c8 C902     		.2byte	(.L42-.L44)/2
 1005 00ca C902     		.2byte	(.L42-.L44)/2
 1006 00cc C902     		.2byte	(.L42-.L44)/2
 1007 00ce C902     		.2byte	(.L42-.L44)/2
 1008 00d0 C902     		.2byte	(.L42-.L44)/2
 1009 00d2 C902     		.2byte	(.L42-.L44)/2
 1010 00d4 C902     		.2byte	(.L42-.L44)/2
 1011 00d6 C902     		.2byte	(.L42-.L44)/2
 1012 00d8 C902     		.2byte	(.L42-.L44)/2
 1013 00da C902     		.2byte	(.L42-.L44)/2
 1014 00dc C902     		.2byte	(.L42-.L44)/2
 1015 00de C902     		.2byte	(.L42-.L44)/2
 1016 00e0 C902     		.2byte	(.L42-.L44)/2
 1017 00e2 C902     		.2byte	(.L42-.L44)/2
 1018 00e4 4401     		.2byte	(.L113-.L44)/2
 1019 00e6 3F01     		.2byte	(.L112-.L44)/2
 1020 00e8 C902     		.2byte	(.L42-.L44)/2
 1021 00ea C902     		.2byte	(.L42-.L44)/2
 1022 00ec C902     		.2byte	(.L42-.L44)/2
 1023 00ee C902     		.2byte	(.L42-.L44)/2
 1024 00f0 C902     		.2byte	(.L42-.L44)/2
 1025 00f2 C902     		.2byte	(.L42-.L44)/2
 1026 00f4 DF01     		.2byte	(.L111-.L44)/2
 1027 00f6 8D02     		.2byte	(.L110-.L44)/2
 1028 00f8 C902     		.2byte	(.L42-.L44)/2
 1029 00fa C902     		.2byte	(.L42-.L44)/2
 1030 00fc 4901     		.2byte	(.L109-.L44)/2
 1031 00fe D001     		.2byte	(.L108-.L44)/2
 1032 0100 CB01     		.2byte	(.L107-.L44)/2
 1033 0102 3A01     		.2byte	(.L106-.L44)/2
 1034 0104 4E01     		.2byte	(.L105-.L44)/2
 1035 0106 C601     		.2byte	(.L104-.L44)/2
 1036 0108 C101     		.2byte	(.L103-.L44)/2
 1037 010a BC01     		.2byte	(.L102-.L44)/2
 1038 010c B701     		.2byte	(.L101-.L44)/2
 1039 010e B201     		.2byte	(.L100-.L44)/2
 1040 0110 AD01     		.2byte	(.L99-.L44)/2
 1041 0112 A801     		.2byte	(.L98-.L44)/2
 1042 0114 A301     		.2byte	(.L97-.L44)/2
 1043 0116 9E01     		.2byte	(.L96-.L44)/2
 1044 0118 9901     		.2byte	(.L95-.L44)/2
 1045 011a 9401     		.2byte	(.L94-.L44)/2
 1046 011c 8F01     		.2byte	(.L93-.L44)/2
 1047 011e 8A01     		.2byte	(.L92-.L44)/2
 1048 0120 8501     		.2byte	(.L91-.L44)/2
 1049 0122 8001     		.2byte	(.L90-.L44)/2
 1050 0124 7B01     		.2byte	(.L89-.L44)/2
 1051 0126 7601     		.2byte	(.L88-.L44)/2
 1052 0128 7101     		.2byte	(.L87-.L44)/2
 1053 012a 6C01     		.2byte	(.L86-.L44)/2
 1054 012c 6701     		.2byte	(.L85-.L44)/2
 1055 012e 6201     		.2byte	(.L84-.L44)/2
 1056 0130 5D01     		.2byte	(.L83-.L44)/2
 1057 0132 5801     		.2byte	(.L82-.L44)/2
 1058 0134 5301     		.2byte	(.L81-.L44)/2
 1059 0136 D501     		.2byte	(.L80-.L44)/2
ARM GAS  /tmp/cczJPWbc.s 			page 41


 1060 0138 DA01     		.2byte	(.L79-.L44)/2
 1061 013a BD00     		.2byte	(.L78-.L44)/2
 1062 013c 3001     		.2byte	(.L77-.L44)/2
 1063 013e 2B01     		.2byte	(.L76-.L44)/2
 1064 0140 2601     		.2byte	(.L75-.L44)/2
 1065 0142 2101     		.2byte	(.L74-.L44)/2
 1066 0144 1C01     		.2byte	(.L73-.L44)/2
 1067 0146 1701     		.2byte	(.L72-.L44)/2
 1068 0148 1201     		.2byte	(.L71-.L44)/2
 1069 014a 0D01     		.2byte	(.L70-.L44)/2
 1070 014c 0801     		.2byte	(.L69-.L44)/2
 1071 014e 0301     		.2byte	(.L68-.L44)/2
 1072 0150 FE00     		.2byte	(.L67-.L44)/2
 1073 0152 F900     		.2byte	(.L66-.L44)/2
 1074 0154 F400     		.2byte	(.L65-.L44)/2
 1075 0156 EF00     		.2byte	(.L64-.L44)/2
 1076 0158 EA00     		.2byte	(.L63-.L44)/2
 1077 015a E500     		.2byte	(.L62-.L44)/2
 1078 015c E000     		.2byte	(.L61-.L44)/2
 1079 015e DB00     		.2byte	(.L60-.L44)/2
 1080 0160 D600     		.2byte	(.L59-.L44)/2
 1081 0162 D100     		.2byte	(.L58-.L44)/2
 1082 0164 CC00     		.2byte	(.L57-.L44)/2
 1083 0166 C700     		.2byte	(.L56-.L44)/2
 1084 0168 C200     		.2byte	(.L55-.L44)/2
 1085 016a 3501     		.2byte	(.L54-.L44)/2
 1086 016c B800     		.2byte	(.L53-.L44)/2
 1087 016e B300     		.2byte	(.L52-.L44)/2
 1088 0170 AE00     		.2byte	(.L51-.L44)/2
 1089 0172 A900     		.2byte	(.L50-.L44)/2
 1090 0174 A400     		.2byte	(.L49-.L44)/2
 1091 0176 9F00     		.2byte	(.L48-.L44)/2
 1092 0178 9A00     		.2byte	(.L47-.L44)/2
 1093 017a 9500     		.2byte	(.L46-.L44)/2
 1094 017c 9000     		.2byte	(.L45-.L44)/2
 1095 017e 8B00     		.2byte	(.L43-.L44)/2
 1096              		.p2align 1
 1097              	.L43:
  78:/mnt/c/Users/31740/Documents/codes/newcore-rp2350/lib/error.c ****                 __write_error_message(error, "ERROR: EPERM: Operation not permitted");
 1098              		.loc 1 78 17 is_stmt 1 view .LVU184
 1099 0180 B349     		ldr	r1, .L138
 1100 0182 2846     		mov	r0, r5
 1101 0184 FFF7FEFF 		bl	__write_error_message
 1102              	.LVL64:
  79:/mnt/c/Users/31740/Documents/codes/newcore-rp2350/lib/error.c ****                 break;
 1103              		.loc 1 79 17 view .LVU185
 1104 0188 5DE7     		b	.L41
 1105              	.L45:
  81:/mnt/c/Users/31740/Documents/codes/newcore-rp2350/lib/error.c ****                 __write_error_message(error, "ERROR: ENOENT: No such file or directory");
 1106              		.loc 1 81 17 view .LVU186
 1107 018a B249     		ldr	r1, .L138+4
 1108 018c 2846     		mov	r0, r5
 1109 018e FFF7FEFF 		bl	__write_error_message
 1110              	.LVL65:
  82:/mnt/c/Users/31740/Documents/codes/newcore-rp2350/lib/error.c ****                 break;
 1111              		.loc 1 82 17 view .LVU187
 1112 0192 58E7     		b	.L41
ARM GAS  /tmp/cczJPWbc.s 			page 42


 1113              	.L46:
  84:/mnt/c/Users/31740/Documents/codes/newcore-rp2350/lib/error.c ****                 __write_error_message(error, "ERROR: ESRCH: No such process");
 1114              		.loc 1 84 17 view .LVU188
 1115 0194 B049     		ldr	r1, .L138+8
 1116 0196 2846     		mov	r0, r5
 1117 0198 FFF7FEFF 		bl	__write_error_message
 1118              	.LVL66:
  85:/mnt/c/Users/31740/Documents/codes/newcore-rp2350/lib/error.c ****                 break;
 1119              		.loc 1 85 17 view .LVU189
 1120 019c 53E7     		b	.L41
 1121              	.L47:
  87:/mnt/c/Users/31740/Documents/codes/newcore-rp2350/lib/error.c ****                 __write_error_message(error, "WARN: EINTR: Interrupted system call");
 1122              		.loc 1 87 17 view .LVU190
 1123 019e AF49     		ldr	r1, .L138+12
 1124 01a0 2846     		mov	r0, r5
 1125 01a2 FFF7FEFF 		bl	__write_error_message
 1126              	.LVL67:
  88:/mnt/c/Users/31740/Documents/codes/newcore-rp2350/lib/error.c ****                 break;
 1127              		.loc 1 88 17 view .LVU191
 1128 01a6 4EE7     		b	.L41
 1129              	.L48:
  90:/mnt/c/Users/31740/Documents/codes/newcore-rp2350/lib/error.c ****                 __write_error_message(error, "ERROR: EIO: I/O error");
 1130              		.loc 1 90 17 view .LVU192
 1131 01a8 AD49     		ldr	r1, .L138+16
 1132 01aa 2846     		mov	r0, r5
 1133 01ac FFF7FEFF 		bl	__write_error_message
 1134              	.LVL68:
  91:/mnt/c/Users/31740/Documents/codes/newcore-rp2350/lib/error.c ****                 break;
 1135              		.loc 1 91 17 view .LVU193
 1136 01b0 49E7     		b	.L41
 1137              	.L49:
  93:/mnt/c/Users/31740/Documents/codes/newcore-rp2350/lib/error.c ****                 __write_error_message(error, "ERROR: ENXIO: No such device or address");
 1138              		.loc 1 93 17 view .LVU194
 1139 01b2 AC49     		ldr	r1, .L138+20
 1140 01b4 2846     		mov	r0, r5
 1141 01b6 FFF7FEFF 		bl	__write_error_message
 1142              	.LVL69:
  94:/mnt/c/Users/31740/Documents/codes/newcore-rp2350/lib/error.c ****                 break;
 1143              		.loc 1 94 17 view .LVU195
 1144 01ba 44E7     		b	.L41
 1145              	.L50:
  96:/mnt/c/Users/31740/Documents/codes/newcore-rp2350/lib/error.c ****                 __write_error_message(error, "ERROR: E2BIG: Argument list too long");
 1146              		.loc 1 96 17 view .LVU196
 1147 01bc AA49     		ldr	r1, .L138+24
 1148 01be 2846     		mov	r0, r5
 1149 01c0 FFF7FEFF 		bl	__write_error_message
 1150              	.LVL70:
  97:/mnt/c/Users/31740/Documents/codes/newcore-rp2350/lib/error.c ****                 break;
 1151              		.loc 1 97 17 view .LVU197
 1152 01c4 3FE7     		b	.L41
 1153              	.L51:
  99:/mnt/c/Users/31740/Documents/codes/newcore-rp2350/lib/error.c ****                 __write_error_message(error, "ERROR: ENOEXEC: Exec format error");
 1154              		.loc 1 99 17 view .LVU198
 1155 01c6 A949     		ldr	r1, .L138+28
 1156 01c8 2846     		mov	r0, r5
 1157 01ca FFF7FEFF 		bl	__write_error_message
 1158              	.LVL71:
ARM GAS  /tmp/cczJPWbc.s 			page 43


 100:/mnt/c/Users/31740/Documents/codes/newcore-rp2350/lib/error.c ****                 break;
 1159              		.loc 1 100 17 view .LVU199
 1160 01ce 3AE7     		b	.L41
 1161              	.L52:
 102:/mnt/c/Users/31740/Documents/codes/newcore-rp2350/lib/error.c ****                 __write_error_message(error, "ERROR: EBADF: Bad file descriptor");
 1162              		.loc 1 102 17 view .LVU200
 1163 01d0 A749     		ldr	r1, .L138+32
 1164 01d2 2846     		mov	r0, r5
 1165 01d4 FFF7FEFF 		bl	__write_error_message
 1166              	.LVL72:
 103:/mnt/c/Users/31740/Documents/codes/newcore-rp2350/lib/error.c ****                 break;
 1167              		.loc 1 103 17 view .LVU201
 1168 01d8 35E7     		b	.L41
 1169              	.L53:
 105:/mnt/c/Users/31740/Documents/codes/newcore-rp2350/lib/error.c ****                 __write_error_message(error, "ERROR: ECHILD: No child processes");
 1170              		.loc 1 105 17 view .LVU202
 1171 01da A649     		ldr	r1, .L138+36
 1172 01dc 2846     		mov	r0, r5
 1173 01de FFF7FEFF 		bl	__write_error_message
 1174              	.LVL73:
 106:/mnt/c/Users/31740/Documents/codes/newcore-rp2350/lib/error.c ****                 break;
 1175              		.loc 1 106 17 view .LVU203
 1176 01e2 30E7     		b	.L41
 1177              	.L78:
 108:/mnt/c/Users/31740/Documents/codes/newcore-rp2350/lib/error.c ****                 __write_error_message(error, "WARN: EAGAIN: Resource temporarily unavailable");
 1178              		.loc 1 108 17 view .LVU204
 1179 01e4 A449     		ldr	r1, .L138+40
 1180 01e6 2846     		mov	r0, r5
 1181 01e8 FFF7FEFF 		bl	__write_error_message
 1182              	.LVL74:
 109:/mnt/c/Users/31740/Documents/codes/newcore-rp2350/lib/error.c ****                 break;
 1183              		.loc 1 109 17 view .LVU205
 1184 01ec 2BE7     		b	.L41
 1185              	.L55:
 111:/mnt/c/Users/31740/Documents/codes/newcore-rp2350/lib/error.c ****                 __write_error_message(error, "ERROR: ENOMEM: Out of memory");
 1186              		.loc 1 111 17 view .LVU206
 1187 01ee A349     		ldr	r1, .L138+44
 1188 01f0 2846     		mov	r0, r5
 1189 01f2 FFF7FEFF 		bl	__write_error_message
 1190              	.LVL75:
 112:/mnt/c/Users/31740/Documents/codes/newcore-rp2350/lib/error.c ****                 break;
 1191              		.loc 1 112 17 view .LVU207
 1192 01f6 26E7     		b	.L41
 1193              	.L56:
 114:/mnt/c/Users/31740/Documents/codes/newcore-rp2350/lib/error.c ****                 __write_error_message(error, "ERROR: EACCES: Permission denied");
 1194              		.loc 1 114 17 view .LVU208
 1195 01f8 A149     		ldr	r1, .L138+48
 1196 01fa 2846     		mov	r0, r5
 1197 01fc FFF7FEFF 		bl	__write_error_message
 1198              	.LVL76:
 115:/mnt/c/Users/31740/Documents/codes/newcore-rp2350/lib/error.c ****                 break;
 1199              		.loc 1 115 17 view .LVU209
 1200 0200 21E7     		b	.L41
 1201              	.L57:
 117:/mnt/c/Users/31740/Documents/codes/newcore-rp2350/lib/error.c ****                 __write_error_message(error, "ERROR: EFAULT: Bad address");
 1202              		.loc 1 117 17 view .LVU210
 1203 0202 A049     		ldr	r1, .L138+52
ARM GAS  /tmp/cczJPWbc.s 			page 44


 1204 0204 2846     		mov	r0, r5
 1205 0206 FFF7FEFF 		bl	__write_error_message
 1206              	.LVL77:
 118:/mnt/c/Users/31740/Documents/codes/newcore-rp2350/lib/error.c ****                 break;
 1207              		.loc 1 118 17 view .LVU211
 1208 020a 1CE7     		b	.L41
 1209              	.L58:
 120:/mnt/c/Users/31740/Documents/codes/newcore-rp2350/lib/error.c ****                 __write_error_message(error, "ERROR: ENOTBLK: Block device required");
 1210              		.loc 1 120 17 view .LVU212
 1211 020c 9E49     		ldr	r1, .L138+56
 1212 020e 2846     		mov	r0, r5
 1213 0210 FFF7FEFF 		bl	__write_error_message
 1214              	.LVL78:
 121:/mnt/c/Users/31740/Documents/codes/newcore-rp2350/lib/error.c ****                 break;
 1215              		.loc 1 121 17 view .LVU213
 1216 0214 17E7     		b	.L41
 1217              	.L59:
 123:/mnt/c/Users/31740/Documents/codes/newcore-rp2350/lib/error.c ****                 __write_error_message(error, "ERROR: EBUSY: Device or resource busy");
 1218              		.loc 1 123 17 view .LVU214
 1219 0216 9D49     		ldr	r1, .L138+60
 1220 0218 2846     		mov	r0, r5
 1221 021a FFF7FEFF 		bl	__write_error_message
 1222              	.LVL79:
 124:/mnt/c/Users/31740/Documents/codes/newcore-rp2350/lib/error.c ****                 break;
 1223              		.loc 1 124 17 view .LVU215
 1224 021e 12E7     		b	.L41
 1225              	.L60:
 126:/mnt/c/Users/31740/Documents/codes/newcore-rp2350/lib/error.c ****                 __write_error_message(error, "ERROR: EEXIST: File exists");
 1226              		.loc 1 126 17 view .LVU216
 1227 0220 9B49     		ldr	r1, .L138+64
 1228 0222 2846     		mov	r0, r5
 1229 0224 FFF7FEFF 		bl	__write_error_message
 1230              	.LVL80:
 127:/mnt/c/Users/31740/Documents/codes/newcore-rp2350/lib/error.c ****                 break;
 1231              		.loc 1 127 17 view .LVU217
 1232 0228 0DE7     		b	.L41
 1233              	.L61:
 129:/mnt/c/Users/31740/Documents/codes/newcore-rp2350/lib/error.c ****                 __write_error_message(error, "ERROR: EXDEV: Cross-device link");
 1234              		.loc 1 129 17 view .LVU218
 1235 022a 9A49     		ldr	r1, .L138+68
 1236 022c 2846     		mov	r0, r5
 1237 022e FFF7FEFF 		bl	__write_error_message
 1238              	.LVL81:
 130:/mnt/c/Users/31740/Documents/codes/newcore-rp2350/lib/error.c ****                 break;
 1239              		.loc 1 130 17 view .LVU219
 1240 0232 08E7     		b	.L41
 1241              	.L62:
 132:/mnt/c/Users/31740/Documents/codes/newcore-rp2350/lib/error.c ****                 __write_error_message(error, "ERROR: ENODEV: No such device");
 1242              		.loc 1 132 17 view .LVU220
 1243 0234 9849     		ldr	r1, .L138+72
 1244 0236 2846     		mov	r0, r5
 1245 0238 FFF7FEFF 		bl	__write_error_message
 1246              	.LVL82:
 133:/mnt/c/Users/31740/Documents/codes/newcore-rp2350/lib/error.c ****                 break;
 1247              		.loc 1 133 17 view .LVU221
 1248 023c 03E7     		b	.L41
 1249              	.L63:
ARM GAS  /tmp/cczJPWbc.s 			page 45


 135:/mnt/c/Users/31740/Documents/codes/newcore-rp2350/lib/error.c ****                 __write_error_message(error, "ERROR: ENOTDIR: Not a directory");
 1250              		.loc 1 135 17 view .LVU222
 1251 023e 9749     		ldr	r1, .L138+76
 1252 0240 2846     		mov	r0, r5
 1253 0242 FFF7FEFF 		bl	__write_error_message
 1254              	.LVL83:
 136:/mnt/c/Users/31740/Documents/codes/newcore-rp2350/lib/error.c ****                 break;
 1255              		.loc 1 136 17 view .LVU223
 1256 0246 FEE6     		b	.L41
 1257              	.L64:
 138:/mnt/c/Users/31740/Documents/codes/newcore-rp2350/lib/error.c ****                 __write_error_message(error, "ERROR: EISDIR: Is a directory");
 1258              		.loc 1 138 17 view .LVU224
 1259 0248 9549     		ldr	r1, .L138+80
 1260 024a 2846     		mov	r0, r5
 1261 024c FFF7FEFF 		bl	__write_error_message
 1262              	.LVL84:
 139:/mnt/c/Users/31740/Documents/codes/newcore-rp2350/lib/error.c ****                 break;
 1263              		.loc 1 139 17 view .LVU225
 1264 0250 F9E6     		b	.L41
 1265              	.L65:
 141:/mnt/c/Users/31740/Documents/codes/newcore-rp2350/lib/error.c ****                 __write_error_message(error, "ERROR: EINVAL: Invalid argument");
 1266              		.loc 1 141 17 view .LVU226
 1267 0252 9449     		ldr	r1, .L138+84
 1268 0254 2846     		mov	r0, r5
 1269 0256 FFF7FEFF 		bl	__write_error_message
 1270              	.LVL85:
 142:/mnt/c/Users/31740/Documents/codes/newcore-rp2350/lib/error.c ****                 break;
 1271              		.loc 1 142 17 view .LVU227
 1272 025a F4E6     		b	.L41
 1273              	.L66:
 144:/mnt/c/Users/31740/Documents/codes/newcore-rp2350/lib/error.c ****                 __write_error_message(error, "ERROR: ENFILE: File table overflow");
 1274              		.loc 1 144 17 view .LVU228
 1275 025c 9249     		ldr	r1, .L138+88
 1276 025e 2846     		mov	r0, r5
 1277 0260 FFF7FEFF 		bl	__write_error_message
 1278              	.LVL86:
 145:/mnt/c/Users/31740/Documents/codes/newcore-rp2350/lib/error.c ****                 break;
 1279              		.loc 1 145 17 view .LVU229
 1280 0264 EFE6     		b	.L41
 1281              	.L67:
 147:/mnt/c/Users/31740/Documents/codes/newcore-rp2350/lib/error.c ****                 __write_error_message(error, "ERROR: EMFILE: Too many open files");
 1282              		.loc 1 147 17 view .LVU230
 1283 0266 9149     		ldr	r1, .L138+92
 1284 0268 2846     		mov	r0, r5
 1285 026a FFF7FEFF 		bl	__write_error_message
 1286              	.LVL87:
 148:/mnt/c/Users/31740/Documents/codes/newcore-rp2350/lib/error.c ****                 break;
 1287              		.loc 1 148 17 view .LVU231
 1288 026e EAE6     		b	.L41
 1289              	.L68:
 150:/mnt/c/Users/31740/Documents/codes/newcore-rp2350/lib/error.c ****                 __write_error_message(error, "ERROR: ENOTTY: Not a terminal");
 1290              		.loc 1 150 17 view .LVU232
 1291 0270 8F49     		ldr	r1, .L138+96
 1292 0272 2846     		mov	r0, r5
 1293 0274 FFF7FEFF 		bl	__write_error_message
 1294              	.LVL88:
 151:/mnt/c/Users/31740/Documents/codes/newcore-rp2350/lib/error.c ****                 break;
ARM GAS  /tmp/cczJPWbc.s 			page 46


 1295              		.loc 1 151 17 view .LVU233
 1296 0278 E5E6     		b	.L41
 1297              	.L69:
 153:/mnt/c/Users/31740/Documents/codes/newcore-rp2350/lib/error.c ****                 __write_error_message(error, "ERROR: ETXTBSY: Text file busy");
 1298              		.loc 1 153 17 view .LVU234
 1299 027a 8E49     		ldr	r1, .L138+100
 1300 027c 2846     		mov	r0, r5
 1301 027e FFF7FEFF 		bl	__write_error_message
 1302              	.LVL89:
 154:/mnt/c/Users/31740/Documents/codes/newcore-rp2350/lib/error.c ****                 break;
 1303              		.loc 1 154 17 view .LVU235
 1304 0282 E0E6     		b	.L41
 1305              	.L70:
 156:/mnt/c/Users/31740/Documents/codes/newcore-rp2350/lib/error.c ****                 __write_error_message(error, "ERROR: EFBIG: File too large");
 1306              		.loc 1 156 17 view .LVU236
 1307 0284 8C49     		ldr	r1, .L138+104
 1308 0286 2846     		mov	r0, r5
 1309 0288 FFF7FEFF 		bl	__write_error_message
 1310              	.LVL90:
 157:/mnt/c/Users/31740/Documents/codes/newcore-rp2350/lib/error.c ****                 break;
 1311              		.loc 1 157 17 view .LVU237
 1312 028c DBE6     		b	.L41
 1313              	.L71:
 159:/mnt/c/Users/31740/Documents/codes/newcore-rp2350/lib/error.c ****                 __write_error_message(error, "ERROR: ENOSPC: No space left on device");
 1314              		.loc 1 159 17 view .LVU238
 1315 028e 8B49     		ldr	r1, .L138+108
 1316 0290 2846     		mov	r0, r5
 1317 0292 FFF7FEFF 		bl	__write_error_message
 1318              	.LVL91:
 160:/mnt/c/Users/31740/Documents/codes/newcore-rp2350/lib/error.c ****                 break;
 1319              		.loc 1 160 17 view .LVU239
 1320 0296 D6E6     		b	.L41
 1321              	.L72:
 162:/mnt/c/Users/31740/Documents/codes/newcore-rp2350/lib/error.c ****                 __write_error_message(error, "ERROR: ESPIPE: Illegal seek");
 1322              		.loc 1 162 17 view .LVU240
 1323 0298 8949     		ldr	r1, .L138+112
 1324 029a 2846     		mov	r0, r5
 1325 029c FFF7FEFF 		bl	__write_error_message
 1326              	.LVL92:
 163:/mnt/c/Users/31740/Documents/codes/newcore-rp2350/lib/error.c ****                 break;
 1327              		.loc 1 163 17 view .LVU241
 1328 02a0 D1E6     		b	.L41
 1329              	.L73:
 165:/mnt/c/Users/31740/Documents/codes/newcore-rp2350/lib/error.c ****                 __write_error_message(error, "ERROR: EROFS: Read-only file system");
 1330              		.loc 1 165 17 view .LVU242
 1331 02a2 8849     		ldr	r1, .L138+116
 1332 02a4 2846     		mov	r0, r5
 1333 02a6 FFF7FEFF 		bl	__write_error_message
 1334              	.LVL93:
 166:/mnt/c/Users/31740/Documents/codes/newcore-rp2350/lib/error.c ****                 break;
 1335              		.loc 1 166 17 view .LVU243
 1336 02aa CCE6     		b	.L41
 1337              	.L74:
 168:/mnt/c/Users/31740/Documents/codes/newcore-rp2350/lib/error.c ****                 __write_error_message(error, "ERROR: EMLINK: Too many links");
 1338              		.loc 1 168 17 view .LVU244
 1339 02ac 8649     		ldr	r1, .L138+120
 1340 02ae 2846     		mov	r0, r5
ARM GAS  /tmp/cczJPWbc.s 			page 47


 1341 02b0 FFF7FEFF 		bl	__write_error_message
 1342              	.LVL94:
 169:/mnt/c/Users/31740/Documents/codes/newcore-rp2350/lib/error.c ****                 break;
 1343              		.loc 1 169 17 view .LVU245
 1344 02b4 C7E6     		b	.L41
 1345              	.L75:
 171:/mnt/c/Users/31740/Documents/codes/newcore-rp2350/lib/error.c ****                 __write_error_message(error, "ERROR: EPIPE: Broken pipe");
 1346              		.loc 1 171 17 view .LVU246
 1347 02b6 8549     		ldr	r1, .L138+124
 1348 02b8 2846     		mov	r0, r5
 1349 02ba FFF7FEFF 		bl	__write_error_message
 1350              	.LVL95:
 172:/mnt/c/Users/31740/Documents/codes/newcore-rp2350/lib/error.c ****                 break;
 1351              		.loc 1 172 17 view .LVU247
 1352 02be C2E6     		b	.L41
 1353              	.L76:
 174:/mnt/c/Users/31740/Documents/codes/newcore-rp2350/lib/error.c ****                 __write_error_message(error, "ERROR: EDOM: Math argument out of domain");
 1354              		.loc 1 174 17 view .LVU248
 1355 02c0 8349     		ldr	r1, .L138+128
 1356 02c2 2846     		mov	r0, r5
 1357 02c4 FFF7FEFF 		bl	__write_error_message
 1358              	.LVL96:
 175:/mnt/c/Users/31740/Documents/codes/newcore-rp2350/lib/error.c ****                 break;
 1359              		.loc 1 175 17 view .LVU249
 1360 02c8 BDE6     		b	.L41
 1361              	.L77:
 177:/mnt/c/Users/31740/Documents/codes/newcore-rp2350/lib/error.c ****                 __write_error_message(error, "ERROR: ERANGE: Math result not representable");
 1362              		.loc 1 177 17 view .LVU250
 1363 02ca 8249     		ldr	r1, .L138+132
 1364 02cc 2846     		mov	r0, r5
 1365 02ce FFF7FEFF 		bl	__write_error_message
 1366              	.LVL97:
 178:/mnt/c/Users/31740/Documents/codes/newcore-rp2350/lib/error.c ****                 break;
 1367              		.loc 1 178 17 view .LVU251
 1368 02d2 B8E6     		b	.L41
 1369              	.L54:
 182:/mnt/c/Users/31740/Documents/codes/newcore-rp2350/lib/error.c ****                 __write_error_message(error, "ERROR: EDEADLK: Resource deadlock would occur");
 1370              		.loc 1 182 17 view .LVU252
 1371 02d4 8049     		ldr	r1, .L138+136
 1372 02d6 2846     		mov	r0, r5
 1373 02d8 FFF7FEFF 		bl	__write_error_message
 1374              	.LVL98:
 183:/mnt/c/Users/31740/Documents/codes/newcore-rp2350/lib/error.c ****                 break;
 1375              		.loc 1 183 17 view .LVU253
 1376 02dc B3E6     		b	.L41
 1377              	.L106:
 185:/mnt/c/Users/31740/Documents/codes/newcore-rp2350/lib/error.c ****                 __write_error_message(error, "ERROR: ENAMETOOLONG: File name too long");
 1378              		.loc 1 185 17 view .LVU254
 1379 02de 7F49     		ldr	r1, .L138+140
 1380 02e0 2846     		mov	r0, r5
 1381 02e2 FFF7FEFF 		bl	__write_error_message
 1382              	.LVL99:
 186:/mnt/c/Users/31740/Documents/codes/newcore-rp2350/lib/error.c ****                 break;
 1383              		.loc 1 186 17 view .LVU255
 1384 02e6 AEE6     		b	.L41
 1385              	.L112:
 188:/mnt/c/Users/31740/Documents/codes/newcore-rp2350/lib/error.c ****                 __write_error_message(error, "ERROR: ENOLCK: No record locks available");
ARM GAS  /tmp/cczJPWbc.s 			page 48


 1386              		.loc 1 188 17 view .LVU256
 1387 02e8 7D49     		ldr	r1, .L138+144
 1388 02ea 2846     		mov	r0, r5
 1389 02ec FFF7FEFF 		bl	__write_error_message
 1390              	.LVL100:
 189:/mnt/c/Users/31740/Documents/codes/newcore-rp2350/lib/error.c ****                 break;
 1391              		.loc 1 189 17 view .LVU257
 1392 02f0 A9E6     		b	.L41
 1393              	.L113:
 191:/mnt/c/Users/31740/Documents/codes/newcore-rp2350/lib/error.c ****                 __write_error_message(error, "ERROR: ENOSYS: Function not implemented");
 1394              		.loc 1 191 17 view .LVU258
 1395 02f2 7C49     		ldr	r1, .L138+148
 1396 02f4 2846     		mov	r0, r5
 1397 02f6 FFF7FEFF 		bl	__write_error_message
 1398              	.LVL101:
 192:/mnt/c/Users/31740/Documents/codes/newcore-rp2350/lib/error.c ****                 break;
 1399              		.loc 1 192 17 view .LVU259
 1400 02fa A4E6     		b	.L41
 1401              	.L109:
 194:/mnt/c/Users/31740/Documents/codes/newcore-rp2350/lib/error.c ****                 __write_error_message(error, "ERROR: ENOTEMPTY: Directory not empty");
 1402              		.loc 1 194 17 view .LVU260
 1403 02fc 7A49     		ldr	r1, .L138+152
 1404 02fe 2846     		mov	r0, r5
 1405 0300 FFF7FEFF 		bl	__write_error_message
 1406              	.LVL102:
 195:/mnt/c/Users/31740/Documents/codes/newcore-rp2350/lib/error.c ****                 break;
 1407              		.loc 1 195 17 view .LVU261
 1408 0304 9FE6     		b	.L41
 1409              	.L105:
 197:/mnt/c/Users/31740/Documents/codes/newcore-rp2350/lib/error.c ****                 __write_error_message(error, "ERROR: ELOOP: Too many symbolic links encountered");
 1410              		.loc 1 197 17 view .LVU262
 1411 0306 7949     		ldr	r1, .L138+156
 1412 0308 2846     		mov	r0, r5
 1413 030a FFF7FEFF 		bl	__write_error_message
 1414              	.LVL103:
 198:/mnt/c/Users/31740/Documents/codes/newcore-rp2350/lib/error.c ****                 break;
 1415              		.loc 1 198 17 view .LVU263
 1416 030e 9AE6     		b	.L41
 1417              	.L81:
 201:/mnt/c/Users/31740/Documents/codes/newcore-rp2350/lib/error.c ****                 __write_error_message(error, "ERROR: ENOTSOCK: Socket operation on non-socket");
 1418              		.loc 1 201 17 view .LVU264
 1419 0310 7749     		ldr	r1, .L138+160
 1420 0312 2846     		mov	r0, r5
 1421 0314 FFF7FEFF 		bl	__write_error_message
 1422              	.LVL104:
 202:/mnt/c/Users/31740/Documents/codes/newcore-rp2350/lib/error.c ****                 break;
 1423              		.loc 1 202 17 view .LVU265
 1424 0318 95E6     		b	.L41
 1425              	.L82:
 204:/mnt/c/Users/31740/Documents/codes/newcore-rp2350/lib/error.c ****                 __write_error_message(error, "ERROR: EDESTADDRREQ: Destination address required");
 1426              		.loc 1 204 17 view .LVU266
 1427 031a 7649     		ldr	r1, .L138+164
 1428 031c 2846     		mov	r0, r5
 1429 031e FFF7FEFF 		bl	__write_error_message
 1430              	.LVL105:
 205:/mnt/c/Users/31740/Documents/codes/newcore-rp2350/lib/error.c ****                 break;
 1431              		.loc 1 205 17 view .LVU267
ARM GAS  /tmp/cczJPWbc.s 			page 49


 1432 0322 90E6     		b	.L41
 1433              	.L83:
 207:/mnt/c/Users/31740/Documents/codes/newcore-rp2350/lib/error.c ****                 __write_error_message(error, "ERROR: EMSGSIZE: Message too long");
 1434              		.loc 1 207 17 view .LVU268
 1435 0324 7449     		ldr	r1, .L138+168
 1436 0326 2846     		mov	r0, r5
 1437 0328 FFF7FEFF 		bl	__write_error_message
 1438              	.LVL106:
 208:/mnt/c/Users/31740/Documents/codes/newcore-rp2350/lib/error.c ****                 break;
 1439              		.loc 1 208 17 view .LVU269
 1440 032c 8BE6     		b	.L41
 1441              	.L84:
 210:/mnt/c/Users/31740/Documents/codes/newcore-rp2350/lib/error.c ****                 __write_error_message(error, "ERROR: EPROTOTYPE: Protocol wrong type for socket");
 1442              		.loc 1 210 17 view .LVU270
 1443 032e 7349     		ldr	r1, .L138+172
 1444 0330 2846     		mov	r0, r5
 1445 0332 FFF7FEFF 		bl	__write_error_message
 1446              	.LVL107:
 211:/mnt/c/Users/31740/Documents/codes/newcore-rp2350/lib/error.c ****                 break;
 1447              		.loc 1 211 17 view .LVU271
 1448 0336 86E6     		b	.L41
 1449              	.L85:
 213:/mnt/c/Users/31740/Documents/codes/newcore-rp2350/lib/error.c ****                 __write_error_message(error, "ERROR: ENOPROTOOPT: Protocol not available");
 1450              		.loc 1 213 17 view .LVU272
 1451 0338 7149     		ldr	r1, .L138+176
 1452 033a 2846     		mov	r0, r5
 1453 033c FFF7FEFF 		bl	__write_error_message
 1454              	.LVL108:
 214:/mnt/c/Users/31740/Documents/codes/newcore-rp2350/lib/error.c ****                 break;
 1455              		.loc 1 214 17 view .LVU273
 1456 0340 81E6     		b	.L41
 1457              	.L86:
 216:/mnt/c/Users/31740/Documents/codes/newcore-rp2350/lib/error.c ****                 __write_error_message(error, "ERROR: EPROTONOSUPPORT: Protocol not supported");
 1458              		.loc 1 216 17 view .LVU274
 1459 0342 7049     		ldr	r1, .L138+180
 1460 0344 2846     		mov	r0, r5
 1461 0346 FFF7FEFF 		bl	__write_error_message
 1462              	.LVL109:
 217:/mnt/c/Users/31740/Documents/codes/newcore-rp2350/lib/error.c ****                 break;
 1463              		.loc 1 217 17 view .LVU275
 1464 034a 7CE6     		b	.L41
 1465              	.L87:
 219:/mnt/c/Users/31740/Documents/codes/newcore-rp2350/lib/error.c ****                 __write_error_message(error, "ERROR: ESOCKTNOSUPPORT: Socket type not supported");
 1466              		.loc 1 219 17 view .LVU276
 1467 034c 6E49     		ldr	r1, .L138+184
 1468 034e 2846     		mov	r0, r5
 1469 0350 FFF7FEFF 		bl	__write_error_message
 1470              	.LVL110:
 220:/mnt/c/Users/31740/Documents/codes/newcore-rp2350/lib/error.c ****                 break;
 1471              		.loc 1 220 17 view .LVU277
 1472 0354 77E6     		b	.L41
 1473              	.L88:
 222:/mnt/c/Users/31740/Documents/codes/newcore-rp2350/lib/error.c ****                 __write_error_message(error, "ERROR: EOPNOTSUPP: Operation not supported");
 1474              		.loc 1 222 17 view .LVU278
 1475 0356 6D49     		ldr	r1, .L138+188
 1476 0358 2846     		mov	r0, r5
 1477 035a FFF7FEFF 		bl	__write_error_message
ARM GAS  /tmp/cczJPWbc.s 			page 50


 1478              	.LVL111:
 223:/mnt/c/Users/31740/Documents/codes/newcore-rp2350/lib/error.c ****                 break;
 1479              		.loc 1 223 17 view .LVU279
 1480 035e 72E6     		b	.L41
 1481              	.L89:
 225:/mnt/c/Users/31740/Documents/codes/newcore-rp2350/lib/error.c ****                 __write_error_message(error, "ERROR: EPFNOSUPPORT: Protocol family not supported");
 1482              		.loc 1 225 17 view .LVU280
 1483 0360 6B49     		ldr	r1, .L138+192
 1484 0362 2846     		mov	r0, r5
 1485 0364 FFF7FEFF 		bl	__write_error_message
 1486              	.LVL112:
 226:/mnt/c/Users/31740/Documents/codes/newcore-rp2350/lib/error.c ****                 break;
 1487              		.loc 1 226 17 view .LVU281
 1488 0368 6DE6     		b	.L41
 1489              	.L90:
 228:/mnt/c/Users/31740/Documents/codes/newcore-rp2350/lib/error.c ****                 __write_error_message(error, "ERROR: EAFNOSUPPORT: Address family not supported");
 1490              		.loc 1 228 17 view .LVU282
 1491 036a 6A49     		ldr	r1, .L138+196
 1492 036c 2846     		mov	r0, r5
 1493 036e FFF7FEFF 		bl	__write_error_message
 1494              	.LVL113:
 229:/mnt/c/Users/31740/Documents/codes/newcore-rp2350/lib/error.c ****                 break;
 1495              		.loc 1 229 17 view .LVU283
 1496 0372 68E6     		b	.L41
 1497              	.L91:
 231:/mnt/c/Users/31740/Documents/codes/newcore-rp2350/lib/error.c ****                 __write_error_message(error, "ERROR: EADDRINUSE: Address already in use");
 1498              		.loc 1 231 17 view .LVU284
 1499 0374 6849     		ldr	r1, .L138+200
 1500 0376 2846     		mov	r0, r5
 1501 0378 FFF7FEFF 		bl	__write_error_message
 1502              	.LVL114:
 232:/mnt/c/Users/31740/Documents/codes/newcore-rp2350/lib/error.c ****                 break;
 1503              		.loc 1 232 17 view .LVU285
 1504 037c 63E6     		b	.L41
 1505              	.L92:
 234:/mnt/c/Users/31740/Documents/codes/newcore-rp2350/lib/error.c ****                 __write_error_message(error, "ERROR: EADDRNOTAVAIL: Cannot assign requested address
 1506              		.loc 1 234 17 view .LVU286
 1507 037e 6749     		ldr	r1, .L138+204
 1508 0380 2846     		mov	r0, r5
 1509 0382 FFF7FEFF 		bl	__write_error_message
 1510              	.LVL115:
 235:/mnt/c/Users/31740/Documents/codes/newcore-rp2350/lib/error.c ****                 break;
 1511              		.loc 1 235 17 view .LVU287
 1512 0386 5EE6     		b	.L41
 1513              	.L93:
 237:/mnt/c/Users/31740/Documents/codes/newcore-rp2350/lib/error.c ****                 __write_error_message(error, "ERROR: ENETDOWN: Network is down");
 1514              		.loc 1 237 17 view .LVU288
 1515 0388 6549     		ldr	r1, .L138+208
 1516 038a 2846     		mov	r0, r5
 1517 038c FFF7FEFF 		bl	__write_error_message
 1518              	.LVL116:
 238:/mnt/c/Users/31740/Documents/codes/newcore-rp2350/lib/error.c ****                 break;
 1519              		.loc 1 238 17 view .LVU289
 1520 0390 59E6     		b	.L41
 1521              	.L94:
 240:/mnt/c/Users/31740/Documents/codes/newcore-rp2350/lib/error.c ****                 __write_error_message(error, "ERROR: ENETUNREACH: Network is unreachable");
 1522              		.loc 1 240 17 view .LVU290
ARM GAS  /tmp/cczJPWbc.s 			page 51


 1523 0392 6449     		ldr	r1, .L138+212
 1524 0394 2846     		mov	r0, r5
 1525 0396 FFF7FEFF 		bl	__write_error_message
 1526              	.LVL117:
 241:/mnt/c/Users/31740/Documents/codes/newcore-rp2350/lib/error.c ****                 break;
 1527              		.loc 1 241 17 view .LVU291
 1528 039a 54E6     		b	.L41
 1529              	.L95:
 243:/mnt/c/Users/31740/Documents/codes/newcore-rp2350/lib/error.c ****                 __write_error_message(error, "ERROR: ENETRESET: Network dropped connection on reset
 1530              		.loc 1 243 17 view .LVU292
 1531 039c 6249     		ldr	r1, .L138+216
 1532 039e 2846     		mov	r0, r5
 1533 03a0 FFF7FEFF 		bl	__write_error_message
 1534              	.LVL118:
 244:/mnt/c/Users/31740/Documents/codes/newcore-rp2350/lib/error.c ****                 break;
 1535              		.loc 1 244 17 view .LVU293
 1536 03a4 4FE6     		b	.L41
 1537              	.L96:
 246:/mnt/c/Users/31740/Documents/codes/newcore-rp2350/lib/error.c ****                 __write_error_message(error, "ERROR: ECONNABORTED: Software caused connection abort
 1538              		.loc 1 246 17 view .LVU294
 1539 03a6 6149     		ldr	r1, .L138+220
 1540 03a8 2846     		mov	r0, r5
 1541 03aa FFF7FEFF 		bl	__write_error_message
 1542              	.LVL119:
 247:/mnt/c/Users/31740/Documents/codes/newcore-rp2350/lib/error.c ****                 break;
 1543              		.loc 1 247 17 view .LVU295
 1544 03ae 4AE6     		b	.L41
 1545              	.L97:
 249:/mnt/c/Users/31740/Documents/codes/newcore-rp2350/lib/error.c ****                 __write_error_message(error, "ERROR: ECONNRESET: Connection reset by peer");
 1546              		.loc 1 249 17 view .LVU296
 1547 03b0 5F49     		ldr	r1, .L138+224
 1548 03b2 2846     		mov	r0, r5
 1549 03b4 FFF7FEFF 		bl	__write_error_message
 1550              	.LVL120:
 250:/mnt/c/Users/31740/Documents/codes/newcore-rp2350/lib/error.c ****                 break;
 1551              		.loc 1 250 17 view .LVU297
 1552 03b8 45E6     		b	.L41
 1553              	.L98:
 252:/mnt/c/Users/31740/Documents/codes/newcore-rp2350/lib/error.c ****                 __write_error_message(error, "ERROR: ENOBUFS: No buffer space available");
 1554              		.loc 1 252 17 view .LVU298
 1555 03ba 5E49     		ldr	r1, .L138+228
 1556 03bc 2846     		mov	r0, r5
 1557 03be FFF7FEFF 		bl	__write_error_message
 1558              	.LVL121:
 253:/mnt/c/Users/31740/Documents/codes/newcore-rp2350/lib/error.c ****                 break;
 1559              		.loc 1 253 17 view .LVU299
 1560 03c2 40E6     		b	.L41
 1561              	.L99:
 255:/mnt/c/Users/31740/Documents/codes/newcore-rp2350/lib/error.c ****                 __write_error_message(error, "ERROR: EISCONN: Transport endpoint is already connect
 1562              		.loc 1 255 17 view .LVU300
 1563 03c4 5C49     		ldr	r1, .L138+232
 1564 03c6 2846     		mov	r0, r5
 1565 03c8 FFF7FEFF 		bl	__write_error_message
 1566              	.LVL122:
 256:/mnt/c/Users/31740/Documents/codes/newcore-rp2350/lib/error.c ****                 break;
 1567              		.loc 1 256 17 view .LVU301
 1568 03cc 3BE6     		b	.L41
ARM GAS  /tmp/cczJPWbc.s 			page 52


 1569              	.L100:
 258:/mnt/c/Users/31740/Documents/codes/newcore-rp2350/lib/error.c ****                 __write_error_message(error, "ERROR: ENOTCONN: Transport endpoint is not connected"
 1570              		.loc 1 258 17 view .LVU302
 1571 03ce 5B49     		ldr	r1, .L138+236
 1572 03d0 2846     		mov	r0, r5
 1573 03d2 FFF7FEFF 		bl	__write_error_message
 1574              	.LVL123:
 259:/mnt/c/Users/31740/Documents/codes/newcore-rp2350/lib/error.c ****                 break;
 1575              		.loc 1 259 17 view .LVU303
 1576 03d6 36E6     		b	.L41
 1577              	.L101:
 261:/mnt/c/Users/31740/Documents/codes/newcore-rp2350/lib/error.c ****                 __write_error_message(error, "ERROR: ESHUTDOWN: Cannot send after transport endpoin
 1578              		.loc 1 261 17 view .LVU304
 1579 03d8 5949     		ldr	r1, .L138+240
 1580 03da 2846     		mov	r0, r5
 1581 03dc FFF7FEFF 		bl	__write_error_message
 1582              	.LVL124:
 262:/mnt/c/Users/31740/Documents/codes/newcore-rp2350/lib/error.c ****                 break;
 1583              		.loc 1 262 17 view .LVU305
 1584 03e0 31E6     		b	.L41
 1585              	.L102:
 264:/mnt/c/Users/31740/Documents/codes/newcore-rp2350/lib/error.c ****                 __write_error_message(error, "ERROR: ETOOMANYREFS: Too many references");
 1586              		.loc 1 264 17 view .LVU306
 1587 03e2 5849     		ldr	r1, .L138+244
 1588 03e4 2846     		mov	r0, r5
 1589 03e6 FFF7FEFF 		bl	__write_error_message
 1590              	.LVL125:
 265:/mnt/c/Users/31740/Documents/codes/newcore-rp2350/lib/error.c ****                 break;
 1591              		.loc 1 265 17 view .LVU307
 1592 03ea 2CE6     		b	.L41
 1593              	.L103:
 267:/mnt/c/Users/31740/Documents/codes/newcore-rp2350/lib/error.c ****                 __write_error_message(error, "ERROR: ETIMEDOUT: Connection timed out");
 1594              		.loc 1 267 17 view .LVU308
 1595 03ec 5649     		ldr	r1, .L138+248
 1596 03ee 2846     		mov	r0, r5
 1597 03f0 FFF7FEFF 		bl	__write_error_message
 1598              	.LVL126:
 268:/mnt/c/Users/31740/Documents/codes/newcore-rp2350/lib/error.c ****                 break;
 1599              		.loc 1 268 17 view .LVU309
 1600 03f4 27E6     		b	.L41
 1601              	.L104:
 270:/mnt/c/Users/31740/Documents/codes/newcore-rp2350/lib/error.c ****                 __write_error_message(error, "ERROR: ECONNREFUSED: Connection refused");
 1602              		.loc 1 270 17 view .LVU310
 1603 03f6 5549     		ldr	r1, .L138+252
 1604 03f8 2846     		mov	r0, r5
 1605 03fa FFF7FEFF 		bl	__write_error_message
 1606              	.LVL127:
 271:/mnt/c/Users/31740/Documents/codes/newcore-rp2350/lib/error.c ****                 break;
 1607              		.loc 1 271 17 view .LVU311
 1608 03fe 22E6     		b	.L41
 1609              	.L107:
 273:/mnt/c/Users/31740/Documents/codes/newcore-rp2350/lib/error.c ****                 __write_error_message(error, "ERROR: EHOSTDOWN: Host is down");
 1610              		.loc 1 273 17 view .LVU312
 1611 0400 5349     		ldr	r1, .L138+256
 1612 0402 2846     		mov	r0, r5
 1613 0404 FFF7FEFF 		bl	__write_error_message
 1614              	.LVL128:
ARM GAS  /tmp/cczJPWbc.s 			page 53


 274:/mnt/c/Users/31740/Documents/codes/newcore-rp2350/lib/error.c ****                 break;
 1615              		.loc 1 274 17 view .LVU313
 1616 0408 1DE6     		b	.L41
 1617              	.L108:
 276:/mnt/c/Users/31740/Documents/codes/newcore-rp2350/lib/error.c ****                 __write_error_message(error, "ERROR: EHOSTUNREACH: No route to host");
 1618              		.loc 1 276 17 view .LVU314
 1619 040a 5249     		ldr	r1, .L138+260
 1620 040c 2846     		mov	r0, r5
 1621 040e FFF7FEFF 		bl	__write_error_message
 1622              	.LVL129:
 277:/mnt/c/Users/31740/Documents/codes/newcore-rp2350/lib/error.c ****                 break;
 1623              		.loc 1 277 17 view .LVU315
 1624 0412 18E6     		b	.L41
 1625              	.L80:
 280:/mnt/c/Users/31740/Documents/codes/newcore-rp2350/lib/error.c ****                 __write_error_message(error, "INFO: EALREADY: Operation already in progress");
 1626              		.loc 1 280 17 view .LVU316
 1627 0414 5049     		ldr	r1, .L138+264
 1628 0416 2846     		mov	r0, r5
 1629 0418 FFF7FEFF 		bl	__write_error_message
 1630              	.LVL130:
 281:/mnt/c/Users/31740/Documents/codes/newcore-rp2350/lib/error.c ****                 break;
 1631              		.loc 1 281 17 view .LVU317
 1632 041c 13E6     		b	.L41
 1633              	.L79:
 283:/mnt/c/Users/31740/Documents/codes/newcore-rp2350/lib/error.c ****                 __write_error_message(error, "INFO: EINPROGRESS: Operation now in progress");
 1634              		.loc 1 283 17 view .LVU318
 1635 041e 4F49     		ldr	r1, .L138+268
 1636 0420 2846     		mov	r0, r5
 1637 0422 FFF7FEFF 		bl	__write_error_message
 1638              	.LVL131:
 284:/mnt/c/Users/31740/Documents/codes/newcore-rp2350/lib/error.c ****                 break;
 1639              		.loc 1 284 17 view .LVU319
 1640 0426 0EE6     		b	.L41
 1641              	.L111:
 286:/mnt/c/Users/31740/Documents/codes/newcore-rp2350/lib/error.c ****                 __write_error_message(error, "ERROR: ESTALE: Stale file handle");
 1642              		.loc 1 286 17 view .LVU320
 1643 0428 4D49     		ldr	r1, .L138+272
 1644 042a 2846     		mov	r0, r5
 1645 042c FFF7FEFF 		bl	__write_error_message
 1646              	.LVL132:
 287:/mnt/c/Users/31740/Documents/codes/newcore-rp2350/lib/error.c ****                 break;
 1647              		.loc 1 287 17 view .LVU321
 1648 0430 09E6     		b	.L41
 1649              	.L114:
 289:/mnt/c/Users/31740/Documents/codes/newcore-rp2350/lib/error.c ****                 __write_error_message(error, "ERROR: EUCLEAN: Structure needs cleaning");
 1650              		.loc 1 289 17 view .LVU322
 1651 0432 4C49     		ldr	r1, .L138+276
 1652 0434 2846     		mov	r0, r5
 1653 0436 FFF7FEFF 		bl	__write_error_message
 1654              	.LVL133:
 290:/mnt/c/Users/31740/Documents/codes/newcore-rp2350/lib/error.c ****                 break;
 1655              		.loc 1 290 17 view .LVU323
 1656 043a 04E6     		b	.L41
 1657              	.L115:
 292:/mnt/c/Users/31740/Documents/codes/newcore-rp2350/lib/error.c ****                 __write_error_message(error, "ERROR: ENOTNAM: Not a XENIX named type file");
 1658              		.loc 1 292 17 view .LVU324
 1659 043c 4A49     		ldr	r1, .L138+280
ARM GAS  /tmp/cczJPWbc.s 			page 54


 1660 043e 2846     		mov	r0, r5
 1661 0440 FFF7FEFF 		bl	__write_error_message
 1662              	.LVL134:
 293:/mnt/c/Users/31740/Documents/codes/newcore-rp2350/lib/error.c ****                 break;
 1663              		.loc 1 293 17 view .LVU325
 1664 0444 FFE5     		b	.L41
 1665              	.L116:
 295:/mnt/c/Users/31740/Documents/codes/newcore-rp2350/lib/error.c ****                 __write_error_message(error, "ERROR: ENAVAIL: No XENIX semaphores available");
 1666              		.loc 1 295 17 view .LVU326
 1667 0446 4949     		ldr	r1, .L138+284
 1668 0448 2846     		mov	r0, r5
 1669 044a FFF7FEFF 		bl	__write_error_message
 1670              	.LVL135:
 296:/mnt/c/Users/31740/Documents/codes/newcore-rp2350/lib/error.c ****                 break;
 1671              		.loc 1 296 17 view .LVU327
 1672 044e FAE5     		b	.L41
 1673              	.L139:
 1674              		.align	2
 1675              	.L138:
 1676 0450 00000000 		.word	.LC2
 1677 0454 28000000 		.word	.LC3
 1678 0458 54000000 		.word	.LC4
 1679 045c 74000000 		.word	.LC5
 1680 0460 9C000000 		.word	.LC6
 1681 0464 B4000000 		.word	.LC7
 1682 0468 DC000000 		.word	.LC8
 1683 046c 04010000 		.word	.LC9
 1684 0470 28010000 		.word	.LC10
 1685 0474 4C010000 		.word	.LC11
 1686 0478 70010000 		.word	.LC12
 1687 047c A0010000 		.word	.LC13
 1688 0480 C0010000 		.word	.LC14
 1689 0484 E4010000 		.word	.LC15
 1690 0488 00020000 		.word	.LC16
 1691 048c 28020000 		.word	.LC17
 1692 0490 50020000 		.word	.LC18
 1693 0494 6C020000 		.word	.LC19
 1694 0498 8C020000 		.word	.LC20
 1695 049c AC020000 		.word	.LC21
 1696 04a0 CC020000 		.word	.LC22
 1697 04a4 EC020000 		.word	.LC23
 1698 04a8 0C030000 		.word	.LC24
 1699 04ac 30030000 		.word	.LC25
 1700 04b0 54030000 		.word	.LC26
 1701 04b4 74030000 		.word	.LC27
 1702 04b8 94030000 		.word	.LC28
 1703 04bc B4030000 		.word	.LC29
 1704 04c0 DC030000 		.word	.LC30
 1705 04c4 F8030000 		.word	.LC31
 1706 04c8 1C040000 		.word	.LC32
 1707 04cc 3C040000 		.word	.LC33
 1708 04d0 58040000 		.word	.LC34
 1709 04d4 84040000 		.word	.LC35
 1710 04d8 B4040000 		.word	.LC36
 1711 04dc E4040000 		.word	.LC37
 1712 04e0 0C050000 		.word	.LC38
 1713 04e4 38050000 		.word	.LC39
ARM GAS  /tmp/cczJPWbc.s 			page 55


 1714 04e8 60050000 		.word	.LC40
 1715 04ec 88050000 		.word	.LC41
 1716 04f0 BC050000 		.word	.LC42
 1717 04f4 EC050000 		.word	.LC43
 1718 04f8 20060000 		.word	.LC44
 1719 04fc 44060000 		.word	.LC45
 1720 0500 78060000 		.word	.LC46
 1721 0504 A4060000 		.word	.LC47
 1722 0508 D4060000 		.word	.LC48
 1723 050c 08070000 		.word	.LC49
 1724 0510 34070000 		.word	.LC50
 1725 0514 68070000 		.word	.LC51
 1726 0518 9C070000 		.word	.LC52
 1727 051c C8070000 		.word	.LC53
 1728 0520 00080000 		.word	.LC54
 1729 0524 24080000 		.word	.LC55
 1730 0528 50080000 		.word	.LC56
 1731 052c 88080000 		.word	.LC57
 1732 0530 C0080000 		.word	.LC58
 1733 0534 EC080000 		.word	.LC59
 1734 0538 18090000 		.word	.LC60
 1735 053c 50090000 		.word	.LC61
 1736 0540 88090000 		.word	.LC62
 1737 0544 C8090000 		.word	.LC63
 1738 0548 F4090000 		.word	.LC64
 1739 054c 1C0A0000 		.word	.LC65
 1740 0550 440A0000 		.word	.LC66
 1741 0554 640A0000 		.word	.LC67
 1742 0558 8C0A0000 		.word	.LC68
 1743 055c BC0A0000 		.word	.LC69
 1744 0560 EC0A0000 		.word	.LC70
 1745 0564 100B0000 		.word	.LC71
 1746 0568 3C0B0000 		.word	.LC72
 1747 056c 680B0000 		.word	.LC73
 1748              	.L117:
 298:/mnt/c/Users/31740/Documents/codes/newcore-rp2350/lib/error.c ****                 __write_error_message(error, "ERROR: EISNAM: Is a named type file");
 1749              		.loc 1 298 17 view .LVU328
 1750 0570 2949     		ldr	r1, .L140
 1751 0572 2846     		mov	r0, r5
 1752 0574 FFF7FEFF 		bl	__write_error_message
 1753              	.LVL136:
 299:/mnt/c/Users/31740/Documents/codes/newcore-rp2350/lib/error.c ****                 break;
 1754              		.loc 1 299 17 view .LVU329
 1755 0578 65E5     		b	.L41
 1756              	.L118:
 301:/mnt/c/Users/31740/Documents/codes/newcore-rp2350/lib/error.c ****                 __write_error_message(error, "ERROR: EREMOTEIO: Remote I/O error");
 1757              		.loc 1 301 17 view .LVU330
 1758 057a 2849     		ldr	r1, .L140+4
 1759 057c 2846     		mov	r0, r5
 1760 057e FFF7FEFF 		bl	__write_error_message
 1761              	.LVL137:
 302:/mnt/c/Users/31740/Documents/codes/newcore-rp2350/lib/error.c ****                 break;
 1762              		.loc 1 302 17 view .LVU331
 1763 0582 60E5     		b	.L41
 1764              	.L110:
 304:/mnt/c/Users/31740/Documents/codes/newcore-rp2350/lib/error.c ****                 __write_error_message(error, "ERROR: EDQUOT: Disk quota exceeded");
 1765              		.loc 1 304 17 view .LVU332
ARM GAS  /tmp/cczJPWbc.s 			page 56


 1766 0584 2649     		ldr	r1, .L140+8
 1767 0586 2846     		mov	r0, r5
 1768 0588 FFF7FEFF 		bl	__write_error_message
 1769              	.LVL138:
 305:/mnt/c/Users/31740/Documents/codes/newcore-rp2350/lib/error.c ****                 break;
 1770              		.loc 1 305 17 view .LVU333
 1771 058c 5BE5     		b	.L41
 1772              	.L119:
 307:/mnt/c/Users/31740/Documents/codes/newcore-rp2350/lib/error.c ****                 __write_error_message(error, "ERROR: ENOMEDIUM: No medium found");
 1773              		.loc 1 307 17 view .LVU334
 1774 058e 2549     		ldr	r1, .L140+12
 1775 0590 2846     		mov	r0, r5
 1776 0592 FFF7FEFF 		bl	__write_error_message
 1777              	.LVL139:
 308:/mnt/c/Users/31740/Documents/codes/newcore-rp2350/lib/error.c ****                 break;
 1778              		.loc 1 308 17 view .LVU335
 1779 0596 56E5     		b	.L41
 1780              	.L120:
 310:/mnt/c/Users/31740/Documents/codes/newcore-rp2350/lib/error.c ****                 __write_error_message(error, "ERROR: EMEDIUMTYPE: Wrong medium type");
 1781              		.loc 1 310 17 view .LVU336
 1782 0598 2349     		ldr	r1, .L140+16
 1783 059a 2846     		mov	r0, r5
 1784 059c FFF7FEFF 		bl	__write_error_message
 1785              	.LVL140:
 311:/mnt/c/Users/31740/Documents/codes/newcore-rp2350/lib/error.c ****                 break;
 1786              		.loc 1 311 17 view .LVU337
 1787 05a0 51E5     		b	.L41
 1788              	.L121:
 313:/mnt/c/Users/31740/Documents/codes/newcore-rp2350/lib/error.c ****                 __write_error_message(error, "WARN: ECANCELED: Operation canceled");
 1789              		.loc 1 313 17 view .LVU338
 1790 05a2 2249     		ldr	r1, .L140+20
 1791 05a4 2846     		mov	r0, r5
 1792 05a6 FFF7FEFF 		bl	__write_error_message
 1793              	.LVL141:
 314:/mnt/c/Users/31740/Documents/codes/newcore-rp2350/lib/error.c ****                 break;
 1794              		.loc 1 314 17 view .LVU339
 1795 05aa 4CE5     		b	.L41
 1796              	.L122:
 316:/mnt/c/Users/31740/Documents/codes/newcore-rp2350/lib/error.c ****                 __write_error_message(error, "ERROR: ENOKEY: Required key not available");
 1797              		.loc 1 316 17 view .LVU340
 1798 05ac 2049     		ldr	r1, .L140+24
 1799 05ae 2846     		mov	r0, r5
 1800 05b0 FFF7FEFF 		bl	__write_error_message
 1801              	.LVL142:
 317:/mnt/c/Users/31740/Documents/codes/newcore-rp2350/lib/error.c ****                 break;
 1802              		.loc 1 317 17 view .LVU341
 1803 05b4 47E5     		b	.L41
 1804              	.L123:
 319:/mnt/c/Users/31740/Documents/codes/newcore-rp2350/lib/error.c ****                 __write_error_message(error, "ERROR: EKEYEXPIRED: Key has expired");
 1805              		.loc 1 319 17 view .LVU342
 1806 05b6 1F49     		ldr	r1, .L140+28
 1807 05b8 2846     		mov	r0, r5
 1808 05ba FFF7FEFF 		bl	__write_error_message
 1809              	.LVL143:
 320:/mnt/c/Users/31740/Documents/codes/newcore-rp2350/lib/error.c ****                 break;
 1810              		.loc 1 320 17 view .LVU343
 1811 05be 42E5     		b	.L41
ARM GAS  /tmp/cczJPWbc.s 			page 57


 1812              	.L124:
 322:/mnt/c/Users/31740/Documents/codes/newcore-rp2350/lib/error.c ****                 __write_error_message(error, "ERROR: EKEYREVOKED: Key has been revoked");
 1813              		.loc 1 322 17 view .LVU344
 1814 05c0 1D49     		ldr	r1, .L140+32
 1815 05c2 2846     		mov	r0, r5
 1816 05c4 FFF7FEFF 		bl	__write_error_message
 1817              	.LVL144:
 323:/mnt/c/Users/31740/Documents/codes/newcore-rp2350/lib/error.c ****                 break;
 1818              		.loc 1 323 17 view .LVU345
 1819 05c8 3DE5     		b	.L41
 1820              	.L125:
 325:/mnt/c/Users/31740/Documents/codes/newcore-rp2350/lib/error.c ****                 __write_error_message(error, "ERROR: EKEYREJECTED: Key was rejected by service");
 1821              		.loc 1 325 17 view .LVU346
 1822 05ca 1C49     		ldr	r1, .L140+36
 1823 05cc 2846     		mov	r0, r5
 1824 05ce FFF7FEFF 		bl	__write_error_message
 1825              	.LVL145:
 326:/mnt/c/Users/31740/Documents/codes/newcore-rp2350/lib/error.c ****                 break;
 1826              		.loc 1 326 17 view .LVU347
 1827 05d2 38E5     		b	.L41
 1828              	.L126:
 328:/mnt/c/Users/31740/Documents/codes/newcore-rp2350/lib/error.c ****                 __write_error_message(error, "ERROR: EOWNERDEAD: Owner died");
 1829              		.loc 1 328 17 view .LVU348
 1830 05d4 1A49     		ldr	r1, .L140+40
 1831 05d6 2846     		mov	r0, r5
 1832 05d8 FFF7FEFF 		bl	__write_error_message
 1833              	.LVL146:
 329:/mnt/c/Users/31740/Documents/codes/newcore-rp2350/lib/error.c ****                 break;
 1834              		.loc 1 329 17 view .LVU349
 1835 05dc 33E5     		b	.L41
 1836              	.L127:
 331:/mnt/c/Users/31740/Documents/codes/newcore-rp2350/lib/error.c ****                 __write_error_message(error, "ERROR: ENOTRECOVERABLE: State not recoverable");
 1837              		.loc 1 331 17 view .LVU350
 1838 05de 1949     		ldr	r1, .L140+44
 1839 05e0 2846     		mov	r0, r5
 1840 05e2 FFF7FEFF 		bl	__write_error_message
 1841              	.LVL147:
 332:/mnt/c/Users/31740/Documents/codes/newcore-rp2350/lib/error.c ****                 break;
 1842              		.loc 1 332 17 view .LVU351
 1843 05e6 2EE5     		b	.L41
 1844              	.L128:
 334:/mnt/c/Users/31740/Documents/codes/newcore-rp2350/lib/error.c ****                 __write_error_message(error, "ERROR: ERFKILL: Operation not possible due to RF-kill
 1845              		.loc 1 334 17 view .LVU352
 1846 05e8 1749     		ldr	r1, .L140+48
 1847 05ea 2846     		mov	r0, r5
 1848 05ec FFF7FEFF 		bl	__write_error_message
 1849              	.LVL148:
 335:/mnt/c/Users/31740/Documents/codes/newcore-rp2350/lib/error.c ****                 break;
 1850              		.loc 1 335 17 view .LVU353
 1851 05f0 29E5     		b	.L41
 1852              	.L129:
 337:/mnt/c/Users/31740/Documents/codes/newcore-rp2350/lib/error.c ****                 __write_error_message(error, "ERROR: EHWPOISON: Memory page has hardware error");
 1853              		.loc 1 337 17 view .LVU354
 1854 05f2 1649     		ldr	r1, .L140+52
 1855 05f4 2846     		mov	r0, r5
 1856 05f6 FFF7FEFF 		bl	__write_error_message
 1857              	.LVL149:
ARM GAS  /tmp/cczJPWbc.s 			page 58


 338:/mnt/c/Users/31740/Documents/codes/newcore-rp2350/lib/error.c ****                 break;
 1858              		.loc 1 338 17 view .LVU355
 1859 05fa 24E5     		b	.L41
 1860              	.L42:
 340:/mnt/c/Users/31740/Documents/codes/newcore-rp2350/lib/error.c ****                 __write_error_message(error, "ERROR: Unknown error code");
 1861              		.loc 1 340 17 view .LVU356
 1862 05fc 1449     		ldr	r1, .L140+56
 1863 05fe 2846     		mov	r0, r5
 1864 0600 FFF7FEFF 		bl	__write_error_message
 1865              	.LVL150:
 341:/mnt/c/Users/31740/Documents/codes/newcore-rp2350/lib/error.c ****                 break;
 1866              		.loc 1 341 17 view .LVU357
 1867 0604 1FE5     		b	.L41
 1868              	.LVL151:
 1869              	.L137:
 348:/mnt/c/Users/31740/Documents/codes/newcore-rp2350/lib/error.c ****         l_output_error_message(error,NULL,0,printk);
 1870              		.loc 1 348 9 view .LVU358
 1871 0606 134B     		ldr	r3, .L140+60
 1872 0608 0022     		movs	r2, #0
 1873 060a 1146     		mov	r1, r2
 1874 060c 2846     		mov	r0, r5
 1875 060e FFF7FEFF 		bl	l_output_error_message
 1876              	.LVL152:
 1877 0612 20E5     		b	.L130
 1878              	.LVL153:
 1879              	.L133:
 1880              	.LCFI20:
 1881              		.cfi_def_cfa_offset 0
 1882              		.cfi_restore 3
 1883              		.cfi_restore 4
 1884              		.cfi_restore 5
 1885              		.cfi_restore 14
 348:/mnt/c/Users/31740/Documents/codes/newcore-rp2350/lib/error.c ****         l_output_error_message(error,NULL,0,printk);
 1886              		.loc 1 348 9 is_stmt 0 view .LVU359
 1887 0614 7047     		bx	lr
 1888              	.L141:
 1889 0616 00BF     		.align	2
 1890              	.L140:
 1891 0618 980B0000 		.word	.LC74
 1892 061c BC0B0000 		.word	.LC75
 1893 0620 E00B0000 		.word	.LC76
 1894 0624 040C0000 		.word	.LC77
 1895 0628 280C0000 		.word	.LC78
 1896 062c 500C0000 		.word	.LC79
 1897 0630 740C0000 		.word	.LC80
 1898 0634 A00C0000 		.word	.LC81
 1899 0638 C40C0000 		.word	.LC82
 1900 063c F00C0000 		.word	.LC83
 1901 0640 240D0000 		.word	.LC84
 1902 0644 440D0000 		.word	.LC85
 1903 0648 740D0000 		.word	.LC86
 1904 064c AC0D0000 		.word	.LC87
 1905 0650 E00D0000 		.word	.LC88
 1906 0654 00000000 		.word	printk
 1907              		.cfi_endproc
 1908              	.LFE286:
 1910              		.text
ARM GAS  /tmp/cczJPWbc.s 			page 59


 1911              	.Letext0:
 1912              		.file 3 "/mnt/c/Users/31740/Documents/codes/newcore-rp2350/include/linux/stdarg.h"
 1913              		.file 4 "/mnt/c/Users/31740/Documents/codes/newcore-rp2350/include/asm-generic/int-l64.h"
 1914              		.file 5 "/mnt/c/Users/31740/Documents/codes/newcore-rp2350/include/asm-generic/posix_types.h"
 1915              		.file 6 "/mnt/c/Users/31740/Documents/codes/newcore-rp2350/include/linux/types.h"
 1916              		.file 7 "/mnt/c/Users/31740/Documents/codes/newcore-rp2350/include/linux/time64.h"
 1917              		.file 8 "/mnt/c/Users/31740/Documents/codes/newcore-rp2350/arch/arm_m/include/asm/spinlock.h"
 1918              		.file 9 "/mnt/c/Users/31740/Documents/codes/newcore-rp2350/include/linux/spinlock_types_raw.h"
 1919              		.file 10 "/mnt/c/Users/31740/Documents/codes/newcore-rp2350/include/linux/spinlock_types.h"
 1920              		.file 11 "/mnt/c/Users/31740/Documents/codes/newcore-rp2350/include/linux/mutex.h"
 1921              		.file 12 "/mnt/c/Users/31740/Documents/codes/newcore-rp2350/include/linux/error.h"
 1922              		.file 13 "/mnt/c/Users/31740/Documents/codes/newcore-rp2350/include/linux/sprintf.h"
 1923              		.file 14 "/mnt/c/Users/31740/Documents/codes/newcore-rp2350/include/linux/printk.h"
 1924              		.file 15 "/mnt/c/Users/31740/Documents/codes/newcore-rp2350/include/linux/time.h"
 1925              		.file 16 "/mnt/c/Users/31740/Documents/codes/newcore-rp2350/include/linux/string.h"
 1926              		.file 17 "/mnt/c/Users/31740/Documents/codes/newcore-rp2350/arch/arm_m/include/asm/string.h"
 1927              		.file 18 "<built-in>"
 1928              		.file 19 "/mnt/c/Users/31740/Documents/codes/newcore-rp2350/include/linux/gfp_types.h"
ARM GAS  /tmp/cczJPWbc.s 			page 60


DEFINED SYMBOLS
                            *ABS*:00000000 error.c
     /tmp/cczJPWbc.s:22     .text.__write_error_message:00000000 $t
     /tmp/cczJPWbc.s:27     .text.__write_error_message:00000000 __write_error_message
     /tmp/cczJPWbc.s:89     .rodata.l_error_create.str1.4:00000000 $d
     /tmp/cczJPWbc.s:94     .text.l_error_create:00000000 $t
     /tmp/cczJPWbc.s:100    .text.l_error_create:00000000 l_error_create
     /tmp/cczJPWbc.s:294    .text.l_error_create:00000084 $d
     /tmp/cczJPWbc.s:300    .text.l_delete_error:00000000 $t
     /tmp/cczJPWbc.s:306    .text.l_delete_error:00000000 l_delete_error
     /tmp/cczJPWbc.s:386    .rodata.l_output_error_message.str1.4:00000000 $d
     /tmp/cczJPWbc.s:391    .text.l_output_error_message:00000000 $t
     /tmp/cczJPWbc.s:397    .text.l_output_error_message:00000000 l_output_error_message
     /tmp/cczJPWbc.s:543    .text.l_output_error_message:00000080 $d
     /tmp/cczJPWbc.s:549    .rodata.l_error_exception.str1.4:00000000 $d
     /tmp/cczJPWbc.s:818    .text.l_error_exception:00000000 $t
     /tmp/cczJPWbc.s:824    .text.l_error_exception:00000000 l_error_exception
     /tmp/cczJPWbc.s:957    .text.l_error_exception:0000006a $d
     /tmp/cczJPWbc.s:1096   .text.l_error_exception:00000180 $t
     /tmp/cczJPWbc.s:1676   .text.l_error_exception:00000450 $d
     /tmp/cczJPWbc.s:1750   .text.l_error_exception:00000570 $t
     /tmp/cczJPWbc.s:1891   .text.l_error_exception:00000618 $d

UNDEFINED SYMBOLS
vsnprintf
__smalloc__
strlen
strcpy
__sfree__
snprintf
HZ
ktime_get
get_global_heap_size
printk
