ARM GAS  /tmp/ccsaZJXl.s 			page 1


   1              		.cpu cortex-m4
   2              		.arch armv7e-m
   3              		.fpu fpv4-sp-d16
   4              		.eabi_attribute 27, 1
   5              		.eabi_attribute 28, 1
   6              		.eabi_attribute 20, 1
   7              		.eabi_attribute 21, 1
   8              		.eabi_attribute 23, 3
   9              		.eabi_attribute 24, 1
  10              		.eabi_attribute 25, 1
  11              		.eabi_attribute 26, 1
  12              		.eabi_attribute 30, 1
  13              		.eabi_attribute 34, 1
  14              		.eabi_attribute 18, 4
  15              		.file	"fdt.c"
  16              		.text
  17              	.Ltext0:
  18              		.cfi_sections	.debug_frame
  19              		.file 1 "./lib/fdt/fdt.c"
  20              		.section	.text.check_off_,"ax",%progbits
  21              		.align	1
  22              		.syntax unified
  23              		.thumb
  24              		.thumb_func
  26              	check_off_:
  27              	.LVL0:
  28              	.LFB76:
   1:./lib/fdt/fdt.c **** // SPDX-License-Identifier: (GPL-2.0-or-later OR BSD-2-Clause)
   2:./lib/fdt/fdt.c **** /*
   3:./lib/fdt/fdt.c ****  * libfdt - Flat Device Tree manipulation
   4:./lib/fdt/fdt.c ****  * Copyright (C) 2006 David Gibson, IBM Corporation.
   5:./lib/fdt/fdt.c ****  */
   6:./lib/fdt/fdt.c **** #include <linux/libfdt_env.h>
   7:./lib/fdt/fdt.c **** 
   8:./lib/fdt/fdt.c **** #include <linux/fdt.h>
   9:./lib/fdt/fdt.c **** #include <linux/libfdt.h>
  10:./lib/fdt/fdt.c **** 
  11:./lib/fdt/fdt.c **** 
  12:./lib/fdt/fdt.c **** #include "libfdt_internal.h"
  13:./lib/fdt/fdt.c **** 
  14:./lib/fdt/fdt.c **** /*
  15:./lib/fdt/fdt.c ****  * Minimal sanity check for a read-only tree. fdt_ro_probe_() checks
  16:./lib/fdt/fdt.c ****  * that the given buffer contains what appears to be a flattened
  17:./lib/fdt/fdt.c ****  * device tree with sane information in its header.
  18:./lib/fdt/fdt.c ****  */
  19:./lib/fdt/fdt.c **** int32_t fdt_ro_probe_(const void *fdt)
  20:./lib/fdt/fdt.c **** {
  21:./lib/fdt/fdt.c **** 	uint32_t totalsize = fdt_totalsize(fdt);
  22:./lib/fdt/fdt.c **** 
  23:./lib/fdt/fdt.c **** 	if (can_assume(VALID_DTB))
  24:./lib/fdt/fdt.c **** 		return totalsize;
  25:./lib/fdt/fdt.c **** 
  26:./lib/fdt/fdt.c **** 	/* The device tree must be at an 8-byte aligned address */
  27:./lib/fdt/fdt.c **** 	if ((uintptr_t)fdt & 7)
  28:./lib/fdt/fdt.c **** 		return -FDT_ERR_ALIGNMENT;
  29:./lib/fdt/fdt.c **** 
  30:./lib/fdt/fdt.c **** 	if (fdt_magic(fdt) == FDT_MAGIC) {
ARM GAS  /tmp/ccsaZJXl.s 			page 2


  31:./lib/fdt/fdt.c **** 		/* Complete tree */
  32:./lib/fdt/fdt.c **** 		if (!can_assume(LATEST)) {
  33:./lib/fdt/fdt.c **** 			if (fdt_version(fdt) < FDT_FIRST_SUPPORTED_VERSION)
  34:./lib/fdt/fdt.c **** 				return -FDT_ERR_BADVERSION;
  35:./lib/fdt/fdt.c **** 			if (fdt_last_comp_version(fdt) >
  36:./lib/fdt/fdt.c **** 					FDT_LAST_SUPPORTED_VERSION)
  37:./lib/fdt/fdt.c **** 				return -FDT_ERR_BADVERSION;
  38:./lib/fdt/fdt.c **** 		}
  39:./lib/fdt/fdt.c **** 	} else if (fdt_magic(fdt) == FDT_SW_MAGIC) {
  40:./lib/fdt/fdt.c **** 		/* Unfinished sequential-write blob */
  41:./lib/fdt/fdt.c **** 		if (!can_assume(VALID_INPUT) && fdt_size_dt_struct(fdt) == 0)
  42:./lib/fdt/fdt.c **** 			return -FDT_ERR_BADSTATE;
  43:./lib/fdt/fdt.c **** 	} else {
  44:./lib/fdt/fdt.c **** 		return -FDT_ERR_BADMAGIC;
  45:./lib/fdt/fdt.c **** 	}
  46:./lib/fdt/fdt.c **** 
  47:./lib/fdt/fdt.c **** 	if (totalsize < INT32_MAX)
  48:./lib/fdt/fdt.c **** 		return totalsize;
  49:./lib/fdt/fdt.c **** 	else
  50:./lib/fdt/fdt.c **** 		return -FDT_ERR_TRUNCATED;
  51:./lib/fdt/fdt.c **** }
  52:./lib/fdt/fdt.c **** 
  53:./lib/fdt/fdt.c **** static int check_off_(uint32_t hdrsize, uint32_t totalsize, uint32_t off)
  54:./lib/fdt/fdt.c **** {
  29              		.loc 1 54 1 view -0
  30              		.cfi_startproc
  31              		@ args = 0, pretend = 0, frame = 0
  32              		@ frame_needed = 0, uses_anonymous_args = 0
  33              		@ link register save eliminated.
  55:./lib/fdt/fdt.c **** 	return (off >= hdrsize) && (off <= totalsize);
  34              		.loc 1 55 2 view .LVU1
  35              		.loc 1 55 26 is_stmt 0 view .LVU2
  36 0000 8242     		cmp	r2, r0
  37 0002 03D3     		bcc	.L3
  38              		.loc 1 55 26 discriminator 1 view .LVU3
  39 0004 8A42     		cmp	r2, r1
  40 0006 03D9     		bls	.L4
  41              		.loc 1 55 26 discriminator 4 view .LVU4
  42 0008 0020     		movs	r0, #0
  43              	.LVL1:
  44              		.loc 1 55 26 discriminator 4 view .LVU5
  45 000a 7047     		bx	lr
  46              	.LVL2:
  47              	.L3:
  48              		.loc 1 55 26 discriminator 4 view .LVU6
  49 000c 0020     		movs	r0, #0
  50              	.LVL3:
  51              		.loc 1 55 26 discriminator 4 view .LVU7
  52 000e 7047     		bx	lr
  53              	.LVL4:
  54              	.L4:
  55              		.loc 1 55 26 discriminator 3 view .LVU8
  56 0010 0120     		movs	r0, #1
  57              	.LVL5:
  56:./lib/fdt/fdt.c **** }
  58              		.loc 1 56 1 view .LVU9
  59 0012 7047     		bx	lr
ARM GAS  /tmp/ccsaZJXl.s 			page 3


  60              		.cfi_endproc
  61              	.LFE76:
  63              		.section	.text.check_block_,"ax",%progbits
  64              		.align	1
  65              		.syntax unified
  66              		.thumb
  67              		.thumb_func
  69              	check_block_:
  70              	.LVL6:
  71              	.LFB77:
  57:./lib/fdt/fdt.c **** 
  58:./lib/fdt/fdt.c **** static int check_block_(uint32_t hdrsize, uint32_t totalsize,
  59:./lib/fdt/fdt.c **** 			uint32_t base, uint32_t size)
  60:./lib/fdt/fdt.c **** {
  72              		.loc 1 60 1 is_stmt 1 view -0
  73              		.cfi_startproc
  74              		@ args = 0, pretend = 0, frame = 0
  75              		@ frame_needed = 0, uses_anonymous_args = 0
  76              		.loc 1 60 1 is_stmt 0 view .LVU11
  77 0000 F8B5     		push	{r3, r4, r5, r6, r7, lr}
  78              	.LCFI0:
  79              		.cfi_def_cfa_offset 24
  80              		.cfi_offset 3, -24
  81              		.cfi_offset 4, -20
  82              		.cfi_offset 5, -16
  83              		.cfi_offset 6, -12
  84              		.cfi_offset 7, -8
  85              		.cfi_offset 14, -4
  86 0002 0646     		mov	r6, r0
  87 0004 0F46     		mov	r7, r1
  88 0006 1446     		mov	r4, r2
  89 0008 1D46     		mov	r5, r3
  61:./lib/fdt/fdt.c **** 	if (!check_off_(hdrsize, totalsize, base))
  90              		.loc 1 61 2 is_stmt 1 view .LVU12
  91              		.loc 1 61 7 is_stmt 0 view .LVU13
  92 000a FFF7FEFF 		bl	check_off_
  93              	.LVL7:
  94              		.loc 1 61 5 discriminator 1 view .LVU14
  95 000e 38B1     		cbz	r0, .L5
  62:./lib/fdt/fdt.c **** 		return 0; /* block start out of bounds */
  63:./lib/fdt/fdt.c **** 	if ((base + size) < base)
  96              		.loc 1 63 2 is_stmt 1 view .LVU15
  97              		.loc 1 63 5 is_stmt 0 view .LVU16
  98 0010 6219     		adds	r2, r4, r5
  99 0012 06D2     		bcs	.L7
  64:./lib/fdt/fdt.c **** 		return 0; /* overflow */
  65:./lib/fdt/fdt.c **** 	if (!check_off_(hdrsize, totalsize, base + size))
 100              		.loc 1 65 2 is_stmt 1 view .LVU17
 101              		.loc 1 65 7 is_stmt 0 view .LVU18
 102 0014 3946     		mov	r1, r7
 103 0016 3046     		mov	r0, r6
 104 0018 FFF7FEFF 		bl	check_off_
 105              	.LVL8:
 106              		.loc 1 65 5 discriminator 1 view .LVU19
 107 001c 00B1     		cbz	r0, .L5
  66:./lib/fdt/fdt.c **** 		return 0; /* block end out of bounds */
  67:./lib/fdt/fdt.c **** 	return 1;
ARM GAS  /tmp/ccsaZJXl.s 			page 4


 108              		.loc 1 67 9 view .LVU20
 109 001e 0120     		movs	r0, #1
 110              	.L5:
  68:./lib/fdt/fdt.c **** }
 111              		.loc 1 68 1 view .LVU21
 112 0020 F8BD     		pop	{r3, r4, r5, r6, r7, pc}
 113              	.LVL9:
 114              	.L7:
  64:./lib/fdt/fdt.c **** 		return 0; /* overflow */
 115              		.loc 1 64 10 view .LVU22
 116 0022 0020     		movs	r0, #0
 117 0024 FCE7     		b	.L5
 118              		.cfi_endproc
 119              	.LFE77:
 121              		.section	.text.fdt_ro_probe_,"ax",%progbits
 122              		.align	1
 123              		.global	fdt_ro_probe_
 124              		.syntax unified
 125              		.thumb
 126              		.thumb_func
 128              	fdt_ro_probe_:
 129              	.LVL10:
 130              	.LFB75:
  20:./lib/fdt/fdt.c **** 	uint32_t totalsize = fdt_totalsize(fdt);
 131              		.loc 1 20 1 is_stmt 1 view -0
 132              		.cfi_startproc
 133              		@ args = 0, pretend = 0, frame = 0
 134              		@ frame_needed = 0, uses_anonymous_args = 0
 135              		@ link register save eliminated.
  20:./lib/fdt/fdt.c **** 	uint32_t totalsize = fdt_totalsize(fdt);
 136              		.loc 1 20 1 is_stmt 0 view .LVU24
 137 0000 0346     		mov	r3, r0
  21:./lib/fdt/fdt.c **** 
 138              		.loc 1 21 2 is_stmt 1 view .LVU25
 139              	.LVL11:
 140              	.LBB111:
 141              	.LBI111:
 142              		.file 2 "./include/linux/libfdt.h"
   1:./include/linux/libfdt.h **** /* SPDX-License-Identifier: (GPL-2.0-or-later OR BSD-2-Clause) */
   2:./include/linux/libfdt.h **** #ifndef LIBFDT_H
   3:./include/linux/libfdt.h **** #define LIBFDT_H
   4:./include/linux/libfdt.h **** /*
   5:./include/linux/libfdt.h ****  * libfdt - Flat Device Tree manipulation
   6:./include/linux/libfdt.h ****  * Copyright (C) 2006 David Gibson, IBM Corporation.
   7:./include/linux/libfdt.h ****  */
   8:./include/linux/libfdt.h **** 
   9:./include/linux/libfdt.h **** #include <linux/libfdt_env.h>
  10:./include/linux/libfdt.h **** #include <linux/fdt.h>
  11:./include/linux/libfdt.h **** 
  12:./include/linux/libfdt.h **** #ifdef __cplusplus
  13:./include/linux/libfdt.h **** extern "C" {
  14:./include/linux/libfdt.h **** #endif
  15:./include/linux/libfdt.h **** 
  16:./include/linux/libfdt.h **** 
  17:./include/linux/libfdt.h **** extern const uint8_t __dtb_file_start_address[];
  18:./include/linux/libfdt.h **** extern const uint8_t __dtb_file_end_address[];
  19:./include/linux/libfdt.h **** 
ARM GAS  /tmp/ccsaZJXl.s 			page 5


  20:./include/linux/libfdt.h **** #define FDT_FIRST_SUPPORTED_VERSION	0x02
  21:./include/linux/libfdt.h **** #define FDT_LAST_COMPATIBLE_VERSION	0x10
  22:./include/linux/libfdt.h **** #define FDT_LAST_SUPPORTED_VERSION	0x11
  23:./include/linux/libfdt.h **** 
  24:./include/linux/libfdt.h **** /* Error codes: informative error codes */
  25:./include/linux/libfdt.h **** #define FDT_ERR_NOTFOUND	1
  26:./include/linux/libfdt.h **** 	/* FDT_ERR_NOTFOUND: The requested node or property does not exist */
  27:./include/linux/libfdt.h **** #define FDT_ERR_EXISTS		2
  28:./include/linux/libfdt.h **** 	/* FDT_ERR_EXISTS: Attempted to create a node or property which
  29:./include/linux/libfdt.h **** 	 * already exists */
  30:./include/linux/libfdt.h **** #define FDT_ERR_NOSPACE		3
  31:./include/linux/libfdt.h **** 	/* FDT_ERR_NOSPACE: Operation needed to expand the device
  32:./include/linux/libfdt.h **** 	 * tree, but its buffer did not have sufficient space to
  33:./include/linux/libfdt.h **** 	 * contain the expanded tree. Use fdt_open_into() to move the
  34:./include/linux/libfdt.h **** 	 * device tree to a buffer with more space. */
  35:./include/linux/libfdt.h **** 
  36:./include/linux/libfdt.h **** /* Error codes: codes for bad parameters */
  37:./include/linux/libfdt.h **** #define FDT_ERR_BADOFFSET	4
  38:./include/linux/libfdt.h **** 	/* FDT_ERR_BADOFFSET: Function was passed a structure block
  39:./include/linux/libfdt.h **** 	 * offset which is out-of-bounds, or which points to an
  40:./include/linux/libfdt.h **** 	 * unsuitable part of the structure for the operation. */
  41:./include/linux/libfdt.h **** #define FDT_ERR_BADPATH		5
  42:./include/linux/libfdt.h **** 	/* FDT_ERR_BADPATH: Function was passed a badly formatted path
  43:./include/linux/libfdt.h **** 	 * (e.g. missing a leading / for a function which requires an
  44:./include/linux/libfdt.h **** 	 * absolute path) */
  45:./include/linux/libfdt.h **** #define FDT_ERR_BADPHANDLE	6
  46:./include/linux/libfdt.h **** 	/* FDT_ERR_BADPHANDLE: Function was passed an invalid phandle.
  47:./include/linux/libfdt.h **** 	 * This can be caused either by an invalid phandle property
  48:./include/linux/libfdt.h **** 	 * length, or the phandle value was either 0 or -1, which are
  49:./include/linux/libfdt.h **** 	 * not permitted. */
  50:./include/linux/libfdt.h **** #define FDT_ERR_BADSTATE	7
  51:./include/linux/libfdt.h **** 	/* FDT_ERR_BADSTATE: Function was passed an incomplete device
  52:./include/linux/libfdt.h **** 	 * tree created by the sequential-write functions, which is
  53:./include/linux/libfdt.h **** 	 * not sufficiently complete for the requested operation. */
  54:./include/linux/libfdt.h **** 
  55:./include/linux/libfdt.h **** /* Error codes: codes for bad device tree blobs */
  56:./include/linux/libfdt.h **** #define FDT_ERR_TRUNCATED	8
  57:./include/linux/libfdt.h **** 	/* FDT_ERR_TRUNCATED: FDT or a sub-block is improperly
  58:./include/linux/libfdt.h **** 	 * terminated (overflows, goes outside allowed bounds, or
  59:./include/linux/libfdt.h **** 	 * isn't properly terminated).  */
  60:./include/linux/libfdt.h **** #define FDT_ERR_BADMAGIC	9
  61:./include/linux/libfdt.h **** 	/* FDT_ERR_BADMAGIC: Given "device tree" appears not to be a
  62:./include/linux/libfdt.h **** 	 * device tree at all - it is missing the flattened device
  63:./include/linux/libfdt.h **** 	 * tree magic number. */
  64:./include/linux/libfdt.h **** #define FDT_ERR_BADVERSION	10
  65:./include/linux/libfdt.h **** 	/* FDT_ERR_BADVERSION: Given device tree has a version which
  66:./include/linux/libfdt.h **** 	 * can't be handled by the requested operation.  For
  67:./include/linux/libfdt.h **** 	 * read-write functions, this may mean that fdt_open_into() is
  68:./include/linux/libfdt.h **** 	 * required to convert the tree to the expected version. */
  69:./include/linux/libfdt.h **** #define FDT_ERR_BADSTRUCTURE	11
  70:./include/linux/libfdt.h **** 	/* FDT_ERR_BADSTRUCTURE: Given device tree has a corrupt
  71:./include/linux/libfdt.h **** 	 * structure block or other serious error (e.g. misnested
  72:./include/linux/libfdt.h **** 	 * nodes, or subnodes preceding properties). */
  73:./include/linux/libfdt.h **** #define FDT_ERR_BADLAYOUT	12
  74:./include/linux/libfdt.h **** 	/* FDT_ERR_BADLAYOUT: For read-write functions, the given
  75:./include/linux/libfdt.h **** 	 * device tree has it's sub-blocks in an order that the
  76:./include/linux/libfdt.h **** 	 * function can't handle (memory reserve map, then structure,
ARM GAS  /tmp/ccsaZJXl.s 			page 6


  77:./include/linux/libfdt.h **** 	 * then strings).  Use fdt_open_into() to reorganize the tree
  78:./include/linux/libfdt.h **** 	 * into a form suitable for the read-write operations. */
  79:./include/linux/libfdt.h **** 
  80:./include/linux/libfdt.h **** /* "Can't happen" error indicating a bug in libfdt */
  81:./include/linux/libfdt.h **** #define FDT_ERR_INTERNAL	13
  82:./include/linux/libfdt.h **** 	/* FDT_ERR_INTERNAL: libfdt has failed an internal assertion.
  83:./include/linux/libfdt.h **** 	 * Should never be returned, if it is, it indicates a bug in
  84:./include/linux/libfdt.h **** 	 * libfdt itself. */
  85:./include/linux/libfdt.h **** 
  86:./include/linux/libfdt.h **** /* Errors in device tree content */
  87:./include/linux/libfdt.h **** #define FDT_ERR_BADNCELLS	14
  88:./include/linux/libfdt.h **** 	/* FDT_ERR_BADNCELLS: Device tree has a #address-cells, #size-cells
  89:./include/linux/libfdt.h **** 	 * or similar property with a bad format or value */
  90:./include/linux/libfdt.h **** 
  91:./include/linux/libfdt.h **** #define FDT_ERR_BADVALUE	15
  92:./include/linux/libfdt.h **** 	/* FDT_ERR_BADVALUE: Device tree has a property with an unexpected
  93:./include/linux/libfdt.h **** 	 * value. For example: a property expected to contain a string list
  94:./include/linux/libfdt.h **** 	 * is not NUL-terminated within the length of its value. */
  95:./include/linux/libfdt.h **** 
  96:./include/linux/libfdt.h **** #define FDT_ERR_BADOVERLAY	16
  97:./include/linux/libfdt.h **** 	/* FDT_ERR_BADOVERLAY: The device tree overlay, while
  98:./include/linux/libfdt.h **** 	 * correctly structured, cannot be applied due to some
  99:./include/linux/libfdt.h **** 	 * unexpected or missing value, property or node. */
 100:./include/linux/libfdt.h **** 
 101:./include/linux/libfdt.h **** #define FDT_ERR_NOPHANDLES	17
 102:./include/linux/libfdt.h **** 	/* FDT_ERR_NOPHANDLES: The device tree doesn't have any
 103:./include/linux/libfdt.h **** 	 * phandle available anymore without causing an overflow */
 104:./include/linux/libfdt.h **** 
 105:./include/linux/libfdt.h **** #define FDT_ERR_BADFLAGS	18
 106:./include/linux/libfdt.h **** 	/* FDT_ERR_BADFLAGS: The function was passed a flags field that
 107:./include/linux/libfdt.h **** 	 * contains invalid flags or an invalid combination of flags. */
 108:./include/linux/libfdt.h **** 
 109:./include/linux/libfdt.h **** #define FDT_ERR_ALIGNMENT	19
 110:./include/linux/libfdt.h **** 	/* FDT_ERR_ALIGNMENT: The device tree base address is not 8-byte
 111:./include/linux/libfdt.h **** 	 * aligned. */
 112:./include/linux/libfdt.h **** 
 113:./include/linux/libfdt.h **** #define FDT_ERR_MAX		19
 114:./include/linux/libfdt.h **** 
 115:./include/linux/libfdt.h **** /* constants */
 116:./include/linux/libfdt.h **** #define FDT_MAX_PHANDLE 0xfffffffe
 117:./include/linux/libfdt.h **** 	/* Valid values for phandles range from 1 to 2^32-2. */
 118:./include/linux/libfdt.h **** 
 119:./include/linux/libfdt.h **** /**********************************************************************/
 120:./include/linux/libfdt.h **** /* Low-level functions (you probably don't need these)                */
 121:./include/linux/libfdt.h **** /**********************************************************************/
 122:./include/linux/libfdt.h **** 
 123:./include/linux/libfdt.h **** #ifndef SWIG /* This function is not useful in Python */
 124:./include/linux/libfdt.h **** const void *fdt_offset_ptr(const void *fdt, int offset, unsigned int checklen);
 125:./include/linux/libfdt.h **** #endif
 126:./include/linux/libfdt.h **** static inline void *fdt_offset_ptr_w(void *fdt, int offset, int checklen)
 127:./include/linux/libfdt.h **** {
 128:./include/linux/libfdt.h **** 	return (void *)(uintptr_t)fdt_offset_ptr(fdt, offset, checklen);
 129:./include/linux/libfdt.h **** }
 130:./include/linux/libfdt.h **** 
 131:./include/linux/libfdt.h **** uint32_t fdt_next_tag(const void *fdt, int offset, int *nextoffset);
 132:./include/linux/libfdt.h **** 
 133:./include/linux/libfdt.h **** /*
ARM GAS  /tmp/ccsaZJXl.s 			page 7


 134:./include/linux/libfdt.h ****  * External helpers to access words from a device tree blob. They're built
 135:./include/linux/libfdt.h ****  * to work even with unaligned pointers on platforms (such as ARMv5) that don't
 136:./include/linux/libfdt.h ****  * like unaligned loads and stores.
 137:./include/linux/libfdt.h ****  */
 138:./include/linux/libfdt.h **** static inline uint16_t fdt16_ld(const fdt16_t *p)
 139:./include/linux/libfdt.h **** {
 140:./include/linux/libfdt.h **** 	const uint8_t *bp = (const uint8_t *)p;
 141:./include/linux/libfdt.h **** 
 142:./include/linux/libfdt.h **** 	return ((uint16_t)bp[0] << 8) | bp[1];
 143:./include/linux/libfdt.h **** }
 144:./include/linux/libfdt.h **** 
 145:./include/linux/libfdt.h **** static inline uint32_t fdt32_ld(const fdt32_t *p)
 143              		.loc 2 145 24 view .LVU26
 144              	.LBB112:
 146:./include/linux/libfdt.h **** {
 147:./include/linux/libfdt.h **** 	const uint8_t *bp = (const uint8_t *)p;
 145              		.loc 2 147 2 view .LVU27
 148:./include/linux/libfdt.h **** 
 149:./include/linux/libfdt.h **** 	return ((uint32_t)bp[0] << 24)
 146              		.loc 2 149 2 view .LVU28
 147              		.loc 2 149 22 is_stmt 0 view .LVU29
 148 0002 0279     		ldrb	r2, [r0, #4]	@ zero_extendqisi2
 150:./include/linux/libfdt.h **** 		| ((uint32_t)bp[1] << 16)
 149              		.loc 2 150 18 view .LVU30
 150 0004 4079     		ldrb	r0, [r0, #5]	@ zero_extendqisi2
 151              	.LVL12:
 152              		.loc 2 150 22 view .LVU31
 153 0006 0004     		lsls	r0, r0, #16
 154              		.loc 2 150 3 view .LVU32
 155 0008 40EA0260 		orr	r0, r0, r2, lsl #24
 151:./include/linux/libfdt.h **** 		| ((uint32_t)bp[2] << 8)
 156              		.loc 2 151 18 view .LVU33
 157 000c 9A79     		ldrb	r2, [r3, #6]	@ zero_extendqisi2
 158              		.loc 2 151 3 view .LVU34
 159 000e 40EA0220 		orr	r0, r0, r2, lsl #8
 152:./include/linux/libfdt.h **** 		| bp[3];
 160              		.loc 2 152 7 view .LVU35
 161 0012 DA79     		ldrb	r2, [r3, #7]	@ zero_extendqisi2
 162              		.loc 2 152 3 view .LVU36
 163 0014 1043     		orrs	r0, r0, r2
 164              	.LVL13:
 165              		.loc 2 152 3 view .LVU37
 166              	.LBE112:
 167              	.LBE111:
  23:./lib/fdt/fdt.c **** 		return totalsize;
 168              		.loc 1 23 2 is_stmt 1 view .LVU38
  27:./lib/fdt/fdt.c **** 		return -FDT_ERR_ALIGNMENT;
 169              		.loc 1 27 2 view .LVU39
  27:./lib/fdt/fdt.c **** 		return -FDT_ERR_ALIGNMENT;
 170              		.loc 1 27 5 is_stmt 0 view .LVU40
 171 0016 13F0070F 		tst	r3, #7
 172 001a 3ED1     		bne	.L13
  30:./lib/fdt/fdt.c **** 		/* Complete tree */
 173              		.loc 1 30 2 is_stmt 1 view .LVU41
 174              	.LVL14:
 175              	.LBB113:
 176              	.LBI113:
ARM GAS  /tmp/ccsaZJXl.s 			page 8


 145:./include/linux/libfdt.h **** {
 177              		.loc 2 145 24 view .LVU42
 178              	.LBB114:
 147:./include/linux/libfdt.h **** 
 179              		.loc 2 147 2 view .LVU43
 149:./include/linux/libfdt.h **** 		| ((uint32_t)bp[1] << 16)
 180              		.loc 2 149 2 view .LVU44
 149:./include/linux/libfdt.h **** 		| ((uint32_t)bp[1] << 16)
 181              		.loc 2 149 22 is_stmt 0 view .LVU45
 182 001c 1978     		ldrb	r1, [r3]	@ zero_extendqisi2
 150:./include/linux/libfdt.h **** 		| ((uint32_t)bp[2] << 8)
 183              		.loc 2 150 18 view .LVU46
 184 001e 5A78     		ldrb	r2, [r3, #1]	@ zero_extendqisi2
 150:./include/linux/libfdt.h **** 		| ((uint32_t)bp[2] << 8)
 185              		.loc 2 150 22 view .LVU47
 186 0020 1204     		lsls	r2, r2, #16
 150:./include/linux/libfdt.h **** 		| ((uint32_t)bp[2] << 8)
 187              		.loc 2 150 3 view .LVU48
 188 0022 42EA0162 		orr	r2, r2, r1, lsl #24
 151:./include/linux/libfdt.h **** 		| bp[3];
 189              		.loc 2 151 18 view .LVU49
 190 0026 9978     		ldrb	r1, [r3, #2]	@ zero_extendqisi2
 151:./include/linux/libfdt.h **** 		| bp[3];
 191              		.loc 2 151 3 view .LVU50
 192 0028 42EA0122 		orr	r2, r2, r1, lsl #8
 193              		.loc 2 152 7 view .LVU51
 194 002c D978     		ldrb	r1, [r3, #3]	@ zero_extendqisi2
 195              		.loc 2 152 3 view .LVU52
 196 002e 0A43     		orrs	r2, r2, r1
 197              	.LVL15:
 198              		.loc 2 152 3 view .LVU53
 199              	.LBE114:
 200              	.LBE113:
  30:./lib/fdt/fdt.c **** 		/* Complete tree */
 201              		.loc 1 30 5 discriminator 1 view .LVU54
 202 0030 2149     		ldr	r1, .L20
 203 0032 8A42     		cmp	r2, r1
 204 0034 16D0     		beq	.L19
  39:./lib/fdt/fdt.c **** 		/* Unfinished sequential-write blob */
 205              		.loc 1 39 9 is_stmt 1 view .LVU55
 206              	.LVL16:
  39:./lib/fdt/fdt.c **** 		/* Unfinished sequential-write blob */
 207              		.loc 1 39 12 is_stmt 0 discriminator 1 view .LVU56
 208 0036 2149     		ldr	r1, .L20+4
 209 0038 8A42     		cmp	r2, r1
 210 003a 34D1     		bne	.L16
  41:./lib/fdt/fdt.c **** 			return -FDT_ERR_BADSTATE;
 211              		.loc 1 41 3 is_stmt 1 view .LVU57
 212              	.LVL17:
 213              	.LBB115:
 214              	.LBI115:
 145:./include/linux/libfdt.h **** {
 215              		.loc 2 145 24 view .LVU58
 216              	.LBB116:
 147:./include/linux/libfdt.h **** 
 217              		.loc 2 147 2 view .LVU59
 149:./include/linux/libfdt.h **** 		| ((uint32_t)bp[1] << 16)
ARM GAS  /tmp/ccsaZJXl.s 			page 9


 218              		.loc 2 149 2 view .LVU60
 149:./include/linux/libfdt.h **** 		| ((uint32_t)bp[1] << 16)
 219              		.loc 2 149 22 is_stmt 0 view .LVU61
 220 003c 93F82410 		ldrb	r1, [r3, #36]	@ zero_extendqisi2
 150:./include/linux/libfdt.h **** 		| ((uint32_t)bp[2] << 8)
 221              		.loc 2 150 18 view .LVU62
 222 0040 93F82520 		ldrb	r2, [r3, #37]	@ zero_extendqisi2
 150:./include/linux/libfdt.h **** 		| ((uint32_t)bp[2] << 8)
 223              		.loc 2 150 22 view .LVU63
 224 0044 1204     		lsls	r2, r2, #16
 150:./include/linux/libfdt.h **** 		| ((uint32_t)bp[2] << 8)
 225              		.loc 2 150 3 view .LVU64
 226 0046 42EA0162 		orr	r2, r2, r1, lsl #24
 151:./include/linux/libfdt.h **** 		| bp[3];
 227              		.loc 2 151 18 view .LVU65
 228 004a 93F82610 		ldrb	r1, [r3, #38]	@ zero_extendqisi2
 151:./include/linux/libfdt.h **** 		| bp[3];
 229              		.loc 2 151 3 view .LVU66
 230 004e 42EA0122 		orr	r2, r2, r1, lsl #8
 231              		.loc 2 152 7 view .LVU67
 232 0052 93F82730 		ldrb	r3, [r3, #39]	@ zero_extendqisi2
 233              	.LVL18:
 234              		.loc 2 152 7 view .LVU68
 235              	.LBE116:
 236              	.LBE115:
  41:./lib/fdt/fdt.c **** 			return -FDT_ERR_BADSTATE;
 237              		.loc 1 41 32 discriminator 1 view .LVU69
 238 0056 1A43     		orrs	r2, r2, r3
 239 0058 28D0     		beq	.L17
 240              	.LVL19:
 241              	.L12:
  47:./lib/fdt/fdt.c **** 		return totalsize;
 242              		.loc 1 47 2 is_stmt 1 view .LVU70
  47:./lib/fdt/fdt.c **** 		return totalsize;
 243              		.loc 1 47 5 is_stmt 0 view .LVU71
 244 005a 6FF00043 		mvn	r3, #-2147483648
 245 005e 9842     		cmp	r0, r3
 246 0060 27D2     		bcs	.L18
  48:./lib/fdt/fdt.c **** 	else
 247              		.loc 1 48 3 is_stmt 1 view .LVU72
  48:./lib/fdt/fdt.c **** 	else
 248              		.loc 1 48 10 is_stmt 0 view .LVU73
 249 0062 7047     		bx	lr
 250              	.LVL20:
 251              	.L19:
  32:./lib/fdt/fdt.c **** 			if (fdt_version(fdt) < FDT_FIRST_SUPPORTED_VERSION)
 252              		.loc 1 32 3 is_stmt 1 view .LVU74
  33:./lib/fdt/fdt.c **** 				return -FDT_ERR_BADVERSION;
 253              		.loc 1 33 4 view .LVU75
 254              	.LBB117:
 255              	.LBI117:
 145:./include/linux/libfdt.h **** {
 256              		.loc 2 145 24 view .LVU76
 257              	.LBB118:
 147:./include/linux/libfdt.h **** 
 258              		.loc 2 147 2 view .LVU77
 149:./include/linux/libfdt.h **** 		| ((uint32_t)bp[1] << 16)
ARM GAS  /tmp/ccsaZJXl.s 			page 10


 259              		.loc 2 149 2 view .LVU78
 149:./include/linux/libfdt.h **** 		| ((uint32_t)bp[1] << 16)
 260              		.loc 2 149 22 is_stmt 0 view .LVU79
 261 0064 197D     		ldrb	r1, [r3, #20]	@ zero_extendqisi2
 150:./include/linux/libfdt.h **** 		| ((uint32_t)bp[2] << 8)
 262              		.loc 2 150 18 view .LVU80
 263 0066 5A7D     		ldrb	r2, [r3, #21]	@ zero_extendqisi2
 150:./include/linux/libfdt.h **** 		| ((uint32_t)bp[2] << 8)
 264              		.loc 2 150 22 view .LVU81
 265 0068 1204     		lsls	r2, r2, #16
 150:./include/linux/libfdt.h **** 		| ((uint32_t)bp[2] << 8)
 266              		.loc 2 150 3 view .LVU82
 267 006a 42EA0162 		orr	r2, r2, r1, lsl #24
 151:./include/linux/libfdt.h **** 		| bp[3];
 268              		.loc 2 151 18 view .LVU83
 269 006e 997D     		ldrb	r1, [r3, #22]	@ zero_extendqisi2
 151:./include/linux/libfdt.h **** 		| bp[3];
 270              		.loc 2 151 3 view .LVU84
 271 0070 42EA0122 		orr	r2, r2, r1, lsl #8
 272              		.loc 2 152 7 view .LVU85
 273 0074 D97D     		ldrb	r1, [r3, #23]	@ zero_extendqisi2
 274              		.loc 2 152 3 view .LVU86
 275 0076 0A43     		orrs	r2, r2, r1
 276              	.LVL21:
 277              		.loc 2 152 3 view .LVU87
 278              	.LBE118:
 279              	.LBE117:
  33:./lib/fdt/fdt.c **** 				return -FDT_ERR_BADVERSION;
 280              		.loc 1 33 7 discriminator 1 view .LVU88
 281 0078 012A     		cmp	r2, #1
 282 007a 11D9     		bls	.L14
  35:./lib/fdt/fdt.c **** 					FDT_LAST_SUPPORTED_VERSION)
 283              		.loc 1 35 4 is_stmt 1 view .LVU89
 284              	.LVL22:
 285              	.LBB119:
 286              	.LBI119:
 145:./include/linux/libfdt.h **** {
 287              		.loc 2 145 24 view .LVU90
 288              	.LBB120:
 147:./include/linux/libfdt.h **** 
 289              		.loc 2 147 2 view .LVU91
 149:./include/linux/libfdt.h **** 		| ((uint32_t)bp[1] << 16)
 290              		.loc 2 149 2 view .LVU92
 149:./include/linux/libfdt.h **** 		| ((uint32_t)bp[1] << 16)
 291              		.loc 2 149 22 is_stmt 0 view .LVU93
 292 007c 197E     		ldrb	r1, [r3, #24]	@ zero_extendqisi2
 150:./include/linux/libfdt.h **** 		| ((uint32_t)bp[2] << 8)
 293              		.loc 2 150 18 view .LVU94
 294 007e 5A7E     		ldrb	r2, [r3, #25]	@ zero_extendqisi2
 150:./include/linux/libfdt.h **** 		| ((uint32_t)bp[2] << 8)
 295              		.loc 2 150 22 view .LVU95
 296 0080 1204     		lsls	r2, r2, #16
 150:./include/linux/libfdt.h **** 		| ((uint32_t)bp[2] << 8)
 297              		.loc 2 150 3 view .LVU96
 298 0082 42EA0162 		orr	r2, r2, r1, lsl #24
 151:./include/linux/libfdt.h **** 		| bp[3];
 299              		.loc 2 151 18 view .LVU97
ARM GAS  /tmp/ccsaZJXl.s 			page 11


 300 0086 997E     		ldrb	r1, [r3, #26]	@ zero_extendqisi2
 151:./include/linux/libfdt.h **** 		| bp[3];
 301              		.loc 2 151 3 view .LVU98
 302 0088 42EA0122 		orr	r2, r2, r1, lsl #8
 303              		.loc 2 152 7 view .LVU99
 304 008c DB7E     		ldrb	r3, [r3, #27]	@ zero_extendqisi2
 305              	.LVL23:
 306              		.loc 2 152 3 view .LVU100
 307 008e 1343     		orrs	r3, r3, r2
 308              	.LVL24:
 309              		.loc 2 152 3 view .LVU101
 310              	.LBE120:
 311              	.LBE119:
  35:./lib/fdt/fdt.c **** 					FDT_LAST_SUPPORTED_VERSION)
 312              		.loc 1 35 7 discriminator 1 view .LVU102
 313 0090 112B     		cmp	r3, #17
 314 0092 E2D9     		bls	.L12
  37:./lib/fdt/fdt.c **** 		}
 315              		.loc 1 37 12 view .LVU103
 316 0094 6FF00900 		mvn	r0, #9
 317              	.LVL25:
  37:./lib/fdt/fdt.c **** 		}
 318              		.loc 1 37 12 view .LVU104
 319 0098 7047     		bx	lr
 320              	.LVL26:
 321              	.L13:
  28:./lib/fdt/fdt.c **** 
 322              		.loc 1 28 10 view .LVU105
 323 009a 6FF01200 		mvn	r0, #18
 324              	.LVL27:
  28:./lib/fdt/fdt.c **** 
 325              		.loc 1 28 10 view .LVU106
 326 009e 7047     		bx	lr
 327              	.LVL28:
 328              	.L14:
  34:./lib/fdt/fdt.c **** 			if (fdt_last_comp_version(fdt) >
 329              		.loc 1 34 12 view .LVU107
 330 00a0 6FF00900 		mvn	r0, #9
 331              	.LVL29:
  34:./lib/fdt/fdt.c **** 			if (fdt_last_comp_version(fdt) >
 332              		.loc 1 34 12 view .LVU108
 333 00a4 7047     		bx	lr
 334              	.LVL30:
 335              	.L16:
  44:./lib/fdt/fdt.c **** 	}
 336              		.loc 1 44 10 view .LVU109
 337 00a6 6FF00800 		mvn	r0, #8
 338              	.LVL31:
  44:./lib/fdt/fdt.c **** 	}
 339              		.loc 1 44 10 view .LVU110
 340 00aa 7047     		bx	lr
 341              	.LVL32:
 342              	.L17:
  42:./lib/fdt/fdt.c **** 	} else {
 343              		.loc 1 42 11 view .LVU111
 344 00ac 6FF00600 		mvn	r0, #6
 345              	.LVL33:
ARM GAS  /tmp/ccsaZJXl.s 			page 12


  42:./lib/fdt/fdt.c **** 	} else {
 346              		.loc 1 42 11 view .LVU112
 347 00b0 7047     		bx	lr
 348              	.LVL34:
 349              	.L18:
  50:./lib/fdt/fdt.c **** }
 350              		.loc 1 50 10 view .LVU113
 351 00b2 6FF00700 		mvn	r0, #7
 352              	.LVL35:
  51:./lib/fdt/fdt.c **** 
 353              		.loc 1 51 1 view .LVU114
 354 00b6 7047     		bx	lr
 355              	.L21:
 356              		.align	2
 357              	.L20:
 358 00b8 EDFE0DD0 		.word	-804389139
 359 00bc 1201F22F 		.word	804389138
 360              		.cfi_endproc
 361              	.LFE75:
 363              		.section	.text.fdt_header_size_,"ax",%progbits
 364              		.align	1
 365              		.global	fdt_header_size_
 366              		.syntax unified
 367              		.thumb
 368              		.thumb_func
 370              	fdt_header_size_:
 371              	.LVL36:
 372              	.LFB78:
  69:./lib/fdt/fdt.c **** 
  70:./lib/fdt/fdt.c **** size_t fdt_header_size_(uint32_t version)
  71:./lib/fdt/fdt.c **** {
 373              		.loc 1 71 1 is_stmt 1 view -0
 374              		.cfi_startproc
 375              		@ args = 0, pretend = 0, frame = 0
 376              		@ frame_needed = 0, uses_anonymous_args = 0
 377              		@ link register save eliminated.
  72:./lib/fdt/fdt.c **** 	if (version <= 1)
 378              		.loc 1 72 2 view .LVU116
 379              		.loc 1 72 5 is_stmt 0 view .LVU117
 380 0000 0128     		cmp	r0, #1
 381 0002 07D9     		bls	.L24
  73:./lib/fdt/fdt.c **** 		return FDT_V1_SIZE;
  74:./lib/fdt/fdt.c **** 	else if (version <= 2)
 382              		.loc 1 74 7 is_stmt 1 view .LVU118
 383              		.loc 1 74 10 is_stmt 0 view .LVU119
 384 0004 0228     		cmp	r0, #2
 385 0006 07D9     		bls	.L25
  75:./lib/fdt/fdt.c **** 		return FDT_V2_SIZE;
  76:./lib/fdt/fdt.c **** 	else if (version <= 3)
 386              		.loc 1 76 7 is_stmt 1 view .LVU120
 387              		.loc 1 76 10 is_stmt 0 view .LVU121
 388 0008 0328     		cmp	r0, #3
 389 000a 07D9     		bls	.L26
  77:./lib/fdt/fdt.c **** 		return FDT_V3_SIZE;
  78:./lib/fdt/fdt.c **** 	else if (version <= 16)
 390              		.loc 1 78 7 is_stmt 1 view .LVU122
 391              		.loc 1 78 10 is_stmt 0 view .LVU123
ARM GAS  /tmp/ccsaZJXl.s 			page 13


 392 000c 1028     		cmp	r0, #16
 393 000e 07D8     		bhi	.L27
  79:./lib/fdt/fdt.c **** 		return FDT_V16_SIZE;
 394              		.loc 1 79 10 view .LVU124
 395 0010 2420     		movs	r0, #36
 396              	.LVL37:
 397              		.loc 1 79 10 view .LVU125
 398 0012 7047     		bx	lr
 399              	.LVL38:
 400              	.L24:
  73:./lib/fdt/fdt.c **** 	else if (version <= 2)
 401              		.loc 1 73 10 view .LVU126
 402 0014 1C20     		movs	r0, #28
 403              	.LVL39:
  73:./lib/fdt/fdt.c **** 	else if (version <= 2)
 404              		.loc 1 73 10 view .LVU127
 405 0016 7047     		bx	lr
 406              	.LVL40:
 407              	.L25:
  75:./lib/fdt/fdt.c **** 	else if (version <= 3)
 408              		.loc 1 75 10 view .LVU128
 409 0018 2020     		movs	r0, #32
 410              	.LVL41:
  75:./lib/fdt/fdt.c **** 	else if (version <= 3)
 411              		.loc 1 75 10 view .LVU129
 412 001a 7047     		bx	lr
 413              	.LVL42:
 414              	.L26:
  77:./lib/fdt/fdt.c **** 	else if (version <= 16)
 415              		.loc 1 77 10 view .LVU130
 416 001c 2420     		movs	r0, #36
 417              	.LVL43:
  77:./lib/fdt/fdt.c **** 	else if (version <= 16)
 418              		.loc 1 77 10 view .LVU131
 419 001e 7047     		bx	lr
 420              	.LVL44:
 421              	.L27:
  80:./lib/fdt/fdt.c **** 	else
  81:./lib/fdt/fdt.c **** 		return FDT_V17_SIZE;
 422              		.loc 1 81 10 view .LVU132
 423 0020 2820     		movs	r0, #40
 424              	.LVL45:
  82:./lib/fdt/fdt.c **** }
 425              		.loc 1 82 1 view .LVU133
 426 0022 7047     		bx	lr
 427              		.cfi_endproc
 428              	.LFE78:
 430              		.section	.text.fdt_header_size,"ax",%progbits
 431              		.align	1
 432              		.global	fdt_header_size
 433              		.syntax unified
 434              		.thumb
 435              		.thumb_func
 437              	fdt_header_size:
 438              	.LVL46:
 439              	.LFB79:
  83:./lib/fdt/fdt.c **** 
ARM GAS  /tmp/ccsaZJXl.s 			page 14


  84:./lib/fdt/fdt.c **** size_t fdt_header_size(const void *fdt)
  85:./lib/fdt/fdt.c **** {
 440              		.loc 1 85 1 is_stmt 1 view -0
 441              		.cfi_startproc
 442              		@ args = 0, pretend = 0, frame = 0
 443              		@ frame_needed = 0, uses_anonymous_args = 0
 444              		.loc 1 85 1 is_stmt 0 view .LVU135
 445 0000 08B5     		push	{r3, lr}
 446              	.LCFI1:
 447              		.cfi_def_cfa_offset 8
 448              		.cfi_offset 3, -8
 449              		.cfi_offset 14, -4
  86:./lib/fdt/fdt.c **** 	return can_assume(LATEST) ? FDT_V17_SIZE :
 450              		.loc 1 86 2 is_stmt 1 view .LVU136
 451              	.LVL47:
 452              	.LBB121:
 453              	.LBI121:
 145:./include/linux/libfdt.h **** {
 454              		.loc 2 145 24 view .LVU137
 455              	.LBB122:
 147:./include/linux/libfdt.h **** 
 456              		.loc 2 147 2 view .LVU138
 149:./include/linux/libfdt.h **** 		| ((uint32_t)bp[1] << 16)
 457              		.loc 2 149 2 view .LVU139
 149:./include/linux/libfdt.h **** 		| ((uint32_t)bp[1] << 16)
 458              		.loc 2 149 22 is_stmt 0 view .LVU140
 459 0002 027D     		ldrb	r2, [r0, #20]	@ zero_extendqisi2
 150:./include/linux/libfdt.h **** 		| ((uint32_t)bp[2] << 8)
 460              		.loc 2 150 18 view .LVU141
 461 0004 437D     		ldrb	r3, [r0, #21]	@ zero_extendqisi2
 150:./include/linux/libfdt.h **** 		| ((uint32_t)bp[2] << 8)
 462              		.loc 2 150 22 view .LVU142
 463 0006 1B04     		lsls	r3, r3, #16
 150:./include/linux/libfdt.h **** 		| ((uint32_t)bp[2] << 8)
 464              		.loc 2 150 3 view .LVU143
 465 0008 43EA0263 		orr	r3, r3, r2, lsl #24
 151:./include/linux/libfdt.h **** 		| bp[3];
 466              		.loc 2 151 18 view .LVU144
 467 000c 827D     		ldrb	r2, [r0, #22]	@ zero_extendqisi2
 151:./include/linux/libfdt.h **** 		| bp[3];
 468              		.loc 2 151 3 view .LVU145
 469 000e 43EA0223 		orr	r3, r3, r2, lsl #8
 470              		.loc 2 152 7 view .LVU146
 471 0012 C07D     		ldrb	r0, [r0, #23]	@ zero_extendqisi2
 472              	.LVL48:
 473              		.loc 2 152 7 view .LVU147
 474              	.LBE122:
 475              	.LBE121:
  87:./lib/fdt/fdt.c **** 		fdt_header_size_(fdt_version(fdt));
 476              		.loc 1 87 3 discriminator 1 view .LVU148
 477 0014 1843     		orrs	r0, r0, r3
 478 0016 FFF7FEFF 		bl	fdt_header_size_
 479              	.LVL49:
  88:./lib/fdt/fdt.c **** }
 480              		.loc 1 88 1 view .LVU149
 481 001a 08BD     		pop	{r3, pc}
 482              		.cfi_endproc
ARM GAS  /tmp/ccsaZJXl.s 			page 15


 483              	.LFE79:
 485              		.section	.text.fdt_check_header,"ax",%progbits
 486              		.align	1
 487              		.global	fdt_check_header
 488              		.syntax unified
 489              		.thumb
 490              		.thumb_func
 492              	fdt_check_header:
 493              	.LVL50:
 494              	.LFB80:
  89:./lib/fdt/fdt.c **** 
  90:./lib/fdt/fdt.c **** int fdt_check_header(const void *fdt)
  91:./lib/fdt/fdt.c **** {
 495              		.loc 1 91 1 is_stmt 1 view -0
 496              		.cfi_startproc
 497              		@ args = 0, pretend = 0, frame = 0
 498              		@ frame_needed = 0, uses_anonymous_args = 0
  92:./lib/fdt/fdt.c **** 	size_t hdrsize;
 499              		.loc 1 92 2 view .LVU151
  93:./lib/fdt/fdt.c **** 
  94:./lib/fdt/fdt.c **** 	/* The device tree must be at an 8-byte aligned address */
  95:./lib/fdt/fdt.c **** 	if ((uintptr_t)fdt & 7)
 500              		.loc 1 95 2 view .LVU152
 501              		.loc 1 95 5 is_stmt 0 view .LVU153
 502 0000 10F0070F 		tst	r0, #7
 503 0004 40F09E80 		bne	.L34
  91:./lib/fdt/fdt.c **** 	size_t hdrsize;
 504              		.loc 1 91 1 view .LVU154
 505 0008 F8B5     		push	{r3, r4, r5, r6, r7, lr}
 506              	.LCFI2:
 507              		.cfi_def_cfa_offset 24
 508              		.cfi_offset 3, -24
 509              		.cfi_offset 4, -20
 510              		.cfi_offset 5, -16
 511              		.cfi_offset 6, -12
 512              		.cfi_offset 7, -8
 513              		.cfi_offset 14, -4
 514 000a 0446     		mov	r4, r0
  96:./lib/fdt/fdt.c **** 		return -FDT_ERR_ALIGNMENT;
  97:./lib/fdt/fdt.c **** 
  98:./lib/fdt/fdt.c **** 	if (fdt_magic(fdt) != FDT_MAGIC)
 515              		.loc 1 98 2 is_stmt 1 view .LVU155
 516              	.LVL51:
 517              	.LBB123:
 518              	.LBI123:
 145:./include/linux/libfdt.h **** {
 519              		.loc 2 145 24 view .LVU156
 520              	.LBB124:
 147:./include/linux/libfdt.h **** 
 521              		.loc 2 147 2 view .LVU157
 149:./include/linux/libfdt.h **** 		| ((uint32_t)bp[1] << 16)
 522              		.loc 2 149 2 view .LVU158
 149:./include/linux/libfdt.h **** 		| ((uint32_t)bp[1] << 16)
 523              		.loc 2 149 22 is_stmt 0 view .LVU159
 524 000c 0278     		ldrb	r2, [r0]	@ zero_extendqisi2
 150:./include/linux/libfdt.h **** 		| ((uint32_t)bp[2] << 8)
 525              		.loc 2 150 18 view .LVU160
ARM GAS  /tmp/ccsaZJXl.s 			page 16


 526 000e 4378     		ldrb	r3, [r0, #1]	@ zero_extendqisi2
 150:./include/linux/libfdt.h **** 		| ((uint32_t)bp[2] << 8)
 527              		.loc 2 150 22 view .LVU161
 528 0010 1B04     		lsls	r3, r3, #16
 150:./include/linux/libfdt.h **** 		| ((uint32_t)bp[2] << 8)
 529              		.loc 2 150 3 view .LVU162
 530 0012 43EA0263 		orr	r3, r3, r2, lsl #24
 151:./include/linux/libfdt.h **** 		| bp[3];
 531              		.loc 2 151 18 view .LVU163
 532 0016 8278     		ldrb	r2, [r0, #2]	@ zero_extendqisi2
 151:./include/linux/libfdt.h **** 		| bp[3];
 533              		.loc 2 151 3 view .LVU164
 534 0018 43EA0223 		orr	r3, r3, r2, lsl #8
 535              		.loc 2 152 7 view .LVU165
 536 001c C278     		ldrb	r2, [r0, #3]	@ zero_extendqisi2
 537              		.loc 2 152 3 view .LVU166
 538 001e 1343     		orrs	r3, r3, r2
 539              	.LVL52:
 540              		.loc 2 152 3 view .LVU167
 541              	.LBE124:
 542              	.LBE123:
 543              		.loc 1 98 5 discriminator 1 view .LVU168
 544 0020 574A     		ldr	r2, .L50
 545 0022 9342     		cmp	r3, r2
 546 0024 40F09180 		bne	.L35
  99:./lib/fdt/fdt.c **** 		return -FDT_ERR_BADMAGIC;
 100:./lib/fdt/fdt.c **** 	if (!can_assume(LATEST)) {
 547              		.loc 1 100 2 is_stmt 1 view .LVU169
 101:./lib/fdt/fdt.c **** 		if ((fdt_version(fdt) < FDT_FIRST_SUPPORTED_VERSION)
 548              		.loc 1 101 3 view .LVU170
 549              	.LVL53:
 550              	.LBB125:
 551              	.LBI125:
 145:./include/linux/libfdt.h **** {
 552              		.loc 2 145 24 view .LVU171
 553              	.LBB126:
 147:./include/linux/libfdt.h **** 
 554              		.loc 2 147 2 view .LVU172
 149:./include/linux/libfdt.h **** 		| ((uint32_t)bp[1] << 16)
 555              		.loc 2 149 2 view .LVU173
 149:./include/linux/libfdt.h **** 		| ((uint32_t)bp[1] << 16)
 556              		.loc 2 149 22 is_stmt 0 view .LVU174
 557 0028 037D     		ldrb	r3, [r0, #20]	@ zero_extendqisi2
 150:./include/linux/libfdt.h **** 		| ((uint32_t)bp[2] << 8)
 558              		.loc 2 150 18 view .LVU175
 559 002a 467D     		ldrb	r6, [r0, #21]	@ zero_extendqisi2
 150:./include/linux/libfdt.h **** 		| ((uint32_t)bp[2] << 8)
 560              		.loc 2 150 22 view .LVU176
 561 002c 3604     		lsls	r6, r6, #16
 150:./include/linux/libfdt.h **** 		| ((uint32_t)bp[2] << 8)
 562              		.loc 2 150 3 view .LVU177
 563 002e 46EA0366 		orr	r6, r6, r3, lsl #24
 151:./include/linux/libfdt.h **** 		| bp[3];
 564              		.loc 2 151 18 view .LVU178
 565 0032 837D     		ldrb	r3, [r0, #22]	@ zero_extendqisi2
 151:./include/linux/libfdt.h **** 		| bp[3];
 566              		.loc 2 151 3 view .LVU179
ARM GAS  /tmp/ccsaZJXl.s 			page 17


 567 0034 46EA0326 		orr	r6, r6, r3, lsl #8
 568              		.loc 2 152 7 view .LVU180
 569 0038 C37D     		ldrb	r3, [r0, #23]	@ zero_extendqisi2
 570              		.loc 2 152 3 view .LVU181
 571 003a 1E43     		orrs	r6, r6, r3
 572              	.LVL54:
 573              		.loc 2 152 3 view .LVU182
 574              	.LBE126:
 575              	.LBE125:
 576              		.loc 1 101 6 discriminator 1 view .LVU183
 577 003c 012E     		cmp	r6, #1
 578 003e 40F28780 		bls	.L36
 579              	.LVL55:
 580              	.LBB127:
 581              	.LBI127:
 145:./include/linux/libfdt.h **** {
 582              		.loc 2 145 24 is_stmt 1 view .LVU184
 583              	.LBB128:
 147:./include/linux/libfdt.h **** 
 584              		.loc 2 147 2 view .LVU185
 149:./include/linux/libfdt.h **** 		| ((uint32_t)bp[1] << 16)
 585              		.loc 2 149 2 view .LVU186
 149:./include/linux/libfdt.h **** 		| ((uint32_t)bp[1] << 16)
 586              		.loc 2 149 22 is_stmt 0 view .LVU187
 587 0042 027E     		ldrb	r2, [r0, #24]	@ zero_extendqisi2
 150:./include/linux/libfdt.h **** 		| ((uint32_t)bp[2] << 8)
 588              		.loc 2 150 18 view .LVU188
 589 0044 437E     		ldrb	r3, [r0, #25]	@ zero_extendqisi2
 150:./include/linux/libfdt.h **** 		| ((uint32_t)bp[2] << 8)
 590              		.loc 2 150 22 view .LVU189
 591 0046 1B04     		lsls	r3, r3, #16
 150:./include/linux/libfdt.h **** 		| ((uint32_t)bp[2] << 8)
 592              		.loc 2 150 3 view .LVU190
 593 0048 43EA0263 		orr	r3, r3, r2, lsl #24
 151:./include/linux/libfdt.h **** 		| bp[3];
 594              		.loc 2 151 18 view .LVU191
 595 004c 827E     		ldrb	r2, [r0, #26]	@ zero_extendqisi2
 151:./include/linux/libfdt.h **** 		| bp[3];
 596              		.loc 2 151 3 view .LVU192
 597 004e 43EA0223 		orr	r3, r3, r2, lsl #8
 598              		.loc 2 152 7 view .LVU193
 599 0052 C27E     		ldrb	r2, [r0, #27]	@ zero_extendqisi2
 600              		.loc 2 152 3 view .LVU194
 601 0054 1343     		orrs	r3, r3, r2
 602              	.LVL56:
 603              		.loc 2 152 3 view .LVU195
 604              	.LBE128:
 605              	.LBE127:
 102:./lib/fdt/fdt.c **** 		    || (fdt_last_comp_version(fdt) >
 606              		.loc 1 102 7 discriminator 1 view .LVU196
 607 0056 112B     		cmp	r3, #17
 608 0058 7DD8     		bhi	.L37
 103:./lib/fdt/fdt.c **** 			FDT_LAST_SUPPORTED_VERSION))
 104:./lib/fdt/fdt.c **** 			return -FDT_ERR_BADVERSION;
 105:./lib/fdt/fdt.c **** 		if (fdt_version(fdt) < fdt_last_comp_version(fdt))
 609              		.loc 1 105 3 is_stmt 1 view .LVU197
 610              	.LVL57:
ARM GAS  /tmp/ccsaZJXl.s 			page 18


 611              		.loc 1 105 6 is_stmt 0 discriminator 2 view .LVU198
 612 005a 9E42     		cmp	r6, r3
 613 005c 7ED3     		bcc	.L38
 106:./lib/fdt/fdt.c **** 			return -FDT_ERR_BADVERSION;
 107:./lib/fdt/fdt.c **** 	}
 108:./lib/fdt/fdt.c **** 	hdrsize = fdt_header_size(fdt);
 614              		.loc 1 108 2 is_stmt 1 view .LVU199
 615              		.loc 1 108 12 is_stmt 0 view .LVU200
 616 005e FFF7FEFF 		bl	fdt_header_size
 617              	.LVL58:
 618              		.loc 1 108 12 view .LVU201
 619 0062 0746     		mov	r7, r0
 620              	.LVL59:
 109:./lib/fdt/fdt.c **** 	if (!can_assume(VALID_DTB)) {
 621              		.loc 1 109 2 is_stmt 1 view .LVU202
 110:./lib/fdt/fdt.c **** 		if ((fdt_totalsize(fdt) < hdrsize)
 622              		.loc 1 110 3 view .LVU203
 623              	.LBB129:
 624              	.LBI129:
 145:./include/linux/libfdt.h **** {
 625              		.loc 2 145 24 view .LVU204
 626              	.LBB130:
 147:./include/linux/libfdt.h **** 
 627              		.loc 2 147 2 view .LVU205
 149:./include/linux/libfdt.h **** 		| ((uint32_t)bp[1] << 16)
 628              		.loc 2 149 2 view .LVU206
 149:./include/linux/libfdt.h **** 		| ((uint32_t)bp[1] << 16)
 629              		.loc 2 149 22 is_stmt 0 view .LVU207
 630 0064 2379     		ldrb	r3, [r4, #4]	@ zero_extendqisi2
 150:./include/linux/libfdt.h **** 		| ((uint32_t)bp[2] << 8)
 631              		.loc 2 150 18 view .LVU208
 632 0066 6579     		ldrb	r5, [r4, #5]	@ zero_extendqisi2
 150:./include/linux/libfdt.h **** 		| ((uint32_t)bp[2] << 8)
 633              		.loc 2 150 22 view .LVU209
 634 0068 2D04     		lsls	r5, r5, #16
 150:./include/linux/libfdt.h **** 		| ((uint32_t)bp[2] << 8)
 635              		.loc 2 150 3 view .LVU210
 636 006a 45EA0365 		orr	r5, r5, r3, lsl #24
 151:./include/linux/libfdt.h **** 		| bp[3];
 637              		.loc 2 151 18 view .LVU211
 638 006e A379     		ldrb	r3, [r4, #6]	@ zero_extendqisi2
 151:./include/linux/libfdt.h **** 		| bp[3];
 639              		.loc 2 151 3 view .LVU212
 640 0070 45EA0325 		orr	r5, r5, r3, lsl #8
 641              		.loc 2 152 7 view .LVU213
 642 0074 E379     		ldrb	r3, [r4, #7]	@ zero_extendqisi2
 643              		.loc 2 152 3 view .LVU214
 644 0076 1D43     		orrs	r5, r5, r3
 645              	.LVL60:
 646              		.loc 2 152 3 view .LVU215
 647              	.LBE130:
 648              	.LBE129:
 649              		.loc 1 110 6 discriminator 1 view .LVU216
 650 0078 A842     		cmp	r0, r5
 651 007a 72D8     		bhi	.L39
 652              	.LVL61:
 111:./lib/fdt/fdt.c **** 		    || (fdt_totalsize(fdt) > INT_MAX))
ARM GAS  /tmp/ccsaZJXl.s 			page 19


 653              		.loc 1 111 7 discriminator 1 view .LVU217
 654 007c 002D     		cmp	r5, #0
 655 007e 73DB     		blt	.L40
 112:./lib/fdt/fdt.c **** 			return -FDT_ERR_TRUNCATED;
 113:./lib/fdt/fdt.c **** 
 114:./lib/fdt/fdt.c **** 		/* Bounds check memrsv block */
 115:./lib/fdt/fdt.c **** 		if (!check_off_(hdrsize, fdt_totalsize(fdt),
 656              		.loc 1 115 3 is_stmt 1 view .LVU218
 657              	.LVL62:
 658              	.LBB131:
 659              	.LBI131:
 145:./include/linux/libfdt.h **** {
 660              		.loc 2 145 24 view .LVU219
 661              	.LBB132:
 147:./include/linux/libfdt.h **** 
 662              		.loc 2 147 2 view .LVU220
 149:./include/linux/libfdt.h **** 		| ((uint32_t)bp[1] << 16)
 663              		.loc 2 149 2 view .LVU221
 149:./include/linux/libfdt.h **** 		| ((uint32_t)bp[1] << 16)
 664              		.loc 2 149 22 is_stmt 0 view .LVU222
 665 0080 227C     		ldrb	r2, [r4, #16]	@ zero_extendqisi2
 150:./include/linux/libfdt.h **** 		| ((uint32_t)bp[2] << 8)
 666              		.loc 2 150 18 view .LVU223
 667 0082 637C     		ldrb	r3, [r4, #17]	@ zero_extendqisi2
 150:./include/linux/libfdt.h **** 		| ((uint32_t)bp[2] << 8)
 668              		.loc 2 150 22 view .LVU224
 669 0084 1B04     		lsls	r3, r3, #16
 150:./include/linux/libfdt.h **** 		| ((uint32_t)bp[2] << 8)
 670              		.loc 2 150 3 view .LVU225
 671 0086 43EA0263 		orr	r3, r3, r2, lsl #24
 151:./include/linux/libfdt.h **** 		| bp[3];
 672              		.loc 2 151 18 view .LVU226
 673 008a A27C     		ldrb	r2, [r4, #18]	@ zero_extendqisi2
 151:./include/linux/libfdt.h **** 		| bp[3];
 674              		.loc 2 151 3 view .LVU227
 675 008c 43EA0223 		orr	r3, r3, r2, lsl #8
 676              		.loc 2 152 7 view .LVU228
 677 0090 E27C     		ldrb	r2, [r4, #19]	@ zero_extendqisi2
 678              	.LVL63:
 679              		.loc 2 152 7 view .LVU229
 680              	.LBE132:
 681              	.LBE131:
 682              		.loc 1 115 8 discriminator 2 view .LVU230
 683 0092 1A43     		orrs	r2, r2, r3
 684 0094 2946     		mov	r1, r5
 685 0096 FFF7FEFF 		bl	check_off_
 686              	.LVL64:
 687              		.loc 1 115 6 discriminator 3 view .LVU231
 688 009a 0028     		cmp	r0, #0
 689 009c 67D0     		beq	.L41
 116:./lib/fdt/fdt.c **** 				fdt_off_mem_rsvmap(fdt)))
 117:./lib/fdt/fdt.c **** 			return -FDT_ERR_TRUNCATED;
 118:./lib/fdt/fdt.c **** 
 119:./lib/fdt/fdt.c **** 		/* Bounds check structure block */
 120:./lib/fdt/fdt.c **** 		if (!can_assume(LATEST) && fdt_version(fdt) < 17) {
 690              		.loc 1 120 3 is_stmt 1 view .LVU232
 691              	.LVL65:
ARM GAS  /tmp/ccsaZJXl.s 			page 20


 692              		.loc 1 120 27 is_stmt 0 discriminator 1 view .LVU233
 693 009e 102E     		cmp	r6, #16
 694 00a0 2FD8     		bhi	.L32
 121:./lib/fdt/fdt.c **** 			if (!check_off_(hdrsize, fdt_totalsize(fdt),
 695              		.loc 1 121 4 is_stmt 1 view .LVU234
 696              	.LVL66:
 697              	.LBB133:
 698              	.LBI133:
 145:./include/linux/libfdt.h **** {
 699              		.loc 2 145 24 view .LVU235
 700              	.LBB134:
 147:./include/linux/libfdt.h **** 
 701              		.loc 2 147 2 view .LVU236
 149:./include/linux/libfdt.h **** 		| ((uint32_t)bp[1] << 16)
 702              		.loc 2 149 2 view .LVU237
 149:./include/linux/libfdt.h **** 		| ((uint32_t)bp[1] << 16)
 703              		.loc 2 149 22 is_stmt 0 view .LVU238
 704 00a2 227A     		ldrb	r2, [r4, #8]	@ zero_extendqisi2
 150:./include/linux/libfdt.h **** 		| ((uint32_t)bp[2] << 8)
 705              		.loc 2 150 18 view .LVU239
 706 00a4 637A     		ldrb	r3, [r4, #9]	@ zero_extendqisi2
 150:./include/linux/libfdt.h **** 		| ((uint32_t)bp[2] << 8)
 707              		.loc 2 150 22 view .LVU240
 708 00a6 1B04     		lsls	r3, r3, #16
 150:./include/linux/libfdt.h **** 		| ((uint32_t)bp[2] << 8)
 709              		.loc 2 150 3 view .LVU241
 710 00a8 43EA0263 		orr	r3, r3, r2, lsl #24
 151:./include/linux/libfdt.h **** 		| bp[3];
 711              		.loc 2 151 18 view .LVU242
 712 00ac A27A     		ldrb	r2, [r4, #10]	@ zero_extendqisi2
 151:./include/linux/libfdt.h **** 		| bp[3];
 713              		.loc 2 151 3 view .LVU243
 714 00ae 43EA0223 		orr	r3, r3, r2, lsl #8
 715              		.loc 2 152 7 view .LVU244
 716 00b2 E27A     		ldrb	r2, [r4, #11]	@ zero_extendqisi2
 717              	.LVL67:
 718              		.loc 2 152 7 view .LVU245
 719              	.LBE134:
 720              	.LBE133:
 721              		.loc 1 121 9 discriminator 2 view .LVU246
 722 00b4 1A43     		orrs	r2, r2, r3
 723 00b6 2946     		mov	r1, r5
 724 00b8 3846     		mov	r0, r7
 725 00ba FFF7FEFF 		bl	check_off_
 726              	.LVL68:
 727              		.loc 1 121 7 discriminator 3 view .LVU247
 728 00be 0028     		cmp	r0, #0
 729 00c0 58D0     		beq	.L49
 730              	.LVL69:
 731              	.L33:
 122:./lib/fdt/fdt.c **** 					fdt_off_dt_struct(fdt)))
 123:./lib/fdt/fdt.c **** 				return -FDT_ERR_TRUNCATED;
 124:./lib/fdt/fdt.c **** 		} else {
 125:./lib/fdt/fdt.c **** 			if (!check_block_(hdrsize, fdt_totalsize(fdt),
 126:./lib/fdt/fdt.c **** 					  fdt_off_dt_struct(fdt),
 127:./lib/fdt/fdt.c **** 					  fdt_size_dt_struct(fdt)))
 128:./lib/fdt/fdt.c **** 				return -FDT_ERR_TRUNCATED;
ARM GAS  /tmp/ccsaZJXl.s 			page 21


 129:./lib/fdt/fdt.c **** 		}
 130:./lib/fdt/fdt.c **** 
 131:./lib/fdt/fdt.c **** 		/* Bounds check strings block */
 132:./lib/fdt/fdt.c **** 		if (!check_block_(hdrsize, fdt_totalsize(fdt),
 732              		.loc 1 132 3 is_stmt 1 view .LVU248
 733              	.LBB135:
 734              	.LBI135:
 145:./include/linux/libfdt.h **** {
 735              		.loc 2 145 24 view .LVU249
 736              	.LBB136:
 147:./include/linux/libfdt.h **** 
 737              		.loc 2 147 2 view .LVU250
 149:./include/linux/libfdt.h **** 		| ((uint32_t)bp[1] << 16)
 738              		.loc 2 149 2 view .LVU251
 149:./include/linux/libfdt.h **** 		| ((uint32_t)bp[1] << 16)
 739              		.loc 2 149 22 is_stmt 0 view .LVU252
 740 00c2 237B     		ldrb	r3, [r4, #12]	@ zero_extendqisi2
 150:./include/linux/libfdt.h **** 		| ((uint32_t)bp[2] << 8)
 741              		.loc 2 150 18 view .LVU253
 742 00c4 627B     		ldrb	r2, [r4, #13]	@ zero_extendqisi2
 150:./include/linux/libfdt.h **** 		| ((uint32_t)bp[2] << 8)
 743              		.loc 2 150 22 view .LVU254
 744 00c6 1204     		lsls	r2, r2, #16
 150:./include/linux/libfdt.h **** 		| ((uint32_t)bp[2] << 8)
 745              		.loc 2 150 3 view .LVU255
 746 00c8 42EA0362 		orr	r2, r2, r3, lsl #24
 151:./include/linux/libfdt.h **** 		| bp[3];
 747              		.loc 2 151 18 view .LVU256
 748 00cc A37B     		ldrb	r3, [r4, #14]	@ zero_extendqisi2
 151:./include/linux/libfdt.h **** 		| bp[3];
 749              		.loc 2 151 3 view .LVU257
 750 00ce 42EA0322 		orr	r2, r2, r3, lsl #8
 751              		.loc 2 152 7 view .LVU258
 752 00d2 E17B     		ldrb	r1, [r4, #15]	@ zero_extendqisi2
 753              	.LVL70:
 754              		.loc 2 152 7 view .LVU259
 755              	.LBE136:
 756              	.LBE135:
 757              	.LBB137:
 758              	.LBI137:
 145:./include/linux/libfdt.h **** {
 759              		.loc 2 145 24 is_stmt 1 view .LVU260
 760              	.LBB138:
 147:./include/linux/libfdt.h **** 
 761              		.loc 2 147 2 view .LVU261
 149:./include/linux/libfdt.h **** 		| ((uint32_t)bp[1] << 16)
 762              		.loc 2 149 2 view .LVU262
 149:./include/linux/libfdt.h **** 		| ((uint32_t)bp[1] << 16)
 763              		.loc 2 149 22 is_stmt 0 view .LVU263
 764 00d4 94F82000 		ldrb	r0, [r4, #32]	@ zero_extendqisi2
 150:./include/linux/libfdt.h **** 		| ((uint32_t)bp[2] << 8)
 765              		.loc 2 150 18 view .LVU264
 766 00d8 94F82130 		ldrb	r3, [r4, #33]	@ zero_extendqisi2
 150:./include/linux/libfdt.h **** 		| ((uint32_t)bp[2] << 8)
 767              		.loc 2 150 22 view .LVU265
 768 00dc 1B04     		lsls	r3, r3, #16
 150:./include/linux/libfdt.h **** 		| ((uint32_t)bp[2] << 8)
ARM GAS  /tmp/ccsaZJXl.s 			page 22


 769              		.loc 2 150 3 view .LVU266
 770 00de 43EA0063 		orr	r3, r3, r0, lsl #24
 151:./include/linux/libfdt.h **** 		| bp[3];
 771              		.loc 2 151 18 view .LVU267
 772 00e2 94F82200 		ldrb	r0, [r4, #34]	@ zero_extendqisi2
 151:./include/linux/libfdt.h **** 		| bp[3];
 773              		.loc 2 151 3 view .LVU268
 774 00e6 43EA0023 		orr	r3, r3, r0, lsl #8
 775              		.loc 2 152 7 view .LVU269
 776 00ea 94F82300 		ldrb	r0, [r4, #35]	@ zero_extendqisi2
 777              	.LVL71:
 778              		.loc 2 152 7 view .LVU270
 779              	.LBE138:
 780              	.LBE137:
 781              		.loc 1 132 8 discriminator 3 view .LVU271
 782 00ee 0343     		orrs	r3, r3, r0
 783 00f0 0A43     		orrs	r2, r2, r1
 784 00f2 2946     		mov	r1, r5
 785 00f4 3846     		mov	r0, r7
 786 00f6 FFF7FEFF 		bl	check_block_
 787              	.LVL72:
 788              		.loc 1 132 6 discriminator 4 view .LVU272
 789 00fa 0028     		cmp	r0, #0
 790 00fc 3DD0     		beq	.L44
 133:./lib/fdt/fdt.c **** 				  fdt_off_dt_strings(fdt),
 134:./lib/fdt/fdt.c **** 				  fdt_size_dt_strings(fdt)))
 135:./lib/fdt/fdt.c **** 			return -FDT_ERR_TRUNCATED;
 136:./lib/fdt/fdt.c **** 	}
 137:./lib/fdt/fdt.c **** 
 138:./lib/fdt/fdt.c **** 	return 0;
 791              		.loc 1 138 9 view .LVU273
 792 00fe 0020     		movs	r0, #0
 793              	.LVL73:
 794              	.L30:
 139:./lib/fdt/fdt.c **** }
 795              		.loc 1 139 1 view .LVU274
 796 0100 F8BD     		pop	{r3, r4, r5, r6, r7, pc}
 797              	.LVL74:
 798              	.L32:
 125:./lib/fdt/fdt.c **** 					  fdt_off_dt_struct(fdt),
 799              		.loc 1 125 4 is_stmt 1 view .LVU275
 800              	.LBB139:
 801              	.LBI139:
 145:./include/linux/libfdt.h **** {
 802              		.loc 2 145 24 view .LVU276
 803              	.LBB140:
 147:./include/linux/libfdt.h **** 
 804              		.loc 2 147 2 view .LVU277
 149:./include/linux/libfdt.h **** 		| ((uint32_t)bp[1] << 16)
 805              		.loc 2 149 2 view .LVU278
 149:./include/linux/libfdt.h **** 		| ((uint32_t)bp[1] << 16)
 806              		.loc 2 149 22 is_stmt 0 view .LVU279
 807 0102 237A     		ldrb	r3, [r4, #8]	@ zero_extendqisi2
 150:./include/linux/libfdt.h **** 		| ((uint32_t)bp[2] << 8)
 808              		.loc 2 150 18 view .LVU280
 809 0104 627A     		ldrb	r2, [r4, #9]	@ zero_extendqisi2
 150:./include/linux/libfdt.h **** 		| ((uint32_t)bp[2] << 8)
ARM GAS  /tmp/ccsaZJXl.s 			page 23


 810              		.loc 2 150 22 view .LVU281
 811 0106 1204     		lsls	r2, r2, #16
 150:./include/linux/libfdt.h **** 		| ((uint32_t)bp[2] << 8)
 812              		.loc 2 150 3 view .LVU282
 813 0108 42EA0362 		orr	r2, r2, r3, lsl #24
 151:./include/linux/libfdt.h **** 		| bp[3];
 814              		.loc 2 151 18 view .LVU283
 815 010c A37A     		ldrb	r3, [r4, #10]	@ zero_extendqisi2
 151:./include/linux/libfdt.h **** 		| bp[3];
 816              		.loc 2 151 3 view .LVU284
 817 010e 42EA0322 		orr	r2, r2, r3, lsl #8
 818              		.loc 2 152 7 view .LVU285
 819 0112 E17A     		ldrb	r1, [r4, #11]	@ zero_extendqisi2
 820              	.LVL75:
 821              		.loc 2 152 7 view .LVU286
 822              	.LBE140:
 823              	.LBE139:
 824              	.LBB141:
 825              	.LBI141:
 145:./include/linux/libfdt.h **** {
 826              		.loc 2 145 24 is_stmt 1 view .LVU287
 827              	.LBB142:
 147:./include/linux/libfdt.h **** 
 828              		.loc 2 147 2 view .LVU288
 149:./include/linux/libfdt.h **** 		| ((uint32_t)bp[1] << 16)
 829              		.loc 2 149 2 view .LVU289
 149:./include/linux/libfdt.h **** 		| ((uint32_t)bp[1] << 16)
 830              		.loc 2 149 22 is_stmt 0 view .LVU290
 831 0114 94F82400 		ldrb	r0, [r4, #36]	@ zero_extendqisi2
 150:./include/linux/libfdt.h **** 		| ((uint32_t)bp[2] << 8)
 832              		.loc 2 150 18 view .LVU291
 833 0118 94F82530 		ldrb	r3, [r4, #37]	@ zero_extendqisi2
 150:./include/linux/libfdt.h **** 		| ((uint32_t)bp[2] << 8)
 834              		.loc 2 150 22 view .LVU292
 835 011c 1B04     		lsls	r3, r3, #16
 150:./include/linux/libfdt.h **** 		| ((uint32_t)bp[2] << 8)
 836              		.loc 2 150 3 view .LVU293
 837 011e 43EA0063 		orr	r3, r3, r0, lsl #24
 151:./include/linux/libfdt.h **** 		| bp[3];
 838              		.loc 2 151 18 view .LVU294
 839 0122 94F82600 		ldrb	r0, [r4, #38]	@ zero_extendqisi2
 151:./include/linux/libfdt.h **** 		| bp[3];
 840              		.loc 2 151 3 view .LVU295
 841 0126 43EA0023 		orr	r3, r3, r0, lsl #8
 842              		.loc 2 152 7 view .LVU296
 843 012a 94F82700 		ldrb	r0, [r4, #39]	@ zero_extendqisi2
 844              	.LVL76:
 845              		.loc 2 152 7 view .LVU297
 846              	.LBE142:
 847              	.LBE141:
 125:./lib/fdt/fdt.c **** 					  fdt_off_dt_struct(fdt),
 848              		.loc 1 125 9 discriminator 3 view .LVU298
 849 012e 0343     		orrs	r3, r3, r0
 850 0130 0A43     		orrs	r2, r2, r1
 851 0132 2946     		mov	r1, r5
 852 0134 3846     		mov	r0, r7
 853 0136 FFF7FEFF 		bl	check_block_
ARM GAS  /tmp/ccsaZJXl.s 			page 24


 854              	.LVL77:
 125:./lib/fdt/fdt.c **** 					  fdt_off_dt_struct(fdt),
 855              		.loc 1 125 7 discriminator 4 view .LVU299
 856 013a 0028     		cmp	r0, #0
 857 013c C1D1     		bne	.L33
 128:./lib/fdt/fdt.c **** 		}
 858              		.loc 1 128 12 view .LVU300
 859 013e 6FF00700 		mvn	r0, #7
 860 0142 DDE7     		b	.L30
 861              	.LVL78:
 862              	.L34:
 863              	.LCFI3:
 864              		.cfi_def_cfa_offset 0
 865              		.cfi_restore 3
 866              		.cfi_restore 4
 867              		.cfi_restore 5
 868              		.cfi_restore 6
 869              		.cfi_restore 7
 870              		.cfi_restore 14
  96:./lib/fdt/fdt.c **** 
 871              		.loc 1 96 10 view .LVU301
 872 0144 6FF01200 		mvn	r0, #18
 873              	.LVL79:
 874              		.loc 1 139 1 view .LVU302
 875 0148 7047     		bx	lr
 876              	.LVL80:
 877              	.L35:
 878              	.LCFI4:
 879              		.cfi_def_cfa_offset 24
 880              		.cfi_offset 3, -24
 881              		.cfi_offset 4, -20
 882              		.cfi_offset 5, -16
 883              		.cfi_offset 6, -12
 884              		.cfi_offset 7, -8
 885              		.cfi_offset 14, -4
  99:./lib/fdt/fdt.c **** 	if (!can_assume(LATEST)) {
 886              		.loc 1 99 10 view .LVU303
 887 014a 6FF00800 		mvn	r0, #8
 888              	.LVL81:
  99:./lib/fdt/fdt.c **** 	if (!can_assume(LATEST)) {
 889              		.loc 1 99 10 view .LVU304
 890 014e D7E7     		b	.L30
 891              	.LVL82:
 892              	.L36:
 104:./lib/fdt/fdt.c **** 		if (fdt_version(fdt) < fdt_last_comp_version(fdt))
 893              		.loc 1 104 11 view .LVU305
 894 0150 6FF00900 		mvn	r0, #9
 895              	.LVL83:
 104:./lib/fdt/fdt.c **** 		if (fdt_version(fdt) < fdt_last_comp_version(fdt))
 896              		.loc 1 104 11 view .LVU306
 897 0154 D4E7     		b	.L30
 898              	.LVL84:
 899              	.L37:
 104:./lib/fdt/fdt.c **** 		if (fdt_version(fdt) < fdt_last_comp_version(fdt))
 900              		.loc 1 104 11 view .LVU307
 901 0156 6FF00900 		mvn	r0, #9
 902              	.LVL85:
ARM GAS  /tmp/ccsaZJXl.s 			page 25


 104:./lib/fdt/fdt.c **** 		if (fdt_version(fdt) < fdt_last_comp_version(fdt))
 903              		.loc 1 104 11 view .LVU308
 904 015a D1E7     		b	.L30
 905              	.LVL86:
 906              	.L38:
 106:./lib/fdt/fdt.c **** 	}
 907              		.loc 1 106 11 view .LVU309
 908 015c 6FF00900 		mvn	r0, #9
 909              	.LVL87:
 106:./lib/fdt/fdt.c **** 	}
 910              		.loc 1 106 11 view .LVU310
 911 0160 CEE7     		b	.L30
 912              	.LVL88:
 913              	.L39:
 112:./lib/fdt/fdt.c **** 
 914              		.loc 1 112 11 view .LVU311
 915 0162 6FF00700 		mvn	r0, #7
 916              	.LVL89:
 112:./lib/fdt/fdt.c **** 
 917              		.loc 1 112 11 view .LVU312
 918 0166 CBE7     		b	.L30
 919              	.LVL90:
 920              	.L40:
 112:./lib/fdt/fdt.c **** 
 921              		.loc 1 112 11 view .LVU313
 922 0168 6FF00700 		mvn	r0, #7
 923              	.LVL91:
 112:./lib/fdt/fdt.c **** 
 924              		.loc 1 112 11 view .LVU314
 925 016c C8E7     		b	.L30
 926              	.LVL92:
 927              	.L41:
 117:./lib/fdt/fdt.c **** 
 928              		.loc 1 117 11 view .LVU315
 929 016e 6FF00700 		mvn	r0, #7
 930 0172 C5E7     		b	.L30
 931              	.LVL93:
 932              	.L49:
 123:./lib/fdt/fdt.c **** 		} else {
 933              		.loc 1 123 12 view .LVU316
 934 0174 6FF00700 		mvn	r0, #7
 935 0178 C2E7     		b	.L30
 936              	.LVL94:
 937              	.L44:
 135:./lib/fdt/fdt.c **** 	}
 938              		.loc 1 135 11 view .LVU317
 939 017a 6FF00700 		mvn	r0, #7
 940 017e BFE7     		b	.L30
 941              	.L51:
 942              		.align	2
 943              	.L50:
 944 0180 EDFE0DD0 		.word	-804389139
 945              		.cfi_endproc
 946              	.LFE80:
 948              		.section	.text.fdt_offset_ptr,"ax",%progbits
 949              		.align	1
 950              		.global	fdt_offset_ptr
ARM GAS  /tmp/ccsaZJXl.s 			page 26


 951              		.syntax unified
 952              		.thumb
 953              		.thumb_func
 955              	fdt_offset_ptr:
 956              	.LVL95:
 957              	.LFB81:
 140:./lib/fdt/fdt.c **** 
 141:./lib/fdt/fdt.c **** const void *fdt_offset_ptr(const void *fdt, int offset, unsigned int len)
 142:./lib/fdt/fdt.c **** {
 958              		.loc 1 142 1 is_stmt 1 view -0
 959              		.cfi_startproc
 960              		@ args = 0, pretend = 0, frame = 0
 961              		@ frame_needed = 0, uses_anonymous_args = 0
 143:./lib/fdt/fdt.c **** 	unsigned int uoffset = offset;
 962              		.loc 1 143 2 view .LVU319
 144:./lib/fdt/fdt.c **** 	unsigned int absoffset = offset + fdt_off_dt_struct(fdt);
 963              		.loc 1 144 2 view .LVU320
 964              	.LBB143:
 965              	.LBI143:
 145:./include/linux/libfdt.h **** {
 966              		.loc 2 145 24 view .LVU321
 967              	.LBB144:
 147:./include/linux/libfdt.h **** 
 968              		.loc 2 147 2 view .LVU322
 149:./include/linux/libfdt.h **** 		| ((uint32_t)bp[1] << 16)
 969              		.loc 2 149 2 view .LVU323
 149:./include/linux/libfdt.h **** 		| ((uint32_t)bp[1] << 16)
 970              		.loc 2 149 22 is_stmt 0 view .LVU324
 971 0000 90F808C0 		ldrb	ip, [r0, #8]	@ zero_extendqisi2
 150:./include/linux/libfdt.h **** 		| ((uint32_t)bp[2] << 8)
 972              		.loc 2 150 18 view .LVU325
 973 0004 437A     		ldrb	r3, [r0, #9]	@ zero_extendqisi2
 150:./include/linux/libfdt.h **** 		| ((uint32_t)bp[2] << 8)
 974              		.loc 2 150 22 view .LVU326
 975 0006 1B04     		lsls	r3, r3, #16
 150:./include/linux/libfdt.h **** 		| ((uint32_t)bp[2] << 8)
 976              		.loc 2 150 3 view .LVU327
 977 0008 43EA0C63 		orr	r3, r3, ip, lsl #24
 151:./include/linux/libfdt.h **** 		| bp[3];
 978              		.loc 2 151 18 view .LVU328
 979 000c 90F80AC0 		ldrb	ip, [r0, #10]	@ zero_extendqisi2
 151:./include/linux/libfdt.h **** 		| bp[3];
 980              		.loc 2 151 3 view .LVU329
 981 0010 43EA0C23 		orr	r3, r3, ip, lsl #8
 982              		.loc 2 152 7 view .LVU330
 983 0014 90F80BC0 		ldrb	ip, [r0, #11]	@ zero_extendqisi2
 984              		.loc 2 152 3 view .LVU331
 985 0018 43EA0C03 		orr	r3, r3, ip
 986              	.LVL96:
 987              		.loc 2 152 3 view .LVU332
 988              	.LBE144:
 989              	.LBE143:
 990              		.loc 1 144 15 discriminator 1 view .LVU333
 991 001c 0B44     		add	r3, r3, r1
 992              	.LVL97:
 145:./lib/fdt/fdt.c **** 
 146:./lib/fdt/fdt.c **** 	if (offset < 0)
ARM GAS  /tmp/ccsaZJXl.s 			page 27


 993              		.loc 1 146 2 is_stmt 1 view .LVU334
 994              		.loc 1 146 5 is_stmt 0 view .LVU335
 995 001e 0029     		cmp	r1, #0
 996 0020 38DB     		blt	.L55
 147:./lib/fdt/fdt.c **** 		return NULL;
 148:./lib/fdt/fdt.c **** 
 149:./lib/fdt/fdt.c **** 	if (!can_assume(VALID_INPUT))
 997              		.loc 1 149 2 is_stmt 1 view .LVU336
 150:./lib/fdt/fdt.c **** 		if ((absoffset < uoffset)
 998              		.loc 1 150 3 view .LVU337
 999              		.loc 1 150 6 is_stmt 0 view .LVU338
 1000 0022 9942     		cmp	r1, r3
 1001 0024 38D8     		bhi	.L56
 142:./lib/fdt/fdt.c **** 	unsigned int uoffset = offset;
 1002              		.loc 1 142 1 view .LVU339
 1003 0026 10B5     		push	{r4, lr}
 1004              	.LCFI5:
 1005              		.cfi_def_cfa_offset 8
 1006              		.cfi_offset 4, -8
 1007              		.cfi_offset 14, -4
 151:./lib/fdt/fdt.c **** 		    || ((absoffset + len) < absoffset)
 1008              		.loc 1 151 7 view .LVU340
 1009 0028 13EB020E 		adds	lr, r3, r2
 1010 002c 36D2     		bcs	.L57
 1011              	.LVL98:
 1012              	.LBB145:
 1013              	.LBI145:
 145:./include/linux/libfdt.h **** {
 1014              		.loc 2 145 24 is_stmt 1 view .LVU341
 1015              	.LBB146:
 147:./include/linux/libfdt.h **** 
 1016              		.loc 2 147 2 view .LVU342
 149:./include/linux/libfdt.h **** 		| ((uint32_t)bp[1] << 16)
 1017              		.loc 2 149 2 view .LVU343
 149:./include/linux/libfdt.h **** 		| ((uint32_t)bp[1] << 16)
 1018              		.loc 2 149 22 is_stmt 0 view .LVU344
 1019 002e 0479     		ldrb	r4, [r0, #4]	@ zero_extendqisi2
 150:./include/linux/libfdt.h **** 		| ((uint32_t)bp[2] << 8)
 1020              		.loc 2 150 18 view .LVU345
 1021 0030 90F805C0 		ldrb	ip, [r0, #5]	@ zero_extendqisi2
 150:./include/linux/libfdt.h **** 		| ((uint32_t)bp[2] << 8)
 1022              		.loc 2 150 22 view .LVU346
 1023 0034 4FEA0C4C 		lsl	ip, ip, #16
 150:./include/linux/libfdt.h **** 		| ((uint32_t)bp[2] << 8)
 1024              		.loc 2 150 3 view .LVU347
 1025 0038 4CEA046C 		orr	ip, ip, r4, lsl #24
 151:./include/linux/libfdt.h **** 		| bp[3];
 1026              		.loc 2 151 18 view .LVU348
 1027 003c 8479     		ldrb	r4, [r0, #6]	@ zero_extendqisi2
 151:./include/linux/libfdt.h **** 		| bp[3];
 1028              		.loc 2 151 3 view .LVU349
 1029 003e 4CEA042C 		orr	ip, ip, r4, lsl #8
 1030              		.loc 2 152 7 view .LVU350
 1031 0042 C479     		ldrb	r4, [r0, #7]	@ zero_extendqisi2
 1032              		.loc 2 152 3 view .LVU351
 1033 0044 4CEA040C 		orr	ip, ip, r4
 1034              	.LVL99:
ARM GAS  /tmp/ccsaZJXl.s 			page 28


 1035              		.loc 2 152 3 view .LVU352
 1036              	.LBE146:
 1037              	.LBE145:
 152:./lib/fdt/fdt.c **** 		    || (absoffset + len) > fdt_totalsize(fdt))
 1038              		.loc 1 152 7 discriminator 1 view .LVU353
 1039 0048 E645     		cmp	lr, ip
 1040 004a 29D8     		bhi	.L58
 153:./lib/fdt/fdt.c **** 			return NULL;
 154:./lib/fdt/fdt.c **** 
 155:./lib/fdt/fdt.c **** 	if (can_assume(LATEST) || fdt_version(fdt) >= 0x11)
 1041              		.loc 1 155 2 is_stmt 1 view .LVU354
 1042              	.LVL100:
 1043              	.LBB147:
 1044              	.LBI147:
 145:./include/linux/libfdt.h **** {
 1045              		.loc 2 145 24 view .LVU355
 1046              	.LBB148:
 147:./include/linux/libfdt.h **** 
 1047              		.loc 2 147 2 view .LVU356
 149:./include/linux/libfdt.h **** 		| ((uint32_t)bp[1] << 16)
 1048              		.loc 2 149 2 view .LVU357
 149:./include/linux/libfdt.h **** 		| ((uint32_t)bp[1] << 16)
 1049              		.loc 2 149 22 is_stmt 0 view .LVU358
 1050 004c 047D     		ldrb	r4, [r0, #20]	@ zero_extendqisi2
 150:./include/linux/libfdt.h **** 		| ((uint32_t)bp[2] << 8)
 1051              		.loc 2 150 18 view .LVU359
 1052 004e 90F815C0 		ldrb	ip, [r0, #21]	@ zero_extendqisi2
 150:./include/linux/libfdt.h **** 		| ((uint32_t)bp[2] << 8)
 1053              		.loc 2 150 22 view .LVU360
 1054 0052 4FEA0C4C 		lsl	ip, ip, #16
 150:./include/linux/libfdt.h **** 		| ((uint32_t)bp[2] << 8)
 1055              		.loc 2 150 3 view .LVU361
 1056 0056 4CEA046C 		orr	ip, ip, r4, lsl #24
 151:./include/linux/libfdt.h **** 		| bp[3];
 1057              		.loc 2 151 18 view .LVU362
 1058 005a 847D     		ldrb	r4, [r0, #22]	@ zero_extendqisi2
 151:./include/linux/libfdt.h **** 		| bp[3];
 1059              		.loc 2 151 3 view .LVU363
 1060 005c 4CEA042C 		orr	ip, ip, r4, lsl #8
 1061              		.loc 2 152 7 view .LVU364
 1062 0060 C47D     		ldrb	r4, [r0, #23]	@ zero_extendqisi2
 1063              		.loc 2 152 3 view .LVU365
 1064 0062 4CEA040C 		orr	ip, ip, r4
 1065              	.LVL101:
 1066              		.loc 2 152 3 view .LVU366
 1067              	.LBE148:
 1068              	.LBE147:
 1069              		.loc 1 155 25 discriminator 1 view .LVU367
 1070 0066 BCF1100F 		cmp	ip, #16
 1071 006a 11D9     		bls	.L54
 156:./lib/fdt/fdt.c **** 		if (((uoffset + len) < uoffset)
 1072              		.loc 1 156 3 is_stmt 1 view .LVU368
 1073              		.loc 1 156 6 is_stmt 0 view .LVU369
 1074 006c 8A18     		adds	r2, r1, r2
 1075              	.LVL102:
 1076              		.loc 1 156 6 view .LVU370
 1077 006e 19D2     		bcs	.L59
ARM GAS  /tmp/ccsaZJXl.s 			page 29


 1078              	.LVL103:
 1079              	.LBB149:
 1080              	.LBI149:
 145:./include/linux/libfdt.h **** {
 1081              		.loc 2 145 24 is_stmt 1 view .LVU371
 1082              	.LBB150:
 147:./include/linux/libfdt.h **** 
 1083              		.loc 2 147 2 view .LVU372
 149:./include/linux/libfdt.h **** 		| ((uint32_t)bp[1] << 16)
 1084              		.loc 2 149 2 view .LVU373
 149:./include/linux/libfdt.h **** 		| ((uint32_t)bp[1] << 16)
 1085              		.loc 2 149 22 is_stmt 0 view .LVU374
 1086 0070 90F82440 		ldrb	r4, [r0, #36]	@ zero_extendqisi2
 150:./include/linux/libfdt.h **** 		| ((uint32_t)bp[2] << 8)
 1087              		.loc 2 150 18 view .LVU375
 1088 0074 90F82510 		ldrb	r1, [r0, #37]	@ zero_extendqisi2
 1089              	.LVL104:
 150:./include/linux/libfdt.h **** 		| ((uint32_t)bp[2] << 8)
 1090              		.loc 2 150 22 view .LVU376
 1091 0078 0904     		lsls	r1, r1, #16
 150:./include/linux/libfdt.h **** 		| ((uint32_t)bp[2] << 8)
 1092              		.loc 2 150 3 view .LVU377
 1093 007a 41EA0461 		orr	r1, r1, r4, lsl #24
 151:./include/linux/libfdt.h **** 		| bp[3];
 1094              		.loc 2 151 18 view .LVU378
 1095 007e 90F82640 		ldrb	r4, [r0, #38]	@ zero_extendqisi2
 151:./include/linux/libfdt.h **** 		| bp[3];
 1096              		.loc 2 151 3 view .LVU379
 1097 0082 41EA0421 		orr	r1, r1, r4, lsl #8
 1098              		.loc 2 152 7 view .LVU380
 1099 0086 90F82740 		ldrb	r4, [r0, #39]	@ zero_extendqisi2
 1100              		.loc 2 152 3 view .LVU381
 1101 008a 2143     		orrs	r1, r1, r4
 1102              	.LVL105:
 1103              		.loc 2 152 3 view .LVU382
 1104              	.LBE150:
 1105              	.LBE149:
 157:./lib/fdt/fdt.c **** 		    || ((offset + len) > fdt_size_dt_struct(fdt)))
 1106              		.loc 1 157 7 discriminator 1 view .LVU383
 1107 008c 8A42     		cmp	r2, r1
 1108 008e 0BD8     		bhi	.L60
 1109              	.LVL106:
 1110              	.L54:
 158:./lib/fdt/fdt.c **** 			return NULL;
 159:./lib/fdt/fdt.c **** 
 160:./lib/fdt/fdt.c **** 	return fdt_offset_ptr_(fdt, offset);
 1111              		.loc 1 160 2 is_stmt 1 view .LVU384
 1112              	.LBB151:
 1113              	.LBI151:
 1114              		.file 3 "./lib/fdt/libfdt_internal.h"
   1:./lib/fdt/libfdt_internal.h **** /* SPDX-License-Identifier: (GPL-2.0-or-later OR BSD-2-Clause) */
   2:./lib/fdt/libfdt_internal.h **** #ifndef LIBFDT_INTERNAL_H
   3:./lib/fdt/libfdt_internal.h **** #define LIBFDT_INTERNAL_H
   4:./lib/fdt/libfdt_internal.h **** /*
   5:./lib/fdt/libfdt_internal.h ****  * libfdt - Flat Device Tree manipulation
   6:./lib/fdt/libfdt_internal.h ****  * Copyright (C) 2006 David Gibson, IBM Corporation.
   7:./lib/fdt/libfdt_internal.h ****  */
ARM GAS  /tmp/ccsaZJXl.s 			page 30


   8:./lib/fdt/libfdt_internal.h **** #include <linux/fdt.h>
   9:./lib/fdt/libfdt_internal.h **** #include <linux/string.h>
  10:./lib/fdt/libfdt_internal.h **** 
  11:./lib/fdt/libfdt_internal.h **** #define FDT_ALIGN(x, a)		(((x) + (a) - 1) & ~((a) - 1))
  12:./lib/fdt/libfdt_internal.h **** #define FDT_TAGALIGN(x)		(FDT_ALIGN((x), FDT_TAGSIZE))
  13:./lib/fdt/libfdt_internal.h **** 
  14:./lib/fdt/libfdt_internal.h **** int32_t fdt_ro_probe_(const void *fdt);
  15:./lib/fdt/libfdt_internal.h **** #define FDT_RO_PROBE(fdt)					\
  16:./lib/fdt/libfdt_internal.h **** 	{							\
  17:./lib/fdt/libfdt_internal.h **** 		int32_t totalsize_;				\
  18:./lib/fdt/libfdt_internal.h **** 		if ((totalsize_ = fdt_ro_probe_(fdt)) < 0)	\
  19:./lib/fdt/libfdt_internal.h **** 			return totalsize_;			\
  20:./lib/fdt/libfdt_internal.h **** 	}
  21:./lib/fdt/libfdt_internal.h **** 
  22:./lib/fdt/libfdt_internal.h **** int fdt_check_node_offset_(const void *fdt, int offset);
  23:./lib/fdt/libfdt_internal.h **** int fdt_check_prop_offset_(const void *fdt, int offset);
  24:./lib/fdt/libfdt_internal.h **** 
  25:./lib/fdt/libfdt_internal.h **** const char *fdt_find_string_len_(const char *strtab, int tabsize, const char *s,
  26:./lib/fdt/libfdt_internal.h **** 				 int s_len);
  27:./lib/fdt/libfdt_internal.h **** static inline const char *fdt_find_string_(const char *strtab, int tabsize,
  28:./lib/fdt/libfdt_internal.h **** 					   const char *s)
  29:./lib/fdt/libfdt_internal.h **** {
  30:./lib/fdt/libfdt_internal.h **** 	return fdt_find_string_len_(strtab, tabsize, s, strlen(s));
  31:./lib/fdt/libfdt_internal.h **** }
  32:./lib/fdt/libfdt_internal.h **** 
  33:./lib/fdt/libfdt_internal.h **** int fdt_node_end_offset_(void *fdt, int nodeoffset);
  34:./lib/fdt/libfdt_internal.h **** 
  35:./lib/fdt/libfdt_internal.h **** static inline const void *fdt_offset_ptr_(const void *fdt, int offset)
 1115              		.loc 3 35 27 view .LVU385
 1116              	.LBB152:
  36:./lib/fdt/libfdt_internal.h **** {
  37:./lib/fdt/libfdt_internal.h **** 	return (const char *)fdt + fdt_off_dt_struct(fdt) + offset;
 1117              		.loc 3 37 2 view .LVU386
 1118              		.loc 3 37 52 is_stmt 0 discriminator 1 view .LVU387
 1119 0090 1844     		add	r0, r0, r3
 1120              	.LVL107:
 1121              	.L52:
 1122              		.loc 3 37 52 discriminator 1 view .LVU388
 1123              	.LBE152:
 1124              	.LBE151:
 161:./lib/fdt/fdt.c **** }
 1125              		.loc 1 161 1 view .LVU389
 1126 0092 10BD     		pop	{r4, pc}
 1127              	.LVL108:
 1128              	.L55:
 1129              	.LCFI6:
 1130              		.cfi_def_cfa_offset 0
 1131              		.cfi_restore 4
 1132              		.cfi_restore 14
 147:./lib/fdt/fdt.c **** 
 1133              		.loc 1 147 10 view .LVU390
 1134 0094 0020     		movs	r0, #0
 1135              	.LVL109:
 147:./lib/fdt/fdt.c **** 
 1136              		.loc 1 147 10 view .LVU391
 1137 0096 7047     		bx	lr
 1138              	.LVL110:
ARM GAS  /tmp/ccsaZJXl.s 			page 31


 1139              	.L56:
 153:./lib/fdt/fdt.c **** 
 1140              		.loc 1 153 11 view .LVU392
 1141 0098 0020     		movs	r0, #0
 1142              	.LVL111:
 1143              		.loc 1 161 1 view .LVU393
 1144 009a 7047     		bx	lr
 1145              	.LVL112:
 1146              	.L57:
 1147              	.LCFI7:
 1148              		.cfi_def_cfa_offset 8
 1149              		.cfi_offset 4, -8
 1150              		.cfi_offset 14, -4
 153:./lib/fdt/fdt.c **** 
 1151              		.loc 1 153 11 view .LVU394
 1152 009c 0020     		movs	r0, #0
 1153              	.LVL113:
 153:./lib/fdt/fdt.c **** 
 1154              		.loc 1 153 11 view .LVU395
 1155 009e F8E7     		b	.L52
 1156              	.LVL114:
 1157              	.L58:
 153:./lib/fdt/fdt.c **** 
 1158              		.loc 1 153 11 view .LVU396
 1159 00a0 0020     		movs	r0, #0
 1160              	.LVL115:
 153:./lib/fdt/fdt.c **** 
 1161              		.loc 1 153 11 view .LVU397
 1162 00a2 F6E7     		b	.L52
 1163              	.LVL116:
 1164              	.L59:
 158:./lib/fdt/fdt.c **** 
 1165              		.loc 1 158 11 view .LVU398
 1166 00a4 0020     		movs	r0, #0
 1167              	.LVL117:
 158:./lib/fdt/fdt.c **** 
 1168              		.loc 1 158 11 view .LVU399
 1169 00a6 F4E7     		b	.L52
 1170              	.LVL118:
 1171              	.L60:
 158:./lib/fdt/fdt.c **** 
 1172              		.loc 1 158 11 view .LVU400
 1173 00a8 0020     		movs	r0, #0
 1174              	.LVL119:
 158:./lib/fdt/fdt.c **** 
 1175              		.loc 1 158 11 view .LVU401
 1176 00aa F2E7     		b	.L52
 1177              		.cfi_endproc
 1178              	.LFE81:
 1180              		.section	.text.fdt_next_tag,"ax",%progbits
 1181              		.align	1
 1182              		.global	fdt_next_tag
 1183              		.syntax unified
 1184              		.thumb
 1185              		.thumb_func
 1187              	fdt_next_tag:
 1188              	.LVL120:
ARM GAS  /tmp/ccsaZJXl.s 			page 32


 1189              	.LFB82:
 162:./lib/fdt/fdt.c **** 
 163:./lib/fdt/fdt.c **** uint32_t fdt_next_tag(const void *fdt, int startoffset, int *nextoffset)
 164:./lib/fdt/fdt.c **** {
 1190              		.loc 1 164 1 is_stmt 1 view -0
 1191              		.cfi_startproc
 1192              		@ args = 0, pretend = 0, frame = 0
 1193              		@ frame_needed = 0, uses_anonymous_args = 0
 1194              		.loc 1 164 1 is_stmt 0 view .LVU403
 1195 0000 2DE9F843 		push	{r3, r4, r5, r6, r7, r8, r9, lr}
 1196              	.LCFI8:
 1197              		.cfi_def_cfa_offset 32
 1198              		.cfi_offset 3, -32
 1199              		.cfi_offset 4, -28
 1200              		.cfi_offset 5, -24
 1201              		.cfi_offset 6, -20
 1202              		.cfi_offset 7, -16
 1203              		.cfi_offset 8, -12
 1204              		.cfi_offset 9, -8
 1205              		.cfi_offset 14, -4
 1206 0004 0746     		mov	r7, r0
 1207 0006 8846     		mov	r8, r1
 1208 0008 1646     		mov	r6, r2
 165:./lib/fdt/fdt.c **** 	const fdt32_t *tagp, *lenp;
 1209              		.loc 1 165 2 is_stmt 1 view .LVU404
 166:./lib/fdt/fdt.c **** 	uint32_t tag, len, sum;
 1210              		.loc 1 166 2 view .LVU405
 167:./lib/fdt/fdt.c **** 	int offset = startoffset;
 1211              		.loc 1 167 2 view .LVU406
 1212              	.LVL121:
 168:./lib/fdt/fdt.c **** 	const char *p;
 1213              		.loc 1 168 2 view .LVU407
 169:./lib/fdt/fdt.c **** 
 170:./lib/fdt/fdt.c **** 	*nextoffset = -FDT_ERR_TRUNCATED;
 1214              		.loc 1 170 2 view .LVU408
 1215              		.loc 1 170 14 is_stmt 0 view .LVU409
 1216 000a 6FF00703 		mvn	r3, #7
 1217 000e 1360     		str	r3, [r2]
 171:./lib/fdt/fdt.c **** 	tagp = fdt_offset_ptr(fdt, offset, FDT_TAGSIZE);
 1218              		.loc 1 171 2 is_stmt 1 view .LVU410
 1219              		.loc 1 171 9 is_stmt 0 view .LVU411
 1220 0010 0422     		movs	r2, #4
 1221              	.LVL122:
 1222              		.loc 1 171 9 view .LVU412
 1223 0012 FFF7FEFF 		bl	fdt_offset_ptr
 1224              	.LVL123:
 172:./lib/fdt/fdt.c **** 	if (!can_assume(VALID_DTB) && !tagp)
 1225              		.loc 1 172 2 is_stmt 1 view .LVU413
 1226              		.loc 1 172 29 is_stmt 0 discriminator 1 view .LVU414
 1227 0016 0028     		cmp	r0, #0
 1228 0018 6DD0     		beq	.L72
 173:./lib/fdt/fdt.c **** 		return FDT_END; /* premature end */
 174:./lib/fdt/fdt.c **** 	tag = fdt32_to_cpu(*tagp);
 1229              		.loc 1 174 2 is_stmt 1 view .LVU415
 1230              		.loc 1 174 8 is_stmt 0 view .LVU416
 1231 001a 0368     		ldr	r3, [r0]
 1232              	.LVL124:
ARM GAS  /tmp/ccsaZJXl.s 			page 33


 1233              	.LBB153:
 1234              	.LBI153:
 1235              		.file 4 "./include/linux/libfdt_env.h"
   1:./include/linux/libfdt_env.h **** /* SPDX-License-Identifier: (GPL-2.0-or-later OR BSD-2-Clause) */
   2:./include/linux/libfdt_env.h **** #ifndef LIBFDT_ENV_H
   3:./include/linux/libfdt_env.h **** #define LIBFDT_ENV_H
   4:./include/linux/libfdt_env.h **** /*
   5:./include/linux/libfdt_env.h ****  * libfdt - Flat Device Tree manipulation
   6:./include/linux/libfdt_env.h ****  * Copyright (C) 2006 David Gibson, IBM Corporation.
   7:./include/linux/libfdt_env.h ****  * Copyright 2012 Kim Phillips, Freescale Semiconductor.
   8:./include/linux/libfdt_env.h ****  */
   9:./include/linux/libfdt_env.h **** 
  10:./include/linux/libfdt_env.h **** #include <linux/types.h>
  11:./include/linux/libfdt_env.h **** #include <linux/stddef.h>
  12:./include/linux/libfdt_env.h **** #include <linux/string.h>
  13:./include/linux/libfdt_env.h **** #include <linux/limits.h>
  14:./include/linux/libfdt_env.h **** 
  15:./include/linux/libfdt_env.h **** 
  16:./include/linux/libfdt_env.h **** #ifdef __CHECKER__
  17:./include/linux/libfdt_env.h **** #define FDT_FORCE __attribute__((force))
  18:./include/linux/libfdt_env.h **** #define FDT_BITWISE __attribute__((bitwise))
  19:./include/linux/libfdt_env.h **** #else
  20:./include/linux/libfdt_env.h **** #define FDT_FORCE
  21:./include/linux/libfdt_env.h **** #define FDT_BITWISE
  22:./include/linux/libfdt_env.h **** #endif
  23:./include/linux/libfdt_env.h **** 
  24:./include/linux/libfdt_env.h **** typedef uint16_t FDT_BITWISE fdt16_t;
  25:./include/linux/libfdt_env.h **** typedef uint32_t FDT_BITWISE fdt32_t;
  26:./include/linux/libfdt_env.h **** typedef uint64_t FDT_BITWISE fdt64_t;
  27:./include/linux/libfdt_env.h **** 
  28:./include/linux/libfdt_env.h **** #define EXTRACT_BYTE(x, n)	((unsigned long long)((uint8_t *)&x)[n])
  29:./include/linux/libfdt_env.h **** 
  30:./include/linux/libfdt_env.h **** #define CPU_TO_FDT16(x) ((EXTRACT_BYTE(x, 0) << 8) | EXTRACT_BYTE(x, 1))
  31:./include/linux/libfdt_env.h **** #define CPU_TO_FDT32(x) ((EXTRACT_BYTE(x, 0) << 24) | (EXTRACT_BYTE(x, 1) << 16) | \
  32:./include/linux/libfdt_env.h **** 			 (EXTRACT_BYTE(x, 2) << 8) | EXTRACT_BYTE(x, 3))
  33:./include/linux/libfdt_env.h **** #define CPU_TO_FDT64(x) ((EXTRACT_BYTE(x, 0) << 56) | (EXTRACT_BYTE(x, 1) << 48) | \
  34:./include/linux/libfdt_env.h **** 			 (EXTRACT_BYTE(x, 2) << 40) | (EXTRACT_BYTE(x, 3) << 32) | \
  35:./include/linux/libfdt_env.h **** 			 (EXTRACT_BYTE(x, 4) << 24) | (EXTRACT_BYTE(x, 5) << 16) | \
  36:./include/linux/libfdt_env.h **** 			 (EXTRACT_BYTE(x, 6) << 8) | EXTRACT_BYTE(x, 7))
  37:./include/linux/libfdt_env.h **** 
  38:./include/linux/libfdt_env.h **** 
  39:./include/linux/libfdt_env.h **** // #define CPU_TO_FDT16(x) x
  40:./include/linux/libfdt_env.h **** // #define CPU_TO_FDT32(x) x
  41:./include/linux/libfdt_env.h **** // #define CPU_TO_FDT64(x) x
  42:./include/linux/libfdt_env.h **** 
  43:./include/linux/libfdt_env.h **** 
  44:./include/linux/libfdt_env.h **** static inline uint16_t fdt16_to_cpu(fdt16_t x)
  45:./include/linux/libfdt_env.h **** {
  46:./include/linux/libfdt_env.h **** 	return (FDT_FORCE uint16_t)CPU_TO_FDT16(x);
  47:./include/linux/libfdt_env.h **** }
  48:./include/linux/libfdt_env.h **** static inline fdt16_t cpu_to_fdt16(uint16_t x)
  49:./include/linux/libfdt_env.h **** {
  50:./include/linux/libfdt_env.h **** 	return (FDT_FORCE fdt16_t)CPU_TO_FDT16(x);
  51:./include/linux/libfdt_env.h **** }
  52:./include/linux/libfdt_env.h **** 
  53:./include/linux/libfdt_env.h **** static inline uint32_t fdt32_to_cpu(fdt32_t x)
 1236              		.loc 4 53 24 is_stmt 1 view .LVU417
ARM GAS  /tmp/ccsaZJXl.s 			page 34


 1237              	.LBB154:
  54:./include/linux/libfdt_env.h **** {
  55:./include/linux/libfdt_env.h **** 	return (FDT_FORCE uint32_t)CPU_TO_FDT32(x);
 1238              		.loc 4 55 2 view .LVU418
 1239              		.loc 4 55 29 is_stmt 0 view .LVU419
 1240 001c C3F30724 		ubfx	r4, r3, #8, #8
 1241 0020 2404     		lsls	r4, r4, #16
 1242 0022 44EA0364 		orr	r4, r4, r3, lsl #24
 1243 0026 C3F30742 		ubfx	r2, r3, #16, #8
 1244 002a 44EA0224 		orr	r4, r4, r2, lsl #8
 1245              		.loc 4 55 9 view .LVU420
 1246 002e 44EA1364 		orr	r4, r4, r3, lsr #24
 1247              	.LVL125:
 1248              		.loc 4 55 9 view .LVU421
 1249              	.LBE154:
 1250              	.LBE153:
 175:./lib/fdt/fdt.c **** 	offset += FDT_TAGSIZE;
 1251              		.loc 1 175 2 is_stmt 1 view .LVU422
 1252              		.loc 1 175 9 is_stmt 0 view .LVU423
 1253 0032 08F10409 		add	r9, r8, #4
 1254 0036 4D46     		mov	r5, r9
 1255              	.LVL126:
 176:./lib/fdt/fdt.c **** 
 177:./lib/fdt/fdt.c **** 	*nextoffset = -FDT_ERR_BADSTRUCTURE;
 1256              		.loc 1 177 2 is_stmt 1 view .LVU424
 1257              		.loc 1 177 14 is_stmt 0 view .LVU425
 1258 0038 6FF00A03 		mvn	r3, #10
 1259 003c 3360     		str	r3, [r6]
 178:./lib/fdt/fdt.c **** 	switch (tag) {
 1260              		.loc 1 178 2 is_stmt 1 view .LVU426
 1261 003e 631E     		subs	r3, r4, #1
 1262 0040 082B     		cmp	r3, #8
 1263 0042 5AD8     		bhi	.L73
 1264 0044 DFE803F0 		tbb	[pc, r3]
 1265              	.L68:
 1266 0048 05       		.byte	(.L70-.L68)/2
 1267 0049 12       		.byte	(.L67-.L68)/2
 1268 004a 21       		.byte	(.L69-.L68)/2
 1269 004b 12       		.byte	(.L67-.L68)/2
 1270 004c 59       		.byte	(.L73-.L68)/2
 1271 004d 59       		.byte	(.L73-.L68)/2
 1272 004e 59       		.byte	(.L73-.L68)/2
 1273 004f 59       		.byte	(.L73-.L68)/2
 1274 0050 12       		.byte	(.L67-.L68)/2
 1275              	.LVL127:
 1276 0051 00       		.p2align 1
 1277              	.L70:
 179:./lib/fdt/fdt.c **** 	case FDT_BEGIN_NODE:
 180:./lib/fdt/fdt.c **** 		/* skip name */
 181:./lib/fdt/fdt.c **** 		do {
 1278              		.loc 1 181 3 view .LVU427
 182:./lib/fdt/fdt.c **** 			p = fdt_offset_ptr(fdt, offset++, 1);
 1279              		.loc 1 182 4 view .LVU428
 1280 0052 2946     		mov	r1, r5
 1281              		.loc 1 182 8 is_stmt 0 view .LVU429
 1282 0054 0122     		movs	r2, #1
 1283 0056 1544     		add	r5, r5, r2
ARM GAS  /tmp/ccsaZJXl.s 			page 35


 1284              	.LVL128:
 1285              		.loc 1 182 8 view .LVU430
 1286 0058 3846     		mov	r0, r7
 1287 005a FFF7FEFF 		bl	fdt_offset_ptr
 1288              	.LVL129:
 183:./lib/fdt/fdt.c **** 		} while (p && (*p != '\0'));
 1289              		.loc 1 183 14 is_stmt 1 discriminator 2 view .LVU431
 1290 005e 0346     		mov	r3, r0
 1291 0060 10B1     		cbz	r0, .L71
 1292              		.loc 1 183 18 is_stmt 0 discriminator 1 view .LVU432
 1293 0062 0278     		ldrb	r2, [r0]	@ zero_extendqisi2
 1294              		.loc 1 183 14 discriminator 1 view .LVU433
 1295 0064 002A     		cmp	r2, #0
 1296 0066 F4D1     		bne	.L70
 1297              	.L71:
 184:./lib/fdt/fdt.c **** 		if (!can_assume(VALID_DTB) && !p)
 1298              		.loc 1 184 3 is_stmt 1 view .LVU434
 1299              		.loc 1 184 30 is_stmt 0 discriminator 1 view .LVU435
 1300 0068 002B     		cmp	r3, #0
 1301 006a 48D0     		beq	.L82
 1302              	.LVL130:
 1303              	.L67:
 185:./lib/fdt/fdt.c **** 			return FDT_END; /* premature end */
 186:./lib/fdt/fdt.c **** 		break;
 187:./lib/fdt/fdt.c **** 
 188:./lib/fdt/fdt.c **** 	case FDT_PROP:
 189:./lib/fdt/fdt.c **** 		lenp = fdt_offset_ptr(fdt, offset, sizeof(*lenp));
 190:./lib/fdt/fdt.c **** 		if (!can_assume(VALID_DTB) && !lenp)
 191:./lib/fdt/fdt.c **** 			return FDT_END; /* premature end */
 192:./lib/fdt/fdt.c **** 
 193:./lib/fdt/fdt.c **** 		len = fdt32_to_cpu(*lenp);
 194:./lib/fdt/fdt.c **** 		sum = len + offset;
 195:./lib/fdt/fdt.c **** 		if (!can_assume(VALID_DTB) &&
 196:./lib/fdt/fdt.c **** 		    (INT_MAX <= sum || sum < (uint32_t) offset))
 197:./lib/fdt/fdt.c **** 			return FDT_END; /* premature end */
 198:./lib/fdt/fdt.c **** 
 199:./lib/fdt/fdt.c **** 		/* skip-name offset, length and value */
 200:./lib/fdt/fdt.c **** 		offset += sizeof(struct fdt_property) - FDT_TAGSIZE + len;
 201:./lib/fdt/fdt.c **** 
 202:./lib/fdt/fdt.c **** 		if (!can_assume(LATEST) &&
 203:./lib/fdt/fdt.c **** 		    fdt_version(fdt) < 0x10 && len >= 8 &&
 204:./lib/fdt/fdt.c **** 		    ((offset - len) % 8) != 0)
 205:./lib/fdt/fdt.c **** 			offset += 4;
 206:./lib/fdt/fdt.c **** 		break;
 207:./lib/fdt/fdt.c **** 
 208:./lib/fdt/fdt.c **** 	case FDT_END:
 209:./lib/fdt/fdt.c **** 	case FDT_END_NODE:
 210:./lib/fdt/fdt.c **** 	case FDT_NOP:
 211:./lib/fdt/fdt.c **** 		break;
 212:./lib/fdt/fdt.c **** 
 213:./lib/fdt/fdt.c **** 	default:
 214:./lib/fdt/fdt.c **** 		return FDT_END;
 215:./lib/fdt/fdt.c **** 	}
 216:./lib/fdt/fdt.c **** 
 217:./lib/fdt/fdt.c **** 	if (!fdt_offset_ptr(fdt, startoffset, offset - startoffset))
 1304              		.loc 1 217 2 is_stmt 1 view .LVU436
 1305              		.loc 1 217 7 is_stmt 0 view .LVU437
ARM GAS  /tmp/ccsaZJXl.s 			page 36


 1306 006c A5EB0802 		sub	r2, r5, r8
 1307 0070 4146     		mov	r1, r8
 1308 0072 3846     		mov	r0, r7
 1309 0074 FFF7FEFF 		bl	fdt_offset_ptr
 1310              	.LVL131:
 1311              		.loc 1 217 5 discriminator 1 view .LVU438
 1312 0078 0028     		cmp	r0, #0
 1313 007a 48D0     		beq	.L78
 218:./lib/fdt/fdt.c **** 		return FDT_END; /* premature end */
 219:./lib/fdt/fdt.c **** 
 220:./lib/fdt/fdt.c **** 	*nextoffset = FDT_TAGALIGN(offset);
 1314              		.loc 1 220 2 is_stmt 1 view .LVU439
 1315              		.loc 1 220 16 is_stmt 0 view .LVU440
 1316 007c 0335     		adds	r5, r5, #3
 1317              	.LVL132:
 1318              		.loc 1 220 16 view .LVU441
 1319 007e 25F00305 		bic	r5, r5, #3
 1320              	.LVL133:
 1321              		.loc 1 220 14 view .LVU442
 1322 0082 3560     		str	r5, [r6]
 221:./lib/fdt/fdt.c **** 	return tag;
 1323              		.loc 1 221 2 is_stmt 1 view .LVU443
 1324              	.LVL134:
 1325              	.L65:
 222:./lib/fdt/fdt.c **** }
 1326              		.loc 1 222 1 is_stmt 0 view .LVU444
 1327 0084 2046     		mov	r0, r4
 1328 0086 BDE8F883 		pop	{r3, r4, r5, r6, r7, r8, r9, pc}
 1329              	.LVL135:
 1330              	.L69:
 189:./lib/fdt/fdt.c **** 		if (!can_assume(VALID_DTB) && !lenp)
 1331              		.loc 1 189 3 is_stmt 1 view .LVU445
 189:./lib/fdt/fdt.c **** 		if (!can_assume(VALID_DTB) && !lenp)
 1332              		.loc 1 189 10 is_stmt 0 view .LVU446
 1333 008a 0422     		movs	r2, #4
 1334 008c 4946     		mov	r1, r9
 1335 008e 3846     		mov	r0, r7
 1336              	.LVL136:
 189:./lib/fdt/fdt.c **** 		if (!can_assume(VALID_DTB) && !lenp)
 1337              		.loc 1 189 10 view .LVU447
 1338 0090 FFF7FEFF 		bl	fdt_offset_ptr
 1339              	.LVL137:
 190:./lib/fdt/fdt.c **** 			return FDT_END; /* premature end */
 1340              		.loc 1 190 3 is_stmt 1 view .LVU448
 190:./lib/fdt/fdt.c **** 			return FDT_END; /* premature end */
 1341              		.loc 1 190 30 is_stmt 0 discriminator 1 view .LVU449
 1342 0094 A8B3     		cbz	r0, .L75
 193:./lib/fdt/fdt.c **** 		sum = len + offset;
 1343              		.loc 1 193 3 is_stmt 1 view .LVU450
 193:./lib/fdt/fdt.c **** 		sum = len + offset;
 1344              		.loc 1 193 9 is_stmt 0 view .LVU451
 1345 0096 0268     		ldr	r2, [r0]
 1346              	.LVL138:
 1347              	.LBB155:
 1348              	.LBI155:
  53:./include/linux/libfdt_env.h **** {
 1349              		.loc 4 53 24 is_stmt 1 view .LVU452
ARM GAS  /tmp/ccsaZJXl.s 			page 37


 1350              	.LBB156:
 1351              		.loc 4 55 2 view .LVU453
 1352              		.loc 4 55 29 is_stmt 0 view .LVU454
 1353 0098 C2F30723 		ubfx	r3, r2, #8, #8
 1354 009c 1B04     		lsls	r3, r3, #16
 1355 009e 43EA0263 		orr	r3, r3, r2, lsl #24
 1356 00a2 C2F30741 		ubfx	r1, r2, #16, #8
 1357 00a6 43EA0123 		orr	r3, r3, r1, lsl #8
 1358              		.loc 4 55 9 view .LVU455
 1359 00aa 43EA1263 		orr	r3, r3, r2, lsr #24
 1360              	.LVL139:
 1361              		.loc 4 55 9 view .LVU456
 1362              	.LBE156:
 1363              	.LBE155:
 194:./lib/fdt/fdt.c **** 		if (!can_assume(VALID_DTB) &&
 1364              		.loc 1 194 3 is_stmt 1 view .LVU457
 194:./lib/fdt/fdt.c **** 		if (!can_assume(VALID_DTB) &&
 1365              		.loc 1 194 7 is_stmt 0 view .LVU458
 1366 00ae 09EB0301 		add	r1, r9, r3
 1367              	.LVL140:
 195:./lib/fdt/fdt.c **** 		    (INT_MAX <= sum || sum < (uint32_t) offset))
 1368              		.loc 1 195 3 is_stmt 1 view .LVU459
 195:./lib/fdt/fdt.c **** 		    (INT_MAX <= sum || sum < (uint32_t) offset))
 1369              		.loc 1 195 30 is_stmt 0 discriminator 1 view .LVU460
 1370 00b2 6FF00042 		mvn	r2, #-2147483648
 1371 00b6 9142     		cmp	r1, r2
 1372 00b8 25D2     		bcs	.L76
 196:./lib/fdt/fdt.c **** 			return FDT_END; /* premature end */
 1373              		.loc 1 196 23 view .LVU461
 1374 00ba 8945     		cmp	r9, r1
 1375 00bc 25D8     		bhi	.L77
 200:./lib/fdt/fdt.c **** 
 1376              		.loc 1 200 3 is_stmt 1 view .LVU462
 200:./lib/fdt/fdt.c **** 
 1377              		.loc 1 200 10 is_stmt 0 view .LVU463
 1378 00be 01F10800 		add	r0, r1, #8
 1379              	.LVL141:
 200:./lib/fdt/fdt.c **** 
 1380              		.loc 1 200 10 view .LVU464
 1381 00c2 0546     		mov	r5, r0
 1382              	.LVL142:
 202:./lib/fdt/fdt.c **** 		    fdt_version(fdt) < 0x10 && len >= 8 &&
 1383              		.loc 1 202 3 is_stmt 1 view .LVU465
 1384              	.LBB157:
 1385              	.LBI157:
 145:./include/linux/libfdt.h **** {
 1386              		.loc 2 145 24 view .LVU466
 1387              	.LBB158:
 147:./include/linux/libfdt.h **** 
 1388              		.loc 2 147 2 view .LVU467
 149:./include/linux/libfdt.h **** 		| ((uint32_t)bp[1] << 16)
 1389              		.loc 2 149 2 view .LVU468
 149:./include/linux/libfdt.h **** 		| ((uint32_t)bp[1] << 16)
 1390              		.loc 2 149 22 is_stmt 0 view .LVU469
 1391 00c4 97F814C0 		ldrb	ip, [r7, #20]	@ zero_extendqisi2
 150:./include/linux/libfdt.h **** 		| ((uint32_t)bp[2] << 8)
 1392              		.loc 2 150 18 view .LVU470
ARM GAS  /tmp/ccsaZJXl.s 			page 38


 1393 00c8 7A7D     		ldrb	r2, [r7, #21]	@ zero_extendqisi2
 150:./include/linux/libfdt.h **** 		| ((uint32_t)bp[2] << 8)
 1394              		.loc 2 150 22 view .LVU471
 1395 00ca 1204     		lsls	r2, r2, #16
 150:./include/linux/libfdt.h **** 		| ((uint32_t)bp[2] << 8)
 1396              		.loc 2 150 3 view .LVU472
 1397 00cc 42EA0C62 		orr	r2, r2, ip, lsl #24
 151:./include/linux/libfdt.h **** 		| bp[3];
 1398              		.loc 2 151 18 view .LVU473
 1399 00d0 97F816C0 		ldrb	ip, [r7, #22]	@ zero_extendqisi2
 151:./include/linux/libfdt.h **** 		| bp[3];
 1400              		.loc 2 151 3 view .LVU474
 1401 00d4 42EA0C22 		orr	r2, r2, ip, lsl #8
 1402              		.loc 2 152 7 view .LVU475
 1403 00d8 97F817C0 		ldrb	ip, [r7, #23]	@ zero_extendqisi2
 1404              		.loc 2 152 3 view .LVU476
 1405 00dc 42EA0C02 		orr	r2, r2, ip
 1406              	.LVL143:
 1407              		.loc 2 152 3 view .LVU477
 1408              	.LBE158:
 1409              	.LBE157:
 202:./lib/fdt/fdt.c **** 		    fdt_version(fdt) < 0x10 && len >= 8 &&
 1410              		.loc 1 202 27 discriminator 1 view .LVU478
 1411 00e0 0F2A     		cmp	r2, #15
 1412 00e2 C3D8     		bhi	.L67
 203:./lib/fdt/fdt.c **** 		    ((offset - len) % 8) != 0)
 1413              		.loc 1 203 31 view .LVU479
 1414 00e4 072B     		cmp	r3, #7
 1415 00e6 C1D9     		bls	.L67
 204:./lib/fdt/fdt.c **** 			offset += 4;
 1416              		.loc 1 204 16 view .LVU480
 1417 00e8 C01A     		subs	r0, r0, r3
 1418              	.LVL144:
 203:./lib/fdt/fdt.c **** 		    ((offset - len) % 8) != 0)
 1419              		.loc 1 203 43 discriminator 1 view .LVU481
 1420 00ea 10F0070F 		tst	r0, #7
 1421 00ee BDD0     		beq	.L67
 205:./lib/fdt/fdt.c **** 		break;
 1422              		.loc 1 205 4 is_stmt 1 view .LVU482
 205:./lib/fdt/fdt.c **** 		break;
 1423              		.loc 1 205 11 is_stmt 0 view .LVU483
 1424 00f0 01F10C05 		add	r5, r1, #12
 1425              	.LVL145:
 205:./lib/fdt/fdt.c **** 		break;
 1426              		.loc 1 205 11 view .LVU484
 1427 00f4 BAE7     		b	.L67
 1428              	.LVL146:
 1429              	.L72:
 173:./lib/fdt/fdt.c **** 	tag = fdt32_to_cpu(*tagp);
 1430              		.loc 1 173 10 view .LVU485
 1431 00f6 0924     		movs	r4, #9
 1432 00f8 C4E7     		b	.L65
 1433              	.LVL147:
 1434              	.L73:
 178:./lib/fdt/fdt.c **** 	case FDT_BEGIN_NODE:
 1435              		.loc 1 178 2 view .LVU486
 1436 00fa 0924     		movs	r4, #9
ARM GAS  /tmp/ccsaZJXl.s 			page 39


 1437              	.LVL148:
 178:./lib/fdt/fdt.c **** 	case FDT_BEGIN_NODE:
 1438              		.loc 1 178 2 view .LVU487
 1439 00fc C2E7     		b	.L65
 1440              	.LVL149:
 1441              	.L82:
 185:./lib/fdt/fdt.c **** 		break;
 1442              		.loc 1 185 11 view .LVU488
 1443 00fe 0924     		movs	r4, #9
 1444              	.LVL150:
 185:./lib/fdt/fdt.c **** 		break;
 1445              		.loc 1 185 11 view .LVU489
 1446 0100 C0E7     		b	.L65
 1447              	.LVL151:
 1448              	.L75:
 191:./lib/fdt/fdt.c **** 
 1449              		.loc 1 191 11 view .LVU490
 1450 0102 0924     		movs	r4, #9
 1451              	.LVL152:
 191:./lib/fdt/fdt.c **** 
 1452              		.loc 1 191 11 view .LVU491
 1453 0104 BEE7     		b	.L65
 1454              	.LVL153:
 1455              	.L76:
 197:./lib/fdt/fdt.c **** 
 1456              		.loc 1 197 11 view .LVU492
 1457 0106 0924     		movs	r4, #9
 1458              	.LVL154:
 197:./lib/fdt/fdt.c **** 
 1459              		.loc 1 197 11 view .LVU493
 1460 0108 BCE7     		b	.L65
 1461              	.LVL155:
 1462              	.L77:
 197:./lib/fdt/fdt.c **** 
 1463              		.loc 1 197 11 view .LVU494
 1464 010a 0924     		movs	r4, #9
 1465              	.LVL156:
 197:./lib/fdt/fdt.c **** 
 1466              		.loc 1 197 11 view .LVU495
 1467 010c BAE7     		b	.L65
 1468              	.LVL157:
 1469              	.L78:
 218:./lib/fdt/fdt.c **** 
 1470              		.loc 1 218 10 view .LVU496
 1471 010e 0924     		movs	r4, #9
 1472              	.LVL158:
 218:./lib/fdt/fdt.c **** 
 1473              		.loc 1 218 10 view .LVU497
 1474 0110 B8E7     		b	.L65
 1475              		.cfi_endproc
 1476              	.LFE82:
 1478              		.section	.text.fdt_check_node_offset_,"ax",%progbits
 1479              		.align	1
 1480              		.global	fdt_check_node_offset_
 1481              		.syntax unified
 1482              		.thumb
 1483              		.thumb_func
ARM GAS  /tmp/ccsaZJXl.s 			page 40


 1485              	fdt_check_node_offset_:
 1486              	.LVL159:
 1487              	.LFB83:
 223:./lib/fdt/fdt.c **** 
 224:./lib/fdt/fdt.c **** int fdt_check_node_offset_(const void *fdt, int offset)
 225:./lib/fdt/fdt.c **** {
 1488              		.loc 1 225 1 is_stmt 1 view -0
 1489              		.cfi_startproc
 1490              		@ args = 0, pretend = 0, frame = 8
 1491              		@ frame_needed = 0, uses_anonymous_args = 0
 1492              		.loc 1 225 1 is_stmt 0 view .LVU499
 1493 0000 00B5     		push	{lr}
 1494              	.LCFI9:
 1495              		.cfi_def_cfa_offset 4
 1496              		.cfi_offset 14, -4
 1497 0002 83B0     		sub	sp, sp, #12
 1498              	.LCFI10:
 1499              		.cfi_def_cfa_offset 16
 1500 0004 0191     		str	r1, [sp, #4]
 226:./lib/fdt/fdt.c **** 	if (!can_assume(VALID_INPUT)
 1501              		.loc 1 226 2 is_stmt 1 view .LVU500
 227:./lib/fdt/fdt.c **** 	    && ((offset < 0) || (offset % FDT_TAGSIZE)))
 1502              		.loc 1 227 6 is_stmt 0 view .LVU501
 1503 0006 0029     		cmp	r1, #0
 1504              		.loc 1 227 6 view .LVU502
 1505 0008 0BDB     		blt	.L85
 1506              		.loc 1 227 23 discriminator 1 view .LVU503
 1507 000a 11F0030F 		tst	r1, #3
 1508 000e 0BD1     		bne	.L86
 228:./lib/fdt/fdt.c **** 		return -FDT_ERR_BADOFFSET;
 229:./lib/fdt/fdt.c **** 
 230:./lib/fdt/fdt.c **** 	if (fdt_next_tag(fdt, offset, &offset) != FDT_BEGIN_NODE)
 1509              		.loc 1 230 2 is_stmt 1 view .LVU504
 1510              		.loc 1 230 6 is_stmt 0 view .LVU505
 1511 0010 01AA     		add	r2, sp, #4
 1512 0012 FFF7FEFF 		bl	fdt_next_tag
 1513              	.LVL160:
 1514              		.loc 1 230 5 discriminator 1 view .LVU506
 1515 0016 0128     		cmp	r0, #1
 1516 0018 09D1     		bne	.L87
 231:./lib/fdt/fdt.c **** 		return -FDT_ERR_BADOFFSET;
 232:./lib/fdt/fdt.c **** 
 233:./lib/fdt/fdt.c **** 	return offset;
 1517              		.loc 1 233 2 is_stmt 1 view .LVU507
 1518              		.loc 1 233 9 is_stmt 0 view .LVU508
 1519 001a 0198     		ldr	r0, [sp, #4]
 1520              	.L83:
 234:./lib/fdt/fdt.c **** }
 1521              		.loc 1 234 1 view .LVU509
 1522 001c 03B0     		add	sp, sp, #12
 1523              	.LCFI11:
 1524              		.cfi_remember_state
 1525              		.cfi_def_cfa_offset 4
 1526              		@ sp needed
 1527 001e 5DF804FB 		ldr	pc, [sp], #4
 1528              	.LVL161:
 1529              	.L85:
ARM GAS  /tmp/ccsaZJXl.s 			page 41


 1530              	.LCFI12:
 1531              		.cfi_restore_state
 228:./lib/fdt/fdt.c **** 		return -FDT_ERR_BADOFFSET;
 1532              		.loc 1 228 10 view .LVU510
 1533 0022 6FF00300 		mvn	r0, #3
 1534              	.LVL162:
 228:./lib/fdt/fdt.c **** 		return -FDT_ERR_BADOFFSET;
 1535              		.loc 1 228 10 view .LVU511
 1536 0026 F9E7     		b	.L83
 1537              	.LVL163:
 1538              	.L86:
 228:./lib/fdt/fdt.c **** 		return -FDT_ERR_BADOFFSET;
 1539              		.loc 1 228 10 view .LVU512
 1540 0028 6FF00300 		mvn	r0, #3
 1541              	.LVL164:
 228:./lib/fdt/fdt.c **** 		return -FDT_ERR_BADOFFSET;
 1542              		.loc 1 228 10 view .LVU513
 1543 002c F6E7     		b	.L83
 1544              	.LVL165:
 1545              	.L87:
 231:./lib/fdt/fdt.c **** 		return -FDT_ERR_BADOFFSET;
 1546              		.loc 1 231 10 view .LVU514
 1547 002e 6FF00300 		mvn	r0, #3
 1548 0032 F3E7     		b	.L83
 1549              		.cfi_endproc
 1550              	.LFE83:
 1552              		.section	.text.fdt_check_prop_offset_,"ax",%progbits
 1553              		.align	1
 1554              		.global	fdt_check_prop_offset_
 1555              		.syntax unified
 1556              		.thumb
 1557              		.thumb_func
 1559              	fdt_check_prop_offset_:
 1560              	.LVL166:
 1561              	.LFB84:
 235:./lib/fdt/fdt.c **** 
 236:./lib/fdt/fdt.c **** int fdt_check_prop_offset_(const void *fdt, int offset)
 237:./lib/fdt/fdt.c **** {
 1562              		.loc 1 237 1 is_stmt 1 view -0
 1563              		.cfi_startproc
 1564              		@ args = 0, pretend = 0, frame = 8
 1565              		@ frame_needed = 0, uses_anonymous_args = 0
 1566              		.loc 1 237 1 is_stmt 0 view .LVU516
 1567 0000 00B5     		push	{lr}
 1568              	.LCFI13:
 1569              		.cfi_def_cfa_offset 4
 1570              		.cfi_offset 14, -4
 1571 0002 83B0     		sub	sp, sp, #12
 1572              	.LCFI14:
 1573              		.cfi_def_cfa_offset 16
 1574 0004 0191     		str	r1, [sp, #4]
 238:./lib/fdt/fdt.c **** 	if (!can_assume(VALID_INPUT)
 1575              		.loc 1 238 2 is_stmt 1 view .LVU517
 239:./lib/fdt/fdt.c **** 	    && ((offset < 0) || (offset % FDT_TAGSIZE)))
 1576              		.loc 1 239 6 is_stmt 0 view .LVU518
 1577 0006 0029     		cmp	r1, #0
 1578              		.loc 1 239 6 view .LVU519
ARM GAS  /tmp/ccsaZJXl.s 			page 42


 1579 0008 0BDB     		blt	.L91
 1580              		.loc 1 239 23 discriminator 1 view .LVU520
 1581 000a 11F0030F 		tst	r1, #3
 1582 000e 0BD1     		bne	.L92
 240:./lib/fdt/fdt.c **** 		return -FDT_ERR_BADOFFSET;
 241:./lib/fdt/fdt.c **** 
 242:./lib/fdt/fdt.c **** 	if (fdt_next_tag(fdt, offset, &offset) != FDT_PROP)
 1583              		.loc 1 242 2 is_stmt 1 view .LVU521
 1584              		.loc 1 242 6 is_stmt 0 view .LVU522
 1585 0010 01AA     		add	r2, sp, #4
 1586 0012 FFF7FEFF 		bl	fdt_next_tag
 1587              	.LVL167:
 1588              		.loc 1 242 5 discriminator 1 view .LVU523
 1589 0016 0328     		cmp	r0, #3
 1590 0018 09D1     		bne	.L93
 243:./lib/fdt/fdt.c **** 		return -FDT_ERR_BADOFFSET;
 244:./lib/fdt/fdt.c **** 
 245:./lib/fdt/fdt.c **** 	return offset;
 1591              		.loc 1 245 2 is_stmt 1 view .LVU524
 1592              		.loc 1 245 9 is_stmt 0 view .LVU525
 1593 001a 0198     		ldr	r0, [sp, #4]
 1594              	.L89:
 246:./lib/fdt/fdt.c **** }
 1595              		.loc 1 246 1 view .LVU526
 1596 001c 03B0     		add	sp, sp, #12
 1597              	.LCFI15:
 1598              		.cfi_remember_state
 1599              		.cfi_def_cfa_offset 4
 1600              		@ sp needed
 1601 001e 5DF804FB 		ldr	pc, [sp], #4
 1602              	.LVL168:
 1603              	.L91:
 1604              	.LCFI16:
 1605              		.cfi_restore_state
 240:./lib/fdt/fdt.c **** 		return -FDT_ERR_BADOFFSET;
 1606              		.loc 1 240 10 view .LVU527
 1607 0022 6FF00300 		mvn	r0, #3
 1608              	.LVL169:
 240:./lib/fdt/fdt.c **** 		return -FDT_ERR_BADOFFSET;
 1609              		.loc 1 240 10 view .LVU528
 1610 0026 F9E7     		b	.L89
 1611              	.LVL170:
 1612              	.L92:
 240:./lib/fdt/fdt.c **** 		return -FDT_ERR_BADOFFSET;
 1613              		.loc 1 240 10 view .LVU529
 1614 0028 6FF00300 		mvn	r0, #3
 1615              	.LVL171:
 240:./lib/fdt/fdt.c **** 		return -FDT_ERR_BADOFFSET;
 1616              		.loc 1 240 10 view .LVU530
 1617 002c F6E7     		b	.L89
 1618              	.LVL172:
 1619              	.L93:
 243:./lib/fdt/fdt.c **** 		return -FDT_ERR_BADOFFSET;
 1620              		.loc 1 243 10 view .LVU531
 1621 002e 6FF00300 		mvn	r0, #3
 1622 0032 F3E7     		b	.L89
 1623              		.cfi_endproc
ARM GAS  /tmp/ccsaZJXl.s 			page 43


 1624              	.LFE84:
 1626              		.section	.text.fdt_next_node,"ax",%progbits
 1627              		.align	1
 1628              		.global	fdt_next_node
 1629              		.syntax unified
 1630              		.thumb
 1631              		.thumb_func
 1633              	fdt_next_node:
 1634              	.LVL173:
 1635              	.LFB85:
 247:./lib/fdt/fdt.c **** 
 248:./lib/fdt/fdt.c **** int fdt_next_node(const void *fdt, int offset, int *depth)
 249:./lib/fdt/fdt.c **** {
 1636              		.loc 1 249 1 is_stmt 1 view -0
 1637              		.cfi_startproc
 1638              		@ args = 0, pretend = 0, frame = 8
 1639              		@ frame_needed = 0, uses_anonymous_args = 0
 1640              		.loc 1 249 1 is_stmt 0 view .LVU533
 1641 0000 70B5     		push	{r4, r5, r6, lr}
 1642              	.LCFI17:
 1643              		.cfi_def_cfa_offset 16
 1644              		.cfi_offset 4, -16
 1645              		.cfi_offset 5, -12
 1646              		.cfi_offset 6, -8
 1647              		.cfi_offset 14, -4
 1648 0002 82B0     		sub	sp, sp, #8
 1649              	.LCFI18:
 1650              		.cfi_def_cfa_offset 24
 1651 0004 0646     		mov	r6, r0
 1652 0006 1546     		mov	r5, r2
 250:./lib/fdt/fdt.c **** 	int nextoffset = 0;
 1653              		.loc 1 250 2 is_stmt 1 view .LVU534
 1654              		.loc 1 250 6 is_stmt 0 view .LVU535
 1655 0008 0023     		movs	r3, #0
 1656 000a 0193     		str	r3, [sp, #4]
 251:./lib/fdt/fdt.c **** 	uint32_t tag;
 1657              		.loc 1 251 2 is_stmt 1 view .LVU536
 252:./lib/fdt/fdt.c **** 
 253:./lib/fdt/fdt.c **** 	if (offset >= 0)
 1658              		.loc 1 253 2 view .LVU537
 1659              		.loc 1 253 5 is_stmt 0 view .LVU538
 1660 000c 0029     		cmp	r1, #0
 1661              		.loc 1 253 5 view .LVU539
 1662 000e 0EDB     		blt	.L101
 254:./lib/fdt/fdt.c **** 		if ((nextoffset = fdt_check_node_offset_(fdt, offset)) < 0)
 1663              		.loc 1 254 3 is_stmt 1 view .LVU540
 1664              		.loc 1 254 21 is_stmt 0 view .LVU541
 1665 0010 FFF7FEFF 		bl	fdt_check_node_offset_
 1666              	.LVL174:
 1667              		.loc 1 254 21 view .LVU542
 1668 0014 0446     		mov	r4, r0
 1669              		.loc 1 254 19 discriminator 1 view .LVU543
 1670 0016 0190     		str	r0, [sp, #4]
 1671              		.loc 1 254 6 discriminator 1 view .LVU544
 1672 0018 0028     		cmp	r0, #0
 1673 001a 08DA     		bge	.L101
 1674 001c 22E0     		b	.L95
ARM GAS  /tmp/ccsaZJXl.s 			page 44


 1675              	.LVL175:
 1676              	.L98:
 255:./lib/fdt/fdt.c **** 			return nextoffset;
 256:./lib/fdt/fdt.c **** 
 257:./lib/fdt/fdt.c **** 	do {
 258:./lib/fdt/fdt.c **** 		offset = nextoffset;
 259:./lib/fdt/fdt.c **** 		tag = fdt_next_tag(fdt, offset, &nextoffset);
 260:./lib/fdt/fdt.c **** 
 261:./lib/fdt/fdt.c **** 		switch (tag) {
 262:./lib/fdt/fdt.c **** 		case FDT_PROP:
 263:./lib/fdt/fdt.c **** 		case FDT_NOP:
 264:./lib/fdt/fdt.c **** 			break;
 265:./lib/fdt/fdt.c **** 
 266:./lib/fdt/fdt.c **** 		case FDT_BEGIN_NODE:
 267:./lib/fdt/fdt.c **** 			if (depth)
 268:./lib/fdt/fdt.c **** 				(*depth)++;
 269:./lib/fdt/fdt.c **** 			break;
 270:./lib/fdt/fdt.c **** 
 271:./lib/fdt/fdt.c **** 		case FDT_END_NODE:
 272:./lib/fdt/fdt.c **** 			if (depth && ((--(*depth)) < 0))
 1677              		.loc 1 272 4 is_stmt 1 view .LVU545
 1678              		.loc 1 272 7 is_stmt 0 view .LVU546
 1679 001e 25B1     		cbz	r5, .L100
 1680              		.loc 1 272 22 discriminator 1 view .LVU547
 1681 0020 2B68     		ldr	r3, [r5]
 1682              		.loc 1 272 19 discriminator 1 view .LVU548
 1683 0022 013B     		subs	r3, r3, #1
 1684              		.loc 1 272 14 discriminator 1 view .LVU549
 1685 0024 2B60     		str	r3, [r5]
 1686 0026 002B     		cmp	r3, #0
 1687 0028 13DB     		blt	.L105
 1688              	.L100:
 273:./lib/fdt/fdt.c **** 				return nextoffset;
 274:./lib/fdt/fdt.c **** 			break;
 275:./lib/fdt/fdt.c **** 
 276:./lib/fdt/fdt.c **** 		case FDT_END:
 277:./lib/fdt/fdt.c **** 			if ((nextoffset >= 0)
 278:./lib/fdt/fdt.c **** 			    || ((nextoffset == -FDT_ERR_TRUNCATED) && !depth))
 279:./lib/fdt/fdt.c **** 				return -FDT_ERR_NOTFOUND;
 280:./lib/fdt/fdt.c **** 			else
 281:./lib/fdt/fdt.c **** 				return nextoffset;
 282:./lib/fdt/fdt.c **** 		}
 283:./lib/fdt/fdt.c **** 	} while (tag != FDT_BEGIN_NODE);
 1689              		.loc 1 283 15 is_stmt 1 view .LVU550
 1690 002a 0128     		cmp	r0, #1
 1691 002c 1AD0     		beq	.L95
 1692              	.LVL176:
 1693              	.L101:
 257:./lib/fdt/fdt.c **** 		offset = nextoffset;
 1694              		.loc 1 257 2 view .LVU551
 258:./lib/fdt/fdt.c **** 		tag = fdt_next_tag(fdt, offset, &nextoffset);
 1695              		.loc 1 258 3 view .LVU552
 258:./lib/fdt/fdt.c **** 		tag = fdt_next_tag(fdt, offset, &nextoffset);
 1696              		.loc 1 258 10 is_stmt 0 view .LVU553
 1697 002e 019C     		ldr	r4, [sp, #4]
 1698              	.LVL177:
 259:./lib/fdt/fdt.c **** 
ARM GAS  /tmp/ccsaZJXl.s 			page 45


 1699              		.loc 1 259 3 is_stmt 1 view .LVU554
 259:./lib/fdt/fdt.c **** 
 1700              		.loc 1 259 9 is_stmt 0 view .LVU555
 1701 0030 01AA     		add	r2, sp, #4
 1702 0032 2146     		mov	r1, r4
 1703 0034 3046     		mov	r0, r6
 1704 0036 FFF7FEFF 		bl	fdt_next_tag
 1705              	.LVL178:
 261:./lib/fdt/fdt.c **** 		case FDT_PROP:
 1706              		.loc 1 261 3 is_stmt 1 view .LVU556
 1707 003a 0228     		cmp	r0, #2
 1708 003c EFD0     		beq	.L98
 1709 003e 0928     		cmp	r0, #9
 1710 0040 09D0     		beq	.L99
 1711 0042 0128     		cmp	r0, #1
 1712 0044 F1D1     		bne	.L100
 267:./lib/fdt/fdt.c **** 				(*depth)++;
 1713              		.loc 1 267 4 view .LVU557
 267:./lib/fdt/fdt.c **** 				(*depth)++;
 1714              		.loc 1 267 7 is_stmt 0 view .LVU558
 1715 0046 002D     		cmp	r5, #0
 1716 0048 EFD0     		beq	.L100
 268:./lib/fdt/fdt.c **** 			break;
 1717              		.loc 1 268 5 is_stmt 1 view .LVU559
 268:./lib/fdt/fdt.c **** 			break;
 1718              		.loc 1 268 6 is_stmt 0 view .LVU560
 1719 004a 2B68     		ldr	r3, [r5]
 268:./lib/fdt/fdt.c **** 			break;
 1720              		.loc 1 268 13 view .LVU561
 1721 004c 0133     		adds	r3, r3, #1
 1722 004e 2B60     		str	r3, [r5]
 1723 0050 EBE7     		b	.L100
 1724              	.L105:
 273:./lib/fdt/fdt.c **** 			break;
 1725              		.loc 1 273 5 is_stmt 1 view .LVU562
 273:./lib/fdt/fdt.c **** 			break;
 1726              		.loc 1 273 12 is_stmt 0 view .LVU563
 1727 0052 019C     		ldr	r4, [sp, #4]
 1728              	.LVL179:
 273:./lib/fdt/fdt.c **** 			break;
 1729              		.loc 1 273 12 view .LVU564
 1730 0054 06E0     		b	.L95
 1731              	.LVL180:
 1732              	.L99:
 277:./lib/fdt/fdt.c **** 			    || ((nextoffset == -FDT_ERR_TRUNCATED) && !depth))
 1733              		.loc 1 277 4 is_stmt 1 view .LVU565
 277:./lib/fdt/fdt.c **** 			    || ((nextoffset == -FDT_ERR_TRUNCATED) && !depth))
 1734              		.loc 1 277 20 is_stmt 0 view .LVU566
 1735 0056 019C     		ldr	r4, [sp, #4]
 1736              	.LVL181:
 277:./lib/fdt/fdt.c **** 			    || ((nextoffset == -FDT_ERR_TRUNCATED) && !depth))
 1737              		.loc 1 277 7 view .LVU567
 1738 0058 002C     		cmp	r4, #0
 1739 005a 06DA     		bge	.L102
 278:./lib/fdt/fdt.c **** 				return -FDT_ERR_NOTFOUND;
 1740              		.loc 1 278 8 view .LVU568
 1741 005c 14F1080F 		cmn	r4, #8
ARM GAS  /tmp/ccsaZJXl.s 			page 46


 1742 0060 00D1     		bne	.L95
 278:./lib/fdt/fdt.c **** 				return -FDT_ERR_NOTFOUND;
 1743              		.loc 1 278 47 discriminator 1 view .LVU569
 1744 0062 2DB1     		cbz	r5, .L106
 1745              	.LVL182:
 1746              	.L95:
 284:./lib/fdt/fdt.c **** 
 285:./lib/fdt/fdt.c **** 	return offset;
 286:./lib/fdt/fdt.c **** }
 1747              		.loc 1 286 1 view .LVU570
 1748 0064 2046     		mov	r0, r4
 1749 0066 02B0     		add	sp, sp, #8
 1750              	.LCFI19:
 1751              		.cfi_remember_state
 1752              		.cfi_def_cfa_offset 16
 1753              		@ sp needed
 1754 0068 70BD     		pop	{r4, r5, r6, pc}
 1755              	.LVL183:
 1756              	.L102:
 1757              	.LCFI20:
 1758              		.cfi_restore_state
 279:./lib/fdt/fdt.c **** 			else
 1759              		.loc 1 279 12 view .LVU571
 1760 006a 4FF0FF34 		mov	r4, #-1
 1761 006e F9E7     		b	.L95
 1762              	.L106:
 1763 0070 4FF0FF34 		mov	r4, #-1
 1764 0074 F6E7     		b	.L95
 1765              		.cfi_endproc
 1766              	.LFE85:
 1768              		.section	.text.fdt_first_subnode,"ax",%progbits
 1769              		.align	1
 1770              		.global	fdt_first_subnode
 1771              		.syntax unified
 1772              		.thumb
 1773              		.thumb_func
 1775              	fdt_first_subnode:
 1776              	.LVL184:
 1777              	.LFB86:
 287:./lib/fdt/fdt.c **** 
 288:./lib/fdt/fdt.c **** int fdt_first_subnode(const void *fdt, int offset)
 289:./lib/fdt/fdt.c **** {
 1778              		.loc 1 289 1 is_stmt 1 view -0
 1779              		.cfi_startproc
 1780              		@ args = 0, pretend = 0, frame = 8
 1781              		@ frame_needed = 0, uses_anonymous_args = 0
 1782              		.loc 1 289 1 is_stmt 0 view .LVU573
 1783 0000 00B5     		push	{lr}
 1784              	.LCFI21:
 1785              		.cfi_def_cfa_offset 4
 1786              		.cfi_offset 14, -4
 1787 0002 83B0     		sub	sp, sp, #12
 1788              	.LCFI22:
 1789              		.cfi_def_cfa_offset 16
 290:./lib/fdt/fdt.c **** 	int depth = 0;
 1790              		.loc 1 290 2 is_stmt 1 view .LVU574
 1791              		.loc 1 290 6 is_stmt 0 view .LVU575
ARM GAS  /tmp/ccsaZJXl.s 			page 47


 1792 0004 0023     		movs	r3, #0
 1793 0006 0193     		str	r3, [sp, #4]
 291:./lib/fdt/fdt.c **** 
 292:./lib/fdt/fdt.c **** 	offset = fdt_next_node(fdt, offset, &depth);
 1794              		.loc 1 292 2 is_stmt 1 view .LVU576
 1795              		.loc 1 292 11 is_stmt 0 view .LVU577
 1796 0008 01AA     		add	r2, sp, #4
 1797 000a FFF7FEFF 		bl	fdt_next_node
 1798              	.LVL185:
 293:./lib/fdt/fdt.c **** 	if (offset < 0 || depth != 1)
 1799              		.loc 1 293 2 is_stmt 1 view .LVU578
 1800              		.loc 1 293 5 is_stmt 0 view .LVU579
 1801 000e 0028     		cmp	r0, #0
 1802              		.loc 1 293 5 view .LVU580
 1803 0010 05DB     		blt	.L109
 1804              		.loc 1 293 26 discriminator 1 view .LVU581
 1805 0012 019B     		ldr	r3, [sp, #4]
 1806              		.loc 1 293 17 discriminator 1 view .LVU582
 1807 0014 012B     		cmp	r3, #1
 1808 0016 05D1     		bne	.L112
 1809              	.LVL186:
 1810              	.L107:
 294:./lib/fdt/fdt.c **** 		return -FDT_ERR_NOTFOUND;
 295:./lib/fdt/fdt.c **** 
 296:./lib/fdt/fdt.c **** 	return offset;
 297:./lib/fdt/fdt.c **** }
 1811              		.loc 1 297 1 view .LVU583
 1812 0018 03B0     		add	sp, sp, #12
 1813              	.LCFI23:
 1814              		.cfi_remember_state
 1815              		.cfi_def_cfa_offset 4
 1816              		@ sp needed
 1817 001a 5DF804FB 		ldr	pc, [sp], #4
 1818              	.LVL187:
 1819              	.L109:
 1820              	.LCFI24:
 1821              		.cfi_restore_state
 294:./lib/fdt/fdt.c **** 		return -FDT_ERR_NOTFOUND;
 1822              		.loc 1 294 10 view .LVU584
 1823 001e 4FF0FF30 		mov	r0, #-1
 1824              	.LVL188:
 294:./lib/fdt/fdt.c **** 		return -FDT_ERR_NOTFOUND;
 1825              		.loc 1 294 10 view .LVU585
 1826 0022 F9E7     		b	.L107
 1827              	.LVL189:
 1828              	.L112:
 294:./lib/fdt/fdt.c **** 		return -FDT_ERR_NOTFOUND;
 1829              		.loc 1 294 10 view .LVU586
 1830 0024 4FF0FF30 		mov	r0, #-1
 1831              	.LVL190:
 294:./lib/fdt/fdt.c **** 		return -FDT_ERR_NOTFOUND;
 1832              		.loc 1 294 10 view .LVU587
 1833 0028 F6E7     		b	.L107
 1834              		.cfi_endproc
 1835              	.LFE86:
 1837              		.section	.text.fdt_next_subnode,"ax",%progbits
 1838              		.align	1
ARM GAS  /tmp/ccsaZJXl.s 			page 48


 1839              		.global	fdt_next_subnode
 1840              		.syntax unified
 1841              		.thumb
 1842              		.thumb_func
 1844              	fdt_next_subnode:
 1845              	.LVL191:
 1846              	.LFB87:
 298:./lib/fdt/fdt.c **** 
 299:./lib/fdt/fdt.c **** int fdt_next_subnode(const void *fdt, int offset)
 300:./lib/fdt/fdt.c **** {
 1847              		.loc 1 300 1 is_stmt 1 view -0
 1848              		.cfi_startproc
 1849              		@ args = 0, pretend = 0, frame = 8
 1850              		@ frame_needed = 0, uses_anonymous_args = 0
 1851              		.loc 1 300 1 is_stmt 0 view .LVU589
 1852 0000 10B5     		push	{r4, lr}
 1853              	.LCFI25:
 1854              		.cfi_def_cfa_offset 8
 1855              		.cfi_offset 4, -8
 1856              		.cfi_offset 14, -4
 1857 0002 82B0     		sub	sp, sp, #8
 1858              	.LCFI26:
 1859              		.cfi_def_cfa_offset 16
 1860 0004 0446     		mov	r4, r0
 301:./lib/fdt/fdt.c **** 	int depth = 1;
 1861              		.loc 1 301 2 is_stmt 1 view .LVU590
 1862              		.loc 1 301 6 is_stmt 0 view .LVU591
 1863 0006 0123     		movs	r3, #1
 1864 0008 0193     		str	r3, [sp, #4]
 1865              	.LVL192:
 1866              	.L115:
 302:./lib/fdt/fdt.c **** 
 303:./lib/fdt/fdt.c **** 	/*
 304:./lib/fdt/fdt.c **** 	 * With respect to the parent, the depth of the next subnode will be
 305:./lib/fdt/fdt.c **** 	 * the same as the last.
 306:./lib/fdt/fdt.c **** 	 */
 307:./lib/fdt/fdt.c **** 	do {
 1867              		.loc 1 307 2 is_stmt 1 view .LVU592
 308:./lib/fdt/fdt.c **** 		offset = fdt_next_node(fdt, offset, &depth);
 1868              		.loc 1 308 3 view .LVU593
 1869              		.loc 1 308 12 is_stmt 0 view .LVU594
 1870 000a 01AA     		add	r2, sp, #4
 1871 000c 2046     		mov	r0, r4
 1872 000e FFF7FEFF 		bl	fdt_next_node
 1873              	.LVL193:
 309:./lib/fdt/fdt.c **** 		if (offset < 0 || depth < 1)
 1874              		.loc 1 309 3 is_stmt 1 view .LVU595
 1875              		.loc 1 309 6 is_stmt 0 view .LVU596
 1876 0012 011E     		subs	r1, r0, #0
 1877 0014 06DB     		blt	.L116
 1878              		.loc 1 309 27 discriminator 1 view .LVU597
 1879 0016 019B     		ldr	r3, [sp, #4]
 1880              		.loc 1 309 18 discriminator 1 view .LVU598
 1881 0018 002B     		cmp	r3, #0
 1882 001a 07DD     		ble	.L117
 310:./lib/fdt/fdt.c **** 			return -FDT_ERR_NOTFOUND;
 311:./lib/fdt/fdt.c **** 	} while (depth > 1);
ARM GAS  /tmp/ccsaZJXl.s 			page 49


 1883              		.loc 1 311 17 is_stmt 1 view .LVU599
 1884 001c 012B     		cmp	r3, #1
 1885 001e F4DC     		bgt	.L115
 312:./lib/fdt/fdt.c **** 
 313:./lib/fdt/fdt.c **** 	return offset;
 1886              		.loc 1 313 9 is_stmt 0 view .LVU600
 1887 0020 0846     		mov	r0, r1
 1888              		.loc 1 313 9 view .LVU601
 1889 0022 01E0     		b	.L113
 1890              	.L116:
 310:./lib/fdt/fdt.c **** 			return -FDT_ERR_NOTFOUND;
 1891              		.loc 1 310 11 view .LVU602
 1892 0024 4FF0FF30 		mov	r0, #-1
 1893              	.L113:
 314:./lib/fdt/fdt.c **** }
 1894              		.loc 1 314 1 view .LVU603
 1895 0028 02B0     		add	sp, sp, #8
 1896              	.LCFI27:
 1897              		.cfi_remember_state
 1898              		.cfi_def_cfa_offset 8
 1899              		@ sp needed
 1900 002a 10BD     		pop	{r4, pc}
 1901              	.LVL194:
 1902              	.L117:
 1903              	.LCFI28:
 1904              		.cfi_restore_state
 310:./lib/fdt/fdt.c **** 			return -FDT_ERR_NOTFOUND;
 1905              		.loc 1 310 11 view .LVU604
 1906 002c 4FF0FF30 		mov	r0, #-1
 1907              	.LVL195:
 310:./lib/fdt/fdt.c **** 			return -FDT_ERR_NOTFOUND;
 1908              		.loc 1 310 11 view .LVU605
 1909 0030 FAE7     		b	.L113
 1910              		.cfi_endproc
 1911              	.LFE87:
 1913              		.section	.text.fdt_find_string_len_,"ax",%progbits
 1914              		.align	1
 1915              		.global	fdt_find_string_len_
 1916              		.syntax unified
 1917              		.thumb
 1918              		.thumb_func
 1920              	fdt_find_string_len_:
 1921              	.LVL196:
 1922              	.LFB88:
 315:./lib/fdt/fdt.c **** 
 316:./lib/fdt/fdt.c **** const char *fdt_find_string_len_(const char *strtab, int tabsize, const char *s,
 317:./lib/fdt/fdt.c **** 				 int slen)
 318:./lib/fdt/fdt.c **** {
 1923              		.loc 1 318 1 is_stmt 1 view -0
 1924              		.cfi_startproc
 1925              		@ args = 0, pretend = 0, frame = 0
 1926              		@ frame_needed = 0, uses_anonymous_args = 0
 1927              		.loc 1 318 1 is_stmt 0 view .LVU607
 1928 0000 F8B5     		push	{r3, r4, r5, r6, r7, lr}
 1929              	.LCFI29:
 1930              		.cfi_def_cfa_offset 24
 1931              		.cfi_offset 3, -24
ARM GAS  /tmp/ccsaZJXl.s 			page 50


 1932              		.cfi_offset 4, -20
 1933              		.cfi_offset 5, -16
 1934              		.cfi_offset 6, -12
 1935              		.cfi_offset 7, -8
 1936              		.cfi_offset 14, -4
 1937 0002 0446     		mov	r4, r0
 1938 0004 1746     		mov	r7, r2
 1939 0006 1D46     		mov	r5, r3
 319:./lib/fdt/fdt.c **** 	const char *last = strtab + tabsize - (slen + 1);
 1940              		.loc 1 319 2 is_stmt 1 view .LVU608
 1941              		.loc 1 319 38 is_stmt 0 view .LVU609
 1942 0008 CE1A     		subs	r6, r1, r3
 1943 000a 013E     		subs	r6, r6, #1
 1944              		.loc 1 319 14 view .LVU610
 1945 000c 0644     		add	r6, r6, r0
 1946              	.LVL197:
 320:./lib/fdt/fdt.c **** 	const char *p;
 1947              		.loc 1 320 2 is_stmt 1 view .LVU611
 321:./lib/fdt/fdt.c **** 
 322:./lib/fdt/fdt.c **** 	for (p = strtab; p <= last; p++)
 1948              		.loc 1 322 2 view .LVU612
 1949              		.loc 1 322 2 is_stmt 0 view .LVU613
 1950 000e 00E0     		b	.L120
 1951              	.LVL198:
 1952              	.L121:
 1953              		.loc 1 322 31 is_stmt 1 discriminator 2 view .LVU614
 1954 0010 0134     		adds	r4, r4, #1
 1955              	.LVL199:
 1956              	.L120:
 1957              		.loc 1 322 21 discriminator 1 view .LVU615
 1958 0012 B442     		cmp	r4, r6
 1959 0014 0BD8     		bhi	.L126
 323:./lib/fdt/fdt.c **** 		if (memcmp(p, s, slen) == 0 && p[slen] == '\0')
 1960              		.loc 1 323 3 view .LVU616
 1961              		.loc 1 323 7 is_stmt 0 view .LVU617
 1962 0016 2A46     		mov	r2, r5
 1963 0018 3946     		mov	r1, r7
 1964 001a 2046     		mov	r0, r4
 1965 001c FFF7FEFF 		bl	memcmp
 1966              	.LVL200:
 1967              		.loc 1 323 6 discriminator 1 view .LVU618
 1968 0020 0028     		cmp	r0, #0
 1969 0022 F5D1     		bne	.L121
 1970              		.loc 1 323 35 discriminator 1 view .LVU619
 1971 0024 635D     		ldrb	r3, [r4, r5]	@ zero_extendqisi2
 1972              		.loc 1 323 31 discriminator 1 view .LVU620
 1973 0026 002B     		cmp	r3, #0
 1974 0028 F2D1     		bne	.L121
 324:./lib/fdt/fdt.c **** 			return p;
 1975              		.loc 1 324 11 view .LVU621
 1976 002a 2046     		mov	r0, r4
 1977 002c 00E0     		b	.L119
 1978              	.L126:
 325:./lib/fdt/fdt.c **** 	return NULL;
 1979              		.loc 1 325 9 view .LVU622
 1980 002e 0020     		movs	r0, #0
 1981              	.L119:
ARM GAS  /tmp/ccsaZJXl.s 			page 51


 326:./lib/fdt/fdt.c **** }
 1982              		.loc 1 326 1 view .LVU623
 1983 0030 F8BD     		pop	{r3, r4, r5, r6, r7, pc}
 1984              		.loc 1 326 1 view .LVU624
 1985              		.cfi_endproc
 1986              	.LFE88:
 1988              		.section	.text.fdt_move,"ax",%progbits
 1989              		.align	1
 1990              		.global	fdt_move
 1991              		.syntax unified
 1992              		.thumb
 1993              		.thumb_func
 1995              	fdt_move:
 1996              	.LVL201:
 1997              	.LFB89:
 327:./lib/fdt/fdt.c **** 
 328:./lib/fdt/fdt.c **** int fdt_move(const void *fdt, void *buf, int bufsize)
 329:./lib/fdt/fdt.c **** {
 1998              		.loc 1 329 1 is_stmt 1 view -0
 1999              		.cfi_startproc
 2000              		@ args = 0, pretend = 0, frame = 0
 2001              		@ frame_needed = 0, uses_anonymous_args = 0
 2002              		.loc 1 329 1 is_stmt 0 view .LVU626
 2003 0000 70B5     		push	{r4, r5, r6, lr}
 2004              	.LCFI30:
 2005              		.cfi_def_cfa_offset 16
 2006              		.cfi_offset 4, -16
 2007              		.cfi_offset 5, -12
 2008              		.cfi_offset 6, -8
 2009              		.cfi_offset 14, -4
 330:./lib/fdt/fdt.c **** 	if (!can_assume(VALID_INPUT) && bufsize < 0)
 2010              		.loc 1 330 2 is_stmt 1 view .LVU627
 2011              		.loc 1 330 31 is_stmt 0 discriminator 1 view .LVU628
 2012 0002 151E     		subs	r5, r2, #0
 2013 0004 17DB     		blt	.L129
 2014 0006 0446     		mov	r4, r0
 2015 0008 0E46     		mov	r6, r1
 2016              	.LBB159:
 331:./lib/fdt/fdt.c **** 		return -FDT_ERR_NOSPACE;
 332:./lib/fdt/fdt.c **** 
 333:./lib/fdt/fdt.c **** 	FDT_RO_PROBE(fdt);
 2017              		.loc 1 333 2 is_stmt 1 view .LVU629
 2018              		.loc 1 333 2 view .LVU630
 2019 000a FFF7FEFF 		bl	fdt_ro_probe_
 2020              	.LVL202:
 2021              		.loc 1 333 2 is_stmt 0 discriminator 1 view .LVU631
 2022 000e 0028     		cmp	r0, #0
 2023              		.loc 1 333 2 discriminator 1 view .LVU632
 2024 0010 10DB     		blt	.L127
 2025              	.LBE159:
 2026              		.loc 1 333 19 is_stmt 1 discriminator 2 view .LVU633
 334:./lib/fdt/fdt.c **** 
 335:./lib/fdt/fdt.c **** 	if (fdt_totalsize(fdt) > (unsigned int)bufsize)
 2027              		.loc 1 335 2 view .LVU634
 2028              	.LVL203:
 2029              	.LBB160:
 2030              	.LBI160:
ARM GAS  /tmp/ccsaZJXl.s 			page 52


 145:./include/linux/libfdt.h **** {
 2031              		.loc 2 145 24 view .LVU635
 2032              	.LBB161:
 147:./include/linux/libfdt.h **** 
 2033              		.loc 2 147 2 view .LVU636
 149:./include/linux/libfdt.h **** 		| ((uint32_t)bp[1] << 16)
 2034              		.loc 2 149 2 view .LVU637
 149:./include/linux/libfdt.h **** 		| ((uint32_t)bp[1] << 16)
 2035              		.loc 2 149 22 is_stmt 0 view .LVU638
 2036 0012 2379     		ldrb	r3, [r4, #4]	@ zero_extendqisi2
 150:./include/linux/libfdt.h **** 		| ((uint32_t)bp[2] << 8)
 2037              		.loc 2 150 18 view .LVU639
 2038 0014 6279     		ldrb	r2, [r4, #5]	@ zero_extendqisi2
 150:./include/linux/libfdt.h **** 		| ((uint32_t)bp[2] << 8)
 2039              		.loc 2 150 22 view .LVU640
 2040 0016 1204     		lsls	r2, r2, #16
 150:./include/linux/libfdt.h **** 		| ((uint32_t)bp[2] << 8)
 2041              		.loc 2 150 3 view .LVU641
 2042 0018 42EA0362 		orr	r2, r2, r3, lsl #24
 151:./include/linux/libfdt.h **** 		| bp[3];
 2043              		.loc 2 151 18 view .LVU642
 2044 001c A379     		ldrb	r3, [r4, #6]	@ zero_extendqisi2
 151:./include/linux/libfdt.h **** 		| bp[3];
 2045              		.loc 2 151 3 view .LVU643
 2046 001e 42EA0322 		orr	r2, r2, r3, lsl #8
 2047              		.loc 2 152 7 view .LVU644
 2048 0022 E379     		ldrb	r3, [r4, #7]	@ zero_extendqisi2
 2049              		.loc 2 152 3 view .LVU645
 2050 0024 1A43     		orrs	r2, r2, r3
 2051              	.LVL204:
 2052              		.loc 2 152 3 view .LVU646
 2053              	.LBE161:
 2054              	.LBE160:
 2055              		.loc 1 335 5 discriminator 1 view .LVU647
 2056 0026 9542     		cmp	r5, r2
 2057 0028 08D3     		bcc	.L130
 336:./lib/fdt/fdt.c **** 		return -FDT_ERR_NOSPACE;
 337:./lib/fdt/fdt.c **** 
 338:./lib/fdt/fdt.c **** 	memmove(buf, fdt, fdt_totalsize(fdt));
 2058              		.loc 1 338 2 is_stmt 1 view .LVU648
 2059              	.LVL205:
 2060              		.loc 1 338 2 is_stmt 0 discriminator 1 view .LVU649
 2061 002a 2146     		mov	r1, r4
 2062 002c 3046     		mov	r0, r6
 2063              	.LVL206:
 2064              		.loc 1 338 2 discriminator 1 view .LVU650
 2065 002e FFF7FEFF 		bl	memmove
 2066              	.LVL207:
 339:./lib/fdt/fdt.c **** 	return 0;
 2067              		.loc 1 339 2 is_stmt 1 view .LVU651
 2068              		.loc 1 339 9 is_stmt 0 view .LVU652
 2069 0032 0020     		movs	r0, #0
 2070              	.LVL208:
 2071              	.L127:
 340:./lib/fdt/fdt.c **** }
 2072              		.loc 1 340 1 view .LVU653
 2073 0034 70BD     		pop	{r4, r5, r6, pc}
ARM GAS  /tmp/ccsaZJXl.s 			page 53


 2074              	.LVL209:
 2075              	.L129:
 331:./lib/fdt/fdt.c **** 
 2076              		.loc 1 331 10 view .LVU654
 2077 0036 6FF00200 		mvn	r0, #2
 2078              	.LVL210:
 331:./lib/fdt/fdt.c **** 
 2079              		.loc 1 331 10 view .LVU655
 2080 003a FBE7     		b	.L127
 2081              	.LVL211:
 2082              	.L130:
 336:./lib/fdt/fdt.c **** 
 2083              		.loc 1 336 10 view .LVU656
 2084 003c 6FF00200 		mvn	r0, #2
 2085              	.LVL212:
 336:./lib/fdt/fdt.c **** 
 2086              		.loc 1 336 10 view .LVU657
 2087 0040 F8E7     		b	.L127
 2088              		.cfi_endproc
 2089              	.LFE89:
 2091              		.text
 2092              	.Letext0:
 2093              		.file 5 "./include/asm-generic/int-l64.h"
 2094              		.file 6 "./include/asm-generic/posix_types.h"
 2095              		.file 7 "./include/linux/types.h"
 2096              		.file 8 "./include/linux/fdt.h"
 2097              		.file 9 "./arch/arm_m/include/asm/string.h"
ARM GAS  /tmp/ccsaZJXl.s 			page 54


DEFINED SYMBOLS
                            *ABS*:00000000 fdt.c
     /tmp/ccsaZJXl.s:21     .text.check_off_:00000000 $t
     /tmp/ccsaZJXl.s:26     .text.check_off_:00000000 check_off_
     /tmp/ccsaZJXl.s:64     .text.check_block_:00000000 $t
     /tmp/ccsaZJXl.s:69     .text.check_block_:00000000 check_block_
     /tmp/ccsaZJXl.s:122    .text.fdt_ro_probe_:00000000 $t
     /tmp/ccsaZJXl.s:128    .text.fdt_ro_probe_:00000000 fdt_ro_probe_
     /tmp/ccsaZJXl.s:358    .text.fdt_ro_probe_:000000b8 $d
     /tmp/ccsaZJXl.s:364    .text.fdt_header_size_:00000000 $t
     /tmp/ccsaZJXl.s:370    .text.fdt_header_size_:00000000 fdt_header_size_
     /tmp/ccsaZJXl.s:431    .text.fdt_header_size:00000000 $t
     /tmp/ccsaZJXl.s:437    .text.fdt_header_size:00000000 fdt_header_size
     /tmp/ccsaZJXl.s:486    .text.fdt_check_header:00000000 $t
     /tmp/ccsaZJXl.s:492    .text.fdt_check_header:00000000 fdt_check_header
     /tmp/ccsaZJXl.s:944    .text.fdt_check_header:00000180 $d
     /tmp/ccsaZJXl.s:949    .text.fdt_offset_ptr:00000000 $t
     /tmp/ccsaZJXl.s:955    .text.fdt_offset_ptr:00000000 fdt_offset_ptr
     /tmp/ccsaZJXl.s:1181   .text.fdt_next_tag:00000000 $t
     /tmp/ccsaZJXl.s:1187   .text.fdt_next_tag:00000000 fdt_next_tag
     /tmp/ccsaZJXl.s:1266   .text.fdt_next_tag:00000048 $d
     /tmp/ccsaZJXl.s:1479   .text.fdt_check_node_offset_:00000000 $t
     /tmp/ccsaZJXl.s:1485   .text.fdt_check_node_offset_:00000000 fdt_check_node_offset_
     /tmp/ccsaZJXl.s:1553   .text.fdt_check_prop_offset_:00000000 $t
     /tmp/ccsaZJXl.s:1559   .text.fdt_check_prop_offset_:00000000 fdt_check_prop_offset_
     /tmp/ccsaZJXl.s:1627   .text.fdt_next_node:00000000 $t
     /tmp/ccsaZJXl.s:1633   .text.fdt_next_node:00000000 fdt_next_node
     /tmp/ccsaZJXl.s:1769   .text.fdt_first_subnode:00000000 $t
     /tmp/ccsaZJXl.s:1775   .text.fdt_first_subnode:00000000 fdt_first_subnode
     /tmp/ccsaZJXl.s:1838   .text.fdt_next_subnode:00000000 $t
     /tmp/ccsaZJXl.s:1844   .text.fdt_next_subnode:00000000 fdt_next_subnode
     /tmp/ccsaZJXl.s:1914   .text.fdt_find_string_len_:00000000 $t
     /tmp/ccsaZJXl.s:1920   .text.fdt_find_string_len_:00000000 fdt_find_string_len_
     /tmp/ccsaZJXl.s:1989   .text.fdt_move:00000000 $t
     /tmp/ccsaZJXl.s:1995   .text.fdt_move:00000000 fdt_move
     /tmp/ccsaZJXl.s:1276   .text.fdt_next_tag:00000051 $d
     /tmp/ccsaZJXl.s:1276   .text.fdt_next_tag:00000052 $t

UNDEFINED SYMBOLS
memcmp
memmove
