ARM GAS  /tmp/cc0N4oYp.s 			page 1


   1              		.cpu cortex-m4
   2              		.arch armv7e-m
   3              		.fpu fpv4-sp-d16
   4              		.eabi_attribute 27, 1
   5              		.eabi_attribute 28, 1
   6              		.eabi_attribute 20, 1
   7              		.eabi_attribute 21, 1
   8              		.eabi_attribute 23, 3
   9              		.eabi_attribute 24, 1
  10              		.eabi_attribute 25, 1
  11              		.eabi_attribute 26, 1
  12              		.eabi_attribute 30, 1
  13              		.eabi_attribute 34, 1
  14              		.eabi_attribute 18, 4
  15              		.file	"fdt_sw.c"
  16              		.text
  17              	.Ltext0:
  18              		.cfi_sections	.debug_frame
  19              		.file 1 "./lib/fdt/fdt_sw.c"
  20              		.section	.text.fdt_sw_probe_,"ax",%progbits
  21              		.align	1
  22              		.syntax unified
  23              		.thumb
  24              		.thumb_func
  26              	fdt_sw_probe_:
  27              	.LVL0:
  28              	.LFB75:
   1:./lib/fdt/fdt_sw.c **** // SPDX-License-Identifier: (GPL-2.0-or-later OR BSD-2-Clause)
   2:./lib/fdt/fdt_sw.c **** /*
   3:./lib/fdt/fdt_sw.c ****  * libfdt - Flat Device Tree manipulation
   4:./lib/fdt/fdt_sw.c ****  * Copyright (C) 2006 David Gibson, IBM Corporation.
   5:./lib/fdt/fdt_sw.c ****  */
   6:./lib/fdt/fdt_sw.c **** #include <linux/libfdt_env.h>
   7:./lib/fdt/fdt_sw.c **** 
   8:./lib/fdt/fdt_sw.c **** #include <linux/fdt.h>
   9:./lib/fdt/fdt_sw.c **** #include <linux/libfdt.h>
  10:./lib/fdt/fdt_sw.c **** 
  11:./lib/fdt/fdt_sw.c **** 
  12:./lib/fdt/fdt_sw.c **** #include "libfdt_internal.h"
  13:./lib/fdt/fdt_sw.c **** 
  14:./lib/fdt/fdt_sw.c **** static int fdt_sw_probe_(void *fdt)
  15:./lib/fdt/fdt_sw.c **** {
  29              		.loc 1 15 1 view -0
  30              		.cfi_startproc
  31              		@ args = 0, pretend = 0, frame = 0
  32              		@ frame_needed = 0, uses_anonymous_args = 0
  33              		@ link register save eliminated.
  16:./lib/fdt/fdt_sw.c **** 	if (!can_assume(VALID_INPUT)) {
  34              		.loc 1 16 2 view .LVU1
  17:./lib/fdt/fdt_sw.c **** 		if (fdt_magic(fdt) == FDT_MAGIC)
  35              		.loc 1 17 3 view .LVU2
  36              	.LBB219:
  37              	.LBI219:
  38              		.file 2 "./include/linux/libfdt.h"
   1:./include/linux/libfdt.h **** /* SPDX-License-Identifier: (GPL-2.0-or-later OR BSD-2-Clause) */
   2:./include/linux/libfdt.h **** #ifndef LIBFDT_H
   3:./include/linux/libfdt.h **** #define LIBFDT_H
ARM GAS  /tmp/cc0N4oYp.s 			page 2


   4:./include/linux/libfdt.h **** /*
   5:./include/linux/libfdt.h ****  * libfdt - Flat Device Tree manipulation
   6:./include/linux/libfdt.h ****  * Copyright (C) 2006 David Gibson, IBM Corporation.
   7:./include/linux/libfdt.h ****  */
   8:./include/linux/libfdt.h **** 
   9:./include/linux/libfdt.h **** #include <linux/libfdt_env.h>
  10:./include/linux/libfdt.h **** #include <linux/fdt.h>
  11:./include/linux/libfdt.h **** 
  12:./include/linux/libfdt.h **** #ifdef __cplusplus
  13:./include/linux/libfdt.h **** extern "C" {
  14:./include/linux/libfdt.h **** #endif
  15:./include/linux/libfdt.h **** 
  16:./include/linux/libfdt.h **** 
  17:./include/linux/libfdt.h **** extern const uint8_t __dtb_file_start_address[];
  18:./include/linux/libfdt.h **** extern const uint8_t __dtb_file_end_address[];
  19:./include/linux/libfdt.h **** 
  20:./include/linux/libfdt.h **** #define FDT_FIRST_SUPPORTED_VERSION	0x02
  21:./include/linux/libfdt.h **** #define FDT_LAST_COMPATIBLE_VERSION	0x10
  22:./include/linux/libfdt.h **** #define FDT_LAST_SUPPORTED_VERSION	0x11
  23:./include/linux/libfdt.h **** 
  24:./include/linux/libfdt.h **** /* Error codes: informative error codes */
  25:./include/linux/libfdt.h **** #define FDT_ERR_NOTFOUND	1
  26:./include/linux/libfdt.h **** 	/* FDT_ERR_NOTFOUND: The requested node or property does not exist */
  27:./include/linux/libfdt.h **** #define FDT_ERR_EXISTS		2
  28:./include/linux/libfdt.h **** 	/* FDT_ERR_EXISTS: Attempted to create a node or property which
  29:./include/linux/libfdt.h **** 	 * already exists */
  30:./include/linux/libfdt.h **** #define FDT_ERR_NOSPACE		3
  31:./include/linux/libfdt.h **** 	/* FDT_ERR_NOSPACE: Operation needed to expand the device
  32:./include/linux/libfdt.h **** 	 * tree, but its buffer did not have sufficient space to
  33:./include/linux/libfdt.h **** 	 * contain the expanded tree. Use fdt_open_into() to move the
  34:./include/linux/libfdt.h **** 	 * device tree to a buffer with more space. */
  35:./include/linux/libfdt.h **** 
  36:./include/linux/libfdt.h **** /* Error codes: codes for bad parameters */
  37:./include/linux/libfdt.h **** #define FDT_ERR_BADOFFSET	4
  38:./include/linux/libfdt.h **** 	/* FDT_ERR_BADOFFSET: Function was passed a structure block
  39:./include/linux/libfdt.h **** 	 * offset which is out-of-bounds, or which points to an
  40:./include/linux/libfdt.h **** 	 * unsuitable part of the structure for the operation. */
  41:./include/linux/libfdt.h **** #define FDT_ERR_BADPATH		5
  42:./include/linux/libfdt.h **** 	/* FDT_ERR_BADPATH: Function was passed a badly formatted path
  43:./include/linux/libfdt.h **** 	 * (e.g. missing a leading / for a function which requires an
  44:./include/linux/libfdt.h **** 	 * absolute path) */
  45:./include/linux/libfdt.h **** #define FDT_ERR_BADPHANDLE	6
  46:./include/linux/libfdt.h **** 	/* FDT_ERR_BADPHANDLE: Function was passed an invalid phandle.
  47:./include/linux/libfdt.h **** 	 * This can be caused either by an invalid phandle property
  48:./include/linux/libfdt.h **** 	 * length, or the phandle value was either 0 or -1, which are
  49:./include/linux/libfdt.h **** 	 * not permitted. */
  50:./include/linux/libfdt.h **** #define FDT_ERR_BADSTATE	7
  51:./include/linux/libfdt.h **** 	/* FDT_ERR_BADSTATE: Function was passed an incomplete device
  52:./include/linux/libfdt.h **** 	 * tree created by the sequential-write functions, which is
  53:./include/linux/libfdt.h **** 	 * not sufficiently complete for the requested operation. */
  54:./include/linux/libfdt.h **** 
  55:./include/linux/libfdt.h **** /* Error codes: codes for bad device tree blobs */
  56:./include/linux/libfdt.h **** #define FDT_ERR_TRUNCATED	8
  57:./include/linux/libfdt.h **** 	/* FDT_ERR_TRUNCATED: FDT or a sub-block is improperly
  58:./include/linux/libfdt.h **** 	 * terminated (overflows, goes outside allowed bounds, or
  59:./include/linux/libfdt.h **** 	 * isn't properly terminated).  */
  60:./include/linux/libfdt.h **** #define FDT_ERR_BADMAGIC	9
ARM GAS  /tmp/cc0N4oYp.s 			page 3


  61:./include/linux/libfdt.h **** 	/* FDT_ERR_BADMAGIC: Given "device tree" appears not to be a
  62:./include/linux/libfdt.h **** 	 * device tree at all - it is missing the flattened device
  63:./include/linux/libfdt.h **** 	 * tree magic number. */
  64:./include/linux/libfdt.h **** #define FDT_ERR_BADVERSION	10
  65:./include/linux/libfdt.h **** 	/* FDT_ERR_BADVERSION: Given device tree has a version which
  66:./include/linux/libfdt.h **** 	 * can't be handled by the requested operation.  For
  67:./include/linux/libfdt.h **** 	 * read-write functions, this may mean that fdt_open_into() is
  68:./include/linux/libfdt.h **** 	 * required to convert the tree to the expected version. */
  69:./include/linux/libfdt.h **** #define FDT_ERR_BADSTRUCTURE	11
  70:./include/linux/libfdt.h **** 	/* FDT_ERR_BADSTRUCTURE: Given device tree has a corrupt
  71:./include/linux/libfdt.h **** 	 * structure block or other serious error (e.g. misnested
  72:./include/linux/libfdt.h **** 	 * nodes, or subnodes preceding properties). */
  73:./include/linux/libfdt.h **** #define FDT_ERR_BADLAYOUT	12
  74:./include/linux/libfdt.h **** 	/* FDT_ERR_BADLAYOUT: For read-write functions, the given
  75:./include/linux/libfdt.h **** 	 * device tree has it's sub-blocks in an order that the
  76:./include/linux/libfdt.h **** 	 * function can't handle (memory reserve map, then structure,
  77:./include/linux/libfdt.h **** 	 * then strings).  Use fdt_open_into() to reorganize the tree
  78:./include/linux/libfdt.h **** 	 * into a form suitable for the read-write operations. */
  79:./include/linux/libfdt.h **** 
  80:./include/linux/libfdt.h **** /* "Can't happen" error indicating a bug in libfdt */
  81:./include/linux/libfdt.h **** #define FDT_ERR_INTERNAL	13
  82:./include/linux/libfdt.h **** 	/* FDT_ERR_INTERNAL: libfdt has failed an internal assertion.
  83:./include/linux/libfdt.h **** 	 * Should never be returned, if it is, it indicates a bug in
  84:./include/linux/libfdt.h **** 	 * libfdt itself. */
  85:./include/linux/libfdt.h **** 
  86:./include/linux/libfdt.h **** /* Errors in device tree content */
  87:./include/linux/libfdt.h **** #define FDT_ERR_BADNCELLS	14
  88:./include/linux/libfdt.h **** 	/* FDT_ERR_BADNCELLS: Device tree has a #address-cells, #size-cells
  89:./include/linux/libfdt.h **** 	 * or similar property with a bad format or value */
  90:./include/linux/libfdt.h **** 
  91:./include/linux/libfdt.h **** #define FDT_ERR_BADVALUE	15
  92:./include/linux/libfdt.h **** 	/* FDT_ERR_BADVALUE: Device tree has a property with an unexpected
  93:./include/linux/libfdt.h **** 	 * value. For example: a property expected to contain a string list
  94:./include/linux/libfdt.h **** 	 * is not NUL-terminated within the length of its value. */
  95:./include/linux/libfdt.h **** 
  96:./include/linux/libfdt.h **** #define FDT_ERR_BADOVERLAY	16
  97:./include/linux/libfdt.h **** 	/* FDT_ERR_BADOVERLAY: The device tree overlay, while
  98:./include/linux/libfdt.h **** 	 * correctly structured, cannot be applied due to some
  99:./include/linux/libfdt.h **** 	 * unexpected or missing value, property or node. */
 100:./include/linux/libfdt.h **** 
 101:./include/linux/libfdt.h **** #define FDT_ERR_NOPHANDLES	17
 102:./include/linux/libfdt.h **** 	/* FDT_ERR_NOPHANDLES: The device tree doesn't have any
 103:./include/linux/libfdt.h **** 	 * phandle available anymore without causing an overflow */
 104:./include/linux/libfdt.h **** 
 105:./include/linux/libfdt.h **** #define FDT_ERR_BADFLAGS	18
 106:./include/linux/libfdt.h **** 	/* FDT_ERR_BADFLAGS: The function was passed a flags field that
 107:./include/linux/libfdt.h **** 	 * contains invalid flags or an invalid combination of flags. */
 108:./include/linux/libfdt.h **** 
 109:./include/linux/libfdt.h **** #define FDT_ERR_ALIGNMENT	19
 110:./include/linux/libfdt.h **** 	/* FDT_ERR_ALIGNMENT: The device tree base address is not 8-byte
 111:./include/linux/libfdt.h **** 	 * aligned. */
 112:./include/linux/libfdt.h **** 
 113:./include/linux/libfdt.h **** #define FDT_ERR_MAX		19
 114:./include/linux/libfdt.h **** 
 115:./include/linux/libfdt.h **** /* constants */
 116:./include/linux/libfdt.h **** #define FDT_MAX_PHANDLE 0xfffffffe
 117:./include/linux/libfdt.h **** 	/* Valid values for phandles range from 1 to 2^32-2. */
ARM GAS  /tmp/cc0N4oYp.s 			page 4


 118:./include/linux/libfdt.h **** 
 119:./include/linux/libfdt.h **** /**********************************************************************/
 120:./include/linux/libfdt.h **** /* Low-level functions (you probably don't need these)                */
 121:./include/linux/libfdt.h **** /**********************************************************************/
 122:./include/linux/libfdt.h **** 
 123:./include/linux/libfdt.h **** #ifndef SWIG /* This function is not useful in Python */
 124:./include/linux/libfdt.h **** const void *fdt_offset_ptr(const void *fdt, int offset, unsigned int checklen);
 125:./include/linux/libfdt.h **** #endif
 126:./include/linux/libfdt.h **** static inline void *fdt_offset_ptr_w(void *fdt, int offset, int checklen)
 127:./include/linux/libfdt.h **** {
 128:./include/linux/libfdt.h **** 	return (void *)(uintptr_t)fdt_offset_ptr(fdt, offset, checklen);
 129:./include/linux/libfdt.h **** }
 130:./include/linux/libfdt.h **** 
 131:./include/linux/libfdt.h **** uint32_t fdt_next_tag(const void *fdt, int offset, int *nextoffset);
 132:./include/linux/libfdt.h **** 
 133:./include/linux/libfdt.h **** /*
 134:./include/linux/libfdt.h ****  * External helpers to access words from a device tree blob. They're built
 135:./include/linux/libfdt.h ****  * to work even with unaligned pointers on platforms (such as ARMv5) that don't
 136:./include/linux/libfdt.h ****  * like unaligned loads and stores.
 137:./include/linux/libfdt.h ****  */
 138:./include/linux/libfdt.h **** static inline uint16_t fdt16_ld(const fdt16_t *p)
 139:./include/linux/libfdt.h **** {
 140:./include/linux/libfdt.h **** 	const uint8_t *bp = (const uint8_t *)p;
 141:./include/linux/libfdt.h **** 
 142:./include/linux/libfdt.h **** 	return ((uint16_t)bp[0] << 8) | bp[1];
 143:./include/linux/libfdt.h **** }
 144:./include/linux/libfdt.h **** 
 145:./include/linux/libfdt.h **** static inline uint32_t fdt32_ld(const fdt32_t *p)
  39              		.loc 2 145 24 view .LVU3
  40              	.LBB220:
 146:./include/linux/libfdt.h **** {
 147:./include/linux/libfdt.h **** 	const uint8_t *bp = (const uint8_t *)p;
  41              		.loc 2 147 2 view .LVU4
 148:./include/linux/libfdt.h **** 
 149:./include/linux/libfdt.h **** 	return ((uint32_t)bp[0] << 24)
  42              		.loc 2 149 2 view .LVU5
  43              		.loc 2 149 22 is_stmt 0 view .LVU6
  44 0000 0278     		ldrb	r2, [r0]	@ zero_extendqisi2
 150:./include/linux/libfdt.h **** 		| ((uint32_t)bp[1] << 16)
  45              		.loc 2 150 18 view .LVU7
  46 0002 4378     		ldrb	r3, [r0, #1]	@ zero_extendqisi2
  47              		.loc 2 150 22 view .LVU8
  48 0004 1B04     		lsls	r3, r3, #16
  49              		.loc 2 150 3 view .LVU9
  50 0006 43EA0263 		orr	r3, r3, r2, lsl #24
 151:./include/linux/libfdt.h **** 		| ((uint32_t)bp[2] << 8)
  51              		.loc 2 151 18 view .LVU10
  52 000a 8278     		ldrb	r2, [r0, #2]	@ zero_extendqisi2
  53              		.loc 2 151 3 view .LVU11
  54 000c 43EA0223 		orr	r3, r3, r2, lsl #8
 152:./include/linux/libfdt.h **** 		| bp[3];
  55              		.loc 2 152 7 view .LVU12
  56 0010 C278     		ldrb	r2, [r0, #3]	@ zero_extendqisi2
  57              		.loc 2 152 3 view .LVU13
  58 0012 1343     		orrs	r3, r3, r2
  59              	.LVL1:
  60              		.loc 2 152 3 view .LVU14
ARM GAS  /tmp/cc0N4oYp.s 			page 5


  61              	.LBE220:
  62              	.LBE219:
  63              		.loc 1 17 6 discriminator 1 view .LVU15
  64 0014 064A     		ldr	r2, .L5
  65 0016 9342     		cmp	r3, r2
  66 0018 04D0     		beq	.L3
  18:./lib/fdt/fdt_sw.c **** 			return -FDT_ERR_BADSTATE;
  19:./lib/fdt/fdt_sw.c **** 		else if (fdt_magic(fdt) != FDT_SW_MAGIC)
  67              		.loc 1 19 8 is_stmt 1 view .LVU16
  68              	.LVL2:
  69              		.loc 1 19 11 is_stmt 0 discriminator 1 view .LVU17
  70 001a 064A     		ldr	r2, .L5+4
  71 001c 9342     		cmp	r3, r2
  72 001e 04D1     		bne	.L4
  20:./lib/fdt/fdt_sw.c **** 			return -FDT_ERR_BADMAGIC;
  21:./lib/fdt/fdt_sw.c **** 	}
  22:./lib/fdt/fdt_sw.c **** 
  23:./lib/fdt/fdt_sw.c **** 	return 0;
  73              		.loc 1 23 9 view .LVU18
  74 0020 0020     		movs	r0, #0
  75              	.LVL3:
  76              		.loc 1 23 9 view .LVU19
  77 0022 7047     		bx	lr
  78              	.LVL4:
  79              	.L3:
  18:./lib/fdt/fdt_sw.c **** 			return -FDT_ERR_BADSTATE;
  80              		.loc 1 18 11 view .LVU20
  81 0024 6FF00600 		mvn	r0, #6
  82              	.LVL5:
  18:./lib/fdt/fdt_sw.c **** 			return -FDT_ERR_BADSTATE;
  83              		.loc 1 18 11 view .LVU21
  84 0028 7047     		bx	lr
  85              	.LVL6:
  86              	.L4:
  20:./lib/fdt/fdt_sw.c **** 			return -FDT_ERR_BADMAGIC;
  87              		.loc 1 20 11 view .LVU22
  88 002a 6FF00800 		mvn	r0, #8
  89              	.LVL7:
  24:./lib/fdt/fdt_sw.c **** }
  90              		.loc 1 24 1 view .LVU23
  91 002e 7047     		bx	lr
  92              	.L6:
  93              		.align	2
  94              	.L5:
  95 0030 EDFE0DD0 		.word	-804389139
  96 0034 1201F22F 		.word	804389138
  97              		.cfi_endproc
  98              	.LFE75:
 100              		.section	.text.fdt_sw_probe_memrsv_,"ax",%progbits
 101              		.align	1
 102              		.syntax unified
 103              		.thumb
 104              		.thumb_func
 106              	fdt_sw_probe_memrsv_:
 107              	.LVL8:
 108              	.LFB76:
  25:./lib/fdt/fdt_sw.c **** 
ARM GAS  /tmp/cc0N4oYp.s 			page 6


  26:./lib/fdt/fdt_sw.c **** #define FDT_SW_PROBE(fdt) \
  27:./lib/fdt/fdt_sw.c **** 	{ \
  28:./lib/fdt/fdt_sw.c **** 		int err; \
  29:./lib/fdt/fdt_sw.c **** 		if ((err = fdt_sw_probe_(fdt)) != 0) \
  30:./lib/fdt/fdt_sw.c **** 			return err; \
  31:./lib/fdt/fdt_sw.c **** 	}
  32:./lib/fdt/fdt_sw.c **** 
  33:./lib/fdt/fdt_sw.c **** /* 'memrsv' state:	Initial state after fdt_create()
  34:./lib/fdt/fdt_sw.c ****  *
  35:./lib/fdt/fdt_sw.c ****  * Allowed functions:
  36:./lib/fdt/fdt_sw.c ****  *	fdt_add_reservemap_entry()
  37:./lib/fdt/fdt_sw.c ****  *	fdt_finish_reservemap()		[moves to 'struct' state]
  38:./lib/fdt/fdt_sw.c ****  */
  39:./lib/fdt/fdt_sw.c **** static int fdt_sw_probe_memrsv_(void *fdt)
  40:./lib/fdt/fdt_sw.c **** {
 109              		.loc 1 40 1 is_stmt 1 view -0
 110              		.cfi_startproc
 111              		@ args = 0, pretend = 0, frame = 0
 112              		@ frame_needed = 0, uses_anonymous_args = 0
 113              		.loc 1 40 1 is_stmt 0 view .LVU25
 114 0000 10B5     		push	{r4, lr}
 115              	.LCFI0:
 116              		.cfi_def_cfa_offset 8
 117              		.cfi_offset 4, -8
 118              		.cfi_offset 14, -4
 119 0002 0446     		mov	r4, r0
  41:./lib/fdt/fdt_sw.c **** 	int err = fdt_sw_probe_(fdt);
 120              		.loc 1 41 2 is_stmt 1 view .LVU26
 121              		.loc 1 41 12 is_stmt 0 view .LVU27
 122 0004 FFF7FEFF 		bl	fdt_sw_probe_
 123              	.LVL9:
  42:./lib/fdt/fdt_sw.c **** 	if (err)
 124              		.loc 1 42 2 is_stmt 1 view .LVU28
 125              		.loc 1 42 5 is_stmt 0 view .LVU29
 126 0008 50B9     		cbnz	r0, .L7
  43:./lib/fdt/fdt_sw.c **** 		return err;
  44:./lib/fdt/fdt_sw.c **** 
  45:./lib/fdt/fdt_sw.c **** 	if (!can_assume(VALID_INPUT) && fdt_off_dt_strings(fdt) != 0)
 127              		.loc 1 45 2 is_stmt 1 view .LVU30
 128              	.LVL10:
 129              	.LBB221:
 130              	.LBI221:
 145:./include/linux/libfdt.h **** {
 131              		.loc 2 145 24 view .LVU31
 132              	.LBB222:
 147:./include/linux/libfdt.h **** 
 133              		.loc 2 147 2 view .LVU32
 149:./include/linux/libfdt.h **** 		| ((uint32_t)bp[1] << 16)
 134              		.loc 2 149 2 view .LVU33
 149:./include/linux/libfdt.h **** 		| ((uint32_t)bp[1] << 16)
 135              		.loc 2 149 22 is_stmt 0 view .LVU34
 136 000a 227B     		ldrb	r2, [r4, #12]	@ zero_extendqisi2
 150:./include/linux/libfdt.h **** 		| ((uint32_t)bp[2] << 8)
 137              		.loc 2 150 18 view .LVU35
 138 000c 637B     		ldrb	r3, [r4, #13]	@ zero_extendqisi2
 150:./include/linux/libfdt.h **** 		| ((uint32_t)bp[2] << 8)
 139              		.loc 2 150 22 view .LVU36
ARM GAS  /tmp/cc0N4oYp.s 			page 7


 140 000e 1B04     		lsls	r3, r3, #16
 150:./include/linux/libfdt.h **** 		| ((uint32_t)bp[2] << 8)
 141              		.loc 2 150 3 view .LVU37
 142 0010 43EA0263 		orr	r3, r3, r2, lsl #24
 151:./include/linux/libfdt.h **** 		| bp[3];
 143              		.loc 2 151 18 view .LVU38
 144 0014 A27B     		ldrb	r2, [r4, #14]	@ zero_extendqisi2
 151:./include/linux/libfdt.h **** 		| bp[3];
 145              		.loc 2 151 3 view .LVU39
 146 0016 43EA0223 		orr	r3, r3, r2, lsl #8
 147              		.loc 2 152 7 view .LVU40
 148 001a E27B     		ldrb	r2, [r4, #15]	@ zero_extendqisi2
 149              	.LVL11:
 150              		.loc 2 152 7 view .LVU41
 151              	.LBE222:
 152              	.LBE221:
 153              		.loc 1 45 31 discriminator 1 view .LVU42
 154 001c 1343     		orrs	r3, r3, r2
 155 001e 00D1     		bne	.L11
 156              	.LVL12:
 157              	.L7:
  46:./lib/fdt/fdt_sw.c **** 		return -FDT_ERR_BADSTATE;
  47:./lib/fdt/fdt_sw.c **** 	return 0;
  48:./lib/fdt/fdt_sw.c **** }
 158              		.loc 1 48 1 view .LVU43
 159 0020 10BD     		pop	{r4, pc}
 160              	.LVL13:
 161              	.L11:
  46:./lib/fdt/fdt_sw.c **** 		return -FDT_ERR_BADSTATE;
 162              		.loc 1 46 10 view .LVU44
 163 0022 6FF00600 		mvn	r0, #6
 164 0026 FBE7     		b	.L7
 165              		.cfi_endproc
 166              	.LFE76:
 168              		.section	.text.fdt_sw_probe_struct_,"ax",%progbits
 169              		.align	1
 170              		.syntax unified
 171              		.thumb
 172              		.thumb_func
 174              	fdt_sw_probe_struct_:
 175              	.LVL14:
 176              	.LFB77:
  49:./lib/fdt/fdt_sw.c **** 
  50:./lib/fdt/fdt_sw.c **** #define FDT_SW_PROBE_MEMRSV(fdt) \
  51:./lib/fdt/fdt_sw.c **** 	{ \
  52:./lib/fdt/fdt_sw.c **** 		int err; \
  53:./lib/fdt/fdt_sw.c **** 		if ((err = fdt_sw_probe_memrsv_(fdt)) != 0) \
  54:./lib/fdt/fdt_sw.c **** 			return err; \
  55:./lib/fdt/fdt_sw.c **** 	}
  56:./lib/fdt/fdt_sw.c **** 
  57:./lib/fdt/fdt_sw.c **** /* 'struct' state:	Enter this state after fdt_finish_reservemap()
  58:./lib/fdt/fdt_sw.c ****  *
  59:./lib/fdt/fdt_sw.c ****  * Allowed functions:
  60:./lib/fdt/fdt_sw.c ****  *	fdt_begin_node()
  61:./lib/fdt/fdt_sw.c ****  *	fdt_end_node()
  62:./lib/fdt/fdt_sw.c ****  *	fdt_property*()
  63:./lib/fdt/fdt_sw.c ****  *	fdt_finish()			[moves to 'complete' state]
ARM GAS  /tmp/cc0N4oYp.s 			page 8


  64:./lib/fdt/fdt_sw.c ****  */
  65:./lib/fdt/fdt_sw.c **** static int fdt_sw_probe_struct_(void *fdt)
  66:./lib/fdt/fdt_sw.c **** {
 177              		.loc 1 66 1 is_stmt 1 view -0
 178              		.cfi_startproc
 179              		@ args = 0, pretend = 0, frame = 0
 180              		@ frame_needed = 0, uses_anonymous_args = 0
 181              		.loc 1 66 1 is_stmt 0 view .LVU46
 182 0000 10B5     		push	{r4, lr}
 183              	.LCFI1:
 184              		.cfi_def_cfa_offset 8
 185              		.cfi_offset 4, -8
 186              		.cfi_offset 14, -4
 187 0002 0446     		mov	r4, r0
  67:./lib/fdt/fdt_sw.c **** 	int err = fdt_sw_probe_(fdt);
 188              		.loc 1 67 2 is_stmt 1 view .LVU47
 189              		.loc 1 67 12 is_stmt 0 view .LVU48
 190 0004 FFF7FEFF 		bl	fdt_sw_probe_
 191              	.LVL15:
  68:./lib/fdt/fdt_sw.c **** 	if (err)
 192              		.loc 1 68 2 is_stmt 1 view .LVU49
 193              		.loc 1 68 5 is_stmt 0 view .LVU50
 194 0008 A8B9     		cbnz	r0, .L12
  69:./lib/fdt/fdt_sw.c **** 		return err;
  70:./lib/fdt/fdt_sw.c **** 
  71:./lib/fdt/fdt_sw.c **** 	if (!can_assume(VALID_INPUT) &&
 195              		.loc 1 71 2 is_stmt 1 view .LVU51
 196              	.LVL16:
 197              	.LBB223:
 198              	.LBI223:
 145:./include/linux/libfdt.h **** {
 199              		.loc 2 145 24 view .LVU52
 200              	.LBB224:
 147:./include/linux/libfdt.h **** 
 201              		.loc 2 147 2 view .LVU53
 149:./include/linux/libfdt.h **** 		| ((uint32_t)bp[1] << 16)
 202              		.loc 2 149 2 view .LVU54
 149:./include/linux/libfdt.h **** 		| ((uint32_t)bp[1] << 16)
 203              		.loc 2 149 22 is_stmt 0 view .LVU55
 204 000a 227B     		ldrb	r2, [r4, #12]	@ zero_extendqisi2
 150:./include/linux/libfdt.h **** 		| ((uint32_t)bp[2] << 8)
 205              		.loc 2 150 18 view .LVU56
 206 000c 637B     		ldrb	r3, [r4, #13]	@ zero_extendqisi2
 150:./include/linux/libfdt.h **** 		| ((uint32_t)bp[2] << 8)
 207              		.loc 2 150 22 view .LVU57
 208 000e 1B04     		lsls	r3, r3, #16
 150:./include/linux/libfdt.h **** 		| ((uint32_t)bp[2] << 8)
 209              		.loc 2 150 3 view .LVU58
 210 0010 43EA0263 		orr	r3, r3, r2, lsl #24
 151:./include/linux/libfdt.h **** 		| bp[3];
 211              		.loc 2 151 18 view .LVU59
 212 0014 A27B     		ldrb	r2, [r4, #14]	@ zero_extendqisi2
 151:./include/linux/libfdt.h **** 		| bp[3];
 213              		.loc 2 151 3 view .LVU60
 214 0016 43EA0223 		orr	r3, r3, r2, lsl #8
 215              		.loc 2 152 7 view .LVU61
 216 001a E27B     		ldrb	r2, [r4, #15]	@ zero_extendqisi2
ARM GAS  /tmp/cc0N4oYp.s 			page 9


 217              		.loc 2 152 3 view .LVU62
 218 001c 1343     		orrs	r3, r3, r2
 219              	.LVL17:
 220              		.loc 2 152 3 view .LVU63
 221              	.LBE224:
 222              	.LBE223:
 223              	.LBB225:
 224              	.LBI225:
 145:./include/linux/libfdt.h **** {
 225              		.loc 2 145 24 is_stmt 1 view .LVU64
 226              	.LBB226:
 147:./include/linux/libfdt.h **** 
 227              		.loc 2 147 2 view .LVU65
 149:./include/linux/libfdt.h **** 		| ((uint32_t)bp[1] << 16)
 228              		.loc 2 149 2 view .LVU66
 149:./include/linux/libfdt.h **** 		| ((uint32_t)bp[1] << 16)
 229              		.loc 2 149 22 is_stmt 0 view .LVU67
 230 001e 2179     		ldrb	r1, [r4, #4]	@ zero_extendqisi2
 150:./include/linux/libfdt.h **** 		| ((uint32_t)bp[2] << 8)
 231              		.loc 2 150 18 view .LVU68
 232 0020 6279     		ldrb	r2, [r4, #5]	@ zero_extendqisi2
 150:./include/linux/libfdt.h **** 		| ((uint32_t)bp[2] << 8)
 233              		.loc 2 150 22 view .LVU69
 234 0022 1204     		lsls	r2, r2, #16
 150:./include/linux/libfdt.h **** 		| ((uint32_t)bp[2] << 8)
 235              		.loc 2 150 3 view .LVU70
 236 0024 42EA0162 		orr	r2, r2, r1, lsl #24
 151:./include/linux/libfdt.h **** 		| bp[3];
 237              		.loc 2 151 18 view .LVU71
 238 0028 A179     		ldrb	r1, [r4, #6]	@ zero_extendqisi2
 151:./include/linux/libfdt.h **** 		| bp[3];
 239              		.loc 2 151 3 view .LVU72
 240 002a 42EA0122 		orr	r2, r2, r1, lsl #8
 241              		.loc 2 152 7 view .LVU73
 242 002e E179     		ldrb	r1, [r4, #7]	@ zero_extendqisi2
 243              		.loc 2 152 3 view .LVU74
 244 0030 0A43     		orrs	r2, r2, r1
 245              	.LVL18:
 246              		.loc 2 152 3 view .LVU75
 247              	.LBE226:
 248              	.LBE225:
 249              		.loc 1 71 31 discriminator 1 view .LVU76
 250 0032 9A42     		cmp	r2, r3
 251 0034 00D1     		bne	.L16
 252              	.LVL19:
 253              	.L12:
  72:./lib/fdt/fdt_sw.c **** 	    fdt_off_dt_strings(fdt) != fdt_totalsize(fdt))
  73:./lib/fdt/fdt_sw.c **** 		return -FDT_ERR_BADSTATE;
  74:./lib/fdt/fdt_sw.c **** 	return 0;
  75:./lib/fdt/fdt_sw.c **** }
 254              		.loc 1 75 1 view .LVU77
 255 0036 10BD     		pop	{r4, pc}
 256              	.LVL20:
 257              	.L16:
  73:./lib/fdt/fdt_sw.c **** 	return 0;
 258              		.loc 1 73 10 view .LVU78
 259 0038 6FF00600 		mvn	r0, #6
ARM GAS  /tmp/cc0N4oYp.s 			page 10


 260 003c FBE7     		b	.L12
 261              		.cfi_endproc
 262              	.LFE77:
 264              		.section	.text.fdt_grab_space_,"ax",%progbits
 265              		.align	1
 266              		.syntax unified
 267              		.thumb
 268              		.thumb_func
 270              	fdt_grab_space_:
 271              	.LVL21:
 272              	.LFB79:
  76:./lib/fdt/fdt_sw.c **** 
  77:./lib/fdt/fdt_sw.c **** #define FDT_SW_PROBE_STRUCT(fdt) \
  78:./lib/fdt/fdt_sw.c **** 	{ \
  79:./lib/fdt/fdt_sw.c **** 		int err; \
  80:./lib/fdt/fdt_sw.c **** 		if ((err = fdt_sw_probe_struct_(fdt)) != 0) \
  81:./lib/fdt/fdt_sw.c **** 			return err; \
  82:./lib/fdt/fdt_sw.c **** 	}
  83:./lib/fdt/fdt_sw.c **** 
  84:./lib/fdt/fdt_sw.c **** static inline uint32_t sw_flags(void *fdt)
  85:./lib/fdt/fdt_sw.c **** {
  86:./lib/fdt/fdt_sw.c **** 	/* assert: (fdt_magic(fdt) == FDT_SW_MAGIC) */
  87:./lib/fdt/fdt_sw.c **** 	return fdt_last_comp_version(fdt);
  88:./lib/fdt/fdt_sw.c **** }
  89:./lib/fdt/fdt_sw.c **** 
  90:./lib/fdt/fdt_sw.c **** /* 'complete' state:	Enter this state after fdt_finish()
  91:./lib/fdt/fdt_sw.c ****  *
  92:./lib/fdt/fdt_sw.c ****  * Allowed functions: none
  93:./lib/fdt/fdt_sw.c ****  */
  94:./lib/fdt/fdt_sw.c **** 
  95:./lib/fdt/fdt_sw.c **** static void *fdt_grab_space_(void *fdt, size_t len)
  96:./lib/fdt/fdt_sw.c **** {
 273              		.loc 1 96 1 is_stmt 1 view -0
 274              		.cfi_startproc
 275              		@ args = 0, pretend = 0, frame = 0
 276              		@ frame_needed = 0, uses_anonymous_args = 0
 277              		.loc 1 96 1 is_stmt 0 view .LVU80
 278 0000 10B5     		push	{r4, lr}
 279              	.LCFI2:
 280              		.cfi_def_cfa_offset 8
 281              		.cfi_offset 4, -8
 282              		.cfi_offset 14, -4
  97:./lib/fdt/fdt_sw.c **** 	unsigned int offset = fdt_size_dt_struct(fdt);
 283              		.loc 1 97 2 is_stmt 1 view .LVU81
 284              	.LVL22:
 285              	.LBB227:
 286              	.LBI227:
 145:./include/linux/libfdt.h **** {
 287              		.loc 2 145 24 view .LVU82
 288              	.LBB228:
 147:./include/linux/libfdt.h **** 
 289              		.loc 2 147 2 view .LVU83
 149:./include/linux/libfdt.h **** 		| ((uint32_t)bp[1] << 16)
 290              		.loc 2 149 2 view .LVU84
 149:./include/linux/libfdt.h **** 		| ((uint32_t)bp[1] << 16)
 291              		.loc 2 149 22 is_stmt 0 view .LVU85
 292 0002 90F82430 		ldrb	r3, [r0, #36]	@ zero_extendqisi2
ARM GAS  /tmp/cc0N4oYp.s 			page 11


 150:./include/linux/libfdt.h **** 		| ((uint32_t)bp[2] << 8)
 293              		.loc 2 150 18 view .LVU86
 294 0006 90F825C0 		ldrb	ip, [r0, #37]	@ zero_extendqisi2
 150:./include/linux/libfdt.h **** 		| ((uint32_t)bp[2] << 8)
 295              		.loc 2 150 22 view .LVU87
 296 000a 4FEA0C4C 		lsl	ip, ip, #16
 150:./include/linux/libfdt.h **** 		| ((uint32_t)bp[2] << 8)
 297              		.loc 2 150 3 view .LVU88
 298 000e 4CEA036C 		orr	ip, ip, r3, lsl #24
 151:./include/linux/libfdt.h **** 		| bp[3];
 299              		.loc 2 151 18 view .LVU89
 300 0012 90F82630 		ldrb	r3, [r0, #38]	@ zero_extendqisi2
 151:./include/linux/libfdt.h **** 		| bp[3];
 301              		.loc 2 151 3 view .LVU90
 302 0016 4CEA032C 		orr	ip, ip, r3, lsl #8
 303              		.loc 2 152 7 view .LVU91
 304 001a 90F82730 		ldrb	r3, [r0, #39]	@ zero_extendqisi2
 305              		.loc 2 152 3 view .LVU92
 306 001e 4CEA030C 		orr	ip, ip, r3
 307              	.LVL23:
 308              		.loc 2 152 3 view .LVU93
 309              	.LBE228:
 310              	.LBE227:
  98:./lib/fdt/fdt_sw.c **** 	unsigned int spaceleft;
 311              		.loc 1 98 2 is_stmt 1 view .LVU94
  99:./lib/fdt/fdt_sw.c **** 
 100:./lib/fdt/fdt_sw.c **** 	spaceleft = fdt_totalsize(fdt) - fdt_off_dt_struct(fdt)
 312              		.loc 1 100 2 view .LVU95
 313              	.LBB229:
 314              	.LBI229:
 145:./include/linux/libfdt.h **** {
 315              		.loc 2 145 24 view .LVU96
 316              	.LBB230:
 147:./include/linux/libfdt.h **** 
 317              		.loc 2 147 2 view .LVU97
 149:./include/linux/libfdt.h **** 		| ((uint32_t)bp[1] << 16)
 318              		.loc 2 149 2 view .LVU98
 149:./include/linux/libfdt.h **** 		| ((uint32_t)bp[1] << 16)
 319              		.loc 2 149 22 is_stmt 0 view .LVU99
 320 0022 0279     		ldrb	r2, [r0, #4]	@ zero_extendqisi2
 150:./include/linux/libfdt.h **** 		| ((uint32_t)bp[2] << 8)
 321              		.loc 2 150 18 view .LVU100
 322 0024 4379     		ldrb	r3, [r0, #5]	@ zero_extendqisi2
 150:./include/linux/libfdt.h **** 		| ((uint32_t)bp[2] << 8)
 323              		.loc 2 150 22 view .LVU101
 324 0026 1B04     		lsls	r3, r3, #16
 150:./include/linux/libfdt.h **** 		| ((uint32_t)bp[2] << 8)
 325              		.loc 2 150 3 view .LVU102
 326 0028 43EA0263 		orr	r3, r3, r2, lsl #24
 151:./include/linux/libfdt.h **** 		| bp[3];
 327              		.loc 2 151 18 view .LVU103
 328 002c 8279     		ldrb	r2, [r0, #6]	@ zero_extendqisi2
 151:./include/linux/libfdt.h **** 		| bp[3];
 329              		.loc 2 151 3 view .LVU104
 330 002e 43EA0223 		orr	r3, r3, r2, lsl #8
 331              		.loc 2 152 7 view .LVU105
 332 0032 C279     		ldrb	r2, [r0, #7]	@ zero_extendqisi2
ARM GAS  /tmp/cc0N4oYp.s 			page 12


 333              		.loc 2 152 3 view .LVU106
 334 0034 1343     		orrs	r3, r3, r2
 335              	.LVL24:
 336              		.loc 2 152 3 view .LVU107
 337              	.LBE230:
 338              	.LBE229:
 339              	.LBB231:
 340              	.LBI231:
 145:./include/linux/libfdt.h **** {
 341              		.loc 2 145 24 is_stmt 1 view .LVU108
 342              	.LBB232:
 147:./include/linux/libfdt.h **** 
 343              		.loc 2 147 2 view .LVU109
 149:./include/linux/libfdt.h **** 		| ((uint32_t)bp[1] << 16)
 344              		.loc 2 149 2 view .LVU110
 149:./include/linux/libfdt.h **** 		| ((uint32_t)bp[1] << 16)
 345              		.loc 2 149 22 is_stmt 0 view .LVU111
 346 0036 047A     		ldrb	r4, [r0, #8]	@ zero_extendqisi2
 150:./include/linux/libfdt.h **** 		| ((uint32_t)bp[2] << 8)
 347              		.loc 2 150 18 view .LVU112
 348 0038 427A     		ldrb	r2, [r0, #9]	@ zero_extendqisi2
 150:./include/linux/libfdt.h **** 		| ((uint32_t)bp[2] << 8)
 349              		.loc 2 150 22 view .LVU113
 350 003a 1204     		lsls	r2, r2, #16
 150:./include/linux/libfdt.h **** 		| ((uint32_t)bp[2] << 8)
 351              		.loc 2 150 3 view .LVU114
 352 003c 42EA0462 		orr	r2, r2, r4, lsl #24
 151:./include/linux/libfdt.h **** 		| bp[3];
 353              		.loc 2 151 18 view .LVU115
 354 0040 847A     		ldrb	r4, [r0, #10]	@ zero_extendqisi2
 151:./include/linux/libfdt.h **** 		| bp[3];
 355              		.loc 2 151 3 view .LVU116
 356 0042 42EA0422 		orr	r2, r2, r4, lsl #8
 357              		.loc 2 152 7 view .LVU117
 358 0046 C47A     		ldrb	r4, [r0, #11]	@ zero_extendqisi2
 359              		.loc 2 152 3 view .LVU118
 360 0048 2243     		orrs	r2, r2, r4
 361              	.LVL25:
 362              		.loc 2 152 3 view .LVU119
 363              	.LBE232:
 364              	.LBE231:
 365              		.loc 1 100 33 discriminator 2 view .LVU120
 366 004a 9B1A     		subs	r3, r3, r2
 367              	.LVL26:
 368              	.LBB233:
 369              	.LBI233:
 145:./include/linux/libfdt.h **** {
 370              		.loc 2 145 24 is_stmt 1 view .LVU121
 371              	.LBB234:
 147:./include/linux/libfdt.h **** 
 372              		.loc 2 147 2 view .LVU122
 149:./include/linux/libfdt.h **** 		| ((uint32_t)bp[1] << 16)
 373              		.loc 2 149 2 view .LVU123
 149:./include/linux/libfdt.h **** 		| ((uint32_t)bp[1] << 16)
 374              		.loc 2 149 22 is_stmt 0 view .LVU124
 375 004c 90F82040 		ldrb	r4, [r0, #32]	@ zero_extendqisi2
 150:./include/linux/libfdt.h **** 		| ((uint32_t)bp[2] << 8)
ARM GAS  /tmp/cc0N4oYp.s 			page 13


 376              		.loc 2 150 18 view .LVU125
 377 0050 90F821E0 		ldrb	lr, [r0, #33]	@ zero_extendqisi2
 150:./include/linux/libfdt.h **** 		| ((uint32_t)bp[2] << 8)
 378              		.loc 2 150 22 view .LVU126
 379 0054 4FEA0E4E 		lsl	lr, lr, #16
 150:./include/linux/libfdt.h **** 		| ((uint32_t)bp[2] << 8)
 380              		.loc 2 150 3 view .LVU127
 381 0058 4EEA046E 		orr	lr, lr, r4, lsl #24
 151:./include/linux/libfdt.h **** 		| bp[3];
 382              		.loc 2 151 18 view .LVU128
 383 005c 90F82240 		ldrb	r4, [r0, #34]	@ zero_extendqisi2
 151:./include/linux/libfdt.h **** 		| bp[3];
 384              		.loc 2 151 3 view .LVU129
 385 0060 4EEA042E 		orr	lr, lr, r4, lsl #8
 386              		.loc 2 152 7 view .LVU130
 387 0064 90F82340 		ldrb	r4, [r0, #35]	@ zero_extendqisi2
 388              		.loc 2 152 3 view .LVU131
 389 0068 4EEA040E 		orr	lr, lr, r4
 390              	.LVL27:
 391              		.loc 2 152 3 view .LVU132
 392              	.LBE234:
 393              	.LBE233:
 394              		.loc 1 100 12 view .LVU133
 395 006c A3EB0E03 		sub	r3, r3, lr
 396              	.LVL28:
 101:./lib/fdt/fdt_sw.c **** 		- fdt_size_dt_strings(fdt);
 102:./lib/fdt/fdt_sw.c **** 
 103:./lib/fdt/fdt_sw.c **** 	if ((offset + len < offset) || (offset + len > spaceleft))
 397              		.loc 1 103 2 is_stmt 1 view .LVU134
 398              		.loc 1 103 5 is_stmt 0 view .LVU135
 399 0070 11EB0C01 		adds	r1, r1, ip
 400              	.LVL29:
 401              		.loc 1 103 5 view .LVU136
 402 0074 10D2     		bcs	.L19
 403              		.loc 1 103 30 discriminator 1 view .LVU137
 404 0076 9942     		cmp	r1, r3
 405 0078 10D8     		bhi	.L20
 104:./lib/fdt/fdt_sw.c **** 		return NULL;
 105:./lib/fdt/fdt_sw.c **** 
 106:./lib/fdt/fdt_sw.c **** 	fdt_set_size_dt_struct(fdt, offset + len);
 406              		.loc 1 106 2 is_stmt 1 view .LVU138
 407              	.LVL30:
 408              	.LBB235:
 409              	.LBI235:
 153:./include/linux/libfdt.h **** }
 154:./include/linux/libfdt.h **** 
 155:./include/linux/libfdt.h **** static inline void fdt32_st(void *property, uint32_t value)
 156:./include/linux/libfdt.h **** {
 157:./include/linux/libfdt.h **** 	uint8_t *bp = (uint8_t *)property;
 158:./include/linux/libfdt.h **** 
 159:./include/linux/libfdt.h **** 	bp[0] = value >> 24;
 160:./include/linux/libfdt.h **** 	bp[1] = (value >> 16) & 0xff;
 161:./include/linux/libfdt.h **** 	bp[2] = (value >> 8) & 0xff;
 162:./include/linux/libfdt.h **** 	bp[3] = value & 0xff;
 163:./include/linux/libfdt.h **** }
 164:./include/linux/libfdt.h **** 
 165:./include/linux/libfdt.h **** static inline uint64_t fdt64_ld(const fdt64_t *p)
ARM GAS  /tmp/cc0N4oYp.s 			page 14


 166:./include/linux/libfdt.h **** {
 167:./include/linux/libfdt.h **** 	const uint8_t *bp = (const uint8_t *)p;
 168:./include/linux/libfdt.h **** 
 169:./include/linux/libfdt.h **** 	return ((uint64_t)bp[0] << 56)
 170:./include/linux/libfdt.h **** 		| ((uint64_t)bp[1] << 48)
 171:./include/linux/libfdt.h **** 		| ((uint64_t)bp[2] << 40)
 172:./include/linux/libfdt.h **** 		| ((uint64_t)bp[3] << 32)
 173:./include/linux/libfdt.h **** 		| ((uint64_t)bp[4] << 24)
 174:./include/linux/libfdt.h **** 		| ((uint64_t)bp[5] << 16)
 175:./include/linux/libfdt.h **** 		| ((uint64_t)bp[6] << 8)
 176:./include/linux/libfdt.h **** 		| bp[7];
 177:./include/linux/libfdt.h **** }
 178:./include/linux/libfdt.h **** 
 179:./include/linux/libfdt.h **** static inline void fdt64_st(void *property, uint64_t value)
 180:./include/linux/libfdt.h **** {
 181:./include/linux/libfdt.h **** 	uint8_t *bp = (uint8_t *)property;
 182:./include/linux/libfdt.h **** 
 183:./include/linux/libfdt.h **** 	bp[0] = value >> 56;
 184:./include/linux/libfdt.h **** 	bp[1] = (value >> 48) & 0xff;
 185:./include/linux/libfdt.h **** 	bp[2] = (value >> 40) & 0xff;
 186:./include/linux/libfdt.h **** 	bp[3] = (value >> 32) & 0xff;
 187:./include/linux/libfdt.h **** 	bp[4] = (value >> 24) & 0xff;
 188:./include/linux/libfdt.h **** 	bp[5] = (value >> 16) & 0xff;
 189:./include/linux/libfdt.h **** 	bp[6] = (value >> 8) & 0xff;
 190:./include/linux/libfdt.h **** 	bp[7] = value & 0xff;
 191:./include/linux/libfdt.h **** }
 192:./include/linux/libfdt.h **** 
 193:./include/linux/libfdt.h **** /**********************************************************************/
 194:./include/linux/libfdt.h **** /* Traversal functions                                                */
 195:./include/linux/libfdt.h **** /**********************************************************************/
 196:./include/linux/libfdt.h **** 
 197:./include/linux/libfdt.h **** int fdt_next_node(const void *fdt, int offset, int *depth);
 198:./include/linux/libfdt.h **** 
 199:./include/linux/libfdt.h **** /**
 200:./include/linux/libfdt.h ****  * fdt_first_subnode() - get offset of first direct subnode
 201:./include/linux/libfdt.h ****  * @fdt:	FDT blob
 202:./include/linux/libfdt.h ****  * @offset:	Offset of node to check
 203:./include/linux/libfdt.h ****  *
 204:./include/linux/libfdt.h ****  * Return: offset of first subnode, or -FDT_ERR_NOTFOUND if there is none
 205:./include/linux/libfdt.h ****  */
 206:./include/linux/libfdt.h **** int fdt_first_subnode(const void *fdt, int offset);
 207:./include/linux/libfdt.h **** 
 208:./include/linux/libfdt.h **** /**
 209:./include/linux/libfdt.h ****  * fdt_next_subnode() - get offset of next direct subnode
 210:./include/linux/libfdt.h ****  * @fdt:	FDT blob
 211:./include/linux/libfdt.h ****  * @offset:	Offset of previous subnode
 212:./include/linux/libfdt.h ****  *
 213:./include/linux/libfdt.h ****  * After first calling fdt_first_subnode(), call this function repeatedly to
 214:./include/linux/libfdt.h ****  * get direct subnodes of a parent node.
 215:./include/linux/libfdt.h ****  *
 216:./include/linux/libfdt.h ****  * Return: offset of next subnode, or -FDT_ERR_NOTFOUND if there are no more
 217:./include/linux/libfdt.h ****  *         subnodes
 218:./include/linux/libfdt.h ****  */
 219:./include/linux/libfdt.h **** int fdt_next_subnode(const void *fdt, int offset);
 220:./include/linux/libfdt.h **** 
 221:./include/linux/libfdt.h **** /**
 222:./include/linux/libfdt.h ****  * fdt_for_each_subnode - iterate over all subnodes of a parent
ARM GAS  /tmp/cc0N4oYp.s 			page 15


 223:./include/linux/libfdt.h ****  *
 224:./include/linux/libfdt.h ****  * @node:	child node (int, lvalue)
 225:./include/linux/libfdt.h ****  * @fdt:	FDT blob (const void *)
 226:./include/linux/libfdt.h ****  * @parent:	parent node (int)
 227:./include/linux/libfdt.h ****  *
 228:./include/linux/libfdt.h ****  * This is actually a wrapper around a for loop and would be used like so:
 229:./include/linux/libfdt.h ****  *
 230:./include/linux/libfdt.h ****  *	fdt_for_each_subnode(node, fdt, parent) {
 231:./include/linux/libfdt.h ****  *		Use node
 232:./include/linux/libfdt.h ****  *		...
 233:./include/linux/libfdt.h ****  *	}
 234:./include/linux/libfdt.h ****  *
 235:./include/linux/libfdt.h ****  *	if ((node < 0) && (node != -FDT_ERR_NOTFOUND)) {
 236:./include/linux/libfdt.h ****  *		Error handling
 237:./include/linux/libfdt.h ****  *	}
 238:./include/linux/libfdt.h ****  *
 239:./include/linux/libfdt.h ****  * Note that this is implemented as a macro and @node is used as
 240:./include/linux/libfdt.h ****  * iterator in the loop. The parent variable be constant or even a
 241:./include/linux/libfdt.h ****  * literal.
 242:./include/linux/libfdt.h ****  */
 243:./include/linux/libfdt.h **** #define fdt_for_each_subnode(node, fdt, parent)		\
 244:./include/linux/libfdt.h **** 	for (node = fdt_first_subnode(fdt, parent);	\
 245:./include/linux/libfdt.h **** 	     node >= 0;					\
 246:./include/linux/libfdt.h **** 	     node = fdt_next_subnode(fdt, node))
 247:./include/linux/libfdt.h **** 
 248:./include/linux/libfdt.h **** /**********************************************************************/
 249:./include/linux/libfdt.h **** /* General functions                                                  */
 250:./include/linux/libfdt.h **** /**********************************************************************/
 251:./include/linux/libfdt.h **** #define fdt_get_header(fdt, field) \
 252:./include/linux/libfdt.h **** 	(fdt32_ld(&((const struct fdt_header *)(fdt))->field))
 253:./include/linux/libfdt.h **** #define fdt_magic(fdt)			(fdt_get_header(fdt, magic))
 254:./include/linux/libfdt.h **** #define fdt_totalsize(fdt)		(fdt_get_header(fdt, totalsize))
 255:./include/linux/libfdt.h **** #define fdt_off_dt_struct(fdt)		(fdt_get_header(fdt, off_dt_struct))
 256:./include/linux/libfdt.h **** #define fdt_off_dt_strings(fdt)		(fdt_get_header(fdt, off_dt_strings))
 257:./include/linux/libfdt.h **** #define fdt_off_mem_rsvmap(fdt)		(fdt_get_header(fdt, off_mem_rsvmap))
 258:./include/linux/libfdt.h **** #define fdt_version(fdt)		(fdt_get_header(fdt, version))
 259:./include/linux/libfdt.h **** #define fdt_last_comp_version(fdt)	(fdt_get_header(fdt, last_comp_version))
 260:./include/linux/libfdt.h **** #define fdt_boot_cpuid_phys(fdt)	(fdt_get_header(fdt, boot_cpuid_phys))
 261:./include/linux/libfdt.h **** #define fdt_size_dt_strings(fdt)	(fdt_get_header(fdt, size_dt_strings))
 262:./include/linux/libfdt.h **** #define fdt_size_dt_struct(fdt)		(fdt_get_header(fdt, size_dt_struct))
 263:./include/linux/libfdt.h **** 
 264:./include/linux/libfdt.h **** #define fdt_set_hdr_(name) \
 265:./include/linux/libfdt.h **** 	static inline void fdt_set_##name(void *fdt, uint32_t val) \
 266:./include/linux/libfdt.h **** 	{ \
 267:./include/linux/libfdt.h **** 		struct fdt_header *fdth = (struct fdt_header *)fdt; \
 268:./include/linux/libfdt.h **** 		fdth->name = cpu_to_fdt32(val); \
 269:./include/linux/libfdt.h **** 	}
 270:./include/linux/libfdt.h **** fdt_set_hdr_(magic)
 271:./include/linux/libfdt.h **** fdt_set_hdr_(totalsize)
 272:./include/linux/libfdt.h **** fdt_set_hdr_(off_dt_struct)
 273:./include/linux/libfdt.h **** fdt_set_hdr_(off_dt_strings)
 274:./include/linux/libfdt.h **** fdt_set_hdr_(off_mem_rsvmap)
 275:./include/linux/libfdt.h **** fdt_set_hdr_(version)
 276:./include/linux/libfdt.h **** fdt_set_hdr_(last_comp_version)
 277:./include/linux/libfdt.h **** fdt_set_hdr_(boot_cpuid_phys)
 278:./include/linux/libfdt.h **** fdt_set_hdr_(size_dt_strings)
 279:./include/linux/libfdt.h **** fdt_set_hdr_(size_dt_struct)
ARM GAS  /tmp/cc0N4oYp.s 			page 16


 410              		.loc 2 279 1 view .LVU139
 411              	.LBB236:
 412              		.loc 2 279 1 view .LVU140
 413              		.loc 2 279 1 view .LVU141
 414              	.LBB237:
 415              	.LBI237:
 416              		.file 3 "./include/linux/libfdt_env.h"
   1:./include/linux/libfdt_env.h **** /* SPDX-License-Identifier: (GPL-2.0-or-later OR BSD-2-Clause) */
   2:./include/linux/libfdt_env.h **** #ifndef LIBFDT_ENV_H
   3:./include/linux/libfdt_env.h **** #define LIBFDT_ENV_H
   4:./include/linux/libfdt_env.h **** /*
   5:./include/linux/libfdt_env.h ****  * libfdt - Flat Device Tree manipulation
   6:./include/linux/libfdt_env.h ****  * Copyright (C) 2006 David Gibson, IBM Corporation.
   7:./include/linux/libfdt_env.h ****  * Copyright 2012 Kim Phillips, Freescale Semiconductor.
   8:./include/linux/libfdt_env.h ****  */
   9:./include/linux/libfdt_env.h **** 
  10:./include/linux/libfdt_env.h **** #include <linux/types.h>
  11:./include/linux/libfdt_env.h **** #include <linux/stddef.h>
  12:./include/linux/libfdt_env.h **** #include <linux/string.h>
  13:./include/linux/libfdt_env.h **** #include <linux/limits.h>
  14:./include/linux/libfdt_env.h **** 
  15:./include/linux/libfdt_env.h **** 
  16:./include/linux/libfdt_env.h **** #ifdef __CHECKER__
  17:./include/linux/libfdt_env.h **** #define FDT_FORCE __attribute__((force))
  18:./include/linux/libfdt_env.h **** #define FDT_BITWISE __attribute__((bitwise))
  19:./include/linux/libfdt_env.h **** #else
  20:./include/linux/libfdt_env.h **** #define FDT_FORCE
  21:./include/linux/libfdt_env.h **** #define FDT_BITWISE
  22:./include/linux/libfdt_env.h **** #endif
  23:./include/linux/libfdt_env.h **** 
  24:./include/linux/libfdt_env.h **** typedef uint16_t FDT_BITWISE fdt16_t;
  25:./include/linux/libfdt_env.h **** typedef uint32_t FDT_BITWISE fdt32_t;
  26:./include/linux/libfdt_env.h **** typedef uint64_t FDT_BITWISE fdt64_t;
  27:./include/linux/libfdt_env.h **** 
  28:./include/linux/libfdt_env.h **** #define EXTRACT_BYTE(x, n)	((unsigned long long)((uint8_t *)&x)[n])
  29:./include/linux/libfdt_env.h **** 
  30:./include/linux/libfdt_env.h **** #define CPU_TO_FDT16(x) ((EXTRACT_BYTE(x, 0) << 8) | EXTRACT_BYTE(x, 1))
  31:./include/linux/libfdt_env.h **** #define CPU_TO_FDT32(x) ((EXTRACT_BYTE(x, 0) << 24) | (EXTRACT_BYTE(x, 1) << 16) | \
  32:./include/linux/libfdt_env.h **** 			 (EXTRACT_BYTE(x, 2) << 8) | EXTRACT_BYTE(x, 3))
  33:./include/linux/libfdt_env.h **** #define CPU_TO_FDT64(x) ((EXTRACT_BYTE(x, 0) << 56) | (EXTRACT_BYTE(x, 1) << 48) | \
  34:./include/linux/libfdt_env.h **** 			 (EXTRACT_BYTE(x, 2) << 40) | (EXTRACT_BYTE(x, 3) << 32) | \
  35:./include/linux/libfdt_env.h **** 			 (EXTRACT_BYTE(x, 4) << 24) | (EXTRACT_BYTE(x, 5) << 16) | \
  36:./include/linux/libfdt_env.h **** 			 (EXTRACT_BYTE(x, 6) << 8) | EXTRACT_BYTE(x, 7))
  37:./include/linux/libfdt_env.h **** 
  38:./include/linux/libfdt_env.h **** 
  39:./include/linux/libfdt_env.h **** // #define CPU_TO_FDT16(x) x
  40:./include/linux/libfdt_env.h **** // #define CPU_TO_FDT32(x) x
  41:./include/linux/libfdt_env.h **** // #define CPU_TO_FDT64(x) x
  42:./include/linux/libfdt_env.h **** 
  43:./include/linux/libfdt_env.h **** 
  44:./include/linux/libfdt_env.h **** static inline uint16_t fdt16_to_cpu(fdt16_t x)
  45:./include/linux/libfdt_env.h **** {
  46:./include/linux/libfdt_env.h **** 	return (FDT_FORCE uint16_t)CPU_TO_FDT16(x);
  47:./include/linux/libfdt_env.h **** }
  48:./include/linux/libfdt_env.h **** static inline fdt16_t cpu_to_fdt16(uint16_t x)
  49:./include/linux/libfdt_env.h **** {
  50:./include/linux/libfdt_env.h **** 	return (FDT_FORCE fdt16_t)CPU_TO_FDT16(x);
ARM GAS  /tmp/cc0N4oYp.s 			page 17


  51:./include/linux/libfdt_env.h **** }
  52:./include/linux/libfdt_env.h **** 
  53:./include/linux/libfdt_env.h **** static inline uint32_t fdt32_to_cpu(fdt32_t x)
  54:./include/linux/libfdt_env.h **** {
  55:./include/linux/libfdt_env.h **** 	return (FDT_FORCE uint32_t)CPU_TO_FDT32(x);
  56:./include/linux/libfdt_env.h **** }
  57:./include/linux/libfdt_env.h **** static inline fdt32_t cpu_to_fdt32(uint32_t x)
 417              		.loc 3 57 23 view .LVU142
 418              	.LBB238:
  58:./include/linux/libfdt_env.h **** {
  59:./include/linux/libfdt_env.h **** 	return (FDT_FORCE fdt32_t)CPU_TO_FDT32(x);
 419              		.loc 3 59 2 view .LVU143
 420              		.loc 3 59 28 is_stmt 0 view .LVU144
 421 007a C1F30723 		ubfx	r3, r1, #8, #8
 422              	.LVL31:
 423              		.loc 3 59 28 view .LVU145
 424 007e 1B04     		lsls	r3, r3, #16
 425 0080 43EA0163 		orr	r3, r3, r1, lsl #24
 426 0084 C1F30744 		ubfx	r4, r1, #16, #8
 427 0088 43EA0423 		orr	r3, r3, r4, lsl #8
 428              		.loc 3 59 9 view .LVU146
 429 008c 43EA1163 		orr	r3, r3, r1, lsr #24
 430              	.LVL32:
 431              		.loc 3 59 9 view .LVU147
 432              	.LBE238:
 433              	.LBE237:
 434              		.loc 2 279 1 discriminator 1 view .LVU148
 435 0090 4362     		str	r3, [r0, #36]
 436              	.LVL33:
 437              		.loc 2 279 1 discriminator 1 view .LVU149
 438              	.LBE236:
 439              	.LBE235:
 107:./lib/fdt/fdt_sw.c **** 	return fdt_offset_ptr_w_(fdt, offset);
 440              		.loc 1 107 2 is_stmt 1 view .LVU150
 441              	.LBB239:
 442              	.LBI239:
 443              		.file 4 "./lib/fdt/libfdt_internal.h"
   1:./lib/fdt/libfdt_internal.h **** /* SPDX-License-Identifier: (GPL-2.0-or-later OR BSD-2-Clause) */
   2:./lib/fdt/libfdt_internal.h **** #ifndef LIBFDT_INTERNAL_H
   3:./lib/fdt/libfdt_internal.h **** #define LIBFDT_INTERNAL_H
   4:./lib/fdt/libfdt_internal.h **** /*
   5:./lib/fdt/libfdt_internal.h ****  * libfdt - Flat Device Tree manipulation
   6:./lib/fdt/libfdt_internal.h ****  * Copyright (C) 2006 David Gibson, IBM Corporation.
   7:./lib/fdt/libfdt_internal.h ****  */
   8:./lib/fdt/libfdt_internal.h **** #include <linux/fdt.h>
   9:./lib/fdt/libfdt_internal.h **** #include <linux/string.h>
  10:./lib/fdt/libfdt_internal.h **** 
  11:./lib/fdt/libfdt_internal.h **** #define FDT_ALIGN(x, a)		(((x) + (a) - 1) & ~((a) - 1))
  12:./lib/fdt/libfdt_internal.h **** #define FDT_TAGALIGN(x)		(FDT_ALIGN((x), FDT_TAGSIZE))
  13:./lib/fdt/libfdt_internal.h **** 
  14:./lib/fdt/libfdt_internal.h **** int32_t fdt_ro_probe_(const void *fdt);
  15:./lib/fdt/libfdt_internal.h **** #define FDT_RO_PROBE(fdt)					\
  16:./lib/fdt/libfdt_internal.h **** 	{							\
  17:./lib/fdt/libfdt_internal.h **** 		int32_t totalsize_;				\
  18:./lib/fdt/libfdt_internal.h **** 		if ((totalsize_ = fdt_ro_probe_(fdt)) < 0)	\
  19:./lib/fdt/libfdt_internal.h **** 			return totalsize_;			\
  20:./lib/fdt/libfdt_internal.h **** 	}
ARM GAS  /tmp/cc0N4oYp.s 			page 18


  21:./lib/fdt/libfdt_internal.h **** 
  22:./lib/fdt/libfdt_internal.h **** int fdt_check_node_offset_(const void *fdt, int offset);
  23:./lib/fdt/libfdt_internal.h **** int fdt_check_prop_offset_(const void *fdt, int offset);
  24:./lib/fdt/libfdt_internal.h **** 
  25:./lib/fdt/libfdt_internal.h **** const char *fdt_find_string_len_(const char *strtab, int tabsize, const char *s,
  26:./lib/fdt/libfdt_internal.h **** 				 int s_len);
  27:./lib/fdt/libfdt_internal.h **** static inline const char *fdt_find_string_(const char *strtab, int tabsize,
  28:./lib/fdt/libfdt_internal.h **** 					   const char *s)
  29:./lib/fdt/libfdt_internal.h **** {
  30:./lib/fdt/libfdt_internal.h **** 	return fdt_find_string_len_(strtab, tabsize, s, strlen(s));
  31:./lib/fdt/libfdt_internal.h **** }
  32:./lib/fdt/libfdt_internal.h **** 
  33:./lib/fdt/libfdt_internal.h **** int fdt_node_end_offset_(void *fdt, int nodeoffset);
  34:./lib/fdt/libfdt_internal.h **** 
  35:./lib/fdt/libfdt_internal.h **** static inline const void *fdt_offset_ptr_(const void *fdt, int offset)
  36:./lib/fdt/libfdt_internal.h **** {
  37:./lib/fdt/libfdt_internal.h **** 	return (const char *)fdt + fdt_off_dt_struct(fdt) + offset;
  38:./lib/fdt/libfdt_internal.h **** }
  39:./lib/fdt/libfdt_internal.h **** 
  40:./lib/fdt/libfdt_internal.h **** static inline void *fdt_offset_ptr_w_(void *fdt, int offset)
 444              		.loc 4 40 21 view .LVU151
  41:./lib/fdt/libfdt_internal.h **** {
  42:./lib/fdt/libfdt_internal.h **** 	return (void *)(uintptr_t)fdt_offset_ptr_(fdt, offset);
 445              		.loc 4 42 2 view .LVU152
 446              	.LBB240:
 447              	.LBI240:
  35:./lib/fdt/libfdt_internal.h **** {
 448              		.loc 4 35 27 view .LVU153
 449              	.LBB241:
  37:./lib/fdt/libfdt_internal.h **** }
 450              		.loc 4 37 2 view .LVU154
  37:./lib/fdt/libfdt_internal.h **** }
 451              		.loc 4 37 52 is_stmt 0 discriminator 1 view .LVU155
 452 0092 6244     		add	r2, r2, ip
 453              	.LVL34:
  37:./lib/fdt/libfdt_internal.h **** }
 454              		.loc 4 37 52 discriminator 1 view .LVU156
 455 0094 1044     		add	r0, r0, r2
 456              	.LVL35:
 457              	.L17:
  37:./lib/fdt/libfdt_internal.h **** }
 458              		.loc 4 37 52 discriminator 1 view .LVU157
 459              	.LBE241:
 460              	.LBE240:
 461              	.LBE239:
 108:./lib/fdt/fdt_sw.c **** }
 462              		.loc 1 108 1 view .LVU158
 463 0096 10BD     		pop	{r4, pc}
 464              	.LVL36:
 465              	.L19:
 104:./lib/fdt/fdt_sw.c **** 
 466              		.loc 1 104 10 view .LVU159
 467 0098 0020     		movs	r0, #0
 468              	.LVL37:
 104:./lib/fdt/fdt_sw.c **** 
 469              		.loc 1 104 10 view .LVU160
 470 009a FCE7     		b	.L17
ARM GAS  /tmp/cc0N4oYp.s 			page 19


 471              	.LVL38:
 472              	.L20:
 104:./lib/fdt/fdt_sw.c **** 
 473              		.loc 1 104 10 view .LVU161
 474 009c 0020     		movs	r0, #0
 475              	.LVL39:
 104:./lib/fdt/fdt_sw.c **** 
 476              		.loc 1 104 10 view .LVU162
 477 009e FAE7     		b	.L17
 478              		.cfi_endproc
 479              	.LFE79:
 481              		.section	.text.fdt_del_last_string_,"ax",%progbits
 482              		.align	1
 483              		.syntax unified
 484              		.thumb
 485              		.thumb_func
 487              	fdt_del_last_string_:
 488              	.LVL40:
 489              	.LFB88:
 109:./lib/fdt/fdt_sw.c **** 
 110:./lib/fdt/fdt_sw.c **** int fdt_create_with_flags(void *buf, int bufsize, uint32_t flags)
 111:./lib/fdt/fdt_sw.c **** {
 112:./lib/fdt/fdt_sw.c **** 	const int hdrsize = FDT_ALIGN(sizeof(struct fdt_header),
 113:./lib/fdt/fdt_sw.c **** 				      sizeof(struct fdt_reserve_entry));
 114:./lib/fdt/fdt_sw.c **** 	void *fdt = buf;
 115:./lib/fdt/fdt_sw.c **** 
 116:./lib/fdt/fdt_sw.c **** 	if (bufsize < hdrsize)
 117:./lib/fdt/fdt_sw.c **** 		return -FDT_ERR_NOSPACE;
 118:./lib/fdt/fdt_sw.c **** 
 119:./lib/fdt/fdt_sw.c **** 	if (flags & ~FDT_CREATE_FLAGS_ALL)
 120:./lib/fdt/fdt_sw.c **** 		return -FDT_ERR_BADFLAGS;
 121:./lib/fdt/fdt_sw.c **** 
 122:./lib/fdt/fdt_sw.c **** 	memset(buf, 0, bufsize);
 123:./lib/fdt/fdt_sw.c **** 
 124:./lib/fdt/fdt_sw.c **** 	/*
 125:./lib/fdt/fdt_sw.c **** 	 * magic and last_comp_version keep intermediate state during the fdt
 126:./lib/fdt/fdt_sw.c **** 	 * creation process, which is replaced with the proper FDT format by
 127:./lib/fdt/fdt_sw.c **** 	 * fdt_finish().
 128:./lib/fdt/fdt_sw.c **** 	 *
 129:./lib/fdt/fdt_sw.c **** 	 * flags should be accessed with sw_flags().
 130:./lib/fdt/fdt_sw.c **** 	 */
 131:./lib/fdt/fdt_sw.c **** 	fdt_set_magic(fdt, FDT_SW_MAGIC);
 132:./lib/fdt/fdt_sw.c **** 	fdt_set_version(fdt, FDT_LAST_SUPPORTED_VERSION);
 133:./lib/fdt/fdt_sw.c **** 	fdt_set_last_comp_version(fdt, flags);
 134:./lib/fdt/fdt_sw.c **** 
 135:./lib/fdt/fdt_sw.c **** 	fdt_set_totalsize(fdt,  bufsize);
 136:./lib/fdt/fdt_sw.c **** 
 137:./lib/fdt/fdt_sw.c **** 	fdt_set_off_mem_rsvmap(fdt, hdrsize);
 138:./lib/fdt/fdt_sw.c **** 	fdt_set_off_dt_struct(fdt, fdt_off_mem_rsvmap(fdt));
 139:./lib/fdt/fdt_sw.c **** 	fdt_set_off_dt_strings(fdt, 0);
 140:./lib/fdt/fdt_sw.c **** 
 141:./lib/fdt/fdt_sw.c **** 	return 0;
 142:./lib/fdt/fdt_sw.c **** }
 143:./lib/fdt/fdt_sw.c **** 
 144:./lib/fdt/fdt_sw.c **** int fdt_create(void *buf, int bufsize)
 145:./lib/fdt/fdt_sw.c **** {
 146:./lib/fdt/fdt_sw.c **** 	return fdt_create_with_flags(buf, bufsize, 0);
ARM GAS  /tmp/cc0N4oYp.s 			page 20


 147:./lib/fdt/fdt_sw.c **** }
 148:./lib/fdt/fdt_sw.c **** 
 149:./lib/fdt/fdt_sw.c **** int fdt_resize(void *fdt, void *buf, int bufsize)
 150:./lib/fdt/fdt_sw.c **** {
 151:./lib/fdt/fdt_sw.c **** 	size_t headsize, tailsize;
 152:./lib/fdt/fdt_sw.c **** 	char *oldtail, *newtail;
 153:./lib/fdt/fdt_sw.c **** 
 154:./lib/fdt/fdt_sw.c **** 	FDT_SW_PROBE(fdt);
 155:./lib/fdt/fdt_sw.c **** 
 156:./lib/fdt/fdt_sw.c **** 	if (bufsize < 0)
 157:./lib/fdt/fdt_sw.c **** 		return -FDT_ERR_NOSPACE;
 158:./lib/fdt/fdt_sw.c **** 
 159:./lib/fdt/fdt_sw.c **** 	headsize = fdt_off_dt_struct(fdt) + fdt_size_dt_struct(fdt);
 160:./lib/fdt/fdt_sw.c **** 	tailsize = fdt_size_dt_strings(fdt);
 161:./lib/fdt/fdt_sw.c **** 
 162:./lib/fdt/fdt_sw.c **** 	if (!can_assume(VALID_DTB) &&
 163:./lib/fdt/fdt_sw.c **** 	    headsize + tailsize > fdt_totalsize(fdt))
 164:./lib/fdt/fdt_sw.c **** 		return -FDT_ERR_INTERNAL;
 165:./lib/fdt/fdt_sw.c **** 
 166:./lib/fdt/fdt_sw.c **** 	if ((headsize + tailsize) > (unsigned)bufsize)
 167:./lib/fdt/fdt_sw.c **** 		return -FDT_ERR_NOSPACE;
 168:./lib/fdt/fdt_sw.c **** 
 169:./lib/fdt/fdt_sw.c **** 	oldtail = (char *)fdt + fdt_totalsize(fdt) - tailsize;
 170:./lib/fdt/fdt_sw.c **** 	newtail = (char *)buf + bufsize - tailsize;
 171:./lib/fdt/fdt_sw.c **** 
 172:./lib/fdt/fdt_sw.c **** 	/* Two cases to avoid clobbering data if the old and new
 173:./lib/fdt/fdt_sw.c **** 	 * buffers partially overlap */
 174:./lib/fdt/fdt_sw.c **** 	if (buf <= fdt) {
 175:./lib/fdt/fdt_sw.c **** 		memmove(buf, fdt, headsize);
 176:./lib/fdt/fdt_sw.c **** 		memmove(newtail, oldtail, tailsize);
 177:./lib/fdt/fdt_sw.c **** 	} else {
 178:./lib/fdt/fdt_sw.c **** 		memmove(newtail, oldtail, tailsize);
 179:./lib/fdt/fdt_sw.c **** 		memmove(buf, fdt, headsize);
 180:./lib/fdt/fdt_sw.c **** 	}
 181:./lib/fdt/fdt_sw.c **** 
 182:./lib/fdt/fdt_sw.c **** 	fdt_set_totalsize(buf, bufsize);
 183:./lib/fdt/fdt_sw.c **** 	if (fdt_off_dt_strings(buf))
 184:./lib/fdt/fdt_sw.c **** 		fdt_set_off_dt_strings(buf, bufsize);
 185:./lib/fdt/fdt_sw.c **** 
 186:./lib/fdt/fdt_sw.c **** 	return 0;
 187:./lib/fdt/fdt_sw.c **** }
 188:./lib/fdt/fdt_sw.c **** 
 189:./lib/fdt/fdt_sw.c **** int fdt_add_reservemap_entry(void *fdt, uint64_t addr, uint64_t size)
 190:./lib/fdt/fdt_sw.c **** {
 191:./lib/fdt/fdt_sw.c **** 	struct fdt_reserve_entry *re;
 192:./lib/fdt/fdt_sw.c **** 	int offset;
 193:./lib/fdt/fdt_sw.c **** 
 194:./lib/fdt/fdt_sw.c **** 	FDT_SW_PROBE_MEMRSV(fdt);
 195:./lib/fdt/fdt_sw.c **** 
 196:./lib/fdt/fdt_sw.c **** 	offset = fdt_off_dt_struct(fdt);
 197:./lib/fdt/fdt_sw.c **** 	if ((offset + sizeof(*re)) > fdt_totalsize(fdt))
 198:./lib/fdt/fdt_sw.c **** 		return -FDT_ERR_NOSPACE;
 199:./lib/fdt/fdt_sw.c **** 
 200:./lib/fdt/fdt_sw.c **** 	re = (struct fdt_reserve_entry *)((char *)fdt + offset);
 201:./lib/fdt/fdt_sw.c **** 	re->address = cpu_to_fdt64(addr);
 202:./lib/fdt/fdt_sw.c **** 	re->size = cpu_to_fdt64(size);
 203:./lib/fdt/fdt_sw.c **** 
ARM GAS  /tmp/cc0N4oYp.s 			page 21


 204:./lib/fdt/fdt_sw.c **** 	fdt_set_off_dt_struct(fdt, offset + sizeof(*re));
 205:./lib/fdt/fdt_sw.c **** 
 206:./lib/fdt/fdt_sw.c **** 	return 0;
 207:./lib/fdt/fdt_sw.c **** }
 208:./lib/fdt/fdt_sw.c **** 
 209:./lib/fdt/fdt_sw.c **** int fdt_finish_reservemap(void *fdt)
 210:./lib/fdt/fdt_sw.c **** {
 211:./lib/fdt/fdt_sw.c **** 	int err = fdt_add_reservemap_entry(fdt, 0, 0);
 212:./lib/fdt/fdt_sw.c **** 
 213:./lib/fdt/fdt_sw.c **** 	if (err)
 214:./lib/fdt/fdt_sw.c **** 		return err;
 215:./lib/fdt/fdt_sw.c **** 
 216:./lib/fdt/fdt_sw.c **** 	fdt_set_off_dt_strings(fdt, fdt_totalsize(fdt));
 217:./lib/fdt/fdt_sw.c **** 	return 0;
 218:./lib/fdt/fdt_sw.c **** }
 219:./lib/fdt/fdt_sw.c **** 
 220:./lib/fdt/fdt_sw.c **** int fdt_begin_node(void *fdt, const char *name)
 221:./lib/fdt/fdt_sw.c **** {
 222:./lib/fdt/fdt_sw.c **** 	struct fdt_node_header *nh;
 223:./lib/fdt/fdt_sw.c **** 	int namelen;
 224:./lib/fdt/fdt_sw.c **** 
 225:./lib/fdt/fdt_sw.c **** 	FDT_SW_PROBE_STRUCT(fdt);
 226:./lib/fdt/fdt_sw.c **** 
 227:./lib/fdt/fdt_sw.c **** 	namelen = strlen(name) + 1;
 228:./lib/fdt/fdt_sw.c **** 	nh = fdt_grab_space_(fdt, sizeof(*nh) + FDT_TAGALIGN(namelen));
 229:./lib/fdt/fdt_sw.c **** 	if (! nh)
 230:./lib/fdt/fdt_sw.c **** 		return -FDT_ERR_NOSPACE;
 231:./lib/fdt/fdt_sw.c **** 
 232:./lib/fdt/fdt_sw.c **** 	nh->tag = cpu_to_fdt32(FDT_BEGIN_NODE);
 233:./lib/fdt/fdt_sw.c **** 	memcpy(nh->name, name, namelen);
 234:./lib/fdt/fdt_sw.c **** 	return 0;
 235:./lib/fdt/fdt_sw.c **** }
 236:./lib/fdt/fdt_sw.c **** 
 237:./lib/fdt/fdt_sw.c **** int fdt_end_node(void *fdt)
 238:./lib/fdt/fdt_sw.c **** {
 239:./lib/fdt/fdt_sw.c **** 	fdt32_t *en;
 240:./lib/fdt/fdt_sw.c **** 
 241:./lib/fdt/fdt_sw.c **** 	FDT_SW_PROBE_STRUCT(fdt);
 242:./lib/fdt/fdt_sw.c **** 
 243:./lib/fdt/fdt_sw.c **** 	en = fdt_grab_space_(fdt, FDT_TAGSIZE);
 244:./lib/fdt/fdt_sw.c **** 	if (! en)
 245:./lib/fdt/fdt_sw.c **** 		return -FDT_ERR_NOSPACE;
 246:./lib/fdt/fdt_sw.c **** 
 247:./lib/fdt/fdt_sw.c **** 	*en = cpu_to_fdt32(FDT_END_NODE);
 248:./lib/fdt/fdt_sw.c **** 	return 0;
 249:./lib/fdt/fdt_sw.c **** }
 250:./lib/fdt/fdt_sw.c **** 
 251:./lib/fdt/fdt_sw.c **** static int fdt_add_string_(void *fdt, const char *s)
 252:./lib/fdt/fdt_sw.c **** {
 253:./lib/fdt/fdt_sw.c **** 	char *strtab = (char *)fdt + fdt_totalsize(fdt);
 254:./lib/fdt/fdt_sw.c **** 	unsigned int strtabsize = fdt_size_dt_strings(fdt);
 255:./lib/fdt/fdt_sw.c **** 	unsigned int len = strlen(s) + 1;
 256:./lib/fdt/fdt_sw.c **** 	unsigned int struct_top, offset;
 257:./lib/fdt/fdt_sw.c **** 
 258:./lib/fdt/fdt_sw.c **** 	offset = strtabsize + len;
 259:./lib/fdt/fdt_sw.c **** 	struct_top = fdt_off_dt_struct(fdt) + fdt_size_dt_struct(fdt);
 260:./lib/fdt/fdt_sw.c **** 	if (fdt_totalsize(fdt) - offset < struct_top)
ARM GAS  /tmp/cc0N4oYp.s 			page 22


 261:./lib/fdt/fdt_sw.c **** 		return 0; /* no more room :( */
 262:./lib/fdt/fdt_sw.c **** 
 263:./lib/fdt/fdt_sw.c **** 	memcpy(strtab - offset, s, len);
 264:./lib/fdt/fdt_sw.c **** 	fdt_set_size_dt_strings(fdt, strtabsize + len);
 265:./lib/fdt/fdt_sw.c **** 	return -offset;
 266:./lib/fdt/fdt_sw.c **** }
 267:./lib/fdt/fdt_sw.c **** 
 268:./lib/fdt/fdt_sw.c **** /* Must only be used to roll back in case of error */
 269:./lib/fdt/fdt_sw.c **** static void fdt_del_last_string_(void *fdt, const char *s)
 270:./lib/fdt/fdt_sw.c **** {
 490              		.loc 1 270 1 is_stmt 1 view -0
 491              		.cfi_startproc
 492              		@ args = 0, pretend = 0, frame = 0
 493              		@ frame_needed = 0, uses_anonymous_args = 0
 494              		.loc 1 270 1 is_stmt 0 view .LVU164
 495 0000 38B5     		push	{r3, r4, r5, lr}
 496              	.LCFI3:
 497              		.cfi_def_cfa_offset 16
 498              		.cfi_offset 3, -16
 499              		.cfi_offset 4, -12
 500              		.cfi_offset 5, -8
 501              		.cfi_offset 14, -4
 502 0002 0546     		mov	r5, r0
 271:./lib/fdt/fdt_sw.c **** 	int strtabsize = fdt_size_dt_strings(fdt);
 503              		.loc 1 271 2 is_stmt 1 view .LVU165
 504              	.LVL41:
 505              	.LBB242:
 506              	.LBI242:
 145:./include/linux/libfdt.h **** {
 507              		.loc 2 145 24 view .LVU166
 508              	.LBB243:
 147:./include/linux/libfdt.h **** 
 509              		.loc 2 147 2 view .LVU167
 149:./include/linux/libfdt.h **** 		| ((uint32_t)bp[1] << 16)
 510              		.loc 2 149 2 view .LVU168
 149:./include/linux/libfdt.h **** 		| ((uint32_t)bp[1] << 16)
 511              		.loc 2 149 22 is_stmt 0 view .LVU169
 512 0004 90F82020 		ldrb	r2, [r0, #32]	@ zero_extendqisi2
 150:./include/linux/libfdt.h **** 		| ((uint32_t)bp[2] << 8)
 513              		.loc 2 150 18 view .LVU170
 514 0008 90F82130 		ldrb	r3, [r0, #33]	@ zero_extendqisi2
 150:./include/linux/libfdt.h **** 		| ((uint32_t)bp[2] << 8)
 515              		.loc 2 150 22 view .LVU171
 516 000c 1B04     		lsls	r3, r3, #16
 150:./include/linux/libfdt.h **** 		| ((uint32_t)bp[2] << 8)
 517              		.loc 2 150 3 view .LVU172
 518 000e 43EA0263 		orr	r3, r3, r2, lsl #24
 151:./include/linux/libfdt.h **** 		| bp[3];
 519              		.loc 2 151 18 view .LVU173
 520 0012 90F82220 		ldrb	r2, [r0, #34]	@ zero_extendqisi2
 151:./include/linux/libfdt.h **** 		| bp[3];
 521              		.loc 2 151 3 view .LVU174
 522 0016 43EA0223 		orr	r3, r3, r2, lsl #8
 152:./include/linux/libfdt.h **** }
 523              		.loc 2 152 7 view .LVU175
 524 001a 90F82320 		ldrb	r2, [r0, #35]	@ zero_extendqisi2
 152:./include/linux/libfdt.h **** }
ARM GAS  /tmp/cc0N4oYp.s 			page 23


 525              		.loc 2 152 3 view .LVU176
 526 001e 43EA0204 		orr	r4, r3, r2
 527              	.LVL42:
 152:./include/linux/libfdt.h **** }
 528              		.loc 2 152 3 view .LVU177
 529              	.LBE243:
 530              	.LBE242:
 272:./lib/fdt/fdt_sw.c **** 	int len = strlen(s) + 1;
 531              		.loc 1 272 2 is_stmt 1 view .LVU178
 532              		.loc 1 272 12 is_stmt 0 view .LVU179
 533 0022 0846     		mov	r0, r1
 534              	.LVL43:
 535              		.loc 1 272 12 view .LVU180
 536 0024 FFF7FEFF 		bl	strlen
 537              	.LVL44:
 538              		.loc 1 272 22 discriminator 1 view .LVU181
 539 0028 0130     		adds	r0, r0, #1
 540              	.LVL45:
 273:./lib/fdt/fdt_sw.c **** 
 274:./lib/fdt/fdt_sw.c **** 	fdt_set_size_dt_strings(fdt, strtabsize - len);
 541              		.loc 1 274 2 is_stmt 1 view .LVU182
 542              		.loc 1 274 42 is_stmt 0 view .LVU183
 543 002a 231A     		subs	r3, r4, r0
 544              	.LVL46:
 545              	.LBB244:
 546              	.LBI244:
 278:./include/linux/libfdt.h **** fdt_set_hdr_(size_dt_struct)
 547              		.loc 2 278 1 is_stmt 1 view .LVU184
 548              	.LBB245:
 278:./include/linux/libfdt.h **** fdt_set_hdr_(size_dt_struct)
 549              		.loc 2 278 1 view .LVU185
 278:./include/linux/libfdt.h **** fdt_set_hdr_(size_dt_struct)
 550              		.loc 2 278 1 view .LVU186
 551              	.LBB246:
 552              	.LBI246:
  57:./include/linux/libfdt_env.h **** {
 553              		.loc 3 57 23 view .LVU187
 554              	.LBB247:
 555              		.loc 3 59 2 view .LVU188
 556              		.loc 3 59 28 is_stmt 0 view .LVU189
 557 002c C3F30722 		ubfx	r2, r3, #8, #8
 558 0030 1204     		lsls	r2, r2, #16
 559 0032 42EA0362 		orr	r2, r2, r3, lsl #24
 560 0036 C3F30741 		ubfx	r1, r3, #16, #8
 561 003a 42EA0122 		orr	r2, r2, r1, lsl #8
 562              		.loc 3 59 9 view .LVU190
 563 003e 42EA1363 		orr	r3, r2, r3, lsr #24
 564              	.LVL47:
 565              		.loc 3 59 9 view .LVU191
 566              	.LBE247:
 567              	.LBE246:
 278:./include/linux/libfdt.h **** fdt_set_hdr_(size_dt_struct)
 568              		.loc 2 278 1 discriminator 1 view .LVU192
 569 0042 2B62     		str	r3, [r5, #32]
 570              	.LVL48:
 278:./include/linux/libfdt.h **** fdt_set_hdr_(size_dt_struct)
 571              		.loc 2 278 1 discriminator 1 view .LVU193
ARM GAS  /tmp/cc0N4oYp.s 			page 24


 572              	.LBE245:
 573              	.LBE244:
 275:./lib/fdt/fdt_sw.c **** }
 574              		.loc 1 275 1 view .LVU194
 575 0044 38BD     		pop	{r3, r4, r5, pc}
 576              		.loc 1 275 1 view .LVU195
 577              		.cfi_endproc
 578              	.LFE88:
 580              		.section	.text.fdt_add_string_,"ax",%progbits
 581              		.align	1
 582              		.syntax unified
 583              		.thumb
 584              		.thumb_func
 586              	fdt_add_string_:
 587              	.LVL49:
 588              	.LFB87:
 252:./lib/fdt/fdt_sw.c **** 	char *strtab = (char *)fdt + fdt_totalsize(fdt);
 589              		.loc 1 252 1 is_stmt 1 view -0
 590              		.cfi_startproc
 591              		@ args = 0, pretend = 0, frame = 0
 592              		@ frame_needed = 0, uses_anonymous_args = 0
 252:./lib/fdt/fdt_sw.c **** 	char *strtab = (char *)fdt + fdt_totalsize(fdt);
 593              		.loc 1 252 1 is_stmt 0 view .LVU197
 594 0000 F8B5     		push	{r3, r4, r5, r6, r7, lr}
 595              	.LCFI4:
 596              		.cfi_def_cfa_offset 24
 597              		.cfi_offset 3, -24
 598              		.cfi_offset 4, -20
 599              		.cfi_offset 5, -16
 600              		.cfi_offset 6, -12
 601              		.cfi_offset 7, -8
 602              		.cfi_offset 14, -4
 603 0002 0446     		mov	r4, r0
 604 0004 0F46     		mov	r7, r1
 253:./lib/fdt/fdt_sw.c **** 	unsigned int strtabsize = fdt_size_dt_strings(fdt);
 605              		.loc 1 253 2 is_stmt 1 view .LVU198
 606              	.LVL50:
 607              	.LBB248:
 608              	.LBI248:
 145:./include/linux/libfdt.h **** {
 609              		.loc 2 145 24 view .LVU199
 610              	.LBB249:
 147:./include/linux/libfdt.h **** 
 611              		.loc 2 147 2 view .LVU200
 149:./include/linux/libfdt.h **** 		| ((uint32_t)bp[1] << 16)
 612              		.loc 2 149 2 view .LVU201
 149:./include/linux/libfdt.h **** 		| ((uint32_t)bp[1] << 16)
 613              		.loc 2 149 22 is_stmt 0 view .LVU202
 614 0006 0379     		ldrb	r3, [r0, #4]	@ zero_extendqisi2
 150:./include/linux/libfdt.h **** 		| ((uint32_t)bp[2] << 8)
 615              		.loc 2 150 18 view .LVU203
 616 0008 4679     		ldrb	r6, [r0, #5]	@ zero_extendqisi2
 150:./include/linux/libfdt.h **** 		| ((uint32_t)bp[2] << 8)
 617              		.loc 2 150 22 view .LVU204
 618 000a 3604     		lsls	r6, r6, #16
 150:./include/linux/libfdt.h **** 		| ((uint32_t)bp[2] << 8)
 619              		.loc 2 150 3 view .LVU205
ARM GAS  /tmp/cc0N4oYp.s 			page 25


 620 000c 46EA0366 		orr	r6, r6, r3, lsl #24
 151:./include/linux/libfdt.h **** 		| bp[3];
 621              		.loc 2 151 18 view .LVU206
 622 0010 8379     		ldrb	r3, [r0, #6]	@ zero_extendqisi2
 151:./include/linux/libfdt.h **** 		| bp[3];
 623              		.loc 2 151 3 view .LVU207
 624 0012 46EA0326 		orr	r6, r6, r3, lsl #8
 152:./include/linux/libfdt.h **** }
 625              		.loc 2 152 7 view .LVU208
 626 0016 C379     		ldrb	r3, [r0, #7]	@ zero_extendqisi2
 152:./include/linux/libfdt.h **** }
 627              		.loc 2 152 3 view .LVU209
 628 0018 1E43     		orrs	r6, r6, r3
 629              	.LVL51:
 152:./include/linux/libfdt.h **** }
 630              		.loc 2 152 3 view .LVU210
 631              	.LBE249:
 632              	.LBE248:
 254:./lib/fdt/fdt_sw.c **** 	unsigned int len = strlen(s) + 1;
 633              		.loc 1 254 2 is_stmt 1 view .LVU211
 634              	.LBB250:
 635              	.LBI250:
 145:./include/linux/libfdt.h **** {
 636              		.loc 2 145 24 view .LVU212
 637              	.LBB251:
 147:./include/linux/libfdt.h **** 
 638              		.loc 2 147 2 view .LVU213
 149:./include/linux/libfdt.h **** 		| ((uint32_t)bp[1] << 16)
 639              		.loc 2 149 2 view .LVU214
 149:./include/linux/libfdt.h **** 		| ((uint32_t)bp[1] << 16)
 640              		.loc 2 149 22 is_stmt 0 view .LVU215
 641 001a 90F82030 		ldrb	r3, [r0, #32]	@ zero_extendqisi2
 150:./include/linux/libfdt.h **** 		| ((uint32_t)bp[2] << 8)
 642              		.loc 2 150 18 view .LVU216
 643 001e 90F82150 		ldrb	r5, [r0, #33]	@ zero_extendqisi2
 150:./include/linux/libfdt.h **** 		| ((uint32_t)bp[2] << 8)
 644              		.loc 2 150 22 view .LVU217
 645 0022 2D04     		lsls	r5, r5, #16
 150:./include/linux/libfdt.h **** 		| ((uint32_t)bp[2] << 8)
 646              		.loc 2 150 3 view .LVU218
 647 0024 45EA0365 		orr	r5, r5, r3, lsl #24
 151:./include/linux/libfdt.h **** 		| bp[3];
 648              		.loc 2 151 18 view .LVU219
 649 0028 90F82230 		ldrb	r3, [r0, #34]	@ zero_extendqisi2
 151:./include/linux/libfdt.h **** 		| bp[3];
 650              		.loc 2 151 3 view .LVU220
 651 002c 45EA0325 		orr	r5, r5, r3, lsl #8
 152:./include/linux/libfdt.h **** }
 652              		.loc 2 152 7 view .LVU221
 653 0030 90F82330 		ldrb	r3, [r0, #35]	@ zero_extendqisi2
 152:./include/linux/libfdt.h **** }
 654              		.loc 2 152 3 view .LVU222
 655 0034 1D43     		orrs	r5, r5, r3
 656              	.LVL52:
 152:./include/linux/libfdt.h **** }
 657              		.loc 2 152 3 view .LVU223
 658              	.LBE251:
ARM GAS  /tmp/cc0N4oYp.s 			page 26


 659              	.LBE250:
 255:./lib/fdt/fdt_sw.c **** 	unsigned int struct_top, offset;
 660              		.loc 1 255 2 is_stmt 1 view .LVU224
 255:./lib/fdt/fdt_sw.c **** 	unsigned int struct_top, offset;
 661              		.loc 1 255 21 is_stmt 0 view .LVU225
 662 0036 0846     		mov	r0, r1
 663              	.LVL53:
 255:./lib/fdt/fdt_sw.c **** 	unsigned int struct_top, offset;
 664              		.loc 1 255 21 view .LVU226
 665 0038 FFF7FEFF 		bl	strlen
 666              	.LVL54:
 255:./lib/fdt/fdt_sw.c **** 	unsigned int struct_top, offset;
 667              		.loc 1 255 15 discriminator 1 view .LVU227
 668 003c 421C     		adds	r2, r0, #1
 669              	.LVL55:
 256:./lib/fdt/fdt_sw.c **** 
 670              		.loc 1 256 2 is_stmt 1 view .LVU228
 258:./lib/fdt/fdt_sw.c **** 	struct_top = fdt_off_dt_struct(fdt) + fdt_size_dt_struct(fdt);
 671              		.loc 1 258 2 view .LVU229
 258:./lib/fdt/fdt_sw.c **** 	struct_top = fdt_off_dt_struct(fdt) + fdt_size_dt_struct(fdt);
 672              		.loc 1 258 9 is_stmt 0 view .LVU230
 673 003e 1544     		add	r5, r5, r2
 674              	.LVL56:
 259:./lib/fdt/fdt_sw.c **** 	if (fdt_totalsize(fdt) - offset < struct_top)
 675              		.loc 1 259 2 is_stmt 1 view .LVU231
 676              	.LBB252:
 677              	.LBI252:
 145:./include/linux/libfdt.h **** {
 678              		.loc 2 145 24 view .LVU232
 679              	.LBB253:
 147:./include/linux/libfdt.h **** 
 680              		.loc 2 147 2 view .LVU233
 149:./include/linux/libfdt.h **** 		| ((uint32_t)bp[1] << 16)
 681              		.loc 2 149 2 view .LVU234
 149:./include/linux/libfdt.h **** 		| ((uint32_t)bp[1] << 16)
 682              		.loc 2 149 22 is_stmt 0 view .LVU235
 683 0040 237A     		ldrb	r3, [r4, #8]	@ zero_extendqisi2
 150:./include/linux/libfdt.h **** 		| ((uint32_t)bp[2] << 8)
 684              		.loc 2 150 18 view .LVU236
 685 0042 617A     		ldrb	r1, [r4, #9]	@ zero_extendqisi2
 150:./include/linux/libfdt.h **** 		| ((uint32_t)bp[2] << 8)
 686              		.loc 2 150 22 view .LVU237
 687 0044 0904     		lsls	r1, r1, #16
 150:./include/linux/libfdt.h **** 		| ((uint32_t)bp[2] << 8)
 688              		.loc 2 150 3 view .LVU238
 689 0046 41EA0361 		orr	r1, r1, r3, lsl #24
 151:./include/linux/libfdt.h **** 		| bp[3];
 690              		.loc 2 151 18 view .LVU239
 691 004a A37A     		ldrb	r3, [r4, #10]	@ zero_extendqisi2
 151:./include/linux/libfdt.h **** 		| bp[3];
 692              		.loc 2 151 3 view .LVU240
 693 004c 41EA0321 		orr	r1, r1, r3, lsl #8
 152:./include/linux/libfdt.h **** }
 694              		.loc 2 152 7 view .LVU241
 695 0050 E37A     		ldrb	r3, [r4, #11]	@ zero_extendqisi2
 152:./include/linux/libfdt.h **** }
 696              		.loc 2 152 3 view .LVU242
ARM GAS  /tmp/cc0N4oYp.s 			page 27


 697 0052 1943     		orrs	r1, r1, r3
 698              	.LVL57:
 152:./include/linux/libfdt.h **** }
 699              		.loc 2 152 3 view .LVU243
 700              	.LBE253:
 701              	.LBE252:
 702              	.LBB254:
 703              	.LBI254:
 145:./include/linux/libfdt.h **** {
 704              		.loc 2 145 24 is_stmt 1 view .LVU244
 705              	.LBB255:
 147:./include/linux/libfdt.h **** 
 706              		.loc 2 147 2 view .LVU245
 149:./include/linux/libfdt.h **** 		| ((uint32_t)bp[1] << 16)
 707              		.loc 2 149 2 view .LVU246
 149:./include/linux/libfdt.h **** 		| ((uint32_t)bp[1] << 16)
 708              		.loc 2 149 22 is_stmt 0 view .LVU247
 709 0054 94F82400 		ldrb	r0, [r4, #36]	@ zero_extendqisi2
 150:./include/linux/libfdt.h **** 		| ((uint32_t)bp[2] << 8)
 710              		.loc 2 150 18 view .LVU248
 711 0058 94F82530 		ldrb	r3, [r4, #37]	@ zero_extendqisi2
 150:./include/linux/libfdt.h **** 		| ((uint32_t)bp[2] << 8)
 712              		.loc 2 150 22 view .LVU249
 713 005c 1B04     		lsls	r3, r3, #16
 150:./include/linux/libfdt.h **** 		| ((uint32_t)bp[2] << 8)
 714              		.loc 2 150 3 view .LVU250
 715 005e 43EA0063 		orr	r3, r3, r0, lsl #24
 151:./include/linux/libfdt.h **** 		| bp[3];
 716              		.loc 2 151 18 view .LVU251
 717 0062 94F82600 		ldrb	r0, [r4, #38]	@ zero_extendqisi2
 151:./include/linux/libfdt.h **** 		| bp[3];
 718              		.loc 2 151 3 view .LVU252
 719 0066 43EA0023 		orr	r3, r3, r0, lsl #8
 152:./include/linux/libfdt.h **** }
 720              		.loc 2 152 7 view .LVU253
 721 006a 94F82700 		ldrb	r0, [r4, #39]	@ zero_extendqisi2
 152:./include/linux/libfdt.h **** }
 722              		.loc 2 152 3 view .LVU254
 723 006e 0343     		orrs	r3, r3, r0
 724              	.LVL58:
 152:./include/linux/libfdt.h **** }
 725              		.loc 2 152 3 view .LVU255
 726              	.LBE255:
 727              	.LBE254:
 259:./lib/fdt/fdt_sw.c **** 	if (fdt_totalsize(fdt) - offset < struct_top)
 728              		.loc 1 259 13 discriminator 2 view .LVU256
 729 0070 0B44     		add	r3, r3, r1
 730              	.LVL59:
 260:./lib/fdt/fdt_sw.c **** 		return 0; /* no more room :( */
 731              		.loc 1 260 2 is_stmt 1 view .LVU257
 260:./lib/fdt/fdt_sw.c **** 		return 0; /* no more room :( */
 732              		.loc 1 260 25 is_stmt 0 discriminator 1 view .LVU258
 733 0072 761B     		subs	r6, r6, r5
 734              	.LVL60:
 260:./lib/fdt/fdt_sw.c **** 		return 0; /* no more room :( */
 735              		.loc 1 260 5 discriminator 1 view .LVU259
 736 0074 9E42     		cmp	r6, r3
ARM GAS  /tmp/cc0N4oYp.s 			page 28


 737 0076 01D2     		bcs	.L28
 261:./lib/fdt/fdt_sw.c **** 
 738              		.loc 1 261 10 view .LVU260
 739 0078 0020     		movs	r0, #0
 740              	.LVL61:
 741              	.L24:
 266:./lib/fdt/fdt_sw.c **** 
 742              		.loc 1 266 1 view .LVU261
 743 007a F8BD     		pop	{r3, r4, r5, r6, r7, pc}
 744              	.LVL62:
 745              	.L28:
 263:./lib/fdt/fdt_sw.c **** 	fdt_set_size_dt_strings(fdt, strtabsize + len);
 746              		.loc 1 263 2 is_stmt 1 view .LVU262
 747 007c 3946     		mov	r1, r7
 748 007e A019     		adds	r0, r4, r6
 749 0080 FFF7FEFF 		bl	memcpy
 750              	.LVL63:
 264:./lib/fdt/fdt_sw.c **** 	return -offset;
 751              		.loc 1 264 2 view .LVU263
 752              	.LBB256:
 753              	.LBI256:
 278:./include/linux/libfdt.h **** fdt_set_hdr_(size_dt_struct)
 754              		.loc 2 278 1 view .LVU264
 755              	.LBB257:
 278:./include/linux/libfdt.h **** fdt_set_hdr_(size_dt_struct)
 756              		.loc 2 278 1 view .LVU265
 278:./include/linux/libfdt.h **** fdt_set_hdr_(size_dt_struct)
 757              		.loc 2 278 1 view .LVU266
 758              	.LBB258:
 759              	.LBI258:
  57:./include/linux/libfdt_env.h **** {
 760              		.loc 3 57 23 view .LVU267
 761              	.LBB259:
 762              		.loc 3 59 2 view .LVU268
 763              		.loc 3 59 28 is_stmt 0 view .LVU269
 764 0084 C5F30723 		ubfx	r3, r5, #8, #8
 765 0088 1B04     		lsls	r3, r3, #16
 766 008a 43EA0563 		orr	r3, r3, r5, lsl #24
 767 008e C5F30742 		ubfx	r2, r5, #16, #8
 768 0092 43EA0223 		orr	r3, r3, r2, lsl #8
 769              		.loc 3 59 9 view .LVU270
 770 0096 43EA1563 		orr	r3, r3, r5, lsr #24
 771              	.LVL64:
 772              		.loc 3 59 9 view .LVU271
 773              	.LBE259:
 774              	.LBE258:
 278:./include/linux/libfdt.h **** fdt_set_hdr_(size_dt_struct)
 775              		.loc 2 278 1 discriminator 1 view .LVU272
 776 009a 2362     		str	r3, [r4, #32]
 777              	.LVL65:
 278:./include/linux/libfdt.h **** fdt_set_hdr_(size_dt_struct)
 778              		.loc 2 278 1 discriminator 1 view .LVU273
 779              	.LBE257:
 780              	.LBE256:
 265:./lib/fdt/fdt_sw.c **** }
 781              		.loc 1 265 2 is_stmt 1 view .LVU274
 265:./lib/fdt/fdt_sw.c **** }
ARM GAS  /tmp/cc0N4oYp.s 			page 29


 782              		.loc 1 265 9 is_stmt 0 view .LVU275
 783 009c 6842     		rsbs	r0, r5, #0
 784 009e ECE7     		b	.L24
 785              		.cfi_endproc
 786              	.LFE87:
 788              		.section	.text.fdt_find_string_,"ax",%progbits
 789              		.align	1
 790              		.syntax unified
 791              		.thumb
 792              		.thumb_func
 794              	fdt_find_string_:
 795              	.LVL66:
 796              	.LFB67:
  29:./lib/fdt/libfdt_internal.h **** 	return fdt_find_string_len_(strtab, tabsize, s, strlen(s));
 797              		.loc 4 29 1 is_stmt 1 view -0
 798              		.cfi_startproc
 799              		@ args = 0, pretend = 0, frame = 0
 800              		@ frame_needed = 0, uses_anonymous_args = 0
  29:./lib/fdt/libfdt_internal.h **** 	return fdt_find_string_len_(strtab, tabsize, s, strlen(s));
 801              		.loc 4 29 1 is_stmt 0 view .LVU277
 802 0000 70B5     		push	{r4, r5, r6, lr}
 803              	.LCFI5:
 804              		.cfi_def_cfa_offset 16
 805              		.cfi_offset 4, -16
 806              		.cfi_offset 5, -12
 807              		.cfi_offset 6, -8
 808              		.cfi_offset 14, -4
 809 0002 0546     		mov	r5, r0
 810 0004 0E46     		mov	r6, r1
 811 0006 1446     		mov	r4, r2
  30:./lib/fdt/libfdt_internal.h **** }
 812              		.loc 4 30 2 is_stmt 1 view .LVU278
  30:./lib/fdt/libfdt_internal.h **** }
 813              		.loc 4 30 50 is_stmt 0 view .LVU279
 814 0008 1046     		mov	r0, r2
 815              	.LVL67:
  30:./lib/fdt/libfdt_internal.h **** }
 816              		.loc 4 30 50 view .LVU280
 817 000a FFF7FEFF 		bl	strlen
 818              	.LVL68:
  30:./lib/fdt/libfdt_internal.h **** }
 819              		.loc 4 30 50 view .LVU281
 820 000e 0346     		mov	r3, r0
  30:./lib/fdt/libfdt_internal.h **** }
 821              		.loc 4 30 9 discriminator 1 view .LVU282
 822 0010 2246     		mov	r2, r4
 823 0012 3146     		mov	r1, r6
 824 0014 2846     		mov	r0, r5
 825 0016 FFF7FEFF 		bl	fdt_find_string_len_
 826              	.LVL69:
  31:./lib/fdt/libfdt_internal.h **** 
 827              		.loc 4 31 1 view .LVU283
 828 001a 70BD     		pop	{r4, r5, r6, pc}
  31:./lib/fdt/libfdt_internal.h **** 
 829              		.loc 4 31 1 view .LVU284
 830              		.cfi_endproc
 831              	.LFE67:
ARM GAS  /tmp/cc0N4oYp.s 			page 30


 833              		.section	.text.fdt_find_add_string_,"ax",%progbits
 834              		.align	1
 835              		.syntax unified
 836              		.thumb
 837              		.thumb_func
 839              	fdt_find_add_string_:
 840              	.LVL70:
 841              	.LFB89:
 276:./lib/fdt/fdt_sw.c **** 
 277:./lib/fdt/fdt_sw.c **** static int fdt_find_add_string_(void *fdt, const char *s, int *allocated)
 278:./lib/fdt/fdt_sw.c **** {
 842              		.loc 1 278 1 is_stmt 1 view -0
 843              		.cfi_startproc
 844              		@ args = 0, pretend = 0, frame = 0
 845              		@ frame_needed = 0, uses_anonymous_args = 0
 846              		.loc 1 278 1 is_stmt 0 view .LVU286
 847 0000 F8B5     		push	{r3, r4, r5, r6, r7, lr}
 848              	.LCFI6:
 849              		.cfi_def_cfa_offset 24
 850              		.cfi_offset 3, -24
 851              		.cfi_offset 4, -20
 852              		.cfi_offset 5, -16
 853              		.cfi_offset 6, -12
 854              		.cfi_offset 7, -8
 855              		.cfi_offset 14, -4
 856 0002 0546     		mov	r5, r0
 857 0004 0E46     		mov	r6, r1
 858 0006 1746     		mov	r7, r2
 279:./lib/fdt/fdt_sw.c **** 	char *strtab = (char *)fdt + fdt_totalsize(fdt);
 859              		.loc 1 279 2 is_stmt 1 view .LVU287
 860              	.LVL71:
 861              	.LBB260:
 862              	.LBI260:
 145:./include/linux/libfdt.h **** {
 863              		.loc 2 145 24 view .LVU288
 864              	.LBB261:
 147:./include/linux/libfdt.h **** 
 865              		.loc 2 147 2 view .LVU289
 149:./include/linux/libfdt.h **** 		| ((uint32_t)bp[1] << 16)
 866              		.loc 2 149 2 view .LVU290
 149:./include/linux/libfdt.h **** 		| ((uint32_t)bp[1] << 16)
 867              		.loc 2 149 22 is_stmt 0 view .LVU291
 868 0008 0379     		ldrb	r3, [r0, #4]	@ zero_extendqisi2
 150:./include/linux/libfdt.h **** 		| ((uint32_t)bp[2] << 8)
 869              		.loc 2 150 18 view .LVU292
 870 000a 4479     		ldrb	r4, [r0, #5]	@ zero_extendqisi2
 150:./include/linux/libfdt.h **** 		| ((uint32_t)bp[2] << 8)
 871              		.loc 2 150 22 view .LVU293
 872 000c 2404     		lsls	r4, r4, #16
 150:./include/linux/libfdt.h **** 		| ((uint32_t)bp[2] << 8)
 873              		.loc 2 150 3 view .LVU294
 874 000e 44EA0364 		orr	r4, r4, r3, lsl #24
 151:./include/linux/libfdt.h **** 		| bp[3];
 875              		.loc 2 151 18 view .LVU295
 876 0012 8379     		ldrb	r3, [r0, #6]	@ zero_extendqisi2
 151:./include/linux/libfdt.h **** 		| bp[3];
 877              		.loc 2 151 3 view .LVU296
ARM GAS  /tmp/cc0N4oYp.s 			page 31


 878 0014 44EA0324 		orr	r4, r4, r3, lsl #8
 152:./include/linux/libfdt.h **** }
 879              		.loc 2 152 7 view .LVU297
 880 0018 C379     		ldrb	r3, [r0, #7]	@ zero_extendqisi2
 152:./include/linux/libfdt.h **** }
 881              		.loc 2 152 3 view .LVU298
 882 001a 1C43     		orrs	r4, r4, r3
 883              	.LVL72:
 152:./include/linux/libfdt.h **** }
 884              		.loc 2 152 3 view .LVU299
 885              	.LBE261:
 886              	.LBE260:
 887              		.loc 1 279 8 discriminator 1 view .LVU300
 888 001c 0444     		add	r4, r4, r0
 889              	.LVL73:
 280:./lib/fdt/fdt_sw.c **** 	int strtabsize = fdt_size_dt_strings(fdt);
 890              		.loc 1 280 2 is_stmt 1 view .LVU301
 891              	.LBB262:
 892              	.LBI262:
 145:./include/linux/libfdt.h **** {
 893              		.loc 2 145 24 view .LVU302
 894              	.LBB263:
 147:./include/linux/libfdt.h **** 
 895              		.loc 2 147 2 view .LVU303
 149:./include/linux/libfdt.h **** 		| ((uint32_t)bp[1] << 16)
 896              		.loc 2 149 2 view .LVU304
 149:./include/linux/libfdt.h **** 		| ((uint32_t)bp[1] << 16)
 897              		.loc 2 149 22 is_stmt 0 view .LVU305
 898 001e 90F82030 		ldrb	r3, [r0, #32]	@ zero_extendqisi2
 150:./include/linux/libfdt.h **** 		| ((uint32_t)bp[2] << 8)
 899              		.loc 2 150 18 view .LVU306
 900 0022 90F82100 		ldrb	r0, [r0, #33]	@ zero_extendqisi2
 901              	.LVL74:
 150:./include/linux/libfdt.h **** 		| ((uint32_t)bp[2] << 8)
 902              		.loc 2 150 22 view .LVU307
 903 0026 0004     		lsls	r0, r0, #16
 150:./include/linux/libfdt.h **** 		| ((uint32_t)bp[2] << 8)
 904              		.loc 2 150 3 view .LVU308
 905 0028 40EA0360 		orr	r0, r0, r3, lsl #24
 151:./include/linux/libfdt.h **** 		| bp[3];
 906              		.loc 2 151 18 view .LVU309
 907 002c 95F82230 		ldrb	r3, [r5, #34]	@ zero_extendqisi2
 151:./include/linux/libfdt.h **** 		| bp[3];
 908              		.loc 2 151 3 view .LVU310
 909 0030 40EA0320 		orr	r0, r0, r3, lsl #8
 152:./include/linux/libfdt.h **** }
 910              		.loc 2 152 7 view .LVU311
 911 0034 95F82330 		ldrb	r3, [r5, #35]	@ zero_extendqisi2
 152:./include/linux/libfdt.h **** }
 912              		.loc 2 152 3 view .LVU312
 913 0038 40EA0301 		orr	r1, r0, r3
 914              	.LVL75:
 152:./include/linux/libfdt.h **** }
 915              		.loc 2 152 3 view .LVU313
 916              	.LBE263:
 917              	.LBE262:
 281:./lib/fdt/fdt_sw.c **** 	const char *p;
ARM GAS  /tmp/cc0N4oYp.s 			page 32


 918              		.loc 1 281 2 is_stmt 1 view .LVU314
 282:./lib/fdt/fdt_sw.c **** 
 283:./lib/fdt/fdt_sw.c **** 	*allocated = 0;
 919              		.loc 1 283 2 view .LVU315
 920              		.loc 1 283 13 is_stmt 0 view .LVU316
 921 003c 0023     		movs	r3, #0
 922 003e 1360     		str	r3, [r2]
 284:./lib/fdt/fdt_sw.c **** 
 285:./lib/fdt/fdt_sw.c **** 	p = fdt_find_string_(strtab - strtabsize, strtabsize, s);
 923              		.loc 1 285 2 is_stmt 1 view .LVU317
 924              		.loc 1 285 6 is_stmt 0 view .LVU318
 925 0040 3246     		mov	r2, r6
 926              	.LVL76:
 927              		.loc 1 285 6 view .LVU319
 928 0042 601A     		subs	r0, r4, r1
 929 0044 FFF7FEFF 		bl	fdt_find_string_
 930              	.LVL77:
 286:./lib/fdt/fdt_sw.c **** 	if (p)
 931              		.loc 1 286 2 is_stmt 1 view .LVU320
 932              		.loc 1 286 5 is_stmt 0 view .LVU321
 933 0048 08B1     		cbz	r0, .L32
 287:./lib/fdt/fdt_sw.c **** 		return p - strtab;
 934              		.loc 1 287 3 is_stmt 1 view .LVU322
 935              		.loc 1 287 12 is_stmt 0 view .LVU323
 936 004a 001B     		subs	r0, r0, r4
 937              	.LVL78:
 938              	.L31:
 288:./lib/fdt/fdt_sw.c **** 
 289:./lib/fdt/fdt_sw.c **** 	*allocated = 1;
 290:./lib/fdt/fdt_sw.c **** 
 291:./lib/fdt/fdt_sw.c **** 	return fdt_add_string_(fdt, s);
 292:./lib/fdt/fdt_sw.c **** }
 939              		.loc 1 292 1 view .LVU324
 940 004c F8BD     		pop	{r3, r4, r5, r6, r7, pc}
 941              	.LVL79:
 942              	.L32:
 289:./lib/fdt/fdt_sw.c **** 
 943              		.loc 1 289 2 is_stmt 1 view .LVU325
 289:./lib/fdt/fdt_sw.c **** 
 944              		.loc 1 289 13 is_stmt 0 view .LVU326
 945 004e 0123     		movs	r3, #1
 946 0050 3B60     		str	r3, [r7]
 291:./lib/fdt/fdt_sw.c **** }
 947              		.loc 1 291 2 is_stmt 1 view .LVU327
 291:./lib/fdt/fdt_sw.c **** }
 948              		.loc 1 291 9 is_stmt 0 view .LVU328
 949 0052 3146     		mov	r1, r6
 950 0054 2846     		mov	r0, r5
 951              	.LVL80:
 291:./lib/fdt/fdt_sw.c **** }
 952              		.loc 1 291 9 view .LVU329
 953 0056 FFF7FEFF 		bl	fdt_add_string_
 954              	.LVL81:
 955 005a F7E7     		b	.L31
 956              		.cfi_endproc
 957              	.LFE89:
 959              		.section	.text.fdt_create_with_flags,"ax",%progbits
ARM GAS  /tmp/cc0N4oYp.s 			page 33


 960              		.align	1
 961              		.global	fdt_create_with_flags
 962              		.syntax unified
 963              		.thumb
 964              		.thumb_func
 966              	fdt_create_with_flags:
 967              	.LVL82:
 968              	.LFB80:
 111:./lib/fdt/fdt_sw.c **** 	const int hdrsize = FDT_ALIGN(sizeof(struct fdt_header),
 969              		.loc 1 111 1 is_stmt 1 view -0
 970              		.cfi_startproc
 971              		@ args = 0, pretend = 0, frame = 0
 972              		@ frame_needed = 0, uses_anonymous_args = 0
 112:./lib/fdt/fdt_sw.c **** 				      sizeof(struct fdt_reserve_entry));
 973              		.loc 1 112 2 view .LVU331
 114:./lib/fdt/fdt_sw.c **** 
 974              		.loc 1 114 2 view .LVU332
 116:./lib/fdt/fdt_sw.c **** 		return -FDT_ERR_NOSPACE;
 975              		.loc 1 116 2 view .LVU333
 116:./lib/fdt/fdt_sw.c **** 		return -FDT_ERR_NOSPACE;
 976              		.loc 1 116 5 is_stmt 0 view .LVU334
 977 0000 2729     		cmp	r1, #39
 978 0002 2DDD     		ble	.L37
 111:./lib/fdt/fdt_sw.c **** 	const int hdrsize = FDT_ALIGN(sizeof(struct fdt_header),
 979              		.loc 1 111 1 view .LVU335
 980 0004 70B5     		push	{r4, r5, r6, lr}
 981              	.LCFI7:
 982              		.cfi_def_cfa_offset 16
 983              		.cfi_offset 4, -16
 984              		.cfi_offset 5, -12
 985              		.cfi_offset 6, -8
 986              		.cfi_offset 14, -4
 987 0006 0446     		mov	r4, r0
 988 0008 0D46     		mov	r5, r1
 989 000a 1646     		mov	r6, r2
 119:./lib/fdt/fdt_sw.c **** 		return -FDT_ERR_BADFLAGS;
 990              		.loc 1 119 2 is_stmt 1 view .LVU336
 119:./lib/fdt/fdt_sw.c **** 		return -FDT_ERR_BADFLAGS;
 991              		.loc 1 119 5 is_stmt 0 view .LVU337
 992 000c 012A     		cmp	r2, #1
 993 000e 2AD8     		bhi	.L38
 122:./lib/fdt/fdt_sw.c **** 
 994              		.loc 1 122 2 is_stmt 1 view .LVU338
 995 0010 0A46     		mov	r2, r1
 996              	.LVL83:
 122:./lib/fdt/fdt_sw.c **** 
 997              		.loc 1 122 2 is_stmt 0 view .LVU339
 998 0012 0021     		movs	r1, #0
 999              	.LVL84:
 122:./lib/fdt/fdt_sw.c **** 
 1000              		.loc 1 122 2 view .LVU340
 1001 0014 FFF7FEFF 		bl	memset
 1002              	.LVL85:
 131:./lib/fdt/fdt_sw.c **** 	fdt_set_version(fdt, FDT_LAST_SUPPORTED_VERSION);
 1003              		.loc 1 131 2 is_stmt 1 view .LVU341
 1004              	.LBB264:
 1005              	.LBI264:
ARM GAS  /tmp/cc0N4oYp.s 			page 34


 270:./include/linux/libfdt.h **** fdt_set_hdr_(totalsize)
 1006              		.loc 2 270 1 view .LVU342
 1007              	.LBB265:
 270:./include/linux/libfdt.h **** fdt_set_hdr_(totalsize)
 1008              		.loc 2 270 1 view .LVU343
 270:./include/linux/libfdt.h **** fdt_set_hdr_(totalsize)
 1009              		.loc 2 270 1 view .LVU344
 270:./include/linux/libfdt.h **** fdt_set_hdr_(totalsize)
 1010              		.loc 2 270 1 is_stmt 0 discriminator 1 view .LVU345
 1011 0018 144B     		ldr	r3, .L43
 1012 001a 2360     		str	r3, [r4]
 1013              	.LVL86:
 270:./include/linux/libfdt.h **** fdt_set_hdr_(totalsize)
 1014              		.loc 2 270 1 discriminator 1 view .LVU346
 1015              	.LBE265:
 1016              	.LBE264:
 132:./lib/fdt/fdt_sw.c **** 	fdt_set_last_comp_version(fdt, flags);
 1017              		.loc 1 132 2 is_stmt 1 view .LVU347
 1018              	.LBB266:
 1019              	.LBI266:
 275:./include/linux/libfdt.h **** fdt_set_hdr_(last_comp_version)
 1020              		.loc 2 275 1 view .LVU348
 1021              	.LBB267:
 275:./include/linux/libfdt.h **** fdt_set_hdr_(last_comp_version)
 1022              		.loc 2 275 1 view .LVU349
 275:./include/linux/libfdt.h **** fdt_set_hdr_(last_comp_version)
 1023              		.loc 2 275 1 view .LVU350
 275:./include/linux/libfdt.h **** fdt_set_hdr_(last_comp_version)
 1024              		.loc 2 275 1 is_stmt 0 discriminator 1 view .LVU351
 1025 001c 4FF08853 		mov	r3, #285212672
 1026 0020 6361     		str	r3, [r4, #20]
 1027              	.LVL87:
 275:./include/linux/libfdt.h **** fdt_set_hdr_(last_comp_version)
 1028              		.loc 2 275 1 discriminator 1 view .LVU352
 1029              	.LBE267:
 1030              	.LBE266:
 133:./lib/fdt/fdt_sw.c **** 
 1031              		.loc 1 133 2 is_stmt 1 view .LVU353
 1032              	.LBB268:
 1033              	.LBI268:
 276:./include/linux/libfdt.h **** fdt_set_hdr_(boot_cpuid_phys)
 1034              		.loc 2 276 1 view .LVU354
 1035              	.LBB269:
 276:./include/linux/libfdt.h **** fdt_set_hdr_(boot_cpuid_phys)
 1036              		.loc 2 276 1 view .LVU355
 276:./include/linux/libfdt.h **** fdt_set_hdr_(boot_cpuid_phys)
 1037              		.loc 2 276 1 view .LVU356
 1038              	.LBB270:
 1039              	.LBI270:
  57:./include/linux/libfdt_env.h **** {
 1040              		.loc 3 57 23 view .LVU357
 1041              	.LBB271:
 1042              		.loc 3 59 2 view .LVU358
 1043              		.loc 3 59 28 is_stmt 0 view .LVU359
 1044 0022 C6F30723 		ubfx	r3, r6, #8, #8
 1045 0026 1B04     		lsls	r3, r3, #16
 1046 0028 43EA0663 		orr	r3, r3, r6, lsl #24
ARM GAS  /tmp/cc0N4oYp.s 			page 35


 1047 002c C6F30742 		ubfx	r2, r6, #16, #8
 1048 0030 43EA0223 		orr	r3, r3, r2, lsl #8
 1049              		.loc 3 59 9 view .LVU360
 1050 0034 43EA1663 		orr	r3, r3, r6, lsr #24
 1051              	.LVL88:
 1052              		.loc 3 59 9 view .LVU361
 1053              	.LBE271:
 1054              	.LBE270:
 276:./include/linux/libfdt.h **** fdt_set_hdr_(boot_cpuid_phys)
 1055              		.loc 2 276 1 discriminator 1 view .LVU362
 1056 0038 A361     		str	r3, [r4, #24]
 1057              	.LVL89:
 276:./include/linux/libfdt.h **** fdt_set_hdr_(boot_cpuid_phys)
 1058              		.loc 2 276 1 discriminator 1 view .LVU363
 1059              	.LBE269:
 1060              	.LBE268:
 135:./lib/fdt/fdt_sw.c **** 
 1061              		.loc 1 135 2 is_stmt 1 view .LVU364
 1062              	.LBB272:
 1063              	.LBI272:
 271:./include/linux/libfdt.h **** fdt_set_hdr_(off_dt_struct)
 1064              		.loc 2 271 1 view .LVU365
 1065              	.LBB273:
 271:./include/linux/libfdt.h **** fdt_set_hdr_(off_dt_struct)
 1066              		.loc 2 271 1 view .LVU366
 271:./include/linux/libfdt.h **** fdt_set_hdr_(off_dt_struct)
 1067              		.loc 2 271 1 view .LVU367
 1068              	.LBB274:
 1069              	.LBI274:
  57:./include/linux/libfdt_env.h **** {
 1070              		.loc 3 57 23 view .LVU368
 1071              	.LBB275:
 1072              		.loc 3 59 2 view .LVU369
 1073              		.loc 3 59 28 is_stmt 0 view .LVU370
 1074 003a C5F30723 		ubfx	r3, r5, #8, #8
 1075 003e 1B04     		lsls	r3, r3, #16
 1076 0040 43EA0563 		orr	r3, r3, r5, lsl #24
 1077 0044 C5F30742 		ubfx	r2, r5, #16, #8
 1078 0048 43EA0223 		orr	r3, r3, r2, lsl #8
 1079              		.loc 3 59 9 view .LVU371
 1080 004c 43EA1563 		orr	r3, r3, r5, lsr #24
 1081              	.LVL90:
 1082              		.loc 3 59 9 view .LVU372
 1083              	.LBE275:
 1084              	.LBE274:
 271:./include/linux/libfdt.h **** fdt_set_hdr_(off_dt_struct)
 1085              		.loc 2 271 1 discriminator 1 view .LVU373
 1086 0050 6360     		str	r3, [r4, #4]
 1087              	.LVL91:
 271:./include/linux/libfdt.h **** fdt_set_hdr_(off_dt_struct)
 1088              		.loc 2 271 1 discriminator 1 view .LVU374
 1089              	.LBE273:
 1090              	.LBE272:
 137:./lib/fdt/fdt_sw.c **** 	fdt_set_off_dt_struct(fdt, fdt_off_mem_rsvmap(fdt));
 1091              		.loc 1 137 2 is_stmt 1 view .LVU375
 1092              	.LBB276:
 1093              	.LBI276:
ARM GAS  /tmp/cc0N4oYp.s 			page 36


 274:./include/linux/libfdt.h **** fdt_set_hdr_(version)
 1094              		.loc 2 274 1 view .LVU376
 1095              	.LBB277:
 274:./include/linux/libfdt.h **** fdt_set_hdr_(version)
 1096              		.loc 2 274 1 view .LVU377
 274:./include/linux/libfdt.h **** fdt_set_hdr_(version)
 1097              		.loc 2 274 1 view .LVU378
 274:./include/linux/libfdt.h **** fdt_set_hdr_(version)
 1098              		.loc 2 274 1 is_stmt 0 discriminator 1 view .LVU379
 1099 0052 4FF02053 		mov	r3, #671088640
 1100 0056 2361     		str	r3, [r4, #16]
 1101              	.LVL92:
 274:./include/linux/libfdt.h **** fdt_set_hdr_(version)
 1102              		.loc 2 274 1 discriminator 1 view .LVU380
 1103              	.LBE277:
 1104              	.LBE276:
 138:./lib/fdt/fdt_sw.c **** 	fdt_set_off_dt_strings(fdt, 0);
 1105              		.loc 1 138 2 is_stmt 1 view .LVU381
 1106              	.LBB278:
 1107              	.LBI278:
 272:./include/linux/libfdt.h **** fdt_set_hdr_(off_dt_strings)
 1108              		.loc 2 272 1 view .LVU382
 1109              	.LBB279:
 272:./include/linux/libfdt.h **** fdt_set_hdr_(off_dt_strings)
 1110              		.loc 2 272 1 view .LVU383
 272:./include/linux/libfdt.h **** fdt_set_hdr_(off_dt_strings)
 1111              		.loc 2 272 1 view .LVU384
 272:./include/linux/libfdt.h **** fdt_set_hdr_(off_dt_strings)
 1112              		.loc 2 272 1 is_stmt 0 discriminator 1 view .LVU385
 1113 0058 A360     		str	r3, [r4, #8]
 1114              	.LVL93:
 272:./include/linux/libfdt.h **** fdt_set_hdr_(off_dt_strings)
 1115              		.loc 2 272 1 discriminator 1 view .LVU386
 1116              	.LBE279:
 1117              	.LBE278:
 139:./lib/fdt/fdt_sw.c **** 
 1118              		.loc 1 139 2 is_stmt 1 view .LVU387
 1119              	.LBB280:
 1120              	.LBI280:
 273:./include/linux/libfdt.h **** fdt_set_hdr_(off_mem_rsvmap)
 1121              		.loc 2 273 1 view .LVU388
 1122              	.LBB281:
 273:./include/linux/libfdt.h **** fdt_set_hdr_(off_mem_rsvmap)
 1123              		.loc 2 273 1 view .LVU389
 273:./include/linux/libfdt.h **** fdt_set_hdr_(off_mem_rsvmap)
 1124              		.loc 2 273 1 view .LVU390
 273:./include/linux/libfdt.h **** fdt_set_hdr_(off_mem_rsvmap)
 1125              		.loc 2 273 1 is_stmt 0 discriminator 1 view .LVU391
 1126 005a 0020     		movs	r0, #0
 1127 005c E060     		str	r0, [r4, #12]
 1128              	.LVL94:
 273:./include/linux/libfdt.h **** fdt_set_hdr_(off_mem_rsvmap)
 1129              		.loc 2 273 1 discriminator 1 view .LVU392
 1130              	.LBE281:
 1131              	.LBE280:
 141:./lib/fdt/fdt_sw.c **** }
 1132              		.loc 1 141 2 is_stmt 1 view .LVU393
ARM GAS  /tmp/cc0N4oYp.s 			page 37


 1133              	.L35:
 142:./lib/fdt/fdt_sw.c **** 
 1134              		.loc 1 142 1 is_stmt 0 view .LVU394
 1135 005e 70BD     		pop	{r4, r5, r6, pc}
 1136              	.LVL95:
 1137              	.L37:
 1138              	.LCFI8:
 1139              		.cfi_def_cfa_offset 0
 1140              		.cfi_restore 4
 1141              		.cfi_restore 5
 1142              		.cfi_restore 6
 1143              		.cfi_restore 14
 117:./lib/fdt/fdt_sw.c **** 
 1144              		.loc 1 117 10 view .LVU395
 1145 0060 6FF00200 		mvn	r0, #2
 1146              	.LVL96:
 142:./lib/fdt/fdt_sw.c **** 
 1147              		.loc 1 142 1 view .LVU396
 1148 0064 7047     		bx	lr
 1149              	.LVL97:
 1150              	.L38:
 1151              	.LCFI9:
 1152              		.cfi_def_cfa_offset 16
 1153              		.cfi_offset 4, -16
 1154              		.cfi_offset 5, -12
 1155              		.cfi_offset 6, -8
 1156              		.cfi_offset 14, -4
 120:./lib/fdt/fdt_sw.c **** 
 1157              		.loc 1 120 10 view .LVU397
 1158 0066 6FF01100 		mvn	r0, #17
 1159              	.LVL98:
 120:./lib/fdt/fdt_sw.c **** 
 1160              		.loc 1 120 10 view .LVU398
 1161 006a F8E7     		b	.L35
 1162              	.L44:
 1163              		.align	2
 1164              	.L43:
 1165 006c 2FF20112 		.word	302117423
 1166              		.cfi_endproc
 1167              	.LFE80:
 1169              		.section	.text.fdt_create,"ax",%progbits
 1170              		.align	1
 1171              		.global	fdt_create
 1172              		.syntax unified
 1173              		.thumb
 1174              		.thumb_func
 1176              	fdt_create:
 1177              	.LVL99:
 1178              	.LFB81:
 145:./lib/fdt/fdt_sw.c **** 	return fdt_create_with_flags(buf, bufsize, 0);
 1179              		.loc 1 145 1 is_stmt 1 view -0
 1180              		.cfi_startproc
 1181              		@ args = 0, pretend = 0, frame = 0
 1182              		@ frame_needed = 0, uses_anonymous_args = 0
 145:./lib/fdt/fdt_sw.c **** 	return fdt_create_with_flags(buf, bufsize, 0);
 1183              		.loc 1 145 1 is_stmt 0 view .LVU400
 1184 0000 08B5     		push	{r3, lr}
ARM GAS  /tmp/cc0N4oYp.s 			page 38


 1185              	.LCFI10:
 1186              		.cfi_def_cfa_offset 8
 1187              		.cfi_offset 3, -8
 1188              		.cfi_offset 14, -4
 146:./lib/fdt/fdt_sw.c **** }
 1189              		.loc 1 146 2 is_stmt 1 view .LVU401
 146:./lib/fdt/fdt_sw.c **** }
 1190              		.loc 1 146 9 is_stmt 0 view .LVU402
 1191 0002 0022     		movs	r2, #0
 1192 0004 FFF7FEFF 		bl	fdt_create_with_flags
 1193              	.LVL100:
 147:./lib/fdt/fdt_sw.c **** 
 1194              		.loc 1 147 1 view .LVU403
 1195 0008 08BD     		pop	{r3, pc}
 1196              		.cfi_endproc
 1197              	.LFE81:
 1199              		.section	.text.fdt_resize,"ax",%progbits
 1200              		.align	1
 1201              		.global	fdt_resize
 1202              		.syntax unified
 1203              		.thumb
 1204              		.thumb_func
 1206              	fdt_resize:
 1207              	.LVL101:
 1208              	.LFB82:
 150:./lib/fdt/fdt_sw.c **** 	size_t headsize, tailsize;
 1209              		.loc 1 150 1 is_stmt 1 view -0
 1210              		.cfi_startproc
 1211              		@ args = 0, pretend = 0, frame = 0
 1212              		@ frame_needed = 0, uses_anonymous_args = 0
 150:./lib/fdt/fdt_sw.c **** 	size_t headsize, tailsize;
 1213              		.loc 1 150 1 is_stmt 0 view .LVU405
 1214 0000 2DE9F84F 		push	{r3, r4, r5, r6, r7, r8, r9, r10, fp, lr}
 1215              	.LCFI11:
 1216              		.cfi_def_cfa_offset 40
 1217              		.cfi_offset 3, -40
 1218              		.cfi_offset 4, -36
 1219              		.cfi_offset 5, -32
 1220              		.cfi_offset 6, -28
 1221              		.cfi_offset 7, -24
 1222              		.cfi_offset 8, -20
 1223              		.cfi_offset 9, -16
 1224              		.cfi_offset 10, -12
 1225              		.cfi_offset 11, -8
 1226              		.cfi_offset 14, -4
 1227 0004 0446     		mov	r4, r0
 1228 0006 0F46     		mov	r7, r1
 1229 0008 9046     		mov	r8, r2
 151:./lib/fdt/fdt_sw.c **** 	char *oldtail, *newtail;
 1230              		.loc 1 151 2 is_stmt 1 view .LVU406
 152:./lib/fdt/fdt_sw.c **** 
 1231              		.loc 1 152 2 view .LVU407
 1232              	.LBB282:
 154:./lib/fdt/fdt_sw.c **** 
 1233              		.loc 1 154 2 view .LVU408
 154:./lib/fdt/fdt_sw.c **** 
 1234              		.loc 1 154 2 view .LVU409
ARM GAS  /tmp/cc0N4oYp.s 			page 39


 1235 000a FFF7FEFF 		bl	fdt_sw_probe_
 1236              	.LVL102:
 154:./lib/fdt/fdt_sw.c **** 
 1237              		.loc 1 154 2 is_stmt 0 discriminator 1 view .LVU410
 1238 000e 8146     		mov	r9, r0
 1239 0010 0028     		cmp	r0, #0
 1240 0012 63D1     		bne	.L47
 1241              	.LBE282:
 154:./lib/fdt/fdt_sw.c **** 
 1242              		.loc 1 154 19 is_stmt 1 discriminator 2 view .LVU411
 156:./lib/fdt/fdt_sw.c **** 		return -FDT_ERR_NOSPACE;
 1243              		.loc 1 156 2 view .LVU412
 156:./lib/fdt/fdt_sw.c **** 		return -FDT_ERR_NOSPACE;
 1244              		.loc 1 156 5 is_stmt 0 view .LVU413
 1245 0014 B8F1000F 		cmp	r8, #0
 1246 0018 6EDB     		blt	.L51
 159:./lib/fdt/fdt_sw.c **** 	tailsize = fdt_size_dt_strings(fdt);
 1247              		.loc 1 159 2 is_stmt 1 view .LVU414
 1248              	.LVL103:
 1249              	.LBB283:
 1250              	.LBI283:
 145:./include/linux/libfdt.h **** {
 1251              		.loc 2 145 24 view .LVU415
 1252              	.LBB284:
 147:./include/linux/libfdt.h **** 
 1253              		.loc 2 147 2 view .LVU416
 149:./include/linux/libfdt.h **** 		| ((uint32_t)bp[1] << 16)
 1254              		.loc 2 149 2 view .LVU417
 149:./include/linux/libfdt.h **** 		| ((uint32_t)bp[1] << 16)
 1255              		.loc 2 149 22 is_stmt 0 view .LVU418
 1256 001a 227A     		ldrb	r2, [r4, #8]	@ zero_extendqisi2
 150:./include/linux/libfdt.h **** 		| ((uint32_t)bp[2] << 8)
 1257              		.loc 2 150 18 view .LVU419
 1258 001c 637A     		ldrb	r3, [r4, #9]	@ zero_extendqisi2
 150:./include/linux/libfdt.h **** 		| ((uint32_t)bp[2] << 8)
 1259              		.loc 2 150 22 view .LVU420
 1260 001e 1B04     		lsls	r3, r3, #16
 150:./include/linux/libfdt.h **** 		| ((uint32_t)bp[2] << 8)
 1261              		.loc 2 150 3 view .LVU421
 1262 0020 43EA0263 		orr	r3, r3, r2, lsl #24
 151:./include/linux/libfdt.h **** 		| bp[3];
 1263              		.loc 2 151 18 view .LVU422
 1264 0024 A27A     		ldrb	r2, [r4, #10]	@ zero_extendqisi2
 151:./include/linux/libfdt.h **** 		| bp[3];
 1265              		.loc 2 151 3 view .LVU423
 1266 0026 43EA0223 		orr	r3, r3, r2, lsl #8
 152:./include/linux/libfdt.h **** }
 1267              		.loc 2 152 7 view .LVU424
 1268 002a E27A     		ldrb	r2, [r4, #11]	@ zero_extendqisi2
 152:./include/linux/libfdt.h **** }
 1269              		.loc 2 152 3 view .LVU425
 1270 002c 1343     		orrs	r3, r3, r2
 1271              	.LVL104:
 152:./include/linux/libfdt.h **** }
 1272              		.loc 2 152 3 view .LVU426
 1273              	.LBE284:
 1274              	.LBE283:
ARM GAS  /tmp/cc0N4oYp.s 			page 40


 1275              	.LBB285:
 1276              	.LBI285:
 145:./include/linux/libfdt.h **** {
 1277              		.loc 2 145 24 is_stmt 1 view .LVU427
 1278              	.LBB286:
 147:./include/linux/libfdt.h **** 
 1279              		.loc 2 147 2 view .LVU428
 149:./include/linux/libfdt.h **** 		| ((uint32_t)bp[1] << 16)
 1280              		.loc 2 149 2 view .LVU429
 149:./include/linux/libfdt.h **** 		| ((uint32_t)bp[1] << 16)
 1281              		.loc 2 149 22 is_stmt 0 view .LVU430
 1282 002e 94F82420 		ldrb	r2, [r4, #36]	@ zero_extendqisi2
 150:./include/linux/libfdt.h **** 		| ((uint32_t)bp[2] << 8)
 1283              		.loc 2 150 18 view .LVU431
 1284 0032 94F82550 		ldrb	r5, [r4, #37]	@ zero_extendqisi2
 150:./include/linux/libfdt.h **** 		| ((uint32_t)bp[2] << 8)
 1285              		.loc 2 150 22 view .LVU432
 1286 0036 2D04     		lsls	r5, r5, #16
 150:./include/linux/libfdt.h **** 		| ((uint32_t)bp[2] << 8)
 1287              		.loc 2 150 3 view .LVU433
 1288 0038 45EA0265 		orr	r5, r5, r2, lsl #24
 151:./include/linux/libfdt.h **** 		| bp[3];
 1289              		.loc 2 151 18 view .LVU434
 1290 003c 94F82620 		ldrb	r2, [r4, #38]	@ zero_extendqisi2
 151:./include/linux/libfdt.h **** 		| bp[3];
 1291              		.loc 2 151 3 view .LVU435
 1292 0040 45EA0225 		orr	r5, r5, r2, lsl #8
 152:./include/linux/libfdt.h **** }
 1293              		.loc 2 152 7 view .LVU436
 1294 0044 94F82720 		ldrb	r2, [r4, #39]	@ zero_extendqisi2
 152:./include/linux/libfdt.h **** }
 1295              		.loc 2 152 3 view .LVU437
 1296 0048 1543     		orrs	r5, r5, r2
 1297              	.LVL105:
 152:./include/linux/libfdt.h **** }
 1298              		.loc 2 152 3 view .LVU438
 1299              	.LBE286:
 1300              	.LBE285:
 159:./lib/fdt/fdt_sw.c **** 	tailsize = fdt_size_dt_strings(fdt);
 1301              		.loc 1 159 11 discriminator 2 view .LVU439
 1302 004a 1D44     		add	r5, r5, r3
 1303              	.LVL106:
 160:./lib/fdt/fdt_sw.c **** 
 1304              		.loc 1 160 2 is_stmt 1 view .LVU440
 1305              	.LBB287:
 1306              	.LBI287:
 145:./include/linux/libfdt.h **** {
 1307              		.loc 2 145 24 view .LVU441
 1308              	.LBB288:
 147:./include/linux/libfdt.h **** 
 1309              		.loc 2 147 2 view .LVU442
 149:./include/linux/libfdt.h **** 		| ((uint32_t)bp[1] << 16)
 1310              		.loc 2 149 2 view .LVU443
 149:./include/linux/libfdt.h **** 		| ((uint32_t)bp[1] << 16)
 1311              		.loc 2 149 22 is_stmt 0 view .LVU444
 1312 004c 94F82030 		ldrb	r3, [r4, #32]	@ zero_extendqisi2
 150:./include/linux/libfdt.h **** 		| ((uint32_t)bp[2] << 8)
ARM GAS  /tmp/cc0N4oYp.s 			page 41


 1313              		.loc 2 150 18 view .LVU445
 1314 0050 94F82160 		ldrb	r6, [r4, #33]	@ zero_extendqisi2
 150:./include/linux/libfdt.h **** 		| ((uint32_t)bp[2] << 8)
 1315              		.loc 2 150 22 view .LVU446
 1316 0054 3604     		lsls	r6, r6, #16
 150:./include/linux/libfdt.h **** 		| ((uint32_t)bp[2] << 8)
 1317              		.loc 2 150 3 view .LVU447
 1318 0056 46EA0366 		orr	r6, r6, r3, lsl #24
 151:./include/linux/libfdt.h **** 		| bp[3];
 1319              		.loc 2 151 18 view .LVU448
 1320 005a 94F82230 		ldrb	r3, [r4, #34]	@ zero_extendqisi2
 151:./include/linux/libfdt.h **** 		| bp[3];
 1321              		.loc 2 151 3 view .LVU449
 1322 005e 46EA0326 		orr	r6, r6, r3, lsl #8
 152:./include/linux/libfdt.h **** }
 1323              		.loc 2 152 7 view .LVU450
 1324 0062 94F82330 		ldrb	r3, [r4, #35]	@ zero_extendqisi2
 152:./include/linux/libfdt.h **** }
 1325              		.loc 2 152 3 view .LVU451
 1326 0066 1E43     		orrs	r6, r6, r3
 1327              	.LVL107:
 152:./include/linux/libfdt.h **** }
 1328              		.loc 2 152 3 view .LVU452
 1329              	.LBE288:
 1330              	.LBE287:
 162:./lib/fdt/fdt_sw.c **** 	    headsize + tailsize > fdt_totalsize(fdt))
 1331              		.loc 1 162 2 is_stmt 1 view .LVU453
 163:./lib/fdt/fdt_sw.c **** 		return -FDT_ERR_INTERNAL;
 1332              		.loc 1 163 15 is_stmt 0 view .LVU454
 1333 0068 AA19     		adds	r2, r5, r6
 1334              	.LVL108:
 1335              	.LBB289:
 1336              	.LBI289:
 145:./include/linux/libfdt.h **** {
 1337              		.loc 2 145 24 is_stmt 1 view .LVU455
 1338              	.LBB290:
 147:./include/linux/libfdt.h **** 
 1339              		.loc 2 147 2 view .LVU456
 149:./include/linux/libfdt.h **** 		| ((uint32_t)bp[1] << 16)
 1340              		.loc 2 149 2 view .LVU457
 149:./include/linux/libfdt.h **** 		| ((uint32_t)bp[1] << 16)
 1341              		.loc 2 149 22 is_stmt 0 view .LVU458
 1342 006a 2179     		ldrb	r1, [r4, #4]	@ zero_extendqisi2
 150:./include/linux/libfdt.h **** 		| ((uint32_t)bp[2] << 8)
 1343              		.loc 2 150 18 view .LVU459
 1344 006c 6379     		ldrb	r3, [r4, #5]	@ zero_extendqisi2
 150:./include/linux/libfdt.h **** 		| ((uint32_t)bp[2] << 8)
 1345              		.loc 2 150 22 view .LVU460
 1346 006e 1B04     		lsls	r3, r3, #16
 150:./include/linux/libfdt.h **** 		| ((uint32_t)bp[2] << 8)
 1347              		.loc 2 150 3 view .LVU461
 1348 0070 43EA0163 		orr	r3, r3, r1, lsl #24
 151:./include/linux/libfdt.h **** 		| bp[3];
 1349              		.loc 2 151 18 view .LVU462
 1350 0074 A179     		ldrb	r1, [r4, #6]	@ zero_extendqisi2
 151:./include/linux/libfdt.h **** 		| bp[3];
 1351              		.loc 2 151 3 view .LVU463
ARM GAS  /tmp/cc0N4oYp.s 			page 42


 1352 0076 43EA0123 		orr	r3, r3, r1, lsl #8
 152:./include/linux/libfdt.h **** }
 1353              		.loc 2 152 7 view .LVU464
 1354 007a E179     		ldrb	r1, [r4, #7]	@ zero_extendqisi2
 152:./include/linux/libfdt.h **** }
 1355              		.loc 2 152 3 view .LVU465
 1356 007c 0B43     		orrs	r3, r3, r1
 1357              	.LVL109:
 152:./include/linux/libfdt.h **** }
 1358              		.loc 2 152 3 view .LVU466
 1359              	.LBE290:
 1360              	.LBE289:
 162:./lib/fdt/fdt_sw.c **** 	    headsize + tailsize > fdt_totalsize(fdt))
 1361              		.loc 1 162 29 discriminator 1 view .LVU467
 1362 007e 9A42     		cmp	r2, r3
 1363 0080 3DD8     		bhi	.L52
 166:./lib/fdt/fdt_sw.c **** 		return -FDT_ERR_NOSPACE;
 1364              		.loc 1 166 2 is_stmt 1 view .LVU468
 166:./lib/fdt/fdt_sw.c **** 		return -FDT_ERR_NOSPACE;
 1365              		.loc 1 166 5 is_stmt 0 view .LVU469
 1366 0082 4245     		cmp	r2, r8
 1367 0084 3ED8     		bhi	.L53
 169:./lib/fdt/fdt_sw.c **** 	newtail = (char *)buf + bufsize - tailsize;
 1368              		.loc 1 169 2 is_stmt 1 view .LVU470
 1369              	.LVL110:
 169:./lib/fdt/fdt_sw.c **** 	newtail = (char *)buf + bufsize - tailsize;
 1370              		.loc 1 169 45 is_stmt 0 discriminator 1 view .LVU471
 1371 0086 9B1B     		subs	r3, r3, r6
 169:./lib/fdt/fdt_sw.c **** 	newtail = (char *)buf + bufsize - tailsize;
 1372              		.loc 1 169 10 discriminator 1 view .LVU472
 1373 0088 04EB030A 		add	r10, r4, r3
 1374              	.LVL111:
 170:./lib/fdt/fdt_sw.c **** 
 1375              		.loc 1 170 2 is_stmt 1 view .LVU473
 170:./lib/fdt/fdt_sw.c **** 
 1376              		.loc 1 170 34 is_stmt 0 view .LVU474
 1377 008c A8EB0600 		sub	r0, r8, r6
 1378              	.LVL112:
 170:./lib/fdt/fdt_sw.c **** 
 1379              		.loc 1 170 10 view .LVU475
 1380 0090 07EB000B 		add	fp, r7, r0
 1381              	.LVL113:
 174:./lib/fdt/fdt_sw.c **** 		memmove(buf, fdt, headsize);
 1382              		.loc 1 174 2 is_stmt 1 view .LVU476
 174:./lib/fdt/fdt_sw.c **** 		memmove(buf, fdt, headsize);
 1383              		.loc 1 174 5 is_stmt 0 view .LVU477
 1384 0094 BC42     		cmp	r4, r7
 1385 0096 24D3     		bcc	.L49
 175:./lib/fdt/fdt_sw.c **** 		memmove(newtail, oldtail, tailsize);
 1386              		.loc 1 175 3 is_stmt 1 view .LVU478
 1387 0098 2A46     		mov	r2, r5
 1388 009a 2146     		mov	r1, r4
 1389 009c 3846     		mov	r0, r7
 1390 009e FFF7FEFF 		bl	memmove
 1391              	.LVL114:
 176:./lib/fdt/fdt_sw.c **** 	} else {
 1392              		.loc 1 176 3 view .LVU479
ARM GAS  /tmp/cc0N4oYp.s 			page 43


 1393 00a2 3246     		mov	r2, r6
 1394 00a4 5146     		mov	r1, r10
 1395 00a6 5846     		mov	r0, fp
 1396 00a8 FFF7FEFF 		bl	memmove
 1397              	.LVL115:
 1398              	.L50:
 182:./lib/fdt/fdt_sw.c **** 	if (fdt_off_dt_strings(buf))
 1399              		.loc 1 182 2 view .LVU480
 1400              	.LBB291:
 1401              	.LBI291:
 271:./include/linux/libfdt.h **** fdt_set_hdr_(off_dt_struct)
 1402              		.loc 2 271 1 view .LVU481
 1403              	.LBB292:
 271:./include/linux/libfdt.h **** fdt_set_hdr_(off_dt_struct)
 1404              		.loc 2 271 1 view .LVU482
 271:./include/linux/libfdt.h **** fdt_set_hdr_(off_dt_struct)
 1405              		.loc 2 271 1 view .LVU483
 1406              	.LBB293:
 1407              	.LBI293:
  57:./include/linux/libfdt_env.h **** {
 1408              		.loc 3 57 23 view .LVU484
 1409              	.LBB294:
 1410              		.loc 3 59 2 view .LVU485
 1411              		.loc 3 59 28 is_stmt 0 view .LVU486
 1412 00ac C8F30723 		ubfx	r3, r8, #8, #8
 1413 00b0 1B04     		lsls	r3, r3, #16
 1414 00b2 43EA0863 		orr	r3, r3, r8, lsl #24
 1415 00b6 C8F30742 		ubfx	r2, r8, #16, #8
 1416 00ba 43EA0223 		orr	r3, r3, r2, lsl #8
 1417              		.loc 3 59 9 view .LVU487
 1418 00be 43EA1863 		orr	r3, r3, r8, lsr #24
 1419              	.LVL116:
 1420              		.loc 3 59 9 view .LVU488
 1421              	.LBE294:
 1422              	.LBE293:
 271:./include/linux/libfdt.h **** fdt_set_hdr_(off_dt_struct)
 1423              		.loc 2 271 1 discriminator 1 view .LVU489
 1424 00c2 7B60     		str	r3, [r7, #4]
 1425              	.LVL117:
 271:./include/linux/libfdt.h **** fdt_set_hdr_(off_dt_struct)
 1426              		.loc 2 271 1 discriminator 1 view .LVU490
 1427              	.LBE292:
 1428              	.LBE291:
 183:./lib/fdt/fdt_sw.c **** 		fdt_set_off_dt_strings(buf, bufsize);
 1429              		.loc 1 183 2 is_stmt 1 view .LVU491
 1430              	.LBB295:
 1431              	.LBI295:
 145:./include/linux/libfdt.h **** {
 1432              		.loc 2 145 24 view .LVU492
 1433              	.LBB296:
 147:./include/linux/libfdt.h **** 
 1434              		.loc 2 147 2 view .LVU493
 149:./include/linux/libfdt.h **** 		| ((uint32_t)bp[1] << 16)
 1435              		.loc 2 149 2 view .LVU494
 149:./include/linux/libfdt.h **** 		| ((uint32_t)bp[1] << 16)
 1436              		.loc 2 149 22 is_stmt 0 view .LVU495
 1437 00c4 397B     		ldrb	r1, [r7, #12]	@ zero_extendqisi2
ARM GAS  /tmp/cc0N4oYp.s 			page 44


 150:./include/linux/libfdt.h **** 		| ((uint32_t)bp[2] << 8)
 1438              		.loc 2 150 18 view .LVU496
 1439 00c6 7A7B     		ldrb	r2, [r7, #13]	@ zero_extendqisi2
 150:./include/linux/libfdt.h **** 		| ((uint32_t)bp[2] << 8)
 1440              		.loc 2 150 22 view .LVU497
 1441 00c8 1204     		lsls	r2, r2, #16
 150:./include/linux/libfdt.h **** 		| ((uint32_t)bp[2] << 8)
 1442              		.loc 2 150 3 view .LVU498
 1443 00ca 42EA0162 		orr	r2, r2, r1, lsl #24
 151:./include/linux/libfdt.h **** 		| bp[3];
 1444              		.loc 2 151 18 view .LVU499
 1445 00ce B97B     		ldrb	r1, [r7, #14]	@ zero_extendqisi2
 151:./include/linux/libfdt.h **** 		| bp[3];
 1446              		.loc 2 151 3 view .LVU500
 1447 00d0 42EA0122 		orr	r2, r2, r1, lsl #8
 152:./include/linux/libfdt.h **** }
 1448              		.loc 2 152 7 view .LVU501
 1449 00d4 F97B     		ldrb	r1, [r7, #15]	@ zero_extendqisi2
 1450              	.LVL118:
 152:./include/linux/libfdt.h **** }
 1451              		.loc 2 152 7 view .LVU502
 1452              	.LBE296:
 1453              	.LBE295:
 183:./lib/fdt/fdt_sw.c **** 		fdt_set_off_dt_strings(buf, bufsize);
 1454              		.loc 1 183 5 discriminator 1 view .LVU503
 1455 00d6 0A43     		orrs	r2, r2, r1
 1456 00d8 00D0     		beq	.L47
 184:./lib/fdt/fdt_sw.c **** 
 1457              		.loc 1 184 3 is_stmt 1 view .LVU504
 1458              	.LVL119:
 1459              	.LBB297:
 1460              	.LBI297:
 273:./include/linux/libfdt.h **** fdt_set_hdr_(off_mem_rsvmap)
 1461              		.loc 2 273 1 view .LVU505
 1462              	.LBB298:
 273:./include/linux/libfdt.h **** fdt_set_hdr_(off_mem_rsvmap)
 1463              		.loc 2 273 1 view .LVU506
 273:./include/linux/libfdt.h **** fdt_set_hdr_(off_mem_rsvmap)
 1464              		.loc 2 273 1 view .LVU507
 273:./include/linux/libfdt.h **** fdt_set_hdr_(off_mem_rsvmap)
 1465              		.loc 2 273 1 is_stmt 0 discriminator 1 view .LVU508
 1466 00da FB60     		str	r3, [r7, #12]
 1467              	.LVL120:
 1468              	.L47:
 273:./include/linux/libfdt.h **** fdt_set_hdr_(off_mem_rsvmap)
 1469              		.loc 2 273 1 discriminator 1 view .LVU509
 1470              	.LBE298:
 1471              	.LBE297:
 187:./lib/fdt/fdt_sw.c **** 
 1472              		.loc 1 187 1 view .LVU510
 1473 00dc 4846     		mov	r0, r9
 1474 00de BDE8F88F 		pop	{r3, r4, r5, r6, r7, r8, r9, r10, fp, pc}
 1475              	.LVL121:
 1476              	.L49:
 178:./lib/fdt/fdt_sw.c **** 		memmove(buf, fdt, headsize);
 1477              		.loc 1 178 3 is_stmt 1 view .LVU511
 1478 00e2 3246     		mov	r2, r6
ARM GAS  /tmp/cc0N4oYp.s 			page 45


 1479 00e4 5146     		mov	r1, r10
 1480 00e6 5846     		mov	r0, fp
 1481 00e8 FFF7FEFF 		bl	memmove
 1482              	.LVL122:
 179:./lib/fdt/fdt_sw.c **** 	}
 1483              		.loc 1 179 3 view .LVU512
 1484 00ec 2A46     		mov	r2, r5
 1485 00ee 2146     		mov	r1, r4
 1486 00f0 3846     		mov	r0, r7
 1487 00f2 FFF7FEFF 		bl	memmove
 1488              	.LVL123:
 1489 00f6 D9E7     		b	.L50
 1490              	.LVL124:
 1491              	.L51:
 157:./lib/fdt/fdt_sw.c **** 
 1492              		.loc 1 157 10 is_stmt 0 view .LVU513
 1493 00f8 6FF00209 		mvn	r9, #2
 1494 00fc EEE7     		b	.L47
 1495              	.LVL125:
 1496              	.L52:
 164:./lib/fdt/fdt_sw.c **** 
 1497              		.loc 1 164 10 view .LVU514
 1498 00fe 6FF00C09 		mvn	r9, #12
 1499 0102 EBE7     		b	.L47
 1500              	.L53:
 167:./lib/fdt/fdt_sw.c **** 
 1501              		.loc 1 167 10 view .LVU515
 1502 0104 6FF00209 		mvn	r9, #2
 1503 0108 E8E7     		b	.L47
 1504              		.cfi_endproc
 1505              	.LFE82:
 1507              		.section	.text.fdt_add_reservemap_entry,"ax",%progbits
 1508              		.align	1
 1509              		.global	fdt_add_reservemap_entry
 1510              		.syntax unified
 1511              		.thumb
 1512              		.thumb_func
 1514              	fdt_add_reservemap_entry:
 1515              	.LVL126:
 1516              	.LFB83:
 190:./lib/fdt/fdt_sw.c **** 	struct fdt_reserve_entry *re;
 1517              		.loc 1 190 1 is_stmt 1 view -0
 1518              		.cfi_startproc
 1519              		@ args = 0, pretend = 0, frame = 8
 1520              		@ frame_needed = 0, uses_anonymous_args = 0
 190:./lib/fdt/fdt_sw.c **** 	struct fdt_reserve_entry *re;
 1521              		.loc 1 190 1 is_stmt 0 view .LVU517
 1522 0000 70B5     		push	{r4, r5, r6, lr}
 1523              	.LCFI12:
 1524              		.cfi_def_cfa_offset 16
 1525              		.cfi_offset 4, -16
 1526              		.cfi_offset 5, -12
 1527              		.cfi_offset 6, -8
 1528              		.cfi_offset 14, -4
 1529 0002 82B0     		sub	sp, sp, #8
 1530              	.LCFI13:
 1531              		.cfi_def_cfa_offset 24
ARM GAS  /tmp/cc0N4oYp.s 			page 46


 1532 0004 0446     		mov	r4, r0
 1533 0006 0E46     		mov	r6, r1
 1534 0008 1546     		mov	r5, r2
 191:./lib/fdt/fdt_sw.c **** 	int offset;
 1535              		.loc 1 191 2 is_stmt 1 view .LVU518
 192:./lib/fdt/fdt_sw.c **** 
 1536              		.loc 1 192 2 view .LVU519
 1537              	.LBB299:
 194:./lib/fdt/fdt_sw.c **** 
 1538              		.loc 1 194 2 view .LVU520
 194:./lib/fdt/fdt_sw.c **** 
 1539              		.loc 1 194 2 view .LVU521
 1540 000a FFF7FEFF 		bl	fdt_sw_probe_memrsv_
 1541              	.LVL127:
 194:./lib/fdt/fdt_sw.c **** 
 1542              		.loc 1 194 2 is_stmt 0 discriminator 1 view .LVU522
 1543 000e 0028     		cmp	r0, #0
 1544 0010 36D1     		bne	.L55
 1545              	.LBE299:
 194:./lib/fdt/fdt_sw.c **** 
 1546              		.loc 1 194 26 is_stmt 1 discriminator 2 view .LVU523
 196:./lib/fdt/fdt_sw.c **** 	if ((offset + sizeof(*re)) > fdt_totalsize(fdt))
 1547              		.loc 1 196 2 view .LVU524
 1548              	.LVL128:
 1549              	.LBB300:
 1550              	.LBI300:
 145:./include/linux/libfdt.h **** {
 1551              		.loc 2 145 24 view .LVU525
 1552              	.LBB301:
 147:./include/linux/libfdt.h **** 
 1553              		.loc 2 147 2 view .LVU526
 149:./include/linux/libfdt.h **** 		| ((uint32_t)bp[1] << 16)
 1554              		.loc 2 149 2 view .LVU527
 149:./include/linux/libfdt.h **** 		| ((uint32_t)bp[1] << 16)
 1555              		.loc 2 149 22 is_stmt 0 view .LVU528
 1556 0012 227A     		ldrb	r2, [r4, #8]	@ zero_extendqisi2
 150:./include/linux/libfdt.h **** 		| ((uint32_t)bp[2] << 8)
 1557              		.loc 2 150 18 view .LVU529
 1558 0014 637A     		ldrb	r3, [r4, #9]	@ zero_extendqisi2
 150:./include/linux/libfdt.h **** 		| ((uint32_t)bp[2] << 8)
 1559              		.loc 2 150 22 view .LVU530
 1560 0016 1B04     		lsls	r3, r3, #16
 150:./include/linux/libfdt.h **** 		| ((uint32_t)bp[2] << 8)
 1561              		.loc 2 150 3 view .LVU531
 1562 0018 43EA0263 		orr	r3, r3, r2, lsl #24
 151:./include/linux/libfdt.h **** 		| bp[3];
 1563              		.loc 2 151 18 view .LVU532
 1564 001c A27A     		ldrb	r2, [r4, #10]	@ zero_extendqisi2
 151:./include/linux/libfdt.h **** 		| bp[3];
 1565              		.loc 2 151 3 view .LVU533
 1566 001e 43EA0223 		orr	r3, r3, r2, lsl #8
 152:./include/linux/libfdt.h **** }
 1567              		.loc 2 152 7 view .LVU534
 1568 0022 E27A     		ldrb	r2, [r4, #11]	@ zero_extendqisi2
 152:./include/linux/libfdt.h **** }
 1569              		.loc 2 152 3 view .LVU535
 1570 0024 1343     		orrs	r3, r3, r2
ARM GAS  /tmp/cc0N4oYp.s 			page 47


 1571              	.LVL129:
 152:./include/linux/libfdt.h **** }
 1572              		.loc 2 152 3 view .LVU536
 1573              	.LBE301:
 1574              	.LBE300:
 197:./lib/fdt/fdt_sw.c **** 		return -FDT_ERR_NOSPACE;
 1575              		.loc 1 197 2 is_stmt 1 view .LVU537
 197:./lib/fdt/fdt_sw.c **** 		return -FDT_ERR_NOSPACE;
 1576              		.loc 1 197 14 is_stmt 0 view .LVU538
 1577 0026 03F1080C 		add	ip, r3, #8
 1578              	.LVL130:
 1579              	.LBB302:
 1580              	.LBI302:
 145:./include/linux/libfdt.h **** {
 1581              		.loc 2 145 24 is_stmt 1 view .LVU539
 1582              	.LBB303:
 147:./include/linux/libfdt.h **** 
 1583              		.loc 2 147 2 view .LVU540
 149:./include/linux/libfdt.h **** 		| ((uint32_t)bp[1] << 16)
 1584              		.loc 2 149 2 view .LVU541
 149:./include/linux/libfdt.h **** 		| ((uint32_t)bp[1] << 16)
 1585              		.loc 2 149 22 is_stmt 0 view .LVU542
 1586 002a 2179     		ldrb	r1, [r4, #4]	@ zero_extendqisi2
 150:./include/linux/libfdt.h **** 		| ((uint32_t)bp[2] << 8)
 1587              		.loc 2 150 18 view .LVU543
 1588 002c 6279     		ldrb	r2, [r4, #5]	@ zero_extendqisi2
 150:./include/linux/libfdt.h **** 		| ((uint32_t)bp[2] << 8)
 1589              		.loc 2 150 22 view .LVU544
 1590 002e 1204     		lsls	r2, r2, #16
 150:./include/linux/libfdt.h **** 		| ((uint32_t)bp[2] << 8)
 1591              		.loc 2 150 3 view .LVU545
 1592 0030 42EA0162 		orr	r2, r2, r1, lsl #24
 151:./include/linux/libfdt.h **** 		| bp[3];
 1593              		.loc 2 151 18 view .LVU546
 1594 0034 A179     		ldrb	r1, [r4, #6]	@ zero_extendqisi2
 151:./include/linux/libfdt.h **** 		| bp[3];
 1595              		.loc 2 151 3 view .LVU547
 1596 0036 42EA0122 		orr	r2, r2, r1, lsl #8
 152:./include/linux/libfdt.h **** }
 1597              		.loc 2 152 7 view .LVU548
 1598 003a E179     		ldrb	r1, [r4, #7]	@ zero_extendqisi2
 152:./include/linux/libfdt.h **** }
 1599              		.loc 2 152 3 view .LVU549
 1600 003c 0A43     		orrs	r2, r2, r1
 1601              	.LVL131:
 152:./include/linux/libfdt.h **** }
 1602              		.loc 2 152 3 view .LVU550
 1603              	.LBE303:
 1604              	.LBE302:
 197:./lib/fdt/fdt_sw.c **** 		return -FDT_ERR_NOSPACE;
 1605              		.loc 1 197 5 discriminator 1 view .LVU551
 1606 003e 9445     		cmp	ip, r2
 1607 0040 20D8     		bhi	.L57
 200:./lib/fdt/fdt_sw.c **** 	re->address = cpu_to_fdt64(addr);
 1608              		.loc 1 200 2 is_stmt 1 view .LVU552
 200:./lib/fdt/fdt_sw.c **** 	re->address = cpu_to_fdt64(addr);
 1609              		.loc 1 200 5 is_stmt 0 view .LVU553
ARM GAS  /tmp/cc0N4oYp.s 			page 48


 1610 0042 E218     		adds	r2, r4, r3
 1611              	.LVL132:
 201:./lib/fdt/fdt_sw.c **** 	re->size = cpu_to_fdt64(size);
 1612              		.loc 1 201 2 is_stmt 1 view .LVU554
 1613              	.LBB304:
 1614              	.LBI304:
  60:./include/linux/libfdt_env.h **** }
  61:./include/linux/libfdt_env.h **** 
  62:./include/linux/libfdt_env.h **** static inline uint64_t fdt64_to_cpu(fdt64_t x)
  63:./include/linux/libfdt_env.h **** {
  64:./include/linux/libfdt_env.h **** 	return (FDT_FORCE uint64_t)CPU_TO_FDT64(x);
  65:./include/linux/libfdt_env.h **** }
  66:./include/linux/libfdt_env.h **** static inline fdt64_t cpu_to_fdt64(uint64_t x)
 1615              		.loc 3 66 23 view .LVU555
 1616              	.LBB305:
  67:./include/linux/libfdt_env.h **** {
  68:./include/linux/libfdt_env.h **** 	return (FDT_FORCE fdt64_t)CPU_TO_FDT64(x);
 1617              		.loc 3 68 2 view .LVU556
 1618              		.loc 3 68 28 is_stmt 0 view .LVU557
 1619 0044 0196     		str	r6, [sp, #4]
 1620 0046 9DF80860 		ldrb	r6, [sp, #8]	@ zero_extendqisi2
 1621              	.LVL133:
 1622              		.loc 3 68 28 view .LVU558
 1623 004a 9DF80910 		ldrb	r1, [sp, #9]	@ zero_extendqisi2
 1624 004e 0904     		lsls	r1, r1, #16
 1625 0050 41EA0661 		orr	r1, r1, r6, lsl #24
 1626 0054 9DF80A60 		ldrb	r6, [sp, #10]	@ zero_extendqisi2
 1627 0058 41EA0621 		orr	r1, r1, r6, lsl #8
 1628 005c 9DF80B60 		ldrb	r6, [sp, #11]	@ zero_extendqisi2
 1629              		.loc 3 68 9 view .LVU559
 1630 0060 3143     		orrs	r1, r1, r6
 1631              	.LVL134:
 1632              		.loc 3 68 9 view .LVU560
 1633              	.LBE305:
 1634              	.LBE304:
 201:./lib/fdt/fdt_sw.c **** 	re->size = cpu_to_fdt64(size);
 1635              		.loc 1 201 14 discriminator 1 view .LVU561
 1636 0062 E150     		str	r1, [r4, r3]
 1637              	.LVL135:
 202:./lib/fdt/fdt_sw.c **** 
 1638              		.loc 1 202 2 is_stmt 1 view .LVU562
 1639              	.LBB306:
 1640              	.LBI306:
  66:./include/linux/libfdt_env.h **** {
 1641              		.loc 3 66 23 view .LVU563
 1642              	.LBB307:
 1643              		.loc 3 68 2 view .LVU564
 1644              		.loc 3 68 28 is_stmt 0 view .LVU565
 1645 0064 0195     		str	r5, [sp, #4]
 1646              	.LVL136:
 1647              		.loc 3 68 28 view .LVU566
 1648              	.LBE307:
 1649              	.LBE306:
 202:./lib/fdt/fdt_sw.c **** 
 1650              		.loc 1 202 11 discriminator 1 view .LVU567
 1651 0066 5160     		str	r1, [r2, #4]
 204:./lib/fdt/fdt_sw.c **** 
ARM GAS  /tmp/cc0N4oYp.s 			page 49


 1652              		.loc 1 204 2 is_stmt 1 view .LVU568
 1653              	.LVL137:
 1654              	.LBB308:
 1655              	.LBI308:
 272:./include/linux/libfdt.h **** fdt_set_hdr_(off_dt_strings)
 1656              		.loc 2 272 1 view .LVU569
 1657              	.LBB309:
 272:./include/linux/libfdt.h **** fdt_set_hdr_(off_dt_strings)
 1658              		.loc 2 272 1 view .LVU570
 272:./include/linux/libfdt.h **** fdt_set_hdr_(off_dt_strings)
 1659              		.loc 2 272 1 view .LVU571
 1660              	.LBB310:
 1661              	.LBI310:
  57:./include/linux/libfdt_env.h **** {
 1662              		.loc 3 57 23 view .LVU572
 1663              	.LBB311:
  59:./include/linux/libfdt_env.h **** }
 1664              		.loc 3 59 2 view .LVU573
  59:./include/linux/libfdt_env.h **** }
 1665              		.loc 3 59 28 is_stmt 0 view .LVU574
 1666 0068 CCF30723 		ubfx	r3, ip, #8, #8
 1667              	.LVL138:
  59:./include/linux/libfdt_env.h **** }
 1668              		.loc 3 59 28 view .LVU575
 1669 006c 1B04     		lsls	r3, r3, #16
 1670 006e 43EA0C63 		orr	r3, r3, ip, lsl #24
 1671 0072 CCF30742 		ubfx	r2, ip, #16, #8
 1672              	.LVL139:
  59:./include/linux/libfdt_env.h **** }
 1673              		.loc 3 59 28 view .LVU576
 1674 0076 43EA0223 		orr	r3, r3, r2, lsl #8
  59:./include/linux/libfdt_env.h **** }
 1675              		.loc 3 59 9 view .LVU577
 1676 007a 43EA1C63 		orr	r3, r3, ip, lsr #24
 1677              	.LVL140:
  59:./include/linux/libfdt_env.h **** }
 1678              		.loc 3 59 9 view .LVU578
 1679              	.LBE311:
 1680              	.LBE310:
 272:./include/linux/libfdt.h **** fdt_set_hdr_(off_dt_strings)
 1681              		.loc 2 272 1 discriminator 1 view .LVU579
 1682 007e A360     		str	r3, [r4, #8]
 1683              	.LVL141:
 272:./include/linux/libfdt.h **** fdt_set_hdr_(off_dt_strings)
 1684              		.loc 2 272 1 discriminator 1 view .LVU580
 1685              	.LBE309:
 1686              	.LBE308:
 206:./lib/fdt/fdt_sw.c **** }
 1687              		.loc 1 206 2 is_stmt 1 view .LVU581
 1688              	.L55:
 207:./lib/fdt/fdt_sw.c **** 
 1689              		.loc 1 207 1 is_stmt 0 view .LVU582
 1690 0080 02B0     		add	sp, sp, #8
 1691              	.LCFI14:
 1692              		.cfi_remember_state
 1693              		.cfi_def_cfa_offset 16
 1694              		@ sp needed
ARM GAS  /tmp/cc0N4oYp.s 			page 50


 1695 0082 70BD     		pop	{r4, r5, r6, pc}
 1696              	.LVL142:
 1697              	.L57:
 1698              	.LCFI15:
 1699              		.cfi_restore_state
 198:./lib/fdt/fdt_sw.c **** 
 1700              		.loc 1 198 10 view .LVU583
 1701 0084 6FF00200 		mvn	r0, #2
 1702 0088 FAE7     		b	.L55
 1703              		.cfi_endproc
 1704              	.LFE83:
 1706              		.section	.text.fdt_finish_reservemap,"ax",%progbits
 1707              		.align	1
 1708              		.global	fdt_finish_reservemap
 1709              		.syntax unified
 1710              		.thumb
 1711              		.thumb_func
 1713              	fdt_finish_reservemap:
 1714              	.LVL143:
 1715              	.LFB84:
 210:./lib/fdt/fdt_sw.c **** 	int err = fdt_add_reservemap_entry(fdt, 0, 0);
 1716              		.loc 1 210 1 is_stmt 1 view -0
 1717              		.cfi_startproc
 1718              		@ args = 0, pretend = 0, frame = 0
 1719              		@ frame_needed = 0, uses_anonymous_args = 0
 210:./lib/fdt/fdt_sw.c **** 	int err = fdt_add_reservemap_entry(fdt, 0, 0);
 1720              		.loc 1 210 1 is_stmt 0 view .LVU585
 1721 0000 10B5     		push	{r4, lr}
 1722              	.LCFI16:
 1723              		.cfi_def_cfa_offset 8
 1724              		.cfi_offset 4, -8
 1725              		.cfi_offset 14, -4
 1726 0002 0446     		mov	r4, r0
 211:./lib/fdt/fdt_sw.c **** 
 1727              		.loc 1 211 2 is_stmt 1 view .LVU586
 211:./lib/fdt/fdt_sw.c **** 
 1728              		.loc 1 211 12 is_stmt 0 view .LVU587
 1729 0004 0022     		movs	r2, #0
 1730 0006 1146     		mov	r1, r2
 1731 0008 FFF7FEFF 		bl	fdt_add_reservemap_entry
 1732              	.LVL144:
 213:./lib/fdt/fdt_sw.c **** 		return err;
 1733              		.loc 1 213 2 is_stmt 1 view .LVU588
 213:./lib/fdt/fdt_sw.c **** 		return err;
 1734              		.loc 1 213 5 is_stmt 0 view .LVU589
 1735 000c 50B9     		cbnz	r0, .L59
 216:./lib/fdt/fdt_sw.c **** 	return 0;
 1736              		.loc 1 216 2 is_stmt 1 view .LVU590
 1737              	.LVL145:
 1738              	.LBB312:
 1739              	.LBI312:
 145:./include/linux/libfdt.h **** {
 1740              		.loc 2 145 24 view .LVU591
 1741              	.LBB313:
 147:./include/linux/libfdt.h **** 
 1742              		.loc 2 147 2 view .LVU592
 149:./include/linux/libfdt.h **** 		| ((uint32_t)bp[1] << 16)
ARM GAS  /tmp/cc0N4oYp.s 			page 51


 1743              		.loc 2 149 2 view .LVU593
 150:./include/linux/libfdt.h **** 		| ((uint32_t)bp[2] << 8)
 1744              		.loc 2 150 18 is_stmt 0 view .LVU594
 1745 000e 6279     		ldrb	r2, [r4, #5]	@ zero_extendqisi2
 151:./include/linux/libfdt.h **** 		| bp[3];
 1746              		.loc 2 151 18 view .LVU595
 1747 0010 A379     		ldrb	r3, [r4, #6]	@ zero_extendqisi2
 152:./include/linux/libfdt.h **** }
 1748              		.loc 2 152 7 view .LVU596
 1749 0012 E179     		ldrb	r1, [r4, #7]	@ zero_extendqisi2
 1750              	.LVL146:
 152:./include/linux/libfdt.h **** }
 1751              		.loc 2 152 7 view .LVU597
 1752              	.LBE313:
 1753              	.LBE312:
 1754              	.LBB314:
 1755              	.LBI314:
 273:./include/linux/libfdt.h **** fdt_set_hdr_(off_mem_rsvmap)
 1756              		.loc 2 273 1 is_stmt 1 view .LVU598
 1757              	.LBB315:
 273:./include/linux/libfdt.h **** fdt_set_hdr_(off_mem_rsvmap)
 1758              		.loc 2 273 1 view .LVU599
 273:./include/linux/libfdt.h **** fdt_set_hdr_(off_mem_rsvmap)
 1759              		.loc 2 273 1 view .LVU600
 1760              	.LBB316:
 1761              	.LBI316:
  57:./include/linux/libfdt_env.h **** {
 1762              		.loc 3 57 23 view .LVU601
 1763              	.LBB317:
  59:./include/linux/libfdt_env.h **** }
 1764              		.loc 3 59 2 view .LVU602
  59:./include/linux/libfdt_env.h **** }
 1765              		.loc 3 59 28 is_stmt 0 view .LVU603
 1766 0014 1B04     		lsls	r3, r3, #16
 1767              	.LVL147:
  59:./include/linux/libfdt_env.h **** }
 1768              		.loc 3 59 28 view .LVU604
 1769 0016 43EA0163 		orr	r3, r3, r1, lsl #24
 1770 001a 43EA0223 		orr	r3, r3, r2, lsl #8
 1771 001e 2279     		ldrb	r2, [r4, #4]	@ zero_extendqisi2
 1772              	.LVL148:
  59:./include/linux/libfdt_env.h **** }
 1773              		.loc 3 59 9 view .LVU605
 1774 0020 1343     		orrs	r3, r3, r2
 1775              	.LVL149:
  59:./include/linux/libfdt_env.h **** }
 1776              		.loc 3 59 9 view .LVU606
 1777              	.LBE317:
 1778              	.LBE316:
 273:./include/linux/libfdt.h **** fdt_set_hdr_(off_mem_rsvmap)
 1779              		.loc 2 273 1 discriminator 1 view .LVU607
 1780 0022 E360     		str	r3, [r4, #12]
 1781              	.LVL150:
 273:./include/linux/libfdt.h **** fdt_set_hdr_(off_mem_rsvmap)
 1782              		.loc 2 273 1 discriminator 1 view .LVU608
 1783              	.LBE315:
 1784              	.LBE314:
ARM GAS  /tmp/cc0N4oYp.s 			page 52


 217:./lib/fdt/fdt_sw.c **** }
 1785              		.loc 1 217 2 is_stmt 1 view .LVU609
 1786              	.L59:
 218:./lib/fdt/fdt_sw.c **** 
 1787              		.loc 1 218 1 is_stmt 0 view .LVU610
 1788 0024 10BD     		pop	{r4, pc}
 218:./lib/fdt/fdt_sw.c **** 
 1789              		.loc 1 218 1 view .LVU611
 1790              		.cfi_endproc
 1791              	.LFE84:
 1793              		.section	.text.fdt_begin_node,"ax",%progbits
 1794              		.align	1
 1795              		.global	fdt_begin_node
 1796              		.syntax unified
 1797              		.thumb
 1798              		.thumb_func
 1800              	fdt_begin_node:
 1801              	.LVL151:
 1802              	.LFB85:
 221:./lib/fdt/fdt_sw.c **** 	struct fdt_node_header *nh;
 1803              		.loc 1 221 1 is_stmt 1 view -0
 1804              		.cfi_startproc
 1805              		@ args = 0, pretend = 0, frame = 0
 1806              		@ frame_needed = 0, uses_anonymous_args = 0
 221:./lib/fdt/fdt_sw.c **** 	struct fdt_node_header *nh;
 1807              		.loc 1 221 1 is_stmt 0 view .LVU613
 1808 0000 F8B5     		push	{r3, r4, r5, r6, r7, lr}
 1809              	.LCFI17:
 1810              		.cfi_def_cfa_offset 24
 1811              		.cfi_offset 3, -24
 1812              		.cfi_offset 4, -20
 1813              		.cfi_offset 5, -16
 1814              		.cfi_offset 6, -12
 1815              		.cfi_offset 7, -8
 1816              		.cfi_offset 14, -4
 1817 0002 0546     		mov	r5, r0
 1818 0004 0C46     		mov	r4, r1
 222:./lib/fdt/fdt_sw.c **** 	int namelen;
 1819              		.loc 1 222 2 is_stmt 1 view .LVU614
 223:./lib/fdt/fdt_sw.c **** 
 1820              		.loc 1 223 2 view .LVU615
 1821              	.LBB318:
 225:./lib/fdt/fdt_sw.c **** 
 1822              		.loc 1 225 2 view .LVU616
 225:./lib/fdt/fdt_sw.c **** 
 1823              		.loc 1 225 2 view .LVU617
 1824 0006 FFF7FEFF 		bl	fdt_sw_probe_struct_
 1825              	.LVL152:
 225:./lib/fdt/fdt_sw.c **** 
 1826              		.loc 1 225 2 is_stmt 0 discriminator 1 view .LVU618
 1827 000a 0646     		mov	r6, r0
 1828 000c 08B1     		cbz	r0, .L66
 1829              	.LVL153:
 1830              	.L62:
 225:./lib/fdt/fdt_sw.c **** 
 1831              		.loc 1 225 2 discriminator 1 view .LVU619
 1832              	.LBE318:
ARM GAS  /tmp/cc0N4oYp.s 			page 53


 235:./lib/fdt/fdt_sw.c **** 
 1833              		.loc 1 235 1 view .LVU620
 1834 000e 3046     		mov	r0, r6
 1835 0010 F8BD     		pop	{r3, r4, r5, r6, r7, pc}
 1836              	.LVL154:
 1837              	.L66:
 225:./lib/fdt/fdt_sw.c **** 
 1838              		.loc 1 225 26 is_stmt 1 discriminator 2 view .LVU621
 227:./lib/fdt/fdt_sw.c **** 	nh = fdt_grab_space_(fdt, sizeof(*nh) + FDT_TAGALIGN(namelen));
 1839              		.loc 1 227 2 view .LVU622
 227:./lib/fdt/fdt_sw.c **** 	nh = fdt_grab_space_(fdt, sizeof(*nh) + FDT_TAGALIGN(namelen));
 1840              		.loc 1 227 12 is_stmt 0 view .LVU623
 1841 0012 2046     		mov	r0, r4
 1842              	.LVL155:
 227:./lib/fdt/fdt_sw.c **** 	nh = fdt_grab_space_(fdt, sizeof(*nh) + FDT_TAGALIGN(namelen));
 1843              		.loc 1 227 12 view .LVU624
 1844 0014 FFF7FEFF 		bl	strlen
 1845              	.LVL156:
 227:./lib/fdt/fdt_sw.c **** 	nh = fdt_grab_space_(fdt, sizeof(*nh) + FDT_TAGALIGN(namelen));
 1846              		.loc 1 227 25 discriminator 1 view .LVU625
 1847 0018 471C     		adds	r7, r0, #1
 1848              	.LVL157:
 228:./lib/fdt/fdt_sw.c **** 	if (! nh)
 1849              		.loc 1 228 2 is_stmt 1 view .LVU626
 228:./lib/fdt/fdt_sw.c **** 	if (! nh)
 1850              		.loc 1 228 42 is_stmt 0 view .LVU627
 1851 001a 031D     		adds	r3, r0, #4
 1852 001c 23F00303 		bic	r3, r3, #3
 228:./lib/fdt/fdt_sw.c **** 	if (! nh)
 1853              		.loc 1 228 7 view .LVU628
 1854 0020 191D     		adds	r1, r3, #4
 1855 0022 2846     		mov	r0, r5
 1856 0024 FFF7FEFF 		bl	fdt_grab_space_
 1857              	.LVL158:
 229:./lib/fdt/fdt_sw.c **** 		return -FDT_ERR_NOSPACE;
 1858              		.loc 1 229 2 is_stmt 1 view .LVU629
 229:./lib/fdt/fdt_sw.c **** 		return -FDT_ERR_NOSPACE;
 1859              		.loc 1 229 5 is_stmt 0 view .LVU630
 1860 0028 40B1     		cbz	r0, .L64
 232:./lib/fdt/fdt_sw.c **** 	memcpy(nh->name, name, namelen);
 1861              		.loc 1 232 2 is_stmt 1 view .LVU631
 232:./lib/fdt/fdt_sw.c **** 	memcpy(nh->name, name, namelen);
 1862              		.loc 1 232 10 is_stmt 0 discriminator 1 view .LVU632
 1863 002a 4FF08073 		mov	r3, #16777216
 1864 002e 40F8043B 		str	r3, [r0], #4
 1865              	.LVL159:
 233:./lib/fdt/fdt_sw.c **** 	return 0;
 1866              		.loc 1 233 2 is_stmt 1 view .LVU633
 1867 0032 3A46     		mov	r2, r7
 1868 0034 2146     		mov	r1, r4
 1869 0036 FFF7FEFF 		bl	memcpy
 1870              	.LVL160:
 234:./lib/fdt/fdt_sw.c **** }
 1871              		.loc 1 234 2 view .LVU634
 234:./lib/fdt/fdt_sw.c **** }
 1872              		.loc 1 234 9 is_stmt 0 view .LVU635
 1873 003a E8E7     		b	.L62
ARM GAS  /tmp/cc0N4oYp.s 			page 54


 1874              	.LVL161:
 1875              	.L64:
 230:./lib/fdt/fdt_sw.c **** 
 1876              		.loc 1 230 10 view .LVU636
 1877 003c 6FF00206 		mvn	r6, #2
 1878              	.LVL162:
 230:./lib/fdt/fdt_sw.c **** 
 1879              		.loc 1 230 10 view .LVU637
 1880 0040 E5E7     		b	.L62
 1881              		.cfi_endproc
 1882              	.LFE85:
 1884              		.section	.text.fdt_end_node,"ax",%progbits
 1885              		.align	1
 1886              		.global	fdt_end_node
 1887              		.syntax unified
 1888              		.thumb
 1889              		.thumb_func
 1891              	fdt_end_node:
 1892              	.LVL163:
 1893              	.LFB86:
 238:./lib/fdt/fdt_sw.c **** 	fdt32_t *en;
 1894              		.loc 1 238 1 is_stmt 1 view -0
 1895              		.cfi_startproc
 1896              		@ args = 0, pretend = 0, frame = 0
 1897              		@ frame_needed = 0, uses_anonymous_args = 0
 238:./lib/fdt/fdt_sw.c **** 	fdt32_t *en;
 1898              		.loc 1 238 1 is_stmt 0 view .LVU639
 1899 0000 38B5     		push	{r3, r4, r5, lr}
 1900              	.LCFI18:
 1901              		.cfi_def_cfa_offset 16
 1902              		.cfi_offset 3, -16
 1903              		.cfi_offset 4, -12
 1904              		.cfi_offset 5, -8
 1905              		.cfi_offset 14, -4
 1906 0002 0446     		mov	r4, r0
 239:./lib/fdt/fdt_sw.c **** 
 1907              		.loc 1 239 2 is_stmt 1 view .LVU640
 1908              	.LBB319:
 241:./lib/fdt/fdt_sw.c **** 
 1909              		.loc 1 241 2 view .LVU641
 241:./lib/fdt/fdt_sw.c **** 
 1910              		.loc 1 241 2 view .LVU642
 1911 0004 FFF7FEFF 		bl	fdt_sw_probe_struct_
 1912              	.LVL164:
 241:./lib/fdt/fdt_sw.c **** 
 1913              		.loc 1 241 2 is_stmt 0 discriminator 1 view .LVU643
 1914 0008 0546     		mov	r5, r0
 1915 000a 08B1     		cbz	r0, .L71
 1916              	.LVL165:
 1917              	.L67:
 241:./lib/fdt/fdt_sw.c **** 
 1918              		.loc 1 241 2 discriminator 1 view .LVU644
 1919              	.LBE319:
 249:./lib/fdt/fdt_sw.c **** 
 1920              		.loc 1 249 1 view .LVU645
 1921 000c 2846     		mov	r0, r5
 1922 000e 38BD     		pop	{r3, r4, r5, pc}
ARM GAS  /tmp/cc0N4oYp.s 			page 55


 1923              	.LVL166:
 1924              	.L71:
 241:./lib/fdt/fdt_sw.c **** 
 1925              		.loc 1 241 26 is_stmt 1 discriminator 2 view .LVU646
 243:./lib/fdt/fdt_sw.c **** 	if (! en)
 1926              		.loc 1 243 2 view .LVU647
 243:./lib/fdt/fdt_sw.c **** 	if (! en)
 1927              		.loc 1 243 7 is_stmt 0 view .LVU648
 1928 0010 0421     		movs	r1, #4
 1929 0012 2046     		mov	r0, r4
 1930              	.LVL167:
 243:./lib/fdt/fdt_sw.c **** 	if (! en)
 1931              		.loc 1 243 7 view .LVU649
 1932 0014 FFF7FEFF 		bl	fdt_grab_space_
 1933              	.LVL168:
 244:./lib/fdt/fdt_sw.c **** 		return -FDT_ERR_NOSPACE;
 1934              		.loc 1 244 2 is_stmt 1 view .LVU650
 244:./lib/fdt/fdt_sw.c **** 		return -FDT_ERR_NOSPACE;
 1935              		.loc 1 244 5 is_stmt 0 view .LVU651
 1936 0018 18B1     		cbz	r0, .L69
 247:./lib/fdt/fdt_sw.c **** 	return 0;
 1937              		.loc 1 247 2 is_stmt 1 view .LVU652
 247:./lib/fdt/fdt_sw.c **** 	return 0;
 1938              		.loc 1 247 6 is_stmt 0 discriminator 1 view .LVU653
 1939 001a 4FF00072 		mov	r2, #33554432
 1940 001e 0260     		str	r2, [r0]
 248:./lib/fdt/fdt_sw.c **** }
 1941              		.loc 1 248 2 is_stmt 1 view .LVU654
 248:./lib/fdt/fdt_sw.c **** }
 1942              		.loc 1 248 9 is_stmt 0 view .LVU655
 1943 0020 F4E7     		b	.L67
 1944              	.L69:
 245:./lib/fdt/fdt_sw.c **** 
 1945              		.loc 1 245 10 view .LVU656
 1946 0022 6FF00205 		mvn	r5, #2
 1947              	.LVL169:
 245:./lib/fdt/fdt_sw.c **** 
 1948              		.loc 1 245 10 view .LVU657
 1949 0026 F1E7     		b	.L67
 1950              		.cfi_endproc
 1951              	.LFE86:
 1953              		.section	.text.fdt_property_placeholder,"ax",%progbits
 1954              		.align	1
 1955              		.global	fdt_property_placeholder
 1956              		.syntax unified
 1957              		.thumb
 1958              		.thumb_func
 1960              	fdt_property_placeholder:
 1961              	.LVL170:
 1962              	.LFB90:
 293:./lib/fdt/fdt_sw.c **** 
 294:./lib/fdt/fdt_sw.c **** int fdt_property_placeholder(void *fdt, const char *name, int len, void **valp)
 295:./lib/fdt/fdt_sw.c **** {
 1963              		.loc 1 295 1 is_stmt 1 view -0
 1964              		.cfi_startproc
 1965              		@ args = 0, pretend = 0, frame = 8
 1966              		@ frame_needed = 0, uses_anonymous_args = 0
ARM GAS  /tmp/cc0N4oYp.s 			page 56


 1967              		.loc 1 295 1 is_stmt 0 view .LVU659
 1968 0000 2DE9F043 		push	{r4, r5, r6, r7, r8, r9, lr}
 1969              	.LCFI19:
 1970              		.cfi_def_cfa_offset 28
 1971              		.cfi_offset 4, -28
 1972              		.cfi_offset 5, -24
 1973              		.cfi_offset 6, -20
 1974              		.cfi_offset 7, -16
 1975              		.cfi_offset 8, -12
 1976              		.cfi_offset 9, -8
 1977              		.cfi_offset 14, -4
 1978 0004 83B0     		sub	sp, sp, #12
 1979              	.LCFI20:
 1980              		.cfi_def_cfa_offset 40
 1981 0006 8046     		mov	r8, r0
 1982 0008 8946     		mov	r9, r1
 1983 000a 1646     		mov	r6, r2
 1984 000c 1C46     		mov	r4, r3
 296:./lib/fdt/fdt_sw.c **** 	struct fdt_property *prop;
 1985              		.loc 1 296 2 is_stmt 1 view .LVU660
 297:./lib/fdt/fdt_sw.c **** 	int nameoff;
 1986              		.loc 1 297 2 view .LVU661
 298:./lib/fdt/fdt_sw.c **** 	int allocated;
 1987              		.loc 1 298 2 view .LVU662
 1988              	.LBB320:
 299:./lib/fdt/fdt_sw.c **** 
 300:./lib/fdt/fdt_sw.c **** 	FDT_SW_PROBE_STRUCT(fdt);
 1989              		.loc 1 300 2 view .LVU663
 1990              		.loc 1 300 2 view .LVU664
 1991 000e FFF7FEFF 		bl	fdt_sw_probe_struct_
 1992              	.LVL171:
 1993              		.loc 1 300 2 is_stmt 0 discriminator 1 view .LVU665
 1994 0012 0546     		mov	r5, r0
 1995 0014 98BB     		cbnz	r0, .L72
 1996              	.LBE320:
 1997              		.loc 1 300 26 is_stmt 1 discriminator 2 view .LVU666
 301:./lib/fdt/fdt_sw.c **** 
 302:./lib/fdt/fdt_sw.c **** 	/* String de-duplication can be slow, _NO_NAME_DEDUP skips it */
 303:./lib/fdt/fdt_sw.c **** 	if (sw_flags(fdt) & FDT_CREATE_FLAG_NO_NAME_DEDUP) {
 1998              		.loc 1 303 2 view .LVU667
 1999              	.LVL172:
 2000              	.LBB321:
 2001              	.LBI321:
  84:./lib/fdt/fdt_sw.c **** {
 2002              		.loc 1 84 24 view .LVU668
  87:./lib/fdt/fdt_sw.c **** }
 2003              		.loc 1 87 2 view .LVU669
 2004              	.LBB322:
 2005              	.LBI322:
 145:./include/linux/libfdt.h **** {
 2006              		.loc 2 145 24 view .LVU670
 2007              	.LBB323:
 147:./include/linux/libfdt.h **** 
 2008              		.loc 2 147 2 view .LVU671
 149:./include/linux/libfdt.h **** 		| ((uint32_t)bp[1] << 16)
 2009              		.loc 2 149 2 view .LVU672
 152:./include/linux/libfdt.h **** }
ARM GAS  /tmp/cc0N4oYp.s 			page 57


 2010              		.loc 2 152 7 is_stmt 0 view .LVU673
 2011 0016 98F81B30 		ldrb	r3, [r8, #27]	@ zero_extendqisi2
 2012              	.LVL173:
 152:./include/linux/libfdt.h **** }
 2013              		.loc 2 152 7 view .LVU674
 2014              	.LBE323:
 2015              	.LBE322:
 2016              	.LBE321:
 2017              		.loc 1 303 5 discriminator 1 view .LVU675
 2018 001a 13F0010F 		tst	r3, #1
 2019 001e 32D0     		beq	.L74
 304:./lib/fdt/fdt_sw.c **** 		allocated = 1;
 2020              		.loc 1 304 3 is_stmt 1 view .LVU676
 2021              		.loc 1 304 13 is_stmt 0 view .LVU677
 2022 0020 0123     		movs	r3, #1
 2023 0022 0193     		str	r3, [sp, #4]
 305:./lib/fdt/fdt_sw.c **** 		nameoff = fdt_add_string_(fdt, name);
 2024              		.loc 1 305 3 is_stmt 1 view .LVU678
 2025              		.loc 1 305 13 is_stmt 0 view .LVU679
 2026 0024 4946     		mov	r1, r9
 2027 0026 4046     		mov	r0, r8
 2028              	.LVL174:
 2029              		.loc 1 305 13 view .LVU680
 2030 0028 FFF7FEFF 		bl	fdt_add_string_
 2031              	.LVL175:
 2032 002c 0746     		mov	r7, r0
 2033              	.LVL176:
 2034              	.L75:
 306:./lib/fdt/fdt_sw.c **** 	} else {
 307:./lib/fdt/fdt_sw.c **** 		nameoff = fdt_find_add_string_(fdt, name, &allocated);
 308:./lib/fdt/fdt_sw.c **** 	}
 309:./lib/fdt/fdt_sw.c **** 	if (nameoff == 0)
 2035              		.loc 1 309 2 is_stmt 1 view .LVU681
 2036              		.loc 1 309 5 is_stmt 0 view .LVU682
 2037 002e 002F     		cmp	r7, #0
 2038 0030 3AD0     		beq	.L78
 310:./lib/fdt/fdt_sw.c **** 		return -FDT_ERR_NOSPACE;
 311:./lib/fdt/fdt_sw.c **** 
 312:./lib/fdt/fdt_sw.c **** 	prop = fdt_grab_space_(fdt, sizeof(*prop) + FDT_TAGALIGN(len));
 2039              		.loc 1 312 2 is_stmt 1 view .LVU683
 2040              		.loc 1 312 46 is_stmt 0 view .LVU684
 2041 0032 F11C     		adds	r1, r6, #3
 2042 0034 21F00301 		bic	r1, r1, #3
 2043              		.loc 1 312 9 view .LVU685
 2044 0038 0C31     		adds	r1, r1, #12
 2045 003a 4046     		mov	r0, r8
 2046              	.LVL177:
 2047              		.loc 1 312 9 view .LVU686
 2048 003c FFF7FEFF 		bl	fdt_grab_space_
 2049              	.LVL178:
 313:./lib/fdt/fdt_sw.c **** 	if (! prop) {
 2050              		.loc 1 313 2 is_stmt 1 view .LVU687
 2051              		.loc 1 313 5 is_stmt 0 view .LVU688
 2052 0040 40B3     		cbz	r0, .L80
 314:./lib/fdt/fdt_sw.c **** 		if (allocated)
 315:./lib/fdt/fdt_sw.c **** 			fdt_del_last_string_(fdt, name);
 316:./lib/fdt/fdt_sw.c **** 		return -FDT_ERR_NOSPACE;
ARM GAS  /tmp/cc0N4oYp.s 			page 58


 317:./lib/fdt/fdt_sw.c **** 	}
 318:./lib/fdt/fdt_sw.c **** 
 319:./lib/fdt/fdt_sw.c **** 	prop->tag = cpu_to_fdt32(FDT_PROP);
 2053              		.loc 1 319 2 is_stmt 1 view .LVU689
 2054              		.loc 1 319 12 is_stmt 0 discriminator 1 view .LVU690
 2055 0042 4FF04073 		mov	r3, #50331648
 2056 0046 0360     		str	r3, [r0]
 320:./lib/fdt/fdt_sw.c **** 	prop->nameoff = cpu_to_fdt32(nameoff);
 2057              		.loc 1 320 2 is_stmt 1 view .LVU691
 2058              	.LVL179:
 2059              	.LBB324:
 2060              	.LBI324:
  57:./include/linux/libfdt_env.h **** {
 2061              		.loc 3 57 23 view .LVU692
 2062              	.LBB325:
  59:./include/linux/libfdt_env.h **** }
 2063              		.loc 3 59 2 view .LVU693
  59:./include/linux/libfdt_env.h **** }
 2064              		.loc 3 59 28 is_stmt 0 view .LVU694
 2065 0048 C7F30723 		ubfx	r3, r7, #8, #8
 2066 004c 1B04     		lsls	r3, r3, #16
 2067 004e 43EA0763 		orr	r3, r3, r7, lsl #24
 2068 0052 C7F30742 		ubfx	r2, r7, #16, #8
 2069 0056 43EA0223 		orr	r3, r3, r2, lsl #8
  59:./include/linux/libfdt_env.h **** }
 2070              		.loc 3 59 9 view .LVU695
 2071 005a 43EA1763 		orr	r3, r3, r7, lsr #24
 2072              	.LVL180:
  59:./include/linux/libfdt_env.h **** }
 2073              		.loc 3 59 9 view .LVU696
 2074              	.LBE325:
 2075              	.LBE324:
 2076              		.loc 1 320 16 discriminator 1 view .LVU697
 2077 005e 8360     		str	r3, [r0, #8]
 321:./lib/fdt/fdt_sw.c **** 	prop->len = cpu_to_fdt32(len);
 2078              		.loc 1 321 2 is_stmt 1 view .LVU698
 2079              	.LVL181:
 2080              	.LBB326:
 2081              	.LBI326:
  57:./include/linux/libfdt_env.h **** {
 2082              		.loc 3 57 23 view .LVU699
 2083              	.LBB327:
  59:./include/linux/libfdt_env.h **** }
 2084              		.loc 3 59 2 view .LVU700
  59:./include/linux/libfdt_env.h **** }
 2085              		.loc 3 59 28 is_stmt 0 view .LVU701
 2086 0060 C6F30721 		ubfx	r1, r6, #8, #8
 2087 0064 0904     		lsls	r1, r1, #16
 2088 0066 41EA0661 		orr	r1, r1, r6, lsl #24
 2089 006a C6F30743 		ubfx	r3, r6, #16, #8
 2090 006e 41EA0321 		orr	r1, r1, r3, lsl #8
  59:./include/linux/libfdt_env.h **** }
 2091              		.loc 3 59 9 view .LVU702
 2092 0072 41EA1661 		orr	r1, r1, r6, lsr #24
 2093              	.LVL182:
  59:./include/linux/libfdt_env.h **** }
 2094              		.loc 3 59 9 view .LVU703
ARM GAS  /tmp/cc0N4oYp.s 			page 59


 2095              	.LBE327:
 2096              	.LBE326:
 2097              		.loc 1 321 12 discriminator 1 view .LVU704
 2098 0076 4160     		str	r1, [r0, #4]
 322:./lib/fdt/fdt_sw.c **** 	*valp = prop->data;
 2099              		.loc 1 322 2 is_stmt 1 view .LVU705
 2100              		.loc 1 322 10 is_stmt 0 view .LVU706
 2101 0078 00F10C03 		add	r3, r0, #12
 2102              		.loc 1 322 8 view .LVU707
 2103 007c 2360     		str	r3, [r4]
 323:./lib/fdt/fdt_sw.c **** 	return 0;
 2104              		.loc 1 323 2 is_stmt 1 view .LVU708
 2105              	.LVL183:
 2106              	.L72:
 324:./lib/fdt/fdt_sw.c **** }
 2107              		.loc 1 324 1 is_stmt 0 view .LVU709
 2108 007e 2846     		mov	r0, r5
 2109 0080 03B0     		add	sp, sp, #12
 2110              	.LCFI21:
 2111              		.cfi_remember_state
 2112              		.cfi_def_cfa_offset 28
 2113              		@ sp needed
 2114 0082 BDE8F083 		pop	{r4, r5, r6, r7, r8, r9, pc}
 2115              	.LVL184:
 2116              	.L74:
 2117              	.LCFI22:
 2118              		.cfi_restore_state
 307:./lib/fdt/fdt_sw.c **** 	}
 2119              		.loc 1 307 3 is_stmt 1 view .LVU710
 307:./lib/fdt/fdt_sw.c **** 	}
 2120              		.loc 1 307 13 is_stmt 0 view .LVU711
 2121 0086 01AA     		add	r2, sp, #4
 2122 0088 4946     		mov	r1, r9
 2123 008a 4046     		mov	r0, r8
 2124              	.LVL185:
 307:./lib/fdt/fdt_sw.c **** 	}
 2125              		.loc 1 307 13 view .LVU712
 2126 008c FFF7FEFF 		bl	fdt_find_add_string_
 2127              	.LVL186:
 2128 0090 0746     		mov	r7, r0
 2129              	.LVL187:
 307:./lib/fdt/fdt_sw.c **** 	}
 2130              		.loc 1 307 13 view .LVU713
 2131 0092 CCE7     		b	.L75
 2132              	.LVL188:
 2133              	.L80:
 314:./lib/fdt/fdt_sw.c **** 			fdt_del_last_string_(fdt, name);
 2134              		.loc 1 314 3 is_stmt 1 view .LVU714
 314:./lib/fdt/fdt_sw.c **** 			fdt_del_last_string_(fdt, name);
 2135              		.loc 1 314 7 is_stmt 0 view .LVU715
 2136 0094 019B     		ldr	r3, [sp, #4]
 314:./lib/fdt/fdt_sw.c **** 			fdt_del_last_string_(fdt, name);
 2137              		.loc 1 314 6 view .LVU716
 2138 0096 13B9     		cbnz	r3, .L81
 2139              	.LVL189:
 2140              	.L77:
 316:./lib/fdt/fdt_sw.c **** 	}
ARM GAS  /tmp/cc0N4oYp.s 			page 60


 2141              		.loc 1 316 3 is_stmt 1 view .LVU717
 316:./lib/fdt/fdt_sw.c **** 	}
 2142              		.loc 1 316 10 is_stmt 0 view .LVU718
 2143 0098 6FF00205 		mvn	r5, #2
 2144              	.LVL190:
 316:./lib/fdt/fdt_sw.c **** 	}
 2145              		.loc 1 316 10 view .LVU719
 2146 009c EFE7     		b	.L72
 2147              	.LVL191:
 2148              	.L81:
 315:./lib/fdt/fdt_sw.c **** 		return -FDT_ERR_NOSPACE;
 2149              		.loc 1 315 4 is_stmt 1 view .LVU720
 2150 009e 4946     		mov	r1, r9
 2151 00a0 4046     		mov	r0, r8
 2152              	.LVL192:
 315:./lib/fdt/fdt_sw.c **** 		return -FDT_ERR_NOSPACE;
 2153              		.loc 1 315 4 is_stmt 0 view .LVU721
 2154 00a2 FFF7FEFF 		bl	fdt_del_last_string_
 2155              	.LVL193:
 2156 00a6 F7E7     		b	.L77
 2157              	.LVL194:
 2158              	.L78:
 310:./lib/fdt/fdt_sw.c **** 
 2159              		.loc 1 310 10 view .LVU722
 2160 00a8 6FF00205 		mvn	r5, #2
 2161              	.LVL195:
 310:./lib/fdt/fdt_sw.c **** 
 2162              		.loc 1 310 10 view .LVU723
 2163 00ac E7E7     		b	.L72
 2164              		.cfi_endproc
 2165              	.LFE90:
 2167              		.section	.text.fdt_property,"ax",%progbits
 2168              		.align	1
 2169              		.global	fdt_property
 2170              		.syntax unified
 2171              		.thumb
 2172              		.thumb_func
 2174              	fdt_property:
 2175              	.LVL196:
 2176              	.LFB91:
 325:./lib/fdt/fdt_sw.c **** 
 326:./lib/fdt/fdt_sw.c **** int fdt_property(void *fdt, const char *name, const void *val, int len)
 327:./lib/fdt/fdt_sw.c **** {
 2177              		.loc 1 327 1 is_stmt 1 view -0
 2178              		.cfi_startproc
 2179              		@ args = 0, pretend = 0, frame = 8
 2180              		@ frame_needed = 0, uses_anonymous_args = 0
 2181              		.loc 1 327 1 is_stmt 0 view .LVU725
 2182 0000 70B5     		push	{r4, r5, r6, lr}
 2183              	.LCFI23:
 2184              		.cfi_def_cfa_offset 16
 2185              		.cfi_offset 4, -16
 2186              		.cfi_offset 5, -12
 2187              		.cfi_offset 6, -8
 2188              		.cfi_offset 14, -4
 2189 0002 82B0     		sub	sp, sp, #8
 2190              	.LCFI24:
ARM GAS  /tmp/cc0N4oYp.s 			page 61


 2191              		.cfi_def_cfa_offset 24
 2192 0004 1546     		mov	r5, r2
 2193 0006 1C46     		mov	r4, r3
 328:./lib/fdt/fdt_sw.c **** 	void *ptr;
 2194              		.loc 1 328 2 is_stmt 1 view .LVU726
 329:./lib/fdt/fdt_sw.c **** 	int ret;
 2195              		.loc 1 329 2 view .LVU727
 330:./lib/fdt/fdt_sw.c **** 
 331:./lib/fdt/fdt_sw.c **** 	ret = fdt_property_placeholder(fdt, name, len, &ptr);
 2196              		.loc 1 331 2 view .LVU728
 2197              		.loc 1 331 8 is_stmt 0 view .LVU729
 2198 0008 01AB     		add	r3, sp, #4
 2199              	.LVL197:
 2200              		.loc 1 331 8 view .LVU730
 2201 000a 2246     		mov	r2, r4
 2202              	.LVL198:
 2203              		.loc 1 331 8 view .LVU731
 2204 000c FFF7FEFF 		bl	fdt_property_placeholder
 2205              	.LVL199:
 332:./lib/fdt/fdt_sw.c **** 	if (ret)
 2206              		.loc 1 332 2 is_stmt 1 view .LVU732
 2207              		.loc 1 332 5 is_stmt 0 view .LVU733
 2208 0010 0646     		mov	r6, r0
 2209 0012 10B1     		cbz	r0, .L85
 2210              	.LVL200:
 2211              	.L82:
 333:./lib/fdt/fdt_sw.c **** 		return ret;
 334:./lib/fdt/fdt_sw.c **** 	memcpy(ptr, val, len);
 335:./lib/fdt/fdt_sw.c **** 	return 0;
 336:./lib/fdt/fdt_sw.c **** }
 2212              		.loc 1 336 1 view .LVU734
 2213 0014 3046     		mov	r0, r6
 2214 0016 02B0     		add	sp, sp, #8
 2215              	.LCFI25:
 2216              		.cfi_remember_state
 2217              		.cfi_def_cfa_offset 16
 2218              		@ sp needed
 2219 0018 70BD     		pop	{r4, r5, r6, pc}
 2220              	.LVL201:
 2221              	.L85:
 2222              	.LCFI26:
 2223              		.cfi_restore_state
 334:./lib/fdt/fdt_sw.c **** 	return 0;
 2224              		.loc 1 334 2 is_stmt 1 view .LVU735
 2225 001a 2246     		mov	r2, r4
 2226 001c 2946     		mov	r1, r5
 2227 001e 0198     		ldr	r0, [sp, #4]
 2228              	.LVL202:
 334:./lib/fdt/fdt_sw.c **** 	return 0;
 2229              		.loc 1 334 2 is_stmt 0 view .LVU736
 2230 0020 FFF7FEFF 		bl	memcpy
 2231              	.LVL203:
 335:./lib/fdt/fdt_sw.c **** }
 2232              		.loc 1 335 2 is_stmt 1 view .LVU737
 335:./lib/fdt/fdt_sw.c **** }
 2233              		.loc 1 335 9 is_stmt 0 view .LVU738
 2234 0024 F6E7     		b	.L82
ARM GAS  /tmp/cc0N4oYp.s 			page 62


 2235              		.cfi_endproc
 2236              	.LFE91:
 2238              		.section	.text.fdt_finish,"ax",%progbits
 2239              		.align	1
 2240              		.global	fdt_finish
 2241              		.syntax unified
 2242              		.thumb
 2243              		.thumb_func
 2245              	fdt_finish:
 2246              	.LVL204:
 2247              	.LFB92:
 337:./lib/fdt/fdt_sw.c **** 
 338:./lib/fdt/fdt_sw.c **** int fdt_finish(void *fdt)
 339:./lib/fdt/fdt_sw.c **** {
 2248              		.loc 1 339 1 is_stmt 1 view -0
 2249              		.cfi_startproc
 2250              		@ args = 0, pretend = 0, frame = 8
 2251              		@ frame_needed = 0, uses_anonymous_args = 0
 2252              		.loc 1 339 1 is_stmt 0 view .LVU740
 2253 0000 F0B5     		push	{r4, r5, r6, r7, lr}
 2254              	.LCFI27:
 2255              		.cfi_def_cfa_offset 20
 2256              		.cfi_offset 4, -20
 2257              		.cfi_offset 5, -16
 2258              		.cfi_offset 6, -12
 2259              		.cfi_offset 7, -8
 2260              		.cfi_offset 14, -4
 2261 0002 83B0     		sub	sp, sp, #12
 2262              	.LCFI28:
 2263              		.cfi_def_cfa_offset 32
 2264 0004 0446     		mov	r4, r0
 340:./lib/fdt/fdt_sw.c **** 	char *p = (char *)fdt;
 2265              		.loc 1 340 2 is_stmt 1 view .LVU741
 2266              	.LVL205:
 341:./lib/fdt/fdt_sw.c **** 	fdt32_t *end;
 2267              		.loc 1 341 2 view .LVU742
 342:./lib/fdt/fdt_sw.c **** 	int oldstroffset, newstroffset;
 2268              		.loc 1 342 2 view .LVU743
 343:./lib/fdt/fdt_sw.c **** 	uint32_t tag;
 2269              		.loc 1 343 2 view .LVU744
 344:./lib/fdt/fdt_sw.c **** 	int offset, nextoffset;
 2270              		.loc 1 344 2 view .LVU745
 2271              	.LBB328:
 345:./lib/fdt/fdt_sw.c **** 
 346:./lib/fdt/fdt_sw.c **** 	FDT_SW_PROBE_STRUCT(fdt);
 2272              		.loc 1 346 2 view .LVU746
 2273              		.loc 1 346 2 view .LVU747
 2274 0006 FFF7FEFF 		bl	fdt_sw_probe_struct_
 2275              	.LVL206:
 2276              		.loc 1 346 2 is_stmt 0 discriminator 1 view .LVU748
 2277 000a 0646     		mov	r6, r0
 2278 000c 10B1     		cbz	r0, .L94
 2279              	.LVL207:
 2280              	.L86:
 2281              		.loc 1 346 2 discriminator 1 view .LVU749
 2282              	.LBE328:
 347:./lib/fdt/fdt_sw.c **** 
ARM GAS  /tmp/cc0N4oYp.s 			page 63


 348:./lib/fdt/fdt_sw.c **** 	/* Add terminator */
 349:./lib/fdt/fdt_sw.c **** 	end = fdt_grab_space_(fdt, sizeof(*end));
 350:./lib/fdt/fdt_sw.c **** 	if (! end)
 351:./lib/fdt/fdt_sw.c **** 		return -FDT_ERR_NOSPACE;
 352:./lib/fdt/fdt_sw.c **** 	*end = cpu_to_fdt32(FDT_END);
 353:./lib/fdt/fdt_sw.c **** 
 354:./lib/fdt/fdt_sw.c **** 	/* Relocate the string table */
 355:./lib/fdt/fdt_sw.c **** 	oldstroffset = fdt_totalsize(fdt) - fdt_size_dt_strings(fdt);
 356:./lib/fdt/fdt_sw.c **** 	newstroffset = fdt_off_dt_struct(fdt) + fdt_size_dt_struct(fdt);
 357:./lib/fdt/fdt_sw.c **** 	memmove(p + newstroffset, p + oldstroffset, fdt_size_dt_strings(fdt));
 358:./lib/fdt/fdt_sw.c **** 	fdt_set_off_dt_strings(fdt, newstroffset);
 359:./lib/fdt/fdt_sw.c **** 
 360:./lib/fdt/fdt_sw.c **** 	/* Walk the structure, correcting string offsets */
 361:./lib/fdt/fdt_sw.c **** 	offset = 0;
 362:./lib/fdt/fdt_sw.c **** 	while ((tag = fdt_next_tag(fdt, offset, &nextoffset)) != FDT_END) {
 363:./lib/fdt/fdt_sw.c **** 		if (tag == FDT_PROP) {
 364:./lib/fdt/fdt_sw.c **** 			struct fdt_property *prop =
 365:./lib/fdt/fdt_sw.c **** 				fdt_offset_ptr_w_(fdt, offset);
 366:./lib/fdt/fdt_sw.c **** 			int nameoff;
 367:./lib/fdt/fdt_sw.c **** 
 368:./lib/fdt/fdt_sw.c **** 			nameoff = fdt32_to_cpu(prop->nameoff);
 369:./lib/fdt/fdt_sw.c **** 			nameoff += fdt_size_dt_strings(fdt);
 370:./lib/fdt/fdt_sw.c **** 			prop->nameoff = cpu_to_fdt32(nameoff);
 371:./lib/fdt/fdt_sw.c **** 		}
 372:./lib/fdt/fdt_sw.c **** 		offset = nextoffset;
 373:./lib/fdt/fdt_sw.c **** 	}
 374:./lib/fdt/fdt_sw.c **** 	if (nextoffset < 0)
 375:./lib/fdt/fdt_sw.c **** 		return nextoffset;
 376:./lib/fdt/fdt_sw.c **** 
 377:./lib/fdt/fdt_sw.c **** 	/* Finally, adjust the header */
 378:./lib/fdt/fdt_sw.c **** 	fdt_set_totalsize(fdt, newstroffset + fdt_size_dt_strings(fdt));
 379:./lib/fdt/fdt_sw.c **** 
 380:./lib/fdt/fdt_sw.c **** 	/* And fix up fields that were keeping intermediate state. */
 381:./lib/fdt/fdt_sw.c **** 	fdt_set_last_comp_version(fdt, FDT_LAST_COMPATIBLE_VERSION);
 382:./lib/fdt/fdt_sw.c **** 	fdt_set_magic(fdt, FDT_MAGIC);
 383:./lib/fdt/fdt_sw.c **** 
 384:./lib/fdt/fdt_sw.c **** 	return 0;
 385:./lib/fdt/fdt_sw.c **** }
 2283              		.loc 1 385 1 view .LVU750
 2284 000e 3046     		mov	r0, r6
 2285 0010 03B0     		add	sp, sp, #12
 2286              	.LCFI29:
 2287              		.cfi_remember_state
 2288              		.cfi_def_cfa_offset 20
 2289              		@ sp needed
 2290 0012 F0BD     		pop	{r4, r5, r6, r7, pc}
 2291              	.LVL208:
 2292              	.L94:
 2293              	.LCFI30:
 2294              		.cfi_restore_state
 346:./lib/fdt/fdt_sw.c **** 
 2295              		.loc 1 346 26 is_stmt 1 discriminator 2 view .LVU751
 349:./lib/fdt/fdt_sw.c **** 	if (! end)
 2296              		.loc 1 349 2 view .LVU752
 349:./lib/fdt/fdt_sw.c **** 	if (! end)
 2297              		.loc 1 349 8 is_stmt 0 view .LVU753
 2298 0014 0421     		movs	r1, #4
ARM GAS  /tmp/cc0N4oYp.s 			page 64


 2299 0016 2046     		mov	r0, r4
 2300              	.LVL209:
 349:./lib/fdt/fdt_sw.c **** 	if (! end)
 2301              		.loc 1 349 8 view .LVU754
 2302 0018 FFF7FEFF 		bl	fdt_grab_space_
 2303              	.LVL210:
 350:./lib/fdt/fdt_sw.c **** 		return -FDT_ERR_NOSPACE;
 2304              		.loc 1 350 2 is_stmt 1 view .LVU755
 350:./lib/fdt/fdt_sw.c **** 		return -FDT_ERR_NOSPACE;
 2305              		.loc 1 350 5 is_stmt 0 view .LVU756
 2306 001c 0028     		cmp	r0, #0
 2307 001e 00F0A980 		beq	.L91
 352:./lib/fdt/fdt_sw.c **** 
 2308              		.loc 1 352 2 is_stmt 1 view .LVU757
 352:./lib/fdt/fdt_sw.c **** 
 2309              		.loc 1 352 7 is_stmt 0 discriminator 1 view .LVU758
 2310 0022 4FF01062 		mov	r2, #150994944
 2311 0026 0260     		str	r2, [r0]
 355:./lib/fdt/fdt_sw.c **** 	newstroffset = fdt_off_dt_struct(fdt) + fdt_size_dt_struct(fdt);
 2312              		.loc 1 355 2 is_stmt 1 view .LVU759
 2313              	.LVL211:
 2314              	.LBB329:
 2315              	.LBI329:
 145:./include/linux/libfdt.h **** {
 2316              		.loc 2 145 24 view .LVU760
 2317              	.LBB330:
 147:./include/linux/libfdt.h **** 
 2318              		.loc 2 147 2 view .LVU761
 149:./include/linux/libfdt.h **** 		| ((uint32_t)bp[1] << 16)
 2319              		.loc 2 149 2 view .LVU762
 149:./include/linux/libfdt.h **** 		| ((uint32_t)bp[1] << 16)
 2320              		.loc 2 149 22 is_stmt 0 view .LVU763
 2321 0028 2379     		ldrb	r3, [r4, #4]	@ zero_extendqisi2
 150:./include/linux/libfdt.h **** 		| ((uint32_t)bp[2] << 8)
 2322              		.loc 2 150 18 view .LVU764
 2323 002a 6179     		ldrb	r1, [r4, #5]	@ zero_extendqisi2
 150:./include/linux/libfdt.h **** 		| ((uint32_t)bp[2] << 8)
 2324              		.loc 2 150 22 view .LVU765
 2325 002c 0904     		lsls	r1, r1, #16
 150:./include/linux/libfdt.h **** 		| ((uint32_t)bp[2] << 8)
 2326              		.loc 2 150 3 view .LVU766
 2327 002e 41EA0361 		orr	r1, r1, r3, lsl #24
 151:./include/linux/libfdt.h **** 		| bp[3];
 2328              		.loc 2 151 18 view .LVU767
 2329 0032 A379     		ldrb	r3, [r4, #6]	@ zero_extendqisi2
 151:./include/linux/libfdt.h **** 		| bp[3];
 2330              		.loc 2 151 3 view .LVU768
 2331 0034 41EA0321 		orr	r1, r1, r3, lsl #8
 152:./include/linux/libfdt.h **** }
 2332              		.loc 2 152 7 view .LVU769
 2333 0038 E379     		ldrb	r3, [r4, #7]	@ zero_extendqisi2
 152:./include/linux/libfdt.h **** }
 2334              		.loc 2 152 3 view .LVU770
 2335 003a 1943     		orrs	r1, r1, r3
 2336              	.LVL212:
 152:./include/linux/libfdt.h **** }
 2337              		.loc 2 152 3 view .LVU771
ARM GAS  /tmp/cc0N4oYp.s 			page 65


 2338              	.LBE330:
 2339              	.LBE329:
 2340              	.LBB331:
 2341              	.LBI331:
 145:./include/linux/libfdt.h **** {
 2342              		.loc 2 145 24 is_stmt 1 view .LVU772
 2343              	.LBB332:
 147:./include/linux/libfdt.h **** 
 2344              		.loc 2 147 2 view .LVU773
 149:./include/linux/libfdt.h **** 		| ((uint32_t)bp[1] << 16)
 2345              		.loc 2 149 2 view .LVU774
 149:./include/linux/libfdt.h **** 		| ((uint32_t)bp[1] << 16)
 2346              		.loc 2 149 22 is_stmt 0 view .LVU775
 2347 003c 94F82030 		ldrb	r3, [r4, #32]	@ zero_extendqisi2
 150:./include/linux/libfdt.h **** 		| ((uint32_t)bp[2] << 8)
 2348              		.loc 2 150 18 view .LVU776
 2349 0040 94F82120 		ldrb	r2, [r4, #33]	@ zero_extendqisi2
 150:./include/linux/libfdt.h **** 		| ((uint32_t)bp[2] << 8)
 2350              		.loc 2 150 22 view .LVU777
 2351 0044 1204     		lsls	r2, r2, #16
 150:./include/linux/libfdt.h **** 		| ((uint32_t)bp[2] << 8)
 2352              		.loc 2 150 3 view .LVU778
 2353 0046 42EA0362 		orr	r2, r2, r3, lsl #24
 151:./include/linux/libfdt.h **** 		| bp[3];
 2354              		.loc 2 151 18 view .LVU779
 2355 004a 94F82230 		ldrb	r3, [r4, #34]	@ zero_extendqisi2
 151:./include/linux/libfdt.h **** 		| bp[3];
 2356              		.loc 2 151 3 view .LVU780
 2357 004e 42EA0322 		orr	r2, r2, r3, lsl #8
 152:./include/linux/libfdt.h **** }
 2358              		.loc 2 152 7 view .LVU781
 2359 0052 94F82330 		ldrb	r3, [r4, #35]	@ zero_extendqisi2
 152:./include/linux/libfdt.h **** }
 2360              		.loc 2 152 3 view .LVU782
 2361 0056 1A43     		orrs	r2, r2, r3
 2362              	.LVL213:
 152:./include/linux/libfdt.h **** }
 2363              		.loc 2 152 3 view .LVU783
 2364              	.LBE332:
 2365              	.LBE331:
 355:./lib/fdt/fdt_sw.c **** 	newstroffset = fdt_off_dt_struct(fdt) + fdt_size_dt_struct(fdt);
 2366              		.loc 1 355 36 discriminator 2 view .LVU784
 2367 0058 891A     		subs	r1, r1, r2
 2368              	.LVL214:
 356:./lib/fdt/fdt_sw.c **** 	memmove(p + newstroffset, p + oldstroffset, fdt_size_dt_strings(fdt));
 2369              		.loc 1 356 2 is_stmt 1 view .LVU785
 2370              	.LBB333:
 2371              	.LBI333:
 145:./include/linux/libfdt.h **** {
 2372              		.loc 2 145 24 view .LVU786
 2373              	.LBB334:
 147:./include/linux/libfdt.h **** 
 2374              		.loc 2 147 2 view .LVU787
 149:./include/linux/libfdt.h **** 		| ((uint32_t)bp[1] << 16)
 2375              		.loc 2 149 2 view .LVU788
 149:./include/linux/libfdt.h **** 		| ((uint32_t)bp[1] << 16)
 2376              		.loc 2 149 22 is_stmt 0 view .LVU789
ARM GAS  /tmp/cc0N4oYp.s 			page 66


 2377 005a 207A     		ldrb	r0, [r4, #8]	@ zero_extendqisi2
 2378              	.LVL215:
 150:./include/linux/libfdt.h **** 		| ((uint32_t)bp[2] << 8)
 2379              		.loc 2 150 18 view .LVU790
 2380 005c 637A     		ldrb	r3, [r4, #9]	@ zero_extendqisi2
 150:./include/linux/libfdt.h **** 		| ((uint32_t)bp[2] << 8)
 2381              		.loc 2 150 22 view .LVU791
 2382 005e 1B04     		lsls	r3, r3, #16
 150:./include/linux/libfdt.h **** 		| ((uint32_t)bp[2] << 8)
 2383              		.loc 2 150 3 view .LVU792
 2384 0060 43EA0063 		orr	r3, r3, r0, lsl #24
 151:./include/linux/libfdt.h **** 		| bp[3];
 2385              		.loc 2 151 18 view .LVU793
 2386 0064 A07A     		ldrb	r0, [r4, #10]	@ zero_extendqisi2
 151:./include/linux/libfdt.h **** 		| bp[3];
 2387              		.loc 2 151 3 view .LVU794
 2388 0066 43EA0023 		orr	r3, r3, r0, lsl #8
 152:./include/linux/libfdt.h **** }
 2389              		.loc 2 152 7 view .LVU795
 2390 006a E07A     		ldrb	r0, [r4, #11]	@ zero_extendqisi2
 152:./include/linux/libfdt.h **** }
 2391              		.loc 2 152 3 view .LVU796
 2392 006c 0343     		orrs	r3, r3, r0
 2393              	.LVL216:
 152:./include/linux/libfdt.h **** }
 2394              		.loc 2 152 3 view .LVU797
 2395              	.LBE334:
 2396              	.LBE333:
 2397              	.LBB335:
 2398              	.LBI335:
 145:./include/linux/libfdt.h **** {
 2399              		.loc 2 145 24 is_stmt 1 view .LVU798
 2400              	.LBB336:
 147:./include/linux/libfdt.h **** 
 2401              		.loc 2 147 2 view .LVU799
 149:./include/linux/libfdt.h **** 		| ((uint32_t)bp[1] << 16)
 2402              		.loc 2 149 2 view .LVU800
 149:./include/linux/libfdt.h **** 		| ((uint32_t)bp[1] << 16)
 2403              		.loc 2 149 22 is_stmt 0 view .LVU801
 2404 006e 94F82400 		ldrb	r0, [r4, #36]	@ zero_extendqisi2
 150:./include/linux/libfdt.h **** 		| ((uint32_t)bp[2] << 8)
 2405              		.loc 2 150 18 view .LVU802
 2406 0072 94F82550 		ldrb	r5, [r4, #37]	@ zero_extendqisi2
 150:./include/linux/libfdt.h **** 		| ((uint32_t)bp[2] << 8)
 2407              		.loc 2 150 22 view .LVU803
 2408 0076 2D04     		lsls	r5, r5, #16
 150:./include/linux/libfdt.h **** 		| ((uint32_t)bp[2] << 8)
 2409              		.loc 2 150 3 view .LVU804
 2410 0078 45EA0065 		orr	r5, r5, r0, lsl #24
 151:./include/linux/libfdt.h **** 		| bp[3];
 2411              		.loc 2 151 18 view .LVU805
 2412 007c 94F82600 		ldrb	r0, [r4, #38]	@ zero_extendqisi2
 151:./include/linux/libfdt.h **** 		| bp[3];
 2413              		.loc 2 151 3 view .LVU806
 2414 0080 45EA0025 		orr	r5, r5, r0, lsl #8
 152:./include/linux/libfdt.h **** }
 2415              		.loc 2 152 7 view .LVU807
ARM GAS  /tmp/cc0N4oYp.s 			page 67


 2416 0084 94F82700 		ldrb	r0, [r4, #39]	@ zero_extendqisi2
 152:./include/linux/libfdt.h **** }
 2417              		.loc 2 152 3 view .LVU808
 2418 0088 0543     		orrs	r5, r5, r0
 2419              	.LVL217:
 152:./include/linux/libfdt.h **** }
 2420              		.loc 2 152 3 view .LVU809
 2421              	.LBE336:
 2422              	.LBE335:
 356:./lib/fdt/fdt_sw.c **** 	memmove(p + newstroffset, p + oldstroffset, fdt_size_dt_strings(fdt));
 2423              		.loc 1 356 40 discriminator 2 view .LVU810
 2424 008a 1D44     		add	r5, r5, r3
 2425              	.LVL218:
 357:./lib/fdt/fdt_sw.c **** 	fdt_set_off_dt_strings(fdt, newstroffset);
 2426              		.loc 1 357 2 is_stmt 1 view .LVU811
 357:./lib/fdt/fdt_sw.c **** 	fdt_set_off_dt_strings(fdt, newstroffset);
 2427              		.loc 1 357 2 is_stmt 0 discriminator 1 view .LVU812
 2428 008c 2144     		add	r1, r1, r4
 2429              	.LVL219:
 357:./lib/fdt/fdt_sw.c **** 	fdt_set_off_dt_strings(fdt, newstroffset);
 2430              		.loc 1 357 2 discriminator 1 view .LVU813
 2431 008e 6019     		adds	r0, r4, r5
 2432 0090 FFF7FEFF 		bl	memmove
 2433              	.LVL220:
 358:./lib/fdt/fdt_sw.c **** 
 2434              		.loc 1 358 2 is_stmt 1 view .LVU814
 2435              	.LBB337:
 2436              	.LBI337:
 273:./include/linux/libfdt.h **** fdt_set_hdr_(off_mem_rsvmap)
 2437              		.loc 2 273 1 view .LVU815
 2438              	.LBB338:
 273:./include/linux/libfdt.h **** fdt_set_hdr_(off_mem_rsvmap)
 2439              		.loc 2 273 1 view .LVU816
 273:./include/linux/libfdt.h **** fdt_set_hdr_(off_mem_rsvmap)
 2440              		.loc 2 273 1 view .LVU817
 2441              	.LBB339:
 2442              	.LBI339:
  57:./include/linux/libfdt_env.h **** {
 2443              		.loc 3 57 23 view .LVU818
 2444              	.LBB340:
  59:./include/linux/libfdt_env.h **** }
 2445              		.loc 3 59 2 view .LVU819
  59:./include/linux/libfdt_env.h **** }
 2446              		.loc 3 59 28 is_stmt 0 view .LVU820
 2447 0094 C5F30723 		ubfx	r3, r5, #8, #8
 2448 0098 1B04     		lsls	r3, r3, #16
 2449 009a 43EA0563 		orr	r3, r3, r5, lsl #24
 2450 009e C5F30742 		ubfx	r2, r5, #16, #8
 2451 00a2 43EA0223 		orr	r3, r3, r2, lsl #8
  59:./include/linux/libfdt_env.h **** }
 2452              		.loc 3 59 9 view .LVU821
 2453 00a6 43EA1563 		orr	r3, r3, r5, lsr #24
 2454              	.LVL221:
  59:./include/linux/libfdt_env.h **** }
 2455              		.loc 3 59 9 view .LVU822
 2456              	.LBE340:
 2457              	.LBE339:
ARM GAS  /tmp/cc0N4oYp.s 			page 68


 273:./include/linux/libfdt.h **** fdt_set_hdr_(off_mem_rsvmap)
 2458              		.loc 2 273 1 discriminator 1 view .LVU823
 2459 00aa E360     		str	r3, [r4, #12]
 2460              	.LVL222:
 273:./include/linux/libfdt.h **** fdt_set_hdr_(off_mem_rsvmap)
 2461              		.loc 2 273 1 discriminator 1 view .LVU824
 2462              	.LBE338:
 2463              	.LBE337:
 361:./lib/fdt/fdt_sw.c **** 	while ((tag = fdt_next_tag(fdt, offset, &nextoffset)) != FDT_END) {
 2464              		.loc 1 361 2 is_stmt 1 view .LVU825
 362:./lib/fdt/fdt_sw.c **** 		if (tag == FDT_PROP) {
 2465              		.loc 1 362 2 view .LVU826
 361:./lib/fdt/fdt_sw.c **** 	while ((tag = fdt_next_tag(fdt, offset, &nextoffset)) != FDT_END) {
 2466              		.loc 1 361 9 is_stmt 0 view .LVU827
 2467 00ac 3746     		mov	r7, r6
 362:./lib/fdt/fdt_sw.c **** 		if (tag == FDT_PROP) {
 2468              		.loc 1 362 8 view .LVU828
 2469 00ae 00E0     		b	.L88
 2470              	.LVL223:
 2471              	.L89:
 372:./lib/fdt/fdt_sw.c **** 	}
 2472              		.loc 1 372 3 is_stmt 1 view .LVU829
 372:./lib/fdt/fdt_sw.c **** 	}
 2473              		.loc 1 372 10 is_stmt 0 view .LVU830
 2474 00b0 019F     		ldr	r7, [sp, #4]
 2475              	.LVL224:
 2476              	.L88:
 362:./lib/fdt/fdt_sw.c **** 		if (tag == FDT_PROP) {
 2477              		.loc 1 362 56 is_stmt 1 view .LVU831
 362:./lib/fdt/fdt_sw.c **** 		if (tag == FDT_PROP) {
 2478              		.loc 1 362 16 is_stmt 0 view .LVU832
 2479 00b2 01AA     		add	r2, sp, #4
 2480 00b4 3946     		mov	r1, r7
 2481 00b6 2046     		mov	r0, r4
 2482 00b8 FFF7FEFF 		bl	fdt_next_tag
 2483              	.LVL225:
 362:./lib/fdt/fdt_sw.c **** 		if (tag == FDT_PROP) {
 2484              		.loc 1 362 56 discriminator 1 view .LVU833
 2485 00bc 0928     		cmp	r0, #9
 2486 00be 35D0     		beq	.L95
 363:./lib/fdt/fdt_sw.c **** 			struct fdt_property *prop =
 2487              		.loc 1 363 3 is_stmt 1 view .LVU834
 363:./lib/fdt/fdt_sw.c **** 			struct fdt_property *prop =
 2488              		.loc 1 363 6 is_stmt 0 view .LVU835
 2489 00c0 0328     		cmp	r0, #3
 2490 00c2 F5D1     		bne	.L89
 2491              	.LBB341:
 364:./lib/fdt/fdt_sw.c **** 				fdt_offset_ptr_w_(fdt, offset);
 2492              		.loc 1 364 4 is_stmt 1 view .LVU836
 2493              	.LVL226:
 2494              	.LBB342:
 2495              	.LBI342:
  40:./lib/fdt/libfdt_internal.h **** {
 2496              		.loc 4 40 21 view .LVU837
 2497              		.loc 4 42 2 view .LVU838
 2498              	.LBB343:
 2499              	.LBI343:
ARM GAS  /tmp/cc0N4oYp.s 			page 69


  35:./lib/fdt/libfdt_internal.h **** {
 2500              		.loc 4 35 27 view .LVU839
 2501              	.LBB344:
  37:./lib/fdt/libfdt_internal.h **** }
 2502              		.loc 4 37 2 view .LVU840
 2503              	.LBB345:
 2504              	.LBI345:
 145:./include/linux/libfdt.h **** {
 2505              		.loc 2 145 24 view .LVU841
 2506              	.LBB346:
 147:./include/linux/libfdt.h **** 
 2507              		.loc 2 147 2 view .LVU842
 149:./include/linux/libfdt.h **** 		| ((uint32_t)bp[1] << 16)
 2508              		.loc 2 149 2 view .LVU843
 149:./include/linux/libfdt.h **** 		| ((uint32_t)bp[1] << 16)
 2509              		.loc 2 149 22 is_stmt 0 view .LVU844
 2510 00c4 237A     		ldrb	r3, [r4, #8]	@ zero_extendqisi2
 150:./include/linux/libfdt.h **** 		| ((uint32_t)bp[2] << 8)
 2511              		.loc 2 150 18 view .LVU845
 2512 00c6 617A     		ldrb	r1, [r4, #9]	@ zero_extendqisi2
 150:./include/linux/libfdt.h **** 		| ((uint32_t)bp[2] << 8)
 2513              		.loc 2 150 22 view .LVU846
 2514 00c8 0904     		lsls	r1, r1, #16
 150:./include/linux/libfdt.h **** 		| ((uint32_t)bp[2] << 8)
 2515              		.loc 2 150 3 view .LVU847
 2516 00ca 41EA0361 		orr	r1, r1, r3, lsl #24
 151:./include/linux/libfdt.h **** 		| bp[3];
 2517              		.loc 2 151 18 view .LVU848
 2518 00ce A37A     		ldrb	r3, [r4, #10]	@ zero_extendqisi2
 151:./include/linux/libfdt.h **** 		| bp[3];
 2519              		.loc 2 151 3 view .LVU849
 2520 00d0 41EA0321 		orr	r1, r1, r3, lsl #8
 152:./include/linux/libfdt.h **** }
 2521              		.loc 2 152 7 view .LVU850
 2522 00d4 E37A     		ldrb	r3, [r4, #11]	@ zero_extendqisi2
 152:./include/linux/libfdt.h **** }
 2523              		.loc 2 152 3 view .LVU851
 2524 00d6 1943     		orrs	r1, r1, r3
 2525              	.LVL227:
 152:./include/linux/libfdt.h **** }
 2526              		.loc 2 152 3 view .LVU852
 2527              	.LBE346:
 2528              	.LBE345:
  37:./lib/fdt/libfdt_internal.h **** }
 2529              		.loc 4 37 52 discriminator 1 view .LVU853
 2530 00d8 3944     		add	r1, r1, r7
 2531 00da 2144     		add	r1, r1, r4
 2532              	.LVL228:
  37:./lib/fdt/libfdt_internal.h **** }
 2533              		.loc 4 37 52 discriminator 1 view .LVU854
 2534              	.LBE344:
 2535              	.LBE343:
 2536              	.LBE342:
 366:./lib/fdt/fdt_sw.c **** 
 2537              		.loc 1 366 4 is_stmt 1 view .LVU855
 368:./lib/fdt/fdt_sw.c **** 			nameoff += fdt_size_dt_strings(fdt);
 2538              		.loc 1 368 4 view .LVU856
ARM GAS  /tmp/cc0N4oYp.s 			page 70


 368:./lib/fdt/fdt_sw.c **** 			nameoff += fdt_size_dt_strings(fdt);
 2539              		.loc 1 368 14 is_stmt 0 view .LVU857
 2540 00dc 8B68     		ldr	r3, [r1, #8]
 2541              	.LVL229:
 2542              	.LBB347:
 2543              	.LBI347:
  53:./include/linux/libfdt_env.h **** {
 2544              		.loc 3 53 24 is_stmt 1 view .LVU858
 2545              	.LBB348:
  55:./include/linux/libfdt_env.h **** }
 2546              		.loc 3 55 2 view .LVU859
  55:./include/linux/libfdt_env.h **** }
 2547              		.loc 3 55 29 is_stmt 0 view .LVU860
 2548 00de C3F30722 		ubfx	r2, r3, #8, #8
 2549 00e2 1204     		lsls	r2, r2, #16
 2550 00e4 42EA0362 		orr	r2, r2, r3, lsl #24
 2551 00e8 C3F30740 		ubfx	r0, r3, #16, #8
 2552              	.LVL230:
  55:./include/linux/libfdt_env.h **** }
 2553              		.loc 3 55 29 view .LVU861
 2554 00ec 42EA0022 		orr	r2, r2, r0, lsl #8
  55:./include/linux/libfdt_env.h **** }
 2555              		.loc 3 55 9 view .LVU862
 2556 00f0 42EA1362 		orr	r2, r2, r3, lsr #24
 2557              	.LVL231:
  55:./include/linux/libfdt_env.h **** }
 2558              		.loc 3 55 9 view .LVU863
 2559              	.LBE348:
 2560              	.LBE347:
 369:./lib/fdt/fdt_sw.c **** 			prop->nameoff = cpu_to_fdt32(nameoff);
 2561              		.loc 1 369 4 is_stmt 1 view .LVU864
 2562              	.LBB349:
 2563              	.LBI349:
 145:./include/linux/libfdt.h **** {
 2564              		.loc 2 145 24 view .LVU865
 2565              	.LBB350:
 147:./include/linux/libfdt.h **** 
 2566              		.loc 2 147 2 view .LVU866
 149:./include/linux/libfdt.h **** 		| ((uint32_t)bp[1] << 16)
 2567              		.loc 2 149 2 view .LVU867
 149:./include/linux/libfdt.h **** 		| ((uint32_t)bp[1] << 16)
 2568              		.loc 2 149 22 is_stmt 0 view .LVU868
 2569 00f4 94F82000 		ldrb	r0, [r4, #32]	@ zero_extendqisi2
 150:./include/linux/libfdt.h **** 		| ((uint32_t)bp[2] << 8)
 2570              		.loc 2 150 18 view .LVU869
 2571 00f8 94F82130 		ldrb	r3, [r4, #33]	@ zero_extendqisi2
 150:./include/linux/libfdt.h **** 		| ((uint32_t)bp[2] << 8)
 2572              		.loc 2 150 22 view .LVU870
 2573 00fc 1B04     		lsls	r3, r3, #16
 150:./include/linux/libfdt.h **** 		| ((uint32_t)bp[2] << 8)
 2574              		.loc 2 150 3 view .LVU871
 2575 00fe 43EA0063 		orr	r3, r3, r0, lsl #24
 151:./include/linux/libfdt.h **** 		| bp[3];
 2576              		.loc 2 151 18 view .LVU872
 2577 0102 94F82200 		ldrb	r0, [r4, #34]	@ zero_extendqisi2
 151:./include/linux/libfdt.h **** 		| bp[3];
 2578              		.loc 2 151 3 view .LVU873
ARM GAS  /tmp/cc0N4oYp.s 			page 71


 2579 0106 43EA0023 		orr	r3, r3, r0, lsl #8
 152:./include/linux/libfdt.h **** }
 2580              		.loc 2 152 7 view .LVU874
 2581 010a 94F82300 		ldrb	r0, [r4, #35]	@ zero_extendqisi2
 152:./include/linux/libfdt.h **** }
 2582              		.loc 2 152 3 view .LVU875
 2583 010e 0343     		orrs	r3, r3, r0
 2584              	.LVL232:
 152:./include/linux/libfdt.h **** }
 2585              		.loc 2 152 3 view .LVU876
 2586              	.LBE350:
 2587              	.LBE349:
 369:./lib/fdt/fdt_sw.c **** 			prop->nameoff = cpu_to_fdt32(nameoff);
 2588              		.loc 1 369 12 discriminator 1 view .LVU877
 2589 0110 1344     		add	r3, r3, r2
 2590              	.LVL233:
 370:./lib/fdt/fdt_sw.c **** 		}
 2591              		.loc 1 370 4 is_stmt 1 view .LVU878
 2592              	.LBB351:
 2593              	.LBI351:
  57:./include/linux/libfdt_env.h **** {
 2594              		.loc 3 57 23 view .LVU879
 2595              	.LBB352:
  59:./include/linux/libfdt_env.h **** }
 2596              		.loc 3 59 2 view .LVU880
  59:./include/linux/libfdt_env.h **** }
 2597              		.loc 3 59 28 is_stmt 0 view .LVU881
 2598 0112 C3F30722 		ubfx	r2, r3, #8, #8
 2599 0116 1204     		lsls	r2, r2, #16
 2600 0118 42EA0362 		orr	r2, r2, r3, lsl #24
 2601 011c C3F30740 		ubfx	r0, r3, #16, #8
 2602 0120 42EA0022 		orr	r2, r2, r0, lsl #8
  59:./include/linux/libfdt_env.h **** }
 2603              		.loc 3 59 9 view .LVU882
 2604 0124 42EA1363 		orr	r3, r2, r3, lsr #24
 2605              	.LVL234:
  59:./include/linux/libfdt_env.h **** }
 2606              		.loc 3 59 9 view .LVU883
 2607              	.LBE352:
 2608              	.LBE351:
 370:./lib/fdt/fdt_sw.c **** 		}
 2609              		.loc 1 370 18 discriminator 1 view .LVU884
 2610 0128 8B60     		str	r3, [r1, #8]
 2611              	.LVL235:
 370:./lib/fdt/fdt_sw.c **** 		}
 2612              		.loc 1 370 18 discriminator 1 view .LVU885
 2613 012a C1E7     		b	.L89
 2614              	.LVL236:
 2615              	.L95:
 370:./lib/fdt/fdt_sw.c **** 		}
 2616              		.loc 1 370 18 discriminator 1 view .LVU886
 2617              	.LBE341:
 374:./lib/fdt/fdt_sw.c **** 		return nextoffset;
 2618              		.loc 1 374 2 is_stmt 1 view .LVU887
 374:./lib/fdt/fdt_sw.c **** 		return nextoffset;
 2619              		.loc 1 374 17 is_stmt 0 view .LVU888
 2620 012c 019B     		ldr	r3, [sp, #4]
ARM GAS  /tmp/cc0N4oYp.s 			page 72


 374:./lib/fdt/fdt_sw.c **** 		return nextoffset;
 2621              		.loc 1 374 5 view .LVU889
 2622 012e 002B     		cmp	r3, #0
 2623 0130 23DB     		blt	.L92
 378:./lib/fdt/fdt_sw.c **** 
 2624              		.loc 1 378 2 is_stmt 1 view .LVU890
 2625              	.LVL237:
 2626              	.LBB353:
 2627              	.LBI353:
 145:./include/linux/libfdt.h **** {
 2628              		.loc 2 145 24 view .LVU891
 2629              	.LBB354:
 147:./include/linux/libfdt.h **** 
 2630              		.loc 2 147 2 view .LVU892
 149:./include/linux/libfdt.h **** 		| ((uint32_t)bp[1] << 16)
 2631              		.loc 2 149 2 view .LVU893
 149:./include/linux/libfdt.h **** 		| ((uint32_t)bp[1] << 16)
 2632              		.loc 2 149 22 is_stmt 0 view .LVU894
 2633 0132 94F82020 		ldrb	r2, [r4, #32]	@ zero_extendqisi2
 150:./include/linux/libfdt.h **** 		| ((uint32_t)bp[2] << 8)
 2634              		.loc 2 150 18 view .LVU895
 2635 0136 94F82130 		ldrb	r3, [r4, #33]	@ zero_extendqisi2
 150:./include/linux/libfdt.h **** 		| ((uint32_t)bp[2] << 8)
 2636              		.loc 2 150 22 view .LVU896
 2637 013a 1B04     		lsls	r3, r3, #16
 150:./include/linux/libfdt.h **** 		| ((uint32_t)bp[2] << 8)
 2638              		.loc 2 150 3 view .LVU897
 2639 013c 43EA0263 		orr	r3, r3, r2, lsl #24
 151:./include/linux/libfdt.h **** 		| bp[3];
 2640              		.loc 2 151 18 view .LVU898
 2641 0140 94F82220 		ldrb	r2, [r4, #34]	@ zero_extendqisi2
 151:./include/linux/libfdt.h **** 		| bp[3];
 2642              		.loc 2 151 3 view .LVU899
 2643 0144 43EA0223 		orr	r3, r3, r2, lsl #8
 152:./include/linux/libfdt.h **** }
 2644              		.loc 2 152 7 view .LVU900
 2645 0148 94F82320 		ldrb	r2, [r4, #35]	@ zero_extendqisi2
 152:./include/linux/libfdt.h **** }
 2646              		.loc 2 152 3 view .LVU901
 2647 014c 1343     		orrs	r3, r3, r2
 2648              	.LVL238:
 152:./include/linux/libfdt.h **** }
 2649              		.loc 2 152 3 view .LVU902
 2650              	.LBE354:
 2651              	.LBE353:
 378:./lib/fdt/fdt_sw.c **** 
 2652              		.loc 1 378 2 discriminator 1 view .LVU903
 2653 014e 1D44     		add	r5, r5, r3
 2654              	.LVL239:
 2655              	.LBB355:
 2656              	.LBI355:
 271:./include/linux/libfdt.h **** fdt_set_hdr_(off_dt_struct)
 2657              		.loc 2 271 1 is_stmt 1 view .LVU904
 2658              	.LBB356:
 271:./include/linux/libfdt.h **** fdt_set_hdr_(off_dt_struct)
 2659              		.loc 2 271 1 view .LVU905
 271:./include/linux/libfdt.h **** fdt_set_hdr_(off_dt_struct)
ARM GAS  /tmp/cc0N4oYp.s 			page 73


 2660              		.loc 2 271 1 view .LVU906
 2661              	.LBB357:
 2662              	.LBI357:
  57:./include/linux/libfdt_env.h **** {
 2663              		.loc 3 57 23 view .LVU907
 2664              	.LBB358:
  59:./include/linux/libfdt_env.h **** }
 2665              		.loc 3 59 2 view .LVU908
  59:./include/linux/libfdt_env.h **** }
 2666              		.loc 3 59 28 is_stmt 0 view .LVU909
 2667 0150 C5F30723 		ubfx	r3, r5, #8, #8
 2668 0154 1B04     		lsls	r3, r3, #16
 2669 0156 43EA0563 		orr	r3, r3, r5, lsl #24
 2670 015a C5F30742 		ubfx	r2, r5, #16, #8
 2671 015e 43EA0223 		orr	r3, r3, r2, lsl #8
  59:./include/linux/libfdt_env.h **** }
 2672              		.loc 3 59 9 view .LVU910
 2673 0162 43EA1563 		orr	r3, r3, r5, lsr #24
 2674              	.LVL240:
  59:./include/linux/libfdt_env.h **** }
 2675              		.loc 3 59 9 view .LVU911
 2676              	.LBE358:
 2677              	.LBE357:
 271:./include/linux/libfdt.h **** fdt_set_hdr_(off_dt_struct)
 2678              		.loc 2 271 1 discriminator 1 view .LVU912
 2679 0166 6360     		str	r3, [r4, #4]
 2680              	.LVL241:
 271:./include/linux/libfdt.h **** fdt_set_hdr_(off_dt_struct)
 2681              		.loc 2 271 1 discriminator 1 view .LVU913
 2682              	.LBE356:
 2683              	.LBE355:
 381:./lib/fdt/fdt_sw.c **** 	fdt_set_magic(fdt, FDT_MAGIC);
 2684              		.loc 1 381 2 is_stmt 1 view .LVU914
 2685              	.LBB359:
 2686              	.LBI359:
 276:./include/linux/libfdt.h **** fdt_set_hdr_(boot_cpuid_phys)
 2687              		.loc 2 276 1 view .LVU915
 2688              	.LBB360:
 276:./include/linux/libfdt.h **** fdt_set_hdr_(boot_cpuid_phys)
 2689              		.loc 2 276 1 view .LVU916
 276:./include/linux/libfdt.h **** fdt_set_hdr_(boot_cpuid_phys)
 2690              		.loc 2 276 1 view .LVU917
 276:./include/linux/libfdt.h **** fdt_set_hdr_(boot_cpuid_phys)
 2691              		.loc 2 276 1 is_stmt 0 discriminator 1 view .LVU918
 2692 0168 4FF08053 		mov	r3, #268435456
 2693 016c A361     		str	r3, [r4, #24]
 2694              	.LVL242:
 276:./include/linux/libfdt.h **** fdt_set_hdr_(boot_cpuid_phys)
 2695              		.loc 2 276 1 discriminator 1 view .LVU919
 2696              	.LBE360:
 2697              	.LBE359:
 382:./lib/fdt/fdt_sw.c **** 
 2698              		.loc 1 382 2 is_stmt 1 view .LVU920
 2699              	.LBB361:
 2700              	.LBI361:
 270:./include/linux/libfdt.h **** fdt_set_hdr_(totalsize)
 2701              		.loc 2 270 1 view .LVU921
ARM GAS  /tmp/cc0N4oYp.s 			page 74


 2702              	.LBB362:
 270:./include/linux/libfdt.h **** fdt_set_hdr_(totalsize)
 2703              		.loc 2 270 1 view .LVU922
 270:./include/linux/libfdt.h **** fdt_set_hdr_(totalsize)
 2704              		.loc 2 270 1 view .LVU923
 270:./include/linux/libfdt.h **** fdt_set_hdr_(totalsize)
 2705              		.loc 2 270 1 is_stmt 0 discriminator 1 view .LVU924
 2706 016e 044B     		ldr	r3, .L96
 2707 0170 2360     		str	r3, [r4]
 2708              	.LVL243:
 270:./include/linux/libfdt.h **** fdt_set_hdr_(totalsize)
 2709              		.loc 2 270 1 discriminator 1 view .LVU925
 2710              	.LBE362:
 2711              	.LBE361:
 384:./lib/fdt/fdt_sw.c **** }
 2712              		.loc 1 384 2 is_stmt 1 view .LVU926
 384:./lib/fdt/fdt_sw.c **** }
 2713              		.loc 1 384 9 is_stmt 0 view .LVU927
 2714 0172 4CE7     		b	.L86
 2715              	.LVL244:
 2716              	.L91:
 351:./lib/fdt/fdt_sw.c **** 	*end = cpu_to_fdt32(FDT_END);
 2717              		.loc 1 351 10 view .LVU928
 2718 0174 6FF00206 		mvn	r6, #2
 2719              	.LVL245:
 351:./lib/fdt/fdt_sw.c **** 	*end = cpu_to_fdt32(FDT_END);
 2720              		.loc 1 351 10 view .LVU929
 2721 0178 49E7     		b	.L86
 2722              	.LVL246:
 2723              	.L92:
 375:./lib/fdt/fdt_sw.c **** 
 2724              		.loc 1 375 10 view .LVU930
 2725 017a 1E46     		mov	r6, r3
 2726              	.LVL247:
 375:./lib/fdt/fdt_sw.c **** 
 2727              		.loc 1 375 10 view .LVU931
 2728 017c 47E7     		b	.L86
 2729              	.L97:
 2730 017e 00BF     		.align	2
 2731              	.L96:
 2732 0180 D00DFEED 		.word	-302117424
 2733              		.cfi_endproc
 2734              	.LFE92:
 2736              		.text
 2737              	.Letext0:
 2738              		.file 5 "./include/asm-generic/int-l64.h"
 2739              		.file 6 "./include/asm-generic/posix_types.h"
 2740              		.file 7 "./include/linux/types.h"
 2741              		.file 8 "./include/linux/fdt.h"
 2742              		.file 9 "./arch/arm_m/include/asm/string.h"
 2743              		.file 10 "<built-in>"
ARM GAS  /tmp/cc0N4oYp.s 			page 75


DEFINED SYMBOLS
                            *ABS*:00000000 fdt_sw.c
     /tmp/cc0N4oYp.s:21     .text.fdt_sw_probe_:00000000 $t
     /tmp/cc0N4oYp.s:26     .text.fdt_sw_probe_:00000000 fdt_sw_probe_
     /tmp/cc0N4oYp.s:95     .text.fdt_sw_probe_:00000030 $d
     /tmp/cc0N4oYp.s:101    .text.fdt_sw_probe_memrsv_:00000000 $t
     /tmp/cc0N4oYp.s:106    .text.fdt_sw_probe_memrsv_:00000000 fdt_sw_probe_memrsv_
     /tmp/cc0N4oYp.s:169    .text.fdt_sw_probe_struct_:00000000 $t
     /tmp/cc0N4oYp.s:174    .text.fdt_sw_probe_struct_:00000000 fdt_sw_probe_struct_
     /tmp/cc0N4oYp.s:265    .text.fdt_grab_space_:00000000 $t
     /tmp/cc0N4oYp.s:270    .text.fdt_grab_space_:00000000 fdt_grab_space_
     /tmp/cc0N4oYp.s:482    .text.fdt_del_last_string_:00000000 $t
     /tmp/cc0N4oYp.s:487    .text.fdt_del_last_string_:00000000 fdt_del_last_string_
     /tmp/cc0N4oYp.s:581    .text.fdt_add_string_:00000000 $t
     /tmp/cc0N4oYp.s:586    .text.fdt_add_string_:00000000 fdt_add_string_
     /tmp/cc0N4oYp.s:789    .text.fdt_find_string_:00000000 $t
     /tmp/cc0N4oYp.s:794    .text.fdt_find_string_:00000000 fdt_find_string_
     /tmp/cc0N4oYp.s:834    .text.fdt_find_add_string_:00000000 $t
     /tmp/cc0N4oYp.s:839    .text.fdt_find_add_string_:00000000 fdt_find_add_string_
     /tmp/cc0N4oYp.s:960    .text.fdt_create_with_flags:00000000 $t
     /tmp/cc0N4oYp.s:966    .text.fdt_create_with_flags:00000000 fdt_create_with_flags
     /tmp/cc0N4oYp.s:1165   .text.fdt_create_with_flags:0000006c $d
     /tmp/cc0N4oYp.s:1170   .text.fdt_create:00000000 $t
     /tmp/cc0N4oYp.s:1176   .text.fdt_create:00000000 fdt_create
     /tmp/cc0N4oYp.s:1200   .text.fdt_resize:00000000 $t
     /tmp/cc0N4oYp.s:1206   .text.fdt_resize:00000000 fdt_resize
     /tmp/cc0N4oYp.s:1508   .text.fdt_add_reservemap_entry:00000000 $t
     /tmp/cc0N4oYp.s:1514   .text.fdt_add_reservemap_entry:00000000 fdt_add_reservemap_entry
     /tmp/cc0N4oYp.s:1707   .text.fdt_finish_reservemap:00000000 $t
     /tmp/cc0N4oYp.s:1713   .text.fdt_finish_reservemap:00000000 fdt_finish_reservemap
     /tmp/cc0N4oYp.s:1794   .text.fdt_begin_node:00000000 $t
     /tmp/cc0N4oYp.s:1800   .text.fdt_begin_node:00000000 fdt_begin_node
     /tmp/cc0N4oYp.s:1885   .text.fdt_end_node:00000000 $t
     /tmp/cc0N4oYp.s:1891   .text.fdt_end_node:00000000 fdt_end_node
     /tmp/cc0N4oYp.s:1954   .text.fdt_property_placeholder:00000000 $t
     /tmp/cc0N4oYp.s:1960   .text.fdt_property_placeholder:00000000 fdt_property_placeholder
     /tmp/cc0N4oYp.s:2168   .text.fdt_property:00000000 $t
     /tmp/cc0N4oYp.s:2174   .text.fdt_property:00000000 fdt_property
     /tmp/cc0N4oYp.s:2239   .text.fdt_finish:00000000 $t
     /tmp/cc0N4oYp.s:2245   .text.fdt_finish:00000000 fdt_finish
     /tmp/cc0N4oYp.s:2732   .text.fdt_finish:00000180 $d

UNDEFINED SYMBOLS
strlen
memcpy
fdt_find_string_len_
memset
memmove
fdt_next_tag
