ARM GAS  /tmp/ccwZZPo0.s 			page 1


   1              		.cpu cortex-m4
   2              		.arch armv7e-m
   3              		.fpu fpv4-sp-d16
   4              		.eabi_attribute 27, 1
   5              		.eabi_attribute 28, 1
   6              		.eabi_attribute 20, 1
   7              		.eabi_attribute 21, 1
   8              		.eabi_attribute 23, 3
   9              		.eabi_attribute 24, 1
  10              		.eabi_attribute 25, 1
  11              		.eabi_attribute 26, 1
  12              		.eabi_attribute 30, 1
  13              		.eabi_attribute 34, 1
  14              		.eabi_attribute 18, 4
  15              		.file	"fdt_empty_tree.c"
  16              		.text
  17              	.Ltext0:
  18              		.cfi_sections	.debug_frame
  19              		.file 1 "/mnt/c/Users/31740/Desktop/newcore/lib/fdt/fdt_empty_tree.c"
  20              		.section	.rodata.fdt_create_empty_tree.str1.4,"aMS",%progbits,1
  21              		.align	2
  22              	.LC0:
  23 0000 00       		.ascii	"\000"
  24              		.section	.text.fdt_create_empty_tree,"ax",%progbits
  25              		.align	1
  26              		.global	fdt_create_empty_tree
  27              		.syntax unified
  28              		.thumb
  29              		.thumb_func
  31              	fdt_create_empty_tree:
  32              	.LVL0:
  33              	.LFB75:
   1:/mnt/c/Users/31740/Desktop/newcore/lib/fdt/fdt_empty_tree.c **** // SPDX-License-Identifier: (GPL-2.0-or-later OR BSD-2-Clause)
   2:/mnt/c/Users/31740/Desktop/newcore/lib/fdt/fdt_empty_tree.c **** /*
   3:/mnt/c/Users/31740/Desktop/newcore/lib/fdt/fdt_empty_tree.c ****  * libfdt - Flat Device Tree manipulation
   4:/mnt/c/Users/31740/Desktop/newcore/lib/fdt/fdt_empty_tree.c ****  * Copyright (C) 2012 David Gibson, IBM Corporation.
   5:/mnt/c/Users/31740/Desktop/newcore/lib/fdt/fdt_empty_tree.c ****  */
   6:/mnt/c/Users/31740/Desktop/newcore/lib/fdt/fdt_empty_tree.c **** #include <linux/libfdt_env.h>
   7:/mnt/c/Users/31740/Desktop/newcore/lib/fdt/fdt_empty_tree.c **** 
   8:/mnt/c/Users/31740/Desktop/newcore/lib/fdt/fdt_empty_tree.c **** #include <linux/fdt.h>
   9:/mnt/c/Users/31740/Desktop/newcore/lib/fdt/fdt_empty_tree.c **** #include <linux/libfdt.h>
  10:/mnt/c/Users/31740/Desktop/newcore/lib/fdt/fdt_empty_tree.c **** 
  11:/mnt/c/Users/31740/Desktop/newcore/lib/fdt/fdt_empty_tree.c **** 
  12:/mnt/c/Users/31740/Desktop/newcore/lib/fdt/fdt_empty_tree.c **** #include "libfdt_internal.h"
  13:/mnt/c/Users/31740/Desktop/newcore/lib/fdt/fdt_empty_tree.c **** 
  14:/mnt/c/Users/31740/Desktop/newcore/lib/fdt/fdt_empty_tree.c **** int fdt_create_empty_tree(void *buf, int bufsize)
  15:/mnt/c/Users/31740/Desktop/newcore/lib/fdt/fdt_empty_tree.c **** {
  34              		.loc 1 15 1 view -0
  35              		.cfi_startproc
  36              		@ args = 0, pretend = 0, frame = 0
  37              		@ frame_needed = 0, uses_anonymous_args = 0
  38              		.loc 1 15 1 is_stmt 0 view .LVU1
  39 0000 38B5     		push	{r3, r4, r5, lr}
  40              	.LCFI0:
  41              		.cfi_def_cfa_offset 16
  42              		.cfi_offset 3, -16
  43              		.cfi_offset 4, -12
ARM GAS  /tmp/ccwZZPo0.s 			page 2


  44              		.cfi_offset 5, -8
  45              		.cfi_offset 14, -4
  46 0002 0546     		mov	r5, r0
  47 0004 0C46     		mov	r4, r1
  16:/mnt/c/Users/31740/Desktop/newcore/lib/fdt/fdt_empty_tree.c **** 	int err;
  48              		.loc 1 16 2 is_stmt 1 view .LVU2
  17:/mnt/c/Users/31740/Desktop/newcore/lib/fdt/fdt_empty_tree.c **** 
  18:/mnt/c/Users/31740/Desktop/newcore/lib/fdt/fdt_empty_tree.c **** 	err = fdt_create(buf, bufsize);
  49              		.loc 1 18 2 view .LVU3
  50              		.loc 1 18 8 is_stmt 0 view .LVU4
  51 0006 FFF7FEFF 		bl	fdt_create
  52              	.LVL1:
  19:/mnt/c/Users/31740/Desktop/newcore/lib/fdt/fdt_empty_tree.c **** 	if (err)
  53              		.loc 1 19 2 is_stmt 1 view .LVU5
  54              		.loc 1 19 5 is_stmt 0 view .LVU6
  55 000a 00B1     		cbz	r0, .L4
  56              	.LVL2:
  57              	.L1:
  20:/mnt/c/Users/31740/Desktop/newcore/lib/fdt/fdt_empty_tree.c **** 		return err;
  21:/mnt/c/Users/31740/Desktop/newcore/lib/fdt/fdt_empty_tree.c **** 
  22:/mnt/c/Users/31740/Desktop/newcore/lib/fdt/fdt_empty_tree.c **** 	err = fdt_finish_reservemap(buf);
  23:/mnt/c/Users/31740/Desktop/newcore/lib/fdt/fdt_empty_tree.c **** 	if (err)
  24:/mnt/c/Users/31740/Desktop/newcore/lib/fdt/fdt_empty_tree.c **** 		return err;
  25:/mnt/c/Users/31740/Desktop/newcore/lib/fdt/fdt_empty_tree.c **** 
  26:/mnt/c/Users/31740/Desktop/newcore/lib/fdt/fdt_empty_tree.c **** 	err = fdt_begin_node(buf, "");
  27:/mnt/c/Users/31740/Desktop/newcore/lib/fdt/fdt_empty_tree.c **** 	if (err)
  28:/mnt/c/Users/31740/Desktop/newcore/lib/fdt/fdt_empty_tree.c **** 		return err;
  29:/mnt/c/Users/31740/Desktop/newcore/lib/fdt/fdt_empty_tree.c **** 
  30:/mnt/c/Users/31740/Desktop/newcore/lib/fdt/fdt_empty_tree.c **** 	err =  fdt_end_node(buf);
  31:/mnt/c/Users/31740/Desktop/newcore/lib/fdt/fdt_empty_tree.c **** 	if (err)
  32:/mnt/c/Users/31740/Desktop/newcore/lib/fdt/fdt_empty_tree.c **** 		return err;
  33:/mnt/c/Users/31740/Desktop/newcore/lib/fdt/fdt_empty_tree.c **** 
  34:/mnt/c/Users/31740/Desktop/newcore/lib/fdt/fdt_empty_tree.c **** 	err = fdt_finish(buf);
  35:/mnt/c/Users/31740/Desktop/newcore/lib/fdt/fdt_empty_tree.c **** 	if (err)
  36:/mnt/c/Users/31740/Desktop/newcore/lib/fdt/fdt_empty_tree.c **** 		return err;
  37:/mnt/c/Users/31740/Desktop/newcore/lib/fdt/fdt_empty_tree.c **** 
  38:/mnt/c/Users/31740/Desktop/newcore/lib/fdt/fdt_empty_tree.c **** 	return fdt_open_into(buf, buf, bufsize);
  39:/mnt/c/Users/31740/Desktop/newcore/lib/fdt/fdt_empty_tree.c **** }
  58              		.loc 1 39 1 view .LVU7
  59 000c 38BD     		pop	{r3, r4, r5, pc}
  60              	.LVL3:
  61              	.L4:
  22:/mnt/c/Users/31740/Desktop/newcore/lib/fdt/fdt_empty_tree.c **** 	if (err)
  62              		.loc 1 22 2 is_stmt 1 view .LVU8
  22:/mnt/c/Users/31740/Desktop/newcore/lib/fdt/fdt_empty_tree.c **** 	if (err)
  63              		.loc 1 22 8 is_stmt 0 view .LVU9
  64 000e 2846     		mov	r0, r5
  65 0010 FFF7FEFF 		bl	fdt_finish_reservemap
  66              	.LVL4:
  23:/mnt/c/Users/31740/Desktop/newcore/lib/fdt/fdt_empty_tree.c **** 		return err;
  67              		.loc 1 23 2 is_stmt 1 view .LVU10
  23:/mnt/c/Users/31740/Desktop/newcore/lib/fdt/fdt_empty_tree.c **** 		return err;
  68              		.loc 1 23 5 is_stmt 0 view .LVU11
  69 0014 0028     		cmp	r0, #0
  70 0016 F9D1     		bne	.L1
  26:/mnt/c/Users/31740/Desktop/newcore/lib/fdt/fdt_empty_tree.c **** 	if (err)
  71              		.loc 1 26 2 is_stmt 1 view .LVU12
ARM GAS  /tmp/ccwZZPo0.s 			page 3


  26:/mnt/c/Users/31740/Desktop/newcore/lib/fdt/fdt_empty_tree.c **** 	if (err)
  72              		.loc 1 26 8 is_stmt 0 view .LVU13
  73 0018 0A49     		ldr	r1, .L5
  74 001a 2846     		mov	r0, r5
  75              	.LVL5:
  26:/mnt/c/Users/31740/Desktop/newcore/lib/fdt/fdt_empty_tree.c **** 	if (err)
  76              		.loc 1 26 8 view .LVU14
  77 001c FFF7FEFF 		bl	fdt_begin_node
  78              	.LVL6:
  27:/mnt/c/Users/31740/Desktop/newcore/lib/fdt/fdt_empty_tree.c **** 		return err;
  79              		.loc 1 27 2 is_stmt 1 view .LVU15
  27:/mnt/c/Users/31740/Desktop/newcore/lib/fdt/fdt_empty_tree.c **** 		return err;
  80              		.loc 1 27 5 is_stmt 0 view .LVU16
  81 0020 0028     		cmp	r0, #0
  82 0022 F3D1     		bne	.L1
  30:/mnt/c/Users/31740/Desktop/newcore/lib/fdt/fdt_empty_tree.c **** 	if (err)
  83              		.loc 1 30 2 is_stmt 1 view .LVU17
  30:/mnt/c/Users/31740/Desktop/newcore/lib/fdt/fdt_empty_tree.c **** 	if (err)
  84              		.loc 1 30 9 is_stmt 0 view .LVU18
  85 0024 2846     		mov	r0, r5
  86              	.LVL7:
  30:/mnt/c/Users/31740/Desktop/newcore/lib/fdt/fdt_empty_tree.c **** 	if (err)
  87              		.loc 1 30 9 view .LVU19
  88 0026 FFF7FEFF 		bl	fdt_end_node
  89              	.LVL8:
  31:/mnt/c/Users/31740/Desktop/newcore/lib/fdt/fdt_empty_tree.c **** 		return err;
  90              		.loc 1 31 2 is_stmt 1 view .LVU20
  31:/mnt/c/Users/31740/Desktop/newcore/lib/fdt/fdt_empty_tree.c **** 		return err;
  91              		.loc 1 31 5 is_stmt 0 view .LVU21
  92 002a 0028     		cmp	r0, #0
  93 002c EED1     		bne	.L1
  34:/mnt/c/Users/31740/Desktop/newcore/lib/fdt/fdt_empty_tree.c **** 	if (err)
  94              		.loc 1 34 2 is_stmt 1 view .LVU22
  34:/mnt/c/Users/31740/Desktop/newcore/lib/fdt/fdt_empty_tree.c **** 	if (err)
  95              		.loc 1 34 8 is_stmt 0 view .LVU23
  96 002e 2846     		mov	r0, r5
  97              	.LVL9:
  34:/mnt/c/Users/31740/Desktop/newcore/lib/fdt/fdt_empty_tree.c **** 	if (err)
  98              		.loc 1 34 8 view .LVU24
  99 0030 FFF7FEFF 		bl	fdt_finish
 100              	.LVL10:
  35:/mnt/c/Users/31740/Desktop/newcore/lib/fdt/fdt_empty_tree.c **** 		return err;
 101              		.loc 1 35 2 is_stmt 1 view .LVU25
  35:/mnt/c/Users/31740/Desktop/newcore/lib/fdt/fdt_empty_tree.c **** 		return err;
 102              		.loc 1 35 5 is_stmt 0 view .LVU26
 103 0034 0028     		cmp	r0, #0
 104 0036 E9D1     		bne	.L1
  38:/mnt/c/Users/31740/Desktop/newcore/lib/fdt/fdt_empty_tree.c **** }
 105              		.loc 1 38 2 is_stmt 1 view .LVU27
  38:/mnt/c/Users/31740/Desktop/newcore/lib/fdt/fdt_empty_tree.c **** }
 106              		.loc 1 38 9 is_stmt 0 view .LVU28
 107 0038 2246     		mov	r2, r4
 108 003a 2946     		mov	r1, r5
 109 003c 2846     		mov	r0, r5
 110              	.LVL11:
  38:/mnt/c/Users/31740/Desktop/newcore/lib/fdt/fdt_empty_tree.c **** }
 111              		.loc 1 38 9 view .LVU29
ARM GAS  /tmp/ccwZZPo0.s 			page 4


 112 003e FFF7FEFF 		bl	fdt_open_into
 113              	.LVL12:
 114 0042 E3E7     		b	.L1
 115              	.L6:
 116              		.align	2
 117              	.L5:
 118 0044 00000000 		.word	.LC0
 119              		.cfi_endproc
 120              	.LFE75:
 122              		.text
 123              	.Letext0:
 124              		.file 2 "/mnt/c/Users/31740/Desktop/newcore/include/linux/libfdt.h"
ARM GAS  /tmp/ccwZZPo0.s 			page 5


DEFINED SYMBOLS
                            *ABS*:00000000 fdt_empty_tree.c
     /tmp/ccwZZPo0.s:21     .rodata.fdt_create_empty_tree.str1.4:00000000 $d
     /tmp/ccwZZPo0.s:25     .text.fdt_create_empty_tree:00000000 $t
     /tmp/ccwZZPo0.s:31     .text.fdt_create_empty_tree:00000000 fdt_create_empty_tree
     /tmp/ccwZZPo0.s:118    .text.fdt_create_empty_tree:00000044 $d

UNDEFINED SYMBOLS
fdt_create
fdt_finish_reservemap
fdt_begin_node
fdt_end_node
fdt_finish
fdt_open_into
