ARM GAS  /tmp/ccjCj9GH.s 			page 1


   1              		.cpu cortex-m4
   2              		.arch armv7e-m
   3              		.fpu fpv4-sp-d16
   4              		.eabi_attribute 27, 1
   5              		.eabi_attribute 28, 1
   6              		.eabi_attribute 20, 1
   7              		.eabi_attribute 21, 1
   8              		.eabi_attribute 23, 3
   9              		.eabi_attribute 24, 1
  10              		.eabi_attribute 25, 1
  11              		.eabi_attribute 26, 1
  12              		.eabi_attribute 30, 1
  13              		.eabi_attribute 34, 1
  14              		.eabi_attribute 18, 4
  15              		.file	"fdt_strerror.c"
  16              		.text
  17              	.Ltext0:
  18              		.cfi_sections	.debug_frame
  19              		.file 1 "/mnt/c/Users/31740/Desktop/newcore/lib/fdt/fdt_strerror.c"
  20              		.section	.rodata.fdt_strerror.str1.4,"aMS",%progbits,1
  21              		.align	2
  22              	.LC0:
  23 0000 3C76616C 		.ascii	"<valid offset/length>\000"
  23      6964206F 
  23      66667365 
  23      742F6C65 
  23      6E677468 
  24 0016 0000     		.align	2
  25              	.LC1:
  26 0018 3C6E6F20 		.ascii	"<no error>\000"
  26      6572726F 
  26      723E00
  27 0023 00       		.align	2
  28              	.LC2:
  29 0024 3C756E6B 		.ascii	"<unknown error>\000"
  29      6E6F776E 
  29      20657272 
  29      6F723E00 
  30              		.section	.text.fdt_strerror,"ax",%progbits
  31              		.align	1
  32              		.global	fdt_strerror
  33              		.syntax unified
  34              		.thumb
  35              		.thumb_func
  37              	fdt_strerror:
  38              	.LVL0:
  39              	.LFB75:
   1:/mnt/c/Users/31740/Desktop/newcore/lib/fdt/fdt_strerror.c **** // SPDX-License-Identifier: (GPL-2.0-or-later OR BSD-2-Clause)
   2:/mnt/c/Users/31740/Desktop/newcore/lib/fdt/fdt_strerror.c **** /*
   3:/mnt/c/Users/31740/Desktop/newcore/lib/fdt/fdt_strerror.c ****  * libfdt - Flat Device Tree manipulation
   4:/mnt/c/Users/31740/Desktop/newcore/lib/fdt/fdt_strerror.c ****  * Copyright (C) 2006 David Gibson, IBM Corporation.
   5:/mnt/c/Users/31740/Desktop/newcore/lib/fdt/fdt_strerror.c ****  *     EVEN IF ADVISED OF THE POSSIBILITY OF SUCH DAMAGE.
   6:/mnt/c/Users/31740/Desktop/newcore/lib/fdt/fdt_strerror.c ****  */
   7:/mnt/c/Users/31740/Desktop/newcore/lib/fdt/fdt_strerror.c **** #include <linux/libfdt_env.h>
   8:/mnt/c/Users/31740/Desktop/newcore/lib/fdt/fdt_strerror.c **** 
   9:/mnt/c/Users/31740/Desktop/newcore/lib/fdt/fdt_strerror.c **** #include <linux/fdt.h>
  10:/mnt/c/Users/31740/Desktop/newcore/lib/fdt/fdt_strerror.c **** #include <linux/libfdt.h>
ARM GAS  /tmp/ccjCj9GH.s 			page 2


  11:/mnt/c/Users/31740/Desktop/newcore/lib/fdt/fdt_strerror.c **** 
  12:/mnt/c/Users/31740/Desktop/newcore/lib/fdt/fdt_strerror.c **** 
  13:/mnt/c/Users/31740/Desktop/newcore/lib/fdt/fdt_strerror.c **** #include "libfdt_internal.h"
  14:/mnt/c/Users/31740/Desktop/newcore/lib/fdt/fdt_strerror.c **** 
  15:/mnt/c/Users/31740/Desktop/newcore/lib/fdt/fdt_strerror.c **** struct fdt_errtabent {
  16:/mnt/c/Users/31740/Desktop/newcore/lib/fdt/fdt_strerror.c **** 	const char *str;
  17:/mnt/c/Users/31740/Desktop/newcore/lib/fdt/fdt_strerror.c **** };
  18:/mnt/c/Users/31740/Desktop/newcore/lib/fdt/fdt_strerror.c **** 
  19:/mnt/c/Users/31740/Desktop/newcore/lib/fdt/fdt_strerror.c **** #define FDT_ERRTABENT(val) \
  20:/mnt/c/Users/31740/Desktop/newcore/lib/fdt/fdt_strerror.c **** 	[(val)] = { .str = #val, }
  21:/mnt/c/Users/31740/Desktop/newcore/lib/fdt/fdt_strerror.c **** 
  22:/mnt/c/Users/31740/Desktop/newcore/lib/fdt/fdt_strerror.c **** static struct fdt_errtabent fdt_errtable[] = {
  23:/mnt/c/Users/31740/Desktop/newcore/lib/fdt/fdt_strerror.c **** 	FDT_ERRTABENT(FDT_ERR_NOTFOUND),
  24:/mnt/c/Users/31740/Desktop/newcore/lib/fdt/fdt_strerror.c **** 	FDT_ERRTABENT(FDT_ERR_EXISTS),
  25:/mnt/c/Users/31740/Desktop/newcore/lib/fdt/fdt_strerror.c **** 	FDT_ERRTABENT(FDT_ERR_NOSPACE),
  26:/mnt/c/Users/31740/Desktop/newcore/lib/fdt/fdt_strerror.c **** 
  27:/mnt/c/Users/31740/Desktop/newcore/lib/fdt/fdt_strerror.c **** 	FDT_ERRTABENT(FDT_ERR_BADOFFSET),
  28:/mnt/c/Users/31740/Desktop/newcore/lib/fdt/fdt_strerror.c **** 	FDT_ERRTABENT(FDT_ERR_BADPATH),
  29:/mnt/c/Users/31740/Desktop/newcore/lib/fdt/fdt_strerror.c **** 	FDT_ERRTABENT(FDT_ERR_BADPHANDLE),
  30:/mnt/c/Users/31740/Desktop/newcore/lib/fdt/fdt_strerror.c **** 	FDT_ERRTABENT(FDT_ERR_BADSTATE),
  31:/mnt/c/Users/31740/Desktop/newcore/lib/fdt/fdt_strerror.c **** 
  32:/mnt/c/Users/31740/Desktop/newcore/lib/fdt/fdt_strerror.c **** 	FDT_ERRTABENT(FDT_ERR_TRUNCATED),
  33:/mnt/c/Users/31740/Desktop/newcore/lib/fdt/fdt_strerror.c **** 	FDT_ERRTABENT(FDT_ERR_BADMAGIC),
  34:/mnt/c/Users/31740/Desktop/newcore/lib/fdt/fdt_strerror.c **** 	FDT_ERRTABENT(FDT_ERR_BADVERSION),
  35:/mnt/c/Users/31740/Desktop/newcore/lib/fdt/fdt_strerror.c **** 	FDT_ERRTABENT(FDT_ERR_BADSTRUCTURE),
  36:/mnt/c/Users/31740/Desktop/newcore/lib/fdt/fdt_strerror.c **** 	FDT_ERRTABENT(FDT_ERR_BADLAYOUT),
  37:/mnt/c/Users/31740/Desktop/newcore/lib/fdt/fdt_strerror.c **** 	FDT_ERRTABENT(FDT_ERR_INTERNAL),
  38:/mnt/c/Users/31740/Desktop/newcore/lib/fdt/fdt_strerror.c **** 	FDT_ERRTABENT(FDT_ERR_BADNCELLS),
  39:/mnt/c/Users/31740/Desktop/newcore/lib/fdt/fdt_strerror.c **** 	FDT_ERRTABENT(FDT_ERR_BADVALUE),
  40:/mnt/c/Users/31740/Desktop/newcore/lib/fdt/fdt_strerror.c **** 	FDT_ERRTABENT(FDT_ERR_BADOVERLAY),
  41:/mnt/c/Users/31740/Desktop/newcore/lib/fdt/fdt_strerror.c **** 	FDT_ERRTABENT(FDT_ERR_NOPHANDLES),
  42:/mnt/c/Users/31740/Desktop/newcore/lib/fdt/fdt_strerror.c **** 	FDT_ERRTABENT(FDT_ERR_BADFLAGS),
  43:/mnt/c/Users/31740/Desktop/newcore/lib/fdt/fdt_strerror.c **** 	FDT_ERRTABENT(FDT_ERR_ALIGNMENT),
  44:/mnt/c/Users/31740/Desktop/newcore/lib/fdt/fdt_strerror.c **** };
  45:/mnt/c/Users/31740/Desktop/newcore/lib/fdt/fdt_strerror.c **** #define FDT_ERRTABSIZE	((int)(sizeof(fdt_errtable) / sizeof(fdt_errtable[0])))
  46:/mnt/c/Users/31740/Desktop/newcore/lib/fdt/fdt_strerror.c **** 
  47:/mnt/c/Users/31740/Desktop/newcore/lib/fdt/fdt_strerror.c **** const char *fdt_strerror(int errval)
  48:/mnt/c/Users/31740/Desktop/newcore/lib/fdt/fdt_strerror.c **** {
  40              		.loc 1 48 1 view -0
  41              		.cfi_startproc
  42              		@ args = 0, pretend = 0, frame = 0
  43              		@ frame_needed = 0, uses_anonymous_args = 0
  44              		@ link register save eliminated.
  49:/mnt/c/Users/31740/Desktop/newcore/lib/fdt/fdt_strerror.c **** 	if (errval > 0)
  45              		.loc 1 49 2 view .LVU1
  46              		.loc 1 49 5 is_stmt 0 view .LVU2
  47 0000 0028     		cmp	r0, #0
  48              		.loc 1 49 5 view .LVU3
  49 0002 0ADC     		bgt	.L3
  50:/mnt/c/Users/31740/Desktop/newcore/lib/fdt/fdt_strerror.c **** 		return "<valid offset/length>";
  51:/mnt/c/Users/31740/Desktop/newcore/lib/fdt/fdt_strerror.c **** 	else if (errval == 0)
  50              		.loc 1 51 7 is_stmt 1 view .LVU4
  51              		.loc 1 51 10 is_stmt 0 view .LVU5
  52 0004 58B1     		cbz	r0, .L4
  52:/mnt/c/Users/31740/Desktop/newcore/lib/fdt/fdt_strerror.c **** 		return "<no error>";
  53:/mnt/c/Users/31740/Desktop/newcore/lib/fdt/fdt_strerror.c **** 	else if (-errval < FDT_ERRTABSIZE) {
  53              		.loc 1 53 7 is_stmt 1 view .LVU6
ARM GAS  /tmp/ccjCj9GH.s 			page 3


  54              		.loc 1 53 10 is_stmt 0 view .LVU7
  55 0006 10F1130F 		cmn	r0, #19
  56 000a 0ADB     		blt	.L5
  57              	.LBB2:
  54:/mnt/c/Users/31740/Desktop/newcore/lib/fdt/fdt_strerror.c **** 		const char *s = fdt_errtable[-errval].str;
  58              		.loc 1 54 3 is_stmt 1 view .LVU8
  59              		.loc 1 54 32 is_stmt 0 view .LVU9
  60 000c 4042     		rsbs	r0, r0, #0
  61              	.LVL1:
  62              		.loc 1 54 15 view .LVU10
  63 000e 064B     		ldr	r3, .L6
  64 0010 53F82000 		ldr	r0, [r3, r0, lsl #2]
  65              	.LVL2:
  55:/mnt/c/Users/31740/Desktop/newcore/lib/fdt/fdt_strerror.c **** 
  56:/mnt/c/Users/31740/Desktop/newcore/lib/fdt/fdt_strerror.c **** 		if (s)
  66              		.loc 1 56 3 is_stmt 1 view .LVU11
  67              		.loc 1 56 6 is_stmt 0 view .LVU12
  68 0014 30B9     		cbnz	r0, .L1
  69              	.LBE2:
  57:/mnt/c/Users/31740/Desktop/newcore/lib/fdt/fdt_strerror.c **** 			return s;
  58:/mnt/c/Users/31740/Desktop/newcore/lib/fdt/fdt_strerror.c **** 	}
  59:/mnt/c/Users/31740/Desktop/newcore/lib/fdt/fdt_strerror.c **** 
  60:/mnt/c/Users/31740/Desktop/newcore/lib/fdt/fdt_strerror.c **** 	return "<unknown error>";
  70              		.loc 1 60 9 view .LVU13
  71 0016 0548     		ldr	r0, .L6+4
  72              	.LVL3:
  73              		.loc 1 60 9 view .LVU14
  74 0018 7047     		bx	lr
  75              	.LVL4:
  76              	.L3:
  50:/mnt/c/Users/31740/Desktop/newcore/lib/fdt/fdt_strerror.c **** 	else if (errval == 0)
  77              		.loc 1 50 10 view .LVU15
  78 001a 0548     		ldr	r0, .L6+8
  79              	.LVL5:
  50:/mnt/c/Users/31740/Desktop/newcore/lib/fdt/fdt_strerror.c **** 	else if (errval == 0)
  80              		.loc 1 50 10 view .LVU16
  81 001c 7047     		bx	lr
  82              	.LVL6:
  83              	.L4:
  52:/mnt/c/Users/31740/Desktop/newcore/lib/fdt/fdt_strerror.c **** 	else if (-errval < FDT_ERRTABSIZE) {
  84              		.loc 1 52 10 view .LVU17
  85 001e 0548     		ldr	r0, .L6+12
  86              	.LVL7:
  52:/mnt/c/Users/31740/Desktop/newcore/lib/fdt/fdt_strerror.c **** 	else if (-errval < FDT_ERRTABSIZE) {
  87              		.loc 1 52 10 view .LVU18
  88 0020 7047     		bx	lr
  89              	.LVL8:
  90              	.L5:
  91              		.loc 1 60 9 view .LVU19
  92 0022 0248     		ldr	r0, .L6+4
  93              	.LVL9:
  94              	.L1:
  61:/mnt/c/Users/31740/Desktop/newcore/lib/fdt/fdt_strerror.c **** }
  95              		.loc 1 61 1 view .LVU20
  96 0024 7047     		bx	lr
  97              	.L7:
  98 0026 00BF     		.align	2
ARM GAS  /tmp/ccjCj9GH.s 			page 4


  99              	.L6:
 100 0028 00000000 		.word	fdt_errtable
 101 002c 24000000 		.word	.LC2
 102 0030 00000000 		.word	.LC0
 103 0034 18000000 		.word	.LC1
 104              		.cfi_endproc
 105              	.LFE75:
 107              		.section	.rodata.str1.4,"aMS",%progbits,1
 108              		.align	2
 109              	.LC3:
 110 0000 4644545F 		.ascii	"FDT_ERR_NOTFOUND\000"
 110      4552525F 
 110      4E4F5446 
 110      4F554E44 
 110      00
 111 0011 000000   		.align	2
 112              	.LC4:
 113 0014 4644545F 		.ascii	"FDT_ERR_EXISTS\000"
 113      4552525F 
 113      45584953 
 113      545300
 114 0023 00       		.align	2
 115              	.LC5:
 116 0024 4644545F 		.ascii	"FDT_ERR_NOSPACE\000"
 116      4552525F 
 116      4E4F5350 
 116      41434500 
 117              		.align	2
 118              	.LC6:
 119 0034 4644545F 		.ascii	"FDT_ERR_BADOFFSET\000"
 119      4552525F 
 119      4241444F 
 119      46465345 
 119      5400
 120 0046 0000     		.align	2
 121              	.LC7:
 122 0048 4644545F 		.ascii	"FDT_ERR_BADPATH\000"
 122      4552525F 
 122      42414450 
 122      41544800 
 123              		.align	2
 124              	.LC8:
 125 0058 4644545F 		.ascii	"FDT_ERR_BADPHANDLE\000"
 125      4552525F 
 125      42414450 
 125      48414E44 
 125      4C4500
 126 006b 00       		.align	2
 127              	.LC9:
 128 006c 4644545F 		.ascii	"FDT_ERR_BADSTATE\000"
 128      4552525F 
 128      42414453 
 128      54415445 
 128      00
 129 007d 000000   		.align	2
 130              	.LC10:
 131 0080 4644545F 		.ascii	"FDT_ERR_TRUNCATED\000"
ARM GAS  /tmp/ccjCj9GH.s 			page 5


 131      4552525F 
 131      5452554E 
 131      43415445 
 131      4400
 132 0092 0000     		.align	2
 133              	.LC11:
 134 0094 4644545F 		.ascii	"FDT_ERR_BADMAGIC\000"
 134      4552525F 
 134      4241444D 
 134      41474943 
 134      00
 135 00a5 000000   		.align	2
 136              	.LC12:
 137 00a8 4644545F 		.ascii	"FDT_ERR_BADVERSION\000"
 137      4552525F 
 137      42414456 
 137      45525349 
 137      4F4E00
 138 00bb 00       		.align	2
 139              	.LC13:
 140 00bc 4644545F 		.ascii	"FDT_ERR_BADSTRUCTURE\000"
 140      4552525F 
 140      42414453 
 140      54525543 
 140      54555245 
 141 00d1 000000   		.align	2
 142              	.LC14:
 143 00d4 4644545F 		.ascii	"FDT_ERR_BADLAYOUT\000"
 143      4552525F 
 143      4241444C 
 143      41594F55 
 143      5400
 144 00e6 0000     		.align	2
 145              	.LC15:
 146 00e8 4644545F 		.ascii	"FDT_ERR_INTERNAL\000"
 146      4552525F 
 146      494E5445 
 146      524E414C 
 146      00
 147 00f9 000000   		.align	2
 148              	.LC16:
 149 00fc 4644545F 		.ascii	"FDT_ERR_BADNCELLS\000"
 149      4552525F 
 149      4241444E 
 149      43454C4C 
 149      5300
 150 010e 0000     		.align	2
 151              	.LC17:
 152 0110 4644545F 		.ascii	"FDT_ERR_BADVALUE\000"
 152      4552525F 
 152      42414456 
 152      414C5545 
 152      00
 153 0121 000000   		.align	2
 154              	.LC18:
 155 0124 4644545F 		.ascii	"FDT_ERR_BADOVERLAY\000"
 155      4552525F 
ARM GAS  /tmp/ccjCj9GH.s 			page 6


 155      4241444F 
 155      5645524C 
 155      415900
 156 0137 00       		.align	2
 157              	.LC19:
 158 0138 4644545F 		.ascii	"FDT_ERR_NOPHANDLES\000"
 158      4552525F 
 158      4E4F5048 
 158      414E444C 
 158      455300
 159 014b 00       		.align	2
 160              	.LC20:
 161 014c 4644545F 		.ascii	"FDT_ERR_BADFLAGS\000"
 161      4552525F 
 161      42414446 
 161      4C414753 
 161      00
 162 015d 000000   		.align	2
 163              	.LC21:
 164 0160 4644545F 		.ascii	"FDT_ERR_ALIGNMENT\000"
 164      4552525F 
 164      414C4947 
 164      4E4D454E 
 164      5400
 165              		.section	.rodata.fdt_errtable,"a"
 166              		.align	2
 169              	fdt_errtable:
 170 0000 00000000 		.space	4
 171 0004 00000000 		.word	.LC3
 172 0008 14000000 		.word	.LC4
 173 000c 24000000 		.word	.LC5
 174 0010 34000000 		.word	.LC6
 175 0014 48000000 		.word	.LC7
 176 0018 58000000 		.word	.LC8
 177 001c 6C000000 		.word	.LC9
 178 0020 80000000 		.word	.LC10
 179 0024 94000000 		.word	.LC11
 180 0028 A8000000 		.word	.LC12
 181 002c BC000000 		.word	.LC13
 182 0030 D4000000 		.word	.LC14
 183 0034 E8000000 		.word	.LC15
 184 0038 FC000000 		.word	.LC16
 185 003c 10010000 		.word	.LC17
 186 0040 24010000 		.word	.LC18
 187 0044 38010000 		.word	.LC19
 188 0048 4C010000 		.word	.LC20
 189 004c 60010000 		.word	.LC21
 190              		.text
 191              	.Letext0:
ARM GAS  /tmp/ccjCj9GH.s 			page 7


DEFINED SYMBOLS
                            *ABS*:00000000 fdt_strerror.c
     /tmp/ccjCj9GH.s:21     .rodata.fdt_strerror.str1.4:00000000 $d
     /tmp/ccjCj9GH.s:31     .text.fdt_strerror:00000000 $t
     /tmp/ccjCj9GH.s:37     .text.fdt_strerror:00000000 fdt_strerror
     /tmp/ccjCj9GH.s:100    .text.fdt_strerror:00000028 $d
     /tmp/ccjCj9GH.s:169    .rodata.fdt_errtable:00000000 fdt_errtable
     /tmp/ccjCj9GH.s:108    .rodata.str1.4:00000000 $d
     /tmp/ccjCj9GH.s:166    .rodata.fdt_errtable:00000000 $d

NO UNDEFINED SYMBOLS
