ARM GAS  /tmp/ccOO9xGx.s 			page 1


   1              		.cpu cortex-m33
   2              		.arch armv8-m.main
   3              		.fpu fpv4-sp-d16
   4              		.arch_extension dsp
   5              		.eabi_attribute 27, 1
   6              		.eabi_attribute 28, 1
   7              		.eabi_attribute 20, 1
   8              		.eabi_attribute 21, 1
   9              		.eabi_attribute 23, 3
  10              		.eabi_attribute 24, 1
  11              		.eabi_attribute 25, 1
  12              		.eabi_attribute 26, 1
  13              		.eabi_attribute 30, 1
  14              		.eabi_attribute 34, 1
  15              		.eabi_attribute 18, 4
  16              		.file	"fdt_sw.c"
  17              		.text
  18              	.Ltext0:
  19              		.cfi_sections	.debug_frame
  20              		.file 1 "/mnt/c/Users/31740/Documents/codes/newcore-rp2350/lib/fdt/fdt_sw.c"
  21              		.section	.text.fdt_sw_probe_,"ax",%progbits
  22              		.align	1
  23              		.syntax unified
  24              		.thumb
  25              		.thumb_func
  27              	fdt_sw_probe_:
  28              	.LVL0:
  29              	.LFB75:
   1:/mnt/c/Users/31740/Documents/codes/newcore-rp2350/lib/fdt/fdt_sw.c **** // SPDX-License-Identifier: (GPL-2.0-or-later OR BSD-2-Clause)
   2:/mnt/c/Users/31740/Documents/codes/newcore-rp2350/lib/fdt/fdt_sw.c **** /*
   3:/mnt/c/Users/31740/Documents/codes/newcore-rp2350/lib/fdt/fdt_sw.c ****  * libfdt - Flat Device Tree manipulation
   4:/mnt/c/Users/31740/Documents/codes/newcore-rp2350/lib/fdt/fdt_sw.c ****  * Copyright (C) 2006 David Gibson, IBM Corporation.
   5:/mnt/c/Users/31740/Documents/codes/newcore-rp2350/lib/fdt/fdt_sw.c ****  */
   6:/mnt/c/Users/31740/Documents/codes/newcore-rp2350/lib/fdt/fdt_sw.c **** #include <linux/libfdt_env.h>
   7:/mnt/c/Users/31740/Documents/codes/newcore-rp2350/lib/fdt/fdt_sw.c **** 
   8:/mnt/c/Users/31740/Documents/codes/newcore-rp2350/lib/fdt/fdt_sw.c **** #include <linux/fdt.h>
   9:/mnt/c/Users/31740/Documents/codes/newcore-rp2350/lib/fdt/fdt_sw.c **** #include <linux/libfdt.h>
  10:/mnt/c/Users/31740/Documents/codes/newcore-rp2350/lib/fdt/fdt_sw.c **** 
  11:/mnt/c/Users/31740/Documents/codes/newcore-rp2350/lib/fdt/fdt_sw.c **** 
  12:/mnt/c/Users/31740/Documents/codes/newcore-rp2350/lib/fdt/fdt_sw.c **** #include "libfdt_internal.h"
  13:/mnt/c/Users/31740/Documents/codes/newcore-rp2350/lib/fdt/fdt_sw.c **** 
  14:/mnt/c/Users/31740/Documents/codes/newcore-rp2350/lib/fdt/fdt_sw.c **** static int fdt_sw_probe_(void *fdt)
  15:/mnt/c/Users/31740/Documents/codes/newcore-rp2350/lib/fdt/fdt_sw.c **** {
  30              		.loc 1 15 1 view -0
  31              		.cfi_startproc
  32              		@ args = 0, pretend = 0, frame = 0
  33              		@ frame_needed = 0, uses_anonymous_args = 0
  34              		@ link register save eliminated.
  16:/mnt/c/Users/31740/Documents/codes/newcore-rp2350/lib/fdt/fdt_sw.c **** 	if (!can_assume(VALID_INPUT)) {
  35              		.loc 1 16 2 view .LVU1
  17:/mnt/c/Users/31740/Documents/codes/newcore-rp2350/lib/fdt/fdt_sw.c **** 		if (fdt_magic(fdt) == FDT_MAGIC)
  36              		.loc 1 17 3 view .LVU2
  37              	.LBB219:
  38              	.LBI219:
  39              		.file 2 "/mnt/c/Users/31740/Documents/codes/newcore-rp2350/include/linux/libfdt.h"
   1:/mnt/c/Users/31740/Documents/codes/newcore-rp2350/include/linux/libfdt.h **** /* SPDX-License-Identifier: (GPL-2.0-or-later OR BSD-2-Clause) */
   2:/mnt/c/Users/31740/Documents/codes/newcore-rp2350/include/linux/libfdt.h **** #ifndef LIBFDT_H
ARM GAS  /tmp/ccOO9xGx.s 			page 2


   3:/mnt/c/Users/31740/Documents/codes/newcore-rp2350/include/linux/libfdt.h **** #define LIBFDT_H
   4:/mnt/c/Users/31740/Documents/codes/newcore-rp2350/include/linux/libfdt.h **** /*
   5:/mnt/c/Users/31740/Documents/codes/newcore-rp2350/include/linux/libfdt.h ****  * libfdt - Flat Device Tree manipulation
   6:/mnt/c/Users/31740/Documents/codes/newcore-rp2350/include/linux/libfdt.h ****  * Copyright (C) 2006 David Gibson, IBM Corporation.
   7:/mnt/c/Users/31740/Documents/codes/newcore-rp2350/include/linux/libfdt.h ****  */
   8:/mnt/c/Users/31740/Documents/codes/newcore-rp2350/include/linux/libfdt.h **** 
   9:/mnt/c/Users/31740/Documents/codes/newcore-rp2350/include/linux/libfdt.h **** #include <linux/libfdt_env.h>
  10:/mnt/c/Users/31740/Documents/codes/newcore-rp2350/include/linux/libfdt.h **** #include <linux/fdt.h>
  11:/mnt/c/Users/31740/Documents/codes/newcore-rp2350/include/linux/libfdt.h **** 
  12:/mnt/c/Users/31740/Documents/codes/newcore-rp2350/include/linux/libfdt.h **** #ifdef __cplusplus
  13:/mnt/c/Users/31740/Documents/codes/newcore-rp2350/include/linux/libfdt.h **** extern "C" {
  14:/mnt/c/Users/31740/Documents/codes/newcore-rp2350/include/linux/libfdt.h **** #endif
  15:/mnt/c/Users/31740/Documents/codes/newcore-rp2350/include/linux/libfdt.h **** 
  16:/mnt/c/Users/31740/Documents/codes/newcore-rp2350/include/linux/libfdt.h **** 
  17:/mnt/c/Users/31740/Documents/codes/newcore-rp2350/include/linux/libfdt.h **** extern const uint8_t __dtb_file_start_address[];
  18:/mnt/c/Users/31740/Documents/codes/newcore-rp2350/include/linux/libfdt.h **** extern const uint8_t __dtb_file_end_address[];
  19:/mnt/c/Users/31740/Documents/codes/newcore-rp2350/include/linux/libfdt.h **** 
  20:/mnt/c/Users/31740/Documents/codes/newcore-rp2350/include/linux/libfdt.h **** #define FDT_FIRST_SUPPORTED_VERSION	0x02
  21:/mnt/c/Users/31740/Documents/codes/newcore-rp2350/include/linux/libfdt.h **** #define FDT_LAST_COMPATIBLE_VERSION	0x10
  22:/mnt/c/Users/31740/Documents/codes/newcore-rp2350/include/linux/libfdt.h **** #define FDT_LAST_SUPPORTED_VERSION	0x11
  23:/mnt/c/Users/31740/Documents/codes/newcore-rp2350/include/linux/libfdt.h **** 
  24:/mnt/c/Users/31740/Documents/codes/newcore-rp2350/include/linux/libfdt.h **** /* Error codes: informative error codes */
  25:/mnt/c/Users/31740/Documents/codes/newcore-rp2350/include/linux/libfdt.h **** #define FDT_ERR_NOTFOUND	1
  26:/mnt/c/Users/31740/Documents/codes/newcore-rp2350/include/linux/libfdt.h **** 	/* FDT_ERR_NOTFOUND: The requested node or property does not exist */
  27:/mnt/c/Users/31740/Documents/codes/newcore-rp2350/include/linux/libfdt.h **** #define FDT_ERR_EXISTS		2
  28:/mnt/c/Users/31740/Documents/codes/newcore-rp2350/include/linux/libfdt.h **** 	/* FDT_ERR_EXISTS: Attempted to create a node or property which
  29:/mnt/c/Users/31740/Documents/codes/newcore-rp2350/include/linux/libfdt.h **** 	 * already exists */
  30:/mnt/c/Users/31740/Documents/codes/newcore-rp2350/include/linux/libfdt.h **** #define FDT_ERR_NOSPACE		3
  31:/mnt/c/Users/31740/Documents/codes/newcore-rp2350/include/linux/libfdt.h **** 	/* FDT_ERR_NOSPACE: Operation needed to expand the device
  32:/mnt/c/Users/31740/Documents/codes/newcore-rp2350/include/linux/libfdt.h **** 	 * tree, but its buffer did not have sufficient space to
  33:/mnt/c/Users/31740/Documents/codes/newcore-rp2350/include/linux/libfdt.h **** 	 * contain the expanded tree. Use fdt_open_into() to move the
  34:/mnt/c/Users/31740/Documents/codes/newcore-rp2350/include/linux/libfdt.h **** 	 * device tree to a buffer with more space. */
  35:/mnt/c/Users/31740/Documents/codes/newcore-rp2350/include/linux/libfdt.h **** 
  36:/mnt/c/Users/31740/Documents/codes/newcore-rp2350/include/linux/libfdt.h **** /* Error codes: codes for bad parameters */
  37:/mnt/c/Users/31740/Documents/codes/newcore-rp2350/include/linux/libfdt.h **** #define FDT_ERR_BADOFFSET	4
  38:/mnt/c/Users/31740/Documents/codes/newcore-rp2350/include/linux/libfdt.h **** 	/* FDT_ERR_BADOFFSET: Function was passed a structure block
  39:/mnt/c/Users/31740/Documents/codes/newcore-rp2350/include/linux/libfdt.h **** 	 * offset which is out-of-bounds, or which points to an
  40:/mnt/c/Users/31740/Documents/codes/newcore-rp2350/include/linux/libfdt.h **** 	 * unsuitable part of the structure for the operation. */
  41:/mnt/c/Users/31740/Documents/codes/newcore-rp2350/include/linux/libfdt.h **** #define FDT_ERR_BADPATH		5
  42:/mnt/c/Users/31740/Documents/codes/newcore-rp2350/include/linux/libfdt.h **** 	/* FDT_ERR_BADPATH: Function was passed a badly formatted path
  43:/mnt/c/Users/31740/Documents/codes/newcore-rp2350/include/linux/libfdt.h **** 	 * (e.g. missing a leading / for a function which requires an
  44:/mnt/c/Users/31740/Documents/codes/newcore-rp2350/include/linux/libfdt.h **** 	 * absolute path) */
  45:/mnt/c/Users/31740/Documents/codes/newcore-rp2350/include/linux/libfdt.h **** #define FDT_ERR_BADPHANDLE	6
  46:/mnt/c/Users/31740/Documents/codes/newcore-rp2350/include/linux/libfdt.h **** 	/* FDT_ERR_BADPHANDLE: Function was passed an invalid phandle.
  47:/mnt/c/Users/31740/Documents/codes/newcore-rp2350/include/linux/libfdt.h **** 	 * This can be caused either by an invalid phandle property
  48:/mnt/c/Users/31740/Documents/codes/newcore-rp2350/include/linux/libfdt.h **** 	 * length, or the phandle value was either 0 or -1, which are
  49:/mnt/c/Users/31740/Documents/codes/newcore-rp2350/include/linux/libfdt.h **** 	 * not permitted. */
  50:/mnt/c/Users/31740/Documents/codes/newcore-rp2350/include/linux/libfdt.h **** #define FDT_ERR_BADSTATE	7
  51:/mnt/c/Users/31740/Documents/codes/newcore-rp2350/include/linux/libfdt.h **** 	/* FDT_ERR_BADSTATE: Function was passed an incomplete device
  52:/mnt/c/Users/31740/Documents/codes/newcore-rp2350/include/linux/libfdt.h **** 	 * tree created by the sequential-write functions, which is
  53:/mnt/c/Users/31740/Documents/codes/newcore-rp2350/include/linux/libfdt.h **** 	 * not sufficiently complete for the requested operation. */
  54:/mnt/c/Users/31740/Documents/codes/newcore-rp2350/include/linux/libfdt.h **** 
  55:/mnt/c/Users/31740/Documents/codes/newcore-rp2350/include/linux/libfdt.h **** /* Error codes: codes for bad device tree blobs */
  56:/mnt/c/Users/31740/Documents/codes/newcore-rp2350/include/linux/libfdt.h **** #define FDT_ERR_TRUNCATED	8
  57:/mnt/c/Users/31740/Documents/codes/newcore-rp2350/include/linux/libfdt.h **** 	/* FDT_ERR_TRUNCATED: FDT or a sub-block is improperly
  58:/mnt/c/Users/31740/Documents/codes/newcore-rp2350/include/linux/libfdt.h **** 	 * terminated (overflows, goes outside allowed bounds, or
  59:/mnt/c/Users/31740/Documents/codes/newcore-rp2350/include/linux/libfdt.h **** 	 * isn't properly terminated).  */
ARM GAS  /tmp/ccOO9xGx.s 			page 3


  60:/mnt/c/Users/31740/Documents/codes/newcore-rp2350/include/linux/libfdt.h **** #define FDT_ERR_BADMAGIC	9
  61:/mnt/c/Users/31740/Documents/codes/newcore-rp2350/include/linux/libfdt.h **** 	/* FDT_ERR_BADMAGIC: Given "device tree" appears not to be a
  62:/mnt/c/Users/31740/Documents/codes/newcore-rp2350/include/linux/libfdt.h **** 	 * device tree at all - it is missing the flattened device
  63:/mnt/c/Users/31740/Documents/codes/newcore-rp2350/include/linux/libfdt.h **** 	 * tree magic number. */
  64:/mnt/c/Users/31740/Documents/codes/newcore-rp2350/include/linux/libfdt.h **** #define FDT_ERR_BADVERSION	10
  65:/mnt/c/Users/31740/Documents/codes/newcore-rp2350/include/linux/libfdt.h **** 	/* FDT_ERR_BADVERSION: Given device tree has a version which
  66:/mnt/c/Users/31740/Documents/codes/newcore-rp2350/include/linux/libfdt.h **** 	 * can't be handled by the requested operation.  For
  67:/mnt/c/Users/31740/Documents/codes/newcore-rp2350/include/linux/libfdt.h **** 	 * read-write functions, this may mean that fdt_open_into() is
  68:/mnt/c/Users/31740/Documents/codes/newcore-rp2350/include/linux/libfdt.h **** 	 * required to convert the tree to the expected version. */
  69:/mnt/c/Users/31740/Documents/codes/newcore-rp2350/include/linux/libfdt.h **** #define FDT_ERR_BADSTRUCTURE	11
  70:/mnt/c/Users/31740/Documents/codes/newcore-rp2350/include/linux/libfdt.h **** 	/* FDT_ERR_BADSTRUCTURE: Given device tree has a corrupt
  71:/mnt/c/Users/31740/Documents/codes/newcore-rp2350/include/linux/libfdt.h **** 	 * structure block or other serious error (e.g. misnested
  72:/mnt/c/Users/31740/Documents/codes/newcore-rp2350/include/linux/libfdt.h **** 	 * nodes, or subnodes preceding properties). */
  73:/mnt/c/Users/31740/Documents/codes/newcore-rp2350/include/linux/libfdt.h **** #define FDT_ERR_BADLAYOUT	12
  74:/mnt/c/Users/31740/Documents/codes/newcore-rp2350/include/linux/libfdt.h **** 	/* FDT_ERR_BADLAYOUT: For read-write functions, the given
  75:/mnt/c/Users/31740/Documents/codes/newcore-rp2350/include/linux/libfdt.h **** 	 * device tree has it's sub-blocks in an order that the
  76:/mnt/c/Users/31740/Documents/codes/newcore-rp2350/include/linux/libfdt.h **** 	 * function can't handle (memory reserve map, then structure,
  77:/mnt/c/Users/31740/Documents/codes/newcore-rp2350/include/linux/libfdt.h **** 	 * then strings).  Use fdt_open_into() to reorganize the tree
  78:/mnt/c/Users/31740/Documents/codes/newcore-rp2350/include/linux/libfdt.h **** 	 * into a form suitable for the read-write operations. */
  79:/mnt/c/Users/31740/Documents/codes/newcore-rp2350/include/linux/libfdt.h **** 
  80:/mnt/c/Users/31740/Documents/codes/newcore-rp2350/include/linux/libfdt.h **** /* "Can't happen" error indicating a bug in libfdt */
  81:/mnt/c/Users/31740/Documents/codes/newcore-rp2350/include/linux/libfdt.h **** #define FDT_ERR_INTERNAL	13
  82:/mnt/c/Users/31740/Documents/codes/newcore-rp2350/include/linux/libfdt.h **** 	/* FDT_ERR_INTERNAL: libfdt has failed an internal assertion.
  83:/mnt/c/Users/31740/Documents/codes/newcore-rp2350/include/linux/libfdt.h **** 	 * Should never be returned, if it is, it indicates a bug in
  84:/mnt/c/Users/31740/Documents/codes/newcore-rp2350/include/linux/libfdt.h **** 	 * libfdt itself. */
  85:/mnt/c/Users/31740/Documents/codes/newcore-rp2350/include/linux/libfdt.h **** 
  86:/mnt/c/Users/31740/Documents/codes/newcore-rp2350/include/linux/libfdt.h **** /* Errors in device tree content */
  87:/mnt/c/Users/31740/Documents/codes/newcore-rp2350/include/linux/libfdt.h **** #define FDT_ERR_BADNCELLS	14
  88:/mnt/c/Users/31740/Documents/codes/newcore-rp2350/include/linux/libfdt.h **** 	/* FDT_ERR_BADNCELLS: Device tree has a #address-cells, #size-cells
  89:/mnt/c/Users/31740/Documents/codes/newcore-rp2350/include/linux/libfdt.h **** 	 * or similar property with a bad format or value */
  90:/mnt/c/Users/31740/Documents/codes/newcore-rp2350/include/linux/libfdt.h **** 
  91:/mnt/c/Users/31740/Documents/codes/newcore-rp2350/include/linux/libfdt.h **** #define FDT_ERR_BADVALUE	15
  92:/mnt/c/Users/31740/Documents/codes/newcore-rp2350/include/linux/libfdt.h **** 	/* FDT_ERR_BADVALUE: Device tree has a property with an unexpected
  93:/mnt/c/Users/31740/Documents/codes/newcore-rp2350/include/linux/libfdt.h **** 	 * value. For example: a property expected to contain a string list
  94:/mnt/c/Users/31740/Documents/codes/newcore-rp2350/include/linux/libfdt.h **** 	 * is not NUL-terminated within the length of its value. */
  95:/mnt/c/Users/31740/Documents/codes/newcore-rp2350/include/linux/libfdt.h **** 
  96:/mnt/c/Users/31740/Documents/codes/newcore-rp2350/include/linux/libfdt.h **** #define FDT_ERR_BADOVERLAY	16
  97:/mnt/c/Users/31740/Documents/codes/newcore-rp2350/include/linux/libfdt.h **** 	/* FDT_ERR_BADOVERLAY: The device tree overlay, while
  98:/mnt/c/Users/31740/Documents/codes/newcore-rp2350/include/linux/libfdt.h **** 	 * correctly structured, cannot be applied due to some
  99:/mnt/c/Users/31740/Documents/codes/newcore-rp2350/include/linux/libfdt.h **** 	 * unexpected or missing value, property or node. */
 100:/mnt/c/Users/31740/Documents/codes/newcore-rp2350/include/linux/libfdt.h **** 
 101:/mnt/c/Users/31740/Documents/codes/newcore-rp2350/include/linux/libfdt.h **** #define FDT_ERR_NOPHANDLES	17
 102:/mnt/c/Users/31740/Documents/codes/newcore-rp2350/include/linux/libfdt.h **** 	/* FDT_ERR_NOPHANDLES: The device tree doesn't have any
 103:/mnt/c/Users/31740/Documents/codes/newcore-rp2350/include/linux/libfdt.h **** 	 * phandle available anymore without causing an overflow */
 104:/mnt/c/Users/31740/Documents/codes/newcore-rp2350/include/linux/libfdt.h **** 
 105:/mnt/c/Users/31740/Documents/codes/newcore-rp2350/include/linux/libfdt.h **** #define FDT_ERR_BADFLAGS	18
 106:/mnt/c/Users/31740/Documents/codes/newcore-rp2350/include/linux/libfdt.h **** 	/* FDT_ERR_BADFLAGS: The function was passed a flags field that
 107:/mnt/c/Users/31740/Documents/codes/newcore-rp2350/include/linux/libfdt.h **** 	 * contains invalid flags or an invalid combination of flags. */
 108:/mnt/c/Users/31740/Documents/codes/newcore-rp2350/include/linux/libfdt.h **** 
 109:/mnt/c/Users/31740/Documents/codes/newcore-rp2350/include/linux/libfdt.h **** #define FDT_ERR_ALIGNMENT	19
 110:/mnt/c/Users/31740/Documents/codes/newcore-rp2350/include/linux/libfdt.h **** 	/* FDT_ERR_ALIGNMENT: The device tree base address is not 8-byte
 111:/mnt/c/Users/31740/Documents/codes/newcore-rp2350/include/linux/libfdt.h **** 	 * aligned. */
 112:/mnt/c/Users/31740/Documents/codes/newcore-rp2350/include/linux/libfdt.h **** 
 113:/mnt/c/Users/31740/Documents/codes/newcore-rp2350/include/linux/libfdt.h **** #define FDT_ERR_MAX		19
 114:/mnt/c/Users/31740/Documents/codes/newcore-rp2350/include/linux/libfdt.h **** 
 115:/mnt/c/Users/31740/Documents/codes/newcore-rp2350/include/linux/libfdt.h **** /* constants */
 116:/mnt/c/Users/31740/Documents/codes/newcore-rp2350/include/linux/libfdt.h **** #define FDT_MAX_PHANDLE 0xfffffffe
ARM GAS  /tmp/ccOO9xGx.s 			page 4


 117:/mnt/c/Users/31740/Documents/codes/newcore-rp2350/include/linux/libfdt.h **** 	/* Valid values for phandles range from 1 to 2^32-2. */
 118:/mnt/c/Users/31740/Documents/codes/newcore-rp2350/include/linux/libfdt.h **** 
 119:/mnt/c/Users/31740/Documents/codes/newcore-rp2350/include/linux/libfdt.h **** /**********************************************************************/
 120:/mnt/c/Users/31740/Documents/codes/newcore-rp2350/include/linux/libfdt.h **** /* Low-level functions (you probably don't need these)                */
 121:/mnt/c/Users/31740/Documents/codes/newcore-rp2350/include/linux/libfdt.h **** /**********************************************************************/
 122:/mnt/c/Users/31740/Documents/codes/newcore-rp2350/include/linux/libfdt.h **** 
 123:/mnt/c/Users/31740/Documents/codes/newcore-rp2350/include/linux/libfdt.h **** #ifndef SWIG /* This function is not useful in Python */
 124:/mnt/c/Users/31740/Documents/codes/newcore-rp2350/include/linux/libfdt.h **** const void *fdt_offset_ptr(const void *fdt, int offset, unsigned int checklen);
 125:/mnt/c/Users/31740/Documents/codes/newcore-rp2350/include/linux/libfdt.h **** #endif
 126:/mnt/c/Users/31740/Documents/codes/newcore-rp2350/include/linux/libfdt.h **** static inline void *fdt_offset_ptr_w(void *fdt, int offset, int checklen)
 127:/mnt/c/Users/31740/Documents/codes/newcore-rp2350/include/linux/libfdt.h **** {
 128:/mnt/c/Users/31740/Documents/codes/newcore-rp2350/include/linux/libfdt.h **** 	return (void *)(uintptr_t)fdt_offset_ptr(fdt, offset, checklen);
 129:/mnt/c/Users/31740/Documents/codes/newcore-rp2350/include/linux/libfdt.h **** }
 130:/mnt/c/Users/31740/Documents/codes/newcore-rp2350/include/linux/libfdt.h **** 
 131:/mnt/c/Users/31740/Documents/codes/newcore-rp2350/include/linux/libfdt.h **** uint32_t fdt_next_tag(const void *fdt, int offset, int *nextoffset);
 132:/mnt/c/Users/31740/Documents/codes/newcore-rp2350/include/linux/libfdt.h **** 
 133:/mnt/c/Users/31740/Documents/codes/newcore-rp2350/include/linux/libfdt.h **** /*
 134:/mnt/c/Users/31740/Documents/codes/newcore-rp2350/include/linux/libfdt.h ****  * External helpers to access words from a device tree blob. They're built
 135:/mnt/c/Users/31740/Documents/codes/newcore-rp2350/include/linux/libfdt.h ****  * to work even with unaligned pointers on platforms (such as ARMv5) that don't
 136:/mnt/c/Users/31740/Documents/codes/newcore-rp2350/include/linux/libfdt.h ****  * like unaligned loads and stores.
 137:/mnt/c/Users/31740/Documents/codes/newcore-rp2350/include/linux/libfdt.h ****  */
 138:/mnt/c/Users/31740/Documents/codes/newcore-rp2350/include/linux/libfdt.h **** static inline uint16_t fdt16_ld(const fdt16_t *p)
 139:/mnt/c/Users/31740/Documents/codes/newcore-rp2350/include/linux/libfdt.h **** {
 140:/mnt/c/Users/31740/Documents/codes/newcore-rp2350/include/linux/libfdt.h **** 	const uint8_t *bp = (const uint8_t *)p;
 141:/mnt/c/Users/31740/Documents/codes/newcore-rp2350/include/linux/libfdt.h **** 
 142:/mnt/c/Users/31740/Documents/codes/newcore-rp2350/include/linux/libfdt.h **** 	return ((uint16_t)bp[0] << 8) | bp[1];
 143:/mnt/c/Users/31740/Documents/codes/newcore-rp2350/include/linux/libfdt.h **** }
 144:/mnt/c/Users/31740/Documents/codes/newcore-rp2350/include/linux/libfdt.h **** 
 145:/mnt/c/Users/31740/Documents/codes/newcore-rp2350/include/linux/libfdt.h **** static inline uint32_t fdt32_ld(const fdt32_t *p)
  40              		.loc 2 145 24 view .LVU3
  41              	.LBB220:
 146:/mnt/c/Users/31740/Documents/codes/newcore-rp2350/include/linux/libfdt.h **** {
 147:/mnt/c/Users/31740/Documents/codes/newcore-rp2350/include/linux/libfdt.h **** 	const uint8_t *bp = (const uint8_t *)p;
  42              		.loc 2 147 2 view .LVU4
 148:/mnt/c/Users/31740/Documents/codes/newcore-rp2350/include/linux/libfdt.h **** 
 149:/mnt/c/Users/31740/Documents/codes/newcore-rp2350/include/linux/libfdt.h **** 	return ((uint32_t)bp[0] << 24)
  43              		.loc 2 149 2 view .LVU5
  44              		.loc 2 149 22 is_stmt 0 view .LVU6
  45 0000 0278     		ldrb	r2, [r0]	@ zero_extendqisi2
 150:/mnt/c/Users/31740/Documents/codes/newcore-rp2350/include/linux/libfdt.h **** 		| ((uint32_t)bp[1] << 16)
  46              		.loc 2 150 18 view .LVU7
  47 0002 4378     		ldrb	r3, [r0, #1]	@ zero_extendqisi2
  48              		.loc 2 150 22 view .LVU8
  49 0004 1B04     		lsls	r3, r3, #16
  50              		.loc 2 150 3 view .LVU9
  51 0006 43EA0263 		orr	r3, r3, r2, lsl #24
 151:/mnt/c/Users/31740/Documents/codes/newcore-rp2350/include/linux/libfdt.h **** 		| ((uint32_t)bp[2] << 8)
  52              		.loc 2 151 18 view .LVU10
  53 000a 8278     		ldrb	r2, [r0, #2]	@ zero_extendqisi2
  54              		.loc 2 151 3 view .LVU11
  55 000c 43EA0223 		orr	r3, r3, r2, lsl #8
 152:/mnt/c/Users/31740/Documents/codes/newcore-rp2350/include/linux/libfdt.h **** 		| bp[3];
  56              		.loc 2 152 7 view .LVU12
  57 0010 C278     		ldrb	r2, [r0, #3]	@ zero_extendqisi2
  58              		.loc 2 152 3 view .LVU13
  59 0012 1343     		orrs	r3, r3, r2
  60              	.LVL1:
ARM GAS  /tmp/ccOO9xGx.s 			page 5


  61              		.loc 2 152 3 view .LVU14
  62              	.LBE220:
  63              	.LBE219:
  64              		.loc 1 17 6 discriminator 1 view .LVU15
  65 0014 064A     		ldr	r2, .L5
  66 0016 9342     		cmp	r3, r2
  67 0018 04D0     		beq	.L3
  18:/mnt/c/Users/31740/Documents/codes/newcore-rp2350/lib/fdt/fdt_sw.c **** 			return -FDT_ERR_BADSTATE;
  19:/mnt/c/Users/31740/Documents/codes/newcore-rp2350/lib/fdt/fdt_sw.c **** 		else if (fdt_magic(fdt) != FDT_SW_MAGIC)
  68              		.loc 1 19 8 is_stmt 1 view .LVU16
  69              	.LVL2:
  70              		.loc 1 19 11 is_stmt 0 discriminator 1 view .LVU17
  71 001a 064A     		ldr	r2, .L5+4
  72 001c 9342     		cmp	r3, r2
  73 001e 04D1     		bne	.L4
  20:/mnt/c/Users/31740/Documents/codes/newcore-rp2350/lib/fdt/fdt_sw.c **** 			return -FDT_ERR_BADMAGIC;
  21:/mnt/c/Users/31740/Documents/codes/newcore-rp2350/lib/fdt/fdt_sw.c **** 	}
  22:/mnt/c/Users/31740/Documents/codes/newcore-rp2350/lib/fdt/fdt_sw.c **** 
  23:/mnt/c/Users/31740/Documents/codes/newcore-rp2350/lib/fdt/fdt_sw.c **** 	return 0;
  74              		.loc 1 23 9 view .LVU18
  75 0020 0020     		movs	r0, #0
  76              	.LVL3:
  77              		.loc 1 23 9 view .LVU19
  78 0022 7047     		bx	lr
  79              	.LVL4:
  80              	.L3:
  18:/mnt/c/Users/31740/Documents/codes/newcore-rp2350/lib/fdt/fdt_sw.c **** 			return -FDT_ERR_BADSTATE;
  81              		.loc 1 18 11 view .LVU20
  82 0024 6FF00600 		mvn	r0, #6
  83              	.LVL5:
  18:/mnt/c/Users/31740/Documents/codes/newcore-rp2350/lib/fdt/fdt_sw.c **** 			return -FDT_ERR_BADSTATE;
  84              		.loc 1 18 11 view .LVU21
  85 0028 7047     		bx	lr
  86              	.LVL6:
  87              	.L4:
  20:/mnt/c/Users/31740/Documents/codes/newcore-rp2350/lib/fdt/fdt_sw.c **** 			return -FDT_ERR_BADMAGIC;
  88              		.loc 1 20 11 view .LVU22
  89 002a 6FF00800 		mvn	r0, #8
  90              	.LVL7:
  24:/mnt/c/Users/31740/Documents/codes/newcore-rp2350/lib/fdt/fdt_sw.c **** }
  91              		.loc 1 24 1 view .LVU23
  92 002e 7047     		bx	lr
  93              	.L6:
  94              		.align	2
  95              	.L5:
  96 0030 EDFE0DD0 		.word	-804389139
  97 0034 1201F22F 		.word	804389138
  98              		.cfi_endproc
  99              	.LFE75:
 101              		.section	.text.fdt_sw_probe_memrsv_,"ax",%progbits
 102              		.align	1
 103              		.syntax unified
 104              		.thumb
 105              		.thumb_func
 107              	fdt_sw_probe_memrsv_:
 108              	.LVL8:
 109              	.LFB76:
ARM GAS  /tmp/ccOO9xGx.s 			page 6


  25:/mnt/c/Users/31740/Documents/codes/newcore-rp2350/lib/fdt/fdt_sw.c **** 
  26:/mnt/c/Users/31740/Documents/codes/newcore-rp2350/lib/fdt/fdt_sw.c **** #define FDT_SW_PROBE(fdt) \
  27:/mnt/c/Users/31740/Documents/codes/newcore-rp2350/lib/fdt/fdt_sw.c **** 	{ \
  28:/mnt/c/Users/31740/Documents/codes/newcore-rp2350/lib/fdt/fdt_sw.c **** 		int err; \
  29:/mnt/c/Users/31740/Documents/codes/newcore-rp2350/lib/fdt/fdt_sw.c **** 		if ((err = fdt_sw_probe_(fdt)) != 0) \
  30:/mnt/c/Users/31740/Documents/codes/newcore-rp2350/lib/fdt/fdt_sw.c **** 			return err; \
  31:/mnt/c/Users/31740/Documents/codes/newcore-rp2350/lib/fdt/fdt_sw.c **** 	}
  32:/mnt/c/Users/31740/Documents/codes/newcore-rp2350/lib/fdt/fdt_sw.c **** 
  33:/mnt/c/Users/31740/Documents/codes/newcore-rp2350/lib/fdt/fdt_sw.c **** /* 'memrsv' state:	Initial state after fdt_create()
  34:/mnt/c/Users/31740/Documents/codes/newcore-rp2350/lib/fdt/fdt_sw.c ****  *
  35:/mnt/c/Users/31740/Documents/codes/newcore-rp2350/lib/fdt/fdt_sw.c ****  * Allowed functions:
  36:/mnt/c/Users/31740/Documents/codes/newcore-rp2350/lib/fdt/fdt_sw.c ****  *	fdt_add_reservemap_entry()
  37:/mnt/c/Users/31740/Documents/codes/newcore-rp2350/lib/fdt/fdt_sw.c ****  *	fdt_finish_reservemap()		[moves to 'struct' state]
  38:/mnt/c/Users/31740/Documents/codes/newcore-rp2350/lib/fdt/fdt_sw.c ****  */
  39:/mnt/c/Users/31740/Documents/codes/newcore-rp2350/lib/fdt/fdt_sw.c **** static int fdt_sw_probe_memrsv_(void *fdt)
  40:/mnt/c/Users/31740/Documents/codes/newcore-rp2350/lib/fdt/fdt_sw.c **** {
 110              		.loc 1 40 1 is_stmt 1 view -0
 111              		.cfi_startproc
 112              		@ args = 0, pretend = 0, frame = 0
 113              		@ frame_needed = 0, uses_anonymous_args = 0
 114              		.loc 1 40 1 is_stmt 0 view .LVU25
 115 0000 10B5     		push	{r4, lr}
 116              	.LCFI0:
 117              		.cfi_def_cfa_offset 8
 118              		.cfi_offset 4, -8
 119              		.cfi_offset 14, -4
 120 0002 0446     		mov	r4, r0
  41:/mnt/c/Users/31740/Documents/codes/newcore-rp2350/lib/fdt/fdt_sw.c **** 	int err = fdt_sw_probe_(fdt);
 121              		.loc 1 41 2 is_stmt 1 view .LVU26
 122              		.loc 1 41 12 is_stmt 0 view .LVU27
 123 0004 FFF7FEFF 		bl	fdt_sw_probe_
 124              	.LVL9:
  42:/mnt/c/Users/31740/Documents/codes/newcore-rp2350/lib/fdt/fdt_sw.c **** 	if (err)
 125              		.loc 1 42 2 is_stmt 1 view .LVU28
 126              		.loc 1 42 5 is_stmt 0 view .LVU29
 127 0008 50B9     		cbnz	r0, .L7
  43:/mnt/c/Users/31740/Documents/codes/newcore-rp2350/lib/fdt/fdt_sw.c **** 		return err;
  44:/mnt/c/Users/31740/Documents/codes/newcore-rp2350/lib/fdt/fdt_sw.c **** 
  45:/mnt/c/Users/31740/Documents/codes/newcore-rp2350/lib/fdt/fdt_sw.c **** 	if (!can_assume(VALID_INPUT) && fdt_off_dt_strings(fdt) != 0)
 128              		.loc 1 45 2 is_stmt 1 view .LVU30
 129              	.LVL10:
 130              	.LBB221:
 131              	.LBI221:
 145:/mnt/c/Users/31740/Documents/codes/newcore-rp2350/include/linux/libfdt.h **** {
 132              		.loc 2 145 24 view .LVU31
 133              	.LBB222:
 147:/mnt/c/Users/31740/Documents/codes/newcore-rp2350/include/linux/libfdt.h **** 
 134              		.loc 2 147 2 view .LVU32
 149:/mnt/c/Users/31740/Documents/codes/newcore-rp2350/include/linux/libfdt.h **** 		| ((uint32_t)bp[1] << 16)
 135              		.loc 2 149 2 view .LVU33
 149:/mnt/c/Users/31740/Documents/codes/newcore-rp2350/include/linux/libfdt.h **** 		| ((uint32_t)bp[1] << 16)
 136              		.loc 2 149 22 is_stmt 0 view .LVU34
 137 000a 227B     		ldrb	r2, [r4, #12]	@ zero_extendqisi2
 150:/mnt/c/Users/31740/Documents/codes/newcore-rp2350/include/linux/libfdt.h **** 		| ((uint32_t)bp[2] << 8)
 138              		.loc 2 150 18 view .LVU35
 139 000c 637B     		ldrb	r3, [r4, #13]	@ zero_extendqisi2
 150:/mnt/c/Users/31740/Documents/codes/newcore-rp2350/include/linux/libfdt.h **** 		| ((uint32_t)bp[2] << 8)
ARM GAS  /tmp/ccOO9xGx.s 			page 7


 140              		.loc 2 150 22 view .LVU36
 141 000e 1B04     		lsls	r3, r3, #16
 150:/mnt/c/Users/31740/Documents/codes/newcore-rp2350/include/linux/libfdt.h **** 		| ((uint32_t)bp[2] << 8)
 142              		.loc 2 150 3 view .LVU37
 143 0010 43EA0263 		orr	r3, r3, r2, lsl #24
 151:/mnt/c/Users/31740/Documents/codes/newcore-rp2350/include/linux/libfdt.h **** 		| bp[3];
 144              		.loc 2 151 18 view .LVU38
 145 0014 A27B     		ldrb	r2, [r4, #14]	@ zero_extendqisi2
 151:/mnt/c/Users/31740/Documents/codes/newcore-rp2350/include/linux/libfdt.h **** 		| bp[3];
 146              		.loc 2 151 3 view .LVU39
 147 0016 43EA0223 		orr	r3, r3, r2, lsl #8
 148              		.loc 2 152 7 view .LVU40
 149 001a E27B     		ldrb	r2, [r4, #15]	@ zero_extendqisi2
 150              	.LVL11:
 151              		.loc 2 152 7 view .LVU41
 152              	.LBE222:
 153              	.LBE221:
 154              		.loc 1 45 31 discriminator 1 view .LVU42
 155 001c 1343     		orrs	r3, r3, r2
 156 001e 00D1     		bne	.L11
 157              	.LVL12:
 158              	.L7:
  46:/mnt/c/Users/31740/Documents/codes/newcore-rp2350/lib/fdt/fdt_sw.c **** 		return -FDT_ERR_BADSTATE;
  47:/mnt/c/Users/31740/Documents/codes/newcore-rp2350/lib/fdt/fdt_sw.c **** 	return 0;
  48:/mnt/c/Users/31740/Documents/codes/newcore-rp2350/lib/fdt/fdt_sw.c **** }
 159              		.loc 1 48 1 view .LVU43
 160 0020 10BD     		pop	{r4, pc}
 161              	.LVL13:
 162              	.L11:
  46:/mnt/c/Users/31740/Documents/codes/newcore-rp2350/lib/fdt/fdt_sw.c **** 		return -FDT_ERR_BADSTATE;
 163              		.loc 1 46 10 view .LVU44
 164 0022 6FF00600 		mvn	r0, #6
 165 0026 FBE7     		b	.L7
 166              		.cfi_endproc
 167              	.LFE76:
 169              		.section	.text.fdt_sw_probe_struct_,"ax",%progbits
 170              		.align	1
 171              		.syntax unified
 172              		.thumb
 173              		.thumb_func
 175              	fdt_sw_probe_struct_:
 176              	.LVL14:
 177              	.LFB77:
  49:/mnt/c/Users/31740/Documents/codes/newcore-rp2350/lib/fdt/fdt_sw.c **** 
  50:/mnt/c/Users/31740/Documents/codes/newcore-rp2350/lib/fdt/fdt_sw.c **** #define FDT_SW_PROBE_MEMRSV(fdt) \
  51:/mnt/c/Users/31740/Documents/codes/newcore-rp2350/lib/fdt/fdt_sw.c **** 	{ \
  52:/mnt/c/Users/31740/Documents/codes/newcore-rp2350/lib/fdt/fdt_sw.c **** 		int err; \
  53:/mnt/c/Users/31740/Documents/codes/newcore-rp2350/lib/fdt/fdt_sw.c **** 		if ((err = fdt_sw_probe_memrsv_(fdt)) != 0) \
  54:/mnt/c/Users/31740/Documents/codes/newcore-rp2350/lib/fdt/fdt_sw.c **** 			return err; \
  55:/mnt/c/Users/31740/Documents/codes/newcore-rp2350/lib/fdt/fdt_sw.c **** 	}
  56:/mnt/c/Users/31740/Documents/codes/newcore-rp2350/lib/fdt/fdt_sw.c **** 
  57:/mnt/c/Users/31740/Documents/codes/newcore-rp2350/lib/fdt/fdt_sw.c **** /* 'struct' state:	Enter this state after fdt_finish_reservemap()
  58:/mnt/c/Users/31740/Documents/codes/newcore-rp2350/lib/fdt/fdt_sw.c ****  *
  59:/mnt/c/Users/31740/Documents/codes/newcore-rp2350/lib/fdt/fdt_sw.c ****  * Allowed functions:
  60:/mnt/c/Users/31740/Documents/codes/newcore-rp2350/lib/fdt/fdt_sw.c ****  *	fdt_begin_node()
  61:/mnt/c/Users/31740/Documents/codes/newcore-rp2350/lib/fdt/fdt_sw.c ****  *	fdt_end_node()
  62:/mnt/c/Users/31740/Documents/codes/newcore-rp2350/lib/fdt/fdt_sw.c ****  *	fdt_property*()
ARM GAS  /tmp/ccOO9xGx.s 			page 8


  63:/mnt/c/Users/31740/Documents/codes/newcore-rp2350/lib/fdt/fdt_sw.c ****  *	fdt_finish()			[moves to 'complete' state]
  64:/mnt/c/Users/31740/Documents/codes/newcore-rp2350/lib/fdt/fdt_sw.c ****  */
  65:/mnt/c/Users/31740/Documents/codes/newcore-rp2350/lib/fdt/fdt_sw.c **** static int fdt_sw_probe_struct_(void *fdt)
  66:/mnt/c/Users/31740/Documents/codes/newcore-rp2350/lib/fdt/fdt_sw.c **** {
 178              		.loc 1 66 1 is_stmt 1 view -0
 179              		.cfi_startproc
 180              		@ args = 0, pretend = 0, frame = 0
 181              		@ frame_needed = 0, uses_anonymous_args = 0
 182              		.loc 1 66 1 is_stmt 0 view .LVU46
 183 0000 10B5     		push	{r4, lr}
 184              	.LCFI1:
 185              		.cfi_def_cfa_offset 8
 186              		.cfi_offset 4, -8
 187              		.cfi_offset 14, -4
 188 0002 0446     		mov	r4, r0
  67:/mnt/c/Users/31740/Documents/codes/newcore-rp2350/lib/fdt/fdt_sw.c **** 	int err = fdt_sw_probe_(fdt);
 189              		.loc 1 67 2 is_stmt 1 view .LVU47
 190              		.loc 1 67 12 is_stmt 0 view .LVU48
 191 0004 FFF7FEFF 		bl	fdt_sw_probe_
 192              	.LVL15:
  68:/mnt/c/Users/31740/Documents/codes/newcore-rp2350/lib/fdt/fdt_sw.c **** 	if (err)
 193              		.loc 1 68 2 is_stmt 1 view .LVU49
 194              		.loc 1 68 5 is_stmt 0 view .LVU50
 195 0008 A8B9     		cbnz	r0, .L12
  69:/mnt/c/Users/31740/Documents/codes/newcore-rp2350/lib/fdt/fdt_sw.c **** 		return err;
  70:/mnt/c/Users/31740/Documents/codes/newcore-rp2350/lib/fdt/fdt_sw.c **** 
  71:/mnt/c/Users/31740/Documents/codes/newcore-rp2350/lib/fdt/fdt_sw.c **** 	if (!can_assume(VALID_INPUT) &&
 196              		.loc 1 71 2 is_stmt 1 view .LVU51
 197              	.LVL16:
 198              	.LBB223:
 199              	.LBI223:
 145:/mnt/c/Users/31740/Documents/codes/newcore-rp2350/include/linux/libfdt.h **** {
 200              		.loc 2 145 24 view .LVU52
 201              	.LBB224:
 147:/mnt/c/Users/31740/Documents/codes/newcore-rp2350/include/linux/libfdt.h **** 
 202              		.loc 2 147 2 view .LVU53
 149:/mnt/c/Users/31740/Documents/codes/newcore-rp2350/include/linux/libfdt.h **** 		| ((uint32_t)bp[1] << 16)
 203              		.loc 2 149 2 view .LVU54
 149:/mnt/c/Users/31740/Documents/codes/newcore-rp2350/include/linux/libfdt.h **** 		| ((uint32_t)bp[1] << 16)
 204              		.loc 2 149 22 is_stmt 0 view .LVU55
 205 000a 227B     		ldrb	r2, [r4, #12]	@ zero_extendqisi2
 150:/mnt/c/Users/31740/Documents/codes/newcore-rp2350/include/linux/libfdt.h **** 		| ((uint32_t)bp[2] << 8)
 206              		.loc 2 150 18 view .LVU56
 207 000c 637B     		ldrb	r3, [r4, #13]	@ zero_extendqisi2
 150:/mnt/c/Users/31740/Documents/codes/newcore-rp2350/include/linux/libfdt.h **** 		| ((uint32_t)bp[2] << 8)
 208              		.loc 2 150 22 view .LVU57
 209 000e 1B04     		lsls	r3, r3, #16
 150:/mnt/c/Users/31740/Documents/codes/newcore-rp2350/include/linux/libfdt.h **** 		| ((uint32_t)bp[2] << 8)
 210              		.loc 2 150 3 view .LVU58
 211 0010 43EA0263 		orr	r3, r3, r2, lsl #24
 151:/mnt/c/Users/31740/Documents/codes/newcore-rp2350/include/linux/libfdt.h **** 		| bp[3];
 212              		.loc 2 151 18 view .LVU59
 213 0014 A27B     		ldrb	r2, [r4, #14]	@ zero_extendqisi2
 151:/mnt/c/Users/31740/Documents/codes/newcore-rp2350/include/linux/libfdt.h **** 		| bp[3];
 214              		.loc 2 151 3 view .LVU60
 215 0016 43EA0223 		orr	r3, r3, r2, lsl #8
 216              		.loc 2 152 7 view .LVU61
ARM GAS  /tmp/ccOO9xGx.s 			page 9


 217 001a E27B     		ldrb	r2, [r4, #15]	@ zero_extendqisi2
 218              		.loc 2 152 3 view .LVU62
 219 001c 1343     		orrs	r3, r3, r2
 220              	.LVL17:
 221              		.loc 2 152 3 view .LVU63
 222              	.LBE224:
 223              	.LBE223:
 224              	.LBB225:
 225              	.LBI225:
 145:/mnt/c/Users/31740/Documents/codes/newcore-rp2350/include/linux/libfdt.h **** {
 226              		.loc 2 145 24 is_stmt 1 view .LVU64
 227              	.LBB226:
 147:/mnt/c/Users/31740/Documents/codes/newcore-rp2350/include/linux/libfdt.h **** 
 228              		.loc 2 147 2 view .LVU65
 149:/mnt/c/Users/31740/Documents/codes/newcore-rp2350/include/linux/libfdt.h **** 		| ((uint32_t)bp[1] << 16)
 229              		.loc 2 149 2 view .LVU66
 149:/mnt/c/Users/31740/Documents/codes/newcore-rp2350/include/linux/libfdt.h **** 		| ((uint32_t)bp[1] << 16)
 230              		.loc 2 149 22 is_stmt 0 view .LVU67
 231 001e 2179     		ldrb	r1, [r4, #4]	@ zero_extendqisi2
 150:/mnt/c/Users/31740/Documents/codes/newcore-rp2350/include/linux/libfdt.h **** 		| ((uint32_t)bp[2] << 8)
 232              		.loc 2 150 18 view .LVU68
 233 0020 6279     		ldrb	r2, [r4, #5]	@ zero_extendqisi2
 150:/mnt/c/Users/31740/Documents/codes/newcore-rp2350/include/linux/libfdt.h **** 		| ((uint32_t)bp[2] << 8)
 234              		.loc 2 150 22 view .LVU69
 235 0022 1204     		lsls	r2, r2, #16
 150:/mnt/c/Users/31740/Documents/codes/newcore-rp2350/include/linux/libfdt.h **** 		| ((uint32_t)bp[2] << 8)
 236              		.loc 2 150 3 view .LVU70
 237 0024 42EA0162 		orr	r2, r2, r1, lsl #24
 151:/mnt/c/Users/31740/Documents/codes/newcore-rp2350/include/linux/libfdt.h **** 		| bp[3];
 238              		.loc 2 151 18 view .LVU71
 239 0028 A179     		ldrb	r1, [r4, #6]	@ zero_extendqisi2
 151:/mnt/c/Users/31740/Documents/codes/newcore-rp2350/include/linux/libfdt.h **** 		| bp[3];
 240              		.loc 2 151 3 view .LVU72
 241 002a 42EA0122 		orr	r2, r2, r1, lsl #8
 242              		.loc 2 152 7 view .LVU73
 243 002e E179     		ldrb	r1, [r4, #7]	@ zero_extendqisi2
 244              		.loc 2 152 3 view .LVU74
 245 0030 0A43     		orrs	r2, r2, r1
 246              	.LVL18:
 247              		.loc 2 152 3 view .LVU75
 248              	.LBE226:
 249              	.LBE225:
 250              		.loc 1 71 31 discriminator 1 view .LVU76
 251 0032 9A42     		cmp	r2, r3
 252 0034 00D1     		bne	.L16
 253              	.LVL19:
 254              	.L12:
  72:/mnt/c/Users/31740/Documents/codes/newcore-rp2350/lib/fdt/fdt_sw.c **** 	    fdt_off_dt_strings(fdt) != fdt_totalsize(fdt))
  73:/mnt/c/Users/31740/Documents/codes/newcore-rp2350/lib/fdt/fdt_sw.c **** 		return -FDT_ERR_BADSTATE;
  74:/mnt/c/Users/31740/Documents/codes/newcore-rp2350/lib/fdt/fdt_sw.c **** 	return 0;
  75:/mnt/c/Users/31740/Documents/codes/newcore-rp2350/lib/fdt/fdt_sw.c **** }
 255              		.loc 1 75 1 view .LVU77
 256 0036 10BD     		pop	{r4, pc}
 257              	.LVL20:
 258              	.L16:
  73:/mnt/c/Users/31740/Documents/codes/newcore-rp2350/lib/fdt/fdt_sw.c **** 	return 0;
 259              		.loc 1 73 10 view .LVU78
ARM GAS  /tmp/ccOO9xGx.s 			page 10


 260 0038 6FF00600 		mvn	r0, #6
 261 003c FBE7     		b	.L12
 262              		.cfi_endproc
 263              	.LFE77:
 265              		.section	.text.fdt_grab_space_,"ax",%progbits
 266              		.align	1
 267              		.syntax unified
 268              		.thumb
 269              		.thumb_func
 271              	fdt_grab_space_:
 272              	.LVL21:
 273              	.LFB79:
  76:/mnt/c/Users/31740/Documents/codes/newcore-rp2350/lib/fdt/fdt_sw.c **** 
  77:/mnt/c/Users/31740/Documents/codes/newcore-rp2350/lib/fdt/fdt_sw.c **** #define FDT_SW_PROBE_STRUCT(fdt) \
  78:/mnt/c/Users/31740/Documents/codes/newcore-rp2350/lib/fdt/fdt_sw.c **** 	{ \
  79:/mnt/c/Users/31740/Documents/codes/newcore-rp2350/lib/fdt/fdt_sw.c **** 		int err; \
  80:/mnt/c/Users/31740/Documents/codes/newcore-rp2350/lib/fdt/fdt_sw.c **** 		if ((err = fdt_sw_probe_struct_(fdt)) != 0) \
  81:/mnt/c/Users/31740/Documents/codes/newcore-rp2350/lib/fdt/fdt_sw.c **** 			return err; \
  82:/mnt/c/Users/31740/Documents/codes/newcore-rp2350/lib/fdt/fdt_sw.c **** 	}
  83:/mnt/c/Users/31740/Documents/codes/newcore-rp2350/lib/fdt/fdt_sw.c **** 
  84:/mnt/c/Users/31740/Documents/codes/newcore-rp2350/lib/fdt/fdt_sw.c **** static inline uint32_t sw_flags(void *fdt)
  85:/mnt/c/Users/31740/Documents/codes/newcore-rp2350/lib/fdt/fdt_sw.c **** {
  86:/mnt/c/Users/31740/Documents/codes/newcore-rp2350/lib/fdt/fdt_sw.c **** 	/* assert: (fdt_magic(fdt) == FDT_SW_MAGIC) */
  87:/mnt/c/Users/31740/Documents/codes/newcore-rp2350/lib/fdt/fdt_sw.c **** 	return fdt_last_comp_version(fdt);
  88:/mnt/c/Users/31740/Documents/codes/newcore-rp2350/lib/fdt/fdt_sw.c **** }
  89:/mnt/c/Users/31740/Documents/codes/newcore-rp2350/lib/fdt/fdt_sw.c **** 
  90:/mnt/c/Users/31740/Documents/codes/newcore-rp2350/lib/fdt/fdt_sw.c **** /* 'complete' state:	Enter this state after fdt_finish()
  91:/mnt/c/Users/31740/Documents/codes/newcore-rp2350/lib/fdt/fdt_sw.c ****  *
  92:/mnt/c/Users/31740/Documents/codes/newcore-rp2350/lib/fdt/fdt_sw.c ****  * Allowed functions: none
  93:/mnt/c/Users/31740/Documents/codes/newcore-rp2350/lib/fdt/fdt_sw.c ****  */
  94:/mnt/c/Users/31740/Documents/codes/newcore-rp2350/lib/fdt/fdt_sw.c **** 
  95:/mnt/c/Users/31740/Documents/codes/newcore-rp2350/lib/fdt/fdt_sw.c **** static void *fdt_grab_space_(void *fdt, size_t len)
  96:/mnt/c/Users/31740/Documents/codes/newcore-rp2350/lib/fdt/fdt_sw.c **** {
 274              		.loc 1 96 1 is_stmt 1 view -0
 275              		.cfi_startproc
 276              		@ args = 0, pretend = 0, frame = 0
 277              		@ frame_needed = 0, uses_anonymous_args = 0
 278              		.loc 1 96 1 is_stmt 0 view .LVU80
 279 0000 10B5     		push	{r4, lr}
 280              	.LCFI2:
 281              		.cfi_def_cfa_offset 8
 282              		.cfi_offset 4, -8
 283              		.cfi_offset 14, -4
  97:/mnt/c/Users/31740/Documents/codes/newcore-rp2350/lib/fdt/fdt_sw.c **** 	unsigned int offset = fdt_size_dt_struct(fdt);
 284              		.loc 1 97 2 is_stmt 1 view .LVU81
 285              	.LVL22:
 286              	.LBB227:
 287              	.LBI227:
 145:/mnt/c/Users/31740/Documents/codes/newcore-rp2350/include/linux/libfdt.h **** {
 288              		.loc 2 145 24 view .LVU82
 289              	.LBB228:
 147:/mnt/c/Users/31740/Documents/codes/newcore-rp2350/include/linux/libfdt.h **** 
 290              		.loc 2 147 2 view .LVU83
 149:/mnt/c/Users/31740/Documents/codes/newcore-rp2350/include/linux/libfdt.h **** 		| ((uint32_t)bp[1] << 16)
 291              		.loc 2 149 2 view .LVU84
 149:/mnt/c/Users/31740/Documents/codes/newcore-rp2350/include/linux/libfdt.h **** 		| ((uint32_t)bp[1] << 16)
 292              		.loc 2 149 22 is_stmt 0 view .LVU85
ARM GAS  /tmp/ccOO9xGx.s 			page 11


 293 0002 90F82430 		ldrb	r3, [r0, #36]	@ zero_extendqisi2
 150:/mnt/c/Users/31740/Documents/codes/newcore-rp2350/include/linux/libfdt.h **** 		| ((uint32_t)bp[2] << 8)
 294              		.loc 2 150 18 view .LVU86
 295 0006 90F825C0 		ldrb	ip, [r0, #37]	@ zero_extendqisi2
 150:/mnt/c/Users/31740/Documents/codes/newcore-rp2350/include/linux/libfdt.h **** 		| ((uint32_t)bp[2] << 8)
 296              		.loc 2 150 22 view .LVU87
 297 000a 4FEA0C4C 		lsl	ip, ip, #16
 150:/mnt/c/Users/31740/Documents/codes/newcore-rp2350/include/linux/libfdt.h **** 		| ((uint32_t)bp[2] << 8)
 298              		.loc 2 150 3 view .LVU88
 299 000e 4CEA036C 		orr	ip, ip, r3, lsl #24
 151:/mnt/c/Users/31740/Documents/codes/newcore-rp2350/include/linux/libfdt.h **** 		| bp[3];
 300              		.loc 2 151 18 view .LVU89
 301 0012 90F82630 		ldrb	r3, [r0, #38]	@ zero_extendqisi2
 151:/mnt/c/Users/31740/Documents/codes/newcore-rp2350/include/linux/libfdt.h **** 		| bp[3];
 302              		.loc 2 151 3 view .LVU90
 303 0016 4CEA032C 		orr	ip, ip, r3, lsl #8
 304              		.loc 2 152 7 view .LVU91
 305 001a 90F82730 		ldrb	r3, [r0, #39]	@ zero_extendqisi2
 306              		.loc 2 152 3 view .LVU92
 307 001e 4CEA030C 		orr	ip, ip, r3
 308              	.LVL23:
 309              		.loc 2 152 3 view .LVU93
 310              	.LBE228:
 311              	.LBE227:
  98:/mnt/c/Users/31740/Documents/codes/newcore-rp2350/lib/fdt/fdt_sw.c **** 	unsigned int spaceleft;
 312              		.loc 1 98 2 is_stmt 1 view .LVU94
  99:/mnt/c/Users/31740/Documents/codes/newcore-rp2350/lib/fdt/fdt_sw.c **** 
 100:/mnt/c/Users/31740/Documents/codes/newcore-rp2350/lib/fdt/fdt_sw.c **** 	spaceleft = fdt_totalsize(fdt) - fdt_off_dt_struct(fdt)
 313              		.loc 1 100 2 view .LVU95
 314              	.LBB229:
 315              	.LBI229:
 145:/mnt/c/Users/31740/Documents/codes/newcore-rp2350/include/linux/libfdt.h **** {
 316              		.loc 2 145 24 view .LVU96
 317              	.LBB230:
 147:/mnt/c/Users/31740/Documents/codes/newcore-rp2350/include/linux/libfdt.h **** 
 318              		.loc 2 147 2 view .LVU97
 149:/mnt/c/Users/31740/Documents/codes/newcore-rp2350/include/linux/libfdt.h **** 		| ((uint32_t)bp[1] << 16)
 319              		.loc 2 149 2 view .LVU98
 149:/mnt/c/Users/31740/Documents/codes/newcore-rp2350/include/linux/libfdt.h **** 		| ((uint32_t)bp[1] << 16)
 320              		.loc 2 149 22 is_stmt 0 view .LVU99
 321 0022 0279     		ldrb	r2, [r0, #4]	@ zero_extendqisi2
 150:/mnt/c/Users/31740/Documents/codes/newcore-rp2350/include/linux/libfdt.h **** 		| ((uint32_t)bp[2] << 8)
 322              		.loc 2 150 18 view .LVU100
 323 0024 4379     		ldrb	r3, [r0, #5]	@ zero_extendqisi2
 150:/mnt/c/Users/31740/Documents/codes/newcore-rp2350/include/linux/libfdt.h **** 		| ((uint32_t)bp[2] << 8)
 324              		.loc 2 150 22 view .LVU101
 325 0026 1B04     		lsls	r3, r3, #16
 150:/mnt/c/Users/31740/Documents/codes/newcore-rp2350/include/linux/libfdt.h **** 		| ((uint32_t)bp[2] << 8)
 326              		.loc 2 150 3 view .LVU102
 327 0028 43EA0263 		orr	r3, r3, r2, lsl #24
 151:/mnt/c/Users/31740/Documents/codes/newcore-rp2350/include/linux/libfdt.h **** 		| bp[3];
 328              		.loc 2 151 18 view .LVU103
 329 002c 8279     		ldrb	r2, [r0, #6]	@ zero_extendqisi2
 151:/mnt/c/Users/31740/Documents/codes/newcore-rp2350/include/linux/libfdt.h **** 		| bp[3];
 330              		.loc 2 151 3 view .LVU104
 331 002e 43EA0223 		orr	r3, r3, r2, lsl #8
 332              		.loc 2 152 7 view .LVU105
ARM GAS  /tmp/ccOO9xGx.s 			page 12


 333 0032 C279     		ldrb	r2, [r0, #7]	@ zero_extendqisi2
 334              		.loc 2 152 3 view .LVU106
 335 0034 1343     		orrs	r3, r3, r2
 336              	.LVL24:
 337              		.loc 2 152 3 view .LVU107
 338              	.LBE230:
 339              	.LBE229:
 340              	.LBB231:
 341              	.LBI231:
 145:/mnt/c/Users/31740/Documents/codes/newcore-rp2350/include/linux/libfdt.h **** {
 342              		.loc 2 145 24 is_stmt 1 view .LVU108
 343              	.LBB232:
 147:/mnt/c/Users/31740/Documents/codes/newcore-rp2350/include/linux/libfdt.h **** 
 344              		.loc 2 147 2 view .LVU109
 149:/mnt/c/Users/31740/Documents/codes/newcore-rp2350/include/linux/libfdt.h **** 		| ((uint32_t)bp[1] << 16)
 345              		.loc 2 149 2 view .LVU110
 149:/mnt/c/Users/31740/Documents/codes/newcore-rp2350/include/linux/libfdt.h **** 		| ((uint32_t)bp[1] << 16)
 346              		.loc 2 149 22 is_stmt 0 view .LVU111
 347 0036 047A     		ldrb	r4, [r0, #8]	@ zero_extendqisi2
 150:/mnt/c/Users/31740/Documents/codes/newcore-rp2350/include/linux/libfdt.h **** 		| ((uint32_t)bp[2] << 8)
 348              		.loc 2 150 18 view .LVU112
 349 0038 427A     		ldrb	r2, [r0, #9]	@ zero_extendqisi2
 150:/mnt/c/Users/31740/Documents/codes/newcore-rp2350/include/linux/libfdt.h **** 		| ((uint32_t)bp[2] << 8)
 350              		.loc 2 150 22 view .LVU113
 351 003a 1204     		lsls	r2, r2, #16
 150:/mnt/c/Users/31740/Documents/codes/newcore-rp2350/include/linux/libfdt.h **** 		| ((uint32_t)bp[2] << 8)
 352              		.loc 2 150 3 view .LVU114
 353 003c 42EA0462 		orr	r2, r2, r4, lsl #24
 151:/mnt/c/Users/31740/Documents/codes/newcore-rp2350/include/linux/libfdt.h **** 		| bp[3];
 354              		.loc 2 151 18 view .LVU115
 355 0040 847A     		ldrb	r4, [r0, #10]	@ zero_extendqisi2
 151:/mnt/c/Users/31740/Documents/codes/newcore-rp2350/include/linux/libfdt.h **** 		| bp[3];
 356              		.loc 2 151 3 view .LVU116
 357 0042 42EA0422 		orr	r2, r2, r4, lsl #8
 358              		.loc 2 152 7 view .LVU117
 359 0046 C47A     		ldrb	r4, [r0, #11]	@ zero_extendqisi2
 360              		.loc 2 152 3 view .LVU118
 361 0048 2243     		orrs	r2, r2, r4
 362              	.LVL25:
 363              		.loc 2 152 3 view .LVU119
 364              	.LBE232:
 365              	.LBE231:
 366              		.loc 1 100 33 discriminator 2 view .LVU120
 367 004a 9B1A     		subs	r3, r3, r2
 368              	.LVL26:
 369              	.LBB233:
 370              	.LBI233:
 145:/mnt/c/Users/31740/Documents/codes/newcore-rp2350/include/linux/libfdt.h **** {
 371              		.loc 2 145 24 is_stmt 1 view .LVU121
 372              	.LBB234:
 147:/mnt/c/Users/31740/Documents/codes/newcore-rp2350/include/linux/libfdt.h **** 
 373              		.loc 2 147 2 view .LVU122
 149:/mnt/c/Users/31740/Documents/codes/newcore-rp2350/include/linux/libfdt.h **** 		| ((uint32_t)bp[1] << 16)
 374              		.loc 2 149 2 view .LVU123
 149:/mnt/c/Users/31740/Documents/codes/newcore-rp2350/include/linux/libfdt.h **** 		| ((uint32_t)bp[1] << 16)
 375              		.loc 2 149 22 is_stmt 0 view .LVU124
 376 004c 90F82040 		ldrb	r4, [r0, #32]	@ zero_extendqisi2
ARM GAS  /tmp/ccOO9xGx.s 			page 13


 150:/mnt/c/Users/31740/Documents/codes/newcore-rp2350/include/linux/libfdt.h **** 		| ((uint32_t)bp[2] << 8)
 377              		.loc 2 150 18 view .LVU125
 378 0050 90F821E0 		ldrb	lr, [r0, #33]	@ zero_extendqisi2
 150:/mnt/c/Users/31740/Documents/codes/newcore-rp2350/include/linux/libfdt.h **** 		| ((uint32_t)bp[2] << 8)
 379              		.loc 2 150 22 view .LVU126
 380 0054 4FEA0E4E 		lsl	lr, lr, #16
 150:/mnt/c/Users/31740/Documents/codes/newcore-rp2350/include/linux/libfdt.h **** 		| ((uint32_t)bp[2] << 8)
 381              		.loc 2 150 3 view .LVU127
 382 0058 4EEA046E 		orr	lr, lr, r4, lsl #24
 151:/mnt/c/Users/31740/Documents/codes/newcore-rp2350/include/linux/libfdt.h **** 		| bp[3];
 383              		.loc 2 151 18 view .LVU128
 384 005c 90F82240 		ldrb	r4, [r0, #34]	@ zero_extendqisi2
 151:/mnt/c/Users/31740/Documents/codes/newcore-rp2350/include/linux/libfdt.h **** 		| bp[3];
 385              		.loc 2 151 3 view .LVU129
 386 0060 4EEA042E 		orr	lr, lr, r4, lsl #8
 387              		.loc 2 152 7 view .LVU130
 388 0064 90F82340 		ldrb	r4, [r0, #35]	@ zero_extendqisi2
 389              		.loc 2 152 3 view .LVU131
 390 0068 4EEA040E 		orr	lr, lr, r4
 391              	.LVL27:
 392              		.loc 2 152 3 view .LVU132
 393              	.LBE234:
 394              	.LBE233:
 395              		.loc 1 100 12 view .LVU133
 396 006c A3EB0E03 		sub	r3, r3, lr
 397              	.LVL28:
 101:/mnt/c/Users/31740/Documents/codes/newcore-rp2350/lib/fdt/fdt_sw.c **** 		- fdt_size_dt_strings(fdt);
 102:/mnt/c/Users/31740/Documents/codes/newcore-rp2350/lib/fdt/fdt_sw.c **** 
 103:/mnt/c/Users/31740/Documents/codes/newcore-rp2350/lib/fdt/fdt_sw.c **** 	if ((offset + len < offset) || (offset + len > spaceleft))
 398              		.loc 1 103 2 is_stmt 1 view .LVU134
 399              		.loc 1 103 5 is_stmt 0 view .LVU135
 400 0070 11EB0C01 		adds	r1, r1, ip
 401              	.LVL29:
 402              		.loc 1 103 5 view .LVU136
 403 0074 10D2     		bcs	.L19
 404              		.loc 1 103 30 discriminator 1 view .LVU137
 405 0076 9942     		cmp	r1, r3
 406 0078 10D8     		bhi	.L20
 104:/mnt/c/Users/31740/Documents/codes/newcore-rp2350/lib/fdt/fdt_sw.c **** 		return NULL;
 105:/mnt/c/Users/31740/Documents/codes/newcore-rp2350/lib/fdt/fdt_sw.c **** 
 106:/mnt/c/Users/31740/Documents/codes/newcore-rp2350/lib/fdt/fdt_sw.c **** 	fdt_set_size_dt_struct(fdt, offset + len);
 407              		.loc 1 106 2 is_stmt 1 view .LVU138
 408              	.LVL30:
 409              	.LBB235:
 410              	.LBI235:
 153:/mnt/c/Users/31740/Documents/codes/newcore-rp2350/include/linux/libfdt.h **** }
 154:/mnt/c/Users/31740/Documents/codes/newcore-rp2350/include/linux/libfdt.h **** 
 155:/mnt/c/Users/31740/Documents/codes/newcore-rp2350/include/linux/libfdt.h **** static inline void fdt32_st(void *property, uint32_t value)
 156:/mnt/c/Users/31740/Documents/codes/newcore-rp2350/include/linux/libfdt.h **** {
 157:/mnt/c/Users/31740/Documents/codes/newcore-rp2350/include/linux/libfdt.h **** 	uint8_t *bp = (uint8_t *)property;
 158:/mnt/c/Users/31740/Documents/codes/newcore-rp2350/include/linux/libfdt.h **** 
 159:/mnt/c/Users/31740/Documents/codes/newcore-rp2350/include/linux/libfdt.h **** 	bp[0] = value >> 24;
 160:/mnt/c/Users/31740/Documents/codes/newcore-rp2350/include/linux/libfdt.h **** 	bp[1] = (value >> 16) & 0xff;
 161:/mnt/c/Users/31740/Documents/codes/newcore-rp2350/include/linux/libfdt.h **** 	bp[2] = (value >> 8) & 0xff;
 162:/mnt/c/Users/31740/Documents/codes/newcore-rp2350/include/linux/libfdt.h **** 	bp[3] = value & 0xff;
 163:/mnt/c/Users/31740/Documents/codes/newcore-rp2350/include/linux/libfdt.h **** }
 164:/mnt/c/Users/31740/Documents/codes/newcore-rp2350/include/linux/libfdt.h **** 
ARM GAS  /tmp/ccOO9xGx.s 			page 14


 165:/mnt/c/Users/31740/Documents/codes/newcore-rp2350/include/linux/libfdt.h **** static inline uint64_t fdt64_ld(const fdt64_t *p)
 166:/mnt/c/Users/31740/Documents/codes/newcore-rp2350/include/linux/libfdt.h **** {
 167:/mnt/c/Users/31740/Documents/codes/newcore-rp2350/include/linux/libfdt.h **** 	const uint8_t *bp = (const uint8_t *)p;
 168:/mnt/c/Users/31740/Documents/codes/newcore-rp2350/include/linux/libfdt.h **** 
 169:/mnt/c/Users/31740/Documents/codes/newcore-rp2350/include/linux/libfdt.h **** 	return ((uint64_t)bp[0] << 56)
 170:/mnt/c/Users/31740/Documents/codes/newcore-rp2350/include/linux/libfdt.h **** 		| ((uint64_t)bp[1] << 48)
 171:/mnt/c/Users/31740/Documents/codes/newcore-rp2350/include/linux/libfdt.h **** 		| ((uint64_t)bp[2] << 40)
 172:/mnt/c/Users/31740/Documents/codes/newcore-rp2350/include/linux/libfdt.h **** 		| ((uint64_t)bp[3] << 32)
 173:/mnt/c/Users/31740/Documents/codes/newcore-rp2350/include/linux/libfdt.h **** 		| ((uint64_t)bp[4] << 24)
 174:/mnt/c/Users/31740/Documents/codes/newcore-rp2350/include/linux/libfdt.h **** 		| ((uint64_t)bp[5] << 16)
 175:/mnt/c/Users/31740/Documents/codes/newcore-rp2350/include/linux/libfdt.h **** 		| ((uint64_t)bp[6] << 8)
 176:/mnt/c/Users/31740/Documents/codes/newcore-rp2350/include/linux/libfdt.h **** 		| bp[7];
 177:/mnt/c/Users/31740/Documents/codes/newcore-rp2350/include/linux/libfdt.h **** }
 178:/mnt/c/Users/31740/Documents/codes/newcore-rp2350/include/linux/libfdt.h **** 
 179:/mnt/c/Users/31740/Documents/codes/newcore-rp2350/include/linux/libfdt.h **** static inline void fdt64_st(void *property, uint64_t value)
 180:/mnt/c/Users/31740/Documents/codes/newcore-rp2350/include/linux/libfdt.h **** {
 181:/mnt/c/Users/31740/Documents/codes/newcore-rp2350/include/linux/libfdt.h **** 	uint8_t *bp = (uint8_t *)property;
 182:/mnt/c/Users/31740/Documents/codes/newcore-rp2350/include/linux/libfdt.h **** 
 183:/mnt/c/Users/31740/Documents/codes/newcore-rp2350/include/linux/libfdt.h **** 	bp[0] = value >> 56;
 184:/mnt/c/Users/31740/Documents/codes/newcore-rp2350/include/linux/libfdt.h **** 	bp[1] = (value >> 48) & 0xff;
 185:/mnt/c/Users/31740/Documents/codes/newcore-rp2350/include/linux/libfdt.h **** 	bp[2] = (value >> 40) & 0xff;
 186:/mnt/c/Users/31740/Documents/codes/newcore-rp2350/include/linux/libfdt.h **** 	bp[3] = (value >> 32) & 0xff;
 187:/mnt/c/Users/31740/Documents/codes/newcore-rp2350/include/linux/libfdt.h **** 	bp[4] = (value >> 24) & 0xff;
 188:/mnt/c/Users/31740/Documents/codes/newcore-rp2350/include/linux/libfdt.h **** 	bp[5] = (value >> 16) & 0xff;
 189:/mnt/c/Users/31740/Documents/codes/newcore-rp2350/include/linux/libfdt.h **** 	bp[6] = (value >> 8) & 0xff;
 190:/mnt/c/Users/31740/Documents/codes/newcore-rp2350/include/linux/libfdt.h **** 	bp[7] = value & 0xff;
 191:/mnt/c/Users/31740/Documents/codes/newcore-rp2350/include/linux/libfdt.h **** }
 192:/mnt/c/Users/31740/Documents/codes/newcore-rp2350/include/linux/libfdt.h **** 
 193:/mnt/c/Users/31740/Documents/codes/newcore-rp2350/include/linux/libfdt.h **** /**********************************************************************/
 194:/mnt/c/Users/31740/Documents/codes/newcore-rp2350/include/linux/libfdt.h **** /* Traversal functions                                                */
 195:/mnt/c/Users/31740/Documents/codes/newcore-rp2350/include/linux/libfdt.h **** /**********************************************************************/
 196:/mnt/c/Users/31740/Documents/codes/newcore-rp2350/include/linux/libfdt.h **** 
 197:/mnt/c/Users/31740/Documents/codes/newcore-rp2350/include/linux/libfdt.h **** int fdt_next_node(const void *fdt, int offset, int *depth);
 198:/mnt/c/Users/31740/Documents/codes/newcore-rp2350/include/linux/libfdt.h **** 
 199:/mnt/c/Users/31740/Documents/codes/newcore-rp2350/include/linux/libfdt.h **** /**
 200:/mnt/c/Users/31740/Documents/codes/newcore-rp2350/include/linux/libfdt.h ****  * fdt_first_subnode() - get offset of first direct subnode
 201:/mnt/c/Users/31740/Documents/codes/newcore-rp2350/include/linux/libfdt.h ****  * @fdt:	FDT blob
 202:/mnt/c/Users/31740/Documents/codes/newcore-rp2350/include/linux/libfdt.h ****  * @offset:	Offset of node to check
 203:/mnt/c/Users/31740/Documents/codes/newcore-rp2350/include/linux/libfdt.h ****  *
 204:/mnt/c/Users/31740/Documents/codes/newcore-rp2350/include/linux/libfdt.h ****  * Return: offset of first subnode, or -FDT_ERR_NOTFOUND if there is none
 205:/mnt/c/Users/31740/Documents/codes/newcore-rp2350/include/linux/libfdt.h ****  */
 206:/mnt/c/Users/31740/Documents/codes/newcore-rp2350/include/linux/libfdt.h **** int fdt_first_subnode(const void *fdt, int offset);
 207:/mnt/c/Users/31740/Documents/codes/newcore-rp2350/include/linux/libfdt.h **** 
 208:/mnt/c/Users/31740/Documents/codes/newcore-rp2350/include/linux/libfdt.h **** /**
 209:/mnt/c/Users/31740/Documents/codes/newcore-rp2350/include/linux/libfdt.h ****  * fdt_next_subnode() - get offset of next direct subnode
 210:/mnt/c/Users/31740/Documents/codes/newcore-rp2350/include/linux/libfdt.h ****  * @fdt:	FDT blob
 211:/mnt/c/Users/31740/Documents/codes/newcore-rp2350/include/linux/libfdt.h ****  * @offset:	Offset of previous subnode
 212:/mnt/c/Users/31740/Documents/codes/newcore-rp2350/include/linux/libfdt.h ****  *
 213:/mnt/c/Users/31740/Documents/codes/newcore-rp2350/include/linux/libfdt.h ****  * After first calling fdt_first_subnode(), call this function repeatedly to
 214:/mnt/c/Users/31740/Documents/codes/newcore-rp2350/include/linux/libfdt.h ****  * get direct subnodes of a parent node.
 215:/mnt/c/Users/31740/Documents/codes/newcore-rp2350/include/linux/libfdt.h ****  *
 216:/mnt/c/Users/31740/Documents/codes/newcore-rp2350/include/linux/libfdt.h ****  * Return: offset of next subnode, or -FDT_ERR_NOTFOUND if there are no more
 217:/mnt/c/Users/31740/Documents/codes/newcore-rp2350/include/linux/libfdt.h ****  *         subnodes
 218:/mnt/c/Users/31740/Documents/codes/newcore-rp2350/include/linux/libfdt.h ****  */
 219:/mnt/c/Users/31740/Documents/codes/newcore-rp2350/include/linux/libfdt.h **** int fdt_next_subnode(const void *fdt, int offset);
 220:/mnt/c/Users/31740/Documents/codes/newcore-rp2350/include/linux/libfdt.h **** 
 221:/mnt/c/Users/31740/Documents/codes/newcore-rp2350/include/linux/libfdt.h **** /**
ARM GAS  /tmp/ccOO9xGx.s 			page 15


 222:/mnt/c/Users/31740/Documents/codes/newcore-rp2350/include/linux/libfdt.h ****  * fdt_for_each_subnode - iterate over all subnodes of a parent
 223:/mnt/c/Users/31740/Documents/codes/newcore-rp2350/include/linux/libfdt.h ****  *
 224:/mnt/c/Users/31740/Documents/codes/newcore-rp2350/include/linux/libfdt.h ****  * @node:	child node (int, lvalue)
 225:/mnt/c/Users/31740/Documents/codes/newcore-rp2350/include/linux/libfdt.h ****  * @fdt:	FDT blob (const void *)
 226:/mnt/c/Users/31740/Documents/codes/newcore-rp2350/include/linux/libfdt.h ****  * @parent:	parent node (int)
 227:/mnt/c/Users/31740/Documents/codes/newcore-rp2350/include/linux/libfdt.h ****  *
 228:/mnt/c/Users/31740/Documents/codes/newcore-rp2350/include/linux/libfdt.h ****  * This is actually a wrapper around a for loop and would be used like so:
 229:/mnt/c/Users/31740/Documents/codes/newcore-rp2350/include/linux/libfdt.h ****  *
 230:/mnt/c/Users/31740/Documents/codes/newcore-rp2350/include/linux/libfdt.h ****  *	fdt_for_each_subnode(node, fdt, parent) {
 231:/mnt/c/Users/31740/Documents/codes/newcore-rp2350/include/linux/libfdt.h ****  *		Use node
 232:/mnt/c/Users/31740/Documents/codes/newcore-rp2350/include/linux/libfdt.h ****  *		...
 233:/mnt/c/Users/31740/Documents/codes/newcore-rp2350/include/linux/libfdt.h ****  *	}
 234:/mnt/c/Users/31740/Documents/codes/newcore-rp2350/include/linux/libfdt.h ****  *
 235:/mnt/c/Users/31740/Documents/codes/newcore-rp2350/include/linux/libfdt.h ****  *	if ((node < 0) && (node != -FDT_ERR_NOTFOUND)) {
 236:/mnt/c/Users/31740/Documents/codes/newcore-rp2350/include/linux/libfdt.h ****  *		Error handling
 237:/mnt/c/Users/31740/Documents/codes/newcore-rp2350/include/linux/libfdt.h ****  *	}
 238:/mnt/c/Users/31740/Documents/codes/newcore-rp2350/include/linux/libfdt.h ****  *
 239:/mnt/c/Users/31740/Documents/codes/newcore-rp2350/include/linux/libfdt.h ****  * Note that this is implemented as a macro and @node is used as
 240:/mnt/c/Users/31740/Documents/codes/newcore-rp2350/include/linux/libfdt.h ****  * iterator in the loop. The parent variable be constant or even a
 241:/mnt/c/Users/31740/Documents/codes/newcore-rp2350/include/linux/libfdt.h ****  * literal.
 242:/mnt/c/Users/31740/Documents/codes/newcore-rp2350/include/linux/libfdt.h ****  */
 243:/mnt/c/Users/31740/Documents/codes/newcore-rp2350/include/linux/libfdt.h **** #define fdt_for_each_subnode(node, fdt, parent)		\
 244:/mnt/c/Users/31740/Documents/codes/newcore-rp2350/include/linux/libfdt.h **** 	for (node = fdt_first_subnode(fdt, parent);	\
 245:/mnt/c/Users/31740/Documents/codes/newcore-rp2350/include/linux/libfdt.h **** 	     node >= 0;					\
 246:/mnt/c/Users/31740/Documents/codes/newcore-rp2350/include/linux/libfdt.h **** 	     node = fdt_next_subnode(fdt, node))
 247:/mnt/c/Users/31740/Documents/codes/newcore-rp2350/include/linux/libfdt.h **** 
 248:/mnt/c/Users/31740/Documents/codes/newcore-rp2350/include/linux/libfdt.h **** /**********************************************************************/
 249:/mnt/c/Users/31740/Documents/codes/newcore-rp2350/include/linux/libfdt.h **** /* General functions                                                  */
 250:/mnt/c/Users/31740/Documents/codes/newcore-rp2350/include/linux/libfdt.h **** /**********************************************************************/
 251:/mnt/c/Users/31740/Documents/codes/newcore-rp2350/include/linux/libfdt.h **** #define fdt_get_header(fdt, field) \
 252:/mnt/c/Users/31740/Documents/codes/newcore-rp2350/include/linux/libfdt.h **** 	(fdt32_ld(&((const struct fdt_header *)(fdt))->field))
 253:/mnt/c/Users/31740/Documents/codes/newcore-rp2350/include/linux/libfdt.h **** #define fdt_magic(fdt)			(fdt_get_header(fdt, magic))
 254:/mnt/c/Users/31740/Documents/codes/newcore-rp2350/include/linux/libfdt.h **** #define fdt_totalsize(fdt)		(fdt_get_header(fdt, totalsize))
 255:/mnt/c/Users/31740/Documents/codes/newcore-rp2350/include/linux/libfdt.h **** #define fdt_off_dt_struct(fdt)		(fdt_get_header(fdt, off_dt_struct))
 256:/mnt/c/Users/31740/Documents/codes/newcore-rp2350/include/linux/libfdt.h **** #define fdt_off_dt_strings(fdt)		(fdt_get_header(fdt, off_dt_strings))
 257:/mnt/c/Users/31740/Documents/codes/newcore-rp2350/include/linux/libfdt.h **** #define fdt_off_mem_rsvmap(fdt)		(fdt_get_header(fdt, off_mem_rsvmap))
 258:/mnt/c/Users/31740/Documents/codes/newcore-rp2350/include/linux/libfdt.h **** #define fdt_version(fdt)		(fdt_get_header(fdt, version))
 259:/mnt/c/Users/31740/Documents/codes/newcore-rp2350/include/linux/libfdt.h **** #define fdt_last_comp_version(fdt)	(fdt_get_header(fdt, last_comp_version))
 260:/mnt/c/Users/31740/Documents/codes/newcore-rp2350/include/linux/libfdt.h **** #define fdt_boot_cpuid_phys(fdt)	(fdt_get_header(fdt, boot_cpuid_phys))
 261:/mnt/c/Users/31740/Documents/codes/newcore-rp2350/include/linux/libfdt.h **** #define fdt_size_dt_strings(fdt)	(fdt_get_header(fdt, size_dt_strings))
 262:/mnt/c/Users/31740/Documents/codes/newcore-rp2350/include/linux/libfdt.h **** #define fdt_size_dt_struct(fdt)		(fdt_get_header(fdt, size_dt_struct))
 263:/mnt/c/Users/31740/Documents/codes/newcore-rp2350/include/linux/libfdt.h **** 
 264:/mnt/c/Users/31740/Documents/codes/newcore-rp2350/include/linux/libfdt.h **** #define fdt_set_hdr_(name) \
 265:/mnt/c/Users/31740/Documents/codes/newcore-rp2350/include/linux/libfdt.h **** 	static inline void fdt_set_##name(void *fdt, uint32_t val) \
 266:/mnt/c/Users/31740/Documents/codes/newcore-rp2350/include/linux/libfdt.h **** 	{ \
 267:/mnt/c/Users/31740/Documents/codes/newcore-rp2350/include/linux/libfdt.h **** 		struct fdt_header *fdth = (struct fdt_header *)fdt; \
 268:/mnt/c/Users/31740/Documents/codes/newcore-rp2350/include/linux/libfdt.h **** 		fdth->name = cpu_to_fdt32(val); \
 269:/mnt/c/Users/31740/Documents/codes/newcore-rp2350/include/linux/libfdt.h **** 	}
 270:/mnt/c/Users/31740/Documents/codes/newcore-rp2350/include/linux/libfdt.h **** fdt_set_hdr_(magic)
 271:/mnt/c/Users/31740/Documents/codes/newcore-rp2350/include/linux/libfdt.h **** fdt_set_hdr_(totalsize)
 272:/mnt/c/Users/31740/Documents/codes/newcore-rp2350/include/linux/libfdt.h **** fdt_set_hdr_(off_dt_struct)
 273:/mnt/c/Users/31740/Documents/codes/newcore-rp2350/include/linux/libfdt.h **** fdt_set_hdr_(off_dt_strings)
 274:/mnt/c/Users/31740/Documents/codes/newcore-rp2350/include/linux/libfdt.h **** fdt_set_hdr_(off_mem_rsvmap)
 275:/mnt/c/Users/31740/Documents/codes/newcore-rp2350/include/linux/libfdt.h **** fdt_set_hdr_(version)
 276:/mnt/c/Users/31740/Documents/codes/newcore-rp2350/include/linux/libfdt.h **** fdt_set_hdr_(last_comp_version)
 277:/mnt/c/Users/31740/Documents/codes/newcore-rp2350/include/linux/libfdt.h **** fdt_set_hdr_(boot_cpuid_phys)
 278:/mnt/c/Users/31740/Documents/codes/newcore-rp2350/include/linux/libfdt.h **** fdt_set_hdr_(size_dt_strings)
ARM GAS  /tmp/ccOO9xGx.s 			page 16


 279:/mnt/c/Users/31740/Documents/codes/newcore-rp2350/include/linux/libfdt.h **** fdt_set_hdr_(size_dt_struct)
 411              		.loc 2 279 1 view .LVU139
 412              	.LBB236:
 413              		.loc 2 279 1 view .LVU140
 414              		.loc 2 279 1 view .LVU141
 415              	.LBB237:
 416              	.LBI237:
 417              		.file 3 "/mnt/c/Users/31740/Documents/codes/newcore-rp2350/include/linux/libfdt_env.h"
   1:/mnt/c/Users/31740/Documents/codes/newcore-rp2350/include/linux/libfdt_env.h **** /* SPDX-License-Identifier: (GPL-2.0-or-later OR BSD-2-Clause) */
   2:/mnt/c/Users/31740/Documents/codes/newcore-rp2350/include/linux/libfdt_env.h **** #ifndef LIBFDT_ENV_H
   3:/mnt/c/Users/31740/Documents/codes/newcore-rp2350/include/linux/libfdt_env.h **** #define LIBFDT_ENV_H
   4:/mnt/c/Users/31740/Documents/codes/newcore-rp2350/include/linux/libfdt_env.h **** /*
   5:/mnt/c/Users/31740/Documents/codes/newcore-rp2350/include/linux/libfdt_env.h ****  * libfdt - Flat Device Tree manipulation
   6:/mnt/c/Users/31740/Documents/codes/newcore-rp2350/include/linux/libfdt_env.h ****  * Copyright (C) 2006 David Gibson, IBM Corporation.
   7:/mnt/c/Users/31740/Documents/codes/newcore-rp2350/include/linux/libfdt_env.h ****  * Copyright 2012 Kim Phillips, Freescale Semiconductor.
   8:/mnt/c/Users/31740/Documents/codes/newcore-rp2350/include/linux/libfdt_env.h ****  */
   9:/mnt/c/Users/31740/Documents/codes/newcore-rp2350/include/linux/libfdt_env.h **** 
  10:/mnt/c/Users/31740/Documents/codes/newcore-rp2350/include/linux/libfdt_env.h **** #include <linux/types.h>
  11:/mnt/c/Users/31740/Documents/codes/newcore-rp2350/include/linux/libfdt_env.h **** #include <linux/stddef.h>
  12:/mnt/c/Users/31740/Documents/codes/newcore-rp2350/include/linux/libfdt_env.h **** #include <linux/string.h>
  13:/mnt/c/Users/31740/Documents/codes/newcore-rp2350/include/linux/libfdt_env.h **** #include <linux/limits.h>
  14:/mnt/c/Users/31740/Documents/codes/newcore-rp2350/include/linux/libfdt_env.h **** 
  15:/mnt/c/Users/31740/Documents/codes/newcore-rp2350/include/linux/libfdt_env.h **** 
  16:/mnt/c/Users/31740/Documents/codes/newcore-rp2350/include/linux/libfdt_env.h **** #ifdef __CHECKER__
  17:/mnt/c/Users/31740/Documents/codes/newcore-rp2350/include/linux/libfdt_env.h **** #define FDT_FORCE __attribute__((force))
  18:/mnt/c/Users/31740/Documents/codes/newcore-rp2350/include/linux/libfdt_env.h **** #define FDT_BITWISE __attribute__((bitwise))
  19:/mnt/c/Users/31740/Documents/codes/newcore-rp2350/include/linux/libfdt_env.h **** #else
  20:/mnt/c/Users/31740/Documents/codes/newcore-rp2350/include/linux/libfdt_env.h **** #define FDT_FORCE
  21:/mnt/c/Users/31740/Documents/codes/newcore-rp2350/include/linux/libfdt_env.h **** #define FDT_BITWISE
  22:/mnt/c/Users/31740/Documents/codes/newcore-rp2350/include/linux/libfdt_env.h **** #endif
  23:/mnt/c/Users/31740/Documents/codes/newcore-rp2350/include/linux/libfdt_env.h **** 
  24:/mnt/c/Users/31740/Documents/codes/newcore-rp2350/include/linux/libfdt_env.h **** typedef uint16_t FDT_BITWISE fdt16_t;
  25:/mnt/c/Users/31740/Documents/codes/newcore-rp2350/include/linux/libfdt_env.h **** typedef uint32_t FDT_BITWISE fdt32_t;
  26:/mnt/c/Users/31740/Documents/codes/newcore-rp2350/include/linux/libfdt_env.h **** typedef uint64_t FDT_BITWISE fdt64_t;
  27:/mnt/c/Users/31740/Documents/codes/newcore-rp2350/include/linux/libfdt_env.h **** 
  28:/mnt/c/Users/31740/Documents/codes/newcore-rp2350/include/linux/libfdt_env.h **** #define EXTRACT_BYTE(x, n)	((unsigned long long)((uint8_t *)&x)[n])
  29:/mnt/c/Users/31740/Documents/codes/newcore-rp2350/include/linux/libfdt_env.h **** 
  30:/mnt/c/Users/31740/Documents/codes/newcore-rp2350/include/linux/libfdt_env.h **** #define CPU_TO_FDT16(x) ((EXTRACT_BYTE(x, 0) << 8) | EXTRACT_BYTE(x, 1))
  31:/mnt/c/Users/31740/Documents/codes/newcore-rp2350/include/linux/libfdt_env.h **** #define CPU_TO_FDT32(x) ((EXTRACT_BYTE(x, 0) << 24) | (EXTRACT_BYTE(x, 1) << 16) | \
  32:/mnt/c/Users/31740/Documents/codes/newcore-rp2350/include/linux/libfdt_env.h **** 			 (EXTRACT_BYTE(x, 2) << 8) | EXTRACT_BYTE(x, 3))
  33:/mnt/c/Users/31740/Documents/codes/newcore-rp2350/include/linux/libfdt_env.h **** #define CPU_TO_FDT64(x) ((EXTRACT_BYTE(x, 0) << 56) | (EXTRACT_BYTE(x, 1) << 48) | \
  34:/mnt/c/Users/31740/Documents/codes/newcore-rp2350/include/linux/libfdt_env.h **** 			 (EXTRACT_BYTE(x, 2) << 40) | (EXTRACT_BYTE(x, 3) << 32) | \
  35:/mnt/c/Users/31740/Documents/codes/newcore-rp2350/include/linux/libfdt_env.h **** 			 (EXTRACT_BYTE(x, 4) << 24) | (EXTRACT_BYTE(x, 5) << 16) | \
  36:/mnt/c/Users/31740/Documents/codes/newcore-rp2350/include/linux/libfdt_env.h **** 			 (EXTRACT_BYTE(x, 6) << 8) | EXTRACT_BYTE(x, 7))
  37:/mnt/c/Users/31740/Documents/codes/newcore-rp2350/include/linux/libfdt_env.h **** 
  38:/mnt/c/Users/31740/Documents/codes/newcore-rp2350/include/linux/libfdt_env.h **** 
  39:/mnt/c/Users/31740/Documents/codes/newcore-rp2350/include/linux/libfdt_env.h **** // #define CPU_TO_FDT16(x) x
  40:/mnt/c/Users/31740/Documents/codes/newcore-rp2350/include/linux/libfdt_env.h **** // #define CPU_TO_FDT32(x) x
  41:/mnt/c/Users/31740/Documents/codes/newcore-rp2350/include/linux/libfdt_env.h **** // #define CPU_TO_FDT64(x) x
  42:/mnt/c/Users/31740/Documents/codes/newcore-rp2350/include/linux/libfdt_env.h **** 
  43:/mnt/c/Users/31740/Documents/codes/newcore-rp2350/include/linux/libfdt_env.h **** 
  44:/mnt/c/Users/31740/Documents/codes/newcore-rp2350/include/linux/libfdt_env.h **** static inline uint16_t fdt16_to_cpu(fdt16_t x)
  45:/mnt/c/Users/31740/Documents/codes/newcore-rp2350/include/linux/libfdt_env.h **** {
  46:/mnt/c/Users/31740/Documents/codes/newcore-rp2350/include/linux/libfdt_env.h **** 	return (FDT_FORCE uint16_t)CPU_TO_FDT16(x);
  47:/mnt/c/Users/31740/Documents/codes/newcore-rp2350/include/linux/libfdt_env.h **** }
  48:/mnt/c/Users/31740/Documents/codes/newcore-rp2350/include/linux/libfdt_env.h **** static inline fdt16_t cpu_to_fdt16(uint16_t x)
  49:/mnt/c/Users/31740/Documents/codes/newcore-rp2350/include/linux/libfdt_env.h **** {
ARM GAS  /tmp/ccOO9xGx.s 			page 17


  50:/mnt/c/Users/31740/Documents/codes/newcore-rp2350/include/linux/libfdt_env.h **** 	return (FDT_FORCE fdt16_t)CPU_TO_FDT16(x);
  51:/mnt/c/Users/31740/Documents/codes/newcore-rp2350/include/linux/libfdt_env.h **** }
  52:/mnt/c/Users/31740/Documents/codes/newcore-rp2350/include/linux/libfdt_env.h **** 
  53:/mnt/c/Users/31740/Documents/codes/newcore-rp2350/include/linux/libfdt_env.h **** static inline uint32_t fdt32_to_cpu(fdt32_t x)
  54:/mnt/c/Users/31740/Documents/codes/newcore-rp2350/include/linux/libfdt_env.h **** {
  55:/mnt/c/Users/31740/Documents/codes/newcore-rp2350/include/linux/libfdt_env.h **** 	return (FDT_FORCE uint32_t)CPU_TO_FDT32(x);
  56:/mnt/c/Users/31740/Documents/codes/newcore-rp2350/include/linux/libfdt_env.h **** }
  57:/mnt/c/Users/31740/Documents/codes/newcore-rp2350/include/linux/libfdt_env.h **** static inline fdt32_t cpu_to_fdt32(uint32_t x)
 418              		.loc 3 57 23 view .LVU142
 419              	.LBB238:
  58:/mnt/c/Users/31740/Documents/codes/newcore-rp2350/include/linux/libfdt_env.h **** {
  59:/mnt/c/Users/31740/Documents/codes/newcore-rp2350/include/linux/libfdt_env.h **** 	return (FDT_FORCE fdt32_t)CPU_TO_FDT32(x);
 420              		.loc 3 59 2 view .LVU143
 421              		.loc 3 59 28 is_stmt 0 view .LVU144
 422 007a C1F30723 		ubfx	r3, r1, #8, #8
 423              	.LVL31:
 424              		.loc 3 59 28 view .LVU145
 425 007e 1B04     		lsls	r3, r3, #16
 426 0080 43EA0163 		orr	r3, r3, r1, lsl #24
 427 0084 C1F30744 		ubfx	r4, r1, #16, #8
 428 0088 43EA0423 		orr	r3, r3, r4, lsl #8
 429              		.loc 3 59 9 view .LVU146
 430 008c 43EA1163 		orr	r3, r3, r1, lsr #24
 431              	.LVL32:
 432              		.loc 3 59 9 view .LVU147
 433              	.LBE238:
 434              	.LBE237:
 435              		.loc 2 279 1 discriminator 1 view .LVU148
 436 0090 4362     		str	r3, [r0, #36]
 437              	.LVL33:
 438              		.loc 2 279 1 discriminator 1 view .LVU149
 439              	.LBE236:
 440              	.LBE235:
 107:/mnt/c/Users/31740/Documents/codes/newcore-rp2350/lib/fdt/fdt_sw.c **** 	return fdt_offset_ptr_w_(fdt, offset);
 441              		.loc 1 107 2 is_stmt 1 view .LVU150
 442              	.LBB239:
 443              	.LBI239:
 444              		.file 4 "/mnt/c/Users/31740/Documents/codes/newcore-rp2350/lib/fdt/libfdt_internal.h"
   1:/mnt/c/Users/31740/Documents/codes/newcore-rp2350/lib/fdt/libfdt_internal.h **** /* SPDX-License-Identifier: (GPL-2.0-or-later OR BSD-2-Clause) */
   2:/mnt/c/Users/31740/Documents/codes/newcore-rp2350/lib/fdt/libfdt_internal.h **** #ifndef LIBFDT_INTERNAL_H
   3:/mnt/c/Users/31740/Documents/codes/newcore-rp2350/lib/fdt/libfdt_internal.h **** #define LIBFDT_INTERNAL_H
   4:/mnt/c/Users/31740/Documents/codes/newcore-rp2350/lib/fdt/libfdt_internal.h **** /*
   5:/mnt/c/Users/31740/Documents/codes/newcore-rp2350/lib/fdt/libfdt_internal.h ****  * libfdt - Flat Device Tree manipulation
   6:/mnt/c/Users/31740/Documents/codes/newcore-rp2350/lib/fdt/libfdt_internal.h ****  * Copyright (C) 2006 David Gibson, IBM Corporation.
   7:/mnt/c/Users/31740/Documents/codes/newcore-rp2350/lib/fdt/libfdt_internal.h ****  */
   8:/mnt/c/Users/31740/Documents/codes/newcore-rp2350/lib/fdt/libfdt_internal.h **** #include <linux/fdt.h>
   9:/mnt/c/Users/31740/Documents/codes/newcore-rp2350/lib/fdt/libfdt_internal.h **** #include <linux/string.h>
  10:/mnt/c/Users/31740/Documents/codes/newcore-rp2350/lib/fdt/libfdt_internal.h **** 
  11:/mnt/c/Users/31740/Documents/codes/newcore-rp2350/lib/fdt/libfdt_internal.h **** #define FDT_ALIGN(x, a)		(((x) + (a) - 1) & ~((a) - 1))
  12:/mnt/c/Users/31740/Documents/codes/newcore-rp2350/lib/fdt/libfdt_internal.h **** #define FDT_TAGALIGN(x)		(FDT_ALIGN((x), FDT_TAGSIZE))
  13:/mnt/c/Users/31740/Documents/codes/newcore-rp2350/lib/fdt/libfdt_internal.h **** 
  14:/mnt/c/Users/31740/Documents/codes/newcore-rp2350/lib/fdt/libfdt_internal.h **** int32_t fdt_ro_probe_(const void *fdt);
  15:/mnt/c/Users/31740/Documents/codes/newcore-rp2350/lib/fdt/libfdt_internal.h **** #define FDT_RO_PROBE(fdt)					\
  16:/mnt/c/Users/31740/Documents/codes/newcore-rp2350/lib/fdt/libfdt_internal.h **** 	{							\
  17:/mnt/c/Users/31740/Documents/codes/newcore-rp2350/lib/fdt/libfdt_internal.h **** 		int32_t totalsize_;				\
  18:/mnt/c/Users/31740/Documents/codes/newcore-rp2350/lib/fdt/libfdt_internal.h **** 		if ((totalsize_ = fdt_ro_probe_(fdt)) < 0)	\
  19:/mnt/c/Users/31740/Documents/codes/newcore-rp2350/lib/fdt/libfdt_internal.h **** 			return totalsize_;			\
ARM GAS  /tmp/ccOO9xGx.s 			page 18


  20:/mnt/c/Users/31740/Documents/codes/newcore-rp2350/lib/fdt/libfdt_internal.h **** 	}
  21:/mnt/c/Users/31740/Documents/codes/newcore-rp2350/lib/fdt/libfdt_internal.h **** 
  22:/mnt/c/Users/31740/Documents/codes/newcore-rp2350/lib/fdt/libfdt_internal.h **** int fdt_check_node_offset_(const void *fdt, int offset);
  23:/mnt/c/Users/31740/Documents/codes/newcore-rp2350/lib/fdt/libfdt_internal.h **** int fdt_check_prop_offset_(const void *fdt, int offset);
  24:/mnt/c/Users/31740/Documents/codes/newcore-rp2350/lib/fdt/libfdt_internal.h **** 
  25:/mnt/c/Users/31740/Documents/codes/newcore-rp2350/lib/fdt/libfdt_internal.h **** const char *fdt_find_string_len_(const char *strtab, int tabsize, const char *s,
  26:/mnt/c/Users/31740/Documents/codes/newcore-rp2350/lib/fdt/libfdt_internal.h **** 				 int s_len);
  27:/mnt/c/Users/31740/Documents/codes/newcore-rp2350/lib/fdt/libfdt_internal.h **** static inline const char *fdt_find_string_(const char *strtab, int tabsize,
  28:/mnt/c/Users/31740/Documents/codes/newcore-rp2350/lib/fdt/libfdt_internal.h **** 					   const char *s)
  29:/mnt/c/Users/31740/Documents/codes/newcore-rp2350/lib/fdt/libfdt_internal.h **** {
  30:/mnt/c/Users/31740/Documents/codes/newcore-rp2350/lib/fdt/libfdt_internal.h **** 	return fdt_find_string_len_(strtab, tabsize, s, strlen(s));
  31:/mnt/c/Users/31740/Documents/codes/newcore-rp2350/lib/fdt/libfdt_internal.h **** }
  32:/mnt/c/Users/31740/Documents/codes/newcore-rp2350/lib/fdt/libfdt_internal.h **** 
  33:/mnt/c/Users/31740/Documents/codes/newcore-rp2350/lib/fdt/libfdt_internal.h **** int fdt_node_end_offset_(void *fdt, int nodeoffset);
  34:/mnt/c/Users/31740/Documents/codes/newcore-rp2350/lib/fdt/libfdt_internal.h **** 
  35:/mnt/c/Users/31740/Documents/codes/newcore-rp2350/lib/fdt/libfdt_internal.h **** static inline const void *fdt_offset_ptr_(const void *fdt, int offset)
  36:/mnt/c/Users/31740/Documents/codes/newcore-rp2350/lib/fdt/libfdt_internal.h **** {
  37:/mnt/c/Users/31740/Documents/codes/newcore-rp2350/lib/fdt/libfdt_internal.h **** 	return (const char *)fdt + fdt_off_dt_struct(fdt) + offset;
  38:/mnt/c/Users/31740/Documents/codes/newcore-rp2350/lib/fdt/libfdt_internal.h **** }
  39:/mnt/c/Users/31740/Documents/codes/newcore-rp2350/lib/fdt/libfdt_internal.h **** 
  40:/mnt/c/Users/31740/Documents/codes/newcore-rp2350/lib/fdt/libfdt_internal.h **** static inline void *fdt_offset_ptr_w_(void *fdt, int offset)
 445              		.loc 4 40 21 view .LVU151
  41:/mnt/c/Users/31740/Documents/codes/newcore-rp2350/lib/fdt/libfdt_internal.h **** {
  42:/mnt/c/Users/31740/Documents/codes/newcore-rp2350/lib/fdt/libfdt_internal.h **** 	return (void *)(uintptr_t)fdt_offset_ptr_(fdt, offset);
 446              		.loc 4 42 2 view .LVU152
 447              	.LBB240:
 448              	.LBI240:
  35:/mnt/c/Users/31740/Documents/codes/newcore-rp2350/lib/fdt/libfdt_internal.h **** {
 449              		.loc 4 35 27 view .LVU153
 450              	.LBB241:
  37:/mnt/c/Users/31740/Documents/codes/newcore-rp2350/lib/fdt/libfdt_internal.h **** }
 451              		.loc 4 37 2 view .LVU154
  37:/mnt/c/Users/31740/Documents/codes/newcore-rp2350/lib/fdt/libfdt_internal.h **** }
 452              		.loc 4 37 52 is_stmt 0 discriminator 1 view .LVU155
 453 0092 6244     		add	r2, r2, ip
 454              	.LVL34:
  37:/mnt/c/Users/31740/Documents/codes/newcore-rp2350/lib/fdt/libfdt_internal.h **** }
 455              		.loc 4 37 52 discriminator 1 view .LVU156
 456 0094 1044     		add	r0, r0, r2
 457              	.LVL35:
 458              	.L17:
  37:/mnt/c/Users/31740/Documents/codes/newcore-rp2350/lib/fdt/libfdt_internal.h **** }
 459              		.loc 4 37 52 discriminator 1 view .LVU157
 460              	.LBE241:
 461              	.LBE240:
 462              	.LBE239:
 108:/mnt/c/Users/31740/Documents/codes/newcore-rp2350/lib/fdt/fdt_sw.c **** }
 463              		.loc 1 108 1 view .LVU158
 464 0096 10BD     		pop	{r4, pc}
 465              	.LVL36:
 466              	.L19:
 104:/mnt/c/Users/31740/Documents/codes/newcore-rp2350/lib/fdt/fdt_sw.c **** 
 467              		.loc 1 104 10 view .LVU159
 468 0098 0020     		movs	r0, #0
 469              	.LVL37:
 104:/mnt/c/Users/31740/Documents/codes/newcore-rp2350/lib/fdt/fdt_sw.c **** 
 470              		.loc 1 104 10 view .LVU160
ARM GAS  /tmp/ccOO9xGx.s 			page 19


 471 009a FCE7     		b	.L17
 472              	.LVL38:
 473              	.L20:
 104:/mnt/c/Users/31740/Documents/codes/newcore-rp2350/lib/fdt/fdt_sw.c **** 
 474              		.loc 1 104 10 view .LVU161
 475 009c 0020     		movs	r0, #0
 476              	.LVL39:
 104:/mnt/c/Users/31740/Documents/codes/newcore-rp2350/lib/fdt/fdt_sw.c **** 
 477              		.loc 1 104 10 view .LVU162
 478 009e FAE7     		b	.L17
 479              		.cfi_endproc
 480              	.LFE79:
 482              		.section	.text.fdt_del_last_string_,"ax",%progbits
 483              		.align	1
 484              		.syntax unified
 485              		.thumb
 486              		.thumb_func
 488              	fdt_del_last_string_:
 489              	.LVL40:
 490              	.LFB88:
 109:/mnt/c/Users/31740/Documents/codes/newcore-rp2350/lib/fdt/fdt_sw.c **** 
 110:/mnt/c/Users/31740/Documents/codes/newcore-rp2350/lib/fdt/fdt_sw.c **** int fdt_create_with_flags(void *buf, int bufsize, uint32_t flags)
 111:/mnt/c/Users/31740/Documents/codes/newcore-rp2350/lib/fdt/fdt_sw.c **** {
 112:/mnt/c/Users/31740/Documents/codes/newcore-rp2350/lib/fdt/fdt_sw.c **** 	const int hdrsize = FDT_ALIGN(sizeof(struct fdt_header),
 113:/mnt/c/Users/31740/Documents/codes/newcore-rp2350/lib/fdt/fdt_sw.c **** 				      sizeof(struct fdt_reserve_entry));
 114:/mnt/c/Users/31740/Documents/codes/newcore-rp2350/lib/fdt/fdt_sw.c **** 	void *fdt = buf;
 115:/mnt/c/Users/31740/Documents/codes/newcore-rp2350/lib/fdt/fdt_sw.c **** 
 116:/mnt/c/Users/31740/Documents/codes/newcore-rp2350/lib/fdt/fdt_sw.c **** 	if (bufsize < hdrsize)
 117:/mnt/c/Users/31740/Documents/codes/newcore-rp2350/lib/fdt/fdt_sw.c **** 		return -FDT_ERR_NOSPACE;
 118:/mnt/c/Users/31740/Documents/codes/newcore-rp2350/lib/fdt/fdt_sw.c **** 
 119:/mnt/c/Users/31740/Documents/codes/newcore-rp2350/lib/fdt/fdt_sw.c **** 	if (flags & ~FDT_CREATE_FLAGS_ALL)
 120:/mnt/c/Users/31740/Documents/codes/newcore-rp2350/lib/fdt/fdt_sw.c **** 		return -FDT_ERR_BADFLAGS;
 121:/mnt/c/Users/31740/Documents/codes/newcore-rp2350/lib/fdt/fdt_sw.c **** 
 122:/mnt/c/Users/31740/Documents/codes/newcore-rp2350/lib/fdt/fdt_sw.c **** 	memset(buf, 0, bufsize);
 123:/mnt/c/Users/31740/Documents/codes/newcore-rp2350/lib/fdt/fdt_sw.c **** 
 124:/mnt/c/Users/31740/Documents/codes/newcore-rp2350/lib/fdt/fdt_sw.c **** 	/*
 125:/mnt/c/Users/31740/Documents/codes/newcore-rp2350/lib/fdt/fdt_sw.c **** 	 * magic and last_comp_version keep intermediate state during the fdt
 126:/mnt/c/Users/31740/Documents/codes/newcore-rp2350/lib/fdt/fdt_sw.c **** 	 * creation process, which is replaced with the proper FDT format by
 127:/mnt/c/Users/31740/Documents/codes/newcore-rp2350/lib/fdt/fdt_sw.c **** 	 * fdt_finish().
 128:/mnt/c/Users/31740/Documents/codes/newcore-rp2350/lib/fdt/fdt_sw.c **** 	 *
 129:/mnt/c/Users/31740/Documents/codes/newcore-rp2350/lib/fdt/fdt_sw.c **** 	 * flags should be accessed with sw_flags().
 130:/mnt/c/Users/31740/Documents/codes/newcore-rp2350/lib/fdt/fdt_sw.c **** 	 */
 131:/mnt/c/Users/31740/Documents/codes/newcore-rp2350/lib/fdt/fdt_sw.c **** 	fdt_set_magic(fdt, FDT_SW_MAGIC);
 132:/mnt/c/Users/31740/Documents/codes/newcore-rp2350/lib/fdt/fdt_sw.c **** 	fdt_set_version(fdt, FDT_LAST_SUPPORTED_VERSION);
 133:/mnt/c/Users/31740/Documents/codes/newcore-rp2350/lib/fdt/fdt_sw.c **** 	fdt_set_last_comp_version(fdt, flags);
 134:/mnt/c/Users/31740/Documents/codes/newcore-rp2350/lib/fdt/fdt_sw.c **** 
 135:/mnt/c/Users/31740/Documents/codes/newcore-rp2350/lib/fdt/fdt_sw.c **** 	fdt_set_totalsize(fdt,  bufsize);
 136:/mnt/c/Users/31740/Documents/codes/newcore-rp2350/lib/fdt/fdt_sw.c **** 
 137:/mnt/c/Users/31740/Documents/codes/newcore-rp2350/lib/fdt/fdt_sw.c **** 	fdt_set_off_mem_rsvmap(fdt, hdrsize);
 138:/mnt/c/Users/31740/Documents/codes/newcore-rp2350/lib/fdt/fdt_sw.c **** 	fdt_set_off_dt_struct(fdt, fdt_off_mem_rsvmap(fdt));
 139:/mnt/c/Users/31740/Documents/codes/newcore-rp2350/lib/fdt/fdt_sw.c **** 	fdt_set_off_dt_strings(fdt, 0);
 140:/mnt/c/Users/31740/Documents/codes/newcore-rp2350/lib/fdt/fdt_sw.c **** 
 141:/mnt/c/Users/31740/Documents/codes/newcore-rp2350/lib/fdt/fdt_sw.c **** 	return 0;
 142:/mnt/c/Users/31740/Documents/codes/newcore-rp2350/lib/fdt/fdt_sw.c **** }
 143:/mnt/c/Users/31740/Documents/codes/newcore-rp2350/lib/fdt/fdt_sw.c **** 
 144:/mnt/c/Users/31740/Documents/codes/newcore-rp2350/lib/fdt/fdt_sw.c **** int fdt_create(void *buf, int bufsize)
 145:/mnt/c/Users/31740/Documents/codes/newcore-rp2350/lib/fdt/fdt_sw.c **** {
ARM GAS  /tmp/ccOO9xGx.s 			page 20


 146:/mnt/c/Users/31740/Documents/codes/newcore-rp2350/lib/fdt/fdt_sw.c **** 	return fdt_create_with_flags(buf, bufsize, 0);
 147:/mnt/c/Users/31740/Documents/codes/newcore-rp2350/lib/fdt/fdt_sw.c **** }
 148:/mnt/c/Users/31740/Documents/codes/newcore-rp2350/lib/fdt/fdt_sw.c **** 
 149:/mnt/c/Users/31740/Documents/codes/newcore-rp2350/lib/fdt/fdt_sw.c **** int fdt_resize(void *fdt, void *buf, int bufsize)
 150:/mnt/c/Users/31740/Documents/codes/newcore-rp2350/lib/fdt/fdt_sw.c **** {
 151:/mnt/c/Users/31740/Documents/codes/newcore-rp2350/lib/fdt/fdt_sw.c **** 	size_t headsize, tailsize;
 152:/mnt/c/Users/31740/Documents/codes/newcore-rp2350/lib/fdt/fdt_sw.c **** 	char *oldtail, *newtail;
 153:/mnt/c/Users/31740/Documents/codes/newcore-rp2350/lib/fdt/fdt_sw.c **** 
 154:/mnt/c/Users/31740/Documents/codes/newcore-rp2350/lib/fdt/fdt_sw.c **** 	FDT_SW_PROBE(fdt);
 155:/mnt/c/Users/31740/Documents/codes/newcore-rp2350/lib/fdt/fdt_sw.c **** 
 156:/mnt/c/Users/31740/Documents/codes/newcore-rp2350/lib/fdt/fdt_sw.c **** 	if (bufsize < 0)
 157:/mnt/c/Users/31740/Documents/codes/newcore-rp2350/lib/fdt/fdt_sw.c **** 		return -FDT_ERR_NOSPACE;
 158:/mnt/c/Users/31740/Documents/codes/newcore-rp2350/lib/fdt/fdt_sw.c **** 
 159:/mnt/c/Users/31740/Documents/codes/newcore-rp2350/lib/fdt/fdt_sw.c **** 	headsize = fdt_off_dt_struct(fdt) + fdt_size_dt_struct(fdt);
 160:/mnt/c/Users/31740/Documents/codes/newcore-rp2350/lib/fdt/fdt_sw.c **** 	tailsize = fdt_size_dt_strings(fdt);
 161:/mnt/c/Users/31740/Documents/codes/newcore-rp2350/lib/fdt/fdt_sw.c **** 
 162:/mnt/c/Users/31740/Documents/codes/newcore-rp2350/lib/fdt/fdt_sw.c **** 	if (!can_assume(VALID_DTB) &&
 163:/mnt/c/Users/31740/Documents/codes/newcore-rp2350/lib/fdt/fdt_sw.c **** 	    headsize + tailsize > fdt_totalsize(fdt))
 164:/mnt/c/Users/31740/Documents/codes/newcore-rp2350/lib/fdt/fdt_sw.c **** 		return -FDT_ERR_INTERNAL;
 165:/mnt/c/Users/31740/Documents/codes/newcore-rp2350/lib/fdt/fdt_sw.c **** 
 166:/mnt/c/Users/31740/Documents/codes/newcore-rp2350/lib/fdt/fdt_sw.c **** 	if ((headsize + tailsize) > (unsigned)bufsize)
 167:/mnt/c/Users/31740/Documents/codes/newcore-rp2350/lib/fdt/fdt_sw.c **** 		return -FDT_ERR_NOSPACE;
 168:/mnt/c/Users/31740/Documents/codes/newcore-rp2350/lib/fdt/fdt_sw.c **** 
 169:/mnt/c/Users/31740/Documents/codes/newcore-rp2350/lib/fdt/fdt_sw.c **** 	oldtail = (char *)fdt + fdt_totalsize(fdt) - tailsize;
 170:/mnt/c/Users/31740/Documents/codes/newcore-rp2350/lib/fdt/fdt_sw.c **** 	newtail = (char *)buf + bufsize - tailsize;
 171:/mnt/c/Users/31740/Documents/codes/newcore-rp2350/lib/fdt/fdt_sw.c **** 
 172:/mnt/c/Users/31740/Documents/codes/newcore-rp2350/lib/fdt/fdt_sw.c **** 	/* Two cases to avoid clobbering data if the old and new
 173:/mnt/c/Users/31740/Documents/codes/newcore-rp2350/lib/fdt/fdt_sw.c **** 	 * buffers partially overlap */
 174:/mnt/c/Users/31740/Documents/codes/newcore-rp2350/lib/fdt/fdt_sw.c **** 	if (buf <= fdt) {
 175:/mnt/c/Users/31740/Documents/codes/newcore-rp2350/lib/fdt/fdt_sw.c **** 		memmove(buf, fdt, headsize);
 176:/mnt/c/Users/31740/Documents/codes/newcore-rp2350/lib/fdt/fdt_sw.c **** 		memmove(newtail, oldtail, tailsize);
 177:/mnt/c/Users/31740/Documents/codes/newcore-rp2350/lib/fdt/fdt_sw.c **** 	} else {
 178:/mnt/c/Users/31740/Documents/codes/newcore-rp2350/lib/fdt/fdt_sw.c **** 		memmove(newtail, oldtail, tailsize);
 179:/mnt/c/Users/31740/Documents/codes/newcore-rp2350/lib/fdt/fdt_sw.c **** 		memmove(buf, fdt, headsize);
 180:/mnt/c/Users/31740/Documents/codes/newcore-rp2350/lib/fdt/fdt_sw.c **** 	}
 181:/mnt/c/Users/31740/Documents/codes/newcore-rp2350/lib/fdt/fdt_sw.c **** 
 182:/mnt/c/Users/31740/Documents/codes/newcore-rp2350/lib/fdt/fdt_sw.c **** 	fdt_set_totalsize(buf, bufsize);
 183:/mnt/c/Users/31740/Documents/codes/newcore-rp2350/lib/fdt/fdt_sw.c **** 	if (fdt_off_dt_strings(buf))
 184:/mnt/c/Users/31740/Documents/codes/newcore-rp2350/lib/fdt/fdt_sw.c **** 		fdt_set_off_dt_strings(buf, bufsize);
 185:/mnt/c/Users/31740/Documents/codes/newcore-rp2350/lib/fdt/fdt_sw.c **** 
 186:/mnt/c/Users/31740/Documents/codes/newcore-rp2350/lib/fdt/fdt_sw.c **** 	return 0;
 187:/mnt/c/Users/31740/Documents/codes/newcore-rp2350/lib/fdt/fdt_sw.c **** }
 188:/mnt/c/Users/31740/Documents/codes/newcore-rp2350/lib/fdt/fdt_sw.c **** 
 189:/mnt/c/Users/31740/Documents/codes/newcore-rp2350/lib/fdt/fdt_sw.c **** int fdt_add_reservemap_entry(void *fdt, uint64_t addr, uint64_t size)
 190:/mnt/c/Users/31740/Documents/codes/newcore-rp2350/lib/fdt/fdt_sw.c **** {
 191:/mnt/c/Users/31740/Documents/codes/newcore-rp2350/lib/fdt/fdt_sw.c **** 	struct fdt_reserve_entry *re;
 192:/mnt/c/Users/31740/Documents/codes/newcore-rp2350/lib/fdt/fdt_sw.c **** 	int offset;
 193:/mnt/c/Users/31740/Documents/codes/newcore-rp2350/lib/fdt/fdt_sw.c **** 
 194:/mnt/c/Users/31740/Documents/codes/newcore-rp2350/lib/fdt/fdt_sw.c **** 	FDT_SW_PROBE_MEMRSV(fdt);
 195:/mnt/c/Users/31740/Documents/codes/newcore-rp2350/lib/fdt/fdt_sw.c **** 
 196:/mnt/c/Users/31740/Documents/codes/newcore-rp2350/lib/fdt/fdt_sw.c **** 	offset = fdt_off_dt_struct(fdt);
 197:/mnt/c/Users/31740/Documents/codes/newcore-rp2350/lib/fdt/fdt_sw.c **** 	if ((offset + sizeof(*re)) > fdt_totalsize(fdt))
 198:/mnt/c/Users/31740/Documents/codes/newcore-rp2350/lib/fdt/fdt_sw.c **** 		return -FDT_ERR_NOSPACE;
 199:/mnt/c/Users/31740/Documents/codes/newcore-rp2350/lib/fdt/fdt_sw.c **** 
 200:/mnt/c/Users/31740/Documents/codes/newcore-rp2350/lib/fdt/fdt_sw.c **** 	re = (struct fdt_reserve_entry *)((char *)fdt + offset);
 201:/mnt/c/Users/31740/Documents/codes/newcore-rp2350/lib/fdt/fdt_sw.c **** 	re->address = cpu_to_fdt64(addr);
 202:/mnt/c/Users/31740/Documents/codes/newcore-rp2350/lib/fdt/fdt_sw.c **** 	re->size = cpu_to_fdt64(size);
ARM GAS  /tmp/ccOO9xGx.s 			page 21


 203:/mnt/c/Users/31740/Documents/codes/newcore-rp2350/lib/fdt/fdt_sw.c **** 
 204:/mnt/c/Users/31740/Documents/codes/newcore-rp2350/lib/fdt/fdt_sw.c **** 	fdt_set_off_dt_struct(fdt, offset + sizeof(*re));
 205:/mnt/c/Users/31740/Documents/codes/newcore-rp2350/lib/fdt/fdt_sw.c **** 
 206:/mnt/c/Users/31740/Documents/codes/newcore-rp2350/lib/fdt/fdt_sw.c **** 	return 0;
 207:/mnt/c/Users/31740/Documents/codes/newcore-rp2350/lib/fdt/fdt_sw.c **** }
 208:/mnt/c/Users/31740/Documents/codes/newcore-rp2350/lib/fdt/fdt_sw.c **** 
 209:/mnt/c/Users/31740/Documents/codes/newcore-rp2350/lib/fdt/fdt_sw.c **** int fdt_finish_reservemap(void *fdt)
 210:/mnt/c/Users/31740/Documents/codes/newcore-rp2350/lib/fdt/fdt_sw.c **** {
 211:/mnt/c/Users/31740/Documents/codes/newcore-rp2350/lib/fdt/fdt_sw.c **** 	int err = fdt_add_reservemap_entry(fdt, 0, 0);
 212:/mnt/c/Users/31740/Documents/codes/newcore-rp2350/lib/fdt/fdt_sw.c **** 
 213:/mnt/c/Users/31740/Documents/codes/newcore-rp2350/lib/fdt/fdt_sw.c **** 	if (err)
 214:/mnt/c/Users/31740/Documents/codes/newcore-rp2350/lib/fdt/fdt_sw.c **** 		return err;
 215:/mnt/c/Users/31740/Documents/codes/newcore-rp2350/lib/fdt/fdt_sw.c **** 
 216:/mnt/c/Users/31740/Documents/codes/newcore-rp2350/lib/fdt/fdt_sw.c **** 	fdt_set_off_dt_strings(fdt, fdt_totalsize(fdt));
 217:/mnt/c/Users/31740/Documents/codes/newcore-rp2350/lib/fdt/fdt_sw.c **** 	return 0;
 218:/mnt/c/Users/31740/Documents/codes/newcore-rp2350/lib/fdt/fdt_sw.c **** }
 219:/mnt/c/Users/31740/Documents/codes/newcore-rp2350/lib/fdt/fdt_sw.c **** 
 220:/mnt/c/Users/31740/Documents/codes/newcore-rp2350/lib/fdt/fdt_sw.c **** int fdt_begin_node(void *fdt, const char *name)
 221:/mnt/c/Users/31740/Documents/codes/newcore-rp2350/lib/fdt/fdt_sw.c **** {
 222:/mnt/c/Users/31740/Documents/codes/newcore-rp2350/lib/fdt/fdt_sw.c **** 	struct fdt_node_header *nh;
 223:/mnt/c/Users/31740/Documents/codes/newcore-rp2350/lib/fdt/fdt_sw.c **** 	int namelen;
 224:/mnt/c/Users/31740/Documents/codes/newcore-rp2350/lib/fdt/fdt_sw.c **** 
 225:/mnt/c/Users/31740/Documents/codes/newcore-rp2350/lib/fdt/fdt_sw.c **** 	FDT_SW_PROBE_STRUCT(fdt);
 226:/mnt/c/Users/31740/Documents/codes/newcore-rp2350/lib/fdt/fdt_sw.c **** 
 227:/mnt/c/Users/31740/Documents/codes/newcore-rp2350/lib/fdt/fdt_sw.c **** 	namelen = strlen(name) + 1;
 228:/mnt/c/Users/31740/Documents/codes/newcore-rp2350/lib/fdt/fdt_sw.c **** 	nh = fdt_grab_space_(fdt, sizeof(*nh) + FDT_TAGALIGN(namelen));
 229:/mnt/c/Users/31740/Documents/codes/newcore-rp2350/lib/fdt/fdt_sw.c **** 	if (! nh)
 230:/mnt/c/Users/31740/Documents/codes/newcore-rp2350/lib/fdt/fdt_sw.c **** 		return -FDT_ERR_NOSPACE;
 231:/mnt/c/Users/31740/Documents/codes/newcore-rp2350/lib/fdt/fdt_sw.c **** 
 232:/mnt/c/Users/31740/Documents/codes/newcore-rp2350/lib/fdt/fdt_sw.c **** 	nh->tag = cpu_to_fdt32(FDT_BEGIN_NODE);
 233:/mnt/c/Users/31740/Documents/codes/newcore-rp2350/lib/fdt/fdt_sw.c **** 	memcpy(nh->name, name, namelen);
 234:/mnt/c/Users/31740/Documents/codes/newcore-rp2350/lib/fdt/fdt_sw.c **** 	return 0;
 235:/mnt/c/Users/31740/Documents/codes/newcore-rp2350/lib/fdt/fdt_sw.c **** }
 236:/mnt/c/Users/31740/Documents/codes/newcore-rp2350/lib/fdt/fdt_sw.c **** 
 237:/mnt/c/Users/31740/Documents/codes/newcore-rp2350/lib/fdt/fdt_sw.c **** int fdt_end_node(void *fdt)
 238:/mnt/c/Users/31740/Documents/codes/newcore-rp2350/lib/fdt/fdt_sw.c **** {
 239:/mnt/c/Users/31740/Documents/codes/newcore-rp2350/lib/fdt/fdt_sw.c **** 	fdt32_t *en;
 240:/mnt/c/Users/31740/Documents/codes/newcore-rp2350/lib/fdt/fdt_sw.c **** 
 241:/mnt/c/Users/31740/Documents/codes/newcore-rp2350/lib/fdt/fdt_sw.c **** 	FDT_SW_PROBE_STRUCT(fdt);
 242:/mnt/c/Users/31740/Documents/codes/newcore-rp2350/lib/fdt/fdt_sw.c **** 
 243:/mnt/c/Users/31740/Documents/codes/newcore-rp2350/lib/fdt/fdt_sw.c **** 	en = fdt_grab_space_(fdt, FDT_TAGSIZE);
 244:/mnt/c/Users/31740/Documents/codes/newcore-rp2350/lib/fdt/fdt_sw.c **** 	if (! en)
 245:/mnt/c/Users/31740/Documents/codes/newcore-rp2350/lib/fdt/fdt_sw.c **** 		return -FDT_ERR_NOSPACE;
 246:/mnt/c/Users/31740/Documents/codes/newcore-rp2350/lib/fdt/fdt_sw.c **** 
 247:/mnt/c/Users/31740/Documents/codes/newcore-rp2350/lib/fdt/fdt_sw.c **** 	*en = cpu_to_fdt32(FDT_END_NODE);
 248:/mnt/c/Users/31740/Documents/codes/newcore-rp2350/lib/fdt/fdt_sw.c **** 	return 0;
 249:/mnt/c/Users/31740/Documents/codes/newcore-rp2350/lib/fdt/fdt_sw.c **** }
 250:/mnt/c/Users/31740/Documents/codes/newcore-rp2350/lib/fdt/fdt_sw.c **** 
 251:/mnt/c/Users/31740/Documents/codes/newcore-rp2350/lib/fdt/fdt_sw.c **** static int fdt_add_string_(void *fdt, const char *s)
 252:/mnt/c/Users/31740/Documents/codes/newcore-rp2350/lib/fdt/fdt_sw.c **** {
 253:/mnt/c/Users/31740/Documents/codes/newcore-rp2350/lib/fdt/fdt_sw.c **** 	char *strtab = (char *)fdt + fdt_totalsize(fdt);
 254:/mnt/c/Users/31740/Documents/codes/newcore-rp2350/lib/fdt/fdt_sw.c **** 	unsigned int strtabsize = fdt_size_dt_strings(fdt);
 255:/mnt/c/Users/31740/Documents/codes/newcore-rp2350/lib/fdt/fdt_sw.c **** 	unsigned int len = strlen(s) + 1;
 256:/mnt/c/Users/31740/Documents/codes/newcore-rp2350/lib/fdt/fdt_sw.c **** 	unsigned int struct_top, offset;
 257:/mnt/c/Users/31740/Documents/codes/newcore-rp2350/lib/fdt/fdt_sw.c **** 
 258:/mnt/c/Users/31740/Documents/codes/newcore-rp2350/lib/fdt/fdt_sw.c **** 	offset = strtabsize + len;
 259:/mnt/c/Users/31740/Documents/codes/newcore-rp2350/lib/fdt/fdt_sw.c **** 	struct_top = fdt_off_dt_struct(fdt) + fdt_size_dt_struct(fdt);
ARM GAS  /tmp/ccOO9xGx.s 			page 22


 260:/mnt/c/Users/31740/Documents/codes/newcore-rp2350/lib/fdt/fdt_sw.c **** 	if (fdt_totalsize(fdt) - offset < struct_top)
 261:/mnt/c/Users/31740/Documents/codes/newcore-rp2350/lib/fdt/fdt_sw.c **** 		return 0; /* no more room :( */
 262:/mnt/c/Users/31740/Documents/codes/newcore-rp2350/lib/fdt/fdt_sw.c **** 
 263:/mnt/c/Users/31740/Documents/codes/newcore-rp2350/lib/fdt/fdt_sw.c **** 	memcpy(strtab - offset, s, len);
 264:/mnt/c/Users/31740/Documents/codes/newcore-rp2350/lib/fdt/fdt_sw.c **** 	fdt_set_size_dt_strings(fdt, strtabsize + len);
 265:/mnt/c/Users/31740/Documents/codes/newcore-rp2350/lib/fdt/fdt_sw.c **** 	return -offset;
 266:/mnt/c/Users/31740/Documents/codes/newcore-rp2350/lib/fdt/fdt_sw.c **** }
 267:/mnt/c/Users/31740/Documents/codes/newcore-rp2350/lib/fdt/fdt_sw.c **** 
 268:/mnt/c/Users/31740/Documents/codes/newcore-rp2350/lib/fdt/fdt_sw.c **** /* Must only be used to roll back in case of error */
 269:/mnt/c/Users/31740/Documents/codes/newcore-rp2350/lib/fdt/fdt_sw.c **** static void fdt_del_last_string_(void *fdt, const char *s)
 270:/mnt/c/Users/31740/Documents/codes/newcore-rp2350/lib/fdt/fdt_sw.c **** {
 491              		.loc 1 270 1 is_stmt 1 view -0
 492              		.cfi_startproc
 493              		@ args = 0, pretend = 0, frame = 0
 494              		@ frame_needed = 0, uses_anonymous_args = 0
 495              		.loc 1 270 1 is_stmt 0 view .LVU164
 496 0000 38B5     		push	{r3, r4, r5, lr}
 497              	.LCFI3:
 498              		.cfi_def_cfa_offset 16
 499              		.cfi_offset 3, -16
 500              		.cfi_offset 4, -12
 501              		.cfi_offset 5, -8
 502              		.cfi_offset 14, -4
 503 0002 0546     		mov	r5, r0
 271:/mnt/c/Users/31740/Documents/codes/newcore-rp2350/lib/fdt/fdt_sw.c **** 	int strtabsize = fdt_size_dt_strings(fdt);
 504              		.loc 1 271 2 is_stmt 1 view .LVU165
 505              	.LVL41:
 506              	.LBB242:
 507              	.LBI242:
 145:/mnt/c/Users/31740/Documents/codes/newcore-rp2350/include/linux/libfdt.h **** {
 508              		.loc 2 145 24 view .LVU166
 509              	.LBB243:
 147:/mnt/c/Users/31740/Documents/codes/newcore-rp2350/include/linux/libfdt.h **** 
 510              		.loc 2 147 2 view .LVU167
 149:/mnt/c/Users/31740/Documents/codes/newcore-rp2350/include/linux/libfdt.h **** 		| ((uint32_t)bp[1] << 16)
 511              		.loc 2 149 2 view .LVU168
 149:/mnt/c/Users/31740/Documents/codes/newcore-rp2350/include/linux/libfdt.h **** 		| ((uint32_t)bp[1] << 16)
 512              		.loc 2 149 22 is_stmt 0 view .LVU169
 513 0004 90F82020 		ldrb	r2, [r0, #32]	@ zero_extendqisi2
 150:/mnt/c/Users/31740/Documents/codes/newcore-rp2350/include/linux/libfdt.h **** 		| ((uint32_t)bp[2] << 8)
 514              		.loc 2 150 18 view .LVU170
 515 0008 90F82130 		ldrb	r3, [r0, #33]	@ zero_extendqisi2
 150:/mnt/c/Users/31740/Documents/codes/newcore-rp2350/include/linux/libfdt.h **** 		| ((uint32_t)bp[2] << 8)
 516              		.loc 2 150 22 view .LVU171
 517 000c 1B04     		lsls	r3, r3, #16
 150:/mnt/c/Users/31740/Documents/codes/newcore-rp2350/include/linux/libfdt.h **** 		| ((uint32_t)bp[2] << 8)
 518              		.loc 2 150 3 view .LVU172
 519 000e 43EA0263 		orr	r3, r3, r2, lsl #24
 151:/mnt/c/Users/31740/Documents/codes/newcore-rp2350/include/linux/libfdt.h **** 		| bp[3];
 520              		.loc 2 151 18 view .LVU173
 521 0012 90F82220 		ldrb	r2, [r0, #34]	@ zero_extendqisi2
 151:/mnt/c/Users/31740/Documents/codes/newcore-rp2350/include/linux/libfdt.h **** 		| bp[3];
 522              		.loc 2 151 3 view .LVU174
 523 0016 43EA0223 		orr	r3, r3, r2, lsl #8
 152:/mnt/c/Users/31740/Documents/codes/newcore-rp2350/include/linux/libfdt.h **** }
 524              		.loc 2 152 7 view .LVU175
 525 001a 90F82320 		ldrb	r2, [r0, #35]	@ zero_extendqisi2
ARM GAS  /tmp/ccOO9xGx.s 			page 23


 152:/mnt/c/Users/31740/Documents/codes/newcore-rp2350/include/linux/libfdt.h **** }
 526              		.loc 2 152 3 view .LVU176
 527 001e 43EA0204 		orr	r4, r3, r2
 528              	.LVL42:
 152:/mnt/c/Users/31740/Documents/codes/newcore-rp2350/include/linux/libfdt.h **** }
 529              		.loc 2 152 3 view .LVU177
 530              	.LBE243:
 531              	.LBE242:
 272:/mnt/c/Users/31740/Documents/codes/newcore-rp2350/lib/fdt/fdt_sw.c **** 	int len = strlen(s) + 1;
 532              		.loc 1 272 2 is_stmt 1 view .LVU178
 533              		.loc 1 272 12 is_stmt 0 view .LVU179
 534 0022 0846     		mov	r0, r1
 535              	.LVL43:
 536              		.loc 1 272 12 view .LVU180
 537 0024 FFF7FEFF 		bl	strlen
 538              	.LVL44:
 539              		.loc 1 272 22 discriminator 1 view .LVU181
 540 0028 0130     		adds	r0, r0, #1
 541              	.LVL45:
 273:/mnt/c/Users/31740/Documents/codes/newcore-rp2350/lib/fdt/fdt_sw.c **** 
 274:/mnt/c/Users/31740/Documents/codes/newcore-rp2350/lib/fdt/fdt_sw.c **** 	fdt_set_size_dt_strings(fdt, strtabsize - len);
 542              		.loc 1 274 2 is_stmt 1 view .LVU182
 543              		.loc 1 274 42 is_stmt 0 view .LVU183
 544 002a 231A     		subs	r3, r4, r0
 545              	.LVL46:
 546              	.LBB244:
 547              	.LBI244:
 278:/mnt/c/Users/31740/Documents/codes/newcore-rp2350/include/linux/libfdt.h **** fdt_set_hdr_(size_dt_struct)
 548              		.loc 2 278 1 is_stmt 1 view .LVU184
 549              	.LBB245:
 278:/mnt/c/Users/31740/Documents/codes/newcore-rp2350/include/linux/libfdt.h **** fdt_set_hdr_(size_dt_struct)
 550              		.loc 2 278 1 view .LVU185
 278:/mnt/c/Users/31740/Documents/codes/newcore-rp2350/include/linux/libfdt.h **** fdt_set_hdr_(size_dt_struct)
 551              		.loc 2 278 1 view .LVU186
 552              	.LBB246:
 553              	.LBI246:
  57:/mnt/c/Users/31740/Documents/codes/newcore-rp2350/include/linux/libfdt_env.h **** {
 554              		.loc 3 57 23 view .LVU187
 555              	.LBB247:
 556              		.loc 3 59 2 view .LVU188
 557              		.loc 3 59 28 is_stmt 0 view .LVU189
 558 002c C3F30722 		ubfx	r2, r3, #8, #8
 559 0030 1204     		lsls	r2, r2, #16
 560 0032 42EA0362 		orr	r2, r2, r3, lsl #24
 561 0036 C3F30741 		ubfx	r1, r3, #16, #8
 562 003a 42EA0122 		orr	r2, r2, r1, lsl #8
 563              		.loc 3 59 9 view .LVU190
 564 003e 42EA1363 		orr	r3, r2, r3, lsr #24
 565              	.LVL47:
 566              		.loc 3 59 9 view .LVU191
 567              	.LBE247:
 568              	.LBE246:
 278:/mnt/c/Users/31740/Documents/codes/newcore-rp2350/include/linux/libfdt.h **** fdt_set_hdr_(size_dt_struct)
 569              		.loc 2 278 1 discriminator 1 view .LVU192
 570 0042 2B62     		str	r3, [r5, #32]
 571              	.LVL48:
 278:/mnt/c/Users/31740/Documents/codes/newcore-rp2350/include/linux/libfdt.h **** fdt_set_hdr_(size_dt_struct)
ARM GAS  /tmp/ccOO9xGx.s 			page 24


 572              		.loc 2 278 1 discriminator 1 view .LVU193
 573              	.LBE245:
 574              	.LBE244:
 275:/mnt/c/Users/31740/Documents/codes/newcore-rp2350/lib/fdt/fdt_sw.c **** }
 575              		.loc 1 275 1 view .LVU194
 576 0044 38BD     		pop	{r3, r4, r5, pc}
 577              		.loc 1 275 1 view .LVU195
 578              		.cfi_endproc
 579              	.LFE88:
 581              		.section	.text.fdt_add_string_,"ax",%progbits
 582              		.align	1
 583              		.syntax unified
 584              		.thumb
 585              		.thumb_func
 587              	fdt_add_string_:
 588              	.LVL49:
 589              	.LFB87:
 252:/mnt/c/Users/31740/Documents/codes/newcore-rp2350/lib/fdt/fdt_sw.c **** 	char *strtab = (char *)fdt + fdt_totalsize(fdt);
 590              		.loc 1 252 1 is_stmt 1 view -0
 591              		.cfi_startproc
 592              		@ args = 0, pretend = 0, frame = 0
 593              		@ frame_needed = 0, uses_anonymous_args = 0
 252:/mnt/c/Users/31740/Documents/codes/newcore-rp2350/lib/fdt/fdt_sw.c **** 	char *strtab = (char *)fdt + fdt_totalsize(fdt);
 594              		.loc 1 252 1 is_stmt 0 view .LVU197
 595 0000 F8B5     		push	{r3, r4, r5, r6, r7, lr}
 596              	.LCFI4:
 597              		.cfi_def_cfa_offset 24
 598              		.cfi_offset 3, -24
 599              		.cfi_offset 4, -20
 600              		.cfi_offset 5, -16
 601              		.cfi_offset 6, -12
 602              		.cfi_offset 7, -8
 603              		.cfi_offset 14, -4
 604 0002 0446     		mov	r4, r0
 605 0004 0F46     		mov	r7, r1
 253:/mnt/c/Users/31740/Documents/codes/newcore-rp2350/lib/fdt/fdt_sw.c **** 	unsigned int strtabsize = fdt_size_dt_strings(fdt);
 606              		.loc 1 253 2 is_stmt 1 view .LVU198
 607              	.LVL50:
 608              	.LBB248:
 609              	.LBI248:
 145:/mnt/c/Users/31740/Documents/codes/newcore-rp2350/include/linux/libfdt.h **** {
 610              		.loc 2 145 24 view .LVU199
 611              	.LBB249:
 147:/mnt/c/Users/31740/Documents/codes/newcore-rp2350/include/linux/libfdt.h **** 
 612              		.loc 2 147 2 view .LVU200
 149:/mnt/c/Users/31740/Documents/codes/newcore-rp2350/include/linux/libfdt.h **** 		| ((uint32_t)bp[1] << 16)
 613              		.loc 2 149 2 view .LVU201
 149:/mnt/c/Users/31740/Documents/codes/newcore-rp2350/include/linux/libfdt.h **** 		| ((uint32_t)bp[1] << 16)
 614              		.loc 2 149 22 is_stmt 0 view .LVU202
 615 0006 0379     		ldrb	r3, [r0, #4]	@ zero_extendqisi2
 150:/mnt/c/Users/31740/Documents/codes/newcore-rp2350/include/linux/libfdt.h **** 		| ((uint32_t)bp[2] << 8)
 616              		.loc 2 150 18 view .LVU203
 617 0008 4679     		ldrb	r6, [r0, #5]	@ zero_extendqisi2
 150:/mnt/c/Users/31740/Documents/codes/newcore-rp2350/include/linux/libfdt.h **** 		| ((uint32_t)bp[2] << 8)
 618              		.loc 2 150 22 view .LVU204
 619 000a 3604     		lsls	r6, r6, #16
 150:/mnt/c/Users/31740/Documents/codes/newcore-rp2350/include/linux/libfdt.h **** 		| ((uint32_t)bp[2] << 8)
ARM GAS  /tmp/ccOO9xGx.s 			page 25


 620              		.loc 2 150 3 view .LVU205
 621 000c 46EA0366 		orr	r6, r6, r3, lsl #24
 151:/mnt/c/Users/31740/Documents/codes/newcore-rp2350/include/linux/libfdt.h **** 		| bp[3];
 622              		.loc 2 151 18 view .LVU206
 623 0010 8379     		ldrb	r3, [r0, #6]	@ zero_extendqisi2
 151:/mnt/c/Users/31740/Documents/codes/newcore-rp2350/include/linux/libfdt.h **** 		| bp[3];
 624              		.loc 2 151 3 view .LVU207
 625 0012 46EA0326 		orr	r6, r6, r3, lsl #8
 152:/mnt/c/Users/31740/Documents/codes/newcore-rp2350/include/linux/libfdt.h **** }
 626              		.loc 2 152 7 view .LVU208
 627 0016 C379     		ldrb	r3, [r0, #7]	@ zero_extendqisi2
 152:/mnt/c/Users/31740/Documents/codes/newcore-rp2350/include/linux/libfdt.h **** }
 628              		.loc 2 152 3 view .LVU209
 629 0018 1E43     		orrs	r6, r6, r3
 630              	.LVL51:
 152:/mnt/c/Users/31740/Documents/codes/newcore-rp2350/include/linux/libfdt.h **** }
 631              		.loc 2 152 3 view .LVU210
 632              	.LBE249:
 633              	.LBE248:
 254:/mnt/c/Users/31740/Documents/codes/newcore-rp2350/lib/fdt/fdt_sw.c **** 	unsigned int len = strlen(s) + 1;
 634              		.loc 1 254 2 is_stmt 1 view .LVU211
 635              	.LBB250:
 636              	.LBI250:
 145:/mnt/c/Users/31740/Documents/codes/newcore-rp2350/include/linux/libfdt.h **** {
 637              		.loc 2 145 24 view .LVU212
 638              	.LBB251:
 147:/mnt/c/Users/31740/Documents/codes/newcore-rp2350/include/linux/libfdt.h **** 
 639              		.loc 2 147 2 view .LVU213
 149:/mnt/c/Users/31740/Documents/codes/newcore-rp2350/include/linux/libfdt.h **** 		| ((uint32_t)bp[1] << 16)
 640              		.loc 2 149 2 view .LVU214
 149:/mnt/c/Users/31740/Documents/codes/newcore-rp2350/include/linux/libfdt.h **** 		| ((uint32_t)bp[1] << 16)
 641              		.loc 2 149 22 is_stmt 0 view .LVU215
 642 001a 90F82030 		ldrb	r3, [r0, #32]	@ zero_extendqisi2
 150:/mnt/c/Users/31740/Documents/codes/newcore-rp2350/include/linux/libfdt.h **** 		| ((uint32_t)bp[2] << 8)
 643              		.loc 2 150 18 view .LVU216
 644 001e 90F82150 		ldrb	r5, [r0, #33]	@ zero_extendqisi2
 150:/mnt/c/Users/31740/Documents/codes/newcore-rp2350/include/linux/libfdt.h **** 		| ((uint32_t)bp[2] << 8)
 645              		.loc 2 150 22 view .LVU217
 646 0022 2D04     		lsls	r5, r5, #16
 150:/mnt/c/Users/31740/Documents/codes/newcore-rp2350/include/linux/libfdt.h **** 		| ((uint32_t)bp[2] << 8)
 647              		.loc 2 150 3 view .LVU218
 648 0024 45EA0365 		orr	r5, r5, r3, lsl #24
 151:/mnt/c/Users/31740/Documents/codes/newcore-rp2350/include/linux/libfdt.h **** 		| bp[3];
 649              		.loc 2 151 18 view .LVU219
 650 0028 90F82230 		ldrb	r3, [r0, #34]	@ zero_extendqisi2
 151:/mnt/c/Users/31740/Documents/codes/newcore-rp2350/include/linux/libfdt.h **** 		| bp[3];
 651              		.loc 2 151 3 view .LVU220
 652 002c 45EA0325 		orr	r5, r5, r3, lsl #8
 152:/mnt/c/Users/31740/Documents/codes/newcore-rp2350/include/linux/libfdt.h **** }
 653              		.loc 2 152 7 view .LVU221
 654 0030 90F82330 		ldrb	r3, [r0, #35]	@ zero_extendqisi2
 152:/mnt/c/Users/31740/Documents/codes/newcore-rp2350/include/linux/libfdt.h **** }
 655              		.loc 2 152 3 view .LVU222
 656 0034 1D43     		orrs	r5, r5, r3
 657              	.LVL52:
 152:/mnt/c/Users/31740/Documents/codes/newcore-rp2350/include/linux/libfdt.h **** }
 658              		.loc 2 152 3 view .LVU223
ARM GAS  /tmp/ccOO9xGx.s 			page 26


 659              	.LBE251:
 660              	.LBE250:
 255:/mnt/c/Users/31740/Documents/codes/newcore-rp2350/lib/fdt/fdt_sw.c **** 	unsigned int struct_top, offset;
 661              		.loc 1 255 2 is_stmt 1 view .LVU224
 255:/mnt/c/Users/31740/Documents/codes/newcore-rp2350/lib/fdt/fdt_sw.c **** 	unsigned int struct_top, offset;
 662              		.loc 1 255 21 is_stmt 0 view .LVU225
 663 0036 0846     		mov	r0, r1
 664              	.LVL53:
 255:/mnt/c/Users/31740/Documents/codes/newcore-rp2350/lib/fdt/fdt_sw.c **** 	unsigned int struct_top, offset;
 665              		.loc 1 255 21 view .LVU226
 666 0038 FFF7FEFF 		bl	strlen
 667              	.LVL54:
 255:/mnt/c/Users/31740/Documents/codes/newcore-rp2350/lib/fdt/fdt_sw.c **** 	unsigned int struct_top, offset;
 668              		.loc 1 255 15 discriminator 1 view .LVU227
 669 003c 421C     		adds	r2, r0, #1
 670              	.LVL55:
 256:/mnt/c/Users/31740/Documents/codes/newcore-rp2350/lib/fdt/fdt_sw.c **** 
 671              		.loc 1 256 2 is_stmt 1 view .LVU228
 258:/mnt/c/Users/31740/Documents/codes/newcore-rp2350/lib/fdt/fdt_sw.c **** 	struct_top = fdt_off_dt_struct(fdt) + fdt_size_dt_struct(fdt);
 672              		.loc 1 258 2 view .LVU229
 258:/mnt/c/Users/31740/Documents/codes/newcore-rp2350/lib/fdt/fdt_sw.c **** 	struct_top = fdt_off_dt_struct(fdt) + fdt_size_dt_struct(fdt);
 673              		.loc 1 258 9 is_stmt 0 view .LVU230
 674 003e 1544     		add	r5, r5, r2
 675              	.LVL56:
 259:/mnt/c/Users/31740/Documents/codes/newcore-rp2350/lib/fdt/fdt_sw.c **** 	if (fdt_totalsize(fdt) - offset < struct_top)
 676              		.loc 1 259 2 is_stmt 1 view .LVU231
 677              	.LBB252:
 678              	.LBI252:
 145:/mnt/c/Users/31740/Documents/codes/newcore-rp2350/include/linux/libfdt.h **** {
 679              		.loc 2 145 24 view .LVU232
 680              	.LBB253:
 147:/mnt/c/Users/31740/Documents/codes/newcore-rp2350/include/linux/libfdt.h **** 
 681              		.loc 2 147 2 view .LVU233
 149:/mnt/c/Users/31740/Documents/codes/newcore-rp2350/include/linux/libfdt.h **** 		| ((uint32_t)bp[1] << 16)
 682              		.loc 2 149 2 view .LVU234
 149:/mnt/c/Users/31740/Documents/codes/newcore-rp2350/include/linux/libfdt.h **** 		| ((uint32_t)bp[1] << 16)
 683              		.loc 2 149 22 is_stmt 0 view .LVU235
 684 0040 237A     		ldrb	r3, [r4, #8]	@ zero_extendqisi2
 150:/mnt/c/Users/31740/Documents/codes/newcore-rp2350/include/linux/libfdt.h **** 		| ((uint32_t)bp[2] << 8)
 685              		.loc 2 150 18 view .LVU236
 686 0042 617A     		ldrb	r1, [r4, #9]	@ zero_extendqisi2
 150:/mnt/c/Users/31740/Documents/codes/newcore-rp2350/include/linux/libfdt.h **** 		| ((uint32_t)bp[2] << 8)
 687              		.loc 2 150 22 view .LVU237
 688 0044 0904     		lsls	r1, r1, #16
 150:/mnt/c/Users/31740/Documents/codes/newcore-rp2350/include/linux/libfdt.h **** 		| ((uint32_t)bp[2] << 8)
 689              		.loc 2 150 3 view .LVU238
 690 0046 41EA0361 		orr	r1, r1, r3, lsl #24
 151:/mnt/c/Users/31740/Documents/codes/newcore-rp2350/include/linux/libfdt.h **** 		| bp[3];
 691              		.loc 2 151 18 view .LVU239
 692 004a A37A     		ldrb	r3, [r4, #10]	@ zero_extendqisi2
 151:/mnt/c/Users/31740/Documents/codes/newcore-rp2350/include/linux/libfdt.h **** 		| bp[3];
 693              		.loc 2 151 3 view .LVU240
 694 004c 41EA0321 		orr	r1, r1, r3, lsl #8
 152:/mnt/c/Users/31740/Documents/codes/newcore-rp2350/include/linux/libfdt.h **** }
 695              		.loc 2 152 7 view .LVU241
 696 0050 E37A     		ldrb	r3, [r4, #11]	@ zero_extendqisi2
 152:/mnt/c/Users/31740/Documents/codes/newcore-rp2350/include/linux/libfdt.h **** }
ARM GAS  /tmp/ccOO9xGx.s 			page 27


 697              		.loc 2 152 3 view .LVU242
 698 0052 1943     		orrs	r1, r1, r3
 699              	.LVL57:
 152:/mnt/c/Users/31740/Documents/codes/newcore-rp2350/include/linux/libfdt.h **** }
 700              		.loc 2 152 3 view .LVU243
 701              	.LBE253:
 702              	.LBE252:
 703              	.LBB254:
 704              	.LBI254:
 145:/mnt/c/Users/31740/Documents/codes/newcore-rp2350/include/linux/libfdt.h **** {
 705              		.loc 2 145 24 is_stmt 1 view .LVU244
 706              	.LBB255:
 147:/mnt/c/Users/31740/Documents/codes/newcore-rp2350/include/linux/libfdt.h **** 
 707              		.loc 2 147 2 view .LVU245
 149:/mnt/c/Users/31740/Documents/codes/newcore-rp2350/include/linux/libfdt.h **** 		| ((uint32_t)bp[1] << 16)
 708              		.loc 2 149 2 view .LVU246
 149:/mnt/c/Users/31740/Documents/codes/newcore-rp2350/include/linux/libfdt.h **** 		| ((uint32_t)bp[1] << 16)
 709              		.loc 2 149 22 is_stmt 0 view .LVU247
 710 0054 94F82400 		ldrb	r0, [r4, #36]	@ zero_extendqisi2
 150:/mnt/c/Users/31740/Documents/codes/newcore-rp2350/include/linux/libfdt.h **** 		| ((uint32_t)bp[2] << 8)
 711              		.loc 2 150 18 view .LVU248
 712 0058 94F82530 		ldrb	r3, [r4, #37]	@ zero_extendqisi2
 150:/mnt/c/Users/31740/Documents/codes/newcore-rp2350/include/linux/libfdt.h **** 		| ((uint32_t)bp[2] << 8)
 713              		.loc 2 150 22 view .LVU249
 714 005c 1B04     		lsls	r3, r3, #16
 150:/mnt/c/Users/31740/Documents/codes/newcore-rp2350/include/linux/libfdt.h **** 		| ((uint32_t)bp[2] << 8)
 715              		.loc 2 150 3 view .LVU250
 716 005e 43EA0063 		orr	r3, r3, r0, lsl #24
 151:/mnt/c/Users/31740/Documents/codes/newcore-rp2350/include/linux/libfdt.h **** 		| bp[3];
 717              		.loc 2 151 18 view .LVU251
 718 0062 94F82600 		ldrb	r0, [r4, #38]	@ zero_extendqisi2
 151:/mnt/c/Users/31740/Documents/codes/newcore-rp2350/include/linux/libfdt.h **** 		| bp[3];
 719              		.loc 2 151 3 view .LVU252
 720 0066 43EA0023 		orr	r3, r3, r0, lsl #8
 152:/mnt/c/Users/31740/Documents/codes/newcore-rp2350/include/linux/libfdt.h **** }
 721              		.loc 2 152 7 view .LVU253
 722 006a 94F82700 		ldrb	r0, [r4, #39]	@ zero_extendqisi2
 152:/mnt/c/Users/31740/Documents/codes/newcore-rp2350/include/linux/libfdt.h **** }
 723              		.loc 2 152 3 view .LVU254
 724 006e 0343     		orrs	r3, r3, r0
 725              	.LVL58:
 152:/mnt/c/Users/31740/Documents/codes/newcore-rp2350/include/linux/libfdt.h **** }
 726              		.loc 2 152 3 view .LVU255
 727              	.LBE255:
 728              	.LBE254:
 259:/mnt/c/Users/31740/Documents/codes/newcore-rp2350/lib/fdt/fdt_sw.c **** 	if (fdt_totalsize(fdt) - offset < struct_top)
 729              		.loc 1 259 13 discriminator 2 view .LVU256
 730 0070 0B44     		add	r3, r3, r1
 731              	.LVL59:
 260:/mnt/c/Users/31740/Documents/codes/newcore-rp2350/lib/fdt/fdt_sw.c **** 		return 0; /* no more room :( */
 732              		.loc 1 260 2 is_stmt 1 view .LVU257
 260:/mnt/c/Users/31740/Documents/codes/newcore-rp2350/lib/fdt/fdt_sw.c **** 		return 0; /* no more room :( */
 733              		.loc 1 260 25 is_stmt 0 discriminator 1 view .LVU258
 734 0072 761B     		subs	r6, r6, r5
 735              	.LVL60:
 260:/mnt/c/Users/31740/Documents/codes/newcore-rp2350/lib/fdt/fdt_sw.c **** 		return 0; /* no more room :( */
 736              		.loc 1 260 5 discriminator 1 view .LVU259
ARM GAS  /tmp/ccOO9xGx.s 			page 28


 737 0074 9E42     		cmp	r6, r3
 738 0076 01D2     		bcs	.L28
 261:/mnt/c/Users/31740/Documents/codes/newcore-rp2350/lib/fdt/fdt_sw.c **** 
 739              		.loc 1 261 10 view .LVU260
 740 0078 0020     		movs	r0, #0
 741              	.LVL61:
 742              	.L24:
 266:/mnt/c/Users/31740/Documents/codes/newcore-rp2350/lib/fdt/fdt_sw.c **** 
 743              		.loc 1 266 1 view .LVU261
 744 007a F8BD     		pop	{r3, r4, r5, r6, r7, pc}
 745              	.LVL62:
 746              	.L28:
 263:/mnt/c/Users/31740/Documents/codes/newcore-rp2350/lib/fdt/fdt_sw.c **** 	fdt_set_size_dt_strings(fdt, strtabsize + len);
 747              		.loc 1 263 2 is_stmt 1 view .LVU262
 748 007c 3946     		mov	r1, r7
 749 007e A019     		adds	r0, r4, r6
 750 0080 FFF7FEFF 		bl	memcpy
 751              	.LVL63:
 264:/mnt/c/Users/31740/Documents/codes/newcore-rp2350/lib/fdt/fdt_sw.c **** 	return -offset;
 752              		.loc 1 264 2 view .LVU263
 753              	.LBB256:
 754              	.LBI256:
 278:/mnt/c/Users/31740/Documents/codes/newcore-rp2350/include/linux/libfdt.h **** fdt_set_hdr_(size_dt_struct)
 755              		.loc 2 278 1 view .LVU264
 756              	.LBB257:
 278:/mnt/c/Users/31740/Documents/codes/newcore-rp2350/include/linux/libfdt.h **** fdt_set_hdr_(size_dt_struct)
 757              		.loc 2 278 1 view .LVU265
 278:/mnt/c/Users/31740/Documents/codes/newcore-rp2350/include/linux/libfdt.h **** fdt_set_hdr_(size_dt_struct)
 758              		.loc 2 278 1 view .LVU266
 759              	.LBB258:
 760              	.LBI258:
  57:/mnt/c/Users/31740/Documents/codes/newcore-rp2350/include/linux/libfdt_env.h **** {
 761              		.loc 3 57 23 view .LVU267
 762              	.LBB259:
 763              		.loc 3 59 2 view .LVU268
 764              		.loc 3 59 28 is_stmt 0 view .LVU269
 765 0084 C5F30723 		ubfx	r3, r5, #8, #8
 766 0088 1B04     		lsls	r3, r3, #16
 767 008a 43EA0563 		orr	r3, r3, r5, lsl #24
 768 008e C5F30742 		ubfx	r2, r5, #16, #8
 769 0092 43EA0223 		orr	r3, r3, r2, lsl #8
 770              		.loc 3 59 9 view .LVU270
 771 0096 43EA1563 		orr	r3, r3, r5, lsr #24
 772              	.LVL64:
 773              		.loc 3 59 9 view .LVU271
 774              	.LBE259:
 775              	.LBE258:
 278:/mnt/c/Users/31740/Documents/codes/newcore-rp2350/include/linux/libfdt.h **** fdt_set_hdr_(size_dt_struct)
 776              		.loc 2 278 1 discriminator 1 view .LVU272
 777 009a 2362     		str	r3, [r4, #32]
 778              	.LVL65:
 278:/mnt/c/Users/31740/Documents/codes/newcore-rp2350/include/linux/libfdt.h **** fdt_set_hdr_(size_dt_struct)
 779              		.loc 2 278 1 discriminator 1 view .LVU273
 780              	.LBE257:
 781              	.LBE256:
 265:/mnt/c/Users/31740/Documents/codes/newcore-rp2350/lib/fdt/fdt_sw.c **** }
 782              		.loc 1 265 2 is_stmt 1 view .LVU274
ARM GAS  /tmp/ccOO9xGx.s 			page 29


 265:/mnt/c/Users/31740/Documents/codes/newcore-rp2350/lib/fdt/fdt_sw.c **** }
 783              		.loc 1 265 9 is_stmt 0 view .LVU275
 784 009c 6842     		rsbs	r0, r5, #0
 785 009e ECE7     		b	.L24
 786              		.cfi_endproc
 787              	.LFE87:
 789              		.section	.text.fdt_find_string_,"ax",%progbits
 790              		.align	1
 791              		.syntax unified
 792              		.thumb
 793              		.thumb_func
 795              	fdt_find_string_:
 796              	.LVL66:
 797              	.LFB67:
  29:/mnt/c/Users/31740/Documents/codes/newcore-rp2350/lib/fdt/libfdt_internal.h **** 	return fdt_find_string_len_(strtab, tabsize, s, strlen(s));
 798              		.loc 4 29 1 is_stmt 1 view -0
 799              		.cfi_startproc
 800              		@ args = 0, pretend = 0, frame = 0
 801              		@ frame_needed = 0, uses_anonymous_args = 0
  29:/mnt/c/Users/31740/Documents/codes/newcore-rp2350/lib/fdt/libfdt_internal.h **** 	return fdt_find_string_len_(strtab, tabsize, s, strlen(s));
 802              		.loc 4 29 1 is_stmt 0 view .LVU277
 803 0000 70B5     		push	{r4, r5, r6, lr}
 804              	.LCFI5:
 805              		.cfi_def_cfa_offset 16
 806              		.cfi_offset 4, -16
 807              		.cfi_offset 5, -12
 808              		.cfi_offset 6, -8
 809              		.cfi_offset 14, -4
 810 0002 0546     		mov	r5, r0
 811 0004 0E46     		mov	r6, r1
 812 0006 1446     		mov	r4, r2
  30:/mnt/c/Users/31740/Documents/codes/newcore-rp2350/lib/fdt/libfdt_internal.h **** }
 813              		.loc 4 30 2 is_stmt 1 view .LVU278
  30:/mnt/c/Users/31740/Documents/codes/newcore-rp2350/lib/fdt/libfdt_internal.h **** }
 814              		.loc 4 30 50 is_stmt 0 view .LVU279
 815 0008 1046     		mov	r0, r2
 816              	.LVL67:
  30:/mnt/c/Users/31740/Documents/codes/newcore-rp2350/lib/fdt/libfdt_internal.h **** }
 817              		.loc 4 30 50 view .LVU280
 818 000a FFF7FEFF 		bl	strlen
 819              	.LVL68:
  30:/mnt/c/Users/31740/Documents/codes/newcore-rp2350/lib/fdt/libfdt_internal.h **** }
 820              		.loc 4 30 50 view .LVU281
 821 000e 0346     		mov	r3, r0
  30:/mnt/c/Users/31740/Documents/codes/newcore-rp2350/lib/fdt/libfdt_internal.h **** }
 822              		.loc 4 30 9 discriminator 1 view .LVU282
 823 0010 2246     		mov	r2, r4
 824 0012 3146     		mov	r1, r6
 825 0014 2846     		mov	r0, r5
 826 0016 FFF7FEFF 		bl	fdt_find_string_len_
 827              	.LVL69:
  31:/mnt/c/Users/31740/Documents/codes/newcore-rp2350/lib/fdt/libfdt_internal.h **** 
 828              		.loc 4 31 1 view .LVU283
 829 001a 70BD     		pop	{r4, r5, r6, pc}
  31:/mnt/c/Users/31740/Documents/codes/newcore-rp2350/lib/fdt/libfdt_internal.h **** 
 830              		.loc 4 31 1 view .LVU284
 831              		.cfi_endproc
ARM GAS  /tmp/ccOO9xGx.s 			page 30


 832              	.LFE67:
 834              		.section	.text.fdt_find_add_string_,"ax",%progbits
 835              		.align	1
 836              		.syntax unified
 837              		.thumb
 838              		.thumb_func
 840              	fdt_find_add_string_:
 841              	.LVL70:
 842              	.LFB89:
 276:/mnt/c/Users/31740/Documents/codes/newcore-rp2350/lib/fdt/fdt_sw.c **** 
 277:/mnt/c/Users/31740/Documents/codes/newcore-rp2350/lib/fdt/fdt_sw.c **** static int fdt_find_add_string_(void *fdt, const char *s, int *allocated)
 278:/mnt/c/Users/31740/Documents/codes/newcore-rp2350/lib/fdt/fdt_sw.c **** {
 843              		.loc 1 278 1 is_stmt 1 view -0
 844              		.cfi_startproc
 845              		@ args = 0, pretend = 0, frame = 0
 846              		@ frame_needed = 0, uses_anonymous_args = 0
 847              		.loc 1 278 1 is_stmt 0 view .LVU286
 848 0000 F8B5     		push	{r3, r4, r5, r6, r7, lr}
 849              	.LCFI6:
 850              		.cfi_def_cfa_offset 24
 851              		.cfi_offset 3, -24
 852              		.cfi_offset 4, -20
 853              		.cfi_offset 5, -16
 854              		.cfi_offset 6, -12
 855              		.cfi_offset 7, -8
 856              		.cfi_offset 14, -4
 857 0002 0546     		mov	r5, r0
 858 0004 0E46     		mov	r6, r1
 859 0006 1746     		mov	r7, r2
 279:/mnt/c/Users/31740/Documents/codes/newcore-rp2350/lib/fdt/fdt_sw.c **** 	char *strtab = (char *)fdt + fdt_totalsize(fdt);
 860              		.loc 1 279 2 is_stmt 1 view .LVU287
 861              	.LVL71:
 862              	.LBB260:
 863              	.LBI260:
 145:/mnt/c/Users/31740/Documents/codes/newcore-rp2350/include/linux/libfdt.h **** {
 864              		.loc 2 145 24 view .LVU288
 865              	.LBB261:
 147:/mnt/c/Users/31740/Documents/codes/newcore-rp2350/include/linux/libfdt.h **** 
 866              		.loc 2 147 2 view .LVU289
 149:/mnt/c/Users/31740/Documents/codes/newcore-rp2350/include/linux/libfdt.h **** 		| ((uint32_t)bp[1] << 16)
 867              		.loc 2 149 2 view .LVU290
 149:/mnt/c/Users/31740/Documents/codes/newcore-rp2350/include/linux/libfdt.h **** 		| ((uint32_t)bp[1] << 16)
 868              		.loc 2 149 22 is_stmt 0 view .LVU291
 869 0008 0379     		ldrb	r3, [r0, #4]	@ zero_extendqisi2
 150:/mnt/c/Users/31740/Documents/codes/newcore-rp2350/include/linux/libfdt.h **** 		| ((uint32_t)bp[2] << 8)
 870              		.loc 2 150 18 view .LVU292
 871 000a 4479     		ldrb	r4, [r0, #5]	@ zero_extendqisi2
 150:/mnt/c/Users/31740/Documents/codes/newcore-rp2350/include/linux/libfdt.h **** 		| ((uint32_t)bp[2] << 8)
 872              		.loc 2 150 22 view .LVU293
 873 000c 2404     		lsls	r4, r4, #16
 150:/mnt/c/Users/31740/Documents/codes/newcore-rp2350/include/linux/libfdt.h **** 		| ((uint32_t)bp[2] << 8)
 874              		.loc 2 150 3 view .LVU294
 875 000e 44EA0364 		orr	r4, r4, r3, lsl #24
 151:/mnt/c/Users/31740/Documents/codes/newcore-rp2350/include/linux/libfdt.h **** 		| bp[3];
 876              		.loc 2 151 18 view .LVU295
 877 0012 8379     		ldrb	r3, [r0, #6]	@ zero_extendqisi2
 151:/mnt/c/Users/31740/Documents/codes/newcore-rp2350/include/linux/libfdt.h **** 		| bp[3];
ARM GAS  /tmp/ccOO9xGx.s 			page 31


 878              		.loc 2 151 3 view .LVU296
 879 0014 44EA0324 		orr	r4, r4, r3, lsl #8
 152:/mnt/c/Users/31740/Documents/codes/newcore-rp2350/include/linux/libfdt.h **** }
 880              		.loc 2 152 7 view .LVU297
 881 0018 C379     		ldrb	r3, [r0, #7]	@ zero_extendqisi2
 152:/mnt/c/Users/31740/Documents/codes/newcore-rp2350/include/linux/libfdt.h **** }
 882              		.loc 2 152 3 view .LVU298
 883 001a 1C43     		orrs	r4, r4, r3
 884              	.LVL72:
 152:/mnt/c/Users/31740/Documents/codes/newcore-rp2350/include/linux/libfdt.h **** }
 885              		.loc 2 152 3 view .LVU299
 886              	.LBE261:
 887              	.LBE260:
 888              		.loc 1 279 8 discriminator 1 view .LVU300
 889 001c 0444     		add	r4, r4, r0
 890              	.LVL73:
 280:/mnt/c/Users/31740/Documents/codes/newcore-rp2350/lib/fdt/fdt_sw.c **** 	int strtabsize = fdt_size_dt_strings(fdt);
 891              		.loc 1 280 2 is_stmt 1 view .LVU301
 892              	.LBB262:
 893              	.LBI262:
 145:/mnt/c/Users/31740/Documents/codes/newcore-rp2350/include/linux/libfdt.h **** {
 894              		.loc 2 145 24 view .LVU302
 895              	.LBB263:
 147:/mnt/c/Users/31740/Documents/codes/newcore-rp2350/include/linux/libfdt.h **** 
 896              		.loc 2 147 2 view .LVU303
 149:/mnt/c/Users/31740/Documents/codes/newcore-rp2350/include/linux/libfdt.h **** 		| ((uint32_t)bp[1] << 16)
 897              		.loc 2 149 2 view .LVU304
 149:/mnt/c/Users/31740/Documents/codes/newcore-rp2350/include/linux/libfdt.h **** 		| ((uint32_t)bp[1] << 16)
 898              		.loc 2 149 22 is_stmt 0 view .LVU305
 899 001e 90F82030 		ldrb	r3, [r0, #32]	@ zero_extendqisi2
 150:/mnt/c/Users/31740/Documents/codes/newcore-rp2350/include/linux/libfdt.h **** 		| ((uint32_t)bp[2] << 8)
 900              		.loc 2 150 18 view .LVU306
 901 0022 90F82100 		ldrb	r0, [r0, #33]	@ zero_extendqisi2
 902              	.LVL74:
 150:/mnt/c/Users/31740/Documents/codes/newcore-rp2350/include/linux/libfdt.h **** 		| ((uint32_t)bp[2] << 8)
 903              		.loc 2 150 22 view .LVU307
 904 0026 0004     		lsls	r0, r0, #16
 150:/mnt/c/Users/31740/Documents/codes/newcore-rp2350/include/linux/libfdt.h **** 		| ((uint32_t)bp[2] << 8)
 905              		.loc 2 150 3 view .LVU308
 906 0028 40EA0360 		orr	r0, r0, r3, lsl #24
 151:/mnt/c/Users/31740/Documents/codes/newcore-rp2350/include/linux/libfdt.h **** 		| bp[3];
 907              		.loc 2 151 18 view .LVU309
 908 002c 95F82230 		ldrb	r3, [r5, #34]	@ zero_extendqisi2
 151:/mnt/c/Users/31740/Documents/codes/newcore-rp2350/include/linux/libfdt.h **** 		| bp[3];
 909              		.loc 2 151 3 view .LVU310
 910 0030 40EA0320 		orr	r0, r0, r3, lsl #8
 152:/mnt/c/Users/31740/Documents/codes/newcore-rp2350/include/linux/libfdt.h **** }
 911              		.loc 2 152 7 view .LVU311
 912 0034 95F82330 		ldrb	r3, [r5, #35]	@ zero_extendqisi2
 152:/mnt/c/Users/31740/Documents/codes/newcore-rp2350/include/linux/libfdt.h **** }
 913              		.loc 2 152 3 view .LVU312
 914 0038 40EA0301 		orr	r1, r0, r3
 915              	.LVL75:
 152:/mnt/c/Users/31740/Documents/codes/newcore-rp2350/include/linux/libfdt.h **** }
 916              		.loc 2 152 3 view .LVU313
 917              	.LBE263:
 918              	.LBE262:
ARM GAS  /tmp/ccOO9xGx.s 			page 32


 281:/mnt/c/Users/31740/Documents/codes/newcore-rp2350/lib/fdt/fdt_sw.c **** 	const char *p;
 919              		.loc 1 281 2 is_stmt 1 view .LVU314
 282:/mnt/c/Users/31740/Documents/codes/newcore-rp2350/lib/fdt/fdt_sw.c **** 
 283:/mnt/c/Users/31740/Documents/codes/newcore-rp2350/lib/fdt/fdt_sw.c **** 	*allocated = 0;
 920              		.loc 1 283 2 view .LVU315
 921              		.loc 1 283 13 is_stmt 0 view .LVU316
 922 003c 0023     		movs	r3, #0
 923 003e 1360     		str	r3, [r2]
 284:/mnt/c/Users/31740/Documents/codes/newcore-rp2350/lib/fdt/fdt_sw.c **** 
 285:/mnt/c/Users/31740/Documents/codes/newcore-rp2350/lib/fdt/fdt_sw.c **** 	p = fdt_find_string_(strtab - strtabsize, strtabsize, s);
 924              		.loc 1 285 2 is_stmt 1 view .LVU317
 925              		.loc 1 285 6 is_stmt 0 view .LVU318
 926 0040 3246     		mov	r2, r6
 927              	.LVL76:
 928              		.loc 1 285 6 view .LVU319
 929 0042 601A     		subs	r0, r4, r1
 930 0044 FFF7FEFF 		bl	fdt_find_string_
 931              	.LVL77:
 286:/mnt/c/Users/31740/Documents/codes/newcore-rp2350/lib/fdt/fdt_sw.c **** 	if (p)
 932              		.loc 1 286 2 is_stmt 1 view .LVU320
 933              		.loc 1 286 5 is_stmt 0 view .LVU321
 934 0048 08B1     		cbz	r0, .L32
 287:/mnt/c/Users/31740/Documents/codes/newcore-rp2350/lib/fdt/fdt_sw.c **** 		return p - strtab;
 935              		.loc 1 287 3 is_stmt 1 view .LVU322
 936              		.loc 1 287 12 is_stmt 0 view .LVU323
 937 004a 001B     		subs	r0, r0, r4
 938              	.LVL78:
 939              	.L31:
 288:/mnt/c/Users/31740/Documents/codes/newcore-rp2350/lib/fdt/fdt_sw.c **** 
 289:/mnt/c/Users/31740/Documents/codes/newcore-rp2350/lib/fdt/fdt_sw.c **** 	*allocated = 1;
 290:/mnt/c/Users/31740/Documents/codes/newcore-rp2350/lib/fdt/fdt_sw.c **** 
 291:/mnt/c/Users/31740/Documents/codes/newcore-rp2350/lib/fdt/fdt_sw.c **** 	return fdt_add_string_(fdt, s);
 292:/mnt/c/Users/31740/Documents/codes/newcore-rp2350/lib/fdt/fdt_sw.c **** }
 940              		.loc 1 292 1 view .LVU324
 941 004c F8BD     		pop	{r3, r4, r5, r6, r7, pc}
 942              	.LVL79:
 943              	.L32:
 289:/mnt/c/Users/31740/Documents/codes/newcore-rp2350/lib/fdt/fdt_sw.c **** 
 944              		.loc 1 289 2 is_stmt 1 view .LVU325
 289:/mnt/c/Users/31740/Documents/codes/newcore-rp2350/lib/fdt/fdt_sw.c **** 
 945              		.loc 1 289 13 is_stmt 0 view .LVU326
 946 004e 0123     		movs	r3, #1
 947 0050 3B60     		str	r3, [r7]
 291:/mnt/c/Users/31740/Documents/codes/newcore-rp2350/lib/fdt/fdt_sw.c **** }
 948              		.loc 1 291 2 is_stmt 1 view .LVU327
 291:/mnt/c/Users/31740/Documents/codes/newcore-rp2350/lib/fdt/fdt_sw.c **** }
 949              		.loc 1 291 9 is_stmt 0 view .LVU328
 950 0052 3146     		mov	r1, r6
 951 0054 2846     		mov	r0, r5
 952              	.LVL80:
 291:/mnt/c/Users/31740/Documents/codes/newcore-rp2350/lib/fdt/fdt_sw.c **** }
 953              		.loc 1 291 9 view .LVU329
 954 0056 FFF7FEFF 		bl	fdt_add_string_
 955              	.LVL81:
 956 005a F7E7     		b	.L31
 957              		.cfi_endproc
 958              	.LFE89:
ARM GAS  /tmp/ccOO9xGx.s 			page 33


 960              		.section	.text.fdt_create_with_flags,"ax",%progbits
 961              		.align	1
 962              		.global	fdt_create_with_flags
 963              		.syntax unified
 964              		.thumb
 965              		.thumb_func
 967              	fdt_create_with_flags:
 968              	.LVL82:
 969              	.LFB80:
 111:/mnt/c/Users/31740/Documents/codes/newcore-rp2350/lib/fdt/fdt_sw.c **** 	const int hdrsize = FDT_ALIGN(sizeof(struct fdt_header),
 970              		.loc 1 111 1 is_stmt 1 view -0
 971              		.cfi_startproc
 972              		@ args = 0, pretend = 0, frame = 0
 973              		@ frame_needed = 0, uses_anonymous_args = 0
 112:/mnt/c/Users/31740/Documents/codes/newcore-rp2350/lib/fdt/fdt_sw.c **** 				      sizeof(struct fdt_reserve_entry));
 974              		.loc 1 112 2 view .LVU331
 114:/mnt/c/Users/31740/Documents/codes/newcore-rp2350/lib/fdt/fdt_sw.c **** 
 975              		.loc 1 114 2 view .LVU332
 116:/mnt/c/Users/31740/Documents/codes/newcore-rp2350/lib/fdt/fdt_sw.c **** 		return -FDT_ERR_NOSPACE;
 976              		.loc 1 116 2 view .LVU333
 116:/mnt/c/Users/31740/Documents/codes/newcore-rp2350/lib/fdt/fdt_sw.c **** 		return -FDT_ERR_NOSPACE;
 977              		.loc 1 116 5 is_stmt 0 view .LVU334
 978 0000 2729     		cmp	r1, #39
 979 0002 2DDD     		ble	.L37
 111:/mnt/c/Users/31740/Documents/codes/newcore-rp2350/lib/fdt/fdt_sw.c **** 	const int hdrsize = FDT_ALIGN(sizeof(struct fdt_header),
 980              		.loc 1 111 1 view .LVU335
 981 0004 70B5     		push	{r4, r5, r6, lr}
 982              	.LCFI7:
 983              		.cfi_def_cfa_offset 16
 984              		.cfi_offset 4, -16
 985              		.cfi_offset 5, -12
 986              		.cfi_offset 6, -8
 987              		.cfi_offset 14, -4
 988 0006 0446     		mov	r4, r0
 989 0008 0D46     		mov	r5, r1
 990 000a 1646     		mov	r6, r2
 119:/mnt/c/Users/31740/Documents/codes/newcore-rp2350/lib/fdt/fdt_sw.c **** 		return -FDT_ERR_BADFLAGS;
 991              		.loc 1 119 2 is_stmt 1 view .LVU336
 119:/mnt/c/Users/31740/Documents/codes/newcore-rp2350/lib/fdt/fdt_sw.c **** 		return -FDT_ERR_BADFLAGS;
 992              		.loc 1 119 5 is_stmt 0 view .LVU337
 993 000c 012A     		cmp	r2, #1
 994 000e 2AD8     		bhi	.L38
 122:/mnt/c/Users/31740/Documents/codes/newcore-rp2350/lib/fdt/fdt_sw.c **** 
 995              		.loc 1 122 2 is_stmt 1 view .LVU338
 996 0010 0A46     		mov	r2, r1
 997              	.LVL83:
 122:/mnt/c/Users/31740/Documents/codes/newcore-rp2350/lib/fdt/fdt_sw.c **** 
 998              		.loc 1 122 2 is_stmt 0 view .LVU339
 999 0012 0021     		movs	r1, #0
 1000              	.LVL84:
 122:/mnt/c/Users/31740/Documents/codes/newcore-rp2350/lib/fdt/fdt_sw.c **** 
 1001              		.loc 1 122 2 view .LVU340
 1002 0014 FFF7FEFF 		bl	memset
 1003              	.LVL85:
 131:/mnt/c/Users/31740/Documents/codes/newcore-rp2350/lib/fdt/fdt_sw.c **** 	fdt_set_version(fdt, FDT_LAST_SUPPORTED_VERSION);
 1004              		.loc 1 131 2 is_stmt 1 view .LVU341
 1005              	.LBB264:
ARM GAS  /tmp/ccOO9xGx.s 			page 34


 1006              	.LBI264:
 270:/mnt/c/Users/31740/Documents/codes/newcore-rp2350/include/linux/libfdt.h **** fdt_set_hdr_(totalsize)
 1007              		.loc 2 270 1 view .LVU342
 1008              	.LBB265:
 270:/mnt/c/Users/31740/Documents/codes/newcore-rp2350/include/linux/libfdt.h **** fdt_set_hdr_(totalsize)
 1009              		.loc 2 270 1 view .LVU343
 270:/mnt/c/Users/31740/Documents/codes/newcore-rp2350/include/linux/libfdt.h **** fdt_set_hdr_(totalsize)
 1010              		.loc 2 270 1 view .LVU344
 270:/mnt/c/Users/31740/Documents/codes/newcore-rp2350/include/linux/libfdt.h **** fdt_set_hdr_(totalsize)
 1011              		.loc 2 270 1 is_stmt 0 discriminator 1 view .LVU345
 1012 0018 144B     		ldr	r3, .L43
 1013 001a 2360     		str	r3, [r4]
 1014              	.LVL86:
 270:/mnt/c/Users/31740/Documents/codes/newcore-rp2350/include/linux/libfdt.h **** fdt_set_hdr_(totalsize)
 1015              		.loc 2 270 1 discriminator 1 view .LVU346
 1016              	.LBE265:
 1017              	.LBE264:
 132:/mnt/c/Users/31740/Documents/codes/newcore-rp2350/lib/fdt/fdt_sw.c **** 	fdt_set_last_comp_version(fdt, flags);
 1018              		.loc 1 132 2 is_stmt 1 view .LVU347
 1019              	.LBB266:
 1020              	.LBI266:
 275:/mnt/c/Users/31740/Documents/codes/newcore-rp2350/include/linux/libfdt.h **** fdt_set_hdr_(last_comp_version)
 1021              		.loc 2 275 1 view .LVU348
 1022              	.LBB267:
 275:/mnt/c/Users/31740/Documents/codes/newcore-rp2350/include/linux/libfdt.h **** fdt_set_hdr_(last_comp_version)
 1023              		.loc 2 275 1 view .LVU349
 275:/mnt/c/Users/31740/Documents/codes/newcore-rp2350/include/linux/libfdt.h **** fdt_set_hdr_(last_comp_version)
 1024              		.loc 2 275 1 view .LVU350
 275:/mnt/c/Users/31740/Documents/codes/newcore-rp2350/include/linux/libfdt.h **** fdt_set_hdr_(last_comp_version)
 1025              		.loc 2 275 1 is_stmt 0 discriminator 1 view .LVU351
 1026 001c 4FF08853 		mov	r3, #285212672
 1027 0020 6361     		str	r3, [r4, #20]
 1028              	.LVL87:
 275:/mnt/c/Users/31740/Documents/codes/newcore-rp2350/include/linux/libfdt.h **** fdt_set_hdr_(last_comp_version)
 1029              		.loc 2 275 1 discriminator 1 view .LVU352
 1030              	.LBE267:
 1031              	.LBE266:
 133:/mnt/c/Users/31740/Documents/codes/newcore-rp2350/lib/fdt/fdt_sw.c **** 
 1032              		.loc 1 133 2 is_stmt 1 view .LVU353
 1033              	.LBB268:
 1034              	.LBI268:
 276:/mnt/c/Users/31740/Documents/codes/newcore-rp2350/include/linux/libfdt.h **** fdt_set_hdr_(boot_cpuid_phys)
 1035              		.loc 2 276 1 view .LVU354
 1036              	.LBB269:
 276:/mnt/c/Users/31740/Documents/codes/newcore-rp2350/include/linux/libfdt.h **** fdt_set_hdr_(boot_cpuid_phys)
 1037              		.loc 2 276 1 view .LVU355
 276:/mnt/c/Users/31740/Documents/codes/newcore-rp2350/include/linux/libfdt.h **** fdt_set_hdr_(boot_cpuid_phys)
 1038              		.loc 2 276 1 view .LVU356
 1039              	.LBB270:
 1040              	.LBI270:
  57:/mnt/c/Users/31740/Documents/codes/newcore-rp2350/include/linux/libfdt_env.h **** {
 1041              		.loc 3 57 23 view .LVU357
 1042              	.LBB271:
 1043              		.loc 3 59 2 view .LVU358
 1044              		.loc 3 59 28 is_stmt 0 view .LVU359
 1045 0022 C6F30723 		ubfx	r3, r6, #8, #8
 1046 0026 1B04     		lsls	r3, r3, #16
ARM GAS  /tmp/ccOO9xGx.s 			page 35


 1047 0028 43EA0663 		orr	r3, r3, r6, lsl #24
 1048 002c C6F30742 		ubfx	r2, r6, #16, #8
 1049 0030 43EA0223 		orr	r3, r3, r2, lsl #8
 1050              		.loc 3 59 9 view .LVU360
 1051 0034 43EA1663 		orr	r3, r3, r6, lsr #24
 1052              	.LVL88:
 1053              		.loc 3 59 9 view .LVU361
 1054              	.LBE271:
 1055              	.LBE270:
 276:/mnt/c/Users/31740/Documents/codes/newcore-rp2350/include/linux/libfdt.h **** fdt_set_hdr_(boot_cpuid_phys)
 1056              		.loc 2 276 1 discriminator 1 view .LVU362
 1057 0038 A361     		str	r3, [r4, #24]
 1058              	.LVL89:
 276:/mnt/c/Users/31740/Documents/codes/newcore-rp2350/include/linux/libfdt.h **** fdt_set_hdr_(boot_cpuid_phys)
 1059              		.loc 2 276 1 discriminator 1 view .LVU363
 1060              	.LBE269:
 1061              	.LBE268:
 135:/mnt/c/Users/31740/Documents/codes/newcore-rp2350/lib/fdt/fdt_sw.c **** 
 1062              		.loc 1 135 2 is_stmt 1 view .LVU364
 1063              	.LBB272:
 1064              	.LBI272:
 271:/mnt/c/Users/31740/Documents/codes/newcore-rp2350/include/linux/libfdt.h **** fdt_set_hdr_(off_dt_struct)
 1065              		.loc 2 271 1 view .LVU365
 1066              	.LBB273:
 271:/mnt/c/Users/31740/Documents/codes/newcore-rp2350/include/linux/libfdt.h **** fdt_set_hdr_(off_dt_struct)
 1067              		.loc 2 271 1 view .LVU366
 271:/mnt/c/Users/31740/Documents/codes/newcore-rp2350/include/linux/libfdt.h **** fdt_set_hdr_(off_dt_struct)
 1068              		.loc 2 271 1 view .LVU367
 1069              	.LBB274:
 1070              	.LBI274:
  57:/mnt/c/Users/31740/Documents/codes/newcore-rp2350/include/linux/libfdt_env.h **** {
 1071              		.loc 3 57 23 view .LVU368
 1072              	.LBB275:
 1073              		.loc 3 59 2 view .LVU369
 1074              		.loc 3 59 28 is_stmt 0 view .LVU370
 1075 003a C5F30723 		ubfx	r3, r5, #8, #8
 1076 003e 1B04     		lsls	r3, r3, #16
 1077 0040 43EA0563 		orr	r3, r3, r5, lsl #24
 1078 0044 C5F30742 		ubfx	r2, r5, #16, #8
 1079 0048 43EA0223 		orr	r3, r3, r2, lsl #8
 1080              		.loc 3 59 9 view .LVU371
 1081 004c 43EA1563 		orr	r3, r3, r5, lsr #24
 1082              	.LVL90:
 1083              		.loc 3 59 9 view .LVU372
 1084              	.LBE275:
 1085              	.LBE274:
 271:/mnt/c/Users/31740/Documents/codes/newcore-rp2350/include/linux/libfdt.h **** fdt_set_hdr_(off_dt_struct)
 1086              		.loc 2 271 1 discriminator 1 view .LVU373
 1087 0050 6360     		str	r3, [r4, #4]
 1088              	.LVL91:
 271:/mnt/c/Users/31740/Documents/codes/newcore-rp2350/include/linux/libfdt.h **** fdt_set_hdr_(off_dt_struct)
 1089              		.loc 2 271 1 discriminator 1 view .LVU374
 1090              	.LBE273:
 1091              	.LBE272:
 137:/mnt/c/Users/31740/Documents/codes/newcore-rp2350/lib/fdt/fdt_sw.c **** 	fdt_set_off_dt_struct(fdt, fdt_off_mem_rsvmap(fdt));
 1092              		.loc 1 137 2 is_stmt 1 view .LVU375
 1093              	.LBB276:
ARM GAS  /tmp/ccOO9xGx.s 			page 36


 1094              	.LBI276:
 274:/mnt/c/Users/31740/Documents/codes/newcore-rp2350/include/linux/libfdt.h **** fdt_set_hdr_(version)
 1095              		.loc 2 274 1 view .LVU376
 1096              	.LBB277:
 274:/mnt/c/Users/31740/Documents/codes/newcore-rp2350/include/linux/libfdt.h **** fdt_set_hdr_(version)
 1097              		.loc 2 274 1 view .LVU377
 274:/mnt/c/Users/31740/Documents/codes/newcore-rp2350/include/linux/libfdt.h **** fdt_set_hdr_(version)
 1098              		.loc 2 274 1 view .LVU378
 274:/mnt/c/Users/31740/Documents/codes/newcore-rp2350/include/linux/libfdt.h **** fdt_set_hdr_(version)
 1099              		.loc 2 274 1 is_stmt 0 discriminator 1 view .LVU379
 1100 0052 4FF02053 		mov	r3, #671088640
 1101 0056 2361     		str	r3, [r4, #16]
 1102              	.LVL92:
 274:/mnt/c/Users/31740/Documents/codes/newcore-rp2350/include/linux/libfdt.h **** fdt_set_hdr_(version)
 1103              		.loc 2 274 1 discriminator 1 view .LVU380
 1104              	.LBE277:
 1105              	.LBE276:
 138:/mnt/c/Users/31740/Documents/codes/newcore-rp2350/lib/fdt/fdt_sw.c **** 	fdt_set_off_dt_strings(fdt, 0);
 1106              		.loc 1 138 2 is_stmt 1 view .LVU381
 1107              	.LBB278:
 1108              	.LBI278:
 272:/mnt/c/Users/31740/Documents/codes/newcore-rp2350/include/linux/libfdt.h **** fdt_set_hdr_(off_dt_strings)
 1109              		.loc 2 272 1 view .LVU382
 1110              	.LBB279:
 272:/mnt/c/Users/31740/Documents/codes/newcore-rp2350/include/linux/libfdt.h **** fdt_set_hdr_(off_dt_strings)
 1111              		.loc 2 272 1 view .LVU383
 272:/mnt/c/Users/31740/Documents/codes/newcore-rp2350/include/linux/libfdt.h **** fdt_set_hdr_(off_dt_strings)
 1112              		.loc 2 272 1 view .LVU384
 272:/mnt/c/Users/31740/Documents/codes/newcore-rp2350/include/linux/libfdt.h **** fdt_set_hdr_(off_dt_strings)
 1113              		.loc 2 272 1 is_stmt 0 discriminator 1 view .LVU385
 1114 0058 A360     		str	r3, [r4, #8]
 1115              	.LVL93:
 272:/mnt/c/Users/31740/Documents/codes/newcore-rp2350/include/linux/libfdt.h **** fdt_set_hdr_(off_dt_strings)
 1116              		.loc 2 272 1 discriminator 1 view .LVU386
 1117              	.LBE279:
 1118              	.LBE278:
 139:/mnt/c/Users/31740/Documents/codes/newcore-rp2350/lib/fdt/fdt_sw.c **** 
 1119              		.loc 1 139 2 is_stmt 1 view .LVU387
 1120              	.LBB280:
 1121              	.LBI280:
 273:/mnt/c/Users/31740/Documents/codes/newcore-rp2350/include/linux/libfdt.h **** fdt_set_hdr_(off_mem_rsvmap)
 1122              		.loc 2 273 1 view .LVU388
 1123              	.LBB281:
 273:/mnt/c/Users/31740/Documents/codes/newcore-rp2350/include/linux/libfdt.h **** fdt_set_hdr_(off_mem_rsvmap)
 1124              		.loc 2 273 1 view .LVU389
 273:/mnt/c/Users/31740/Documents/codes/newcore-rp2350/include/linux/libfdt.h **** fdt_set_hdr_(off_mem_rsvmap)
 1125              		.loc 2 273 1 view .LVU390
 273:/mnt/c/Users/31740/Documents/codes/newcore-rp2350/include/linux/libfdt.h **** fdt_set_hdr_(off_mem_rsvmap)
 1126              		.loc 2 273 1 is_stmt 0 discriminator 1 view .LVU391
 1127 005a 0020     		movs	r0, #0
 1128 005c E060     		str	r0, [r4, #12]
 1129              	.LVL94:
 273:/mnt/c/Users/31740/Documents/codes/newcore-rp2350/include/linux/libfdt.h **** fdt_set_hdr_(off_mem_rsvmap)
 1130              		.loc 2 273 1 discriminator 1 view .LVU392
 1131              	.LBE281:
 1132              	.LBE280:
 141:/mnt/c/Users/31740/Documents/codes/newcore-rp2350/lib/fdt/fdt_sw.c **** }
ARM GAS  /tmp/ccOO9xGx.s 			page 37


 1133              		.loc 1 141 2 is_stmt 1 view .LVU393
 1134              	.L35:
 142:/mnt/c/Users/31740/Documents/codes/newcore-rp2350/lib/fdt/fdt_sw.c **** 
 1135              		.loc 1 142 1 is_stmt 0 view .LVU394
 1136 005e 70BD     		pop	{r4, r5, r6, pc}
 1137              	.LVL95:
 1138              	.L37:
 1139              	.LCFI8:
 1140              		.cfi_def_cfa_offset 0
 1141              		.cfi_restore 4
 1142              		.cfi_restore 5
 1143              		.cfi_restore 6
 1144              		.cfi_restore 14
 117:/mnt/c/Users/31740/Documents/codes/newcore-rp2350/lib/fdt/fdt_sw.c **** 
 1145              		.loc 1 117 10 view .LVU395
 1146 0060 6FF00200 		mvn	r0, #2
 1147              	.LVL96:
 142:/mnt/c/Users/31740/Documents/codes/newcore-rp2350/lib/fdt/fdt_sw.c **** 
 1148              		.loc 1 142 1 view .LVU396
 1149 0064 7047     		bx	lr
 1150              	.LVL97:
 1151              	.L38:
 1152              	.LCFI9:
 1153              		.cfi_def_cfa_offset 16
 1154              		.cfi_offset 4, -16
 1155              		.cfi_offset 5, -12
 1156              		.cfi_offset 6, -8
 1157              		.cfi_offset 14, -4
 120:/mnt/c/Users/31740/Documents/codes/newcore-rp2350/lib/fdt/fdt_sw.c **** 
 1158              		.loc 1 120 10 view .LVU397
 1159 0066 6FF01100 		mvn	r0, #17
 1160              	.LVL98:
 120:/mnt/c/Users/31740/Documents/codes/newcore-rp2350/lib/fdt/fdt_sw.c **** 
 1161              		.loc 1 120 10 view .LVU398
 1162 006a F8E7     		b	.L35
 1163              	.L44:
 1164              		.align	2
 1165              	.L43:
 1166 006c 2FF20112 		.word	302117423
 1167              		.cfi_endproc
 1168              	.LFE80:
 1170              		.section	.text.fdt_create,"ax",%progbits
 1171              		.align	1
 1172              		.global	fdt_create
 1173              		.syntax unified
 1174              		.thumb
 1175              		.thumb_func
 1177              	fdt_create:
 1178              	.LVL99:
 1179              	.LFB81:
 145:/mnt/c/Users/31740/Documents/codes/newcore-rp2350/lib/fdt/fdt_sw.c **** 	return fdt_create_with_flags(buf, bufsize, 0);
 1180              		.loc 1 145 1 is_stmt 1 view -0
 1181              		.cfi_startproc
 1182              		@ args = 0, pretend = 0, frame = 0
 1183              		@ frame_needed = 0, uses_anonymous_args = 0
 145:/mnt/c/Users/31740/Documents/codes/newcore-rp2350/lib/fdt/fdt_sw.c **** 	return fdt_create_with_flags(buf, bufsize, 0);
 1184              		.loc 1 145 1 is_stmt 0 view .LVU400
ARM GAS  /tmp/ccOO9xGx.s 			page 38


 1185 0000 08B5     		push	{r3, lr}
 1186              	.LCFI10:
 1187              		.cfi_def_cfa_offset 8
 1188              		.cfi_offset 3, -8
 1189              		.cfi_offset 14, -4
 146:/mnt/c/Users/31740/Documents/codes/newcore-rp2350/lib/fdt/fdt_sw.c **** }
 1190              		.loc 1 146 2 is_stmt 1 view .LVU401
 146:/mnt/c/Users/31740/Documents/codes/newcore-rp2350/lib/fdt/fdt_sw.c **** }
 1191              		.loc 1 146 9 is_stmt 0 view .LVU402
 1192 0002 0022     		movs	r2, #0
 1193 0004 FFF7FEFF 		bl	fdt_create_with_flags
 1194              	.LVL100:
 147:/mnt/c/Users/31740/Documents/codes/newcore-rp2350/lib/fdt/fdt_sw.c **** 
 1195              		.loc 1 147 1 view .LVU403
 1196 0008 08BD     		pop	{r3, pc}
 1197              		.cfi_endproc
 1198              	.LFE81:
 1200              		.section	.text.fdt_resize,"ax",%progbits
 1201              		.align	1
 1202              		.global	fdt_resize
 1203              		.syntax unified
 1204              		.thumb
 1205              		.thumb_func
 1207              	fdt_resize:
 1208              	.LVL101:
 1209              	.LFB82:
 150:/mnt/c/Users/31740/Documents/codes/newcore-rp2350/lib/fdt/fdt_sw.c **** 	size_t headsize, tailsize;
 1210              		.loc 1 150 1 is_stmt 1 view -0
 1211              		.cfi_startproc
 1212              		@ args = 0, pretend = 0, frame = 0
 1213              		@ frame_needed = 0, uses_anonymous_args = 0
 150:/mnt/c/Users/31740/Documents/codes/newcore-rp2350/lib/fdt/fdt_sw.c **** 	size_t headsize, tailsize;
 1214              		.loc 1 150 1 is_stmt 0 view .LVU405
 1215 0000 2DE9F84F 		push	{r3, r4, r5, r6, r7, r8, r9, r10, fp, lr}
 1216              	.LCFI11:
 1217              		.cfi_def_cfa_offset 40
 1218              		.cfi_offset 3, -40
 1219              		.cfi_offset 4, -36
 1220              		.cfi_offset 5, -32
 1221              		.cfi_offset 6, -28
 1222              		.cfi_offset 7, -24
 1223              		.cfi_offset 8, -20
 1224              		.cfi_offset 9, -16
 1225              		.cfi_offset 10, -12
 1226              		.cfi_offset 11, -8
 1227              		.cfi_offset 14, -4
 1228 0004 0446     		mov	r4, r0
 1229 0006 0F46     		mov	r7, r1
 1230 0008 9046     		mov	r8, r2
 151:/mnt/c/Users/31740/Documents/codes/newcore-rp2350/lib/fdt/fdt_sw.c **** 	char *oldtail, *newtail;
 1231              		.loc 1 151 2 is_stmt 1 view .LVU406
 152:/mnt/c/Users/31740/Documents/codes/newcore-rp2350/lib/fdt/fdt_sw.c **** 
 1232              		.loc 1 152 2 view .LVU407
 1233              	.LBB282:
 154:/mnt/c/Users/31740/Documents/codes/newcore-rp2350/lib/fdt/fdt_sw.c **** 
 1234              		.loc 1 154 2 view .LVU408
 154:/mnt/c/Users/31740/Documents/codes/newcore-rp2350/lib/fdt/fdt_sw.c **** 
ARM GAS  /tmp/ccOO9xGx.s 			page 39


 1235              		.loc 1 154 2 view .LVU409
 1236 000a FFF7FEFF 		bl	fdt_sw_probe_
 1237              	.LVL102:
 154:/mnt/c/Users/31740/Documents/codes/newcore-rp2350/lib/fdt/fdt_sw.c **** 
 1238              		.loc 1 154 2 is_stmt 0 discriminator 1 view .LVU410
 1239 000e 8146     		mov	r9, r0
 1240 0010 0028     		cmp	r0, #0
 1241 0012 63D1     		bne	.L47
 1242              	.LBE282:
 154:/mnt/c/Users/31740/Documents/codes/newcore-rp2350/lib/fdt/fdt_sw.c **** 
 1243              		.loc 1 154 19 is_stmt 1 discriminator 2 view .LVU411
 156:/mnt/c/Users/31740/Documents/codes/newcore-rp2350/lib/fdt/fdt_sw.c **** 		return -FDT_ERR_NOSPACE;
 1244              		.loc 1 156 2 view .LVU412
 156:/mnt/c/Users/31740/Documents/codes/newcore-rp2350/lib/fdt/fdt_sw.c **** 		return -FDT_ERR_NOSPACE;
 1245              		.loc 1 156 5 is_stmt 0 view .LVU413
 1246 0014 B8F1000F 		cmp	r8, #0
 1247 0018 6EDB     		blt	.L51
 159:/mnt/c/Users/31740/Documents/codes/newcore-rp2350/lib/fdt/fdt_sw.c **** 	tailsize = fdt_size_dt_strings(fdt);
 1248              		.loc 1 159 2 is_stmt 1 view .LVU414
 1249              	.LVL103:
 1250              	.LBB283:
 1251              	.LBI283:
 145:/mnt/c/Users/31740/Documents/codes/newcore-rp2350/include/linux/libfdt.h **** {
 1252              		.loc 2 145 24 view .LVU415
 1253              	.LBB284:
 147:/mnt/c/Users/31740/Documents/codes/newcore-rp2350/include/linux/libfdt.h **** 
 1254              		.loc 2 147 2 view .LVU416
 149:/mnt/c/Users/31740/Documents/codes/newcore-rp2350/include/linux/libfdt.h **** 		| ((uint32_t)bp[1] << 16)
 1255              		.loc 2 149 2 view .LVU417
 149:/mnt/c/Users/31740/Documents/codes/newcore-rp2350/include/linux/libfdt.h **** 		| ((uint32_t)bp[1] << 16)
 1256              		.loc 2 149 22 is_stmt 0 view .LVU418
 1257 001a 227A     		ldrb	r2, [r4, #8]	@ zero_extendqisi2
 150:/mnt/c/Users/31740/Documents/codes/newcore-rp2350/include/linux/libfdt.h **** 		| ((uint32_t)bp[2] << 8)
 1258              		.loc 2 150 18 view .LVU419
 1259 001c 637A     		ldrb	r3, [r4, #9]	@ zero_extendqisi2
 150:/mnt/c/Users/31740/Documents/codes/newcore-rp2350/include/linux/libfdt.h **** 		| ((uint32_t)bp[2] << 8)
 1260              		.loc 2 150 22 view .LVU420
 1261 001e 1B04     		lsls	r3, r3, #16
 150:/mnt/c/Users/31740/Documents/codes/newcore-rp2350/include/linux/libfdt.h **** 		| ((uint32_t)bp[2] << 8)
 1262              		.loc 2 150 3 view .LVU421
 1263 0020 43EA0263 		orr	r3, r3, r2, lsl #24
 151:/mnt/c/Users/31740/Documents/codes/newcore-rp2350/include/linux/libfdt.h **** 		| bp[3];
 1264              		.loc 2 151 18 view .LVU422
 1265 0024 A27A     		ldrb	r2, [r4, #10]	@ zero_extendqisi2
 151:/mnt/c/Users/31740/Documents/codes/newcore-rp2350/include/linux/libfdt.h **** 		| bp[3];
 1266              		.loc 2 151 3 view .LVU423
 1267 0026 43EA0223 		orr	r3, r3, r2, lsl #8
 152:/mnt/c/Users/31740/Documents/codes/newcore-rp2350/include/linux/libfdt.h **** }
 1268              		.loc 2 152 7 view .LVU424
 1269 002a E27A     		ldrb	r2, [r4, #11]	@ zero_extendqisi2
 152:/mnt/c/Users/31740/Documents/codes/newcore-rp2350/include/linux/libfdt.h **** }
 1270              		.loc 2 152 3 view .LVU425
 1271 002c 1343     		orrs	r3, r3, r2
 1272              	.LVL104:
 152:/mnt/c/Users/31740/Documents/codes/newcore-rp2350/include/linux/libfdt.h **** }
 1273              		.loc 2 152 3 view .LVU426
 1274              	.LBE284:
ARM GAS  /tmp/ccOO9xGx.s 			page 40


 1275              	.LBE283:
 1276              	.LBB285:
 1277              	.LBI285:
 145:/mnt/c/Users/31740/Documents/codes/newcore-rp2350/include/linux/libfdt.h **** {
 1278              		.loc 2 145 24 is_stmt 1 view .LVU427
 1279              	.LBB286:
 147:/mnt/c/Users/31740/Documents/codes/newcore-rp2350/include/linux/libfdt.h **** 
 1280              		.loc 2 147 2 view .LVU428
 149:/mnt/c/Users/31740/Documents/codes/newcore-rp2350/include/linux/libfdt.h **** 		| ((uint32_t)bp[1] << 16)
 1281              		.loc 2 149 2 view .LVU429
 149:/mnt/c/Users/31740/Documents/codes/newcore-rp2350/include/linux/libfdt.h **** 		| ((uint32_t)bp[1] << 16)
 1282              		.loc 2 149 22 is_stmt 0 view .LVU430
 1283 002e 94F82420 		ldrb	r2, [r4, #36]	@ zero_extendqisi2
 150:/mnt/c/Users/31740/Documents/codes/newcore-rp2350/include/linux/libfdt.h **** 		| ((uint32_t)bp[2] << 8)
 1284              		.loc 2 150 18 view .LVU431
 1285 0032 94F82550 		ldrb	r5, [r4, #37]	@ zero_extendqisi2
 150:/mnt/c/Users/31740/Documents/codes/newcore-rp2350/include/linux/libfdt.h **** 		| ((uint32_t)bp[2] << 8)
 1286              		.loc 2 150 22 view .LVU432
 1287 0036 2D04     		lsls	r5, r5, #16
 150:/mnt/c/Users/31740/Documents/codes/newcore-rp2350/include/linux/libfdt.h **** 		| ((uint32_t)bp[2] << 8)
 1288              		.loc 2 150 3 view .LVU433
 1289 0038 45EA0265 		orr	r5, r5, r2, lsl #24
 151:/mnt/c/Users/31740/Documents/codes/newcore-rp2350/include/linux/libfdt.h **** 		| bp[3];
 1290              		.loc 2 151 18 view .LVU434
 1291 003c 94F82620 		ldrb	r2, [r4, #38]	@ zero_extendqisi2
 151:/mnt/c/Users/31740/Documents/codes/newcore-rp2350/include/linux/libfdt.h **** 		| bp[3];
 1292              		.loc 2 151 3 view .LVU435
 1293 0040 45EA0225 		orr	r5, r5, r2, lsl #8
 152:/mnt/c/Users/31740/Documents/codes/newcore-rp2350/include/linux/libfdt.h **** }
 1294              		.loc 2 152 7 view .LVU436
 1295 0044 94F82720 		ldrb	r2, [r4, #39]	@ zero_extendqisi2
 152:/mnt/c/Users/31740/Documents/codes/newcore-rp2350/include/linux/libfdt.h **** }
 1296              		.loc 2 152 3 view .LVU437
 1297 0048 1543     		orrs	r5, r5, r2
 1298              	.LVL105:
 152:/mnt/c/Users/31740/Documents/codes/newcore-rp2350/include/linux/libfdt.h **** }
 1299              		.loc 2 152 3 view .LVU438
 1300              	.LBE286:
 1301              	.LBE285:
 159:/mnt/c/Users/31740/Documents/codes/newcore-rp2350/lib/fdt/fdt_sw.c **** 	tailsize = fdt_size_dt_strings(fdt);
 1302              		.loc 1 159 11 discriminator 2 view .LVU439
 1303 004a 1D44     		add	r5, r5, r3
 1304              	.LVL106:
 160:/mnt/c/Users/31740/Documents/codes/newcore-rp2350/lib/fdt/fdt_sw.c **** 
 1305              		.loc 1 160 2 is_stmt 1 view .LVU440
 1306              	.LBB287:
 1307              	.LBI287:
 145:/mnt/c/Users/31740/Documents/codes/newcore-rp2350/include/linux/libfdt.h **** {
 1308              		.loc 2 145 24 view .LVU441
 1309              	.LBB288:
 147:/mnt/c/Users/31740/Documents/codes/newcore-rp2350/include/linux/libfdt.h **** 
 1310              		.loc 2 147 2 view .LVU442
 149:/mnt/c/Users/31740/Documents/codes/newcore-rp2350/include/linux/libfdt.h **** 		| ((uint32_t)bp[1] << 16)
 1311              		.loc 2 149 2 view .LVU443
 149:/mnt/c/Users/31740/Documents/codes/newcore-rp2350/include/linux/libfdt.h **** 		| ((uint32_t)bp[1] << 16)
 1312              		.loc 2 149 22 is_stmt 0 view .LVU444
 1313 004c 94F82030 		ldrb	r3, [r4, #32]	@ zero_extendqisi2
ARM GAS  /tmp/ccOO9xGx.s 			page 41


 150:/mnt/c/Users/31740/Documents/codes/newcore-rp2350/include/linux/libfdt.h **** 		| ((uint32_t)bp[2] << 8)
 1314              		.loc 2 150 18 view .LVU445
 1315 0050 94F82160 		ldrb	r6, [r4, #33]	@ zero_extendqisi2
 150:/mnt/c/Users/31740/Documents/codes/newcore-rp2350/include/linux/libfdt.h **** 		| ((uint32_t)bp[2] << 8)
 1316              		.loc 2 150 22 view .LVU446
 1317 0054 3604     		lsls	r6, r6, #16
 150:/mnt/c/Users/31740/Documents/codes/newcore-rp2350/include/linux/libfdt.h **** 		| ((uint32_t)bp[2] << 8)
 1318              		.loc 2 150 3 view .LVU447
 1319 0056 46EA0366 		orr	r6, r6, r3, lsl #24
 151:/mnt/c/Users/31740/Documents/codes/newcore-rp2350/include/linux/libfdt.h **** 		| bp[3];
 1320              		.loc 2 151 18 view .LVU448
 1321 005a 94F82230 		ldrb	r3, [r4, #34]	@ zero_extendqisi2
 151:/mnt/c/Users/31740/Documents/codes/newcore-rp2350/include/linux/libfdt.h **** 		| bp[3];
 1322              		.loc 2 151 3 view .LVU449
 1323 005e 46EA0326 		orr	r6, r6, r3, lsl #8
 152:/mnt/c/Users/31740/Documents/codes/newcore-rp2350/include/linux/libfdt.h **** }
 1324              		.loc 2 152 7 view .LVU450
 1325 0062 94F82330 		ldrb	r3, [r4, #35]	@ zero_extendqisi2
 152:/mnt/c/Users/31740/Documents/codes/newcore-rp2350/include/linux/libfdt.h **** }
 1326              		.loc 2 152 3 view .LVU451
 1327 0066 1E43     		orrs	r6, r6, r3
 1328              	.LVL107:
 152:/mnt/c/Users/31740/Documents/codes/newcore-rp2350/include/linux/libfdt.h **** }
 1329              		.loc 2 152 3 view .LVU452
 1330              	.LBE288:
 1331              	.LBE287:
 162:/mnt/c/Users/31740/Documents/codes/newcore-rp2350/lib/fdt/fdt_sw.c **** 	    headsize + tailsize > fdt_totalsize(fdt))
 1332              		.loc 1 162 2 is_stmt 1 view .LVU453
 163:/mnt/c/Users/31740/Documents/codes/newcore-rp2350/lib/fdt/fdt_sw.c **** 		return -FDT_ERR_INTERNAL;
 1333              		.loc 1 163 15 is_stmt 0 view .LVU454
 1334 0068 AA19     		adds	r2, r5, r6
 1335              	.LVL108:
 1336              	.LBB289:
 1337              	.LBI289:
 145:/mnt/c/Users/31740/Documents/codes/newcore-rp2350/include/linux/libfdt.h **** {
 1338              		.loc 2 145 24 is_stmt 1 view .LVU455
 1339              	.LBB290:
 147:/mnt/c/Users/31740/Documents/codes/newcore-rp2350/include/linux/libfdt.h **** 
 1340              		.loc 2 147 2 view .LVU456
 149:/mnt/c/Users/31740/Documents/codes/newcore-rp2350/include/linux/libfdt.h **** 		| ((uint32_t)bp[1] << 16)
 1341              		.loc 2 149 2 view .LVU457
 149:/mnt/c/Users/31740/Documents/codes/newcore-rp2350/include/linux/libfdt.h **** 		| ((uint32_t)bp[1] << 16)
 1342              		.loc 2 149 22 is_stmt 0 view .LVU458
 1343 006a 2179     		ldrb	r1, [r4, #4]	@ zero_extendqisi2
 150:/mnt/c/Users/31740/Documents/codes/newcore-rp2350/include/linux/libfdt.h **** 		| ((uint32_t)bp[2] << 8)
 1344              		.loc 2 150 18 view .LVU459
 1345 006c 6379     		ldrb	r3, [r4, #5]	@ zero_extendqisi2
 150:/mnt/c/Users/31740/Documents/codes/newcore-rp2350/include/linux/libfdt.h **** 		| ((uint32_t)bp[2] << 8)
 1346              		.loc 2 150 22 view .LVU460
 1347 006e 1B04     		lsls	r3, r3, #16
 150:/mnt/c/Users/31740/Documents/codes/newcore-rp2350/include/linux/libfdt.h **** 		| ((uint32_t)bp[2] << 8)
 1348              		.loc 2 150 3 view .LVU461
 1349 0070 43EA0163 		orr	r3, r3, r1, lsl #24
 151:/mnt/c/Users/31740/Documents/codes/newcore-rp2350/include/linux/libfdt.h **** 		| bp[3];
 1350              		.loc 2 151 18 view .LVU462
 1351 0074 A179     		ldrb	r1, [r4, #6]	@ zero_extendqisi2
 151:/mnt/c/Users/31740/Documents/codes/newcore-rp2350/include/linux/libfdt.h **** 		| bp[3];
ARM GAS  /tmp/ccOO9xGx.s 			page 42


 1352              		.loc 2 151 3 view .LVU463
 1353 0076 43EA0123 		orr	r3, r3, r1, lsl #8
 152:/mnt/c/Users/31740/Documents/codes/newcore-rp2350/include/linux/libfdt.h **** }
 1354              		.loc 2 152 7 view .LVU464
 1355 007a E179     		ldrb	r1, [r4, #7]	@ zero_extendqisi2
 152:/mnt/c/Users/31740/Documents/codes/newcore-rp2350/include/linux/libfdt.h **** }
 1356              		.loc 2 152 3 view .LVU465
 1357 007c 0B43     		orrs	r3, r3, r1
 1358              	.LVL109:
 152:/mnt/c/Users/31740/Documents/codes/newcore-rp2350/include/linux/libfdt.h **** }
 1359              		.loc 2 152 3 view .LVU466
 1360              	.LBE290:
 1361              	.LBE289:
 162:/mnt/c/Users/31740/Documents/codes/newcore-rp2350/lib/fdt/fdt_sw.c **** 	    headsize + tailsize > fdt_totalsize(fdt))
 1362              		.loc 1 162 29 discriminator 1 view .LVU467
 1363 007e 9A42     		cmp	r2, r3
 1364 0080 3DD8     		bhi	.L52
 166:/mnt/c/Users/31740/Documents/codes/newcore-rp2350/lib/fdt/fdt_sw.c **** 		return -FDT_ERR_NOSPACE;
 1365              		.loc 1 166 2 is_stmt 1 view .LVU468
 166:/mnt/c/Users/31740/Documents/codes/newcore-rp2350/lib/fdt/fdt_sw.c **** 		return -FDT_ERR_NOSPACE;
 1366              		.loc 1 166 5 is_stmt 0 view .LVU469
 1367 0082 4245     		cmp	r2, r8
 1368 0084 3ED8     		bhi	.L53
 169:/mnt/c/Users/31740/Documents/codes/newcore-rp2350/lib/fdt/fdt_sw.c **** 	newtail = (char *)buf + bufsize - tailsize;
 1369              		.loc 1 169 2 is_stmt 1 view .LVU470
 1370              	.LVL110:
 169:/mnt/c/Users/31740/Documents/codes/newcore-rp2350/lib/fdt/fdt_sw.c **** 	newtail = (char *)buf + bufsize - tailsize;
 1371              		.loc 1 169 45 is_stmt 0 discriminator 1 view .LVU471
 1372 0086 9B1B     		subs	r3, r3, r6
 169:/mnt/c/Users/31740/Documents/codes/newcore-rp2350/lib/fdt/fdt_sw.c **** 	newtail = (char *)buf + bufsize - tailsize;
 1373              		.loc 1 169 10 discriminator 1 view .LVU472
 1374 0088 04EB030A 		add	r10, r4, r3
 1375              	.LVL111:
 170:/mnt/c/Users/31740/Documents/codes/newcore-rp2350/lib/fdt/fdt_sw.c **** 
 1376              		.loc 1 170 2 is_stmt 1 view .LVU473
 170:/mnt/c/Users/31740/Documents/codes/newcore-rp2350/lib/fdt/fdt_sw.c **** 
 1377              		.loc 1 170 34 is_stmt 0 view .LVU474
 1378 008c A8EB0600 		sub	r0, r8, r6
 1379              	.LVL112:
 170:/mnt/c/Users/31740/Documents/codes/newcore-rp2350/lib/fdt/fdt_sw.c **** 
 1380              		.loc 1 170 10 view .LVU475
 1381 0090 07EB000B 		add	fp, r7, r0
 1382              	.LVL113:
 174:/mnt/c/Users/31740/Documents/codes/newcore-rp2350/lib/fdt/fdt_sw.c **** 		memmove(buf, fdt, headsize);
 1383              		.loc 1 174 2 is_stmt 1 view .LVU476
 174:/mnt/c/Users/31740/Documents/codes/newcore-rp2350/lib/fdt/fdt_sw.c **** 		memmove(buf, fdt, headsize);
 1384              		.loc 1 174 5 is_stmt 0 view .LVU477
 1385 0094 BC42     		cmp	r4, r7
 1386 0096 24D3     		bcc	.L49
 175:/mnt/c/Users/31740/Documents/codes/newcore-rp2350/lib/fdt/fdt_sw.c **** 		memmove(newtail, oldtail, tailsize);
 1387              		.loc 1 175 3 is_stmt 1 view .LVU478
 1388 0098 2A46     		mov	r2, r5
 1389 009a 2146     		mov	r1, r4
 1390 009c 3846     		mov	r0, r7
 1391 009e FFF7FEFF 		bl	memmove
 1392              	.LVL114:
 176:/mnt/c/Users/31740/Documents/codes/newcore-rp2350/lib/fdt/fdt_sw.c **** 	} else {
ARM GAS  /tmp/ccOO9xGx.s 			page 43


 1393              		.loc 1 176 3 view .LVU479
 1394 00a2 3246     		mov	r2, r6
 1395 00a4 5146     		mov	r1, r10
 1396 00a6 5846     		mov	r0, fp
 1397 00a8 FFF7FEFF 		bl	memmove
 1398              	.LVL115:
 1399              	.L50:
 182:/mnt/c/Users/31740/Documents/codes/newcore-rp2350/lib/fdt/fdt_sw.c **** 	if (fdt_off_dt_strings(buf))
 1400              		.loc 1 182 2 view .LVU480
 1401              	.LBB291:
 1402              	.LBI291:
 271:/mnt/c/Users/31740/Documents/codes/newcore-rp2350/include/linux/libfdt.h **** fdt_set_hdr_(off_dt_struct)
 1403              		.loc 2 271 1 view .LVU481
 1404              	.LBB292:
 271:/mnt/c/Users/31740/Documents/codes/newcore-rp2350/include/linux/libfdt.h **** fdt_set_hdr_(off_dt_struct)
 1405              		.loc 2 271 1 view .LVU482
 271:/mnt/c/Users/31740/Documents/codes/newcore-rp2350/include/linux/libfdt.h **** fdt_set_hdr_(off_dt_struct)
 1406              		.loc 2 271 1 view .LVU483
 1407              	.LBB293:
 1408              	.LBI293:
  57:/mnt/c/Users/31740/Documents/codes/newcore-rp2350/include/linux/libfdt_env.h **** {
 1409              		.loc 3 57 23 view .LVU484
 1410              	.LBB294:
 1411              		.loc 3 59 2 view .LVU485
 1412              		.loc 3 59 28 is_stmt 0 view .LVU486
 1413 00ac C8F30723 		ubfx	r3, r8, #8, #8
 1414 00b0 1B04     		lsls	r3, r3, #16
 1415 00b2 43EA0863 		orr	r3, r3, r8, lsl #24
 1416 00b6 C8F30742 		ubfx	r2, r8, #16, #8
 1417 00ba 43EA0223 		orr	r3, r3, r2, lsl #8
 1418              		.loc 3 59 9 view .LVU487
 1419 00be 43EA1863 		orr	r3, r3, r8, lsr #24
 1420              	.LVL116:
 1421              		.loc 3 59 9 view .LVU488
 1422              	.LBE294:
 1423              	.LBE293:
 271:/mnt/c/Users/31740/Documents/codes/newcore-rp2350/include/linux/libfdt.h **** fdt_set_hdr_(off_dt_struct)
 1424              		.loc 2 271 1 discriminator 1 view .LVU489
 1425 00c2 7B60     		str	r3, [r7, #4]
 1426              	.LVL117:
 271:/mnt/c/Users/31740/Documents/codes/newcore-rp2350/include/linux/libfdt.h **** fdt_set_hdr_(off_dt_struct)
 1427              		.loc 2 271 1 discriminator 1 view .LVU490
 1428              	.LBE292:
 1429              	.LBE291:
 183:/mnt/c/Users/31740/Documents/codes/newcore-rp2350/lib/fdt/fdt_sw.c **** 		fdt_set_off_dt_strings(buf, bufsize);
 1430              		.loc 1 183 2 is_stmt 1 view .LVU491
 1431              	.LBB295:
 1432              	.LBI295:
 145:/mnt/c/Users/31740/Documents/codes/newcore-rp2350/include/linux/libfdt.h **** {
 1433              		.loc 2 145 24 view .LVU492
 1434              	.LBB296:
 147:/mnt/c/Users/31740/Documents/codes/newcore-rp2350/include/linux/libfdt.h **** 
 1435              		.loc 2 147 2 view .LVU493
 149:/mnt/c/Users/31740/Documents/codes/newcore-rp2350/include/linux/libfdt.h **** 		| ((uint32_t)bp[1] << 16)
 1436              		.loc 2 149 2 view .LVU494
 149:/mnt/c/Users/31740/Documents/codes/newcore-rp2350/include/linux/libfdt.h **** 		| ((uint32_t)bp[1] << 16)
 1437              		.loc 2 149 22 is_stmt 0 view .LVU495
ARM GAS  /tmp/ccOO9xGx.s 			page 44


 1438 00c4 397B     		ldrb	r1, [r7, #12]	@ zero_extendqisi2
 150:/mnt/c/Users/31740/Documents/codes/newcore-rp2350/include/linux/libfdt.h **** 		| ((uint32_t)bp[2] << 8)
 1439              		.loc 2 150 18 view .LVU496
 1440 00c6 7A7B     		ldrb	r2, [r7, #13]	@ zero_extendqisi2
 150:/mnt/c/Users/31740/Documents/codes/newcore-rp2350/include/linux/libfdt.h **** 		| ((uint32_t)bp[2] << 8)
 1441              		.loc 2 150 22 view .LVU497
 1442 00c8 1204     		lsls	r2, r2, #16
 150:/mnt/c/Users/31740/Documents/codes/newcore-rp2350/include/linux/libfdt.h **** 		| ((uint32_t)bp[2] << 8)
 1443              		.loc 2 150 3 view .LVU498
 1444 00ca 42EA0162 		orr	r2, r2, r1, lsl #24
 151:/mnt/c/Users/31740/Documents/codes/newcore-rp2350/include/linux/libfdt.h **** 		| bp[3];
 1445              		.loc 2 151 18 view .LVU499
 1446 00ce B97B     		ldrb	r1, [r7, #14]	@ zero_extendqisi2
 151:/mnt/c/Users/31740/Documents/codes/newcore-rp2350/include/linux/libfdt.h **** 		| bp[3];
 1447              		.loc 2 151 3 view .LVU500
 1448 00d0 42EA0122 		orr	r2, r2, r1, lsl #8
 152:/mnt/c/Users/31740/Documents/codes/newcore-rp2350/include/linux/libfdt.h **** }
 1449              		.loc 2 152 7 view .LVU501
 1450 00d4 F97B     		ldrb	r1, [r7, #15]	@ zero_extendqisi2
 1451              	.LVL118:
 152:/mnt/c/Users/31740/Documents/codes/newcore-rp2350/include/linux/libfdt.h **** }
 1452              		.loc 2 152 7 view .LVU502
 1453              	.LBE296:
 1454              	.LBE295:
 183:/mnt/c/Users/31740/Documents/codes/newcore-rp2350/lib/fdt/fdt_sw.c **** 		fdt_set_off_dt_strings(buf, bufsize);
 1455              		.loc 1 183 5 discriminator 1 view .LVU503
 1456 00d6 0A43     		orrs	r2, r2, r1
 1457 00d8 00D0     		beq	.L47
 184:/mnt/c/Users/31740/Documents/codes/newcore-rp2350/lib/fdt/fdt_sw.c **** 
 1458              		.loc 1 184 3 is_stmt 1 view .LVU504
 1459              	.LVL119:
 1460              	.LBB297:
 1461              	.LBI297:
 273:/mnt/c/Users/31740/Documents/codes/newcore-rp2350/include/linux/libfdt.h **** fdt_set_hdr_(off_mem_rsvmap)
 1462              		.loc 2 273 1 view .LVU505
 1463              	.LBB298:
 273:/mnt/c/Users/31740/Documents/codes/newcore-rp2350/include/linux/libfdt.h **** fdt_set_hdr_(off_mem_rsvmap)
 1464              		.loc 2 273 1 view .LVU506
 273:/mnt/c/Users/31740/Documents/codes/newcore-rp2350/include/linux/libfdt.h **** fdt_set_hdr_(off_mem_rsvmap)
 1465              		.loc 2 273 1 view .LVU507
 273:/mnt/c/Users/31740/Documents/codes/newcore-rp2350/include/linux/libfdt.h **** fdt_set_hdr_(off_mem_rsvmap)
 1466              		.loc 2 273 1 is_stmt 0 discriminator 1 view .LVU508
 1467 00da FB60     		str	r3, [r7, #12]
 1468              	.LVL120:
 1469              	.L47:
 273:/mnt/c/Users/31740/Documents/codes/newcore-rp2350/include/linux/libfdt.h **** fdt_set_hdr_(off_mem_rsvmap)
 1470              		.loc 2 273 1 discriminator 1 view .LVU509
 1471              	.LBE298:
 1472              	.LBE297:
 187:/mnt/c/Users/31740/Documents/codes/newcore-rp2350/lib/fdt/fdt_sw.c **** 
 1473              		.loc 1 187 1 view .LVU510
 1474 00dc 4846     		mov	r0, r9
 1475 00de BDE8F88F 		pop	{r3, r4, r5, r6, r7, r8, r9, r10, fp, pc}
 1476              	.LVL121:
 1477              	.L49:
 178:/mnt/c/Users/31740/Documents/codes/newcore-rp2350/lib/fdt/fdt_sw.c **** 		memmove(buf, fdt, headsize);
 1478              		.loc 1 178 3 is_stmt 1 view .LVU511
ARM GAS  /tmp/ccOO9xGx.s 			page 45


 1479 00e2 3246     		mov	r2, r6
 1480 00e4 5146     		mov	r1, r10
 1481 00e6 5846     		mov	r0, fp
 1482 00e8 FFF7FEFF 		bl	memmove
 1483              	.LVL122:
 179:/mnt/c/Users/31740/Documents/codes/newcore-rp2350/lib/fdt/fdt_sw.c **** 	}
 1484              		.loc 1 179 3 view .LVU512
 1485 00ec 2A46     		mov	r2, r5
 1486 00ee 2146     		mov	r1, r4
 1487 00f0 3846     		mov	r0, r7
 1488 00f2 FFF7FEFF 		bl	memmove
 1489              	.LVL123:
 1490 00f6 D9E7     		b	.L50
 1491              	.LVL124:
 1492              	.L51:
 157:/mnt/c/Users/31740/Documents/codes/newcore-rp2350/lib/fdt/fdt_sw.c **** 
 1493              		.loc 1 157 10 is_stmt 0 view .LVU513
 1494 00f8 6FF00209 		mvn	r9, #2
 1495 00fc EEE7     		b	.L47
 1496              	.LVL125:
 1497              	.L52:
 164:/mnt/c/Users/31740/Documents/codes/newcore-rp2350/lib/fdt/fdt_sw.c **** 
 1498              		.loc 1 164 10 view .LVU514
 1499 00fe 6FF00C09 		mvn	r9, #12
 1500 0102 EBE7     		b	.L47
 1501              	.L53:
 167:/mnt/c/Users/31740/Documents/codes/newcore-rp2350/lib/fdt/fdt_sw.c **** 
 1502              		.loc 1 167 10 view .LVU515
 1503 0104 6FF00209 		mvn	r9, #2
 1504 0108 E8E7     		b	.L47
 1505              		.cfi_endproc
 1506              	.LFE82:
 1508              		.section	.text.fdt_add_reservemap_entry,"ax",%progbits
 1509              		.align	1
 1510              		.global	fdt_add_reservemap_entry
 1511              		.syntax unified
 1512              		.thumb
 1513              		.thumb_func
 1515              	fdt_add_reservemap_entry:
 1516              	.LVL126:
 1517              	.LFB83:
 190:/mnt/c/Users/31740/Documents/codes/newcore-rp2350/lib/fdt/fdt_sw.c **** 	struct fdt_reserve_entry *re;
 1518              		.loc 1 190 1 is_stmt 1 view -0
 1519              		.cfi_startproc
 1520              		@ args = 0, pretend = 0, frame = 8
 1521              		@ frame_needed = 0, uses_anonymous_args = 0
 190:/mnt/c/Users/31740/Documents/codes/newcore-rp2350/lib/fdt/fdt_sw.c **** 	struct fdt_reserve_entry *re;
 1522              		.loc 1 190 1 is_stmt 0 view .LVU517
 1523 0000 70B5     		push	{r4, r5, r6, lr}
 1524              	.LCFI12:
 1525              		.cfi_def_cfa_offset 16
 1526              		.cfi_offset 4, -16
 1527              		.cfi_offset 5, -12
 1528              		.cfi_offset 6, -8
 1529              		.cfi_offset 14, -4
 1530 0002 82B0     		sub	sp, sp, #8
 1531              	.LCFI13:
ARM GAS  /tmp/ccOO9xGx.s 			page 46


 1532              		.cfi_def_cfa_offset 24
 1533 0004 0446     		mov	r4, r0
 1534 0006 0E46     		mov	r6, r1
 1535 0008 1546     		mov	r5, r2
 191:/mnt/c/Users/31740/Documents/codes/newcore-rp2350/lib/fdt/fdt_sw.c **** 	int offset;
 1536              		.loc 1 191 2 is_stmt 1 view .LVU518
 192:/mnt/c/Users/31740/Documents/codes/newcore-rp2350/lib/fdt/fdt_sw.c **** 
 1537              		.loc 1 192 2 view .LVU519
 1538              	.LBB299:
 194:/mnt/c/Users/31740/Documents/codes/newcore-rp2350/lib/fdt/fdt_sw.c **** 
 1539              		.loc 1 194 2 view .LVU520
 194:/mnt/c/Users/31740/Documents/codes/newcore-rp2350/lib/fdt/fdt_sw.c **** 
 1540              		.loc 1 194 2 view .LVU521
 1541 000a FFF7FEFF 		bl	fdt_sw_probe_memrsv_
 1542              	.LVL127:
 194:/mnt/c/Users/31740/Documents/codes/newcore-rp2350/lib/fdt/fdt_sw.c **** 
 1543              		.loc 1 194 2 is_stmt 0 discriminator 1 view .LVU522
 1544 000e 0028     		cmp	r0, #0
 1545 0010 36D1     		bne	.L55
 1546              	.LBE299:
 194:/mnt/c/Users/31740/Documents/codes/newcore-rp2350/lib/fdt/fdt_sw.c **** 
 1547              		.loc 1 194 26 is_stmt 1 discriminator 2 view .LVU523
 196:/mnt/c/Users/31740/Documents/codes/newcore-rp2350/lib/fdt/fdt_sw.c **** 	if ((offset + sizeof(*re)) > fdt_totalsize(fdt))
 1548              		.loc 1 196 2 view .LVU524
 1549              	.LVL128:
 1550              	.LBB300:
 1551              	.LBI300:
 145:/mnt/c/Users/31740/Documents/codes/newcore-rp2350/include/linux/libfdt.h **** {
 1552              		.loc 2 145 24 view .LVU525
 1553              	.LBB301:
 147:/mnt/c/Users/31740/Documents/codes/newcore-rp2350/include/linux/libfdt.h **** 
 1554              		.loc 2 147 2 view .LVU526
 149:/mnt/c/Users/31740/Documents/codes/newcore-rp2350/include/linux/libfdt.h **** 		| ((uint32_t)bp[1] << 16)
 1555              		.loc 2 149 2 view .LVU527
 149:/mnt/c/Users/31740/Documents/codes/newcore-rp2350/include/linux/libfdt.h **** 		| ((uint32_t)bp[1] << 16)
 1556              		.loc 2 149 22 is_stmt 0 view .LVU528
 1557 0012 227A     		ldrb	r2, [r4, #8]	@ zero_extendqisi2
 150:/mnt/c/Users/31740/Documents/codes/newcore-rp2350/include/linux/libfdt.h **** 		| ((uint32_t)bp[2] << 8)
 1558              		.loc 2 150 18 view .LVU529
 1559 0014 637A     		ldrb	r3, [r4, #9]	@ zero_extendqisi2
 150:/mnt/c/Users/31740/Documents/codes/newcore-rp2350/include/linux/libfdt.h **** 		| ((uint32_t)bp[2] << 8)
 1560              		.loc 2 150 22 view .LVU530
 1561 0016 1B04     		lsls	r3, r3, #16
 150:/mnt/c/Users/31740/Documents/codes/newcore-rp2350/include/linux/libfdt.h **** 		| ((uint32_t)bp[2] << 8)
 1562              		.loc 2 150 3 view .LVU531
 1563 0018 43EA0263 		orr	r3, r3, r2, lsl #24
 151:/mnt/c/Users/31740/Documents/codes/newcore-rp2350/include/linux/libfdt.h **** 		| bp[3];
 1564              		.loc 2 151 18 view .LVU532
 1565 001c A27A     		ldrb	r2, [r4, #10]	@ zero_extendqisi2
 151:/mnt/c/Users/31740/Documents/codes/newcore-rp2350/include/linux/libfdt.h **** 		| bp[3];
 1566              		.loc 2 151 3 view .LVU533
 1567 001e 43EA0223 		orr	r3, r3, r2, lsl #8
 152:/mnt/c/Users/31740/Documents/codes/newcore-rp2350/include/linux/libfdt.h **** }
 1568              		.loc 2 152 7 view .LVU534
 1569 0022 E27A     		ldrb	r2, [r4, #11]	@ zero_extendqisi2
 152:/mnt/c/Users/31740/Documents/codes/newcore-rp2350/include/linux/libfdt.h **** }
 1570              		.loc 2 152 3 view .LVU535
ARM GAS  /tmp/ccOO9xGx.s 			page 47


 1571 0024 1343     		orrs	r3, r3, r2
 1572              	.LVL129:
 152:/mnt/c/Users/31740/Documents/codes/newcore-rp2350/include/linux/libfdt.h **** }
 1573              		.loc 2 152 3 view .LVU536
 1574              	.LBE301:
 1575              	.LBE300:
 197:/mnt/c/Users/31740/Documents/codes/newcore-rp2350/lib/fdt/fdt_sw.c **** 		return -FDT_ERR_NOSPACE;
 1576              		.loc 1 197 2 is_stmt 1 view .LVU537
 197:/mnt/c/Users/31740/Documents/codes/newcore-rp2350/lib/fdt/fdt_sw.c **** 		return -FDT_ERR_NOSPACE;
 1577              		.loc 1 197 14 is_stmt 0 view .LVU538
 1578 0026 03F1080C 		add	ip, r3, #8
 1579              	.LVL130:
 1580              	.LBB302:
 1581              	.LBI302:
 145:/mnt/c/Users/31740/Documents/codes/newcore-rp2350/include/linux/libfdt.h **** {
 1582              		.loc 2 145 24 is_stmt 1 view .LVU539
 1583              	.LBB303:
 147:/mnt/c/Users/31740/Documents/codes/newcore-rp2350/include/linux/libfdt.h **** 
 1584              		.loc 2 147 2 view .LVU540
 149:/mnt/c/Users/31740/Documents/codes/newcore-rp2350/include/linux/libfdt.h **** 		| ((uint32_t)bp[1] << 16)
 1585              		.loc 2 149 2 view .LVU541
 149:/mnt/c/Users/31740/Documents/codes/newcore-rp2350/include/linux/libfdt.h **** 		| ((uint32_t)bp[1] << 16)
 1586              		.loc 2 149 22 is_stmt 0 view .LVU542
 1587 002a 2179     		ldrb	r1, [r4, #4]	@ zero_extendqisi2
 150:/mnt/c/Users/31740/Documents/codes/newcore-rp2350/include/linux/libfdt.h **** 		| ((uint32_t)bp[2] << 8)
 1588              		.loc 2 150 18 view .LVU543
 1589 002c 6279     		ldrb	r2, [r4, #5]	@ zero_extendqisi2
 150:/mnt/c/Users/31740/Documents/codes/newcore-rp2350/include/linux/libfdt.h **** 		| ((uint32_t)bp[2] << 8)
 1590              		.loc 2 150 22 view .LVU544
 1591 002e 1204     		lsls	r2, r2, #16
 150:/mnt/c/Users/31740/Documents/codes/newcore-rp2350/include/linux/libfdt.h **** 		| ((uint32_t)bp[2] << 8)
 1592              		.loc 2 150 3 view .LVU545
 1593 0030 42EA0162 		orr	r2, r2, r1, lsl #24
 151:/mnt/c/Users/31740/Documents/codes/newcore-rp2350/include/linux/libfdt.h **** 		| bp[3];
 1594              		.loc 2 151 18 view .LVU546
 1595 0034 A179     		ldrb	r1, [r4, #6]	@ zero_extendqisi2
 151:/mnt/c/Users/31740/Documents/codes/newcore-rp2350/include/linux/libfdt.h **** 		| bp[3];
 1596              		.loc 2 151 3 view .LVU547
 1597 0036 42EA0122 		orr	r2, r2, r1, lsl #8
 152:/mnt/c/Users/31740/Documents/codes/newcore-rp2350/include/linux/libfdt.h **** }
 1598              		.loc 2 152 7 view .LVU548
 1599 003a E179     		ldrb	r1, [r4, #7]	@ zero_extendqisi2
 152:/mnt/c/Users/31740/Documents/codes/newcore-rp2350/include/linux/libfdt.h **** }
 1600              		.loc 2 152 3 view .LVU549
 1601 003c 0A43     		orrs	r2, r2, r1
 1602              	.LVL131:
 152:/mnt/c/Users/31740/Documents/codes/newcore-rp2350/include/linux/libfdt.h **** }
 1603              		.loc 2 152 3 view .LVU550
 1604              	.LBE303:
 1605              	.LBE302:
 197:/mnt/c/Users/31740/Documents/codes/newcore-rp2350/lib/fdt/fdt_sw.c **** 		return -FDT_ERR_NOSPACE;
 1606              		.loc 1 197 5 discriminator 1 view .LVU551
 1607 003e 9445     		cmp	ip, r2
 1608 0040 20D8     		bhi	.L57
 200:/mnt/c/Users/31740/Documents/codes/newcore-rp2350/lib/fdt/fdt_sw.c **** 	re->address = cpu_to_fdt64(addr);
 1609              		.loc 1 200 2 is_stmt 1 view .LVU552
 200:/mnt/c/Users/31740/Documents/codes/newcore-rp2350/lib/fdt/fdt_sw.c **** 	re->address = cpu_to_fdt64(addr);
ARM GAS  /tmp/ccOO9xGx.s 			page 48


 1610              		.loc 1 200 5 is_stmt 0 view .LVU553
 1611 0042 E218     		adds	r2, r4, r3
 1612              	.LVL132:
 201:/mnt/c/Users/31740/Documents/codes/newcore-rp2350/lib/fdt/fdt_sw.c **** 	re->size = cpu_to_fdt64(size);
 1613              		.loc 1 201 2 is_stmt 1 view .LVU554
 1614              	.LBB304:
 1615              	.LBI304:
  60:/mnt/c/Users/31740/Documents/codes/newcore-rp2350/include/linux/libfdt_env.h **** }
  61:/mnt/c/Users/31740/Documents/codes/newcore-rp2350/include/linux/libfdt_env.h **** 
  62:/mnt/c/Users/31740/Documents/codes/newcore-rp2350/include/linux/libfdt_env.h **** static inline uint64_t fdt64_to_cpu(fdt64_t x)
  63:/mnt/c/Users/31740/Documents/codes/newcore-rp2350/include/linux/libfdt_env.h **** {
  64:/mnt/c/Users/31740/Documents/codes/newcore-rp2350/include/linux/libfdt_env.h **** 	return (FDT_FORCE uint64_t)CPU_TO_FDT64(x);
  65:/mnt/c/Users/31740/Documents/codes/newcore-rp2350/include/linux/libfdt_env.h **** }
  66:/mnt/c/Users/31740/Documents/codes/newcore-rp2350/include/linux/libfdt_env.h **** static inline fdt64_t cpu_to_fdt64(uint64_t x)
 1616              		.loc 3 66 23 view .LVU555
 1617              	.LBB305:
  67:/mnt/c/Users/31740/Documents/codes/newcore-rp2350/include/linux/libfdt_env.h **** {
  68:/mnt/c/Users/31740/Documents/codes/newcore-rp2350/include/linux/libfdt_env.h **** 	return (FDT_FORCE fdt64_t)CPU_TO_FDT64(x);
 1618              		.loc 3 68 2 view .LVU556
 1619              		.loc 3 68 28 is_stmt 0 view .LVU557
 1620 0044 0196     		str	r6, [sp, #4]
 1621 0046 9DF80860 		ldrb	r6, [sp, #8]	@ zero_extendqisi2
 1622              	.LVL133:
 1623              		.loc 3 68 28 view .LVU558
 1624 004a 9DF80910 		ldrb	r1, [sp, #9]	@ zero_extendqisi2
 1625 004e 0904     		lsls	r1, r1, #16
 1626 0050 41EA0661 		orr	r1, r1, r6, lsl #24
 1627 0054 9DF80A60 		ldrb	r6, [sp, #10]	@ zero_extendqisi2
 1628 0058 41EA0621 		orr	r1, r1, r6, lsl #8
 1629 005c 9DF80B60 		ldrb	r6, [sp, #11]	@ zero_extendqisi2
 1630              		.loc 3 68 9 view .LVU559
 1631 0060 3143     		orrs	r1, r1, r6
 1632              	.LVL134:
 1633              		.loc 3 68 9 view .LVU560
 1634              	.LBE305:
 1635              	.LBE304:
 201:/mnt/c/Users/31740/Documents/codes/newcore-rp2350/lib/fdt/fdt_sw.c **** 	re->size = cpu_to_fdt64(size);
 1636              		.loc 1 201 14 discriminator 1 view .LVU561
 1637 0062 E150     		str	r1, [r4, r3]
 1638              	.LVL135:
 202:/mnt/c/Users/31740/Documents/codes/newcore-rp2350/lib/fdt/fdt_sw.c **** 
 1639              		.loc 1 202 2 is_stmt 1 view .LVU562
 1640              	.LBB306:
 1641              	.LBI306:
  66:/mnt/c/Users/31740/Documents/codes/newcore-rp2350/include/linux/libfdt_env.h **** {
 1642              		.loc 3 66 23 view .LVU563
 1643              	.LBB307:
 1644              		.loc 3 68 2 view .LVU564
 1645              		.loc 3 68 28 is_stmt 0 view .LVU565
 1646 0064 0195     		str	r5, [sp, #4]
 1647              	.LVL136:
 1648              		.loc 3 68 28 view .LVU566
 1649              	.LBE307:
 1650              	.LBE306:
 202:/mnt/c/Users/31740/Documents/codes/newcore-rp2350/lib/fdt/fdt_sw.c **** 
 1651              		.loc 1 202 11 discriminator 1 view .LVU567
 1652 0066 5160     		str	r1, [r2, #4]
ARM GAS  /tmp/ccOO9xGx.s 			page 49


 204:/mnt/c/Users/31740/Documents/codes/newcore-rp2350/lib/fdt/fdt_sw.c **** 
 1653              		.loc 1 204 2 is_stmt 1 view .LVU568
 1654              	.LVL137:
 1655              	.LBB308:
 1656              	.LBI308:
 272:/mnt/c/Users/31740/Documents/codes/newcore-rp2350/include/linux/libfdt.h **** fdt_set_hdr_(off_dt_strings)
 1657              		.loc 2 272 1 view .LVU569
 1658              	.LBB309:
 272:/mnt/c/Users/31740/Documents/codes/newcore-rp2350/include/linux/libfdt.h **** fdt_set_hdr_(off_dt_strings)
 1659              		.loc 2 272 1 view .LVU570
 272:/mnt/c/Users/31740/Documents/codes/newcore-rp2350/include/linux/libfdt.h **** fdt_set_hdr_(off_dt_strings)
 1660              		.loc 2 272 1 view .LVU571
 1661              	.LBB310:
 1662              	.LBI310:
  57:/mnt/c/Users/31740/Documents/codes/newcore-rp2350/include/linux/libfdt_env.h **** {
 1663              		.loc 3 57 23 view .LVU572
 1664              	.LBB311:
  59:/mnt/c/Users/31740/Documents/codes/newcore-rp2350/include/linux/libfdt_env.h **** }
 1665              		.loc 3 59 2 view .LVU573
  59:/mnt/c/Users/31740/Documents/codes/newcore-rp2350/include/linux/libfdt_env.h **** }
 1666              		.loc 3 59 28 is_stmt 0 view .LVU574
 1667 0068 CCF30723 		ubfx	r3, ip, #8, #8
 1668              	.LVL138:
  59:/mnt/c/Users/31740/Documents/codes/newcore-rp2350/include/linux/libfdt_env.h **** }
 1669              		.loc 3 59 28 view .LVU575
 1670 006c 1B04     		lsls	r3, r3, #16
 1671 006e 43EA0C63 		orr	r3, r3, ip, lsl #24
 1672 0072 CCF30742 		ubfx	r2, ip, #16, #8
 1673              	.LVL139:
  59:/mnt/c/Users/31740/Documents/codes/newcore-rp2350/include/linux/libfdt_env.h **** }
 1674              		.loc 3 59 28 view .LVU576
 1675 0076 43EA0223 		orr	r3, r3, r2, lsl #8
  59:/mnt/c/Users/31740/Documents/codes/newcore-rp2350/include/linux/libfdt_env.h **** }
 1676              		.loc 3 59 9 view .LVU577
 1677 007a 43EA1C63 		orr	r3, r3, ip, lsr #24
 1678              	.LVL140:
  59:/mnt/c/Users/31740/Documents/codes/newcore-rp2350/include/linux/libfdt_env.h **** }
 1679              		.loc 3 59 9 view .LVU578
 1680              	.LBE311:
 1681              	.LBE310:
 272:/mnt/c/Users/31740/Documents/codes/newcore-rp2350/include/linux/libfdt.h **** fdt_set_hdr_(off_dt_strings)
 1682              		.loc 2 272 1 discriminator 1 view .LVU579
 1683 007e A360     		str	r3, [r4, #8]
 1684              	.LVL141:
 272:/mnt/c/Users/31740/Documents/codes/newcore-rp2350/include/linux/libfdt.h **** fdt_set_hdr_(off_dt_strings)
 1685              		.loc 2 272 1 discriminator 1 view .LVU580
 1686              	.LBE309:
 1687              	.LBE308:
 206:/mnt/c/Users/31740/Documents/codes/newcore-rp2350/lib/fdt/fdt_sw.c **** }
 1688              		.loc 1 206 2 is_stmt 1 view .LVU581
 1689              	.L55:
 207:/mnt/c/Users/31740/Documents/codes/newcore-rp2350/lib/fdt/fdt_sw.c **** 
 1690              		.loc 1 207 1 is_stmt 0 view .LVU582
 1691 0080 02B0     		add	sp, sp, #8
 1692              	.LCFI14:
 1693              		.cfi_remember_state
 1694              		.cfi_def_cfa_offset 16
ARM GAS  /tmp/ccOO9xGx.s 			page 50


 1695              		@ sp needed
 1696 0082 70BD     		pop	{r4, r5, r6, pc}
 1697              	.LVL142:
 1698              	.L57:
 1699              	.LCFI15:
 1700              		.cfi_restore_state
 198:/mnt/c/Users/31740/Documents/codes/newcore-rp2350/lib/fdt/fdt_sw.c **** 
 1701              		.loc 1 198 10 view .LVU583
 1702 0084 6FF00200 		mvn	r0, #2
 1703 0088 FAE7     		b	.L55
 1704              		.cfi_endproc
 1705              	.LFE83:
 1707              		.section	.text.fdt_finish_reservemap,"ax",%progbits
 1708              		.align	1
 1709              		.global	fdt_finish_reservemap
 1710              		.syntax unified
 1711              		.thumb
 1712              		.thumb_func
 1714              	fdt_finish_reservemap:
 1715              	.LVL143:
 1716              	.LFB84:
 210:/mnt/c/Users/31740/Documents/codes/newcore-rp2350/lib/fdt/fdt_sw.c **** 	int err = fdt_add_reservemap_entry(fdt, 0, 0);
 1717              		.loc 1 210 1 is_stmt 1 view -0
 1718              		.cfi_startproc
 1719              		@ args = 0, pretend = 0, frame = 0
 1720              		@ frame_needed = 0, uses_anonymous_args = 0
 210:/mnt/c/Users/31740/Documents/codes/newcore-rp2350/lib/fdt/fdt_sw.c **** 	int err = fdt_add_reservemap_entry(fdt, 0, 0);
 1721              		.loc 1 210 1 is_stmt 0 view .LVU585
 1722 0000 10B5     		push	{r4, lr}
 1723              	.LCFI16:
 1724              		.cfi_def_cfa_offset 8
 1725              		.cfi_offset 4, -8
 1726              		.cfi_offset 14, -4
 1727 0002 0446     		mov	r4, r0
 211:/mnt/c/Users/31740/Documents/codes/newcore-rp2350/lib/fdt/fdt_sw.c **** 
 1728              		.loc 1 211 2 is_stmt 1 view .LVU586
 211:/mnt/c/Users/31740/Documents/codes/newcore-rp2350/lib/fdt/fdt_sw.c **** 
 1729              		.loc 1 211 12 is_stmt 0 view .LVU587
 1730 0004 0022     		movs	r2, #0
 1731 0006 1146     		mov	r1, r2
 1732 0008 FFF7FEFF 		bl	fdt_add_reservemap_entry
 1733              	.LVL144:
 213:/mnt/c/Users/31740/Documents/codes/newcore-rp2350/lib/fdt/fdt_sw.c **** 		return err;
 1734              		.loc 1 213 2 is_stmt 1 view .LVU588
 213:/mnt/c/Users/31740/Documents/codes/newcore-rp2350/lib/fdt/fdt_sw.c **** 		return err;
 1735              		.loc 1 213 5 is_stmt 0 view .LVU589
 1736 000c 50B9     		cbnz	r0, .L59
 216:/mnt/c/Users/31740/Documents/codes/newcore-rp2350/lib/fdt/fdt_sw.c **** 	return 0;
 1737              		.loc 1 216 2 is_stmt 1 view .LVU590
 1738              	.LVL145:
 1739              	.LBB312:
 1740              	.LBI312:
 145:/mnt/c/Users/31740/Documents/codes/newcore-rp2350/include/linux/libfdt.h **** {
 1741              		.loc 2 145 24 view .LVU591
 1742              	.LBB313:
 147:/mnt/c/Users/31740/Documents/codes/newcore-rp2350/include/linux/libfdt.h **** 
 1743              		.loc 2 147 2 view .LVU592
ARM GAS  /tmp/ccOO9xGx.s 			page 51


 149:/mnt/c/Users/31740/Documents/codes/newcore-rp2350/include/linux/libfdt.h **** 		| ((uint32_t)bp[1] << 16)
 1744              		.loc 2 149 2 view .LVU593
 150:/mnt/c/Users/31740/Documents/codes/newcore-rp2350/include/linux/libfdt.h **** 		| ((uint32_t)bp[2] << 8)
 1745              		.loc 2 150 18 is_stmt 0 view .LVU594
 1746 000e 6279     		ldrb	r2, [r4, #5]	@ zero_extendqisi2
 151:/mnt/c/Users/31740/Documents/codes/newcore-rp2350/include/linux/libfdt.h **** 		| bp[3];
 1747              		.loc 2 151 18 view .LVU595
 1748 0010 A379     		ldrb	r3, [r4, #6]	@ zero_extendqisi2
 152:/mnt/c/Users/31740/Documents/codes/newcore-rp2350/include/linux/libfdt.h **** }
 1749              		.loc 2 152 7 view .LVU596
 1750 0012 E179     		ldrb	r1, [r4, #7]	@ zero_extendqisi2
 1751              	.LVL146:
 152:/mnt/c/Users/31740/Documents/codes/newcore-rp2350/include/linux/libfdt.h **** }
 1752              		.loc 2 152 7 view .LVU597
 1753              	.LBE313:
 1754              	.LBE312:
 1755              	.LBB314:
 1756              	.LBI314:
 273:/mnt/c/Users/31740/Documents/codes/newcore-rp2350/include/linux/libfdt.h **** fdt_set_hdr_(off_mem_rsvmap)
 1757              		.loc 2 273 1 is_stmt 1 view .LVU598
 1758              	.LBB315:
 273:/mnt/c/Users/31740/Documents/codes/newcore-rp2350/include/linux/libfdt.h **** fdt_set_hdr_(off_mem_rsvmap)
 1759              		.loc 2 273 1 view .LVU599
 273:/mnt/c/Users/31740/Documents/codes/newcore-rp2350/include/linux/libfdt.h **** fdt_set_hdr_(off_mem_rsvmap)
 1760              		.loc 2 273 1 view .LVU600
 1761              	.LBB316:
 1762              	.LBI316:
  57:/mnt/c/Users/31740/Documents/codes/newcore-rp2350/include/linux/libfdt_env.h **** {
 1763              		.loc 3 57 23 view .LVU601
 1764              	.LBB317:
  59:/mnt/c/Users/31740/Documents/codes/newcore-rp2350/include/linux/libfdt_env.h **** }
 1765              		.loc 3 59 2 view .LVU602
  59:/mnt/c/Users/31740/Documents/codes/newcore-rp2350/include/linux/libfdt_env.h **** }
 1766              		.loc 3 59 28 is_stmt 0 view .LVU603
 1767 0014 1B04     		lsls	r3, r3, #16
 1768              	.LVL147:
  59:/mnt/c/Users/31740/Documents/codes/newcore-rp2350/include/linux/libfdt_env.h **** }
 1769              		.loc 3 59 28 view .LVU604
 1770 0016 43EA0163 		orr	r3, r3, r1, lsl #24
 1771 001a 43EA0223 		orr	r3, r3, r2, lsl #8
 1772 001e 2279     		ldrb	r2, [r4, #4]	@ zero_extendqisi2
 1773              	.LVL148:
  59:/mnt/c/Users/31740/Documents/codes/newcore-rp2350/include/linux/libfdt_env.h **** }
 1774              		.loc 3 59 9 view .LVU605
 1775 0020 1343     		orrs	r3, r3, r2
 1776              	.LVL149:
  59:/mnt/c/Users/31740/Documents/codes/newcore-rp2350/include/linux/libfdt_env.h **** }
 1777              		.loc 3 59 9 view .LVU606
 1778              	.LBE317:
 1779              	.LBE316:
 273:/mnt/c/Users/31740/Documents/codes/newcore-rp2350/include/linux/libfdt.h **** fdt_set_hdr_(off_mem_rsvmap)
 1780              		.loc 2 273 1 discriminator 1 view .LVU607
 1781 0022 E360     		str	r3, [r4, #12]
 1782              	.LVL150:
 273:/mnt/c/Users/31740/Documents/codes/newcore-rp2350/include/linux/libfdt.h **** fdt_set_hdr_(off_mem_rsvmap)
 1783              		.loc 2 273 1 discriminator 1 view .LVU608
 1784              	.LBE315:
ARM GAS  /tmp/ccOO9xGx.s 			page 52


 1785              	.LBE314:
 217:/mnt/c/Users/31740/Documents/codes/newcore-rp2350/lib/fdt/fdt_sw.c **** }
 1786              		.loc 1 217 2 is_stmt 1 view .LVU609
 1787              	.L59:
 218:/mnt/c/Users/31740/Documents/codes/newcore-rp2350/lib/fdt/fdt_sw.c **** 
 1788              		.loc 1 218 1 is_stmt 0 view .LVU610
 1789 0024 10BD     		pop	{r4, pc}
 218:/mnt/c/Users/31740/Documents/codes/newcore-rp2350/lib/fdt/fdt_sw.c **** 
 1790              		.loc 1 218 1 view .LVU611
 1791              		.cfi_endproc
 1792              	.LFE84:
 1794              		.section	.text.fdt_begin_node,"ax",%progbits
 1795              		.align	1
 1796              		.global	fdt_begin_node
 1797              		.syntax unified
 1798              		.thumb
 1799              		.thumb_func
 1801              	fdt_begin_node:
 1802              	.LVL151:
 1803              	.LFB85:
 221:/mnt/c/Users/31740/Documents/codes/newcore-rp2350/lib/fdt/fdt_sw.c **** 	struct fdt_node_header *nh;
 1804              		.loc 1 221 1 is_stmt 1 view -0
 1805              		.cfi_startproc
 1806              		@ args = 0, pretend = 0, frame = 0
 1807              		@ frame_needed = 0, uses_anonymous_args = 0
 221:/mnt/c/Users/31740/Documents/codes/newcore-rp2350/lib/fdt/fdt_sw.c **** 	struct fdt_node_header *nh;
 1808              		.loc 1 221 1 is_stmt 0 view .LVU613
 1809 0000 F8B5     		push	{r3, r4, r5, r6, r7, lr}
 1810              	.LCFI17:
 1811              		.cfi_def_cfa_offset 24
 1812              		.cfi_offset 3, -24
 1813              		.cfi_offset 4, -20
 1814              		.cfi_offset 5, -16
 1815              		.cfi_offset 6, -12
 1816              		.cfi_offset 7, -8
 1817              		.cfi_offset 14, -4
 1818 0002 0546     		mov	r5, r0
 1819 0004 0C46     		mov	r4, r1
 222:/mnt/c/Users/31740/Documents/codes/newcore-rp2350/lib/fdt/fdt_sw.c **** 	int namelen;
 1820              		.loc 1 222 2 is_stmt 1 view .LVU614
 223:/mnt/c/Users/31740/Documents/codes/newcore-rp2350/lib/fdt/fdt_sw.c **** 
 1821              		.loc 1 223 2 view .LVU615
 1822              	.LBB318:
 225:/mnt/c/Users/31740/Documents/codes/newcore-rp2350/lib/fdt/fdt_sw.c **** 
 1823              		.loc 1 225 2 view .LVU616
 225:/mnt/c/Users/31740/Documents/codes/newcore-rp2350/lib/fdt/fdt_sw.c **** 
 1824              		.loc 1 225 2 view .LVU617
 1825 0006 FFF7FEFF 		bl	fdt_sw_probe_struct_
 1826              	.LVL152:
 225:/mnt/c/Users/31740/Documents/codes/newcore-rp2350/lib/fdt/fdt_sw.c **** 
 1827              		.loc 1 225 2 is_stmt 0 discriminator 1 view .LVU618
 1828 000a 0646     		mov	r6, r0
 1829 000c 08B1     		cbz	r0, .L66
 1830              	.LVL153:
 1831              	.L62:
 225:/mnt/c/Users/31740/Documents/codes/newcore-rp2350/lib/fdt/fdt_sw.c **** 
 1832              		.loc 1 225 2 discriminator 1 view .LVU619
ARM GAS  /tmp/ccOO9xGx.s 			page 53


 1833              	.LBE318:
 235:/mnt/c/Users/31740/Documents/codes/newcore-rp2350/lib/fdt/fdt_sw.c **** 
 1834              		.loc 1 235 1 view .LVU620
 1835 000e 3046     		mov	r0, r6
 1836 0010 F8BD     		pop	{r3, r4, r5, r6, r7, pc}
 1837              	.LVL154:
 1838              	.L66:
 225:/mnt/c/Users/31740/Documents/codes/newcore-rp2350/lib/fdt/fdt_sw.c **** 
 1839              		.loc 1 225 26 is_stmt 1 discriminator 2 view .LVU621
 227:/mnt/c/Users/31740/Documents/codes/newcore-rp2350/lib/fdt/fdt_sw.c **** 	nh = fdt_grab_space_(fdt, sizeof(*nh) + FDT_TAGALIGN(namelen));
 1840              		.loc 1 227 2 view .LVU622
 227:/mnt/c/Users/31740/Documents/codes/newcore-rp2350/lib/fdt/fdt_sw.c **** 	nh = fdt_grab_space_(fdt, sizeof(*nh) + FDT_TAGALIGN(namelen));
 1841              		.loc 1 227 12 is_stmt 0 view .LVU623
 1842 0012 2046     		mov	r0, r4
 1843              	.LVL155:
 227:/mnt/c/Users/31740/Documents/codes/newcore-rp2350/lib/fdt/fdt_sw.c **** 	nh = fdt_grab_space_(fdt, sizeof(*nh) + FDT_TAGALIGN(namelen));
 1844              		.loc 1 227 12 view .LVU624
 1845 0014 FFF7FEFF 		bl	strlen
 1846              	.LVL156:
 227:/mnt/c/Users/31740/Documents/codes/newcore-rp2350/lib/fdt/fdt_sw.c **** 	nh = fdt_grab_space_(fdt, sizeof(*nh) + FDT_TAGALIGN(namelen));
 1847              		.loc 1 227 25 discriminator 1 view .LVU625
 1848 0018 471C     		adds	r7, r0, #1
 1849              	.LVL157:
 228:/mnt/c/Users/31740/Documents/codes/newcore-rp2350/lib/fdt/fdt_sw.c **** 	if (! nh)
 1850              		.loc 1 228 2 is_stmt 1 view .LVU626
 228:/mnt/c/Users/31740/Documents/codes/newcore-rp2350/lib/fdt/fdt_sw.c **** 	if (! nh)
 1851              		.loc 1 228 42 is_stmt 0 view .LVU627
 1852 001a 031D     		adds	r3, r0, #4
 1853 001c 23F00303 		bic	r3, r3, #3
 228:/mnt/c/Users/31740/Documents/codes/newcore-rp2350/lib/fdt/fdt_sw.c **** 	if (! nh)
 1854              		.loc 1 228 7 view .LVU628
 1855 0020 191D     		adds	r1, r3, #4
 1856 0022 2846     		mov	r0, r5
 1857 0024 FFF7FEFF 		bl	fdt_grab_space_
 1858              	.LVL158:
 229:/mnt/c/Users/31740/Documents/codes/newcore-rp2350/lib/fdt/fdt_sw.c **** 		return -FDT_ERR_NOSPACE;
 1859              		.loc 1 229 2 is_stmt 1 view .LVU629
 229:/mnt/c/Users/31740/Documents/codes/newcore-rp2350/lib/fdt/fdt_sw.c **** 		return -FDT_ERR_NOSPACE;
 1860              		.loc 1 229 5 is_stmt 0 view .LVU630
 1861 0028 40B1     		cbz	r0, .L64
 232:/mnt/c/Users/31740/Documents/codes/newcore-rp2350/lib/fdt/fdt_sw.c **** 	memcpy(nh->name, name, namelen);
 1862              		.loc 1 232 2 is_stmt 1 view .LVU631
 232:/mnt/c/Users/31740/Documents/codes/newcore-rp2350/lib/fdt/fdt_sw.c **** 	memcpy(nh->name, name, namelen);
 1863              		.loc 1 232 10 is_stmt 0 discriminator 1 view .LVU632
 1864 002a 4FF08073 		mov	r3, #16777216
 1865 002e 40F8043B 		str	r3, [r0], #4
 1866              	.LVL159:
 233:/mnt/c/Users/31740/Documents/codes/newcore-rp2350/lib/fdt/fdt_sw.c **** 	return 0;
 1867              		.loc 1 233 2 is_stmt 1 view .LVU633
 1868 0032 3A46     		mov	r2, r7
 1869 0034 2146     		mov	r1, r4
 1870 0036 FFF7FEFF 		bl	memcpy
 1871              	.LVL160:
 234:/mnt/c/Users/31740/Documents/codes/newcore-rp2350/lib/fdt/fdt_sw.c **** }
 1872              		.loc 1 234 2 view .LVU634
 234:/mnt/c/Users/31740/Documents/codes/newcore-rp2350/lib/fdt/fdt_sw.c **** }
 1873              		.loc 1 234 9 is_stmt 0 view .LVU635
ARM GAS  /tmp/ccOO9xGx.s 			page 54


 1874 003a E8E7     		b	.L62
 1875              	.LVL161:
 1876              	.L64:
 230:/mnt/c/Users/31740/Documents/codes/newcore-rp2350/lib/fdt/fdt_sw.c **** 
 1877              		.loc 1 230 10 view .LVU636
 1878 003c 6FF00206 		mvn	r6, #2
 1879              	.LVL162:
 230:/mnt/c/Users/31740/Documents/codes/newcore-rp2350/lib/fdt/fdt_sw.c **** 
 1880              		.loc 1 230 10 view .LVU637
 1881 0040 E5E7     		b	.L62
 1882              		.cfi_endproc
 1883              	.LFE85:
 1885              		.section	.text.fdt_end_node,"ax",%progbits
 1886              		.align	1
 1887              		.global	fdt_end_node
 1888              		.syntax unified
 1889              		.thumb
 1890              		.thumb_func
 1892              	fdt_end_node:
 1893              	.LVL163:
 1894              	.LFB86:
 238:/mnt/c/Users/31740/Documents/codes/newcore-rp2350/lib/fdt/fdt_sw.c **** 	fdt32_t *en;
 1895              		.loc 1 238 1 is_stmt 1 view -0
 1896              		.cfi_startproc
 1897              		@ args = 0, pretend = 0, frame = 0
 1898              		@ frame_needed = 0, uses_anonymous_args = 0
 238:/mnt/c/Users/31740/Documents/codes/newcore-rp2350/lib/fdt/fdt_sw.c **** 	fdt32_t *en;
 1899              		.loc 1 238 1 is_stmt 0 view .LVU639
 1900 0000 38B5     		push	{r3, r4, r5, lr}
 1901              	.LCFI18:
 1902              		.cfi_def_cfa_offset 16
 1903              		.cfi_offset 3, -16
 1904              		.cfi_offset 4, -12
 1905              		.cfi_offset 5, -8
 1906              		.cfi_offset 14, -4
 1907 0002 0446     		mov	r4, r0
 239:/mnt/c/Users/31740/Documents/codes/newcore-rp2350/lib/fdt/fdt_sw.c **** 
 1908              		.loc 1 239 2 is_stmt 1 view .LVU640
 1909              	.LBB319:
 241:/mnt/c/Users/31740/Documents/codes/newcore-rp2350/lib/fdt/fdt_sw.c **** 
 1910              		.loc 1 241 2 view .LVU641
 241:/mnt/c/Users/31740/Documents/codes/newcore-rp2350/lib/fdt/fdt_sw.c **** 
 1911              		.loc 1 241 2 view .LVU642
 1912 0004 FFF7FEFF 		bl	fdt_sw_probe_struct_
 1913              	.LVL164:
 241:/mnt/c/Users/31740/Documents/codes/newcore-rp2350/lib/fdt/fdt_sw.c **** 
 1914              		.loc 1 241 2 is_stmt 0 discriminator 1 view .LVU643
 1915 0008 0546     		mov	r5, r0
 1916 000a 08B1     		cbz	r0, .L71
 1917              	.LVL165:
 1918              	.L67:
 241:/mnt/c/Users/31740/Documents/codes/newcore-rp2350/lib/fdt/fdt_sw.c **** 
 1919              		.loc 1 241 2 discriminator 1 view .LVU644
 1920              	.LBE319:
 249:/mnt/c/Users/31740/Documents/codes/newcore-rp2350/lib/fdt/fdt_sw.c **** 
 1921              		.loc 1 249 1 view .LVU645
 1922 000c 2846     		mov	r0, r5
ARM GAS  /tmp/ccOO9xGx.s 			page 55


 1923 000e 38BD     		pop	{r3, r4, r5, pc}
 1924              	.LVL166:
 1925              	.L71:
 241:/mnt/c/Users/31740/Documents/codes/newcore-rp2350/lib/fdt/fdt_sw.c **** 
 1926              		.loc 1 241 26 is_stmt 1 discriminator 2 view .LVU646
 243:/mnt/c/Users/31740/Documents/codes/newcore-rp2350/lib/fdt/fdt_sw.c **** 	if (! en)
 1927              		.loc 1 243 2 view .LVU647
 243:/mnt/c/Users/31740/Documents/codes/newcore-rp2350/lib/fdt/fdt_sw.c **** 	if (! en)
 1928              		.loc 1 243 7 is_stmt 0 view .LVU648
 1929 0010 0421     		movs	r1, #4
 1930 0012 2046     		mov	r0, r4
 1931              	.LVL167:
 243:/mnt/c/Users/31740/Documents/codes/newcore-rp2350/lib/fdt/fdt_sw.c **** 	if (! en)
 1932              		.loc 1 243 7 view .LVU649
 1933 0014 FFF7FEFF 		bl	fdt_grab_space_
 1934              	.LVL168:
 244:/mnt/c/Users/31740/Documents/codes/newcore-rp2350/lib/fdt/fdt_sw.c **** 		return -FDT_ERR_NOSPACE;
 1935              		.loc 1 244 2 is_stmt 1 view .LVU650
 244:/mnt/c/Users/31740/Documents/codes/newcore-rp2350/lib/fdt/fdt_sw.c **** 		return -FDT_ERR_NOSPACE;
 1936              		.loc 1 244 5 is_stmt 0 view .LVU651
 1937 0018 18B1     		cbz	r0, .L69
 247:/mnt/c/Users/31740/Documents/codes/newcore-rp2350/lib/fdt/fdt_sw.c **** 	return 0;
 1938              		.loc 1 247 2 is_stmt 1 view .LVU652
 247:/mnt/c/Users/31740/Documents/codes/newcore-rp2350/lib/fdt/fdt_sw.c **** 	return 0;
 1939              		.loc 1 247 6 is_stmt 0 discriminator 1 view .LVU653
 1940 001a 4FF00072 		mov	r2, #33554432
 1941 001e 0260     		str	r2, [r0]
 248:/mnt/c/Users/31740/Documents/codes/newcore-rp2350/lib/fdt/fdt_sw.c **** }
 1942              		.loc 1 248 2 is_stmt 1 view .LVU654
 248:/mnt/c/Users/31740/Documents/codes/newcore-rp2350/lib/fdt/fdt_sw.c **** }
 1943              		.loc 1 248 9 is_stmt 0 view .LVU655
 1944 0020 F4E7     		b	.L67
 1945              	.L69:
 245:/mnt/c/Users/31740/Documents/codes/newcore-rp2350/lib/fdt/fdt_sw.c **** 
 1946              		.loc 1 245 10 view .LVU656
 1947 0022 6FF00205 		mvn	r5, #2
 1948              	.LVL169:
 245:/mnt/c/Users/31740/Documents/codes/newcore-rp2350/lib/fdt/fdt_sw.c **** 
 1949              		.loc 1 245 10 view .LVU657
 1950 0026 F1E7     		b	.L67
 1951              		.cfi_endproc
 1952              	.LFE86:
 1954              		.section	.text.fdt_property_placeholder,"ax",%progbits
 1955              		.align	1
 1956              		.global	fdt_property_placeholder
 1957              		.syntax unified
 1958              		.thumb
 1959              		.thumb_func
 1961              	fdt_property_placeholder:
 1962              	.LVL170:
 1963              	.LFB90:
 293:/mnt/c/Users/31740/Documents/codes/newcore-rp2350/lib/fdt/fdt_sw.c **** 
 294:/mnt/c/Users/31740/Documents/codes/newcore-rp2350/lib/fdt/fdt_sw.c **** int fdt_property_placeholder(void *fdt, const char *name, int len, void **valp)
 295:/mnt/c/Users/31740/Documents/codes/newcore-rp2350/lib/fdt/fdt_sw.c **** {
 1964              		.loc 1 295 1 is_stmt 1 view -0
 1965              		.cfi_startproc
 1966              		@ args = 0, pretend = 0, frame = 8
ARM GAS  /tmp/ccOO9xGx.s 			page 56


 1967              		@ frame_needed = 0, uses_anonymous_args = 0
 1968              		.loc 1 295 1 is_stmt 0 view .LVU659
 1969 0000 2DE9F043 		push	{r4, r5, r6, r7, r8, r9, lr}
 1970              	.LCFI19:
 1971              		.cfi_def_cfa_offset 28
 1972              		.cfi_offset 4, -28
 1973              		.cfi_offset 5, -24
 1974              		.cfi_offset 6, -20
 1975              		.cfi_offset 7, -16
 1976              		.cfi_offset 8, -12
 1977              		.cfi_offset 9, -8
 1978              		.cfi_offset 14, -4
 1979 0004 83B0     		sub	sp, sp, #12
 1980              	.LCFI20:
 1981              		.cfi_def_cfa_offset 40
 1982 0006 8046     		mov	r8, r0
 1983 0008 8946     		mov	r9, r1
 1984 000a 1646     		mov	r6, r2
 1985 000c 1C46     		mov	r4, r3
 296:/mnt/c/Users/31740/Documents/codes/newcore-rp2350/lib/fdt/fdt_sw.c **** 	struct fdt_property *prop;
 1986              		.loc 1 296 2 is_stmt 1 view .LVU660
 297:/mnt/c/Users/31740/Documents/codes/newcore-rp2350/lib/fdt/fdt_sw.c **** 	int nameoff;
 1987              		.loc 1 297 2 view .LVU661
 298:/mnt/c/Users/31740/Documents/codes/newcore-rp2350/lib/fdt/fdt_sw.c **** 	int allocated;
 1988              		.loc 1 298 2 view .LVU662
 1989              	.LBB320:
 299:/mnt/c/Users/31740/Documents/codes/newcore-rp2350/lib/fdt/fdt_sw.c **** 
 300:/mnt/c/Users/31740/Documents/codes/newcore-rp2350/lib/fdt/fdt_sw.c **** 	FDT_SW_PROBE_STRUCT(fdt);
 1990              		.loc 1 300 2 view .LVU663
 1991              		.loc 1 300 2 view .LVU664
 1992 000e FFF7FEFF 		bl	fdt_sw_probe_struct_
 1993              	.LVL171:
 1994              		.loc 1 300 2 is_stmt 0 discriminator 1 view .LVU665
 1995 0012 0546     		mov	r5, r0
 1996 0014 98BB     		cbnz	r0, .L72
 1997              	.LBE320:
 1998              		.loc 1 300 26 is_stmt 1 discriminator 2 view .LVU666
 301:/mnt/c/Users/31740/Documents/codes/newcore-rp2350/lib/fdt/fdt_sw.c **** 
 302:/mnt/c/Users/31740/Documents/codes/newcore-rp2350/lib/fdt/fdt_sw.c **** 	/* String de-duplication can be slow, _NO_NAME_DEDUP skips it */
 303:/mnt/c/Users/31740/Documents/codes/newcore-rp2350/lib/fdt/fdt_sw.c **** 	if (sw_flags(fdt) & FDT_CREATE_FLAG_NO_NAME_DEDUP) {
 1999              		.loc 1 303 2 view .LVU667
 2000              	.LVL172:
 2001              	.LBB321:
 2002              	.LBI321:
  84:/mnt/c/Users/31740/Documents/codes/newcore-rp2350/lib/fdt/fdt_sw.c **** {
 2003              		.loc 1 84 24 view .LVU668
  87:/mnt/c/Users/31740/Documents/codes/newcore-rp2350/lib/fdt/fdt_sw.c **** }
 2004              		.loc 1 87 2 view .LVU669
 2005              	.LBB322:
 2006              	.LBI322:
 145:/mnt/c/Users/31740/Documents/codes/newcore-rp2350/include/linux/libfdt.h **** {
 2007              		.loc 2 145 24 view .LVU670
 2008              	.LBB323:
 147:/mnt/c/Users/31740/Documents/codes/newcore-rp2350/include/linux/libfdt.h **** 
 2009              		.loc 2 147 2 view .LVU671
 149:/mnt/c/Users/31740/Documents/codes/newcore-rp2350/include/linux/libfdt.h **** 		| ((uint32_t)bp[1] << 16)
 2010              		.loc 2 149 2 view .LVU672
ARM GAS  /tmp/ccOO9xGx.s 			page 57


 152:/mnt/c/Users/31740/Documents/codes/newcore-rp2350/include/linux/libfdt.h **** }
 2011              		.loc 2 152 7 is_stmt 0 view .LVU673
 2012 0016 98F81B30 		ldrb	r3, [r8, #27]	@ zero_extendqisi2
 2013              	.LVL173:
 152:/mnt/c/Users/31740/Documents/codes/newcore-rp2350/include/linux/libfdt.h **** }
 2014              		.loc 2 152 7 view .LVU674
 2015              	.LBE323:
 2016              	.LBE322:
 2017              	.LBE321:
 2018              		.loc 1 303 5 discriminator 1 view .LVU675
 2019 001a 13F0010F 		tst	r3, #1
 2020 001e 32D0     		beq	.L74
 304:/mnt/c/Users/31740/Documents/codes/newcore-rp2350/lib/fdt/fdt_sw.c **** 		allocated = 1;
 2021              		.loc 1 304 3 is_stmt 1 view .LVU676
 2022              		.loc 1 304 13 is_stmt 0 view .LVU677
 2023 0020 0123     		movs	r3, #1
 2024 0022 0193     		str	r3, [sp, #4]
 305:/mnt/c/Users/31740/Documents/codes/newcore-rp2350/lib/fdt/fdt_sw.c **** 		nameoff = fdt_add_string_(fdt, name);
 2025              		.loc 1 305 3 is_stmt 1 view .LVU678
 2026              		.loc 1 305 13 is_stmt 0 view .LVU679
 2027 0024 4946     		mov	r1, r9
 2028 0026 4046     		mov	r0, r8
 2029              	.LVL174:
 2030              		.loc 1 305 13 view .LVU680
 2031 0028 FFF7FEFF 		bl	fdt_add_string_
 2032              	.LVL175:
 2033 002c 0746     		mov	r7, r0
 2034              	.LVL176:
 2035              	.L75:
 306:/mnt/c/Users/31740/Documents/codes/newcore-rp2350/lib/fdt/fdt_sw.c **** 	} else {
 307:/mnt/c/Users/31740/Documents/codes/newcore-rp2350/lib/fdt/fdt_sw.c **** 		nameoff = fdt_find_add_string_(fdt, name, &allocated);
 308:/mnt/c/Users/31740/Documents/codes/newcore-rp2350/lib/fdt/fdt_sw.c **** 	}
 309:/mnt/c/Users/31740/Documents/codes/newcore-rp2350/lib/fdt/fdt_sw.c **** 	if (nameoff == 0)
 2036              		.loc 1 309 2 is_stmt 1 view .LVU681
 2037              		.loc 1 309 5 is_stmt 0 view .LVU682
 2038 002e 002F     		cmp	r7, #0
 2039 0030 3AD0     		beq	.L78
 310:/mnt/c/Users/31740/Documents/codes/newcore-rp2350/lib/fdt/fdt_sw.c **** 		return -FDT_ERR_NOSPACE;
 311:/mnt/c/Users/31740/Documents/codes/newcore-rp2350/lib/fdt/fdt_sw.c **** 
 312:/mnt/c/Users/31740/Documents/codes/newcore-rp2350/lib/fdt/fdt_sw.c **** 	prop = fdt_grab_space_(fdt, sizeof(*prop) + FDT_TAGALIGN(len));
 2040              		.loc 1 312 2 is_stmt 1 view .LVU683
 2041              		.loc 1 312 46 is_stmt 0 view .LVU684
 2042 0032 F11C     		adds	r1, r6, #3
 2043 0034 21F00301 		bic	r1, r1, #3
 2044              		.loc 1 312 9 view .LVU685
 2045 0038 0C31     		adds	r1, r1, #12
 2046 003a 4046     		mov	r0, r8
 2047              	.LVL177:
 2048              		.loc 1 312 9 view .LVU686
 2049 003c FFF7FEFF 		bl	fdt_grab_space_
 2050              	.LVL178:
 313:/mnt/c/Users/31740/Documents/codes/newcore-rp2350/lib/fdt/fdt_sw.c **** 	if (! prop) {
 2051              		.loc 1 313 2 is_stmt 1 view .LVU687
 2052              		.loc 1 313 5 is_stmt 0 view .LVU688
 2053 0040 40B3     		cbz	r0, .L80
 314:/mnt/c/Users/31740/Documents/codes/newcore-rp2350/lib/fdt/fdt_sw.c **** 		if (allocated)
 315:/mnt/c/Users/31740/Documents/codes/newcore-rp2350/lib/fdt/fdt_sw.c **** 			fdt_del_last_string_(fdt, name);
ARM GAS  /tmp/ccOO9xGx.s 			page 58


 316:/mnt/c/Users/31740/Documents/codes/newcore-rp2350/lib/fdt/fdt_sw.c **** 		return -FDT_ERR_NOSPACE;
 317:/mnt/c/Users/31740/Documents/codes/newcore-rp2350/lib/fdt/fdt_sw.c **** 	}
 318:/mnt/c/Users/31740/Documents/codes/newcore-rp2350/lib/fdt/fdt_sw.c **** 
 319:/mnt/c/Users/31740/Documents/codes/newcore-rp2350/lib/fdt/fdt_sw.c **** 	prop->tag = cpu_to_fdt32(FDT_PROP);
 2054              		.loc 1 319 2 is_stmt 1 view .LVU689
 2055              		.loc 1 319 12 is_stmt 0 discriminator 1 view .LVU690
 2056 0042 4FF04073 		mov	r3, #50331648
 2057 0046 0360     		str	r3, [r0]
 320:/mnt/c/Users/31740/Documents/codes/newcore-rp2350/lib/fdt/fdt_sw.c **** 	prop->nameoff = cpu_to_fdt32(nameoff);
 2058              		.loc 1 320 2 is_stmt 1 view .LVU691
 2059              	.LVL179:
 2060              	.LBB324:
 2061              	.LBI324:
  57:/mnt/c/Users/31740/Documents/codes/newcore-rp2350/include/linux/libfdt_env.h **** {
 2062              		.loc 3 57 23 view .LVU692
 2063              	.LBB325:
  59:/mnt/c/Users/31740/Documents/codes/newcore-rp2350/include/linux/libfdt_env.h **** }
 2064              		.loc 3 59 2 view .LVU693
  59:/mnt/c/Users/31740/Documents/codes/newcore-rp2350/include/linux/libfdt_env.h **** }
 2065              		.loc 3 59 28 is_stmt 0 view .LVU694
 2066 0048 C7F30723 		ubfx	r3, r7, #8, #8
 2067 004c 1B04     		lsls	r3, r3, #16
 2068 004e 43EA0763 		orr	r3, r3, r7, lsl #24
 2069 0052 C7F30742 		ubfx	r2, r7, #16, #8
 2070 0056 43EA0223 		orr	r3, r3, r2, lsl #8
  59:/mnt/c/Users/31740/Documents/codes/newcore-rp2350/include/linux/libfdt_env.h **** }
 2071              		.loc 3 59 9 view .LVU695
 2072 005a 43EA1763 		orr	r3, r3, r7, lsr #24
 2073              	.LVL180:
  59:/mnt/c/Users/31740/Documents/codes/newcore-rp2350/include/linux/libfdt_env.h **** }
 2074              		.loc 3 59 9 view .LVU696
 2075              	.LBE325:
 2076              	.LBE324:
 2077              		.loc 1 320 16 discriminator 1 view .LVU697
 2078 005e 8360     		str	r3, [r0, #8]
 321:/mnt/c/Users/31740/Documents/codes/newcore-rp2350/lib/fdt/fdt_sw.c **** 	prop->len = cpu_to_fdt32(len);
 2079              		.loc 1 321 2 is_stmt 1 view .LVU698
 2080              	.LVL181:
 2081              	.LBB326:
 2082              	.LBI326:
  57:/mnt/c/Users/31740/Documents/codes/newcore-rp2350/include/linux/libfdt_env.h **** {
 2083              		.loc 3 57 23 view .LVU699
 2084              	.LBB327:
  59:/mnt/c/Users/31740/Documents/codes/newcore-rp2350/include/linux/libfdt_env.h **** }
 2085              		.loc 3 59 2 view .LVU700
  59:/mnt/c/Users/31740/Documents/codes/newcore-rp2350/include/linux/libfdt_env.h **** }
 2086              		.loc 3 59 28 is_stmt 0 view .LVU701
 2087 0060 C6F30721 		ubfx	r1, r6, #8, #8
 2088 0064 0904     		lsls	r1, r1, #16
 2089 0066 41EA0661 		orr	r1, r1, r6, lsl #24
 2090 006a C6F30743 		ubfx	r3, r6, #16, #8
 2091 006e 41EA0321 		orr	r1, r1, r3, lsl #8
  59:/mnt/c/Users/31740/Documents/codes/newcore-rp2350/include/linux/libfdt_env.h **** }
 2092              		.loc 3 59 9 view .LVU702
 2093 0072 41EA1661 		orr	r1, r1, r6, lsr #24
 2094              	.LVL182:
  59:/mnt/c/Users/31740/Documents/codes/newcore-rp2350/include/linux/libfdt_env.h **** }
ARM GAS  /tmp/ccOO9xGx.s 			page 59


 2095              		.loc 3 59 9 view .LVU703
 2096              	.LBE327:
 2097              	.LBE326:
 2098              		.loc 1 321 12 discriminator 1 view .LVU704
 2099 0076 4160     		str	r1, [r0, #4]
 322:/mnt/c/Users/31740/Documents/codes/newcore-rp2350/lib/fdt/fdt_sw.c **** 	*valp = prop->data;
 2100              		.loc 1 322 2 is_stmt 1 view .LVU705
 2101              		.loc 1 322 10 is_stmt 0 view .LVU706
 2102 0078 00F10C03 		add	r3, r0, #12
 2103              		.loc 1 322 8 view .LVU707
 2104 007c 2360     		str	r3, [r4]
 323:/mnt/c/Users/31740/Documents/codes/newcore-rp2350/lib/fdt/fdt_sw.c **** 	return 0;
 2105              		.loc 1 323 2 is_stmt 1 view .LVU708
 2106              	.LVL183:
 2107              	.L72:
 324:/mnt/c/Users/31740/Documents/codes/newcore-rp2350/lib/fdt/fdt_sw.c **** }
 2108              		.loc 1 324 1 is_stmt 0 view .LVU709
 2109 007e 2846     		mov	r0, r5
 2110 0080 03B0     		add	sp, sp, #12
 2111              	.LCFI21:
 2112              		.cfi_remember_state
 2113              		.cfi_def_cfa_offset 28
 2114              		@ sp needed
 2115 0082 BDE8F083 		pop	{r4, r5, r6, r7, r8, r9, pc}
 2116              	.LVL184:
 2117              	.L74:
 2118              	.LCFI22:
 2119              		.cfi_restore_state
 307:/mnt/c/Users/31740/Documents/codes/newcore-rp2350/lib/fdt/fdt_sw.c **** 	}
 2120              		.loc 1 307 3 is_stmt 1 view .LVU710
 307:/mnt/c/Users/31740/Documents/codes/newcore-rp2350/lib/fdt/fdt_sw.c **** 	}
 2121              		.loc 1 307 13 is_stmt 0 view .LVU711
 2122 0086 01AA     		add	r2, sp, #4
 2123 0088 4946     		mov	r1, r9
 2124 008a 4046     		mov	r0, r8
 2125              	.LVL185:
 307:/mnt/c/Users/31740/Documents/codes/newcore-rp2350/lib/fdt/fdt_sw.c **** 	}
 2126              		.loc 1 307 13 view .LVU712
 2127 008c FFF7FEFF 		bl	fdt_find_add_string_
 2128              	.LVL186:
 2129 0090 0746     		mov	r7, r0
 2130              	.LVL187:
 307:/mnt/c/Users/31740/Documents/codes/newcore-rp2350/lib/fdt/fdt_sw.c **** 	}
 2131              		.loc 1 307 13 view .LVU713
 2132 0092 CCE7     		b	.L75
 2133              	.LVL188:
 2134              	.L80:
 314:/mnt/c/Users/31740/Documents/codes/newcore-rp2350/lib/fdt/fdt_sw.c **** 			fdt_del_last_string_(fdt, name);
 2135              		.loc 1 314 3 is_stmt 1 view .LVU714
 314:/mnt/c/Users/31740/Documents/codes/newcore-rp2350/lib/fdt/fdt_sw.c **** 			fdt_del_last_string_(fdt, name);
 2136              		.loc 1 314 7 is_stmt 0 view .LVU715
 2137 0094 019B     		ldr	r3, [sp, #4]
 314:/mnt/c/Users/31740/Documents/codes/newcore-rp2350/lib/fdt/fdt_sw.c **** 			fdt_del_last_string_(fdt, name);
 2138              		.loc 1 314 6 view .LVU716
 2139 0096 13B9     		cbnz	r3, .L81
 2140              	.LVL189:
 2141              	.L77:
ARM GAS  /tmp/ccOO9xGx.s 			page 60


 316:/mnt/c/Users/31740/Documents/codes/newcore-rp2350/lib/fdt/fdt_sw.c **** 	}
 2142              		.loc 1 316 3 is_stmt 1 view .LVU717
 316:/mnt/c/Users/31740/Documents/codes/newcore-rp2350/lib/fdt/fdt_sw.c **** 	}
 2143              		.loc 1 316 10 is_stmt 0 view .LVU718
 2144 0098 6FF00205 		mvn	r5, #2
 2145              	.LVL190:
 316:/mnt/c/Users/31740/Documents/codes/newcore-rp2350/lib/fdt/fdt_sw.c **** 	}
 2146              		.loc 1 316 10 view .LVU719
 2147 009c EFE7     		b	.L72
 2148              	.LVL191:
 2149              	.L81:
 315:/mnt/c/Users/31740/Documents/codes/newcore-rp2350/lib/fdt/fdt_sw.c **** 		return -FDT_ERR_NOSPACE;
 2150              		.loc 1 315 4 is_stmt 1 view .LVU720
 2151 009e 4946     		mov	r1, r9
 2152 00a0 4046     		mov	r0, r8
 2153              	.LVL192:
 315:/mnt/c/Users/31740/Documents/codes/newcore-rp2350/lib/fdt/fdt_sw.c **** 		return -FDT_ERR_NOSPACE;
 2154              		.loc 1 315 4 is_stmt 0 view .LVU721
 2155 00a2 FFF7FEFF 		bl	fdt_del_last_string_
 2156              	.LVL193:
 2157 00a6 F7E7     		b	.L77
 2158              	.LVL194:
 2159              	.L78:
 310:/mnt/c/Users/31740/Documents/codes/newcore-rp2350/lib/fdt/fdt_sw.c **** 
 2160              		.loc 1 310 10 view .LVU722
 2161 00a8 6FF00205 		mvn	r5, #2
 2162              	.LVL195:
 310:/mnt/c/Users/31740/Documents/codes/newcore-rp2350/lib/fdt/fdt_sw.c **** 
 2163              		.loc 1 310 10 view .LVU723
 2164 00ac E7E7     		b	.L72
 2165              		.cfi_endproc
 2166              	.LFE90:
 2168              		.section	.text.fdt_property,"ax",%progbits
 2169              		.align	1
 2170              		.global	fdt_property
 2171              		.syntax unified
 2172              		.thumb
 2173              		.thumb_func
 2175              	fdt_property:
 2176              	.LVL196:
 2177              	.LFB91:
 325:/mnt/c/Users/31740/Documents/codes/newcore-rp2350/lib/fdt/fdt_sw.c **** 
 326:/mnt/c/Users/31740/Documents/codes/newcore-rp2350/lib/fdt/fdt_sw.c **** int fdt_property(void *fdt, const char *name, const void *val, int len)
 327:/mnt/c/Users/31740/Documents/codes/newcore-rp2350/lib/fdt/fdt_sw.c **** {
 2178              		.loc 1 327 1 is_stmt 1 view -0
 2179              		.cfi_startproc
 2180              		@ args = 0, pretend = 0, frame = 8
 2181              		@ frame_needed = 0, uses_anonymous_args = 0
 2182              		.loc 1 327 1 is_stmt 0 view .LVU725
 2183 0000 70B5     		push	{r4, r5, r6, lr}
 2184              	.LCFI23:
 2185              		.cfi_def_cfa_offset 16
 2186              		.cfi_offset 4, -16
 2187              		.cfi_offset 5, -12
 2188              		.cfi_offset 6, -8
 2189              		.cfi_offset 14, -4
 2190 0002 82B0     		sub	sp, sp, #8
ARM GAS  /tmp/ccOO9xGx.s 			page 61


 2191              	.LCFI24:
 2192              		.cfi_def_cfa_offset 24
 2193 0004 1546     		mov	r5, r2
 2194 0006 1C46     		mov	r4, r3
 328:/mnt/c/Users/31740/Documents/codes/newcore-rp2350/lib/fdt/fdt_sw.c **** 	void *ptr;
 2195              		.loc 1 328 2 is_stmt 1 view .LVU726
 329:/mnt/c/Users/31740/Documents/codes/newcore-rp2350/lib/fdt/fdt_sw.c **** 	int ret;
 2196              		.loc 1 329 2 view .LVU727
 330:/mnt/c/Users/31740/Documents/codes/newcore-rp2350/lib/fdt/fdt_sw.c **** 
 331:/mnt/c/Users/31740/Documents/codes/newcore-rp2350/lib/fdt/fdt_sw.c **** 	ret = fdt_property_placeholder(fdt, name, len, &ptr);
 2197              		.loc 1 331 2 view .LVU728
 2198              		.loc 1 331 8 is_stmt 0 view .LVU729
 2199 0008 01AB     		add	r3, sp, #4
 2200              	.LVL197:
 2201              		.loc 1 331 8 view .LVU730
 2202 000a 2246     		mov	r2, r4
 2203              	.LVL198:
 2204              		.loc 1 331 8 view .LVU731
 2205 000c FFF7FEFF 		bl	fdt_property_placeholder
 2206              	.LVL199:
 332:/mnt/c/Users/31740/Documents/codes/newcore-rp2350/lib/fdt/fdt_sw.c **** 	if (ret)
 2207              		.loc 1 332 2 is_stmt 1 view .LVU732
 2208              		.loc 1 332 5 is_stmt 0 view .LVU733
 2209 0010 0646     		mov	r6, r0
 2210 0012 10B1     		cbz	r0, .L85
 2211              	.LVL200:
 2212              	.L82:
 333:/mnt/c/Users/31740/Documents/codes/newcore-rp2350/lib/fdt/fdt_sw.c **** 		return ret;
 334:/mnt/c/Users/31740/Documents/codes/newcore-rp2350/lib/fdt/fdt_sw.c **** 	memcpy(ptr, val, len);
 335:/mnt/c/Users/31740/Documents/codes/newcore-rp2350/lib/fdt/fdt_sw.c **** 	return 0;
 336:/mnt/c/Users/31740/Documents/codes/newcore-rp2350/lib/fdt/fdt_sw.c **** }
 2213              		.loc 1 336 1 view .LVU734
 2214 0014 3046     		mov	r0, r6
 2215 0016 02B0     		add	sp, sp, #8
 2216              	.LCFI25:
 2217              		.cfi_remember_state
 2218              		.cfi_def_cfa_offset 16
 2219              		@ sp needed
 2220 0018 70BD     		pop	{r4, r5, r6, pc}
 2221              	.LVL201:
 2222              	.L85:
 2223              	.LCFI26:
 2224              		.cfi_restore_state
 334:/mnt/c/Users/31740/Documents/codes/newcore-rp2350/lib/fdt/fdt_sw.c **** 	return 0;
 2225              		.loc 1 334 2 is_stmt 1 view .LVU735
 2226 001a 2246     		mov	r2, r4
 2227 001c 2946     		mov	r1, r5
 2228 001e 0198     		ldr	r0, [sp, #4]
 2229              	.LVL202:
 334:/mnt/c/Users/31740/Documents/codes/newcore-rp2350/lib/fdt/fdt_sw.c **** 	return 0;
 2230              		.loc 1 334 2 is_stmt 0 view .LVU736
 2231 0020 FFF7FEFF 		bl	memcpy
 2232              	.LVL203:
 335:/mnt/c/Users/31740/Documents/codes/newcore-rp2350/lib/fdt/fdt_sw.c **** }
 2233              		.loc 1 335 2 is_stmt 1 view .LVU737
 335:/mnt/c/Users/31740/Documents/codes/newcore-rp2350/lib/fdt/fdt_sw.c **** }
 2234              		.loc 1 335 9 is_stmt 0 view .LVU738
ARM GAS  /tmp/ccOO9xGx.s 			page 62


 2235 0024 F6E7     		b	.L82
 2236              		.cfi_endproc
 2237              	.LFE91:
 2239              		.section	.text.fdt_finish,"ax",%progbits
 2240              		.align	1
 2241              		.global	fdt_finish
 2242              		.syntax unified
 2243              		.thumb
 2244              		.thumb_func
 2246              	fdt_finish:
 2247              	.LVL204:
 2248              	.LFB92:
 337:/mnt/c/Users/31740/Documents/codes/newcore-rp2350/lib/fdt/fdt_sw.c **** 
 338:/mnt/c/Users/31740/Documents/codes/newcore-rp2350/lib/fdt/fdt_sw.c **** int fdt_finish(void *fdt)
 339:/mnt/c/Users/31740/Documents/codes/newcore-rp2350/lib/fdt/fdt_sw.c **** {
 2249              		.loc 1 339 1 is_stmt 1 view -0
 2250              		.cfi_startproc
 2251              		@ args = 0, pretend = 0, frame = 8
 2252              		@ frame_needed = 0, uses_anonymous_args = 0
 2253              		.loc 1 339 1 is_stmt 0 view .LVU740
 2254 0000 F0B5     		push	{r4, r5, r6, r7, lr}
 2255              	.LCFI27:
 2256              		.cfi_def_cfa_offset 20
 2257              		.cfi_offset 4, -20
 2258              		.cfi_offset 5, -16
 2259              		.cfi_offset 6, -12
 2260              		.cfi_offset 7, -8
 2261              		.cfi_offset 14, -4
 2262 0002 83B0     		sub	sp, sp, #12
 2263              	.LCFI28:
 2264              		.cfi_def_cfa_offset 32
 2265 0004 0446     		mov	r4, r0
 340:/mnt/c/Users/31740/Documents/codes/newcore-rp2350/lib/fdt/fdt_sw.c **** 	char *p = (char *)fdt;
 2266              		.loc 1 340 2 is_stmt 1 view .LVU741
 2267              	.LVL205:
 341:/mnt/c/Users/31740/Documents/codes/newcore-rp2350/lib/fdt/fdt_sw.c **** 	fdt32_t *end;
 2268              		.loc 1 341 2 view .LVU742
 342:/mnt/c/Users/31740/Documents/codes/newcore-rp2350/lib/fdt/fdt_sw.c **** 	int oldstroffset, newstroffset;
 2269              		.loc 1 342 2 view .LVU743
 343:/mnt/c/Users/31740/Documents/codes/newcore-rp2350/lib/fdt/fdt_sw.c **** 	uint32_t tag;
 2270              		.loc 1 343 2 view .LVU744
 344:/mnt/c/Users/31740/Documents/codes/newcore-rp2350/lib/fdt/fdt_sw.c **** 	int offset, nextoffset;
 2271              		.loc 1 344 2 view .LVU745
 2272              	.LBB328:
 345:/mnt/c/Users/31740/Documents/codes/newcore-rp2350/lib/fdt/fdt_sw.c **** 
 346:/mnt/c/Users/31740/Documents/codes/newcore-rp2350/lib/fdt/fdt_sw.c **** 	FDT_SW_PROBE_STRUCT(fdt);
 2273              		.loc 1 346 2 view .LVU746
 2274              		.loc 1 346 2 view .LVU747
 2275 0006 FFF7FEFF 		bl	fdt_sw_probe_struct_
 2276              	.LVL206:
 2277              		.loc 1 346 2 is_stmt 0 discriminator 1 view .LVU748
 2278 000a 0646     		mov	r6, r0
 2279 000c 10B1     		cbz	r0, .L94
 2280              	.LVL207:
 2281              	.L86:
 2282              		.loc 1 346 2 discriminator 1 view .LVU749
 2283              	.LBE328:
ARM GAS  /tmp/ccOO9xGx.s 			page 63


 347:/mnt/c/Users/31740/Documents/codes/newcore-rp2350/lib/fdt/fdt_sw.c **** 
 348:/mnt/c/Users/31740/Documents/codes/newcore-rp2350/lib/fdt/fdt_sw.c **** 	/* Add terminator */
 349:/mnt/c/Users/31740/Documents/codes/newcore-rp2350/lib/fdt/fdt_sw.c **** 	end = fdt_grab_space_(fdt, sizeof(*end));
 350:/mnt/c/Users/31740/Documents/codes/newcore-rp2350/lib/fdt/fdt_sw.c **** 	if (! end)
 351:/mnt/c/Users/31740/Documents/codes/newcore-rp2350/lib/fdt/fdt_sw.c **** 		return -FDT_ERR_NOSPACE;
 352:/mnt/c/Users/31740/Documents/codes/newcore-rp2350/lib/fdt/fdt_sw.c **** 	*end = cpu_to_fdt32(FDT_END);
 353:/mnt/c/Users/31740/Documents/codes/newcore-rp2350/lib/fdt/fdt_sw.c **** 
 354:/mnt/c/Users/31740/Documents/codes/newcore-rp2350/lib/fdt/fdt_sw.c **** 	/* Relocate the string table */
 355:/mnt/c/Users/31740/Documents/codes/newcore-rp2350/lib/fdt/fdt_sw.c **** 	oldstroffset = fdt_totalsize(fdt) - fdt_size_dt_strings(fdt);
 356:/mnt/c/Users/31740/Documents/codes/newcore-rp2350/lib/fdt/fdt_sw.c **** 	newstroffset = fdt_off_dt_struct(fdt) + fdt_size_dt_struct(fdt);
 357:/mnt/c/Users/31740/Documents/codes/newcore-rp2350/lib/fdt/fdt_sw.c **** 	memmove(p + newstroffset, p + oldstroffset, fdt_size_dt_strings(fdt));
 358:/mnt/c/Users/31740/Documents/codes/newcore-rp2350/lib/fdt/fdt_sw.c **** 	fdt_set_off_dt_strings(fdt, newstroffset);
 359:/mnt/c/Users/31740/Documents/codes/newcore-rp2350/lib/fdt/fdt_sw.c **** 
 360:/mnt/c/Users/31740/Documents/codes/newcore-rp2350/lib/fdt/fdt_sw.c **** 	/* Walk the structure, correcting string offsets */
 361:/mnt/c/Users/31740/Documents/codes/newcore-rp2350/lib/fdt/fdt_sw.c **** 	offset = 0;
 362:/mnt/c/Users/31740/Documents/codes/newcore-rp2350/lib/fdt/fdt_sw.c **** 	while ((tag = fdt_next_tag(fdt, offset, &nextoffset)) != FDT_END) {
 363:/mnt/c/Users/31740/Documents/codes/newcore-rp2350/lib/fdt/fdt_sw.c **** 		if (tag == FDT_PROP) {
 364:/mnt/c/Users/31740/Documents/codes/newcore-rp2350/lib/fdt/fdt_sw.c **** 			struct fdt_property *prop =
 365:/mnt/c/Users/31740/Documents/codes/newcore-rp2350/lib/fdt/fdt_sw.c **** 				fdt_offset_ptr_w_(fdt, offset);
 366:/mnt/c/Users/31740/Documents/codes/newcore-rp2350/lib/fdt/fdt_sw.c **** 			int nameoff;
 367:/mnt/c/Users/31740/Documents/codes/newcore-rp2350/lib/fdt/fdt_sw.c **** 
 368:/mnt/c/Users/31740/Documents/codes/newcore-rp2350/lib/fdt/fdt_sw.c **** 			nameoff = fdt32_to_cpu(prop->nameoff);
 369:/mnt/c/Users/31740/Documents/codes/newcore-rp2350/lib/fdt/fdt_sw.c **** 			nameoff += fdt_size_dt_strings(fdt);
 370:/mnt/c/Users/31740/Documents/codes/newcore-rp2350/lib/fdt/fdt_sw.c **** 			prop->nameoff = cpu_to_fdt32(nameoff);
 371:/mnt/c/Users/31740/Documents/codes/newcore-rp2350/lib/fdt/fdt_sw.c **** 		}
 372:/mnt/c/Users/31740/Documents/codes/newcore-rp2350/lib/fdt/fdt_sw.c **** 		offset = nextoffset;
 373:/mnt/c/Users/31740/Documents/codes/newcore-rp2350/lib/fdt/fdt_sw.c **** 	}
 374:/mnt/c/Users/31740/Documents/codes/newcore-rp2350/lib/fdt/fdt_sw.c **** 	if (nextoffset < 0)
 375:/mnt/c/Users/31740/Documents/codes/newcore-rp2350/lib/fdt/fdt_sw.c **** 		return nextoffset;
 376:/mnt/c/Users/31740/Documents/codes/newcore-rp2350/lib/fdt/fdt_sw.c **** 
 377:/mnt/c/Users/31740/Documents/codes/newcore-rp2350/lib/fdt/fdt_sw.c **** 	/* Finally, adjust the header */
 378:/mnt/c/Users/31740/Documents/codes/newcore-rp2350/lib/fdt/fdt_sw.c **** 	fdt_set_totalsize(fdt, newstroffset + fdt_size_dt_strings(fdt));
 379:/mnt/c/Users/31740/Documents/codes/newcore-rp2350/lib/fdt/fdt_sw.c **** 
 380:/mnt/c/Users/31740/Documents/codes/newcore-rp2350/lib/fdt/fdt_sw.c **** 	/* And fix up fields that were keeping intermediate state. */
 381:/mnt/c/Users/31740/Documents/codes/newcore-rp2350/lib/fdt/fdt_sw.c **** 	fdt_set_last_comp_version(fdt, FDT_LAST_COMPATIBLE_VERSION);
 382:/mnt/c/Users/31740/Documents/codes/newcore-rp2350/lib/fdt/fdt_sw.c **** 	fdt_set_magic(fdt, FDT_MAGIC);
 383:/mnt/c/Users/31740/Documents/codes/newcore-rp2350/lib/fdt/fdt_sw.c **** 
 384:/mnt/c/Users/31740/Documents/codes/newcore-rp2350/lib/fdt/fdt_sw.c **** 	return 0;
 385:/mnt/c/Users/31740/Documents/codes/newcore-rp2350/lib/fdt/fdt_sw.c **** }
 2284              		.loc 1 385 1 view .LVU750
 2285 000e 3046     		mov	r0, r6
 2286 0010 03B0     		add	sp, sp, #12
 2287              	.LCFI29:
 2288              		.cfi_remember_state
 2289              		.cfi_def_cfa_offset 20
 2290              		@ sp needed
 2291 0012 F0BD     		pop	{r4, r5, r6, r7, pc}
 2292              	.LVL208:
 2293              	.L94:
 2294              	.LCFI30:
 2295              		.cfi_restore_state
 346:/mnt/c/Users/31740/Documents/codes/newcore-rp2350/lib/fdt/fdt_sw.c **** 
 2296              		.loc 1 346 26 is_stmt 1 discriminator 2 view .LVU751
 349:/mnt/c/Users/31740/Documents/codes/newcore-rp2350/lib/fdt/fdt_sw.c **** 	if (! end)
 2297              		.loc 1 349 2 view .LVU752
 349:/mnt/c/Users/31740/Documents/codes/newcore-rp2350/lib/fdt/fdt_sw.c **** 	if (! end)
 2298              		.loc 1 349 8 is_stmt 0 view .LVU753
ARM GAS  /tmp/ccOO9xGx.s 			page 64


 2299 0014 0421     		movs	r1, #4
 2300 0016 2046     		mov	r0, r4
 2301              	.LVL209:
 349:/mnt/c/Users/31740/Documents/codes/newcore-rp2350/lib/fdt/fdt_sw.c **** 	if (! end)
 2302              		.loc 1 349 8 view .LVU754
 2303 0018 FFF7FEFF 		bl	fdt_grab_space_
 2304              	.LVL210:
 350:/mnt/c/Users/31740/Documents/codes/newcore-rp2350/lib/fdt/fdt_sw.c **** 		return -FDT_ERR_NOSPACE;
 2305              		.loc 1 350 2 is_stmt 1 view .LVU755
 350:/mnt/c/Users/31740/Documents/codes/newcore-rp2350/lib/fdt/fdt_sw.c **** 		return -FDT_ERR_NOSPACE;
 2306              		.loc 1 350 5 is_stmt 0 view .LVU756
 2307 001c 0028     		cmp	r0, #0
 2308 001e 00F0A980 		beq	.L91
 352:/mnt/c/Users/31740/Documents/codes/newcore-rp2350/lib/fdt/fdt_sw.c **** 
 2309              		.loc 1 352 2 is_stmt 1 view .LVU757
 352:/mnt/c/Users/31740/Documents/codes/newcore-rp2350/lib/fdt/fdt_sw.c **** 
 2310              		.loc 1 352 7 is_stmt 0 discriminator 1 view .LVU758
 2311 0022 4FF01062 		mov	r2, #150994944
 2312 0026 0260     		str	r2, [r0]
 355:/mnt/c/Users/31740/Documents/codes/newcore-rp2350/lib/fdt/fdt_sw.c **** 	newstroffset = fdt_off_dt_struct(fdt) + fdt_size_dt_struct(fdt);
 2313              		.loc 1 355 2 is_stmt 1 view .LVU759
 2314              	.LVL211:
 2315              	.LBB329:
 2316              	.LBI329:
 145:/mnt/c/Users/31740/Documents/codes/newcore-rp2350/include/linux/libfdt.h **** {
 2317              		.loc 2 145 24 view .LVU760
 2318              	.LBB330:
 147:/mnt/c/Users/31740/Documents/codes/newcore-rp2350/include/linux/libfdt.h **** 
 2319              		.loc 2 147 2 view .LVU761
 149:/mnt/c/Users/31740/Documents/codes/newcore-rp2350/include/linux/libfdt.h **** 		| ((uint32_t)bp[1] << 16)
 2320              		.loc 2 149 2 view .LVU762
 149:/mnt/c/Users/31740/Documents/codes/newcore-rp2350/include/linux/libfdt.h **** 		| ((uint32_t)bp[1] << 16)
 2321              		.loc 2 149 22 is_stmt 0 view .LVU763
 2322 0028 2379     		ldrb	r3, [r4, #4]	@ zero_extendqisi2
 150:/mnt/c/Users/31740/Documents/codes/newcore-rp2350/include/linux/libfdt.h **** 		| ((uint32_t)bp[2] << 8)
 2323              		.loc 2 150 18 view .LVU764
 2324 002a 6179     		ldrb	r1, [r4, #5]	@ zero_extendqisi2
 150:/mnt/c/Users/31740/Documents/codes/newcore-rp2350/include/linux/libfdt.h **** 		| ((uint32_t)bp[2] << 8)
 2325              		.loc 2 150 22 view .LVU765
 2326 002c 0904     		lsls	r1, r1, #16
 150:/mnt/c/Users/31740/Documents/codes/newcore-rp2350/include/linux/libfdt.h **** 		| ((uint32_t)bp[2] << 8)
 2327              		.loc 2 150 3 view .LVU766
 2328 002e 41EA0361 		orr	r1, r1, r3, lsl #24
 151:/mnt/c/Users/31740/Documents/codes/newcore-rp2350/include/linux/libfdt.h **** 		| bp[3];
 2329              		.loc 2 151 18 view .LVU767
 2330 0032 A379     		ldrb	r3, [r4, #6]	@ zero_extendqisi2
 151:/mnt/c/Users/31740/Documents/codes/newcore-rp2350/include/linux/libfdt.h **** 		| bp[3];
 2331              		.loc 2 151 3 view .LVU768
 2332 0034 41EA0321 		orr	r1, r1, r3, lsl #8
 152:/mnt/c/Users/31740/Documents/codes/newcore-rp2350/include/linux/libfdt.h **** }
 2333              		.loc 2 152 7 view .LVU769
 2334 0038 E379     		ldrb	r3, [r4, #7]	@ zero_extendqisi2
 152:/mnt/c/Users/31740/Documents/codes/newcore-rp2350/include/linux/libfdt.h **** }
 2335              		.loc 2 152 3 view .LVU770
 2336 003a 1943     		orrs	r1, r1, r3
 2337              	.LVL212:
 152:/mnt/c/Users/31740/Documents/codes/newcore-rp2350/include/linux/libfdt.h **** }
ARM GAS  /tmp/ccOO9xGx.s 			page 65


 2338              		.loc 2 152 3 view .LVU771
 2339              	.LBE330:
 2340              	.LBE329:
 2341              	.LBB331:
 2342              	.LBI331:
 145:/mnt/c/Users/31740/Documents/codes/newcore-rp2350/include/linux/libfdt.h **** {
 2343              		.loc 2 145 24 is_stmt 1 view .LVU772
 2344              	.LBB332:
 147:/mnt/c/Users/31740/Documents/codes/newcore-rp2350/include/linux/libfdt.h **** 
 2345              		.loc 2 147 2 view .LVU773
 149:/mnt/c/Users/31740/Documents/codes/newcore-rp2350/include/linux/libfdt.h **** 		| ((uint32_t)bp[1] << 16)
 2346              		.loc 2 149 2 view .LVU774
 149:/mnt/c/Users/31740/Documents/codes/newcore-rp2350/include/linux/libfdt.h **** 		| ((uint32_t)bp[1] << 16)
 2347              		.loc 2 149 22 is_stmt 0 view .LVU775
 2348 003c 94F82030 		ldrb	r3, [r4, #32]	@ zero_extendqisi2
 150:/mnt/c/Users/31740/Documents/codes/newcore-rp2350/include/linux/libfdt.h **** 		| ((uint32_t)bp[2] << 8)
 2349              		.loc 2 150 18 view .LVU776
 2350 0040 94F82120 		ldrb	r2, [r4, #33]	@ zero_extendqisi2
 150:/mnt/c/Users/31740/Documents/codes/newcore-rp2350/include/linux/libfdt.h **** 		| ((uint32_t)bp[2] << 8)
 2351              		.loc 2 150 22 view .LVU777
 2352 0044 1204     		lsls	r2, r2, #16
 150:/mnt/c/Users/31740/Documents/codes/newcore-rp2350/include/linux/libfdt.h **** 		| ((uint32_t)bp[2] << 8)
 2353              		.loc 2 150 3 view .LVU778
 2354 0046 42EA0362 		orr	r2, r2, r3, lsl #24
 151:/mnt/c/Users/31740/Documents/codes/newcore-rp2350/include/linux/libfdt.h **** 		| bp[3];
 2355              		.loc 2 151 18 view .LVU779
 2356 004a 94F82230 		ldrb	r3, [r4, #34]	@ zero_extendqisi2
 151:/mnt/c/Users/31740/Documents/codes/newcore-rp2350/include/linux/libfdt.h **** 		| bp[3];
 2357              		.loc 2 151 3 view .LVU780
 2358 004e 42EA0322 		orr	r2, r2, r3, lsl #8
 152:/mnt/c/Users/31740/Documents/codes/newcore-rp2350/include/linux/libfdt.h **** }
 2359              		.loc 2 152 7 view .LVU781
 2360 0052 94F82330 		ldrb	r3, [r4, #35]	@ zero_extendqisi2
 152:/mnt/c/Users/31740/Documents/codes/newcore-rp2350/include/linux/libfdt.h **** }
 2361              		.loc 2 152 3 view .LVU782
 2362 0056 1A43     		orrs	r2, r2, r3
 2363              	.LVL213:
 152:/mnt/c/Users/31740/Documents/codes/newcore-rp2350/include/linux/libfdt.h **** }
 2364              		.loc 2 152 3 view .LVU783
 2365              	.LBE332:
 2366              	.LBE331:
 355:/mnt/c/Users/31740/Documents/codes/newcore-rp2350/lib/fdt/fdt_sw.c **** 	newstroffset = fdt_off_dt_struct(fdt) + fdt_size_dt_struct(fdt);
 2367              		.loc 1 355 36 discriminator 2 view .LVU784
 2368 0058 891A     		subs	r1, r1, r2
 2369              	.LVL214:
 356:/mnt/c/Users/31740/Documents/codes/newcore-rp2350/lib/fdt/fdt_sw.c **** 	memmove(p + newstroffset, p + oldstroffset, fdt_size_dt_strings(fdt));
 2370              		.loc 1 356 2 is_stmt 1 view .LVU785
 2371              	.LBB333:
 2372              	.LBI333:
 145:/mnt/c/Users/31740/Documents/codes/newcore-rp2350/include/linux/libfdt.h **** {
 2373              		.loc 2 145 24 view .LVU786
 2374              	.LBB334:
 147:/mnt/c/Users/31740/Documents/codes/newcore-rp2350/include/linux/libfdt.h **** 
 2375              		.loc 2 147 2 view .LVU787
 149:/mnt/c/Users/31740/Documents/codes/newcore-rp2350/include/linux/libfdt.h **** 		| ((uint32_t)bp[1] << 16)
 2376              		.loc 2 149 2 view .LVU788
 149:/mnt/c/Users/31740/Documents/codes/newcore-rp2350/include/linux/libfdt.h **** 		| ((uint32_t)bp[1] << 16)
ARM GAS  /tmp/ccOO9xGx.s 			page 66


 2377              		.loc 2 149 22 is_stmt 0 view .LVU789
 2378 005a 207A     		ldrb	r0, [r4, #8]	@ zero_extendqisi2
 2379              	.LVL215:
 150:/mnt/c/Users/31740/Documents/codes/newcore-rp2350/include/linux/libfdt.h **** 		| ((uint32_t)bp[2] << 8)
 2380              		.loc 2 150 18 view .LVU790
 2381 005c 637A     		ldrb	r3, [r4, #9]	@ zero_extendqisi2
 150:/mnt/c/Users/31740/Documents/codes/newcore-rp2350/include/linux/libfdt.h **** 		| ((uint32_t)bp[2] << 8)
 2382              		.loc 2 150 22 view .LVU791
 2383 005e 1B04     		lsls	r3, r3, #16
 150:/mnt/c/Users/31740/Documents/codes/newcore-rp2350/include/linux/libfdt.h **** 		| ((uint32_t)bp[2] << 8)
 2384              		.loc 2 150 3 view .LVU792
 2385 0060 43EA0063 		orr	r3, r3, r0, lsl #24
 151:/mnt/c/Users/31740/Documents/codes/newcore-rp2350/include/linux/libfdt.h **** 		| bp[3];
 2386              		.loc 2 151 18 view .LVU793
 2387 0064 A07A     		ldrb	r0, [r4, #10]	@ zero_extendqisi2
 151:/mnt/c/Users/31740/Documents/codes/newcore-rp2350/include/linux/libfdt.h **** 		| bp[3];
 2388              		.loc 2 151 3 view .LVU794
 2389 0066 43EA0023 		orr	r3, r3, r0, lsl #8
 152:/mnt/c/Users/31740/Documents/codes/newcore-rp2350/include/linux/libfdt.h **** }
 2390              		.loc 2 152 7 view .LVU795
 2391 006a E07A     		ldrb	r0, [r4, #11]	@ zero_extendqisi2
 152:/mnt/c/Users/31740/Documents/codes/newcore-rp2350/include/linux/libfdt.h **** }
 2392              		.loc 2 152 3 view .LVU796
 2393 006c 0343     		orrs	r3, r3, r0
 2394              	.LVL216:
 152:/mnt/c/Users/31740/Documents/codes/newcore-rp2350/include/linux/libfdt.h **** }
 2395              		.loc 2 152 3 view .LVU797
 2396              	.LBE334:
 2397              	.LBE333:
 2398              	.LBB335:
 2399              	.LBI335:
 145:/mnt/c/Users/31740/Documents/codes/newcore-rp2350/include/linux/libfdt.h **** {
 2400              		.loc 2 145 24 is_stmt 1 view .LVU798
 2401              	.LBB336:
 147:/mnt/c/Users/31740/Documents/codes/newcore-rp2350/include/linux/libfdt.h **** 
 2402              		.loc 2 147 2 view .LVU799
 149:/mnt/c/Users/31740/Documents/codes/newcore-rp2350/include/linux/libfdt.h **** 		| ((uint32_t)bp[1] << 16)
 2403              		.loc 2 149 2 view .LVU800
 149:/mnt/c/Users/31740/Documents/codes/newcore-rp2350/include/linux/libfdt.h **** 		| ((uint32_t)bp[1] << 16)
 2404              		.loc 2 149 22 is_stmt 0 view .LVU801
 2405 006e 94F82400 		ldrb	r0, [r4, #36]	@ zero_extendqisi2
 150:/mnt/c/Users/31740/Documents/codes/newcore-rp2350/include/linux/libfdt.h **** 		| ((uint32_t)bp[2] << 8)
 2406              		.loc 2 150 18 view .LVU802
 2407 0072 94F82550 		ldrb	r5, [r4, #37]	@ zero_extendqisi2
 150:/mnt/c/Users/31740/Documents/codes/newcore-rp2350/include/linux/libfdt.h **** 		| ((uint32_t)bp[2] << 8)
 2408              		.loc 2 150 22 view .LVU803
 2409 0076 2D04     		lsls	r5, r5, #16
 150:/mnt/c/Users/31740/Documents/codes/newcore-rp2350/include/linux/libfdt.h **** 		| ((uint32_t)bp[2] << 8)
 2410              		.loc 2 150 3 view .LVU804
 2411 0078 45EA0065 		orr	r5, r5, r0, lsl #24
 151:/mnt/c/Users/31740/Documents/codes/newcore-rp2350/include/linux/libfdt.h **** 		| bp[3];
 2412              		.loc 2 151 18 view .LVU805
 2413 007c 94F82600 		ldrb	r0, [r4, #38]	@ zero_extendqisi2
 151:/mnt/c/Users/31740/Documents/codes/newcore-rp2350/include/linux/libfdt.h **** 		| bp[3];
 2414              		.loc 2 151 3 view .LVU806
 2415 0080 45EA0025 		orr	r5, r5, r0, lsl #8
 152:/mnt/c/Users/31740/Documents/codes/newcore-rp2350/include/linux/libfdt.h **** }
ARM GAS  /tmp/ccOO9xGx.s 			page 67


 2416              		.loc 2 152 7 view .LVU807
 2417 0084 94F82700 		ldrb	r0, [r4, #39]	@ zero_extendqisi2
 152:/mnt/c/Users/31740/Documents/codes/newcore-rp2350/include/linux/libfdt.h **** }
 2418              		.loc 2 152 3 view .LVU808
 2419 0088 0543     		orrs	r5, r5, r0
 2420              	.LVL217:
 152:/mnt/c/Users/31740/Documents/codes/newcore-rp2350/include/linux/libfdt.h **** }
 2421              		.loc 2 152 3 view .LVU809
 2422              	.LBE336:
 2423              	.LBE335:
 356:/mnt/c/Users/31740/Documents/codes/newcore-rp2350/lib/fdt/fdt_sw.c **** 	memmove(p + newstroffset, p + oldstroffset, fdt_size_dt_strings(fdt));
 2424              		.loc 1 356 40 discriminator 2 view .LVU810
 2425 008a 1D44     		add	r5, r5, r3
 2426              	.LVL218:
 357:/mnt/c/Users/31740/Documents/codes/newcore-rp2350/lib/fdt/fdt_sw.c **** 	fdt_set_off_dt_strings(fdt, newstroffset);
 2427              		.loc 1 357 2 is_stmt 1 view .LVU811
 357:/mnt/c/Users/31740/Documents/codes/newcore-rp2350/lib/fdt/fdt_sw.c **** 	fdt_set_off_dt_strings(fdt, newstroffset);
 2428              		.loc 1 357 2 is_stmt 0 discriminator 1 view .LVU812
 2429 008c 2144     		add	r1, r1, r4
 2430              	.LVL219:
 357:/mnt/c/Users/31740/Documents/codes/newcore-rp2350/lib/fdt/fdt_sw.c **** 	fdt_set_off_dt_strings(fdt, newstroffset);
 2431              		.loc 1 357 2 discriminator 1 view .LVU813
 2432 008e 6019     		adds	r0, r4, r5
 2433 0090 FFF7FEFF 		bl	memmove
 2434              	.LVL220:
 358:/mnt/c/Users/31740/Documents/codes/newcore-rp2350/lib/fdt/fdt_sw.c **** 
 2435              		.loc 1 358 2 is_stmt 1 view .LVU814
 2436              	.LBB337:
 2437              	.LBI337:
 273:/mnt/c/Users/31740/Documents/codes/newcore-rp2350/include/linux/libfdt.h **** fdt_set_hdr_(off_mem_rsvmap)
 2438              		.loc 2 273 1 view .LVU815
 2439              	.LBB338:
 273:/mnt/c/Users/31740/Documents/codes/newcore-rp2350/include/linux/libfdt.h **** fdt_set_hdr_(off_mem_rsvmap)
 2440              		.loc 2 273 1 view .LVU816
 273:/mnt/c/Users/31740/Documents/codes/newcore-rp2350/include/linux/libfdt.h **** fdt_set_hdr_(off_mem_rsvmap)
 2441              		.loc 2 273 1 view .LVU817
 2442              	.LBB339:
 2443              	.LBI339:
  57:/mnt/c/Users/31740/Documents/codes/newcore-rp2350/include/linux/libfdt_env.h **** {
 2444              		.loc 3 57 23 view .LVU818
 2445              	.LBB340:
  59:/mnt/c/Users/31740/Documents/codes/newcore-rp2350/include/linux/libfdt_env.h **** }
 2446              		.loc 3 59 2 view .LVU819
  59:/mnt/c/Users/31740/Documents/codes/newcore-rp2350/include/linux/libfdt_env.h **** }
 2447              		.loc 3 59 28 is_stmt 0 view .LVU820
 2448 0094 C5F30723 		ubfx	r3, r5, #8, #8
 2449 0098 1B04     		lsls	r3, r3, #16
 2450 009a 43EA0563 		orr	r3, r3, r5, lsl #24
 2451 009e C5F30742 		ubfx	r2, r5, #16, #8
 2452 00a2 43EA0223 		orr	r3, r3, r2, lsl #8
  59:/mnt/c/Users/31740/Documents/codes/newcore-rp2350/include/linux/libfdt_env.h **** }
 2453              		.loc 3 59 9 view .LVU821
 2454 00a6 43EA1563 		orr	r3, r3, r5, lsr #24
 2455              	.LVL221:
  59:/mnt/c/Users/31740/Documents/codes/newcore-rp2350/include/linux/libfdt_env.h **** }
 2456              		.loc 3 59 9 view .LVU822
 2457              	.LBE340:
ARM GAS  /tmp/ccOO9xGx.s 			page 68


 2458              	.LBE339:
 273:/mnt/c/Users/31740/Documents/codes/newcore-rp2350/include/linux/libfdt.h **** fdt_set_hdr_(off_mem_rsvmap)
 2459              		.loc 2 273 1 discriminator 1 view .LVU823
 2460 00aa E360     		str	r3, [r4, #12]
 2461              	.LVL222:
 273:/mnt/c/Users/31740/Documents/codes/newcore-rp2350/include/linux/libfdt.h **** fdt_set_hdr_(off_mem_rsvmap)
 2462              		.loc 2 273 1 discriminator 1 view .LVU824
 2463              	.LBE338:
 2464              	.LBE337:
 361:/mnt/c/Users/31740/Documents/codes/newcore-rp2350/lib/fdt/fdt_sw.c **** 	while ((tag = fdt_next_tag(fdt, offset, &nextoffset)) != FDT_END) {
 2465              		.loc 1 361 2 is_stmt 1 view .LVU825
 362:/mnt/c/Users/31740/Documents/codes/newcore-rp2350/lib/fdt/fdt_sw.c **** 		if (tag == FDT_PROP) {
 2466              		.loc 1 362 2 view .LVU826
 361:/mnt/c/Users/31740/Documents/codes/newcore-rp2350/lib/fdt/fdt_sw.c **** 	while ((tag = fdt_next_tag(fdt, offset, &nextoffset)) != FDT_END) {
 2467              		.loc 1 361 9 is_stmt 0 view .LVU827
 2468 00ac 3746     		mov	r7, r6
 362:/mnt/c/Users/31740/Documents/codes/newcore-rp2350/lib/fdt/fdt_sw.c **** 		if (tag == FDT_PROP) {
 2469              		.loc 1 362 8 view .LVU828
 2470 00ae 00E0     		b	.L88
 2471              	.LVL223:
 2472              	.L89:
 372:/mnt/c/Users/31740/Documents/codes/newcore-rp2350/lib/fdt/fdt_sw.c **** 	}
 2473              		.loc 1 372 3 is_stmt 1 view .LVU829
 372:/mnt/c/Users/31740/Documents/codes/newcore-rp2350/lib/fdt/fdt_sw.c **** 	}
 2474              		.loc 1 372 10 is_stmt 0 view .LVU830
 2475 00b0 019F     		ldr	r7, [sp, #4]
 2476              	.LVL224:
 2477              	.L88:
 362:/mnt/c/Users/31740/Documents/codes/newcore-rp2350/lib/fdt/fdt_sw.c **** 		if (tag == FDT_PROP) {
 2478              		.loc 1 362 56 is_stmt 1 view .LVU831
 362:/mnt/c/Users/31740/Documents/codes/newcore-rp2350/lib/fdt/fdt_sw.c **** 		if (tag == FDT_PROP) {
 2479              		.loc 1 362 16 is_stmt 0 view .LVU832
 2480 00b2 01AA     		add	r2, sp, #4
 2481 00b4 3946     		mov	r1, r7
 2482 00b6 2046     		mov	r0, r4
 2483 00b8 FFF7FEFF 		bl	fdt_next_tag
 2484              	.LVL225:
