ARM GAS  /tmp/ccyijaMA.s 			page 1


   1              		.cpu cortex-m33
   2              		.arch armv8-m.main
   3              		.fpu fpv4-sp-d16
   4              		.arch_extension dsp
   5              		.eabi_attribute 27, 1
   6              		.eabi_attribute 28, 1
   7              		.eabi_attribute 20, 1
   8              		.eabi_attribute 21, 1
   9              		.eabi_attribute 23, 3
  10              		.eabi_attribute 24, 1
  11              		.eabi_attribute 25, 1
  12              		.eabi_attribute 26, 1
  13              		.eabi_attribute 30, 1
  14              		.eabi_attribute 34, 1
  15              		.eabi_attribute 18, 4
  16              		.file	"fdt_rw.c"
  17              		.text
  18              	.Ltext0:
  19              		.cfi_sections	.debug_frame
  20              		.file 1 "/mnt/c/Users/31740/Documents/codes/newcore-rp2350/lib/fdt/fdt_rw.c"
  21              		.section	.text.fdt_mem_rsv_,"ax",%progbits
  22              		.align	1
  23              		.syntax unified
  24              		.thumb
  25              		.thumb_func
  27              	fdt_mem_rsv_:
  28              	.LVL0:
  29              	.LFB70:
  30              		.file 2 "/mnt/c/Users/31740/Documents/codes/newcore-rp2350/lib/fdt/libfdt_internal.h"
   1:/mnt/c/Users/31740/Documents/codes/newcore-rp2350/lib/fdt/libfdt_internal.h **** /* SPDX-License-Identifier: (GPL-2.0-or-later OR BSD-2-Clause) */
   2:/mnt/c/Users/31740/Documents/codes/newcore-rp2350/lib/fdt/libfdt_internal.h **** #ifndef LIBFDT_INTERNAL_H
   3:/mnt/c/Users/31740/Documents/codes/newcore-rp2350/lib/fdt/libfdt_internal.h **** #define LIBFDT_INTERNAL_H
   4:/mnt/c/Users/31740/Documents/codes/newcore-rp2350/lib/fdt/libfdt_internal.h **** /*
   5:/mnt/c/Users/31740/Documents/codes/newcore-rp2350/lib/fdt/libfdt_internal.h ****  * libfdt - Flat Device Tree manipulation
   6:/mnt/c/Users/31740/Documents/codes/newcore-rp2350/lib/fdt/libfdt_internal.h ****  * Copyright (C) 2006 David Gibson, IBM Corporation.
   7:/mnt/c/Users/31740/Documents/codes/newcore-rp2350/lib/fdt/libfdt_internal.h ****  */
   8:/mnt/c/Users/31740/Documents/codes/newcore-rp2350/lib/fdt/libfdt_internal.h **** #include <linux/fdt.h>
   9:/mnt/c/Users/31740/Documents/codes/newcore-rp2350/lib/fdt/libfdt_internal.h **** #include <linux/string.h>
  10:/mnt/c/Users/31740/Documents/codes/newcore-rp2350/lib/fdt/libfdt_internal.h **** 
  11:/mnt/c/Users/31740/Documents/codes/newcore-rp2350/lib/fdt/libfdt_internal.h **** #define FDT_ALIGN(x, a)		(((x) + (a) - 1) & ~((a) - 1))
  12:/mnt/c/Users/31740/Documents/codes/newcore-rp2350/lib/fdt/libfdt_internal.h **** #define FDT_TAGALIGN(x)		(FDT_ALIGN((x), FDT_TAGSIZE))
  13:/mnt/c/Users/31740/Documents/codes/newcore-rp2350/lib/fdt/libfdt_internal.h **** 
  14:/mnt/c/Users/31740/Documents/codes/newcore-rp2350/lib/fdt/libfdt_internal.h **** int32_t fdt_ro_probe_(const void *fdt);
  15:/mnt/c/Users/31740/Documents/codes/newcore-rp2350/lib/fdt/libfdt_internal.h **** #define FDT_RO_PROBE(fdt)					\
  16:/mnt/c/Users/31740/Documents/codes/newcore-rp2350/lib/fdt/libfdt_internal.h **** 	{							\
  17:/mnt/c/Users/31740/Documents/codes/newcore-rp2350/lib/fdt/libfdt_internal.h **** 		int32_t totalsize_;				\
  18:/mnt/c/Users/31740/Documents/codes/newcore-rp2350/lib/fdt/libfdt_internal.h **** 		if ((totalsize_ = fdt_ro_probe_(fdt)) < 0)	\
  19:/mnt/c/Users/31740/Documents/codes/newcore-rp2350/lib/fdt/libfdt_internal.h **** 			return totalsize_;			\
  20:/mnt/c/Users/31740/Documents/codes/newcore-rp2350/lib/fdt/libfdt_internal.h **** 	}
  21:/mnt/c/Users/31740/Documents/codes/newcore-rp2350/lib/fdt/libfdt_internal.h **** 
  22:/mnt/c/Users/31740/Documents/codes/newcore-rp2350/lib/fdt/libfdt_internal.h **** int fdt_check_node_offset_(const void *fdt, int offset);
  23:/mnt/c/Users/31740/Documents/codes/newcore-rp2350/lib/fdt/libfdt_internal.h **** int fdt_check_prop_offset_(const void *fdt, int offset);
  24:/mnt/c/Users/31740/Documents/codes/newcore-rp2350/lib/fdt/libfdt_internal.h **** 
  25:/mnt/c/Users/31740/Documents/codes/newcore-rp2350/lib/fdt/libfdt_internal.h **** const char *fdt_find_string_len_(const char *strtab, int tabsize, const char *s,
  26:/mnt/c/Users/31740/Documents/codes/newcore-rp2350/lib/fdt/libfdt_internal.h **** 				 int s_len);
  27:/mnt/c/Users/31740/Documents/codes/newcore-rp2350/lib/fdt/libfdt_internal.h **** static inline const char *fdt_find_string_(const char *strtab, int tabsize,
  28:/mnt/c/Users/31740/Documents/codes/newcore-rp2350/lib/fdt/libfdt_internal.h **** 					   const char *s)
ARM GAS  /tmp/ccyijaMA.s 			page 2


  29:/mnt/c/Users/31740/Documents/codes/newcore-rp2350/lib/fdt/libfdt_internal.h **** {
  30:/mnt/c/Users/31740/Documents/codes/newcore-rp2350/lib/fdt/libfdt_internal.h **** 	return fdt_find_string_len_(strtab, tabsize, s, strlen(s));
  31:/mnt/c/Users/31740/Documents/codes/newcore-rp2350/lib/fdt/libfdt_internal.h **** }
  32:/mnt/c/Users/31740/Documents/codes/newcore-rp2350/lib/fdt/libfdt_internal.h **** 
  33:/mnt/c/Users/31740/Documents/codes/newcore-rp2350/lib/fdt/libfdt_internal.h **** int fdt_node_end_offset_(void *fdt, int nodeoffset);
  34:/mnt/c/Users/31740/Documents/codes/newcore-rp2350/lib/fdt/libfdt_internal.h **** 
  35:/mnt/c/Users/31740/Documents/codes/newcore-rp2350/lib/fdt/libfdt_internal.h **** static inline const void *fdt_offset_ptr_(const void *fdt, int offset)
  36:/mnt/c/Users/31740/Documents/codes/newcore-rp2350/lib/fdt/libfdt_internal.h **** {
  37:/mnt/c/Users/31740/Documents/codes/newcore-rp2350/lib/fdt/libfdt_internal.h **** 	return (const char *)fdt + fdt_off_dt_struct(fdt) + offset;
  38:/mnt/c/Users/31740/Documents/codes/newcore-rp2350/lib/fdt/libfdt_internal.h **** }
  39:/mnt/c/Users/31740/Documents/codes/newcore-rp2350/lib/fdt/libfdt_internal.h **** 
  40:/mnt/c/Users/31740/Documents/codes/newcore-rp2350/lib/fdt/libfdt_internal.h **** static inline void *fdt_offset_ptr_w_(void *fdt, int offset)
  41:/mnt/c/Users/31740/Documents/codes/newcore-rp2350/lib/fdt/libfdt_internal.h **** {
  42:/mnt/c/Users/31740/Documents/codes/newcore-rp2350/lib/fdt/libfdt_internal.h **** 	return (void *)(uintptr_t)fdt_offset_ptr_(fdt, offset);
  43:/mnt/c/Users/31740/Documents/codes/newcore-rp2350/lib/fdt/libfdt_internal.h **** }
  44:/mnt/c/Users/31740/Documents/codes/newcore-rp2350/lib/fdt/libfdt_internal.h **** 
  45:/mnt/c/Users/31740/Documents/codes/newcore-rp2350/lib/fdt/libfdt_internal.h **** static inline const struct fdt_reserve_entry *fdt_mem_rsv_(const void *fdt, int n)
  46:/mnt/c/Users/31740/Documents/codes/newcore-rp2350/lib/fdt/libfdt_internal.h **** {
  31              		.loc 2 46 1 view -0
  32              		.cfi_startproc
  33              		@ args = 0, pretend = 0, frame = 0
  34              		@ frame_needed = 0, uses_anonymous_args = 0
  35              		@ link register save eliminated.
  47:/mnt/c/Users/31740/Documents/codes/newcore-rp2350/lib/fdt/libfdt_internal.h **** 	const struct fdt_reserve_entry *rsv_table =
  36              		.loc 2 47 2 view .LVU1
  37              	.LBB263:
  38              	.LBI263:
  39              		.file 3 "/mnt/c/Users/31740/Documents/codes/newcore-rp2350/include/linux/libfdt.h"
   1:/mnt/c/Users/31740/Documents/codes/newcore-rp2350/include/linux/libfdt.h **** /* SPDX-License-Identifier: (GPL-2.0-or-later OR BSD-2-Clause) */
   2:/mnt/c/Users/31740/Documents/codes/newcore-rp2350/include/linux/libfdt.h **** #ifndef LIBFDT_H
   3:/mnt/c/Users/31740/Documents/codes/newcore-rp2350/include/linux/libfdt.h **** #define LIBFDT_H
   4:/mnt/c/Users/31740/Documents/codes/newcore-rp2350/include/linux/libfdt.h **** /*
   5:/mnt/c/Users/31740/Documents/codes/newcore-rp2350/include/linux/libfdt.h ****  * libfdt - Flat Device Tree manipulation
   6:/mnt/c/Users/31740/Documents/codes/newcore-rp2350/include/linux/libfdt.h ****  * Copyright (C) 2006 David Gibson, IBM Corporation.
   7:/mnt/c/Users/31740/Documents/codes/newcore-rp2350/include/linux/libfdt.h ****  */
   8:/mnt/c/Users/31740/Documents/codes/newcore-rp2350/include/linux/libfdt.h **** 
   9:/mnt/c/Users/31740/Documents/codes/newcore-rp2350/include/linux/libfdt.h **** #include <linux/libfdt_env.h>
  10:/mnt/c/Users/31740/Documents/codes/newcore-rp2350/include/linux/libfdt.h **** #include <linux/fdt.h>
  11:/mnt/c/Users/31740/Documents/codes/newcore-rp2350/include/linux/libfdt.h **** 
  12:/mnt/c/Users/31740/Documents/codes/newcore-rp2350/include/linux/libfdt.h **** #ifdef __cplusplus
  13:/mnt/c/Users/31740/Documents/codes/newcore-rp2350/include/linux/libfdt.h **** extern "C" {
  14:/mnt/c/Users/31740/Documents/codes/newcore-rp2350/include/linux/libfdt.h **** #endif
  15:/mnt/c/Users/31740/Documents/codes/newcore-rp2350/include/linux/libfdt.h **** 
  16:/mnt/c/Users/31740/Documents/codes/newcore-rp2350/include/linux/libfdt.h **** 
  17:/mnt/c/Users/31740/Documents/codes/newcore-rp2350/include/linux/libfdt.h **** extern const uint8_t __dtb_file_start_address[];
  18:/mnt/c/Users/31740/Documents/codes/newcore-rp2350/include/linux/libfdt.h **** extern const uint8_t __dtb_file_end_address[];
  19:/mnt/c/Users/31740/Documents/codes/newcore-rp2350/include/linux/libfdt.h **** 
  20:/mnt/c/Users/31740/Documents/codes/newcore-rp2350/include/linux/libfdt.h **** #define FDT_FIRST_SUPPORTED_VERSION	0x02
  21:/mnt/c/Users/31740/Documents/codes/newcore-rp2350/include/linux/libfdt.h **** #define FDT_LAST_COMPATIBLE_VERSION	0x10
  22:/mnt/c/Users/31740/Documents/codes/newcore-rp2350/include/linux/libfdt.h **** #define FDT_LAST_SUPPORTED_VERSION	0x11
  23:/mnt/c/Users/31740/Documents/codes/newcore-rp2350/include/linux/libfdt.h **** 
  24:/mnt/c/Users/31740/Documents/codes/newcore-rp2350/include/linux/libfdt.h **** /* Error codes: informative error codes */
  25:/mnt/c/Users/31740/Documents/codes/newcore-rp2350/include/linux/libfdt.h **** #define FDT_ERR_NOTFOUND	1
  26:/mnt/c/Users/31740/Documents/codes/newcore-rp2350/include/linux/libfdt.h **** 	/* FDT_ERR_NOTFOUND: The requested node or property does not exist */
  27:/mnt/c/Users/31740/Documents/codes/newcore-rp2350/include/linux/libfdt.h **** #define FDT_ERR_EXISTS		2
  28:/mnt/c/Users/31740/Documents/codes/newcore-rp2350/include/linux/libfdt.h **** 	/* FDT_ERR_EXISTS: Attempted to create a node or property which
  29:/mnt/c/Users/31740/Documents/codes/newcore-rp2350/include/linux/libfdt.h **** 	 * already exists */
ARM GAS  /tmp/ccyijaMA.s 			page 3


  30:/mnt/c/Users/31740/Documents/codes/newcore-rp2350/include/linux/libfdt.h **** #define FDT_ERR_NOSPACE		3
  31:/mnt/c/Users/31740/Documents/codes/newcore-rp2350/include/linux/libfdt.h **** 	/* FDT_ERR_NOSPACE: Operation needed to expand the device
  32:/mnt/c/Users/31740/Documents/codes/newcore-rp2350/include/linux/libfdt.h **** 	 * tree, but its buffer did not have sufficient space to
  33:/mnt/c/Users/31740/Documents/codes/newcore-rp2350/include/linux/libfdt.h **** 	 * contain the expanded tree. Use fdt_open_into() to move the
  34:/mnt/c/Users/31740/Documents/codes/newcore-rp2350/include/linux/libfdt.h **** 	 * device tree to a buffer with more space. */
  35:/mnt/c/Users/31740/Documents/codes/newcore-rp2350/include/linux/libfdt.h **** 
  36:/mnt/c/Users/31740/Documents/codes/newcore-rp2350/include/linux/libfdt.h **** /* Error codes: codes for bad parameters */
  37:/mnt/c/Users/31740/Documents/codes/newcore-rp2350/include/linux/libfdt.h **** #define FDT_ERR_BADOFFSET	4
  38:/mnt/c/Users/31740/Documents/codes/newcore-rp2350/include/linux/libfdt.h **** 	/* FDT_ERR_BADOFFSET: Function was passed a structure block
  39:/mnt/c/Users/31740/Documents/codes/newcore-rp2350/include/linux/libfdt.h **** 	 * offset which is out-of-bounds, or which points to an
  40:/mnt/c/Users/31740/Documents/codes/newcore-rp2350/include/linux/libfdt.h **** 	 * unsuitable part of the structure for the operation. */
  41:/mnt/c/Users/31740/Documents/codes/newcore-rp2350/include/linux/libfdt.h **** #define FDT_ERR_BADPATH		5
  42:/mnt/c/Users/31740/Documents/codes/newcore-rp2350/include/linux/libfdt.h **** 	/* FDT_ERR_BADPATH: Function was passed a badly formatted path
  43:/mnt/c/Users/31740/Documents/codes/newcore-rp2350/include/linux/libfdt.h **** 	 * (e.g. missing a leading / for a function which requires an
  44:/mnt/c/Users/31740/Documents/codes/newcore-rp2350/include/linux/libfdt.h **** 	 * absolute path) */
  45:/mnt/c/Users/31740/Documents/codes/newcore-rp2350/include/linux/libfdt.h **** #define FDT_ERR_BADPHANDLE	6
  46:/mnt/c/Users/31740/Documents/codes/newcore-rp2350/include/linux/libfdt.h **** 	/* FDT_ERR_BADPHANDLE: Function was passed an invalid phandle.
  47:/mnt/c/Users/31740/Documents/codes/newcore-rp2350/include/linux/libfdt.h **** 	 * This can be caused either by an invalid phandle property
  48:/mnt/c/Users/31740/Documents/codes/newcore-rp2350/include/linux/libfdt.h **** 	 * length, or the phandle value was either 0 or -1, which are
  49:/mnt/c/Users/31740/Documents/codes/newcore-rp2350/include/linux/libfdt.h **** 	 * not permitted. */
  50:/mnt/c/Users/31740/Documents/codes/newcore-rp2350/include/linux/libfdt.h **** #define FDT_ERR_BADSTATE	7
  51:/mnt/c/Users/31740/Documents/codes/newcore-rp2350/include/linux/libfdt.h **** 	/* FDT_ERR_BADSTATE: Function was passed an incomplete device
  52:/mnt/c/Users/31740/Documents/codes/newcore-rp2350/include/linux/libfdt.h **** 	 * tree created by the sequential-write functions, which is
  53:/mnt/c/Users/31740/Documents/codes/newcore-rp2350/include/linux/libfdt.h **** 	 * not sufficiently complete for the requested operation. */
  54:/mnt/c/Users/31740/Documents/codes/newcore-rp2350/include/linux/libfdt.h **** 
  55:/mnt/c/Users/31740/Documents/codes/newcore-rp2350/include/linux/libfdt.h **** /* Error codes: codes for bad device tree blobs */
  56:/mnt/c/Users/31740/Documents/codes/newcore-rp2350/include/linux/libfdt.h **** #define FDT_ERR_TRUNCATED	8
  57:/mnt/c/Users/31740/Documents/codes/newcore-rp2350/include/linux/libfdt.h **** 	/* FDT_ERR_TRUNCATED: FDT or a sub-block is improperly
  58:/mnt/c/Users/31740/Documents/codes/newcore-rp2350/include/linux/libfdt.h **** 	 * terminated (overflows, goes outside allowed bounds, or
  59:/mnt/c/Users/31740/Documents/codes/newcore-rp2350/include/linux/libfdt.h **** 	 * isn't properly terminated).  */
  60:/mnt/c/Users/31740/Documents/codes/newcore-rp2350/include/linux/libfdt.h **** #define FDT_ERR_BADMAGIC	9
  61:/mnt/c/Users/31740/Documents/codes/newcore-rp2350/include/linux/libfdt.h **** 	/* FDT_ERR_BADMAGIC: Given "device tree" appears not to be a
  62:/mnt/c/Users/31740/Documents/codes/newcore-rp2350/include/linux/libfdt.h **** 	 * device tree at all - it is missing the flattened device
  63:/mnt/c/Users/31740/Documents/codes/newcore-rp2350/include/linux/libfdt.h **** 	 * tree magic number. */
  64:/mnt/c/Users/31740/Documents/codes/newcore-rp2350/include/linux/libfdt.h **** #define FDT_ERR_BADVERSION	10
  65:/mnt/c/Users/31740/Documents/codes/newcore-rp2350/include/linux/libfdt.h **** 	/* FDT_ERR_BADVERSION: Given device tree has a version which
  66:/mnt/c/Users/31740/Documents/codes/newcore-rp2350/include/linux/libfdt.h **** 	 * can't be handled by the requested operation.  For
  67:/mnt/c/Users/31740/Documents/codes/newcore-rp2350/include/linux/libfdt.h **** 	 * read-write functions, this may mean that fdt_open_into() is
  68:/mnt/c/Users/31740/Documents/codes/newcore-rp2350/include/linux/libfdt.h **** 	 * required to convert the tree to the expected version. */
  69:/mnt/c/Users/31740/Documents/codes/newcore-rp2350/include/linux/libfdt.h **** #define FDT_ERR_BADSTRUCTURE	11
  70:/mnt/c/Users/31740/Documents/codes/newcore-rp2350/include/linux/libfdt.h **** 	/* FDT_ERR_BADSTRUCTURE: Given device tree has a corrupt
  71:/mnt/c/Users/31740/Documents/codes/newcore-rp2350/include/linux/libfdt.h **** 	 * structure block or other serious error (e.g. misnested
  72:/mnt/c/Users/31740/Documents/codes/newcore-rp2350/include/linux/libfdt.h **** 	 * nodes, or subnodes preceding properties). */
  73:/mnt/c/Users/31740/Documents/codes/newcore-rp2350/include/linux/libfdt.h **** #define FDT_ERR_BADLAYOUT	12
  74:/mnt/c/Users/31740/Documents/codes/newcore-rp2350/include/linux/libfdt.h **** 	/* FDT_ERR_BADLAYOUT: For read-write functions, the given
  75:/mnt/c/Users/31740/Documents/codes/newcore-rp2350/include/linux/libfdt.h **** 	 * device tree has it's sub-blocks in an order that the
  76:/mnt/c/Users/31740/Documents/codes/newcore-rp2350/include/linux/libfdt.h **** 	 * function can't handle (memory reserve map, then structure,
  77:/mnt/c/Users/31740/Documents/codes/newcore-rp2350/include/linux/libfdt.h **** 	 * then strings).  Use fdt_open_into() to reorganize the tree
  78:/mnt/c/Users/31740/Documents/codes/newcore-rp2350/include/linux/libfdt.h **** 	 * into a form suitable for the read-write operations. */
  79:/mnt/c/Users/31740/Documents/codes/newcore-rp2350/include/linux/libfdt.h **** 
  80:/mnt/c/Users/31740/Documents/codes/newcore-rp2350/include/linux/libfdt.h **** /* "Can't happen" error indicating a bug in libfdt */
  81:/mnt/c/Users/31740/Documents/codes/newcore-rp2350/include/linux/libfdt.h **** #define FDT_ERR_INTERNAL	13
  82:/mnt/c/Users/31740/Documents/codes/newcore-rp2350/include/linux/libfdt.h **** 	/* FDT_ERR_INTERNAL: libfdt has failed an internal assertion.
  83:/mnt/c/Users/31740/Documents/codes/newcore-rp2350/include/linux/libfdt.h **** 	 * Should never be returned, if it is, it indicates a bug in
  84:/mnt/c/Users/31740/Documents/codes/newcore-rp2350/include/linux/libfdt.h **** 	 * libfdt itself. */
  85:/mnt/c/Users/31740/Documents/codes/newcore-rp2350/include/linux/libfdt.h **** 
  86:/mnt/c/Users/31740/Documents/codes/newcore-rp2350/include/linux/libfdt.h **** /* Errors in device tree content */
ARM GAS  /tmp/ccyijaMA.s 			page 4


  87:/mnt/c/Users/31740/Documents/codes/newcore-rp2350/include/linux/libfdt.h **** #define FDT_ERR_BADNCELLS	14
  88:/mnt/c/Users/31740/Documents/codes/newcore-rp2350/include/linux/libfdt.h **** 	/* FDT_ERR_BADNCELLS: Device tree has a #address-cells, #size-cells
  89:/mnt/c/Users/31740/Documents/codes/newcore-rp2350/include/linux/libfdt.h **** 	 * or similar property with a bad format or value */
  90:/mnt/c/Users/31740/Documents/codes/newcore-rp2350/include/linux/libfdt.h **** 
  91:/mnt/c/Users/31740/Documents/codes/newcore-rp2350/include/linux/libfdt.h **** #define FDT_ERR_BADVALUE	15
  92:/mnt/c/Users/31740/Documents/codes/newcore-rp2350/include/linux/libfdt.h **** 	/* FDT_ERR_BADVALUE: Device tree has a property with an unexpected
  93:/mnt/c/Users/31740/Documents/codes/newcore-rp2350/include/linux/libfdt.h **** 	 * value. For example: a property expected to contain a string list
  94:/mnt/c/Users/31740/Documents/codes/newcore-rp2350/include/linux/libfdt.h **** 	 * is not NUL-terminated within the length of its value. */
  95:/mnt/c/Users/31740/Documents/codes/newcore-rp2350/include/linux/libfdt.h **** 
  96:/mnt/c/Users/31740/Documents/codes/newcore-rp2350/include/linux/libfdt.h **** #define FDT_ERR_BADOVERLAY	16
  97:/mnt/c/Users/31740/Documents/codes/newcore-rp2350/include/linux/libfdt.h **** 	/* FDT_ERR_BADOVERLAY: The device tree overlay, while
  98:/mnt/c/Users/31740/Documents/codes/newcore-rp2350/include/linux/libfdt.h **** 	 * correctly structured, cannot be applied due to some
  99:/mnt/c/Users/31740/Documents/codes/newcore-rp2350/include/linux/libfdt.h **** 	 * unexpected or missing value, property or node. */
 100:/mnt/c/Users/31740/Documents/codes/newcore-rp2350/include/linux/libfdt.h **** 
 101:/mnt/c/Users/31740/Documents/codes/newcore-rp2350/include/linux/libfdt.h **** #define FDT_ERR_NOPHANDLES	17
 102:/mnt/c/Users/31740/Documents/codes/newcore-rp2350/include/linux/libfdt.h **** 	/* FDT_ERR_NOPHANDLES: The device tree doesn't have any
 103:/mnt/c/Users/31740/Documents/codes/newcore-rp2350/include/linux/libfdt.h **** 	 * phandle available anymore without causing an overflow */
 104:/mnt/c/Users/31740/Documents/codes/newcore-rp2350/include/linux/libfdt.h **** 
 105:/mnt/c/Users/31740/Documents/codes/newcore-rp2350/include/linux/libfdt.h **** #define FDT_ERR_BADFLAGS	18
 106:/mnt/c/Users/31740/Documents/codes/newcore-rp2350/include/linux/libfdt.h **** 	/* FDT_ERR_BADFLAGS: The function was passed a flags field that
 107:/mnt/c/Users/31740/Documents/codes/newcore-rp2350/include/linux/libfdt.h **** 	 * contains invalid flags or an invalid combination of flags. */
 108:/mnt/c/Users/31740/Documents/codes/newcore-rp2350/include/linux/libfdt.h **** 
 109:/mnt/c/Users/31740/Documents/codes/newcore-rp2350/include/linux/libfdt.h **** #define FDT_ERR_ALIGNMENT	19
 110:/mnt/c/Users/31740/Documents/codes/newcore-rp2350/include/linux/libfdt.h **** 	/* FDT_ERR_ALIGNMENT: The device tree base address is not 8-byte
 111:/mnt/c/Users/31740/Documents/codes/newcore-rp2350/include/linux/libfdt.h **** 	 * aligned. */
 112:/mnt/c/Users/31740/Documents/codes/newcore-rp2350/include/linux/libfdt.h **** 
 113:/mnt/c/Users/31740/Documents/codes/newcore-rp2350/include/linux/libfdt.h **** #define FDT_ERR_MAX		19
 114:/mnt/c/Users/31740/Documents/codes/newcore-rp2350/include/linux/libfdt.h **** 
 115:/mnt/c/Users/31740/Documents/codes/newcore-rp2350/include/linux/libfdt.h **** /* constants */
 116:/mnt/c/Users/31740/Documents/codes/newcore-rp2350/include/linux/libfdt.h **** #define FDT_MAX_PHANDLE 0xfffffffe
 117:/mnt/c/Users/31740/Documents/codes/newcore-rp2350/include/linux/libfdt.h **** 	/* Valid values for phandles range from 1 to 2^32-2. */
 118:/mnt/c/Users/31740/Documents/codes/newcore-rp2350/include/linux/libfdt.h **** 
 119:/mnt/c/Users/31740/Documents/codes/newcore-rp2350/include/linux/libfdt.h **** /**********************************************************************/
 120:/mnt/c/Users/31740/Documents/codes/newcore-rp2350/include/linux/libfdt.h **** /* Low-level functions (you probably don't need these)                */
 121:/mnt/c/Users/31740/Documents/codes/newcore-rp2350/include/linux/libfdt.h **** /**********************************************************************/
 122:/mnt/c/Users/31740/Documents/codes/newcore-rp2350/include/linux/libfdt.h **** 
 123:/mnt/c/Users/31740/Documents/codes/newcore-rp2350/include/linux/libfdt.h **** #ifndef SWIG /* This function is not useful in Python */
 124:/mnt/c/Users/31740/Documents/codes/newcore-rp2350/include/linux/libfdt.h **** const void *fdt_offset_ptr(const void *fdt, int offset, unsigned int checklen);
 125:/mnt/c/Users/31740/Documents/codes/newcore-rp2350/include/linux/libfdt.h **** #endif
 126:/mnt/c/Users/31740/Documents/codes/newcore-rp2350/include/linux/libfdt.h **** static inline void *fdt_offset_ptr_w(void *fdt, int offset, int checklen)
 127:/mnt/c/Users/31740/Documents/codes/newcore-rp2350/include/linux/libfdt.h **** {
 128:/mnt/c/Users/31740/Documents/codes/newcore-rp2350/include/linux/libfdt.h **** 	return (void *)(uintptr_t)fdt_offset_ptr(fdt, offset, checklen);
 129:/mnt/c/Users/31740/Documents/codes/newcore-rp2350/include/linux/libfdt.h **** }
 130:/mnt/c/Users/31740/Documents/codes/newcore-rp2350/include/linux/libfdt.h **** 
 131:/mnt/c/Users/31740/Documents/codes/newcore-rp2350/include/linux/libfdt.h **** uint32_t fdt_next_tag(const void *fdt, int offset, int *nextoffset);
 132:/mnt/c/Users/31740/Documents/codes/newcore-rp2350/include/linux/libfdt.h **** 
 133:/mnt/c/Users/31740/Documents/codes/newcore-rp2350/include/linux/libfdt.h **** /*
 134:/mnt/c/Users/31740/Documents/codes/newcore-rp2350/include/linux/libfdt.h ****  * External helpers to access words from a device tree blob. They're built
 135:/mnt/c/Users/31740/Documents/codes/newcore-rp2350/include/linux/libfdt.h ****  * to work even with unaligned pointers on platforms (such as ARMv5) that don't
 136:/mnt/c/Users/31740/Documents/codes/newcore-rp2350/include/linux/libfdt.h ****  * like unaligned loads and stores.
 137:/mnt/c/Users/31740/Documents/codes/newcore-rp2350/include/linux/libfdt.h ****  */
 138:/mnt/c/Users/31740/Documents/codes/newcore-rp2350/include/linux/libfdt.h **** static inline uint16_t fdt16_ld(const fdt16_t *p)
 139:/mnt/c/Users/31740/Documents/codes/newcore-rp2350/include/linux/libfdt.h **** {
 140:/mnt/c/Users/31740/Documents/codes/newcore-rp2350/include/linux/libfdt.h **** 	const uint8_t *bp = (const uint8_t *)p;
 141:/mnt/c/Users/31740/Documents/codes/newcore-rp2350/include/linux/libfdt.h **** 
 142:/mnt/c/Users/31740/Documents/codes/newcore-rp2350/include/linux/libfdt.h **** 	return ((uint16_t)bp[0] << 8) | bp[1];
 143:/mnt/c/Users/31740/Documents/codes/newcore-rp2350/include/linux/libfdt.h **** }
ARM GAS  /tmp/ccyijaMA.s 			page 5


 144:/mnt/c/Users/31740/Documents/codes/newcore-rp2350/include/linux/libfdt.h **** 
 145:/mnt/c/Users/31740/Documents/codes/newcore-rp2350/include/linux/libfdt.h **** static inline uint32_t fdt32_ld(const fdt32_t *p)
  40              		.loc 3 145 24 view .LVU2
  41              	.LBB264:
 146:/mnt/c/Users/31740/Documents/codes/newcore-rp2350/include/linux/libfdt.h **** {
 147:/mnt/c/Users/31740/Documents/codes/newcore-rp2350/include/linux/libfdt.h **** 	const uint8_t *bp = (const uint8_t *)p;
  42              		.loc 3 147 2 view .LVU3
 148:/mnt/c/Users/31740/Documents/codes/newcore-rp2350/include/linux/libfdt.h **** 
 149:/mnt/c/Users/31740/Documents/codes/newcore-rp2350/include/linux/libfdt.h **** 	return ((uint32_t)bp[0] << 24)
  43              		.loc 3 149 2 view .LVU4
  44              		.loc 3 149 22 is_stmt 0 view .LVU5
  45 0000 027C     		ldrb	r2, [r0, #16]	@ zero_extendqisi2
 150:/mnt/c/Users/31740/Documents/codes/newcore-rp2350/include/linux/libfdt.h **** 		| ((uint32_t)bp[1] << 16)
  46              		.loc 3 150 18 view .LVU6
  47 0002 437C     		ldrb	r3, [r0, #17]	@ zero_extendqisi2
  48              		.loc 3 150 22 view .LVU7
  49 0004 1B04     		lsls	r3, r3, #16
  50              		.loc 3 150 3 view .LVU8
  51 0006 43EA0263 		orr	r3, r3, r2, lsl #24
 151:/mnt/c/Users/31740/Documents/codes/newcore-rp2350/include/linux/libfdt.h **** 		| ((uint32_t)bp[2] << 8)
  52              		.loc 3 151 18 view .LVU9
  53 000a 827C     		ldrb	r2, [r0, #18]	@ zero_extendqisi2
  54              		.loc 3 151 3 view .LVU10
  55 000c 43EA0223 		orr	r3, r3, r2, lsl #8
 152:/mnt/c/Users/31740/Documents/codes/newcore-rp2350/include/linux/libfdt.h **** 		| bp[3];
  56              		.loc 3 152 7 view .LVU11
  57 0010 C27C     		ldrb	r2, [r0, #19]	@ zero_extendqisi2
  58              		.loc 3 152 3 view .LVU12
  59 0012 1343     		orrs	r3, r3, r2
  60              	.LVL1:
  61              		.loc 3 152 3 view .LVU13
  62              	.LBE264:
  63              	.LBE263:
  48:/mnt/c/Users/31740/Documents/codes/newcore-rp2350/lib/fdt/libfdt_internal.h **** 		(const struct fdt_reserve_entry *)
  49:/mnt/c/Users/31740/Documents/codes/newcore-rp2350/lib/fdt/libfdt_internal.h **** 		((const char *)fdt + fdt_off_mem_rsvmap(fdt));
  50:/mnt/c/Users/31740/Documents/codes/newcore-rp2350/lib/fdt/libfdt_internal.h **** 
  51:/mnt/c/Users/31740/Documents/codes/newcore-rp2350/lib/fdt/libfdt_internal.h **** 	return rsv_table + n;
  64              		.loc 2 51 2 is_stmt 1 view .LVU14
  65              		.loc 2 51 19 is_stmt 0 view .LVU15
  66 0014 03EBC103 		add	r3, r3, r1, lsl #3
  67              	.LVL2:
  52:/mnt/c/Users/31740/Documents/codes/newcore-rp2350/lib/fdt/libfdt_internal.h **** }
  68              		.loc 2 52 1 view .LVU16
  69 0018 1844     		add	r0, r0, r3
  70              	.LVL3:
  71              		.loc 2 52 1 view .LVU17
  72 001a 7047     		bx	lr
  73              		.cfi_endproc
  74              	.LFE70:
  76              		.section	.text.fdt_blocks_misordered_,"ax",%progbits
  77              		.align	1
  78              		.syntax unified
  79              		.thumb
  80              		.thumb_func
  82              	fdt_blocks_misordered_:
  83              	.LVL4:
  84              	.LFB75:
ARM GAS  /tmp/ccyijaMA.s 			page 6


   1:/mnt/c/Users/31740/Documents/codes/newcore-rp2350/lib/fdt/fdt_rw.c **** // SPDX-License-Identifier: (GPL-2.0-or-later OR BSD-2-Clause)
   2:/mnt/c/Users/31740/Documents/codes/newcore-rp2350/lib/fdt/fdt_rw.c **** /*
   3:/mnt/c/Users/31740/Documents/codes/newcore-rp2350/lib/fdt/fdt_rw.c ****  * libfdt - Flat Device Tree manipulation
   4:/mnt/c/Users/31740/Documents/codes/newcore-rp2350/lib/fdt/fdt_rw.c ****  * Copyright (C) 2006 David Gibson, IBM Corporation.
   5:/mnt/c/Users/31740/Documents/codes/newcore-rp2350/lib/fdt/fdt_rw.c ****  */
   6:/mnt/c/Users/31740/Documents/codes/newcore-rp2350/lib/fdt/fdt_rw.c **** #include <linux/libfdt_env.h>
   7:/mnt/c/Users/31740/Documents/codes/newcore-rp2350/lib/fdt/fdt_rw.c **** 
   8:/mnt/c/Users/31740/Documents/codes/newcore-rp2350/lib/fdt/fdt_rw.c **** #include <linux/fdt.h>
   9:/mnt/c/Users/31740/Documents/codes/newcore-rp2350/lib/fdt/fdt_rw.c **** #include <linux/libfdt.h>
  10:/mnt/c/Users/31740/Documents/codes/newcore-rp2350/lib/fdt/fdt_rw.c **** 
  11:/mnt/c/Users/31740/Documents/codes/newcore-rp2350/lib/fdt/fdt_rw.c **** 
  12:/mnt/c/Users/31740/Documents/codes/newcore-rp2350/lib/fdt/fdt_rw.c **** #include "libfdt_internal.h"
  13:/mnt/c/Users/31740/Documents/codes/newcore-rp2350/lib/fdt/fdt_rw.c **** 
  14:/mnt/c/Users/31740/Documents/codes/newcore-rp2350/lib/fdt/fdt_rw.c **** static int fdt_blocks_misordered_(const void *fdt,
  15:/mnt/c/Users/31740/Documents/codes/newcore-rp2350/lib/fdt/fdt_rw.c **** 				  int mem_rsv_size, int struct_size)
  16:/mnt/c/Users/31740/Documents/codes/newcore-rp2350/lib/fdt/fdt_rw.c **** {
  85              		.loc 1 16 1 is_stmt 1 view -0
  86              		.cfi_startproc
  87              		@ args = 0, pretend = 0, frame = 0
  88              		@ frame_needed = 0, uses_anonymous_args = 0
  17:/mnt/c/Users/31740/Documents/codes/newcore-rp2350/lib/fdt/fdt_rw.c **** 	return (fdt_off_mem_rsvmap(fdt) < FDT_ALIGN(sizeof(struct fdt_header), 8))
  89              		.loc 1 17 2 view .LVU19
  90              	.LBB265:
  91              	.LBI265:
 145:/mnt/c/Users/31740/Documents/codes/newcore-rp2350/include/linux/libfdt.h **** {
  92              		.loc 3 145 24 view .LVU20
  93              	.LBB266:
 147:/mnt/c/Users/31740/Documents/codes/newcore-rp2350/include/linux/libfdt.h **** 
  94              		.loc 3 147 2 view .LVU21
 149:/mnt/c/Users/31740/Documents/codes/newcore-rp2350/include/linux/libfdt.h **** 		| ((uint32_t)bp[1] << 16)
  95              		.loc 3 149 2 view .LVU22
 149:/mnt/c/Users/31740/Documents/codes/newcore-rp2350/include/linux/libfdt.h **** 		| ((uint32_t)bp[1] << 16)
  96              		.loc 3 149 22 is_stmt 0 view .LVU23
  97 0000 90F810C0 		ldrb	ip, [r0, #16]	@ zero_extendqisi2
 150:/mnt/c/Users/31740/Documents/codes/newcore-rp2350/include/linux/libfdt.h **** 		| ((uint32_t)bp[2] << 8)
  98              		.loc 3 150 18 view .LVU24
  99 0004 437C     		ldrb	r3, [r0, #17]	@ zero_extendqisi2
 150:/mnt/c/Users/31740/Documents/codes/newcore-rp2350/include/linux/libfdt.h **** 		| ((uint32_t)bp[2] << 8)
 100              		.loc 3 150 22 view .LVU25
 101 0006 1B04     		lsls	r3, r3, #16
 150:/mnt/c/Users/31740/Documents/codes/newcore-rp2350/include/linux/libfdt.h **** 		| ((uint32_t)bp[2] << 8)
 102              		.loc 3 150 3 view .LVU26
 103 0008 43EA0C63 		orr	r3, r3, ip, lsl #24
 151:/mnt/c/Users/31740/Documents/codes/newcore-rp2350/include/linux/libfdt.h **** 		| bp[3];
 104              		.loc 3 151 18 view .LVU27
 105 000c 90F812C0 		ldrb	ip, [r0, #18]	@ zero_extendqisi2
 151:/mnt/c/Users/31740/Documents/codes/newcore-rp2350/include/linux/libfdt.h **** 		| bp[3];
 106              		.loc 3 151 3 view .LVU28
 107 0010 43EA0C23 		orr	r3, r3, ip, lsl #8
 108              		.loc 3 152 7 view .LVU29
 109 0014 90F813C0 		ldrb	ip, [r0, #19]	@ zero_extendqisi2
 110              		.loc 3 152 3 view .LVU30
 111 0018 43EA0C03 		orr	r3, r3, ip
 112              	.LVL5:
 113              		.loc 3 152 3 view .LVU31
 114              	.LBE266:
 115              	.LBE265:
ARM GAS  /tmp/ccyijaMA.s 			page 7


  18:/mnt/c/Users/31740/Documents/codes/newcore-rp2350/lib/fdt/fdt_rw.c **** 		|| (fdt_off_dt_struct(fdt) <
  19:/mnt/c/Users/31740/Documents/codes/newcore-rp2350/lib/fdt/fdt_rw.c **** 		    (fdt_off_mem_rsvmap(fdt) + mem_rsv_size))
  20:/mnt/c/Users/31740/Documents/codes/newcore-rp2350/lib/fdt/fdt_rw.c **** 		|| (fdt_off_dt_strings(fdt) <
  21:/mnt/c/Users/31740/Documents/codes/newcore-rp2350/lib/fdt/fdt_rw.c **** 		    (fdt_off_dt_struct(fdt) + struct_size))
  22:/mnt/c/Users/31740/Documents/codes/newcore-rp2350/lib/fdt/fdt_rw.c **** 		|| (fdt_totalsize(fdt) <
 116              		.loc 1 22 3 view .LVU32
 117 001c 272B     		cmp	r3, #39
 118 001e 3DD9     		bls	.L4
  16:/mnt/c/Users/31740/Documents/codes/newcore-rp2350/lib/fdt/fdt_rw.c **** 	return (fdt_off_mem_rsvmap(fdt) < FDT_ALIGN(sizeof(struct fdt_header), 8))
 119              		.loc 1 16 1 view .LVU33
 120 0020 00B5     		push	{lr}
 121              	.LCFI0:
 122              		.cfi_def_cfa_offset 4
 123              		.cfi_offset 14, -4
 124              	.LVL6:
 125              	.LBB267:
 126              	.LBI267:
 145:/mnt/c/Users/31740/Documents/codes/newcore-rp2350/include/linux/libfdt.h **** {
 127              		.loc 3 145 24 is_stmt 1 view .LVU34
 128              	.LBB268:
 147:/mnt/c/Users/31740/Documents/codes/newcore-rp2350/include/linux/libfdt.h **** 
 129              		.loc 3 147 2 view .LVU35
 149:/mnt/c/Users/31740/Documents/codes/newcore-rp2350/include/linux/libfdt.h **** 		| ((uint32_t)bp[1] << 16)
 130              		.loc 3 149 2 view .LVU36
 149:/mnt/c/Users/31740/Documents/codes/newcore-rp2350/include/linux/libfdt.h **** 		| ((uint32_t)bp[1] << 16)
 131              		.loc 3 149 22 is_stmt 0 view .LVU37
 132 0022 90F808E0 		ldrb	lr, [r0, #8]	@ zero_extendqisi2
 150:/mnt/c/Users/31740/Documents/codes/newcore-rp2350/include/linux/libfdt.h **** 		| ((uint32_t)bp[2] << 8)
 133              		.loc 3 150 18 view .LVU38
 134 0026 90F809C0 		ldrb	ip, [r0, #9]	@ zero_extendqisi2
 150:/mnt/c/Users/31740/Documents/codes/newcore-rp2350/include/linux/libfdt.h **** 		| ((uint32_t)bp[2] << 8)
 135              		.loc 3 150 22 view .LVU39
 136 002a 4FEA0C4C 		lsl	ip, ip, #16
 150:/mnt/c/Users/31740/Documents/codes/newcore-rp2350/include/linux/libfdt.h **** 		| ((uint32_t)bp[2] << 8)
 137              		.loc 3 150 3 view .LVU40
 138 002e 4CEA0E6C 		orr	ip, ip, lr, lsl #24
 151:/mnt/c/Users/31740/Documents/codes/newcore-rp2350/include/linux/libfdt.h **** 		| bp[3];
 139              		.loc 3 151 18 view .LVU41
 140 0032 90F80AE0 		ldrb	lr, [r0, #10]	@ zero_extendqisi2
 151:/mnt/c/Users/31740/Documents/codes/newcore-rp2350/include/linux/libfdt.h **** 		| bp[3];
 141              		.loc 3 151 3 view .LVU42
 142 0036 4CEA0E2C 		orr	ip, ip, lr, lsl #8
 143              		.loc 3 152 7 view .LVU43
 144 003a 90F80BE0 		ldrb	lr, [r0, #11]	@ zero_extendqisi2
 145              		.loc 3 152 3 view .LVU44
 146 003e 4CEA0E0C 		orr	ip, ip, lr
 147              	.LVL7:
 148              		.loc 3 152 3 view .LVU45
 149              	.LBE268:
 150              	.LBE267:
  19:/mnt/c/Users/31740/Documents/codes/newcore-rp2350/lib/fdt/fdt_rw.c **** 		|| (fdt_off_dt_strings(fdt) <
 151              		.loc 1 19 32 discriminator 1 view .LVU46
 152 0042 1944     		add	r1, r1, r3
 153              	.LVL8:
  18:/mnt/c/Users/31740/Documents/codes/newcore-rp2350/lib/fdt/fdt_rw.c **** 		    (fdt_off_mem_rsvmap(fdt) + mem_rsv_size))
 154              		.loc 1 18 3 view .LVU47
 155 0044 6145     		cmp	r1, ip
ARM GAS  /tmp/ccyijaMA.s 			page 8


 156 0046 2BD8     		bhi	.L5
 157              	.LVL9:
 158              	.LBB269:
 159              	.LBI269:
 145:/mnt/c/Users/31740/Documents/codes/newcore-rp2350/include/linux/libfdt.h **** {
 160              		.loc 3 145 24 is_stmt 1 view .LVU48
 161              	.LBB270:
 147:/mnt/c/Users/31740/Documents/codes/newcore-rp2350/include/linux/libfdt.h **** 
 162              		.loc 3 147 2 view .LVU49
 149:/mnt/c/Users/31740/Documents/codes/newcore-rp2350/include/linux/libfdt.h **** 		| ((uint32_t)bp[1] << 16)
 163              		.loc 3 149 2 view .LVU50
 149:/mnt/c/Users/31740/Documents/codes/newcore-rp2350/include/linux/libfdt.h **** 		| ((uint32_t)bp[1] << 16)
 164              		.loc 3 149 22 is_stmt 0 view .LVU51
 165 0048 017B     		ldrb	r1, [r0, #12]	@ zero_extendqisi2
 150:/mnt/c/Users/31740/Documents/codes/newcore-rp2350/include/linux/libfdt.h **** 		| ((uint32_t)bp[2] << 8)
 166              		.loc 3 150 18 view .LVU52
 167 004a 437B     		ldrb	r3, [r0, #13]	@ zero_extendqisi2
 150:/mnt/c/Users/31740/Documents/codes/newcore-rp2350/include/linux/libfdt.h **** 		| ((uint32_t)bp[2] << 8)
 168              		.loc 3 150 22 view .LVU53
 169 004c 1B04     		lsls	r3, r3, #16
 150:/mnt/c/Users/31740/Documents/codes/newcore-rp2350/include/linux/libfdt.h **** 		| ((uint32_t)bp[2] << 8)
 170              		.loc 3 150 3 view .LVU54
 171 004e 43EA0163 		orr	r3, r3, r1, lsl #24
 151:/mnt/c/Users/31740/Documents/codes/newcore-rp2350/include/linux/libfdt.h **** 		| bp[3];
 172              		.loc 3 151 18 view .LVU55
 173 0052 817B     		ldrb	r1, [r0, #14]	@ zero_extendqisi2
 151:/mnt/c/Users/31740/Documents/codes/newcore-rp2350/include/linux/libfdt.h **** 		| bp[3];
 174              		.loc 3 151 3 view .LVU56
 175 0054 43EA0123 		orr	r3, r3, r1, lsl #8
 176              		.loc 3 152 7 view .LVU57
 177 0058 C17B     		ldrb	r1, [r0, #15]	@ zero_extendqisi2
 178              		.loc 3 152 3 view .LVU58
 179 005a 0B43     		orrs	r3, r3, r1
 180              	.LVL10:
 181              		.loc 3 152 3 view .LVU59
 182              	.LBE270:
 183              	.LBE269:
  21:/mnt/c/Users/31740/Documents/codes/newcore-rp2350/lib/fdt/fdt_rw.c **** 		|| (fdt_totalsize(fdt) <
 184              		.loc 1 21 31 discriminator 1 view .LVU60
 185 005c 6244     		add	r2, r2, ip
 186              	.LVL11:
  20:/mnt/c/Users/31740/Documents/codes/newcore-rp2350/lib/fdt/fdt_rw.c **** 		    (fdt_off_dt_struct(fdt) + struct_size))
 187              		.loc 1 20 3 view .LVU61
 188 005e 9A42     		cmp	r2, r3
 189 0060 21D8     		bhi	.L6
 190              	.LVL12:
 191              	.LBB271:
 192              	.LBI271:
 145:/mnt/c/Users/31740/Documents/codes/newcore-rp2350/include/linux/libfdt.h **** {
 193              		.loc 3 145 24 is_stmt 1 view .LVU62
 194              	.LBB272:
 147:/mnt/c/Users/31740/Documents/codes/newcore-rp2350/include/linux/libfdt.h **** 
 195              		.loc 3 147 2 view .LVU63
 149:/mnt/c/Users/31740/Documents/codes/newcore-rp2350/include/linux/libfdt.h **** 		| ((uint32_t)bp[1] << 16)
 196              		.loc 3 149 2 view .LVU64
 149:/mnt/c/Users/31740/Documents/codes/newcore-rp2350/include/linux/libfdt.h **** 		| ((uint32_t)bp[1] << 16)
 197              		.loc 3 149 22 is_stmt 0 view .LVU65
ARM GAS  /tmp/ccyijaMA.s 			page 9


 198 0062 0179     		ldrb	r1, [r0, #4]	@ zero_extendqisi2
 150:/mnt/c/Users/31740/Documents/codes/newcore-rp2350/include/linux/libfdt.h **** 		| ((uint32_t)bp[2] << 8)
 199              		.loc 3 150 18 view .LVU66
 200 0064 4279     		ldrb	r2, [r0, #5]	@ zero_extendqisi2
 150:/mnt/c/Users/31740/Documents/codes/newcore-rp2350/include/linux/libfdt.h **** 		| ((uint32_t)bp[2] << 8)
 201              		.loc 3 150 22 view .LVU67
 202 0066 1204     		lsls	r2, r2, #16
 150:/mnt/c/Users/31740/Documents/codes/newcore-rp2350/include/linux/libfdt.h **** 		| ((uint32_t)bp[2] << 8)
 203              		.loc 3 150 3 view .LVU68
 204 0068 42EA0162 		orr	r2, r2, r1, lsl #24
 151:/mnt/c/Users/31740/Documents/codes/newcore-rp2350/include/linux/libfdt.h **** 		| bp[3];
 205              		.loc 3 151 18 view .LVU69
 206 006c 8179     		ldrb	r1, [r0, #6]	@ zero_extendqisi2
 151:/mnt/c/Users/31740/Documents/codes/newcore-rp2350/include/linux/libfdt.h **** 		| bp[3];
 207              		.loc 3 151 3 view .LVU70
 208 006e 42EA0122 		orr	r2, r2, r1, lsl #8
 209              		.loc 3 152 7 view .LVU71
 210 0072 C179     		ldrb	r1, [r0, #7]	@ zero_extendqisi2
 211              		.loc 3 152 3 view .LVU72
 212 0074 0A43     		orrs	r2, r2, r1
 213              	.LVL13:
 214              		.loc 3 152 3 view .LVU73
 215              	.LBE272:
 216              	.LBE271:
 217              	.LBB273:
 218              	.LBI273:
 145:/mnt/c/Users/31740/Documents/codes/newcore-rp2350/include/linux/libfdt.h **** {
 219              		.loc 3 145 24 is_stmt 1 view .LVU74
 220              	.LBB274:
 147:/mnt/c/Users/31740/Documents/codes/newcore-rp2350/include/linux/libfdt.h **** 
 221              		.loc 3 147 2 view .LVU75
 149:/mnt/c/Users/31740/Documents/codes/newcore-rp2350/include/linux/libfdt.h **** 		| ((uint32_t)bp[1] << 16)
 222              		.loc 3 149 2 view .LVU76
 149:/mnt/c/Users/31740/Documents/codes/newcore-rp2350/include/linux/libfdt.h **** 		| ((uint32_t)bp[1] << 16)
 223              		.loc 3 149 22 is_stmt 0 view .LVU77
 224 0076 90F820C0 		ldrb	ip, [r0, #32]	@ zero_extendqisi2
 150:/mnt/c/Users/31740/Documents/codes/newcore-rp2350/include/linux/libfdt.h **** 		| ((uint32_t)bp[2] << 8)
 225              		.loc 3 150 18 view .LVU78
 226 007a 90F82110 		ldrb	r1, [r0, #33]	@ zero_extendqisi2
 150:/mnt/c/Users/31740/Documents/codes/newcore-rp2350/include/linux/libfdt.h **** 		| ((uint32_t)bp[2] << 8)
 227              		.loc 3 150 22 view .LVU79
 228 007e 0904     		lsls	r1, r1, #16
 150:/mnt/c/Users/31740/Documents/codes/newcore-rp2350/include/linux/libfdt.h **** 		| ((uint32_t)bp[2] << 8)
 229              		.loc 3 150 3 view .LVU80
 230 0080 41EA0C61 		orr	r1, r1, ip, lsl #24
 151:/mnt/c/Users/31740/Documents/codes/newcore-rp2350/include/linux/libfdt.h **** 		| bp[3];
 231              		.loc 3 151 18 view .LVU81
 232 0084 90F822C0 		ldrb	ip, [r0, #34]	@ zero_extendqisi2
 151:/mnt/c/Users/31740/Documents/codes/newcore-rp2350/include/linux/libfdt.h **** 		| bp[3];
 233              		.loc 3 151 3 view .LVU82
 234 0088 41EA0C21 		orr	r1, r1, ip, lsl #8
 235              		.loc 3 152 7 view .LVU83
 236 008c 90F82300 		ldrb	r0, [r0, #35]	@ zero_extendqisi2
 237              	.LVL14:
 238              		.loc 3 152 3 view .LVU84
 239 0090 0143     		orrs	r1, r1, r0
 240              	.LVL15:
ARM GAS  /tmp/ccyijaMA.s 			page 10


 241              		.loc 3 152 3 view .LVU85
 242              	.LBE274:
 243              	.LBE273:
  23:/mnt/c/Users/31740/Documents/codes/newcore-rp2350/lib/fdt/fdt_rw.c **** 		    (fdt_off_dt_strings(fdt) + fdt_size_dt_strings(fdt)));
 244              		.loc 1 23 32 discriminator 2 view .LVU86
 245 0092 0B44     		add	r3, r3, r1
  22:/mnt/c/Users/31740/Documents/codes/newcore-rp2350/lib/fdt/fdt_rw.c **** 		    (fdt_off_dt_strings(fdt) + fdt_size_dt_strings(fdt)));
 246              		.loc 1 22 3 discriminator 2 view .LVU87
 247 0094 9342     		cmp	r3, r2
 248 0096 08D8     		bhi	.L7
  22:/mnt/c/Users/31740/Documents/codes/newcore-rp2350/lib/fdt/fdt_rw.c **** 		    (fdt_off_dt_strings(fdt) + fdt_size_dt_strings(fdt)));
 249              		.loc 1 22 3 discriminator 3 view .LVU88
 250 0098 0020     		movs	r0, #0
 251 009a 02E0     		b	.L2
 252              	.LVL16:
 253              	.L4:
 254              	.LCFI1:
 255              		.cfi_def_cfa_offset 0
 256              		.cfi_restore 14
  22:/mnt/c/Users/31740/Documents/codes/newcore-rp2350/lib/fdt/fdt_rw.c **** 		    (fdt_off_dt_strings(fdt) + fdt_size_dt_strings(fdt)));
 257              		.loc 1 22 3 discriminator 1 view .LVU89
 258 009c 0120     		movs	r0, #1
 259              	.LVL17:
  24:/mnt/c/Users/31740/Documents/codes/newcore-rp2350/lib/fdt/fdt_rw.c **** }
 260              		.loc 1 24 1 view .LVU90
 261 009e 7047     		bx	lr
 262              	.LVL18:
 263              	.L5:
 264              	.LCFI2:
 265              		.cfi_def_cfa_offset 4
 266              		.cfi_offset 14, -4
  22:/mnt/c/Users/31740/Documents/codes/newcore-rp2350/lib/fdt/fdt_rw.c **** 		    (fdt_off_dt_strings(fdt) + fdt_size_dt_strings(fdt)));
 267              		.loc 1 22 3 discriminator 1 view .LVU91
 268 00a0 0120     		movs	r0, #1
 269              	.LVL19:
 270              	.L2:
 271              		.loc 1 24 1 view .LVU92
 272 00a2 5DF804FB 		ldr	pc, [sp], #4
 273              	.LVL20:
 274              	.L6:
  22:/mnt/c/Users/31740/Documents/codes/newcore-rp2350/lib/fdt/fdt_rw.c **** 		    (fdt_off_dt_strings(fdt) + fdt_size_dt_strings(fdt)));
 275              		.loc 1 22 3 discriminator 1 view .LVU93
 276 00a6 0120     		movs	r0, #1
 277              	.LVL21:
  22:/mnt/c/Users/31740/Documents/codes/newcore-rp2350/lib/fdt/fdt_rw.c **** 		    (fdt_off_dt_strings(fdt) + fdt_size_dt_strings(fdt)));
 278              		.loc 1 22 3 discriminator 1 view .LVU94
 279 00a8 FBE7     		b	.L2
 280              	.LVL22:
 281              	.L7:
  22:/mnt/c/Users/31740/Documents/codes/newcore-rp2350/lib/fdt/fdt_rw.c **** 		    (fdt_off_dt_strings(fdt) + fdt_size_dt_strings(fdt)));
 282              		.loc 1 22 3 discriminator 1 view .LVU95
 283 00aa 0120     		movs	r0, #1
  22:/mnt/c/Users/31740/Documents/codes/newcore-rp2350/lib/fdt/fdt_rw.c **** 		    (fdt_off_dt_strings(fdt) + fdt_size_dt_strings(fdt)));
 284              		.loc 1 22 3 view .LVU96
 285 00ac F9E7     		b	.L2
 286              		.cfi_endproc
 287              	.LFE75:
ARM GAS  /tmp/ccyijaMA.s 			page 11


 289              		.section	.text.fdt_data_size_,"ax",%progbits
 290              		.align	1
 291              		.syntax unified
 292              		.thumb
 293              		.thumb_func
 295              	fdt_data_size_:
 296              	.LVL23:
 297              	.LFB77:
  25:/mnt/c/Users/31740/Documents/codes/newcore-rp2350/lib/fdt/fdt_rw.c **** 
  26:/mnt/c/Users/31740/Documents/codes/newcore-rp2350/lib/fdt/fdt_rw.c **** static int fdt_rw_probe_(void *fdt)
  27:/mnt/c/Users/31740/Documents/codes/newcore-rp2350/lib/fdt/fdt_rw.c **** {
  28:/mnt/c/Users/31740/Documents/codes/newcore-rp2350/lib/fdt/fdt_rw.c **** 	if (can_assume(VALID_DTB))
  29:/mnt/c/Users/31740/Documents/codes/newcore-rp2350/lib/fdt/fdt_rw.c **** 		return 0;
  30:/mnt/c/Users/31740/Documents/codes/newcore-rp2350/lib/fdt/fdt_rw.c **** 	FDT_RO_PROBE(fdt);
  31:/mnt/c/Users/31740/Documents/codes/newcore-rp2350/lib/fdt/fdt_rw.c **** 
  32:/mnt/c/Users/31740/Documents/codes/newcore-rp2350/lib/fdt/fdt_rw.c **** 	if (!can_assume(LATEST) && fdt_version(fdt) < 17)
  33:/mnt/c/Users/31740/Documents/codes/newcore-rp2350/lib/fdt/fdt_rw.c **** 		return -FDT_ERR_BADVERSION;
  34:/mnt/c/Users/31740/Documents/codes/newcore-rp2350/lib/fdt/fdt_rw.c **** 	if (fdt_blocks_misordered_(fdt, sizeof(struct fdt_reserve_entry),
  35:/mnt/c/Users/31740/Documents/codes/newcore-rp2350/lib/fdt/fdt_rw.c **** 				   fdt_size_dt_struct(fdt)))
  36:/mnt/c/Users/31740/Documents/codes/newcore-rp2350/lib/fdt/fdt_rw.c **** 		return -FDT_ERR_BADLAYOUT;
  37:/mnt/c/Users/31740/Documents/codes/newcore-rp2350/lib/fdt/fdt_rw.c **** 	if (!can_assume(LATEST) && fdt_version(fdt) > 17)
  38:/mnt/c/Users/31740/Documents/codes/newcore-rp2350/lib/fdt/fdt_rw.c **** 		fdt_set_version(fdt, 17);
  39:/mnt/c/Users/31740/Documents/codes/newcore-rp2350/lib/fdt/fdt_rw.c **** 
  40:/mnt/c/Users/31740/Documents/codes/newcore-rp2350/lib/fdt/fdt_rw.c **** 	return 0;
  41:/mnt/c/Users/31740/Documents/codes/newcore-rp2350/lib/fdt/fdt_rw.c **** }
  42:/mnt/c/Users/31740/Documents/codes/newcore-rp2350/lib/fdt/fdt_rw.c **** 
  43:/mnt/c/Users/31740/Documents/codes/newcore-rp2350/lib/fdt/fdt_rw.c **** #define FDT_RW_PROBE(fdt) \
  44:/mnt/c/Users/31740/Documents/codes/newcore-rp2350/lib/fdt/fdt_rw.c **** 	{ \
  45:/mnt/c/Users/31740/Documents/codes/newcore-rp2350/lib/fdt/fdt_rw.c **** 		int err_; \
  46:/mnt/c/Users/31740/Documents/codes/newcore-rp2350/lib/fdt/fdt_rw.c **** 		if ((err_ = fdt_rw_probe_(fdt)) != 0) \
  47:/mnt/c/Users/31740/Documents/codes/newcore-rp2350/lib/fdt/fdt_rw.c **** 			return err_; \
  48:/mnt/c/Users/31740/Documents/codes/newcore-rp2350/lib/fdt/fdt_rw.c **** 	}
  49:/mnt/c/Users/31740/Documents/codes/newcore-rp2350/lib/fdt/fdt_rw.c **** 
  50:/mnt/c/Users/31740/Documents/codes/newcore-rp2350/lib/fdt/fdt_rw.c **** static inline unsigned int fdt_data_size_(void *fdt)
  51:/mnt/c/Users/31740/Documents/codes/newcore-rp2350/lib/fdt/fdt_rw.c **** {
 298              		.loc 1 51 1 is_stmt 1 view -0
 299              		.cfi_startproc
 300              		@ args = 0, pretend = 0, frame = 0
 301              		@ frame_needed = 0, uses_anonymous_args = 0
 302              		@ link register save eliminated.
  52:/mnt/c/Users/31740/Documents/codes/newcore-rp2350/lib/fdt/fdt_rw.c **** 	return fdt_off_dt_strings(fdt) + fdt_size_dt_strings(fdt);
 303              		.loc 1 52 2 view .LVU98
 304              	.LBB275:
 305              	.LBI275:
 145:/mnt/c/Users/31740/Documents/codes/newcore-rp2350/include/linux/libfdt.h **** {
 306              		.loc 3 145 24 view .LVU99
 307              	.LBB276:
 147:/mnt/c/Users/31740/Documents/codes/newcore-rp2350/include/linux/libfdt.h **** 
 308              		.loc 3 147 2 view .LVU100
 149:/mnt/c/Users/31740/Documents/codes/newcore-rp2350/include/linux/libfdt.h **** 		| ((uint32_t)bp[1] << 16)
 309              		.loc 3 149 2 view .LVU101
 149:/mnt/c/Users/31740/Documents/codes/newcore-rp2350/include/linux/libfdt.h **** 		| ((uint32_t)bp[1] << 16)
 310              		.loc 3 149 22 is_stmt 0 view .LVU102
 311 0000 027B     		ldrb	r2, [r0, #12]	@ zero_extendqisi2
 150:/mnt/c/Users/31740/Documents/codes/newcore-rp2350/include/linux/libfdt.h **** 		| ((uint32_t)bp[2] << 8)
 312              		.loc 3 150 18 view .LVU103
 313 0002 437B     		ldrb	r3, [r0, #13]	@ zero_extendqisi2
ARM GAS  /tmp/ccyijaMA.s 			page 12


 150:/mnt/c/Users/31740/Documents/codes/newcore-rp2350/include/linux/libfdt.h **** 		| ((uint32_t)bp[2] << 8)
 314              		.loc 3 150 22 view .LVU104
 315 0004 1B04     		lsls	r3, r3, #16
 150:/mnt/c/Users/31740/Documents/codes/newcore-rp2350/include/linux/libfdt.h **** 		| ((uint32_t)bp[2] << 8)
 316              		.loc 3 150 3 view .LVU105
 317 0006 43EA0263 		orr	r3, r3, r2, lsl #24
 151:/mnt/c/Users/31740/Documents/codes/newcore-rp2350/include/linux/libfdt.h **** 		| bp[3];
 318              		.loc 3 151 18 view .LVU106
 319 000a 827B     		ldrb	r2, [r0, #14]	@ zero_extendqisi2
 151:/mnt/c/Users/31740/Documents/codes/newcore-rp2350/include/linux/libfdt.h **** 		| bp[3];
 320              		.loc 3 151 3 view .LVU107
 321 000c 43EA0223 		orr	r3, r3, r2, lsl #8
 322              		.loc 3 152 7 view .LVU108
 323 0010 C27B     		ldrb	r2, [r0, #15]	@ zero_extendqisi2
 324              		.loc 3 152 3 view .LVU109
 325 0012 1343     		orrs	r3, r3, r2
 326              	.LVL24:
 327              		.loc 3 152 3 view .LVU110
 328              	.LBE276:
 329              	.LBE275:
 330              	.LBB277:
 331              	.LBI277:
 145:/mnt/c/Users/31740/Documents/codes/newcore-rp2350/include/linux/libfdt.h **** {
 332              		.loc 3 145 24 is_stmt 1 view .LVU111
 333              	.LBB278:
 147:/mnt/c/Users/31740/Documents/codes/newcore-rp2350/include/linux/libfdt.h **** 
 334              		.loc 3 147 2 view .LVU112
 149:/mnt/c/Users/31740/Documents/codes/newcore-rp2350/include/linux/libfdt.h **** 		| ((uint32_t)bp[1] << 16)
 335              		.loc 3 149 2 view .LVU113
 149:/mnt/c/Users/31740/Documents/codes/newcore-rp2350/include/linux/libfdt.h **** 		| ((uint32_t)bp[1] << 16)
 336              		.loc 3 149 22 is_stmt 0 view .LVU114
 337 0014 90F82010 		ldrb	r1, [r0, #32]	@ zero_extendqisi2
 150:/mnt/c/Users/31740/Documents/codes/newcore-rp2350/include/linux/libfdt.h **** 		| ((uint32_t)bp[2] << 8)
 338              		.loc 3 150 18 view .LVU115
 339 0018 90F82120 		ldrb	r2, [r0, #33]	@ zero_extendqisi2
 150:/mnt/c/Users/31740/Documents/codes/newcore-rp2350/include/linux/libfdt.h **** 		| ((uint32_t)bp[2] << 8)
 340              		.loc 3 150 22 view .LVU116
 341 001c 1204     		lsls	r2, r2, #16
 150:/mnt/c/Users/31740/Documents/codes/newcore-rp2350/include/linux/libfdt.h **** 		| ((uint32_t)bp[2] << 8)
 342              		.loc 3 150 3 view .LVU117
 343 001e 42EA0162 		orr	r2, r2, r1, lsl #24
 151:/mnt/c/Users/31740/Documents/codes/newcore-rp2350/include/linux/libfdt.h **** 		| bp[3];
 344              		.loc 3 151 18 view .LVU118
 345 0022 90F82210 		ldrb	r1, [r0, #34]	@ zero_extendqisi2
 151:/mnt/c/Users/31740/Documents/codes/newcore-rp2350/include/linux/libfdt.h **** 		| bp[3];
 346              		.loc 3 151 3 view .LVU119
 347 0026 42EA0122 		orr	r2, r2, r1, lsl #8
 348              		.loc 3 152 7 view .LVU120
 349 002a 90F82310 		ldrb	r1, [r0, #35]	@ zero_extendqisi2
 350              		.loc 3 152 3 view .LVU121
 351 002e 42EA0100 		orr	r0, r2, r1
 352              	.LVL25:
 353              		.loc 3 152 3 view .LVU122
 354              	.LBE278:
 355              	.LBE277:
  53:/mnt/c/Users/31740/Documents/codes/newcore-rp2350/lib/fdt/fdt_rw.c **** }
 356              		.loc 1 53 1 view .LVU123
ARM GAS  /tmp/ccyijaMA.s 			page 13


 357 0032 1844     		add	r0, r0, r3
 358 0034 7047     		bx	lr
 359              		.cfi_endproc
 360              	.LFE77:
 362              		.section	.text.fdt_rw_probe_,"ax",%progbits
 363              		.align	1
 364              		.syntax unified
 365              		.thumb
 366              		.thumb_func
 368              	fdt_rw_probe_:
 369              	.LVL26:
 370              	.LFB76:
  27:/mnt/c/Users/31740/Documents/codes/newcore-rp2350/lib/fdt/fdt_rw.c **** 	if (can_assume(VALID_DTB))
 371              		.loc 1 27 1 is_stmt 1 view -0
 372              		.cfi_startproc
 373              		@ args = 0, pretend = 0, frame = 0
 374              		@ frame_needed = 0, uses_anonymous_args = 0
  27:/mnt/c/Users/31740/Documents/codes/newcore-rp2350/lib/fdt/fdt_rw.c **** 	if (can_assume(VALID_DTB))
 375              		.loc 1 27 1 is_stmt 0 view .LVU125
 376 0000 38B5     		push	{r3, r4, r5, lr}
 377              	.LCFI3:
 378              		.cfi_def_cfa_offset 16
 379              		.cfi_offset 3, -16
 380              		.cfi_offset 4, -12
 381              		.cfi_offset 5, -8
 382              		.cfi_offset 14, -4
 383 0002 0446     		mov	r4, r0
  28:/mnt/c/Users/31740/Documents/codes/newcore-rp2350/lib/fdt/fdt_rw.c **** 		return 0;
 384              		.loc 1 28 2 is_stmt 1 view .LVU126
 385              	.LBB279:
  30:/mnt/c/Users/31740/Documents/codes/newcore-rp2350/lib/fdt/fdt_rw.c **** 
 386              		.loc 1 30 2 view .LVU127
  30:/mnt/c/Users/31740/Documents/codes/newcore-rp2350/lib/fdt/fdt_rw.c **** 
 387              		.loc 1 30 2 view .LVU128
 388 0004 FFF7FEFF 		bl	fdt_ro_probe_
 389              	.LVL27:
  30:/mnt/c/Users/31740/Documents/codes/newcore-rp2350/lib/fdt/fdt_rw.c **** 
 390              		.loc 1 30 2 is_stmt 0 discriminator 1 view .LVU129
 391 0008 0028     		cmp	r0, #0
  30:/mnt/c/Users/31740/Documents/codes/newcore-rp2350/lib/fdt/fdt_rw.c **** 
 392              		.loc 1 30 2 discriminator 1 view .LVU130
 393 000a 23DB     		blt	.L13
 394              	.LBE279:
  30:/mnt/c/Users/31740/Documents/codes/newcore-rp2350/lib/fdt/fdt_rw.c **** 
 395              		.loc 1 30 19 is_stmt 1 discriminator 2 view .LVU131
  32:/mnt/c/Users/31740/Documents/codes/newcore-rp2350/lib/fdt/fdt_rw.c **** 		return -FDT_ERR_BADVERSION;
 396              		.loc 1 32 2 view .LVU132
 397              	.LVL28:
 398              	.LBB280:
 399              	.LBI280:
 145:/mnt/c/Users/31740/Documents/codes/newcore-rp2350/include/linux/libfdt.h **** {
 400              		.loc 3 145 24 view .LVU133
 401              	.LBB281:
 147:/mnt/c/Users/31740/Documents/codes/newcore-rp2350/include/linux/libfdt.h **** 
 402              		.loc 3 147 2 view .LVU134
 149:/mnt/c/Users/31740/Documents/codes/newcore-rp2350/include/linux/libfdt.h **** 		| ((uint32_t)bp[1] << 16)
 403              		.loc 3 149 2 view .LVU135
ARM GAS  /tmp/ccyijaMA.s 			page 14


 149:/mnt/c/Users/31740/Documents/codes/newcore-rp2350/include/linux/libfdt.h **** 		| ((uint32_t)bp[1] << 16)
 404              		.loc 3 149 22 is_stmt 0 view .LVU136
 405 000c 237D     		ldrb	r3, [r4, #20]	@ zero_extendqisi2
 150:/mnt/c/Users/31740/Documents/codes/newcore-rp2350/include/linux/libfdt.h **** 		| ((uint32_t)bp[2] << 8)
 406              		.loc 3 150 18 view .LVU137
 407 000e 657D     		ldrb	r5, [r4, #21]	@ zero_extendqisi2
 150:/mnt/c/Users/31740/Documents/codes/newcore-rp2350/include/linux/libfdt.h **** 		| ((uint32_t)bp[2] << 8)
 408              		.loc 3 150 22 view .LVU138
 409 0010 2D04     		lsls	r5, r5, #16
 150:/mnt/c/Users/31740/Documents/codes/newcore-rp2350/include/linux/libfdt.h **** 		| ((uint32_t)bp[2] << 8)
 410              		.loc 3 150 3 view .LVU139
 411 0012 45EA0365 		orr	r5, r5, r3, lsl #24
 151:/mnt/c/Users/31740/Documents/codes/newcore-rp2350/include/linux/libfdt.h **** 		| bp[3];
 412              		.loc 3 151 18 view .LVU140
 413 0016 A37D     		ldrb	r3, [r4, #22]	@ zero_extendqisi2
 151:/mnt/c/Users/31740/Documents/codes/newcore-rp2350/include/linux/libfdt.h **** 		| bp[3];
 414              		.loc 3 151 3 view .LVU141
 415 0018 45EA0325 		orr	r5, r5, r3, lsl #8
 416              		.loc 3 152 7 view .LVU142
 417 001c E37D     		ldrb	r3, [r4, #23]	@ zero_extendqisi2
 418              		.loc 3 152 3 view .LVU143
 419 001e 1D43     		orrs	r5, r5, r3
 420              	.LVL29:
 421              		.loc 3 152 3 view .LVU144
 422              	.LBE281:
 423              	.LBE280:
  32:/mnt/c/Users/31740/Documents/codes/newcore-rp2350/lib/fdt/fdt_rw.c **** 		return -FDT_ERR_BADVERSION;
 424              		.loc 1 32 26 discriminator 1 view .LVU145
 425 0020 102D     		cmp	r5, #16
 426 0022 18D9     		bls	.L15
  34:/mnt/c/Users/31740/Documents/codes/newcore-rp2350/lib/fdt/fdt_rw.c **** 				   fdt_size_dt_struct(fdt)))
 427              		.loc 1 34 2 is_stmt 1 view .LVU146
 428              	.LVL30:
 429              	.LBB282:
 430              	.LBI282:
 145:/mnt/c/Users/31740/Documents/codes/newcore-rp2350/include/linux/libfdt.h **** {
 431              		.loc 3 145 24 view .LVU147
 432              	.LBB283:
 147:/mnt/c/Users/31740/Documents/codes/newcore-rp2350/include/linux/libfdt.h **** 
 433              		.loc 3 147 2 view .LVU148
 149:/mnt/c/Users/31740/Documents/codes/newcore-rp2350/include/linux/libfdt.h **** 		| ((uint32_t)bp[1] << 16)
 434              		.loc 3 149 2 view .LVU149
 149:/mnt/c/Users/31740/Documents/codes/newcore-rp2350/include/linux/libfdt.h **** 		| ((uint32_t)bp[1] << 16)
 435              		.loc 3 149 22 is_stmt 0 view .LVU150
 436 0024 94F82420 		ldrb	r2, [r4, #36]	@ zero_extendqisi2
 150:/mnt/c/Users/31740/Documents/codes/newcore-rp2350/include/linux/libfdt.h **** 		| ((uint32_t)bp[2] << 8)
 437              		.loc 3 150 18 view .LVU151
 438 0028 94F82530 		ldrb	r3, [r4, #37]	@ zero_extendqisi2
 150:/mnt/c/Users/31740/Documents/codes/newcore-rp2350/include/linux/libfdt.h **** 		| ((uint32_t)bp[2] << 8)
 439              		.loc 3 150 22 view .LVU152
 440 002c 1B04     		lsls	r3, r3, #16
 150:/mnt/c/Users/31740/Documents/codes/newcore-rp2350/include/linux/libfdt.h **** 		| ((uint32_t)bp[2] << 8)
 441              		.loc 3 150 3 view .LVU153
 442 002e 43EA0263 		orr	r3, r3, r2, lsl #24
 151:/mnt/c/Users/31740/Documents/codes/newcore-rp2350/include/linux/libfdt.h **** 		| bp[3];
 443              		.loc 3 151 18 view .LVU154
 444 0032 94F82620 		ldrb	r2, [r4, #38]	@ zero_extendqisi2
ARM GAS  /tmp/ccyijaMA.s 			page 15


 151:/mnt/c/Users/31740/Documents/codes/newcore-rp2350/include/linux/libfdt.h **** 		| bp[3];
 445              		.loc 3 151 3 view .LVU155
 446 0036 43EA0223 		orr	r3, r3, r2, lsl #8
 447              		.loc 3 152 7 view .LVU156
 448 003a 94F82720 		ldrb	r2, [r4, #39]	@ zero_extendqisi2
 449              	.LVL31:
 450              		.loc 3 152 7 view .LVU157
 451              	.LBE283:
 452              	.LBE282:
  34:/mnt/c/Users/31740/Documents/codes/newcore-rp2350/lib/fdt/fdt_rw.c **** 				   fdt_size_dt_struct(fdt)))
 453              		.loc 1 34 6 view .LVU158
 454 003e 1A43     		orrs	r2, r2, r3
 455 0040 0821     		movs	r1, #8
 456 0042 2046     		mov	r0, r4
 457              	.LVL32:
  34:/mnt/c/Users/31740/Documents/codes/newcore-rp2350/lib/fdt/fdt_rw.c **** 				   fdt_size_dt_struct(fdt)))
 458              		.loc 1 34 6 view .LVU159
 459 0044 FFF7FEFF 		bl	fdt_blocks_misordered_
 460              	.LVL33:
  34:/mnt/c/Users/31740/Documents/codes/newcore-rp2350/lib/fdt/fdt_rw.c **** 				   fdt_size_dt_struct(fdt)))
 461              		.loc 1 34 5 discriminator 1 view .LVU160
 462 0048 40B9     		cbnz	r0, .L16
  37:/mnt/c/Users/31740/Documents/codes/newcore-rp2350/lib/fdt/fdt_rw.c **** 		fdt_set_version(fdt, 17);
 463              		.loc 1 37 2 is_stmt 1 view .LVU161
 464              	.LVL34:
  37:/mnt/c/Users/31740/Documents/codes/newcore-rp2350/lib/fdt/fdt_rw.c **** 		fdt_set_version(fdt, 17);
 465              		.loc 1 37 26 is_stmt 0 discriminator 1 view .LVU162
 466 004a 112D     		cmp	r5, #17
 467 004c 02D9     		bls	.L13
  38:/mnt/c/Users/31740/Documents/codes/newcore-rp2350/lib/fdt/fdt_rw.c **** 
 468              		.loc 1 38 3 is_stmt 1 view .LVU163
 469              	.LVL35:
 470              	.LBB284:
 471              	.LBI284:
 153:/mnt/c/Users/31740/Documents/codes/newcore-rp2350/include/linux/libfdt.h **** }
 154:/mnt/c/Users/31740/Documents/codes/newcore-rp2350/include/linux/libfdt.h **** 
 155:/mnt/c/Users/31740/Documents/codes/newcore-rp2350/include/linux/libfdt.h **** static inline void fdt32_st(void *property, uint32_t value)
 156:/mnt/c/Users/31740/Documents/codes/newcore-rp2350/include/linux/libfdt.h **** {
 157:/mnt/c/Users/31740/Documents/codes/newcore-rp2350/include/linux/libfdt.h **** 	uint8_t *bp = (uint8_t *)property;
 158:/mnt/c/Users/31740/Documents/codes/newcore-rp2350/include/linux/libfdt.h **** 
 159:/mnt/c/Users/31740/Documents/codes/newcore-rp2350/include/linux/libfdt.h **** 	bp[0] = value >> 24;
 160:/mnt/c/Users/31740/Documents/codes/newcore-rp2350/include/linux/libfdt.h **** 	bp[1] = (value >> 16) & 0xff;
 161:/mnt/c/Users/31740/Documents/codes/newcore-rp2350/include/linux/libfdt.h **** 	bp[2] = (value >> 8) & 0xff;
 162:/mnt/c/Users/31740/Documents/codes/newcore-rp2350/include/linux/libfdt.h **** 	bp[3] = value & 0xff;
 163:/mnt/c/Users/31740/Documents/codes/newcore-rp2350/include/linux/libfdt.h **** }
 164:/mnt/c/Users/31740/Documents/codes/newcore-rp2350/include/linux/libfdt.h **** 
 165:/mnt/c/Users/31740/Documents/codes/newcore-rp2350/include/linux/libfdt.h **** static inline uint64_t fdt64_ld(const fdt64_t *p)
 166:/mnt/c/Users/31740/Documents/codes/newcore-rp2350/include/linux/libfdt.h **** {
 167:/mnt/c/Users/31740/Documents/codes/newcore-rp2350/include/linux/libfdt.h **** 	const uint8_t *bp = (const uint8_t *)p;
 168:/mnt/c/Users/31740/Documents/codes/newcore-rp2350/include/linux/libfdt.h **** 
 169:/mnt/c/Users/31740/Documents/codes/newcore-rp2350/include/linux/libfdt.h **** 	return ((uint64_t)bp[0] << 56)
 170:/mnt/c/Users/31740/Documents/codes/newcore-rp2350/include/linux/libfdt.h **** 		| ((uint64_t)bp[1] << 48)
 171:/mnt/c/Users/31740/Documents/codes/newcore-rp2350/include/linux/libfdt.h **** 		| ((uint64_t)bp[2] << 40)
 172:/mnt/c/Users/31740/Documents/codes/newcore-rp2350/include/linux/libfdt.h **** 		| ((uint64_t)bp[3] << 32)
 173:/mnt/c/Users/31740/Documents/codes/newcore-rp2350/include/linux/libfdt.h **** 		| ((uint64_t)bp[4] << 24)
 174:/mnt/c/Users/31740/Documents/codes/newcore-rp2350/include/linux/libfdt.h **** 		| ((uint64_t)bp[5] << 16)
 175:/mnt/c/Users/31740/Documents/codes/newcore-rp2350/include/linux/libfdt.h **** 		| ((uint64_t)bp[6] << 8)
ARM GAS  /tmp/ccyijaMA.s 			page 16


 176:/mnt/c/Users/31740/Documents/codes/newcore-rp2350/include/linux/libfdt.h **** 		| bp[7];
 177:/mnt/c/Users/31740/Documents/codes/newcore-rp2350/include/linux/libfdt.h **** }
 178:/mnt/c/Users/31740/Documents/codes/newcore-rp2350/include/linux/libfdt.h **** 
 179:/mnt/c/Users/31740/Documents/codes/newcore-rp2350/include/linux/libfdt.h **** static inline void fdt64_st(void *property, uint64_t value)
 180:/mnt/c/Users/31740/Documents/codes/newcore-rp2350/include/linux/libfdt.h **** {
 181:/mnt/c/Users/31740/Documents/codes/newcore-rp2350/include/linux/libfdt.h **** 	uint8_t *bp = (uint8_t *)property;
 182:/mnt/c/Users/31740/Documents/codes/newcore-rp2350/include/linux/libfdt.h **** 
 183:/mnt/c/Users/31740/Documents/codes/newcore-rp2350/include/linux/libfdt.h **** 	bp[0] = value >> 56;
 184:/mnt/c/Users/31740/Documents/codes/newcore-rp2350/include/linux/libfdt.h **** 	bp[1] = (value >> 48) & 0xff;
 185:/mnt/c/Users/31740/Documents/codes/newcore-rp2350/include/linux/libfdt.h **** 	bp[2] = (value >> 40) & 0xff;
 186:/mnt/c/Users/31740/Documents/codes/newcore-rp2350/include/linux/libfdt.h **** 	bp[3] = (value >> 32) & 0xff;
 187:/mnt/c/Users/31740/Documents/codes/newcore-rp2350/include/linux/libfdt.h **** 	bp[4] = (value >> 24) & 0xff;
 188:/mnt/c/Users/31740/Documents/codes/newcore-rp2350/include/linux/libfdt.h **** 	bp[5] = (value >> 16) & 0xff;
 189:/mnt/c/Users/31740/Documents/codes/newcore-rp2350/include/linux/libfdt.h **** 	bp[6] = (value >> 8) & 0xff;
 190:/mnt/c/Users/31740/Documents/codes/newcore-rp2350/include/linux/libfdt.h **** 	bp[7] = value & 0xff;
 191:/mnt/c/Users/31740/Documents/codes/newcore-rp2350/include/linux/libfdt.h **** }
 192:/mnt/c/Users/31740/Documents/codes/newcore-rp2350/include/linux/libfdt.h **** 
 193:/mnt/c/Users/31740/Documents/codes/newcore-rp2350/include/linux/libfdt.h **** /**********************************************************************/
 194:/mnt/c/Users/31740/Documents/codes/newcore-rp2350/include/linux/libfdt.h **** /* Traversal functions                                                */
 195:/mnt/c/Users/31740/Documents/codes/newcore-rp2350/include/linux/libfdt.h **** /**********************************************************************/
 196:/mnt/c/Users/31740/Documents/codes/newcore-rp2350/include/linux/libfdt.h **** 
 197:/mnt/c/Users/31740/Documents/codes/newcore-rp2350/include/linux/libfdt.h **** int fdt_next_node(const void *fdt, int offset, int *depth);
 198:/mnt/c/Users/31740/Documents/codes/newcore-rp2350/include/linux/libfdt.h **** 
 199:/mnt/c/Users/31740/Documents/codes/newcore-rp2350/include/linux/libfdt.h **** /**
 200:/mnt/c/Users/31740/Documents/codes/newcore-rp2350/include/linux/libfdt.h ****  * fdt_first_subnode() - get offset of first direct subnode
 201:/mnt/c/Users/31740/Documents/codes/newcore-rp2350/include/linux/libfdt.h ****  * @fdt:	FDT blob
 202:/mnt/c/Users/31740/Documents/codes/newcore-rp2350/include/linux/libfdt.h ****  * @offset:	Offset of node to check
 203:/mnt/c/Users/31740/Documents/codes/newcore-rp2350/include/linux/libfdt.h ****  *
 204:/mnt/c/Users/31740/Documents/codes/newcore-rp2350/include/linux/libfdt.h ****  * Return: offset of first subnode, or -FDT_ERR_NOTFOUND if there is none
 205:/mnt/c/Users/31740/Documents/codes/newcore-rp2350/include/linux/libfdt.h ****  */
 206:/mnt/c/Users/31740/Documents/codes/newcore-rp2350/include/linux/libfdt.h **** int fdt_first_subnode(const void *fdt, int offset);
 207:/mnt/c/Users/31740/Documents/codes/newcore-rp2350/include/linux/libfdt.h **** 
 208:/mnt/c/Users/31740/Documents/codes/newcore-rp2350/include/linux/libfdt.h **** /**
 209:/mnt/c/Users/31740/Documents/codes/newcore-rp2350/include/linux/libfdt.h ****  * fdt_next_subnode() - get offset of next direct subnode
 210:/mnt/c/Users/31740/Documents/codes/newcore-rp2350/include/linux/libfdt.h ****  * @fdt:	FDT blob
 211:/mnt/c/Users/31740/Documents/codes/newcore-rp2350/include/linux/libfdt.h ****  * @offset:	Offset of previous subnode
 212:/mnt/c/Users/31740/Documents/codes/newcore-rp2350/include/linux/libfdt.h ****  *
 213:/mnt/c/Users/31740/Documents/codes/newcore-rp2350/include/linux/libfdt.h ****  * After first calling fdt_first_subnode(), call this function repeatedly to
 214:/mnt/c/Users/31740/Documents/codes/newcore-rp2350/include/linux/libfdt.h ****  * get direct subnodes of a parent node.
 215:/mnt/c/Users/31740/Documents/codes/newcore-rp2350/include/linux/libfdt.h ****  *
 216:/mnt/c/Users/31740/Documents/codes/newcore-rp2350/include/linux/libfdt.h ****  * Return: offset of next subnode, or -FDT_ERR_NOTFOUND if there are no more
 217:/mnt/c/Users/31740/Documents/codes/newcore-rp2350/include/linux/libfdt.h ****  *         subnodes
 218:/mnt/c/Users/31740/Documents/codes/newcore-rp2350/include/linux/libfdt.h ****  */
 219:/mnt/c/Users/31740/Documents/codes/newcore-rp2350/include/linux/libfdt.h **** int fdt_next_subnode(const void *fdt, int offset);
 220:/mnt/c/Users/31740/Documents/codes/newcore-rp2350/include/linux/libfdt.h **** 
 221:/mnt/c/Users/31740/Documents/codes/newcore-rp2350/include/linux/libfdt.h **** /**
 222:/mnt/c/Users/31740/Documents/codes/newcore-rp2350/include/linux/libfdt.h ****  * fdt_for_each_subnode - iterate over all subnodes of a parent
 223:/mnt/c/Users/31740/Documents/codes/newcore-rp2350/include/linux/libfdt.h ****  *
 224:/mnt/c/Users/31740/Documents/codes/newcore-rp2350/include/linux/libfdt.h ****  * @node:	child node (int, lvalue)
 225:/mnt/c/Users/31740/Documents/codes/newcore-rp2350/include/linux/libfdt.h ****  * @fdt:	FDT blob (const void *)
 226:/mnt/c/Users/31740/Documents/codes/newcore-rp2350/include/linux/libfdt.h ****  * @parent:	parent node (int)
 227:/mnt/c/Users/31740/Documents/codes/newcore-rp2350/include/linux/libfdt.h ****  *
 228:/mnt/c/Users/31740/Documents/codes/newcore-rp2350/include/linux/libfdt.h ****  * This is actually a wrapper around a for loop and would be used like so:
 229:/mnt/c/Users/31740/Documents/codes/newcore-rp2350/include/linux/libfdt.h ****  *
 230:/mnt/c/Users/31740/Documents/codes/newcore-rp2350/include/linux/libfdt.h ****  *	fdt_for_each_subnode(node, fdt, parent) {
 231:/mnt/c/Users/31740/Documents/codes/newcore-rp2350/include/linux/libfdt.h ****  *		Use node
 232:/mnt/c/Users/31740/Documents/codes/newcore-rp2350/include/linux/libfdt.h ****  *		...
ARM GAS  /tmp/ccyijaMA.s 			page 17


 233:/mnt/c/Users/31740/Documents/codes/newcore-rp2350/include/linux/libfdt.h ****  *	}
 234:/mnt/c/Users/31740/Documents/codes/newcore-rp2350/include/linux/libfdt.h ****  *
 235:/mnt/c/Users/31740/Documents/codes/newcore-rp2350/include/linux/libfdt.h ****  *	if ((node < 0) && (node != -FDT_ERR_NOTFOUND)) {
 236:/mnt/c/Users/31740/Documents/codes/newcore-rp2350/include/linux/libfdt.h ****  *		Error handling
 237:/mnt/c/Users/31740/Documents/codes/newcore-rp2350/include/linux/libfdt.h ****  *	}
 238:/mnt/c/Users/31740/Documents/codes/newcore-rp2350/include/linux/libfdt.h ****  *
 239:/mnt/c/Users/31740/Documents/codes/newcore-rp2350/include/linux/libfdt.h ****  * Note that this is implemented as a macro and @node is used as
 240:/mnt/c/Users/31740/Documents/codes/newcore-rp2350/include/linux/libfdt.h ****  * iterator in the loop. The parent variable be constant or even a
 241:/mnt/c/Users/31740/Documents/codes/newcore-rp2350/include/linux/libfdt.h ****  * literal.
 242:/mnt/c/Users/31740/Documents/codes/newcore-rp2350/include/linux/libfdt.h ****  */
 243:/mnt/c/Users/31740/Documents/codes/newcore-rp2350/include/linux/libfdt.h **** #define fdt_for_each_subnode(node, fdt, parent)		\
 244:/mnt/c/Users/31740/Documents/codes/newcore-rp2350/include/linux/libfdt.h **** 	for (node = fdt_first_subnode(fdt, parent);	\
 245:/mnt/c/Users/31740/Documents/codes/newcore-rp2350/include/linux/libfdt.h **** 	     node >= 0;					\
 246:/mnt/c/Users/31740/Documents/codes/newcore-rp2350/include/linux/libfdt.h **** 	     node = fdt_next_subnode(fdt, node))
 247:/mnt/c/Users/31740/Documents/codes/newcore-rp2350/include/linux/libfdt.h **** 
 248:/mnt/c/Users/31740/Documents/codes/newcore-rp2350/include/linux/libfdt.h **** /**********************************************************************/
 249:/mnt/c/Users/31740/Documents/codes/newcore-rp2350/include/linux/libfdt.h **** /* General functions                                                  */
 250:/mnt/c/Users/31740/Documents/codes/newcore-rp2350/include/linux/libfdt.h **** /**********************************************************************/
 251:/mnt/c/Users/31740/Documents/codes/newcore-rp2350/include/linux/libfdt.h **** #define fdt_get_header(fdt, field) \
 252:/mnt/c/Users/31740/Documents/codes/newcore-rp2350/include/linux/libfdt.h **** 	(fdt32_ld(&((const struct fdt_header *)(fdt))->field))
 253:/mnt/c/Users/31740/Documents/codes/newcore-rp2350/include/linux/libfdt.h **** #define fdt_magic(fdt)			(fdt_get_header(fdt, magic))
 254:/mnt/c/Users/31740/Documents/codes/newcore-rp2350/include/linux/libfdt.h **** #define fdt_totalsize(fdt)		(fdt_get_header(fdt, totalsize))
 255:/mnt/c/Users/31740/Documents/codes/newcore-rp2350/include/linux/libfdt.h **** #define fdt_off_dt_struct(fdt)		(fdt_get_header(fdt, off_dt_struct))
 256:/mnt/c/Users/31740/Documents/codes/newcore-rp2350/include/linux/libfdt.h **** #define fdt_off_dt_strings(fdt)		(fdt_get_header(fdt, off_dt_strings))
 257:/mnt/c/Users/31740/Documents/codes/newcore-rp2350/include/linux/libfdt.h **** #define fdt_off_mem_rsvmap(fdt)		(fdt_get_header(fdt, off_mem_rsvmap))
 258:/mnt/c/Users/31740/Documents/codes/newcore-rp2350/include/linux/libfdt.h **** #define fdt_version(fdt)		(fdt_get_header(fdt, version))
 259:/mnt/c/Users/31740/Documents/codes/newcore-rp2350/include/linux/libfdt.h **** #define fdt_last_comp_version(fdt)	(fdt_get_header(fdt, last_comp_version))
 260:/mnt/c/Users/31740/Documents/codes/newcore-rp2350/include/linux/libfdt.h **** #define fdt_boot_cpuid_phys(fdt)	(fdt_get_header(fdt, boot_cpuid_phys))
 261:/mnt/c/Users/31740/Documents/codes/newcore-rp2350/include/linux/libfdt.h **** #define fdt_size_dt_strings(fdt)	(fdt_get_header(fdt, size_dt_strings))
 262:/mnt/c/Users/31740/Documents/codes/newcore-rp2350/include/linux/libfdt.h **** #define fdt_size_dt_struct(fdt)		(fdt_get_header(fdt, size_dt_struct))
 263:/mnt/c/Users/31740/Documents/codes/newcore-rp2350/include/linux/libfdt.h **** 
 264:/mnt/c/Users/31740/Documents/codes/newcore-rp2350/include/linux/libfdt.h **** #define fdt_set_hdr_(name) \
 265:/mnt/c/Users/31740/Documents/codes/newcore-rp2350/include/linux/libfdt.h **** 	static inline void fdt_set_##name(void *fdt, uint32_t val) \
 266:/mnt/c/Users/31740/Documents/codes/newcore-rp2350/include/linux/libfdt.h **** 	{ \
 267:/mnt/c/Users/31740/Documents/codes/newcore-rp2350/include/linux/libfdt.h **** 		struct fdt_header *fdth = (struct fdt_header *)fdt; \
 268:/mnt/c/Users/31740/Documents/codes/newcore-rp2350/include/linux/libfdt.h **** 		fdth->name = cpu_to_fdt32(val); \
 269:/mnt/c/Users/31740/Documents/codes/newcore-rp2350/include/linux/libfdt.h **** 	}
 270:/mnt/c/Users/31740/Documents/codes/newcore-rp2350/include/linux/libfdt.h **** fdt_set_hdr_(magic)
 271:/mnt/c/Users/31740/Documents/codes/newcore-rp2350/include/linux/libfdt.h **** fdt_set_hdr_(totalsize)
 272:/mnt/c/Users/31740/Documents/codes/newcore-rp2350/include/linux/libfdt.h **** fdt_set_hdr_(off_dt_struct)
 273:/mnt/c/Users/31740/Documents/codes/newcore-rp2350/include/linux/libfdt.h **** fdt_set_hdr_(off_dt_strings)
 274:/mnt/c/Users/31740/Documents/codes/newcore-rp2350/include/linux/libfdt.h **** fdt_set_hdr_(off_mem_rsvmap)
 275:/mnt/c/Users/31740/Documents/codes/newcore-rp2350/include/linux/libfdt.h **** fdt_set_hdr_(version)
 472              		.loc 3 275 1 view .LVU164
 473              	.LBB285:
 474              		.loc 3 275 1 view .LVU165
 475              		.loc 3 275 1 view .LVU166
 476              		.loc 3 275 1 is_stmt 0 discriminator 1 view .LVU167
 477 004e 4FF08853 		mov	r3, #285212672
 478 0052 6361     		str	r3, [r4, #20]
 479              	.LVL36:
 480              	.L13:
 481              		.loc 3 275 1 discriminator 1 view .LVU168
 482              	.LBE285:
 483              	.LBE284:
  41:/mnt/c/Users/31740/Documents/codes/newcore-rp2350/lib/fdt/fdt_rw.c **** 
 484              		.loc 1 41 1 view .LVU169
ARM GAS  /tmp/ccyijaMA.s 			page 18


 485 0054 38BD     		pop	{r3, r4, r5, pc}
 486              	.LVL37:
 487              	.L15:
  33:/mnt/c/Users/31740/Documents/codes/newcore-rp2350/lib/fdt/fdt_rw.c **** 	if (fdt_blocks_misordered_(fdt, sizeof(struct fdt_reserve_entry),
 488              		.loc 1 33 10 view .LVU170
 489 0056 6FF00900 		mvn	r0, #9
 490              	.LVL38:
  33:/mnt/c/Users/31740/Documents/codes/newcore-rp2350/lib/fdt/fdt_rw.c **** 	if (fdt_blocks_misordered_(fdt, sizeof(struct fdt_reserve_entry),
 491              		.loc 1 33 10 view .LVU171
 492 005a FBE7     		b	.L13
 493              	.LVL39:
 494              	.L16:
  36:/mnt/c/Users/31740/Documents/codes/newcore-rp2350/lib/fdt/fdt_rw.c **** 	if (!can_assume(LATEST) && fdt_version(fdt) > 17)
 495              		.loc 1 36 10 view .LVU172
 496 005c 6FF00B00 		mvn	r0, #11
 497 0060 F8E7     		b	.L13
 498              		.cfi_endproc
 499              	.LFE76:
 501              		.section	.text.fdt_splice_,"ax",%progbits
 502              		.align	1
 503              		.syntax unified
 504              		.thumb
 505              		.thumb_func
 507              	fdt_splice_:
 508              	.LVL40:
 509              	.LFB78:
  54:/mnt/c/Users/31740/Documents/codes/newcore-rp2350/lib/fdt/fdt_rw.c **** 
  55:/mnt/c/Users/31740/Documents/codes/newcore-rp2350/lib/fdt/fdt_rw.c **** static int fdt_splice_(void *fdt, void *splicepoint, int oldlen, int newlen)
  56:/mnt/c/Users/31740/Documents/codes/newcore-rp2350/lib/fdt/fdt_rw.c **** {
 510              		.loc 1 56 1 is_stmt 1 view -0
 511              		.cfi_startproc
 512              		@ args = 0, pretend = 0, frame = 0
 513              		@ frame_needed = 0, uses_anonymous_args = 0
 514              		.loc 1 56 1 is_stmt 0 view .LVU174
 515 0000 F8B5     		push	{r3, r4, r5, r6, r7, lr}
 516              	.LCFI4:
 517              		.cfi_def_cfa_offset 24
 518              		.cfi_offset 3, -24
 519              		.cfi_offset 4, -20
 520              		.cfi_offset 5, -16
 521              		.cfi_offset 6, -12
 522              		.cfi_offset 7, -8
 523              		.cfi_offset 14, -4
 524 0002 0546     		mov	r5, r0
 525 0004 0E46     		mov	r6, r1
 526 0006 1446     		mov	r4, r2
 527 0008 1F46     		mov	r7, r3
  57:/mnt/c/Users/31740/Documents/codes/newcore-rp2350/lib/fdt/fdt_rw.c **** 	char *p = splicepoint;
 528              		.loc 1 57 2 is_stmt 1 view .LVU175
 529              	.LVL41:
  58:/mnt/c/Users/31740/Documents/codes/newcore-rp2350/lib/fdt/fdt_rw.c **** 	unsigned int dsize = fdt_data_size_(fdt);
 530              		.loc 1 58 2 view .LVU176
 531              		.loc 1 58 23 is_stmt 0 view .LVU177
 532 000a FFF7FEFF 		bl	fdt_data_size_
 533              	.LVL42:
  59:/mnt/c/Users/31740/Documents/codes/newcore-rp2350/lib/fdt/fdt_rw.c **** 	size_t soff = p - (char *)fdt;
 534              		.loc 1 59 2 is_stmt 1 view .LVU178
ARM GAS  /tmp/ccyijaMA.s 			page 19


 535              		.loc 1 59 18 is_stmt 0 view .LVU179
 536 000e 731B     		subs	r3, r6, r5
 537              	.LVL43:
  60:/mnt/c/Users/31740/Documents/codes/newcore-rp2350/lib/fdt/fdt_rw.c **** 
  61:/mnt/c/Users/31740/Documents/codes/newcore-rp2350/lib/fdt/fdt_rw.c **** 	if ((oldlen < 0) || (soff + oldlen < soff) || (soff + oldlen > dsize))
 538              		.loc 1 61 2 is_stmt 1 view .LVU180
 539              		.loc 1 61 5 is_stmt 0 view .LVU181
 540 0010 002C     		cmp	r4, #0
 541 0012 1EDB     		blt	.L20
 542              		.loc 1 61 19 discriminator 1 view .LVU182
 543 0014 E318     		adds	r3, r4, r3
 544              	.LVL44:
 545              		.loc 1 61 19 discriminator 1 view .LVU183
 546 0016 1FD2     		bcs	.L21
 547              		.loc 1 61 45 discriminator 2 view .LVU184
 548 0018 8342     		cmp	r3, r0
 549 001a 20D8     		bhi	.L22
  62:/mnt/c/Users/31740/Documents/codes/newcore-rp2350/lib/fdt/fdt_rw.c **** 		return -FDT_ERR_BADOFFSET;
  63:/mnt/c/Users/31740/Documents/codes/newcore-rp2350/lib/fdt/fdt_rw.c **** 	if ((p < (char *)fdt) || (dsize + newlen < (unsigned)oldlen))
 550              		.loc 1 63 2 is_stmt 1 view .LVU185
 551              		.loc 1 63 5 is_stmt 0 view .LVU186
 552 001c AE42     		cmp	r6, r5
 553 001e 21D3     		bcc	.L23
 554              		.loc 1 63 34 discriminator 1 view .LVU187
 555 0020 3B18     		adds	r3, r7, r0
 556              		.loc 1 63 24 discriminator 1 view .LVU188
 557 0022 9C42     		cmp	r4, r3
 558 0024 21D8     		bhi	.L24
  64:/mnt/c/Users/31740/Documents/codes/newcore-rp2350/lib/fdt/fdt_rw.c **** 		return -FDT_ERR_BADOFFSET;
  65:/mnt/c/Users/31740/Documents/codes/newcore-rp2350/lib/fdt/fdt_rw.c **** 	if (dsize - oldlen + newlen > fdt_totalsize(fdt))
 559              		.loc 1 65 2 is_stmt 1 view .LVU189
 560              		.loc 1 65 12 is_stmt 0 view .LVU190
 561 0026 031B     		subs	r3, r0, r4
 562              		.loc 1 65 21 view .LVU191
 563 0028 3B44     		add	r3, r3, r7
 564              	.LVL45:
 565              	.LBB286:
 566              	.LBI286:
 145:/mnt/c/Users/31740/Documents/codes/newcore-rp2350/include/linux/libfdt.h **** {
 567              		.loc 3 145 24 is_stmt 1 view .LVU192
 568              	.LBB287:
 147:/mnt/c/Users/31740/Documents/codes/newcore-rp2350/include/linux/libfdt.h **** 
 569              		.loc 3 147 2 view .LVU193
 149:/mnt/c/Users/31740/Documents/codes/newcore-rp2350/include/linux/libfdt.h **** 		| ((uint32_t)bp[1] << 16)
 570              		.loc 3 149 2 view .LVU194
 149:/mnt/c/Users/31740/Documents/codes/newcore-rp2350/include/linux/libfdt.h **** 		| ((uint32_t)bp[1] << 16)
 571              		.loc 3 149 22 is_stmt 0 view .LVU195
 572 002a 2979     		ldrb	r1, [r5, #4]	@ zero_extendqisi2
 150:/mnt/c/Users/31740/Documents/codes/newcore-rp2350/include/linux/libfdt.h **** 		| ((uint32_t)bp[2] << 8)
 573              		.loc 3 150 18 view .LVU196
 574 002c 6A79     		ldrb	r2, [r5, #5]	@ zero_extendqisi2
 150:/mnt/c/Users/31740/Documents/codes/newcore-rp2350/include/linux/libfdt.h **** 		| ((uint32_t)bp[2] << 8)
 575              		.loc 3 150 22 view .LVU197
 576 002e 1204     		lsls	r2, r2, #16
 150:/mnt/c/Users/31740/Documents/codes/newcore-rp2350/include/linux/libfdt.h **** 		| ((uint32_t)bp[2] << 8)
 577              		.loc 3 150 3 view .LVU198
 578 0030 42EA0162 		orr	r2, r2, r1, lsl #24
ARM GAS  /tmp/ccyijaMA.s 			page 20


 151:/mnt/c/Users/31740/Documents/codes/newcore-rp2350/include/linux/libfdt.h **** 		| bp[3];
 579              		.loc 3 151 18 view .LVU199
 580 0034 A979     		ldrb	r1, [r5, #6]	@ zero_extendqisi2
 151:/mnt/c/Users/31740/Documents/codes/newcore-rp2350/include/linux/libfdt.h **** 		| bp[3];
 581              		.loc 3 151 3 view .LVU200
 582 0036 42EA0122 		orr	r2, r2, r1, lsl #8
 152:/mnt/c/Users/31740/Documents/codes/newcore-rp2350/include/linux/libfdt.h **** }
 583              		.loc 3 152 7 view .LVU201
 584 003a E979     		ldrb	r1, [r5, #7]	@ zero_extendqisi2
 152:/mnt/c/Users/31740/Documents/codes/newcore-rp2350/include/linux/libfdt.h **** }
 585              		.loc 3 152 3 view .LVU202
 586 003c 0A43     		orrs	r2, r2, r1
 587              	.LVL46:
 152:/mnt/c/Users/31740/Documents/codes/newcore-rp2350/include/linux/libfdt.h **** }
 588              		.loc 3 152 3 view .LVU203
 589              	.LBE287:
 590              	.LBE286:
 591              		.loc 1 65 5 discriminator 1 view .LVU204
 592 003e 9342     		cmp	r3, r2
 593 0040 16D8     		bhi	.L25
  66:/mnt/c/Users/31740/Documents/codes/newcore-rp2350/lib/fdt/fdt_rw.c **** 		return -FDT_ERR_NOSPACE;
  67:/mnt/c/Users/31740/Documents/codes/newcore-rp2350/lib/fdt/fdt_rw.c **** 	memmove(p + newlen, p + oldlen, ((char *)fdt + dsize) - (p + oldlen));
 594              		.loc 1 67 2 is_stmt 1 view .LVU205
 595              		.loc 1 67 24 is_stmt 0 view .LVU206
 596 0042 3119     		adds	r1, r6, r4
 597              		.loc 1 67 47 view .LVU207
 598 0044 2A18     		adds	r2, r5, r0
 599              		.loc 1 67 2 view .LVU208
 600 0046 521A     		subs	r2, r2, r1
 601 0048 F019     		adds	r0, r6, r7
 602              	.LVL47:
 603              		.loc 1 67 2 view .LVU209
 604 004a FFF7FEFF 		bl	memmove
 605              	.LVL48:
  68:/mnt/c/Users/31740/Documents/codes/newcore-rp2350/lib/fdt/fdt_rw.c **** 	return 0;
 606              		.loc 1 68 2 is_stmt 1 view .LVU210
 607              		.loc 1 68 9 is_stmt 0 view .LVU211
 608 004e 0020     		movs	r0, #0
 609              	.LVL49:
 610              	.L18:
  69:/mnt/c/Users/31740/Documents/codes/newcore-rp2350/lib/fdt/fdt_rw.c **** }
 611              		.loc 1 69 1 view .LVU212
 612 0050 F8BD     		pop	{r3, r4, r5, r6, r7, pc}
 613              	.LVL50:
 614              	.L20:
  62:/mnt/c/Users/31740/Documents/codes/newcore-rp2350/lib/fdt/fdt_rw.c **** 	if ((p < (char *)fdt) || (dsize + newlen < (unsigned)oldlen))
 615              		.loc 1 62 10 view .LVU213
 616 0052 6FF00300 		mvn	r0, #3
 617              	.LVL51:
  62:/mnt/c/Users/31740/Documents/codes/newcore-rp2350/lib/fdt/fdt_rw.c **** 	if ((p < (char *)fdt) || (dsize + newlen < (unsigned)oldlen))
 618              		.loc 1 62 10 view .LVU214
 619 0056 FBE7     		b	.L18
 620              	.LVL52:
 621              	.L21:
  62:/mnt/c/Users/31740/Documents/codes/newcore-rp2350/lib/fdt/fdt_rw.c **** 	if ((p < (char *)fdt) || (dsize + newlen < (unsigned)oldlen))
 622              		.loc 1 62 10 view .LVU215
 623 0058 6FF00300 		mvn	r0, #3
ARM GAS  /tmp/ccyijaMA.s 			page 21


 624              	.LVL53:
  62:/mnt/c/Users/31740/Documents/codes/newcore-rp2350/lib/fdt/fdt_rw.c **** 	if ((p < (char *)fdt) || (dsize + newlen < (unsigned)oldlen))
 625              		.loc 1 62 10 view .LVU216
 626 005c F8E7     		b	.L18
 627              	.LVL54:
 628              	.L22:
  62:/mnt/c/Users/31740/Documents/codes/newcore-rp2350/lib/fdt/fdt_rw.c **** 	if ((p < (char *)fdt) || (dsize + newlen < (unsigned)oldlen))
 629              		.loc 1 62 10 view .LVU217
 630 005e 6FF00300 		mvn	r0, #3
 631              	.LVL55:
  62:/mnt/c/Users/31740/Documents/codes/newcore-rp2350/lib/fdt/fdt_rw.c **** 	if ((p < (char *)fdt) || (dsize + newlen < (unsigned)oldlen))
 632              		.loc 1 62 10 view .LVU218
 633 0062 F5E7     		b	.L18
 634              	.LVL56:
 635              	.L23:
  64:/mnt/c/Users/31740/Documents/codes/newcore-rp2350/lib/fdt/fdt_rw.c **** 	if (dsize - oldlen + newlen > fdt_totalsize(fdt))
 636              		.loc 1 64 10 view .LVU219
 637 0064 6FF00300 		mvn	r0, #3
 638              	.LVL57:
  64:/mnt/c/Users/31740/Documents/codes/newcore-rp2350/lib/fdt/fdt_rw.c **** 	if (dsize - oldlen + newlen > fdt_totalsize(fdt))
 639              		.loc 1 64 10 view .LVU220
 640 0068 F2E7     		b	.L18
 641              	.LVL58:
 642              	.L24:
  64:/mnt/c/Users/31740/Documents/codes/newcore-rp2350/lib/fdt/fdt_rw.c **** 	if (dsize - oldlen + newlen > fdt_totalsize(fdt))
 643              		.loc 1 64 10 view .LVU221
 644 006a 6FF00300 		mvn	r0, #3
 645              	.LVL59:
  64:/mnt/c/Users/31740/Documents/codes/newcore-rp2350/lib/fdt/fdt_rw.c **** 	if (dsize - oldlen + newlen > fdt_totalsize(fdt))
 646              		.loc 1 64 10 view .LVU222
 647 006e EFE7     		b	.L18
 648              	.LVL60:
 649              	.L25:
  66:/mnt/c/Users/31740/Documents/codes/newcore-rp2350/lib/fdt/fdt_rw.c **** 	memmove(p + newlen, p + oldlen, ((char *)fdt + dsize) - (p + oldlen));
 650              		.loc 1 66 10 view .LVU223
 651 0070 6FF00200 		mvn	r0, #2
 652              	.LVL61:
  66:/mnt/c/Users/31740/Documents/codes/newcore-rp2350/lib/fdt/fdt_rw.c **** 	memmove(p + newlen, p + oldlen, ((char *)fdt + dsize) - (p + oldlen));
 653              		.loc 1 66 10 view .LVU224
 654 0074 ECE7     		b	.L18
 655              		.cfi_endproc
 656              	.LFE78:
 658              		.section	.text.fdt_splice_mem_rsv_,"ax",%progbits
 659              		.align	1
 660              		.syntax unified
 661              		.thumb
 662              		.thumb_func
 664              	fdt_splice_mem_rsv_:
 665              	.LVL62:
 666              	.LFB79:
  70:/mnt/c/Users/31740/Documents/codes/newcore-rp2350/lib/fdt/fdt_rw.c **** 
  71:/mnt/c/Users/31740/Documents/codes/newcore-rp2350/lib/fdt/fdt_rw.c **** static int fdt_splice_mem_rsv_(void *fdt, struct fdt_reserve_entry *p,
  72:/mnt/c/Users/31740/Documents/codes/newcore-rp2350/lib/fdt/fdt_rw.c **** 			       int oldn, int newn)
  73:/mnt/c/Users/31740/Documents/codes/newcore-rp2350/lib/fdt/fdt_rw.c **** {
 667              		.loc 1 73 1 is_stmt 1 view -0
 668              		.cfi_startproc
 669              		@ args = 0, pretend = 0, frame = 0
ARM GAS  /tmp/ccyijaMA.s 			page 22


 670              		@ frame_needed = 0, uses_anonymous_args = 0
 671              		.loc 1 73 1 is_stmt 0 view .LVU226
 672 0000 38B5     		push	{r3, r4, r5, lr}
 673              	.LCFI5:
 674              		.cfi_def_cfa_offset 16
 675              		.cfi_offset 3, -16
 676              		.cfi_offset 4, -12
 677              		.cfi_offset 5, -8
 678              		.cfi_offset 14, -4
 679 0002 0446     		mov	r4, r0
  74:/mnt/c/Users/31740/Documents/codes/newcore-rp2350/lib/fdt/fdt_rw.c **** 	int delta = (newn - oldn) * sizeof(*p);
 680              		.loc 1 74 2 is_stmt 1 view .LVU227
 681              		.loc 1 74 20 is_stmt 0 view .LVU228
 682 0004 9D1A     		subs	r5, r3, r2
 683              	.LVL63:
  75:/mnt/c/Users/31740/Documents/codes/newcore-rp2350/lib/fdt/fdt_rw.c **** 	int err;
 684              		.loc 1 75 2 is_stmt 1 view .LVU229
  76:/mnt/c/Users/31740/Documents/codes/newcore-rp2350/lib/fdt/fdt_rw.c **** 	err = fdt_splice_(fdt, p, oldn * sizeof(*p), newn * sizeof(*p));
 685              		.loc 1 76 2 view .LVU230
 686              		.loc 1 76 8 is_stmt 0 view .LVU231
 687 0006 DB00     		lsls	r3, r3, #3
 688              	.LVL64:
 689              		.loc 1 76 8 view .LVU232
 690 0008 D200     		lsls	r2, r2, #3
 691              	.LVL65:
 692              		.loc 1 76 8 view .LVU233
 693 000a FFF7FEFF 		bl	fdt_splice_
 694              	.LVL66:
  77:/mnt/c/Users/31740/Documents/codes/newcore-rp2350/lib/fdt/fdt_rw.c **** 	if (err)
 695              		.loc 1 77 2 is_stmt 1 view .LVU234
 696              		.loc 1 77 5 is_stmt 0 view .LVU235
 697 000e 0246     		mov	r2, r0
 698 0010 70BB     		cbnz	r0, .L27
 699 0012 ED00     		lsls	r5, r5, #3
 700              	.LVL67:
  78:/mnt/c/Users/31740/Documents/codes/newcore-rp2350/lib/fdt/fdt_rw.c **** 		return err;
  79:/mnt/c/Users/31740/Documents/codes/newcore-rp2350/lib/fdt/fdt_rw.c **** 	fdt_set_off_dt_struct(fdt, fdt_off_dt_struct(fdt) + delta);
 701              		.loc 1 79 2 is_stmt 1 view .LVU236
 702              	.LBB288:
 703              	.LBI288:
 145:/mnt/c/Users/31740/Documents/codes/newcore-rp2350/include/linux/libfdt.h **** {
 704              		.loc 3 145 24 view .LVU237
 705              	.LBB289:
 147:/mnt/c/Users/31740/Documents/codes/newcore-rp2350/include/linux/libfdt.h **** 
 706              		.loc 3 147 2 view .LVU238
 149:/mnt/c/Users/31740/Documents/codes/newcore-rp2350/include/linux/libfdt.h **** 		| ((uint32_t)bp[1] << 16)
 707              		.loc 3 149 2 view .LVU239
 149:/mnt/c/Users/31740/Documents/codes/newcore-rp2350/include/linux/libfdt.h **** 		| ((uint32_t)bp[1] << 16)
 708              		.loc 3 149 22 is_stmt 0 view .LVU240
 709 0014 217A     		ldrb	r1, [r4, #8]	@ zero_extendqisi2
 150:/mnt/c/Users/31740/Documents/codes/newcore-rp2350/include/linux/libfdt.h **** 		| ((uint32_t)bp[2] << 8)
 710              		.loc 3 150 18 view .LVU241
 711 0016 637A     		ldrb	r3, [r4, #9]	@ zero_extendqisi2
 150:/mnt/c/Users/31740/Documents/codes/newcore-rp2350/include/linux/libfdt.h **** 		| ((uint32_t)bp[2] << 8)
 712              		.loc 3 150 22 view .LVU242
 713 0018 1B04     		lsls	r3, r3, #16
 150:/mnt/c/Users/31740/Documents/codes/newcore-rp2350/include/linux/libfdt.h **** 		| ((uint32_t)bp[2] << 8)
ARM GAS  /tmp/ccyijaMA.s 			page 23


 714              		.loc 3 150 3 view .LVU243
 715 001a 43EA0163 		orr	r3, r3, r1, lsl #24
 151:/mnt/c/Users/31740/Documents/codes/newcore-rp2350/include/linux/libfdt.h **** 		| bp[3];
 716              		.loc 3 151 18 view .LVU244
 717 001e A17A     		ldrb	r1, [r4, #10]	@ zero_extendqisi2
 151:/mnt/c/Users/31740/Documents/codes/newcore-rp2350/include/linux/libfdt.h **** 		| bp[3];
 718              		.loc 3 151 3 view .LVU245
 719 0020 43EA0123 		orr	r3, r3, r1, lsl #8
 152:/mnt/c/Users/31740/Documents/codes/newcore-rp2350/include/linux/libfdt.h **** }
 720              		.loc 3 152 7 view .LVU246
 721 0024 E17A     		ldrb	r1, [r4, #11]	@ zero_extendqisi2
 152:/mnt/c/Users/31740/Documents/codes/newcore-rp2350/include/linux/libfdt.h **** }
 722              		.loc 3 152 3 view .LVU247
 723 0026 0B43     		orrs	r3, r3, r1
 724              	.LVL68:
 152:/mnt/c/Users/31740/Documents/codes/newcore-rp2350/include/linux/libfdt.h **** }
 725              		.loc 3 152 3 view .LVU248
 726              	.LBE289:
 727              	.LBE288:
 728              		.loc 1 79 2 discriminator 1 view .LVU249
 729 0028 2B44     		add	r3, r3, r5
 730              	.LVL69:
 731              	.LBB290:
 732              	.LBI290:
 272:/mnt/c/Users/31740/Documents/codes/newcore-rp2350/include/linux/libfdt.h **** fdt_set_hdr_(off_dt_strings)
 733              		.loc 3 272 1 is_stmt 1 view .LVU250
 734              	.LBB291:
 272:/mnt/c/Users/31740/Documents/codes/newcore-rp2350/include/linux/libfdt.h **** fdt_set_hdr_(off_dt_strings)
 735              		.loc 3 272 1 view .LVU251
 272:/mnt/c/Users/31740/Documents/codes/newcore-rp2350/include/linux/libfdt.h **** fdt_set_hdr_(off_dt_strings)
 736              		.loc 3 272 1 view .LVU252
 737              	.LBB292:
 738              	.LBI292:
 739              		.file 4 "/mnt/c/Users/31740/Documents/codes/newcore-rp2350/include/linux/libfdt_env.h"
   1:/mnt/c/Users/31740/Documents/codes/newcore-rp2350/include/linux/libfdt_env.h **** /* SPDX-License-Identifier: (GPL-2.0-or-later OR BSD-2-Clause) */
   2:/mnt/c/Users/31740/Documents/codes/newcore-rp2350/include/linux/libfdt_env.h **** #ifndef LIBFDT_ENV_H
   3:/mnt/c/Users/31740/Documents/codes/newcore-rp2350/include/linux/libfdt_env.h **** #define LIBFDT_ENV_H
   4:/mnt/c/Users/31740/Documents/codes/newcore-rp2350/include/linux/libfdt_env.h **** /*
   5:/mnt/c/Users/31740/Documents/codes/newcore-rp2350/include/linux/libfdt_env.h ****  * libfdt - Flat Device Tree manipulation
   6:/mnt/c/Users/31740/Documents/codes/newcore-rp2350/include/linux/libfdt_env.h ****  * Copyright (C) 2006 David Gibson, IBM Corporation.
   7:/mnt/c/Users/31740/Documents/codes/newcore-rp2350/include/linux/libfdt_env.h ****  * Copyright 2012 Kim Phillips, Freescale Semiconductor.
   8:/mnt/c/Users/31740/Documents/codes/newcore-rp2350/include/linux/libfdt_env.h ****  */
   9:/mnt/c/Users/31740/Documents/codes/newcore-rp2350/include/linux/libfdt_env.h **** 
  10:/mnt/c/Users/31740/Documents/codes/newcore-rp2350/include/linux/libfdt_env.h **** #include <linux/types.h>
  11:/mnt/c/Users/31740/Documents/codes/newcore-rp2350/include/linux/libfdt_env.h **** #include <linux/stddef.h>
  12:/mnt/c/Users/31740/Documents/codes/newcore-rp2350/include/linux/libfdt_env.h **** #include <linux/string.h>
  13:/mnt/c/Users/31740/Documents/codes/newcore-rp2350/include/linux/libfdt_env.h **** #include <linux/limits.h>
  14:/mnt/c/Users/31740/Documents/codes/newcore-rp2350/include/linux/libfdt_env.h **** 
  15:/mnt/c/Users/31740/Documents/codes/newcore-rp2350/include/linux/libfdt_env.h **** 
  16:/mnt/c/Users/31740/Documents/codes/newcore-rp2350/include/linux/libfdt_env.h **** #ifdef __CHECKER__
  17:/mnt/c/Users/31740/Documents/codes/newcore-rp2350/include/linux/libfdt_env.h **** #define FDT_FORCE __attribute__((force))
  18:/mnt/c/Users/31740/Documents/codes/newcore-rp2350/include/linux/libfdt_env.h **** #define FDT_BITWISE __attribute__((bitwise))
  19:/mnt/c/Users/31740/Documents/codes/newcore-rp2350/include/linux/libfdt_env.h **** #else
  20:/mnt/c/Users/31740/Documents/codes/newcore-rp2350/include/linux/libfdt_env.h **** #define FDT_FORCE
  21:/mnt/c/Users/31740/Documents/codes/newcore-rp2350/include/linux/libfdt_env.h **** #define FDT_BITWISE
  22:/mnt/c/Users/31740/Documents/codes/newcore-rp2350/include/linux/libfdt_env.h **** #endif
  23:/mnt/c/Users/31740/Documents/codes/newcore-rp2350/include/linux/libfdt_env.h **** 
ARM GAS  /tmp/ccyijaMA.s 			page 24


  24:/mnt/c/Users/31740/Documents/codes/newcore-rp2350/include/linux/libfdt_env.h **** typedef uint16_t FDT_BITWISE fdt16_t;
  25:/mnt/c/Users/31740/Documents/codes/newcore-rp2350/include/linux/libfdt_env.h **** typedef uint32_t FDT_BITWISE fdt32_t;
  26:/mnt/c/Users/31740/Documents/codes/newcore-rp2350/include/linux/libfdt_env.h **** typedef uint64_t FDT_BITWISE fdt64_t;
  27:/mnt/c/Users/31740/Documents/codes/newcore-rp2350/include/linux/libfdt_env.h **** 
  28:/mnt/c/Users/31740/Documents/codes/newcore-rp2350/include/linux/libfdt_env.h **** #define EXTRACT_BYTE(x, n)	((unsigned long long)((uint8_t *)&x)[n])
  29:/mnt/c/Users/31740/Documents/codes/newcore-rp2350/include/linux/libfdt_env.h **** 
  30:/mnt/c/Users/31740/Documents/codes/newcore-rp2350/include/linux/libfdt_env.h **** #define CPU_TO_FDT16(x) ((EXTRACT_BYTE(x, 0) << 8) | EXTRACT_BYTE(x, 1))
  31:/mnt/c/Users/31740/Documents/codes/newcore-rp2350/include/linux/libfdt_env.h **** #define CPU_TO_FDT32(x) ((EXTRACT_BYTE(x, 0) << 24) | (EXTRACT_BYTE(x, 1) << 16) | \
  32:/mnt/c/Users/31740/Documents/codes/newcore-rp2350/include/linux/libfdt_env.h **** 			 (EXTRACT_BYTE(x, 2) << 8) | EXTRACT_BYTE(x, 3))
  33:/mnt/c/Users/31740/Documents/codes/newcore-rp2350/include/linux/libfdt_env.h **** #define CPU_TO_FDT64(x) ((EXTRACT_BYTE(x, 0) << 56) | (EXTRACT_BYTE(x, 1) << 48) | \
  34:/mnt/c/Users/31740/Documents/codes/newcore-rp2350/include/linux/libfdt_env.h **** 			 (EXTRACT_BYTE(x, 2) << 40) | (EXTRACT_BYTE(x, 3) << 32) | \
  35:/mnt/c/Users/31740/Documents/codes/newcore-rp2350/include/linux/libfdt_env.h **** 			 (EXTRACT_BYTE(x, 4) << 24) | (EXTRACT_BYTE(x, 5) << 16) | \
  36:/mnt/c/Users/31740/Documents/codes/newcore-rp2350/include/linux/libfdt_env.h **** 			 (EXTRACT_BYTE(x, 6) << 8) | EXTRACT_BYTE(x, 7))
  37:/mnt/c/Users/31740/Documents/codes/newcore-rp2350/include/linux/libfdt_env.h **** 
  38:/mnt/c/Users/31740/Documents/codes/newcore-rp2350/include/linux/libfdt_env.h **** 
  39:/mnt/c/Users/31740/Documents/codes/newcore-rp2350/include/linux/libfdt_env.h **** // #define CPU_TO_FDT16(x) x
  40:/mnt/c/Users/31740/Documents/codes/newcore-rp2350/include/linux/libfdt_env.h **** // #define CPU_TO_FDT32(x) x
  41:/mnt/c/Users/31740/Documents/codes/newcore-rp2350/include/linux/libfdt_env.h **** // #define CPU_TO_FDT64(x) x
  42:/mnt/c/Users/31740/Documents/codes/newcore-rp2350/include/linux/libfdt_env.h **** 
  43:/mnt/c/Users/31740/Documents/codes/newcore-rp2350/include/linux/libfdt_env.h **** 
  44:/mnt/c/Users/31740/Documents/codes/newcore-rp2350/include/linux/libfdt_env.h **** static inline uint16_t fdt16_to_cpu(fdt16_t x)
  45:/mnt/c/Users/31740/Documents/codes/newcore-rp2350/include/linux/libfdt_env.h **** {
  46:/mnt/c/Users/31740/Documents/codes/newcore-rp2350/include/linux/libfdt_env.h **** 	return (FDT_FORCE uint16_t)CPU_TO_FDT16(x);
  47:/mnt/c/Users/31740/Documents/codes/newcore-rp2350/include/linux/libfdt_env.h **** }
  48:/mnt/c/Users/31740/Documents/codes/newcore-rp2350/include/linux/libfdt_env.h **** static inline fdt16_t cpu_to_fdt16(uint16_t x)
  49:/mnt/c/Users/31740/Documents/codes/newcore-rp2350/include/linux/libfdt_env.h **** {
  50:/mnt/c/Users/31740/Documents/codes/newcore-rp2350/include/linux/libfdt_env.h **** 	return (FDT_FORCE fdt16_t)CPU_TO_FDT16(x);
  51:/mnt/c/Users/31740/Documents/codes/newcore-rp2350/include/linux/libfdt_env.h **** }
  52:/mnt/c/Users/31740/Documents/codes/newcore-rp2350/include/linux/libfdt_env.h **** 
  53:/mnt/c/Users/31740/Documents/codes/newcore-rp2350/include/linux/libfdt_env.h **** static inline uint32_t fdt32_to_cpu(fdt32_t x)
  54:/mnt/c/Users/31740/Documents/codes/newcore-rp2350/include/linux/libfdt_env.h **** {
  55:/mnt/c/Users/31740/Documents/codes/newcore-rp2350/include/linux/libfdt_env.h **** 	return (FDT_FORCE uint32_t)CPU_TO_FDT32(x);
  56:/mnt/c/Users/31740/Documents/codes/newcore-rp2350/include/linux/libfdt_env.h **** }
  57:/mnt/c/Users/31740/Documents/codes/newcore-rp2350/include/linux/libfdt_env.h **** static inline fdt32_t cpu_to_fdt32(uint32_t x)
 740              		.loc 4 57 23 view .LVU253
 741              	.LBB293:
  58:/mnt/c/Users/31740/Documents/codes/newcore-rp2350/include/linux/libfdt_env.h **** {
  59:/mnt/c/Users/31740/Documents/codes/newcore-rp2350/include/linux/libfdt_env.h **** 	return (FDT_FORCE fdt32_t)CPU_TO_FDT32(x);
 742              		.loc 4 59 2 view .LVU254
 743              		.loc 4 59 28 is_stmt 0 view .LVU255
 744 002a C3F30721 		ubfx	r1, r3, #8, #8
 745 002e 0904     		lsls	r1, r1, #16
 746 0030 41EA0361 		orr	r1, r1, r3, lsl #24
 747 0034 C3F30740 		ubfx	r0, r3, #16, #8
 748              	.LVL70:
 749              		.loc 4 59 28 view .LVU256
 750 0038 41EA0021 		orr	r1, r1, r0, lsl #8
 751              		.loc 4 59 9 view .LVU257
 752 003c 41EA1363 		orr	r3, r1, r3, lsr #24
 753              	.LVL71:
 754              		.loc 4 59 9 view .LVU258
 755              	.LBE293:
 756              	.LBE292:
 272:/mnt/c/Users/31740/Documents/codes/newcore-rp2350/include/linux/libfdt.h **** fdt_set_hdr_(off_dt_strings)
 757              		.loc 3 272 1 discriminator 1 view .LVU259
 758 0040 A360     		str	r3, [r4, #8]
 759              	.LVL72:
ARM GAS  /tmp/ccyijaMA.s 			page 25


 272:/mnt/c/Users/31740/Documents/codes/newcore-rp2350/include/linux/libfdt.h **** fdt_set_hdr_(off_dt_strings)
 760              		.loc 3 272 1 discriminator 1 view .LVU260
 761              	.LBE291:
 762              	.LBE290:
  80:/mnt/c/Users/31740/Documents/codes/newcore-rp2350/lib/fdt/fdt_rw.c **** 	fdt_set_off_dt_strings(fdt, fdt_off_dt_strings(fdt) + delta);
 763              		.loc 1 80 2 is_stmt 1 view .LVU261
 764              	.LBB294:
 765              	.LBI294:
 145:/mnt/c/Users/31740/Documents/codes/newcore-rp2350/include/linux/libfdt.h **** {
 766              		.loc 3 145 24 view .LVU262
 767              	.LBB295:
 147:/mnt/c/Users/31740/Documents/codes/newcore-rp2350/include/linux/libfdt.h **** 
 768              		.loc 3 147 2 view .LVU263
 149:/mnt/c/Users/31740/Documents/codes/newcore-rp2350/include/linux/libfdt.h **** 		| ((uint32_t)bp[1] << 16)
 769              		.loc 3 149 2 view .LVU264
 149:/mnt/c/Users/31740/Documents/codes/newcore-rp2350/include/linux/libfdt.h **** 		| ((uint32_t)bp[1] << 16)
 770              		.loc 3 149 22 is_stmt 0 view .LVU265
 771 0042 217B     		ldrb	r1, [r4, #12]	@ zero_extendqisi2
 150:/mnt/c/Users/31740/Documents/codes/newcore-rp2350/include/linux/libfdt.h **** 		| ((uint32_t)bp[2] << 8)
 772              		.loc 3 150 18 view .LVU266
 773 0044 637B     		ldrb	r3, [r4, #13]	@ zero_extendqisi2
 150:/mnt/c/Users/31740/Documents/codes/newcore-rp2350/include/linux/libfdt.h **** 		| ((uint32_t)bp[2] << 8)
 774              		.loc 3 150 22 view .LVU267
 775 0046 1B04     		lsls	r3, r3, #16
 150:/mnt/c/Users/31740/Documents/codes/newcore-rp2350/include/linux/libfdt.h **** 		| ((uint32_t)bp[2] << 8)
 776              		.loc 3 150 3 view .LVU268
 777 0048 43EA0163 		orr	r3, r3, r1, lsl #24
 151:/mnt/c/Users/31740/Documents/codes/newcore-rp2350/include/linux/libfdt.h **** 		| bp[3];
 778              		.loc 3 151 18 view .LVU269
 779 004c A17B     		ldrb	r1, [r4, #14]	@ zero_extendqisi2
 151:/mnt/c/Users/31740/Documents/codes/newcore-rp2350/include/linux/libfdt.h **** 		| bp[3];
 780              		.loc 3 151 3 view .LVU270
 781 004e 43EA0123 		orr	r3, r3, r1, lsl #8
 152:/mnt/c/Users/31740/Documents/codes/newcore-rp2350/include/linux/libfdt.h **** }
 782              		.loc 3 152 7 view .LVU271
 783 0052 E17B     		ldrb	r1, [r4, #15]	@ zero_extendqisi2
 152:/mnt/c/Users/31740/Documents/codes/newcore-rp2350/include/linux/libfdt.h **** }
 784              		.loc 3 152 3 view .LVU272
 785 0054 0B43     		orrs	r3, r3, r1
 786              	.LVL73:
 152:/mnt/c/Users/31740/Documents/codes/newcore-rp2350/include/linux/libfdt.h **** }
 787              		.loc 3 152 3 view .LVU273
 788              	.LBE295:
 789              	.LBE294:
 790              		.loc 1 80 2 discriminator 1 view .LVU274
 791 0056 1D44     		add	r5, r5, r3
 792              	.LVL74:
 793              	.LBB296:
 794              	.LBI296:
 273:/mnt/c/Users/31740/Documents/codes/newcore-rp2350/include/linux/libfdt.h **** fdt_set_hdr_(off_mem_rsvmap)
 795              		.loc 3 273 1 is_stmt 1 view .LVU275
 796              	.LBB297:
 273:/mnt/c/Users/31740/Documents/codes/newcore-rp2350/include/linux/libfdt.h **** fdt_set_hdr_(off_mem_rsvmap)
 797              		.loc 3 273 1 view .LVU276
 273:/mnt/c/Users/31740/Documents/codes/newcore-rp2350/include/linux/libfdt.h **** fdt_set_hdr_(off_mem_rsvmap)
 798              		.loc 3 273 1 view .LVU277
 799              	.LBB298:
ARM GAS  /tmp/ccyijaMA.s 			page 26


 800              	.LBI298:
  57:/mnt/c/Users/31740/Documents/codes/newcore-rp2350/include/linux/libfdt_env.h **** {
 801              		.loc 4 57 23 view .LVU278
 802              	.LBB299:
 803              		.loc 4 59 2 view .LVU279
 804              		.loc 4 59 28 is_stmt 0 view .LVU280
 805 0058 C5F30723 		ubfx	r3, r5, #8, #8
 806 005c 1B04     		lsls	r3, r3, #16
 807 005e 43EA0563 		orr	r3, r3, r5, lsl #24
 808 0062 C5F30741 		ubfx	r1, r5, #16, #8
 809 0066 43EA0123 		orr	r3, r3, r1, lsl #8
 810              		.loc 4 59 9 view .LVU281
 811 006a 43EA1565 		orr	r5, r3, r5, lsr #24
 812              	.LVL75:
 813              		.loc 4 59 9 view .LVU282
 814              	.LBE299:
 815              	.LBE298:
 273:/mnt/c/Users/31740/Documents/codes/newcore-rp2350/include/linux/libfdt.h **** fdt_set_hdr_(off_mem_rsvmap)
 816              		.loc 3 273 1 discriminator 1 view .LVU283
 817 006e E560     		str	r5, [r4, #12]
 818              	.LVL76:
 273:/mnt/c/Users/31740/Documents/codes/newcore-rp2350/include/linux/libfdt.h **** fdt_set_hdr_(off_mem_rsvmap)
 819              		.loc 3 273 1 discriminator 1 view .LVU284
 820              	.LBE297:
 821              	.LBE296:
  81:/mnt/c/Users/31740/Documents/codes/newcore-rp2350/lib/fdt/fdt_rw.c **** 	return 0;
 822              		.loc 1 81 2 is_stmt 1 view .LVU285
 823              	.L27:
  82:/mnt/c/Users/31740/Documents/codes/newcore-rp2350/lib/fdt/fdt_rw.c **** }
 824              		.loc 1 82 1 is_stmt 0 view .LVU286
 825 0070 1046     		mov	r0, r2
 826 0072 38BD     		pop	{r3, r4, r5, pc}
 827              		.loc 1 82 1 view .LVU287
 828              		.cfi_endproc
 829              	.LFE79:
 831              		.section	.text.fdt_splice_struct_,"ax",%progbits
 832              		.align	1
 833              		.syntax unified
 834              		.thumb
 835              		.thumb_func
 837              	fdt_splice_struct_:
 838              	.LVL77:
 839              	.LFB80:
  83:/mnt/c/Users/31740/Documents/codes/newcore-rp2350/lib/fdt/fdt_rw.c **** 
  84:/mnt/c/Users/31740/Documents/codes/newcore-rp2350/lib/fdt/fdt_rw.c **** static int fdt_splice_struct_(void *fdt, void *p,
  85:/mnt/c/Users/31740/Documents/codes/newcore-rp2350/lib/fdt/fdt_rw.c **** 			      int oldlen, int newlen)
  86:/mnt/c/Users/31740/Documents/codes/newcore-rp2350/lib/fdt/fdt_rw.c **** {
 840              		.loc 1 86 1 is_stmt 1 view -0
 841              		.cfi_startproc
 842              		@ args = 0, pretend = 0, frame = 0
 843              		@ frame_needed = 0, uses_anonymous_args = 0
 844              		.loc 1 86 1 is_stmt 0 view .LVU289
 845 0000 38B5     		push	{r3, r4, r5, lr}
 846              	.LCFI6:
 847              		.cfi_def_cfa_offset 16
 848              		.cfi_offset 3, -16
 849              		.cfi_offset 4, -12
ARM GAS  /tmp/ccyijaMA.s 			page 27


 850              		.cfi_offset 5, -8
 851              		.cfi_offset 14, -4
 852 0002 0446     		mov	r4, r0
  87:/mnt/c/Users/31740/Documents/codes/newcore-rp2350/lib/fdt/fdt_rw.c **** 	int delta = newlen - oldlen;
 853              		.loc 1 87 2 is_stmt 1 view .LVU290
 854              		.loc 1 87 6 is_stmt 0 view .LVU291
 855 0004 9D1A     		subs	r5, r3, r2
 856              	.LVL78:
  88:/mnt/c/Users/31740/Documents/codes/newcore-rp2350/lib/fdt/fdt_rw.c **** 	int err;
 857              		.loc 1 88 2 is_stmt 1 view .LVU292
  89:/mnt/c/Users/31740/Documents/codes/newcore-rp2350/lib/fdt/fdt_rw.c **** 
  90:/mnt/c/Users/31740/Documents/codes/newcore-rp2350/lib/fdt/fdt_rw.c **** 	if ((err = fdt_splice_(fdt, p, oldlen, newlen)))
 858              		.loc 1 90 2 view .LVU293
 859              		.loc 1 90 13 is_stmt 0 view .LVU294
 860 0006 FFF7FEFF 		bl	fdt_splice_
 861              	.LVL79:
 862              		.loc 1 90 5 discriminator 1 view .LVU295
 863 000a 0246     		mov	r2, r0
 864 000c 88BB     		cbnz	r0, .L30
  91:/mnt/c/Users/31740/Documents/codes/newcore-rp2350/lib/fdt/fdt_rw.c **** 		return err;
  92:/mnt/c/Users/31740/Documents/codes/newcore-rp2350/lib/fdt/fdt_rw.c **** 
  93:/mnt/c/Users/31740/Documents/codes/newcore-rp2350/lib/fdt/fdt_rw.c **** 	fdt_set_size_dt_struct(fdt, fdt_size_dt_struct(fdt) + delta);
 865              		.loc 1 93 2 is_stmt 1 view .LVU296
 866              	.LVL80:
 867              	.LBB300:
 868              	.LBI300:
 145:/mnt/c/Users/31740/Documents/codes/newcore-rp2350/include/linux/libfdt.h **** {
 869              		.loc 3 145 24 view .LVU297
 870              	.LBB301:
 147:/mnt/c/Users/31740/Documents/codes/newcore-rp2350/include/linux/libfdt.h **** 
 871              		.loc 3 147 2 view .LVU298
 149:/mnt/c/Users/31740/Documents/codes/newcore-rp2350/include/linux/libfdt.h **** 		| ((uint32_t)bp[1] << 16)
 872              		.loc 3 149 2 view .LVU299
 149:/mnt/c/Users/31740/Documents/codes/newcore-rp2350/include/linux/libfdt.h **** 		| ((uint32_t)bp[1] << 16)
 873              		.loc 3 149 22 is_stmt 0 view .LVU300
 874 000e 94F82430 		ldrb	r3, [r4, #36]	@ zero_extendqisi2
 150:/mnt/c/Users/31740/Documents/codes/newcore-rp2350/include/linux/libfdt.h **** 		| ((uint32_t)bp[2] << 8)
 875              		.loc 3 150 18 view .LVU301
 876 0012 94F82510 		ldrb	r1, [r4, #37]	@ zero_extendqisi2
 150:/mnt/c/Users/31740/Documents/codes/newcore-rp2350/include/linux/libfdt.h **** 		| ((uint32_t)bp[2] << 8)
 877              		.loc 3 150 22 view .LVU302
 878 0016 0904     		lsls	r1, r1, #16
 150:/mnt/c/Users/31740/Documents/codes/newcore-rp2350/include/linux/libfdt.h **** 		| ((uint32_t)bp[2] << 8)
 879              		.loc 3 150 3 view .LVU303
 880 0018 41EA0361 		orr	r1, r1, r3, lsl #24
 151:/mnt/c/Users/31740/Documents/codes/newcore-rp2350/include/linux/libfdt.h **** 		| bp[3];
 881              		.loc 3 151 18 view .LVU304
 882 001c 94F82630 		ldrb	r3, [r4, #38]	@ zero_extendqisi2
 151:/mnt/c/Users/31740/Documents/codes/newcore-rp2350/include/linux/libfdt.h **** 		| bp[3];
 883              		.loc 3 151 3 view .LVU305
 884 0020 41EA0321 		orr	r1, r1, r3, lsl #8
 152:/mnt/c/Users/31740/Documents/codes/newcore-rp2350/include/linux/libfdt.h **** }
 885              		.loc 3 152 7 view .LVU306
 886 0024 94F82730 		ldrb	r3, [r4, #39]	@ zero_extendqisi2
 152:/mnt/c/Users/31740/Documents/codes/newcore-rp2350/include/linux/libfdt.h **** }
 887              		.loc 3 152 3 view .LVU307
 888 0028 1943     		orrs	r1, r1, r3
ARM GAS  /tmp/ccyijaMA.s 			page 28


 889              	.LVL81:
 152:/mnt/c/Users/31740/Documents/codes/newcore-rp2350/include/linux/libfdt.h **** }
 890              		.loc 3 152 3 view .LVU308
 891              	.LBE301:
 892              	.LBE300:
 893              		.loc 1 93 2 discriminator 1 view .LVU309
 894 002a 2944     		add	r1, r1, r5
 895              	.LVL82:
 896              	.LBB302:
 897              	.LBI302:
 276:/mnt/c/Users/31740/Documents/codes/newcore-rp2350/include/linux/libfdt.h **** fdt_set_hdr_(last_comp_version)
 277:/mnt/c/Users/31740/Documents/codes/newcore-rp2350/include/linux/libfdt.h **** fdt_set_hdr_(boot_cpuid_phys)
 278:/mnt/c/Users/31740/Documents/codes/newcore-rp2350/include/linux/libfdt.h **** fdt_set_hdr_(size_dt_strings)
 279:/mnt/c/Users/31740/Documents/codes/newcore-rp2350/include/linux/libfdt.h **** fdt_set_hdr_(size_dt_struct)
 898              		.loc 3 279 1 is_stmt 1 view .LVU310
 899              	.LBB303:
 900              		.loc 3 279 1 view .LVU311
 901              		.loc 3 279 1 view .LVU312
 902              	.LBB304:
 903              	.LBI304:
  57:/mnt/c/Users/31740/Documents/codes/newcore-rp2350/include/linux/libfdt_env.h **** {
 904              		.loc 4 57 23 view .LVU313
 905              	.LBB305:
 906              		.loc 4 59 2 view .LVU314
 907              		.loc 4 59 28 is_stmt 0 view .LVU315
 908 002c C1F30723 		ubfx	r3, r1, #8, #8
 909 0030 1B04     		lsls	r3, r3, #16
 910 0032 43EA0163 		orr	r3, r3, r1, lsl #24
 911 0036 C1F30740 		ubfx	r0, r1, #16, #8
 912              	.LVL83:
 913              		.loc 4 59 28 view .LVU316
 914 003a 43EA0023 		orr	r3, r3, r0, lsl #8
 915              		.loc 4 59 9 view .LVU317
 916 003e 43EA1163 		orr	r3, r3, r1, lsr #24
 917              	.LVL84:
 918              		.loc 4 59 9 view .LVU318
 919              	.LBE305:
 920              	.LBE304:
 921              		.loc 3 279 1 discriminator 1 view .LVU319
 922 0042 6362     		str	r3, [r4, #36]
 923              	.LVL85:
 924              		.loc 3 279 1 discriminator 1 view .LVU320
 925              	.LBE303:
 926              	.LBE302:
  94:/mnt/c/Users/31740/Documents/codes/newcore-rp2350/lib/fdt/fdt_rw.c **** 	fdt_set_off_dt_strings(fdt, fdt_off_dt_strings(fdt) + delta);
 927              		.loc 1 94 2 is_stmt 1 view .LVU321
 928              	.LBB306:
 929              	.LBI306:
 145:/mnt/c/Users/31740/Documents/codes/newcore-rp2350/include/linux/libfdt.h **** {
 930              		.loc 3 145 24 view .LVU322
 931              	.LBB307:
 147:/mnt/c/Users/31740/Documents/codes/newcore-rp2350/include/linux/libfdt.h **** 
 932              		.loc 3 147 2 view .LVU323
 149:/mnt/c/Users/31740/Documents/codes/newcore-rp2350/include/linux/libfdt.h **** 		| ((uint32_t)bp[1] << 16)
 933              		.loc 3 149 2 view .LVU324
 149:/mnt/c/Users/31740/Documents/codes/newcore-rp2350/include/linux/libfdt.h **** 		| ((uint32_t)bp[1] << 16)
 934              		.loc 3 149 22 is_stmt 0 view .LVU325
ARM GAS  /tmp/ccyijaMA.s 			page 29


 935 0044 217B     		ldrb	r1, [r4, #12]	@ zero_extendqisi2
 150:/mnt/c/Users/31740/Documents/codes/newcore-rp2350/include/linux/libfdt.h **** 		| ((uint32_t)bp[2] << 8)
 936              		.loc 3 150 18 view .LVU326
 937 0046 637B     		ldrb	r3, [r4, #13]	@ zero_extendqisi2
 150:/mnt/c/Users/31740/Documents/codes/newcore-rp2350/include/linux/libfdt.h **** 		| ((uint32_t)bp[2] << 8)
 938              		.loc 3 150 22 view .LVU327
 939 0048 1B04     		lsls	r3, r3, #16
 150:/mnt/c/Users/31740/Documents/codes/newcore-rp2350/include/linux/libfdt.h **** 		| ((uint32_t)bp[2] << 8)
 940              		.loc 3 150 3 view .LVU328
 941 004a 43EA0163 		orr	r3, r3, r1, lsl #24
 151:/mnt/c/Users/31740/Documents/codes/newcore-rp2350/include/linux/libfdt.h **** 		| bp[3];
 942              		.loc 3 151 18 view .LVU329
 943 004e A17B     		ldrb	r1, [r4, #14]	@ zero_extendqisi2
 151:/mnt/c/Users/31740/Documents/codes/newcore-rp2350/include/linux/libfdt.h **** 		| bp[3];
 944              		.loc 3 151 3 view .LVU330
 945 0050 43EA0123 		orr	r3, r3, r1, lsl #8
 152:/mnt/c/Users/31740/Documents/codes/newcore-rp2350/include/linux/libfdt.h **** }
 946              		.loc 3 152 7 view .LVU331
 947 0054 E17B     		ldrb	r1, [r4, #15]	@ zero_extendqisi2
 152:/mnt/c/Users/31740/Documents/codes/newcore-rp2350/include/linux/libfdt.h **** }
 948              		.loc 3 152 3 view .LVU332
 949 0056 0B43     		orrs	r3, r3, r1
 950              	.LVL86:
 152:/mnt/c/Users/31740/Documents/codes/newcore-rp2350/include/linux/libfdt.h **** }
 951              		.loc 3 152 3 view .LVU333
 952              	.LBE307:
 953              	.LBE306:
 954              		.loc 1 94 2 discriminator 1 view .LVU334
 955 0058 1D44     		add	r5, r5, r3
 956              	.LVL87:
 957              	.LBB308:
 958              	.LBI308:
 273:/mnt/c/Users/31740/Documents/codes/newcore-rp2350/include/linux/libfdt.h **** fdt_set_hdr_(off_mem_rsvmap)
 959              		.loc 3 273 1 is_stmt 1 view .LVU335
 960              	.LBB309:
 273:/mnt/c/Users/31740/Documents/codes/newcore-rp2350/include/linux/libfdt.h **** fdt_set_hdr_(off_mem_rsvmap)
 961              		.loc 3 273 1 view .LVU336
 273:/mnt/c/Users/31740/Documents/codes/newcore-rp2350/include/linux/libfdt.h **** fdt_set_hdr_(off_mem_rsvmap)
 962              		.loc 3 273 1 view .LVU337
 963              	.LBB310:
 964              	.LBI310:
  57:/mnt/c/Users/31740/Documents/codes/newcore-rp2350/include/linux/libfdt_env.h **** {
 965              		.loc 4 57 23 view .LVU338
 966              	.LBB311:
 967              		.loc 4 59 2 view .LVU339
 968              		.loc 4 59 28 is_stmt 0 view .LVU340
 969 005a C5F30723 		ubfx	r3, r5, #8, #8
 970 005e 1B04     		lsls	r3, r3, #16
 971 0060 43EA0563 		orr	r3, r3, r5, lsl #24
 972 0064 C5F30741 		ubfx	r1, r5, #16, #8
 973 0068 43EA0123 		orr	r3, r3, r1, lsl #8
 974              		.loc 4 59 9 view .LVU341
 975 006c 43EA1565 		orr	r5, r3, r5, lsr #24
 976              	.LVL88:
 977              		.loc 4 59 9 view .LVU342
 978              	.LBE311:
 979              	.LBE310:
ARM GAS  /tmp/ccyijaMA.s 			page 30


 273:/mnt/c/Users/31740/Documents/codes/newcore-rp2350/include/linux/libfdt.h **** fdt_set_hdr_(off_mem_rsvmap)
 980              		.loc 3 273 1 discriminator 1 view .LVU343
 981 0070 E560     		str	r5, [r4, #12]
 982              	.LVL89:
 273:/mnt/c/Users/31740/Documents/codes/newcore-rp2350/include/linux/libfdt.h **** fdt_set_hdr_(off_mem_rsvmap)
 983              		.loc 3 273 1 discriminator 1 view .LVU344
 984              	.LBE309:
 985              	.LBE308:
  95:/mnt/c/Users/31740/Documents/codes/newcore-rp2350/lib/fdt/fdt_rw.c **** 	return 0;
 986              		.loc 1 95 2 is_stmt 1 view .LVU345
 987              	.L30:
  96:/mnt/c/Users/31740/Documents/codes/newcore-rp2350/lib/fdt/fdt_rw.c **** }
 988              		.loc 1 96 1 is_stmt 0 view .LVU346
 989 0072 1046     		mov	r0, r2
 990 0074 38BD     		pop	{r3, r4, r5, pc}
 991              		.loc 1 96 1 view .LVU347
 992              		.cfi_endproc
 993              	.LFE80:
 995              		.section	.text.fdt_splice_string_,"ax",%progbits
 996              		.align	1
 997              		.syntax unified
 998              		.thumb
 999              		.thumb_func
 1001              	fdt_splice_string_:
 1002              	.LVL90:
 1003              	.LFB82:
  97:/mnt/c/Users/31740/Documents/codes/newcore-rp2350/lib/fdt/fdt_rw.c **** 
  98:/mnt/c/Users/31740/Documents/codes/newcore-rp2350/lib/fdt/fdt_rw.c **** /* Must only be used to roll back in case of error */
  99:/mnt/c/Users/31740/Documents/codes/newcore-rp2350/lib/fdt/fdt_rw.c **** static void fdt_del_last_string_(void *fdt, const char *s)
 100:/mnt/c/Users/31740/Documents/codes/newcore-rp2350/lib/fdt/fdt_rw.c **** {
 101:/mnt/c/Users/31740/Documents/codes/newcore-rp2350/lib/fdt/fdt_rw.c **** 	int newlen = strlen(s) + 1;
 102:/mnt/c/Users/31740/Documents/codes/newcore-rp2350/lib/fdt/fdt_rw.c **** 
 103:/mnt/c/Users/31740/Documents/codes/newcore-rp2350/lib/fdt/fdt_rw.c **** 	fdt_set_size_dt_strings(fdt, fdt_size_dt_strings(fdt) - newlen);
 104:/mnt/c/Users/31740/Documents/codes/newcore-rp2350/lib/fdt/fdt_rw.c **** }
 105:/mnt/c/Users/31740/Documents/codes/newcore-rp2350/lib/fdt/fdt_rw.c **** 
 106:/mnt/c/Users/31740/Documents/codes/newcore-rp2350/lib/fdt/fdt_rw.c **** static int fdt_splice_string_(void *fdt, int newlen)
 107:/mnt/c/Users/31740/Documents/codes/newcore-rp2350/lib/fdt/fdt_rw.c **** {
 1004              		.loc 1 107 1 is_stmt 1 view -0
 1005              		.cfi_startproc
 1006              		@ args = 0, pretend = 0, frame = 0
 1007              		@ frame_needed = 0, uses_anonymous_args = 0
 1008              		.loc 1 107 1 is_stmt 0 view .LVU349
 1009 0000 38B5     		push	{r3, r4, r5, lr}
 1010              	.LCFI7:
 1011              		.cfi_def_cfa_offset 16
 1012              		.cfi_offset 3, -16
 1013              		.cfi_offset 4, -12
 1014              		.cfi_offset 5, -8
 1015              		.cfi_offset 14, -4
 1016 0002 0446     		mov	r4, r0
 1017 0004 0D46     		mov	r5, r1
 108:/mnt/c/Users/31740/Documents/codes/newcore-rp2350/lib/fdt/fdt_rw.c **** 	void *p = (char *)fdt
 1018              		.loc 1 108 2 is_stmt 1 view .LVU350
 1019              	.LVL91:
 1020              	.LBB312:
 1021              	.LBI312:
 145:/mnt/c/Users/31740/Documents/codes/newcore-rp2350/include/linux/libfdt.h **** {
ARM GAS  /tmp/ccyijaMA.s 			page 31


 1022              		.loc 3 145 24 view .LVU351
 1023              	.LBB313:
 147:/mnt/c/Users/31740/Documents/codes/newcore-rp2350/include/linux/libfdt.h **** 
 1024              		.loc 3 147 2 view .LVU352
 149:/mnt/c/Users/31740/Documents/codes/newcore-rp2350/include/linux/libfdt.h **** 		| ((uint32_t)bp[1] << 16)
 1025              		.loc 3 149 2 view .LVU353
 149:/mnt/c/Users/31740/Documents/codes/newcore-rp2350/include/linux/libfdt.h **** 		| ((uint32_t)bp[1] << 16)
 1026              		.loc 3 149 22 is_stmt 0 view .LVU354
 1027 0006 027B     		ldrb	r2, [r0, #12]	@ zero_extendqisi2
 150:/mnt/c/Users/31740/Documents/codes/newcore-rp2350/include/linux/libfdt.h **** 		| ((uint32_t)bp[2] << 8)
 1028              		.loc 3 150 18 view .LVU355
 1029 0008 437B     		ldrb	r3, [r0, #13]	@ zero_extendqisi2
 150:/mnt/c/Users/31740/Documents/codes/newcore-rp2350/include/linux/libfdt.h **** 		| ((uint32_t)bp[2] << 8)
 1030              		.loc 3 150 22 view .LVU356
 1031 000a 1B04     		lsls	r3, r3, #16
 150:/mnt/c/Users/31740/Documents/codes/newcore-rp2350/include/linux/libfdt.h **** 		| ((uint32_t)bp[2] << 8)
 1032              		.loc 3 150 3 view .LVU357
 1033 000c 43EA0263 		orr	r3, r3, r2, lsl #24
 151:/mnt/c/Users/31740/Documents/codes/newcore-rp2350/include/linux/libfdt.h **** 		| bp[3];
 1034              		.loc 3 151 18 view .LVU358
 1035 0010 827B     		ldrb	r2, [r0, #14]	@ zero_extendqisi2
 151:/mnt/c/Users/31740/Documents/codes/newcore-rp2350/include/linux/libfdt.h **** 		| bp[3];
 1036              		.loc 3 151 3 view .LVU359
 1037 0012 43EA0223 		orr	r3, r3, r2, lsl #8
 152:/mnt/c/Users/31740/Documents/codes/newcore-rp2350/include/linux/libfdt.h **** }
 1038              		.loc 3 152 7 view .LVU360
 1039 0016 C27B     		ldrb	r2, [r0, #15]	@ zero_extendqisi2
 152:/mnt/c/Users/31740/Documents/codes/newcore-rp2350/include/linux/libfdt.h **** }
 1040              		.loc 3 152 3 view .LVU361
 1041 0018 1343     		orrs	r3, r3, r2
 1042              	.LVL92:
 152:/mnt/c/Users/31740/Documents/codes/newcore-rp2350/include/linux/libfdt.h **** }
 1043              		.loc 3 152 3 view .LVU362
 1044              	.LBE313:
 1045              	.LBE312:
 1046              	.LBB314:
 1047              	.LBI314:
 145:/mnt/c/Users/31740/Documents/codes/newcore-rp2350/include/linux/libfdt.h **** {
 1048              		.loc 3 145 24 is_stmt 1 view .LVU363
 1049              	.LBB315:
 147:/mnt/c/Users/31740/Documents/codes/newcore-rp2350/include/linux/libfdt.h **** 
 1050              		.loc 3 147 2 view .LVU364
 149:/mnt/c/Users/31740/Documents/codes/newcore-rp2350/include/linux/libfdt.h **** 		| ((uint32_t)bp[1] << 16)
 1051              		.loc 3 149 2 view .LVU365
 149:/mnt/c/Users/31740/Documents/codes/newcore-rp2350/include/linux/libfdt.h **** 		| ((uint32_t)bp[1] << 16)
 1052              		.loc 3 149 22 is_stmt 0 view .LVU366
 1053 001a 90F82020 		ldrb	r2, [r0, #32]	@ zero_extendqisi2
 150:/mnt/c/Users/31740/Documents/codes/newcore-rp2350/include/linux/libfdt.h **** 		| ((uint32_t)bp[2] << 8)
 1054              		.loc 3 150 18 view .LVU367
 1055 001e 90F821C0 		ldrb	ip, [r0, #33]	@ zero_extendqisi2
 150:/mnt/c/Users/31740/Documents/codes/newcore-rp2350/include/linux/libfdt.h **** 		| ((uint32_t)bp[2] << 8)
 1056              		.loc 3 150 22 view .LVU368
 1057 0022 4FEA0C4C 		lsl	ip, ip, #16
 150:/mnt/c/Users/31740/Documents/codes/newcore-rp2350/include/linux/libfdt.h **** 		| ((uint32_t)bp[2] << 8)
 1058              		.loc 3 150 3 view .LVU369
 1059 0026 4CEA026C 		orr	ip, ip, r2, lsl #24
 151:/mnt/c/Users/31740/Documents/codes/newcore-rp2350/include/linux/libfdt.h **** 		| bp[3];
ARM GAS  /tmp/ccyijaMA.s 			page 32


 1060              		.loc 3 151 18 view .LVU370
 1061 002a 90F82220 		ldrb	r2, [r0, #34]	@ zero_extendqisi2
 151:/mnt/c/Users/31740/Documents/codes/newcore-rp2350/include/linux/libfdt.h **** 		| bp[3];
 1062              		.loc 3 151 3 view .LVU371
 1063 002e 4CEA022C 		orr	ip, ip, r2, lsl #8
 152:/mnt/c/Users/31740/Documents/codes/newcore-rp2350/include/linux/libfdt.h **** }
 1064              		.loc 3 152 7 view .LVU372
 1065 0032 90F82320 		ldrb	r2, [r0, #35]	@ zero_extendqisi2
 152:/mnt/c/Users/31740/Documents/codes/newcore-rp2350/include/linux/libfdt.h **** }
 1066              		.loc 3 152 3 view .LVU373
 1067 0036 4CEA020C 		orr	ip, ip, r2
 1068              	.LVL93:
 152:/mnt/c/Users/31740/Documents/codes/newcore-rp2350/include/linux/libfdt.h **** }
 1069              		.loc 3 152 3 view .LVU374
 1070              	.LBE315:
 1071              	.LBE314:
 109:/mnt/c/Users/31740/Documents/codes/newcore-rp2350/lib/fdt/fdt_rw.c **** 		+ fdt_off_dt_strings(fdt) + fdt_size_dt_strings(fdt);
 1072              		.loc 1 109 29 discriminator 2 view .LVU375
 1073 003a 9C44     		add	ip, ip, r3
 1074              	.LVL94:
 110:/mnt/c/Users/31740/Documents/codes/newcore-rp2350/lib/fdt/fdt_rw.c **** 	int err;
 1075              		.loc 1 110 2 is_stmt 1 view .LVU376
 111:/mnt/c/Users/31740/Documents/codes/newcore-rp2350/lib/fdt/fdt_rw.c **** 
 112:/mnt/c/Users/31740/Documents/codes/newcore-rp2350/lib/fdt/fdt_rw.c **** 	if ((err = fdt_splice_(fdt, p, 0, newlen)))
 1076              		.loc 1 112 2 view .LVU377
 1077              		.loc 1 112 13 is_stmt 0 view .LVU378
 1078 003c 0B46     		mov	r3, r1
 1079 003e 0022     		movs	r2, #0
 1080 0040 00EB0C01 		add	r1, r0, ip
 1081              	.LVL95:
 1082              		.loc 1 112 13 view .LVU379
 1083 0044 FFF7FEFF 		bl	fdt_splice_
 1084              	.LVL96:
 1085              		.loc 1 112 5 discriminator 1 view .LVU380
 1086 0048 0246     		mov	r2, r0
 1087 004a D0B9     		cbnz	r0, .L33
 113:/mnt/c/Users/31740/Documents/codes/newcore-rp2350/lib/fdt/fdt_rw.c **** 		return err;
 114:/mnt/c/Users/31740/Documents/codes/newcore-rp2350/lib/fdt/fdt_rw.c **** 
 115:/mnt/c/Users/31740/Documents/codes/newcore-rp2350/lib/fdt/fdt_rw.c **** 	fdt_set_size_dt_strings(fdt, fdt_size_dt_strings(fdt) + newlen);
 1088              		.loc 1 115 2 is_stmt 1 view .LVU381
 1089              	.LVL97:
 1090              	.LBB316:
 1091              	.LBI316:
 145:/mnt/c/Users/31740/Documents/codes/newcore-rp2350/include/linux/libfdt.h **** {
 1092              		.loc 3 145 24 view .LVU382
 1093              	.LBB317:
 147:/mnt/c/Users/31740/Documents/codes/newcore-rp2350/include/linux/libfdt.h **** 
 1094              		.loc 3 147 2 view .LVU383
 149:/mnt/c/Users/31740/Documents/codes/newcore-rp2350/include/linux/libfdt.h **** 		| ((uint32_t)bp[1] << 16)
 1095              		.loc 3 149 2 view .LVU384
 149:/mnt/c/Users/31740/Documents/codes/newcore-rp2350/include/linux/libfdt.h **** 		| ((uint32_t)bp[1] << 16)
 1096              		.loc 3 149 22 is_stmt 0 view .LVU385
 1097 004c 94F82010 		ldrb	r1, [r4, #32]	@ zero_extendqisi2
 150:/mnt/c/Users/31740/Documents/codes/newcore-rp2350/include/linux/libfdt.h **** 		| ((uint32_t)bp[2] << 8)
 1098              		.loc 3 150 18 view .LVU386
 1099 0050 94F82130 		ldrb	r3, [r4, #33]	@ zero_extendqisi2
 150:/mnt/c/Users/31740/Documents/codes/newcore-rp2350/include/linux/libfdt.h **** 		| ((uint32_t)bp[2] << 8)
ARM GAS  /tmp/ccyijaMA.s 			page 33


 1100              		.loc 3 150 22 view .LVU387
 1101 0054 1B04     		lsls	r3, r3, #16
 150:/mnt/c/Users/31740/Documents/codes/newcore-rp2350/include/linux/libfdt.h **** 		| ((uint32_t)bp[2] << 8)
 1102              		.loc 3 150 3 view .LVU388
 1103 0056 43EA0163 		orr	r3, r3, r1, lsl #24
 151:/mnt/c/Users/31740/Documents/codes/newcore-rp2350/include/linux/libfdt.h **** 		| bp[3];
 1104              		.loc 3 151 18 view .LVU389
 1105 005a 94F82210 		ldrb	r1, [r4, #34]	@ zero_extendqisi2
 151:/mnt/c/Users/31740/Documents/codes/newcore-rp2350/include/linux/libfdt.h **** 		| bp[3];
 1106              		.loc 3 151 3 view .LVU390
 1107 005e 43EA0123 		orr	r3, r3, r1, lsl #8
 152:/mnt/c/Users/31740/Documents/codes/newcore-rp2350/include/linux/libfdt.h **** }
 1108              		.loc 3 152 7 view .LVU391
 1109 0062 94F82310 		ldrb	r1, [r4, #35]	@ zero_extendqisi2
 152:/mnt/c/Users/31740/Documents/codes/newcore-rp2350/include/linux/libfdt.h **** }
 1110              		.loc 3 152 3 view .LVU392
 1111 0066 0B43     		orrs	r3, r3, r1
 1112              	.LVL98:
 152:/mnt/c/Users/31740/Documents/codes/newcore-rp2350/include/linux/libfdt.h **** }
 1113              		.loc 3 152 3 view .LVU393
 1114              	.LBE317:
 1115              	.LBE316:
 1116              		.loc 1 115 2 discriminator 1 view .LVU394
 1117 0068 1D44     		add	r5, r5, r3
 1118              	.LVL99:
 1119              	.LBB318:
 1120              	.LBI318:
 278:/mnt/c/Users/31740/Documents/codes/newcore-rp2350/include/linux/libfdt.h **** fdt_set_hdr_(size_dt_struct)
 1121              		.loc 3 278 1 is_stmt 1 view .LVU395
 1122              	.LBB319:
 278:/mnt/c/Users/31740/Documents/codes/newcore-rp2350/include/linux/libfdt.h **** fdt_set_hdr_(size_dt_struct)
 1123              		.loc 3 278 1 view .LVU396
 278:/mnt/c/Users/31740/Documents/codes/newcore-rp2350/include/linux/libfdt.h **** fdt_set_hdr_(size_dt_struct)
 1124              		.loc 3 278 1 view .LVU397
 1125              	.LBB320:
 1126              	.LBI320:
  57:/mnt/c/Users/31740/Documents/codes/newcore-rp2350/include/linux/libfdt_env.h **** {
 1127              		.loc 4 57 23 view .LVU398
 1128              	.LBB321:
 1129              		.loc 4 59 2 view .LVU399
 1130              		.loc 4 59 28 is_stmt 0 view .LVU400
 1131 006a C5F30723 		ubfx	r3, r5, #8, #8
 1132 006e 1B04     		lsls	r3, r3, #16
 1133 0070 43EA0563 		orr	r3, r3, r5, lsl #24
 1134 0074 C5F30741 		ubfx	r1, r5, #16, #8
 1135 0078 43EA0123 		orr	r3, r3, r1, lsl #8
 1136              		.loc 4 59 9 view .LVU401
 1137 007c 43EA1565 		orr	r5, r3, r5, lsr #24
 1138              	.LVL100:
 1139              		.loc 4 59 9 view .LVU402
 1140              	.LBE321:
 1141              	.LBE320:
 278:/mnt/c/Users/31740/Documents/codes/newcore-rp2350/include/linux/libfdt.h **** fdt_set_hdr_(size_dt_struct)
 1142              		.loc 3 278 1 discriminator 1 view .LVU403
 1143 0080 2562     		str	r5, [r4, #32]
 1144              	.LVL101:
 278:/mnt/c/Users/31740/Documents/codes/newcore-rp2350/include/linux/libfdt.h **** fdt_set_hdr_(size_dt_struct)
ARM GAS  /tmp/ccyijaMA.s 			page 34


 1145              		.loc 3 278 1 discriminator 1 view .LVU404
 1146              	.LBE319:
 1147              	.LBE318:
 116:/mnt/c/Users/31740/Documents/codes/newcore-rp2350/lib/fdt/fdt_rw.c **** 	return 0;
 1148              		.loc 1 116 2 is_stmt 1 view .LVU405
 1149              	.L33:
 117:/mnt/c/Users/31740/Documents/codes/newcore-rp2350/lib/fdt/fdt_rw.c **** }
 1150              		.loc 1 117 1 is_stmt 0 view .LVU406
 1151 0082 1046     		mov	r0, r2
 1152              	.LVL102:
 1153              		.loc 1 117 1 view .LVU407
 1154 0084 38BD     		pop	{r3, r4, r5, pc}
 1155              		.loc 1 117 1 view .LVU408
 1156              		.cfi_endproc
 1157              	.LFE82:
 1159              		.section	.text.fdt_packblocks_,"ax",%progbits
 1160              		.align	1
 1161              		.syntax unified
 1162              		.thumb
 1163              		.thumb_func
 1165              	fdt_packblocks_:
 1166              	.LVL103:
 1167              	.LFB96:
 118:/mnt/c/Users/31740/Documents/codes/newcore-rp2350/lib/fdt/fdt_rw.c **** 
 119:/mnt/c/Users/31740/Documents/codes/newcore-rp2350/lib/fdt/fdt_rw.c **** /**
 120:/mnt/c/Users/31740/Documents/codes/newcore-rp2350/lib/fdt/fdt_rw.c ****  * fdt_find_add_string_() - Find or allocate a string
 121:/mnt/c/Users/31740/Documents/codes/newcore-rp2350/lib/fdt/fdt_rw.c ****  *
 122:/mnt/c/Users/31740/Documents/codes/newcore-rp2350/lib/fdt/fdt_rw.c ****  * @fdt: pointer to the device tree to check/adjust
 123:/mnt/c/Users/31740/Documents/codes/newcore-rp2350/lib/fdt/fdt_rw.c ****  * @s: string to find/add
 124:/mnt/c/Users/31740/Documents/codes/newcore-rp2350/lib/fdt/fdt_rw.c ****  * @allocated: Set to 0 if the string was found, 1 if not found and so
 125:/mnt/c/Users/31740/Documents/codes/newcore-rp2350/lib/fdt/fdt_rw.c ****  *	allocated. Ignored if can_assume(NO_ROLLBACK)
 126:/mnt/c/Users/31740/Documents/codes/newcore-rp2350/lib/fdt/fdt_rw.c ****  * @return offset of string in the string table (whether found or added)
 127:/mnt/c/Users/31740/Documents/codes/newcore-rp2350/lib/fdt/fdt_rw.c ****  */
 128:/mnt/c/Users/31740/Documents/codes/newcore-rp2350/lib/fdt/fdt_rw.c **** static int fdt_find_add_string_(void *fdt, const char *s, int slen,
 129:/mnt/c/Users/31740/Documents/codes/newcore-rp2350/lib/fdt/fdt_rw.c **** 				int *allocated)
 130:/mnt/c/Users/31740/Documents/codes/newcore-rp2350/lib/fdt/fdt_rw.c **** {
 131:/mnt/c/Users/31740/Documents/codes/newcore-rp2350/lib/fdt/fdt_rw.c **** 	char *strtab = (char *)fdt + fdt_off_dt_strings(fdt);
 132:/mnt/c/Users/31740/Documents/codes/newcore-rp2350/lib/fdt/fdt_rw.c **** 	const char *p;
 133:/mnt/c/Users/31740/Documents/codes/newcore-rp2350/lib/fdt/fdt_rw.c **** 	char *new;
 134:/mnt/c/Users/31740/Documents/codes/newcore-rp2350/lib/fdt/fdt_rw.c **** 	int err;
 135:/mnt/c/Users/31740/Documents/codes/newcore-rp2350/lib/fdt/fdt_rw.c **** 
 136:/mnt/c/Users/31740/Documents/codes/newcore-rp2350/lib/fdt/fdt_rw.c **** 	if (!can_assume(NO_ROLLBACK))
 137:/mnt/c/Users/31740/Documents/codes/newcore-rp2350/lib/fdt/fdt_rw.c **** 		*allocated = 0;
 138:/mnt/c/Users/31740/Documents/codes/newcore-rp2350/lib/fdt/fdt_rw.c **** 
 139:/mnt/c/Users/31740/Documents/codes/newcore-rp2350/lib/fdt/fdt_rw.c **** 	p = fdt_find_string_len_(strtab, fdt_size_dt_strings(fdt), s, slen);
 140:/mnt/c/Users/31740/Documents/codes/newcore-rp2350/lib/fdt/fdt_rw.c **** 	if (p)
 141:/mnt/c/Users/31740/Documents/codes/newcore-rp2350/lib/fdt/fdt_rw.c **** 		/* found it */
 142:/mnt/c/Users/31740/Documents/codes/newcore-rp2350/lib/fdt/fdt_rw.c **** 		return (p - strtab);
 143:/mnt/c/Users/31740/Documents/codes/newcore-rp2350/lib/fdt/fdt_rw.c **** 
 144:/mnt/c/Users/31740/Documents/codes/newcore-rp2350/lib/fdt/fdt_rw.c **** 	new = strtab + fdt_size_dt_strings(fdt);
 145:/mnt/c/Users/31740/Documents/codes/newcore-rp2350/lib/fdt/fdt_rw.c **** 	err = fdt_splice_string_(fdt, slen + 1);
 146:/mnt/c/Users/31740/Documents/codes/newcore-rp2350/lib/fdt/fdt_rw.c **** 	if (err)
 147:/mnt/c/Users/31740/Documents/codes/newcore-rp2350/lib/fdt/fdt_rw.c **** 		return err;
 148:/mnt/c/Users/31740/Documents/codes/newcore-rp2350/lib/fdt/fdt_rw.c **** 
 149:/mnt/c/Users/31740/Documents/codes/newcore-rp2350/lib/fdt/fdt_rw.c **** 	if (!can_assume(NO_ROLLBACK))
 150:/mnt/c/Users/31740/Documents/codes/newcore-rp2350/lib/fdt/fdt_rw.c **** 		*allocated = 1;
 151:/mnt/c/Users/31740/Documents/codes/newcore-rp2350/lib/fdt/fdt_rw.c **** 
ARM GAS  /tmp/ccyijaMA.s 			page 35


 152:/mnt/c/Users/31740/Documents/codes/newcore-rp2350/lib/fdt/fdt_rw.c **** 	memcpy(new, s, slen);
 153:/mnt/c/Users/31740/Documents/codes/newcore-rp2350/lib/fdt/fdt_rw.c **** 	new[slen] = '\0';
 154:/mnt/c/Users/31740/Documents/codes/newcore-rp2350/lib/fdt/fdt_rw.c **** 
 155:/mnt/c/Users/31740/Documents/codes/newcore-rp2350/lib/fdt/fdt_rw.c **** 	return (new - strtab);
 156:/mnt/c/Users/31740/Documents/codes/newcore-rp2350/lib/fdt/fdt_rw.c **** }
 157:/mnt/c/Users/31740/Documents/codes/newcore-rp2350/lib/fdt/fdt_rw.c **** 
 158:/mnt/c/Users/31740/Documents/codes/newcore-rp2350/lib/fdt/fdt_rw.c **** int fdt_add_mem_rsv(void *fdt, uint64_t address, uint64_t size)
 159:/mnt/c/Users/31740/Documents/codes/newcore-rp2350/lib/fdt/fdt_rw.c **** {
 160:/mnt/c/Users/31740/Documents/codes/newcore-rp2350/lib/fdt/fdt_rw.c **** 	struct fdt_reserve_entry *re;
 161:/mnt/c/Users/31740/Documents/codes/newcore-rp2350/lib/fdt/fdt_rw.c **** 	int err;
 162:/mnt/c/Users/31740/Documents/codes/newcore-rp2350/lib/fdt/fdt_rw.c **** 
 163:/mnt/c/Users/31740/Documents/codes/newcore-rp2350/lib/fdt/fdt_rw.c **** 	FDT_RW_PROBE(fdt);
 164:/mnt/c/Users/31740/Documents/codes/newcore-rp2350/lib/fdt/fdt_rw.c **** 
 165:/mnt/c/Users/31740/Documents/codes/newcore-rp2350/lib/fdt/fdt_rw.c **** 	re = fdt_mem_rsv_w_(fdt, fdt_num_mem_rsv(fdt));
 166:/mnt/c/Users/31740/Documents/codes/newcore-rp2350/lib/fdt/fdt_rw.c **** 	err = fdt_splice_mem_rsv_(fdt, re, 0, 1);
 167:/mnt/c/Users/31740/Documents/codes/newcore-rp2350/lib/fdt/fdt_rw.c **** 	if (err)
 168:/mnt/c/Users/31740/Documents/codes/newcore-rp2350/lib/fdt/fdt_rw.c **** 		return err;
 169:/mnt/c/Users/31740/Documents/codes/newcore-rp2350/lib/fdt/fdt_rw.c **** 
 170:/mnt/c/Users/31740/Documents/codes/newcore-rp2350/lib/fdt/fdt_rw.c **** 	re->address = cpu_to_fdt64(address);
 171:/mnt/c/Users/31740/Documents/codes/newcore-rp2350/lib/fdt/fdt_rw.c **** 	re->size = cpu_to_fdt64(size);
 172:/mnt/c/Users/31740/Documents/codes/newcore-rp2350/lib/fdt/fdt_rw.c **** 	return 0;
 173:/mnt/c/Users/31740/Documents/codes/newcore-rp2350/lib/fdt/fdt_rw.c **** }
 174:/mnt/c/Users/31740/Documents/codes/newcore-rp2350/lib/fdt/fdt_rw.c **** 
 175:/mnt/c/Users/31740/Documents/codes/newcore-rp2350/lib/fdt/fdt_rw.c **** int fdt_del_mem_rsv(void *fdt, int n)
 176:/mnt/c/Users/31740/Documents/codes/newcore-rp2350/lib/fdt/fdt_rw.c **** {
 177:/mnt/c/Users/31740/Documents/codes/newcore-rp2350/lib/fdt/fdt_rw.c **** 	struct fdt_reserve_entry *re = fdt_mem_rsv_w_(fdt, n);
 178:/mnt/c/Users/31740/Documents/codes/newcore-rp2350/lib/fdt/fdt_rw.c **** 
 179:/mnt/c/Users/31740/Documents/codes/newcore-rp2350/lib/fdt/fdt_rw.c **** 	FDT_RW_PROBE(fdt);
 180:/mnt/c/Users/31740/Documents/codes/newcore-rp2350/lib/fdt/fdt_rw.c **** 
 181:/mnt/c/Users/31740/Documents/codes/newcore-rp2350/lib/fdt/fdt_rw.c **** 	if (n >= fdt_num_mem_rsv(fdt))
 182:/mnt/c/Users/31740/Documents/codes/newcore-rp2350/lib/fdt/fdt_rw.c **** 		return -FDT_ERR_NOTFOUND;
 183:/mnt/c/Users/31740/Documents/codes/newcore-rp2350/lib/fdt/fdt_rw.c **** 
 184:/mnt/c/Users/31740/Documents/codes/newcore-rp2350/lib/fdt/fdt_rw.c **** 	return fdt_splice_mem_rsv_(fdt, re, 1, 0);
 185:/mnt/c/Users/31740/Documents/codes/newcore-rp2350/lib/fdt/fdt_rw.c **** }
 186:/mnt/c/Users/31740/Documents/codes/newcore-rp2350/lib/fdt/fdt_rw.c **** 
 187:/mnt/c/Users/31740/Documents/codes/newcore-rp2350/lib/fdt/fdt_rw.c **** static int fdt_resize_property_(void *fdt, int nodeoffset,
 188:/mnt/c/Users/31740/Documents/codes/newcore-rp2350/lib/fdt/fdt_rw.c **** 				const char *name, int namelen,
 189:/mnt/c/Users/31740/Documents/codes/newcore-rp2350/lib/fdt/fdt_rw.c **** 				int len, struct fdt_property **prop)
 190:/mnt/c/Users/31740/Documents/codes/newcore-rp2350/lib/fdt/fdt_rw.c **** {
 191:/mnt/c/Users/31740/Documents/codes/newcore-rp2350/lib/fdt/fdt_rw.c **** 	int oldlen;
 192:/mnt/c/Users/31740/Documents/codes/newcore-rp2350/lib/fdt/fdt_rw.c **** 	int err;
 193:/mnt/c/Users/31740/Documents/codes/newcore-rp2350/lib/fdt/fdt_rw.c **** 
 194:/mnt/c/Users/31740/Documents/codes/newcore-rp2350/lib/fdt/fdt_rw.c **** 	*prop = fdt_get_property_namelen_w(fdt, nodeoffset, name, namelen,
 195:/mnt/c/Users/31740/Documents/codes/newcore-rp2350/lib/fdt/fdt_rw.c **** 					   &oldlen);
 196:/mnt/c/Users/31740/Documents/codes/newcore-rp2350/lib/fdt/fdt_rw.c **** 	if (!*prop)
 197:/mnt/c/Users/31740/Documents/codes/newcore-rp2350/lib/fdt/fdt_rw.c **** 		return oldlen;
 198:/mnt/c/Users/31740/Documents/codes/newcore-rp2350/lib/fdt/fdt_rw.c **** 
 199:/mnt/c/Users/31740/Documents/codes/newcore-rp2350/lib/fdt/fdt_rw.c **** 	if ((err = fdt_splice_struct_(fdt, (*prop)->data, FDT_TAGALIGN(oldlen),
 200:/mnt/c/Users/31740/Documents/codes/newcore-rp2350/lib/fdt/fdt_rw.c **** 				      FDT_TAGALIGN(len))))
 201:/mnt/c/Users/31740/Documents/codes/newcore-rp2350/lib/fdt/fdt_rw.c **** 		return err;
 202:/mnt/c/Users/31740/Documents/codes/newcore-rp2350/lib/fdt/fdt_rw.c **** 
 203:/mnt/c/Users/31740/Documents/codes/newcore-rp2350/lib/fdt/fdt_rw.c **** 	(*prop)->len = cpu_to_fdt32(len);
 204:/mnt/c/Users/31740/Documents/codes/newcore-rp2350/lib/fdt/fdt_rw.c **** 	return 0;
 205:/mnt/c/Users/31740/Documents/codes/newcore-rp2350/lib/fdt/fdt_rw.c **** }
 206:/mnt/c/Users/31740/Documents/codes/newcore-rp2350/lib/fdt/fdt_rw.c **** 
 207:/mnt/c/Users/31740/Documents/codes/newcore-rp2350/lib/fdt/fdt_rw.c **** static int fdt_add_property_(void *fdt, int nodeoffset, const char *name,
 208:/mnt/c/Users/31740/Documents/codes/newcore-rp2350/lib/fdt/fdt_rw.c **** 			     int namelen, int len, struct fdt_property **prop)
ARM GAS  /tmp/ccyijaMA.s 			page 36


 209:/mnt/c/Users/31740/Documents/codes/newcore-rp2350/lib/fdt/fdt_rw.c **** {
 210:/mnt/c/Users/31740/Documents/codes/newcore-rp2350/lib/fdt/fdt_rw.c **** 	int proplen;
 211:/mnt/c/Users/31740/Documents/codes/newcore-rp2350/lib/fdt/fdt_rw.c **** 	int nextoffset;
 212:/mnt/c/Users/31740/Documents/codes/newcore-rp2350/lib/fdt/fdt_rw.c **** 	int namestroff;
 213:/mnt/c/Users/31740/Documents/codes/newcore-rp2350/lib/fdt/fdt_rw.c **** 	int err;
 214:/mnt/c/Users/31740/Documents/codes/newcore-rp2350/lib/fdt/fdt_rw.c **** 	int allocated;
 215:/mnt/c/Users/31740/Documents/codes/newcore-rp2350/lib/fdt/fdt_rw.c **** 
 216:/mnt/c/Users/31740/Documents/codes/newcore-rp2350/lib/fdt/fdt_rw.c **** 	if ((nextoffset = fdt_check_node_offset_(fdt, nodeoffset)) < 0)
 217:/mnt/c/Users/31740/Documents/codes/newcore-rp2350/lib/fdt/fdt_rw.c **** 		return nextoffset;
 218:/mnt/c/Users/31740/Documents/codes/newcore-rp2350/lib/fdt/fdt_rw.c **** 
 219:/mnt/c/Users/31740/Documents/codes/newcore-rp2350/lib/fdt/fdt_rw.c **** 	namestroff = fdt_find_add_string_(fdt, name, namelen, &allocated);
 220:/mnt/c/Users/31740/Documents/codes/newcore-rp2350/lib/fdt/fdt_rw.c **** 	if (namestroff < 0)
 221:/mnt/c/Users/31740/Documents/codes/newcore-rp2350/lib/fdt/fdt_rw.c **** 		return namestroff;
 222:/mnt/c/Users/31740/Documents/codes/newcore-rp2350/lib/fdt/fdt_rw.c **** 
 223:/mnt/c/Users/31740/Documents/codes/newcore-rp2350/lib/fdt/fdt_rw.c **** 	*prop = fdt_offset_ptr_w_(fdt, nextoffset);
 224:/mnt/c/Users/31740/Documents/codes/newcore-rp2350/lib/fdt/fdt_rw.c **** 	proplen = sizeof(**prop) + FDT_TAGALIGN(len);
 225:/mnt/c/Users/31740/Documents/codes/newcore-rp2350/lib/fdt/fdt_rw.c **** 
 226:/mnt/c/Users/31740/Documents/codes/newcore-rp2350/lib/fdt/fdt_rw.c **** 	err = fdt_splice_struct_(fdt, *prop, 0, proplen);
 227:/mnt/c/Users/31740/Documents/codes/newcore-rp2350/lib/fdt/fdt_rw.c **** 	if (err) {
 228:/mnt/c/Users/31740/Documents/codes/newcore-rp2350/lib/fdt/fdt_rw.c **** 		/* Delete the string if we failed to add it */
 229:/mnt/c/Users/31740/Documents/codes/newcore-rp2350/lib/fdt/fdt_rw.c **** 		if (!can_assume(NO_ROLLBACK) && allocated)
 230:/mnt/c/Users/31740/Documents/codes/newcore-rp2350/lib/fdt/fdt_rw.c **** 			fdt_del_last_string_(fdt, name);
 231:/mnt/c/Users/31740/Documents/codes/newcore-rp2350/lib/fdt/fdt_rw.c **** 		return err;
 232:/mnt/c/Users/31740/Documents/codes/newcore-rp2350/lib/fdt/fdt_rw.c **** 	}
 233:/mnt/c/Users/31740/Documents/codes/newcore-rp2350/lib/fdt/fdt_rw.c **** 
 234:/mnt/c/Users/31740/Documents/codes/newcore-rp2350/lib/fdt/fdt_rw.c **** 	(*prop)->tag = cpu_to_fdt32(FDT_PROP);
 235:/mnt/c/Users/31740/Documents/codes/newcore-rp2350/lib/fdt/fdt_rw.c **** 	(*prop)->nameoff = cpu_to_fdt32(namestroff);
 236:/mnt/c/Users/31740/Documents/codes/newcore-rp2350/lib/fdt/fdt_rw.c **** 	(*prop)->len = cpu_to_fdt32(len);
 237:/mnt/c/Users/31740/Documents/codes/newcore-rp2350/lib/fdt/fdt_rw.c **** 	return 0;
 238:/mnt/c/Users/31740/Documents/codes/newcore-rp2350/lib/fdt/fdt_rw.c **** }
 239:/mnt/c/Users/31740/Documents/codes/newcore-rp2350/lib/fdt/fdt_rw.c **** 
 240:/mnt/c/Users/31740/Documents/codes/newcore-rp2350/lib/fdt/fdt_rw.c **** int fdt_set_name(void *fdt, int nodeoffset, const char *name)
 241:/mnt/c/Users/31740/Documents/codes/newcore-rp2350/lib/fdt/fdt_rw.c **** {
 242:/mnt/c/Users/31740/Documents/codes/newcore-rp2350/lib/fdt/fdt_rw.c **** 	char *namep;
 243:/mnt/c/Users/31740/Documents/codes/newcore-rp2350/lib/fdt/fdt_rw.c **** 	int oldlen, newlen;
 244:/mnt/c/Users/31740/Documents/codes/newcore-rp2350/lib/fdt/fdt_rw.c **** 	int err;
 245:/mnt/c/Users/31740/Documents/codes/newcore-rp2350/lib/fdt/fdt_rw.c **** 
 246:/mnt/c/Users/31740/Documents/codes/newcore-rp2350/lib/fdt/fdt_rw.c **** 	FDT_RW_PROBE(fdt);
 247:/mnt/c/Users/31740/Documents/codes/newcore-rp2350/lib/fdt/fdt_rw.c **** 
 248:/mnt/c/Users/31740/Documents/codes/newcore-rp2350/lib/fdt/fdt_rw.c **** 	namep = (char *)(uintptr_t)fdt_get_name(fdt, nodeoffset, &oldlen);
 249:/mnt/c/Users/31740/Documents/codes/newcore-rp2350/lib/fdt/fdt_rw.c **** 	if (!namep)
 250:/mnt/c/Users/31740/Documents/codes/newcore-rp2350/lib/fdt/fdt_rw.c **** 		return oldlen;
 251:/mnt/c/Users/31740/Documents/codes/newcore-rp2350/lib/fdt/fdt_rw.c **** 
 252:/mnt/c/Users/31740/Documents/codes/newcore-rp2350/lib/fdt/fdt_rw.c **** 	newlen = strlen(name);
 253:/mnt/c/Users/31740/Documents/codes/newcore-rp2350/lib/fdt/fdt_rw.c **** 
 254:/mnt/c/Users/31740/Documents/codes/newcore-rp2350/lib/fdt/fdt_rw.c **** 	err = fdt_splice_struct_(fdt, namep, FDT_TAGALIGN(oldlen+1),
 255:/mnt/c/Users/31740/Documents/codes/newcore-rp2350/lib/fdt/fdt_rw.c **** 				 FDT_TAGALIGN(newlen+1));
 256:/mnt/c/Users/31740/Documents/codes/newcore-rp2350/lib/fdt/fdt_rw.c **** 	if (err)
 257:/mnt/c/Users/31740/Documents/codes/newcore-rp2350/lib/fdt/fdt_rw.c **** 		return err;
 258:/mnt/c/Users/31740/Documents/codes/newcore-rp2350/lib/fdt/fdt_rw.c **** 
 259:/mnt/c/Users/31740/Documents/codes/newcore-rp2350/lib/fdt/fdt_rw.c **** 	memcpy(namep, name, newlen+1);
 260:/mnt/c/Users/31740/Documents/codes/newcore-rp2350/lib/fdt/fdt_rw.c **** 	return 0;
 261:/mnt/c/Users/31740/Documents/codes/newcore-rp2350/lib/fdt/fdt_rw.c **** }
 262:/mnt/c/Users/31740/Documents/codes/newcore-rp2350/lib/fdt/fdt_rw.c **** 
 263:/mnt/c/Users/31740/Documents/codes/newcore-rp2350/lib/fdt/fdt_rw.c **** int fdt_setprop_placeholder_namelen(void *fdt, int nodeoffset, const char *name,
 264:/mnt/c/Users/31740/Documents/codes/newcore-rp2350/lib/fdt/fdt_rw.c **** 				    int namelen, int len, void **prop_data)
 265:/mnt/c/Users/31740/Documents/codes/newcore-rp2350/lib/fdt/fdt_rw.c **** {
ARM GAS  /tmp/ccyijaMA.s 			page 37


 266:/mnt/c/Users/31740/Documents/codes/newcore-rp2350/lib/fdt/fdt_rw.c **** 	struct fdt_property *prop;
 267:/mnt/c/Users/31740/Documents/codes/newcore-rp2350/lib/fdt/fdt_rw.c **** 	int err;
 268:/mnt/c/Users/31740/Documents/codes/newcore-rp2350/lib/fdt/fdt_rw.c **** 
 269:/mnt/c/Users/31740/Documents/codes/newcore-rp2350/lib/fdt/fdt_rw.c **** 	FDT_RW_PROBE(fdt);
 270:/mnt/c/Users/31740/Documents/codes/newcore-rp2350/lib/fdt/fdt_rw.c **** 
 271:/mnt/c/Users/31740/Documents/codes/newcore-rp2350/lib/fdt/fdt_rw.c **** 	err = fdt_resize_property_(fdt, nodeoffset, name, namelen, len, &prop);
 272:/mnt/c/Users/31740/Documents/codes/newcore-rp2350/lib/fdt/fdt_rw.c **** 	if (err == -FDT_ERR_NOTFOUND)
 273:/mnt/c/Users/31740/Documents/codes/newcore-rp2350/lib/fdt/fdt_rw.c **** 		err = fdt_add_property_(fdt, nodeoffset, name, namelen, len,
 274:/mnt/c/Users/31740/Documents/codes/newcore-rp2350/lib/fdt/fdt_rw.c **** 					&prop);
 275:/mnt/c/Users/31740/Documents/codes/newcore-rp2350/lib/fdt/fdt_rw.c **** 	if (err)
 276:/mnt/c/Users/31740/Documents/codes/newcore-rp2350/lib/fdt/fdt_rw.c **** 		return err;
 277:/mnt/c/Users/31740/Documents/codes/newcore-rp2350/lib/fdt/fdt_rw.c **** 
 278:/mnt/c/Users/31740/Documents/codes/newcore-rp2350/lib/fdt/fdt_rw.c **** 	*prop_data = prop->data;
 279:/mnt/c/Users/31740/Documents/codes/newcore-rp2350/lib/fdt/fdt_rw.c **** 	return 0;
 280:/mnt/c/Users/31740/Documents/codes/newcore-rp2350/lib/fdt/fdt_rw.c **** }
 281:/mnt/c/Users/31740/Documents/codes/newcore-rp2350/lib/fdt/fdt_rw.c **** 
 282:/mnt/c/Users/31740/Documents/codes/newcore-rp2350/lib/fdt/fdt_rw.c **** int fdt_setprop_namelen(void *fdt, int nodeoffset, const char *name,
 283:/mnt/c/Users/31740/Documents/codes/newcore-rp2350/lib/fdt/fdt_rw.c **** 			int namelen, const void *val, int len)
 284:/mnt/c/Users/31740/Documents/codes/newcore-rp2350/lib/fdt/fdt_rw.c **** {
 285:/mnt/c/Users/31740/Documents/codes/newcore-rp2350/lib/fdt/fdt_rw.c **** 	void *prop_data;
 286:/mnt/c/Users/31740/Documents/codes/newcore-rp2350/lib/fdt/fdt_rw.c **** 	int err;
 287:/mnt/c/Users/31740/Documents/codes/newcore-rp2350/lib/fdt/fdt_rw.c **** 
 288:/mnt/c/Users/31740/Documents/codes/newcore-rp2350/lib/fdt/fdt_rw.c **** 	err = fdt_setprop_placeholder_namelen(fdt, nodeoffset, name, namelen,
 289:/mnt/c/Users/31740/Documents/codes/newcore-rp2350/lib/fdt/fdt_rw.c **** 					      len, &prop_data);
 290:/mnt/c/Users/31740/Documents/codes/newcore-rp2350/lib/fdt/fdt_rw.c **** 	if (err)
 291:/mnt/c/Users/31740/Documents/codes/newcore-rp2350/lib/fdt/fdt_rw.c **** 		return err;
 292:/mnt/c/Users/31740/Documents/codes/newcore-rp2350/lib/fdt/fdt_rw.c **** 
 293:/mnt/c/Users/31740/Documents/codes/newcore-rp2350/lib/fdt/fdt_rw.c **** 	if (len)
 294:/mnt/c/Users/31740/Documents/codes/newcore-rp2350/lib/fdt/fdt_rw.c **** 		memcpy(prop_data, val, len);
 295:/mnt/c/Users/31740/Documents/codes/newcore-rp2350/lib/fdt/fdt_rw.c **** 	return 0;
 296:/mnt/c/Users/31740/Documents/codes/newcore-rp2350/lib/fdt/fdt_rw.c **** }
 297:/mnt/c/Users/31740/Documents/codes/newcore-rp2350/lib/fdt/fdt_rw.c **** 
 298:/mnt/c/Users/31740/Documents/codes/newcore-rp2350/lib/fdt/fdt_rw.c **** int fdt_appendprop(void *fdt, int nodeoffset, const char *name,
 299:/mnt/c/Users/31740/Documents/codes/newcore-rp2350/lib/fdt/fdt_rw.c **** 		   const void *val, int len)
 300:/mnt/c/Users/31740/Documents/codes/newcore-rp2350/lib/fdt/fdt_rw.c **** {
 301:/mnt/c/Users/31740/Documents/codes/newcore-rp2350/lib/fdt/fdt_rw.c **** 	struct fdt_property *prop;
 302:/mnt/c/Users/31740/Documents/codes/newcore-rp2350/lib/fdt/fdt_rw.c **** 	int err, oldlen, newlen;
 303:/mnt/c/Users/31740/Documents/codes/newcore-rp2350/lib/fdt/fdt_rw.c **** 
 304:/mnt/c/Users/31740/Documents/codes/newcore-rp2350/lib/fdt/fdt_rw.c **** 	FDT_RW_PROBE(fdt);
 305:/mnt/c/Users/31740/Documents/codes/newcore-rp2350/lib/fdt/fdt_rw.c **** 
 306:/mnt/c/Users/31740/Documents/codes/newcore-rp2350/lib/fdt/fdt_rw.c **** 	prop = fdt_get_property_w(fdt, nodeoffset, name, &oldlen);
 307:/mnt/c/Users/31740/Documents/codes/newcore-rp2350/lib/fdt/fdt_rw.c **** 	if (prop) {
 308:/mnt/c/Users/31740/Documents/codes/newcore-rp2350/lib/fdt/fdt_rw.c **** 		newlen = len + oldlen;
 309:/mnt/c/Users/31740/Documents/codes/newcore-rp2350/lib/fdt/fdt_rw.c **** 		err = fdt_splice_struct_(fdt, prop->data,
 310:/mnt/c/Users/31740/Documents/codes/newcore-rp2350/lib/fdt/fdt_rw.c **** 					 FDT_TAGALIGN(oldlen),
 311:/mnt/c/Users/31740/Documents/codes/newcore-rp2350/lib/fdt/fdt_rw.c **** 					 FDT_TAGALIGN(newlen));
 312:/mnt/c/Users/31740/Documents/codes/newcore-rp2350/lib/fdt/fdt_rw.c **** 		if (err)
 313:/mnt/c/Users/31740/Documents/codes/newcore-rp2350/lib/fdt/fdt_rw.c **** 			return err;
 314:/mnt/c/Users/31740/Documents/codes/newcore-rp2350/lib/fdt/fdt_rw.c **** 		prop->len = cpu_to_fdt32(newlen);
 315:/mnt/c/Users/31740/Documents/codes/newcore-rp2350/lib/fdt/fdt_rw.c **** 		memcpy(prop->data + oldlen, val, len);
 316:/mnt/c/Users/31740/Documents/codes/newcore-rp2350/lib/fdt/fdt_rw.c **** 	} else {
 317:/mnt/c/Users/31740/Documents/codes/newcore-rp2350/lib/fdt/fdt_rw.c **** 		err = fdt_add_property_(fdt, nodeoffset, name, strlen(name),
 318:/mnt/c/Users/31740/Documents/codes/newcore-rp2350/lib/fdt/fdt_rw.c **** 					len, &prop);
 319:/mnt/c/Users/31740/Documents/codes/newcore-rp2350/lib/fdt/fdt_rw.c **** 		if (err)
 320:/mnt/c/Users/31740/Documents/codes/newcore-rp2350/lib/fdt/fdt_rw.c **** 			return err;
 321:/mnt/c/Users/31740/Documents/codes/newcore-rp2350/lib/fdt/fdt_rw.c **** 		memcpy(prop->data, val, len);
 322:/mnt/c/Users/31740/Documents/codes/newcore-rp2350/lib/fdt/fdt_rw.c **** 	}
ARM GAS  /tmp/ccyijaMA.s 			page 38


 323:/mnt/c/Users/31740/Documents/codes/newcore-rp2350/lib/fdt/fdt_rw.c **** 	return 0;
 324:/mnt/c/Users/31740/Documents/codes/newcore-rp2350/lib/fdt/fdt_rw.c **** }
 325:/mnt/c/Users/31740/Documents/codes/newcore-rp2350/lib/fdt/fdt_rw.c **** 
 326:/mnt/c/Users/31740/Documents/codes/newcore-rp2350/lib/fdt/fdt_rw.c **** int fdt_delprop(void *fdt, int nodeoffset, const char *name)
 327:/mnt/c/Users/31740/Documents/codes/newcore-rp2350/lib/fdt/fdt_rw.c **** {
 328:/mnt/c/Users/31740/Documents/codes/newcore-rp2350/lib/fdt/fdt_rw.c **** 	struct fdt_property *prop;
 329:/mnt/c/Users/31740/Documents/codes/newcore-rp2350/lib/fdt/fdt_rw.c **** 	int len, proplen;
 330:/mnt/c/Users/31740/Documents/codes/newcore-rp2350/lib/fdt/fdt_rw.c **** 
 331:/mnt/c/Users/31740/Documents/codes/newcore-rp2350/lib/fdt/fdt_rw.c **** 	FDT_RW_PROBE(fdt);
 332:/mnt/c/Users/31740/Documents/codes/newcore-rp2350/lib/fdt/fdt_rw.c **** 
 333:/mnt/c/Users/31740/Documents/codes/newcore-rp2350/lib/fdt/fdt_rw.c **** 	prop = fdt_get_property_w(fdt, nodeoffset, name, &len);
 334:/mnt/c/Users/31740/Documents/codes/newcore-rp2350/lib/fdt/fdt_rw.c **** 	if (!prop)
 335:/mnt/c/Users/31740/Documents/codes/newcore-rp2350/lib/fdt/fdt_rw.c **** 		return len;
 336:/mnt/c/Users/31740/Documents/codes/newcore-rp2350/lib/fdt/fdt_rw.c **** 
 337:/mnt/c/Users/31740/Documents/codes/newcore-rp2350/lib/fdt/fdt_rw.c **** 	proplen = sizeof(*prop) + FDT_TAGALIGN(len);
 338:/mnt/c/Users/31740/Documents/codes/newcore-rp2350/lib/fdt/fdt_rw.c **** 	return fdt_splice_struct_(fdt, prop, proplen, 0);
 339:/mnt/c/Users/31740/Documents/codes/newcore-rp2350/lib/fdt/fdt_rw.c **** }
 340:/mnt/c/Users/31740/Documents/codes/newcore-rp2350/lib/fdt/fdt_rw.c **** 
 341:/mnt/c/Users/31740/Documents/codes/newcore-rp2350/lib/fdt/fdt_rw.c **** int fdt_add_subnode_namelen(void *fdt, int parentoffset,
 342:/mnt/c/Users/31740/Documents/codes/newcore-rp2350/lib/fdt/fdt_rw.c **** 			    const char *name, int namelen)
 343:/mnt/c/Users/31740/Documents/codes/newcore-rp2350/lib/fdt/fdt_rw.c **** {
 344:/mnt/c/Users/31740/Documents/codes/newcore-rp2350/lib/fdt/fdt_rw.c **** 	struct fdt_node_header *nh;
 345:/mnt/c/Users/31740/Documents/codes/newcore-rp2350/lib/fdt/fdt_rw.c **** 	int offset, nextoffset;
 346:/mnt/c/Users/31740/Documents/codes/newcore-rp2350/lib/fdt/fdt_rw.c **** 	int nodelen;
 347:/mnt/c/Users/31740/Documents/codes/newcore-rp2350/lib/fdt/fdt_rw.c **** 	int err;
 348:/mnt/c/Users/31740/Documents/codes/newcore-rp2350/lib/fdt/fdt_rw.c **** 	uint32_t tag;
 349:/mnt/c/Users/31740/Documents/codes/newcore-rp2350/lib/fdt/fdt_rw.c **** 	fdt32_t *endtag;
 350:/mnt/c/Users/31740/Documents/codes/newcore-rp2350/lib/fdt/fdt_rw.c **** 
 351:/mnt/c/Users/31740/Documents/codes/newcore-rp2350/lib/fdt/fdt_rw.c **** 	FDT_RW_PROBE(fdt);
 352:/mnt/c/Users/31740/Documents/codes/newcore-rp2350/lib/fdt/fdt_rw.c **** 
 353:/mnt/c/Users/31740/Documents/codes/newcore-rp2350/lib/fdt/fdt_rw.c **** 	offset = fdt_subnode_offset_namelen(fdt, parentoffset, name, namelen);
 354:/mnt/c/Users/31740/Documents/codes/newcore-rp2350/lib/fdt/fdt_rw.c **** 	if (offset >= 0)
 355:/mnt/c/Users/31740/Documents/codes/newcore-rp2350/lib/fdt/fdt_rw.c **** 		return -FDT_ERR_EXISTS;
 356:/mnt/c/Users/31740/Documents/codes/newcore-rp2350/lib/fdt/fdt_rw.c **** 	else if (offset != -FDT_ERR_NOTFOUND)
 357:/mnt/c/Users/31740/Documents/codes/newcore-rp2350/lib/fdt/fdt_rw.c **** 		return offset;
 358:/mnt/c/Users/31740/Documents/codes/newcore-rp2350/lib/fdt/fdt_rw.c **** 
 359:/mnt/c/Users/31740/Documents/codes/newcore-rp2350/lib/fdt/fdt_rw.c **** 	/* Try to place the new node after the parent's properties */
 360:/mnt/c/Users/31740/Documents/codes/newcore-rp2350/lib/fdt/fdt_rw.c **** 	tag = fdt_next_tag(fdt, parentoffset, &nextoffset);
 361:/mnt/c/Users/31740/Documents/codes/newcore-rp2350/lib/fdt/fdt_rw.c **** 	/* the fdt_subnode_offset_namelen() should ensure this never hits */
 362:/mnt/c/Users/31740/Documents/codes/newcore-rp2350/lib/fdt/fdt_rw.c **** 	if (!can_assume(LIBFDT_FLAWLESS) && (tag != FDT_BEGIN_NODE))
 363:/mnt/c/Users/31740/Documents/codes/newcore-rp2350/lib/fdt/fdt_rw.c **** 		return -FDT_ERR_INTERNAL;
 364:/mnt/c/Users/31740/Documents/codes/newcore-rp2350/lib/fdt/fdt_rw.c **** 	do {
 365:/mnt/c/Users/31740/Documents/codes/newcore-rp2350/lib/fdt/fdt_rw.c **** 		offset = nextoffset;
 366:/mnt/c/Users/31740/Documents/codes/newcore-rp2350/lib/fdt/fdt_rw.c **** 		tag = fdt_next_tag(fdt, offset, &nextoffset);
 367:/mnt/c/Users/31740/Documents/codes/newcore-rp2350/lib/fdt/fdt_rw.c **** 	} while ((tag == FDT_PROP) || (tag == FDT_NOP));
 368:/mnt/c/Users/31740/Documents/codes/newcore-rp2350/lib/fdt/fdt_rw.c **** 
 369:/mnt/c/Users/31740/Documents/codes/newcore-rp2350/lib/fdt/fdt_rw.c **** 	nh = fdt_offset_ptr_w_(fdt, offset);
 370:/mnt/c/Users/31740/Documents/codes/newcore-rp2350/lib/fdt/fdt_rw.c **** 	nodelen = sizeof(*nh) + FDT_TAGALIGN(namelen+1) + FDT_TAGSIZE;
 371:/mnt/c/Users/31740/Documents/codes/newcore-rp2350/lib/fdt/fdt_rw.c **** 
 372:/mnt/c/Users/31740/Documents/codes/newcore-rp2350/lib/fdt/fdt_rw.c **** 	err = fdt_splice_struct_(fdt, nh, 0, nodelen);
 373:/mnt/c/Users/31740/Documents/codes/newcore-rp2350/lib/fdt/fdt_rw.c **** 	if (err)
 374:/mnt/c/Users/31740/Documents/codes/newcore-rp2350/lib/fdt/fdt_rw.c **** 		return err;
 375:/mnt/c/Users/31740/Documents/codes/newcore-rp2350/lib/fdt/fdt_rw.c **** 
 376:/mnt/c/Users/31740/Documents/codes/newcore-rp2350/lib/fdt/fdt_rw.c **** 	nh->tag = cpu_to_fdt32(FDT_BEGIN_NODE);
 377:/mnt/c/Users/31740/Documents/codes/newcore-rp2350/lib/fdt/fdt_rw.c **** 	memset(nh->name, 0, FDT_TAGALIGN(namelen+1));
 378:/mnt/c/Users/31740/Documents/codes/newcore-rp2350/lib/fdt/fdt_rw.c **** 	memcpy(nh->name, name, namelen);
 379:/mnt/c/Users/31740/Documents/codes/newcore-rp2350/lib/fdt/fdt_rw.c **** 	endtag = (fdt32_t *)((char *)nh + nodelen - FDT_TAGSIZE);
ARM GAS  /tmp/ccyijaMA.s 			page 39


 380:/mnt/c/Users/31740/Documents/codes/newcore-rp2350/lib/fdt/fdt_rw.c **** 	*endtag = cpu_to_fdt32(FDT_END_NODE);
 381:/mnt/c/Users/31740/Documents/codes/newcore-rp2350/lib/fdt/fdt_rw.c **** 
 382:/mnt/c/Users/31740/Documents/codes/newcore-rp2350/lib/fdt/fdt_rw.c **** 	return offset;
 383:/mnt/c/Users/31740/Documents/codes/newcore-rp2350/lib/fdt/fdt_rw.c **** }
 384:/mnt/c/Users/31740/Documents/codes/newcore-rp2350/lib/fdt/fdt_rw.c **** 
 385:/mnt/c/Users/31740/Documents/codes/newcore-rp2350/lib/fdt/fdt_rw.c **** int fdt_add_subnode(void *fdt, int parentoffset, const char *name)
 386:/mnt/c/Users/31740/Documents/codes/newcore-rp2350/lib/fdt/fdt_rw.c **** {
 387:/mnt/c/Users/31740/Documents/codes/newcore-rp2350/lib/fdt/fdt_rw.c **** 	return fdt_add_subnode_namelen(fdt, parentoffset, name, strlen(name));
 388:/mnt/c/Users/31740/Documents/codes/newcore-rp2350/lib/fdt/fdt_rw.c **** }
 389:/mnt/c/Users/31740/Documents/codes/newcore-rp2350/lib/fdt/fdt_rw.c **** 
 390:/mnt/c/Users/31740/Documents/codes/newcore-rp2350/lib/fdt/fdt_rw.c **** int fdt_del_node(void *fdt, int nodeoffset)
 391:/mnt/c/Users/31740/Documents/codes/newcore-rp2350/lib/fdt/fdt_rw.c **** {
 392:/mnt/c/Users/31740/Documents/codes/newcore-rp2350/lib/fdt/fdt_rw.c **** 	int endoffset;
 393:/mnt/c/Users/31740/Documents/codes/newcore-rp2350/lib/fdt/fdt_rw.c **** 
 394:/mnt/c/Users/31740/Documents/codes/newcore-rp2350/lib/fdt/fdt_rw.c **** 	FDT_RW_PROBE(fdt);
 395:/mnt/c/Users/31740/Documents/codes/newcore-rp2350/lib/fdt/fdt_rw.c **** 
 396:/mnt/c/Users/31740/Documents/codes/newcore-rp2350/lib/fdt/fdt_rw.c **** 	endoffset = fdt_node_end_offset_(fdt, nodeoffset);
 397:/mnt/c/Users/31740/Documents/codes/newcore-rp2350/lib/fdt/fdt_rw.c **** 	if (endoffset < 0)
 398:/mnt/c/Users/31740/Documents/codes/newcore-rp2350/lib/fdt/fdt_rw.c **** 		return endoffset;
 399:/mnt/c/Users/31740/Documents/codes/newcore-rp2350/lib/fdt/fdt_rw.c **** 
 400:/mnt/c/Users/31740/Documents/codes/newcore-rp2350/lib/fdt/fdt_rw.c **** 	return fdt_splice_struct_(fdt, fdt_offset_ptr_w_(fdt, nodeoffset),
 401:/mnt/c/Users/31740/Documents/codes/newcore-rp2350/lib/fdt/fdt_rw.c **** 				  endoffset - nodeoffset, 0);
 402:/mnt/c/Users/31740/Documents/codes/newcore-rp2350/lib/fdt/fdt_rw.c **** }
 403:/mnt/c/Users/31740/Documents/codes/newcore-rp2350/lib/fdt/fdt_rw.c **** 
 404:/mnt/c/Users/31740/Documents/codes/newcore-rp2350/lib/fdt/fdt_rw.c **** static void fdt_packblocks_(const char *old, char *new,
 405:/mnt/c/Users/31740/Documents/codes/newcore-rp2350/lib/fdt/fdt_rw.c **** 			    int mem_rsv_size,
 406:/mnt/c/Users/31740/Documents/codes/newcore-rp2350/lib/fdt/fdt_rw.c **** 			    int struct_size,
 407:/mnt/c/Users/31740/Documents/codes/newcore-rp2350/lib/fdt/fdt_rw.c **** 			    int strings_size)
 408:/mnt/c/Users/31740/Documents/codes/newcore-rp2350/lib/fdt/fdt_rw.c **** {
 1168              		.loc 1 408 1 is_stmt 1 view -0
 1169              		.cfi_startproc
 1170              		@ args = 4, pretend = 0, frame = 0
 1171              		@ frame_needed = 0, uses_anonymous_args = 0
 1172              		.loc 1 408 1 is_stmt 0 view .LVU410
 1173 0000 2DE9F041 		push	{r4, r5, r6, r7, r8, lr}
 1174              	.LCFI8:
 1175              		.cfi_def_cfa_offset 24
 1176              		.cfi_offset 4, -24
 1177              		.cfi_offset 5, -20
 1178              		.cfi_offset 6, -16
 1179              		.cfi_offset 7, -12
 1180              		.cfi_offset 8, -8
 1181              		.cfi_offset 14, -4
 1182 0004 0446     		mov	r4, r0
 1183 0006 0D46     		mov	r5, r1
 1184 0008 1F46     		mov	r7, r3
 409:/mnt/c/Users/31740/Documents/codes/newcore-rp2350/lib/fdt/fdt_rw.c **** 	int mem_rsv_off, struct_off, strings_off;
 1185              		.loc 1 409 2 is_stmt 1 view .LVU411
 410:/mnt/c/Users/31740/Documents/codes/newcore-rp2350/lib/fdt/fdt_rw.c **** 
 411:/mnt/c/Users/31740/Documents/codes/newcore-rp2350/lib/fdt/fdt_rw.c **** 	mem_rsv_off = FDT_ALIGN(sizeof(struct fdt_header), 8);
 1186              		.loc 1 411 2 view .LVU412
 1187              	.LVL104:
 412:/mnt/c/Users/31740/Documents/codes/newcore-rp2350/lib/fdt/fdt_rw.c **** 	struct_off = mem_rsv_off + mem_rsv_size;
 1188              		.loc 1 412 2 view .LVU413
 1189              		.loc 1 412 13 is_stmt 0 view .LVU414
 1190 000a 02F12808 		add	r8, r2, #40
 1191              	.LVL105:
ARM GAS  /tmp/ccyijaMA.s 			page 40


 413:/mnt/c/Users/31740/Documents/codes/newcore-rp2350/lib/fdt/fdt_rw.c **** 	strings_off = struct_off + struct_size;
 1192              		.loc 1 413 2 is_stmt 1 view .LVU415
 1193              		.loc 1 413 14 is_stmt 0 view .LVU416
 1194 000e 08EB0306 		add	r6, r8, r3
 1195              	.LVL106:
 414:/mnt/c/Users/31740/Documents/codes/newcore-rp2350/lib/fdt/fdt_rw.c **** 
 415:/mnt/c/Users/31740/Documents/codes/newcore-rp2350/lib/fdt/fdt_rw.c **** 	memmove(new + mem_rsv_off, old + fdt_off_mem_rsvmap(old), mem_rsv_size);
 1196              		.loc 1 415 2 is_stmt 1 view .LVU417
 1197              	.LBB322:
 1198              	.LBI322:
 145:/mnt/c/Users/31740/Documents/codes/newcore-rp2350/include/linux/libfdt.h **** {
 1199              		.loc 3 145 24 view .LVU418
 1200              	.LBB323:
 147:/mnt/c/Users/31740/Documents/codes/newcore-rp2350/include/linux/libfdt.h **** 
 1201              		.loc 3 147 2 view .LVU419
 149:/mnt/c/Users/31740/Documents/codes/newcore-rp2350/include/linux/libfdt.h **** 		| ((uint32_t)bp[1] << 16)
 1202              		.loc 3 149 2 view .LVU420
 149:/mnt/c/Users/31740/Documents/codes/newcore-rp2350/include/linux/libfdt.h **** 		| ((uint32_t)bp[1] << 16)
 1203              		.loc 3 149 22 is_stmt 0 view .LVU421
 1204 0012 037C     		ldrb	r3, [r0, #16]	@ zero_extendqisi2
 1205              	.LVL107:
 150:/mnt/c/Users/31740/Documents/codes/newcore-rp2350/include/linux/libfdt.h **** 		| ((uint32_t)bp[2] << 8)
 1206              		.loc 3 150 18 view .LVU422
 1207 0014 417C     		ldrb	r1, [r0, #17]	@ zero_extendqisi2
 1208              	.LVL108:
 150:/mnt/c/Users/31740/Documents/codes/newcore-rp2350/include/linux/libfdt.h **** 		| ((uint32_t)bp[2] << 8)
 1209              		.loc 3 150 22 view .LVU423
 1210 0016 0904     		lsls	r1, r1, #16
 150:/mnt/c/Users/31740/Documents/codes/newcore-rp2350/include/linux/libfdt.h **** 		| ((uint32_t)bp[2] << 8)
 1211              		.loc 3 150 3 view .LVU424
 1212 0018 41EA0361 		orr	r1, r1, r3, lsl #24
 151:/mnt/c/Users/31740/Documents/codes/newcore-rp2350/include/linux/libfdt.h **** 		| bp[3];
 1213              		.loc 3 151 18 view .LVU425
 1214 001c 837C     		ldrb	r3, [r0, #18]	@ zero_extendqisi2
 151:/mnt/c/Users/31740/Documents/codes/newcore-rp2350/include/linux/libfdt.h **** 		| bp[3];
 1215              		.loc 3 151 3 view .LVU426
 1216 001e 41EA0321 		orr	r1, r1, r3, lsl #8
 152:/mnt/c/Users/31740/Documents/codes/newcore-rp2350/include/linux/libfdt.h **** }
 1217              		.loc 3 152 7 view .LVU427
 1218 0022 C37C     		ldrb	r3, [r0, #19]	@ zero_extendqisi2
 152:/mnt/c/Users/31740/Documents/codes/newcore-rp2350/include/linux/libfdt.h **** }
 1219              		.loc 3 152 3 view .LVU428
 1220 0024 1943     		orrs	r1, r1, r3
 1221              	.LVL109:
 152:/mnt/c/Users/31740/Documents/codes/newcore-rp2350/include/linux/libfdt.h **** }
 1222              		.loc 3 152 3 view .LVU429
 1223              	.LBE323:
 1224              	.LBE322:
 1225              		.loc 1 415 2 discriminator 1 view .LVU430
 1226 0026 0144     		add	r1, r1, r0
 1227 0028 05F12800 		add	r0, r5, #40
 1228              	.LVL110:
 1229              		.loc 1 415 2 discriminator 1 view .LVU431
 1230 002c FFF7FEFF 		bl	memmove
 1231              	.LVL111:
 416:/mnt/c/Users/31740/Documents/codes/newcore-rp2350/lib/fdt/fdt_rw.c **** 	fdt_set_off_mem_rsvmap(new, mem_rsv_off);
 1232              		.loc 1 416 2 is_stmt 1 view .LVU432
ARM GAS  /tmp/ccyijaMA.s 			page 41


 1233              	.LBB324:
 1234              	.LBI324:
 274:/mnt/c/Users/31740/Documents/codes/newcore-rp2350/include/linux/libfdt.h **** fdt_set_hdr_(version)
 1235              		.loc 3 274 1 view .LVU433
 1236              	.LBB325:
 274:/mnt/c/Users/31740/Documents/codes/newcore-rp2350/include/linux/libfdt.h **** fdt_set_hdr_(version)
 1237              		.loc 3 274 1 view .LVU434
 274:/mnt/c/Users/31740/Documents/codes/newcore-rp2350/include/linux/libfdt.h **** fdt_set_hdr_(version)
 1238              		.loc 3 274 1 view .LVU435
 274:/mnt/c/Users/31740/Documents/codes/newcore-rp2350/include/linux/libfdt.h **** fdt_set_hdr_(version)
 1239              		.loc 3 274 1 is_stmt 0 discriminator 1 view .LVU436
 1240 0030 4FF02053 		mov	r3, #671088640
 1241 0034 2B61     		str	r3, [r5, #16]
 1242              	.LVL112:
 274:/mnt/c/Users/31740/Documents/codes/newcore-rp2350/include/linux/libfdt.h **** fdt_set_hdr_(version)
 1243              		.loc 3 274 1 discriminator 1 view .LVU437
 1244              	.LBE325:
 1245              	.LBE324:
 417:/mnt/c/Users/31740/Documents/codes/newcore-rp2350/lib/fdt/fdt_rw.c **** 
 418:/mnt/c/Users/31740/Documents/codes/newcore-rp2350/lib/fdt/fdt_rw.c **** 	memmove(new + struct_off, old + fdt_off_dt_struct(old), struct_size);
 1246              		.loc 1 418 2 is_stmt 1 view .LVU438
 1247              	.LBB326:
 1248              	.LBI326:
 145:/mnt/c/Users/31740/Documents/codes/newcore-rp2350/include/linux/libfdt.h **** {
 1249              		.loc 3 145 24 view .LVU439
 1250              	.LBB327:
 147:/mnt/c/Users/31740/Documents/codes/newcore-rp2350/include/linux/libfdt.h **** 
 1251              		.loc 3 147 2 view .LVU440
 149:/mnt/c/Users/31740/Documents/codes/newcore-rp2350/include/linux/libfdt.h **** 		| ((uint32_t)bp[1] << 16)
 1252              		.loc 3 149 2 view .LVU441
 149:/mnt/c/Users/31740/Documents/codes/newcore-rp2350/include/linux/libfdt.h **** 		| ((uint32_t)bp[1] << 16)
 1253              		.loc 3 149 22 is_stmt 0 view .LVU442
 1254 0036 237A     		ldrb	r3, [r4, #8]	@ zero_extendqisi2
 150:/mnt/c/Users/31740/Documents/codes/newcore-rp2350/include/linux/libfdt.h **** 		| ((uint32_t)bp[2] << 8)
 1255              		.loc 3 150 18 view .LVU443
 1256 0038 617A     		ldrb	r1, [r4, #9]	@ zero_extendqisi2
 150:/mnt/c/Users/31740/Documents/codes/newcore-rp2350/include/linux/libfdt.h **** 		| ((uint32_t)bp[2] << 8)
 1257              		.loc 3 150 22 view .LVU444
 1258 003a 0904     		lsls	r1, r1, #16
 150:/mnt/c/Users/31740/Documents/codes/newcore-rp2350/include/linux/libfdt.h **** 		| ((uint32_t)bp[2] << 8)
 1259              		.loc 3 150 3 view .LVU445
 1260 003c 41EA0361 		orr	r1, r1, r3, lsl #24
 151:/mnt/c/Users/31740/Documents/codes/newcore-rp2350/include/linux/libfdt.h **** 		| bp[3];
 1261              		.loc 3 151 18 view .LVU446
 1262 0040 A37A     		ldrb	r3, [r4, #10]	@ zero_extendqisi2
 151:/mnt/c/Users/31740/Documents/codes/newcore-rp2350/include/linux/libfdt.h **** 		| bp[3];
 1263              		.loc 3 151 3 view .LVU447
 1264 0042 41EA0321 		orr	r1, r1, r3, lsl #8
 152:/mnt/c/Users/31740/Documents/codes/newcore-rp2350/include/linux/libfdt.h **** }
 1265              		.loc 3 152 7 view .LVU448
 1266 0046 E37A     		ldrb	r3, [r4, #11]	@ zero_extendqisi2
 152:/mnt/c/Users/31740/Documents/codes/newcore-rp2350/include/linux/libfdt.h **** }
 1267              		.loc 3 152 3 view .LVU449
 1268 0048 1943     		orrs	r1, r1, r3
 1269              	.LVL113:
 152:/mnt/c/Users/31740/Documents/codes/newcore-rp2350/include/linux/libfdt.h **** }
 1270              		.loc 3 152 3 view .LVU450
ARM GAS  /tmp/ccyijaMA.s 			page 42


 1271              	.LBE327:
 1272              	.LBE326:
 1273              		.loc 1 418 2 discriminator 1 view .LVU451
 1274 004a 3A46     		mov	r2, r7
 1275 004c 2144     		add	r1, r1, r4
 1276 004e 05EB0800 		add	r0, r5, r8
 1277 0052 FFF7FEFF 		bl	memmove
 1278              	.LVL114:
 419:/mnt/c/Users/31740/Documents/codes/newcore-rp2350/lib/fdt/fdt_rw.c **** 	fdt_set_off_dt_struct(new, struct_off);
 1279              		.loc 1 419 2 is_stmt 1 view .LVU452
 1280              	.LBB328:
 1281              	.LBI328:
 272:/mnt/c/Users/31740/Documents/codes/newcore-rp2350/include/linux/libfdt.h **** fdt_set_hdr_(off_dt_strings)
 1282              		.loc 3 272 1 view .LVU453
 1283              	.LBB329:
 272:/mnt/c/Users/31740/Documents/codes/newcore-rp2350/include/linux/libfdt.h **** fdt_set_hdr_(off_dt_strings)
 1284              		.loc 3 272 1 view .LVU454
 272:/mnt/c/Users/31740/Documents/codes/newcore-rp2350/include/linux/libfdt.h **** fdt_set_hdr_(off_dt_strings)
 1285              		.loc 3 272 1 view .LVU455
 1286              	.LBB330:
 1287              	.LBI330:
  57:/mnt/c/Users/31740/Documents/codes/newcore-rp2350/include/linux/libfdt_env.h **** {
 1288              		.loc 4 57 23 view .LVU456
 1289              	.LBB331:
 1290              		.loc 4 59 2 view .LVU457
 1291              		.loc 4 59 28 is_stmt 0 view .LVU458
 1292 0056 C8F30722 		ubfx	r2, r8, #8, #8
 1293 005a 1204     		lsls	r2, r2, #16
 1294 005c 42EA0862 		orr	r2, r2, r8, lsl #24
 1295 0060 C8F30743 		ubfx	r3, r8, #16, #8
 1296 0064 42EA0322 		orr	r2, r2, r3, lsl #8
 1297              		.loc 4 59 9 view .LVU459
 1298 0068 42EA1862 		orr	r2, r2, r8, lsr #24
 1299              	.LVL115:
 1300              		.loc 4 59 9 view .LVU460
 1301              	.LBE331:
 1302              	.LBE330:
 272:/mnt/c/Users/31740/Documents/codes/newcore-rp2350/include/linux/libfdt.h **** fdt_set_hdr_(off_dt_strings)
 1303              		.loc 3 272 1 discriminator 1 view .LVU461
 1304 006c AA60     		str	r2, [r5, #8]
 1305              	.LVL116:
 272:/mnt/c/Users/31740/Documents/codes/newcore-rp2350/include/linux/libfdt.h **** fdt_set_hdr_(off_dt_strings)
 1306              		.loc 3 272 1 discriminator 1 view .LVU462
 1307              	.LBE329:
 1308              	.LBE328:
 420:/mnt/c/Users/31740/Documents/codes/newcore-rp2350/lib/fdt/fdt_rw.c **** 	fdt_set_size_dt_struct(new, struct_size);
 1309              		.loc 1 420 2 is_stmt 1 view .LVU463
 1310              	.LBB332:
 1311              	.LBI332:
 1312              		.loc 3 279 1 view .LVU464
 1313              	.LBB333:
 1314              		.loc 3 279 1 view .LVU465
 1315              		.loc 3 279 1 view .LVU466
 1316              	.LBB334:
 1317              	.LBI334:
  57:/mnt/c/Users/31740/Documents/codes/newcore-rp2350/include/linux/libfdt_env.h **** {
 1318              		.loc 4 57 23 view .LVU467
ARM GAS  /tmp/ccyijaMA.s 			page 43


 1319              	.LBB335:
 1320              		.loc 4 59 2 view .LVU468
 1321              		.loc 4 59 28 is_stmt 0 view .LVU469
 1322 006e C7F30721 		ubfx	r1, r7, #8, #8
 1323 0072 0904     		lsls	r1, r1, #16
 1324 0074 41EA0761 		orr	r1, r1, r7, lsl #24
 1325 0078 C7F30743 		ubfx	r3, r7, #16, #8
 1326 007c 41EA0321 		orr	r1, r1, r3, lsl #8
 1327              		.loc 4 59 9 view .LVU470
 1328 0080 41EA1761 		orr	r1, r1, r7, lsr #24
 1329              	.LVL117:
 1330              		.loc 4 59 9 view .LVU471
 1331              	.LBE335:
 1332              	.LBE334:
 1333              		.loc 3 279 1 discriminator 1 view .LVU472
 1334 0084 6962     		str	r1, [r5, #36]
 1335              	.LVL118:
 1336              		.loc 3 279 1 discriminator 1 view .LVU473
 1337              	.LBE333:
 1338              	.LBE332:
 421:/mnt/c/Users/31740/Documents/codes/newcore-rp2350/lib/fdt/fdt_rw.c **** 
 422:/mnt/c/Users/31740/Documents/codes/newcore-rp2350/lib/fdt/fdt_rw.c **** 	memmove(new + strings_off, old + fdt_off_dt_strings(old), strings_size);
 1339              		.loc 1 422 2 is_stmt 1 view .LVU474
 1340              	.LBB336:
 1341              	.LBI336:
 145:/mnt/c/Users/31740/Documents/codes/newcore-rp2350/include/linux/libfdt.h **** {
 1342              		.loc 3 145 24 view .LVU475
 1343              	.LBB337:
 147:/mnt/c/Users/31740/Documents/codes/newcore-rp2350/include/linux/libfdt.h **** 
 1344              		.loc 3 147 2 view .LVU476
 149:/mnt/c/Users/31740/Documents/codes/newcore-rp2350/include/linux/libfdt.h **** 		| ((uint32_t)bp[1] << 16)
 1345              		.loc 3 149 2 view .LVU477
 149:/mnt/c/Users/31740/Documents/codes/newcore-rp2350/include/linux/libfdt.h **** 		| ((uint32_t)bp[1] << 16)
 1346              		.loc 3 149 22 is_stmt 0 view .LVU478
 1347 0086 237B     		ldrb	r3, [r4, #12]	@ zero_extendqisi2
 150:/mnt/c/Users/31740/Documents/codes/newcore-rp2350/include/linux/libfdt.h **** 		| ((uint32_t)bp[2] << 8)
 1348              		.loc 3 150 18 view .LVU479
 1349 0088 617B     		ldrb	r1, [r4, #13]	@ zero_extendqisi2
 150:/mnt/c/Users/31740/Documents/codes/newcore-rp2350/include/linux/libfdt.h **** 		| ((uint32_t)bp[2] << 8)
 1350              		.loc 3 150 22 view .LVU480
 1351 008a 0904     		lsls	r1, r1, #16
 150:/mnt/c/Users/31740/Documents/codes/newcore-rp2350/include/linux/libfdt.h **** 		| ((uint32_t)bp[2] << 8)
 1352              		.loc 3 150 3 view .LVU481
 1353 008c 41EA0361 		orr	r1, r1, r3, lsl #24
 151:/mnt/c/Users/31740/Documents/codes/newcore-rp2350/include/linux/libfdt.h **** 		| bp[3];
 1354              		.loc 3 151 18 view .LVU482
 1355 0090 A37B     		ldrb	r3, [r4, #14]	@ zero_extendqisi2
 151:/mnt/c/Users/31740/Documents/codes/newcore-rp2350/include/linux/libfdt.h **** 		| bp[3];
 1356              		.loc 3 151 3 view .LVU483
 1357 0092 41EA0321 		orr	r1, r1, r3, lsl #8
 152:/mnt/c/Users/31740/Documents/codes/newcore-rp2350/include/linux/libfdt.h **** }
 1358              		.loc 3 152 7 view .LVU484
 1359 0096 E37B     		ldrb	r3, [r4, #15]	@ zero_extendqisi2
 152:/mnt/c/Users/31740/Documents/codes/newcore-rp2350/include/linux/libfdt.h **** }
 1360              		.loc 3 152 3 view .LVU485
 1361 0098 1943     		orrs	r1, r1, r3
 1362              	.LVL119:
ARM GAS  /tmp/ccyijaMA.s 			page 44


 152:/mnt/c/Users/31740/Documents/codes/newcore-rp2350/include/linux/libfdt.h **** }
 1363              		.loc 3 152 3 view .LVU486
 1364              	.LBE337:
 1365              	.LBE336:
 1366              		.loc 1 422 2 discriminator 1 view .LVU487
 1367 009a 069A     		ldr	r2, [sp, #24]
 1368 009c 2144     		add	r1, r1, r4
 1369 009e A819     		adds	r0, r5, r6
 1370 00a0 FFF7FEFF 		bl	memmove
 1371              	.LVL120:
 423:/mnt/c/Users/31740/Documents/codes/newcore-rp2350/lib/fdt/fdt_rw.c **** 	fdt_set_off_dt_strings(new, strings_off);
 1372              		.loc 1 423 2 is_stmt 1 view .LVU488
 1373              	.LBB338:
 1374              	.LBI338:
 273:/mnt/c/Users/31740/Documents/codes/newcore-rp2350/include/linux/libfdt.h **** fdt_set_hdr_(off_mem_rsvmap)
 1375              		.loc 3 273 1 view .LVU489
 1376              	.LBB339:
 273:/mnt/c/Users/31740/Documents/codes/newcore-rp2350/include/linux/libfdt.h **** fdt_set_hdr_(off_mem_rsvmap)
 1377              		.loc 3 273 1 view .LVU490
 273:/mnt/c/Users/31740/Documents/codes/newcore-rp2350/include/linux/libfdt.h **** fdt_set_hdr_(off_mem_rsvmap)
 1378              		.loc 3 273 1 view .LVU491
 1379              	.LBB340:
 1380              	.LBI340:
  57:/mnt/c/Users/31740/Documents/codes/newcore-rp2350/include/linux/libfdt_env.h **** {
 1381              		.loc 4 57 23 view .LVU492
 1382              	.LBB341:
 1383              		.loc 4 59 2 view .LVU493
 1384              		.loc 4 59 28 is_stmt 0 view .LVU494
 1385 00a4 C6F30723 		ubfx	r3, r6, #8, #8
 1386 00a8 1B04     		lsls	r3, r3, #16
 1387 00aa 43EA0663 		orr	r3, r3, r6, lsl #24
 1388 00ae C6F30742 		ubfx	r2, r6, #16, #8
 1389 00b2 43EA0223 		orr	r3, r3, r2, lsl #8
 1390              		.loc 4 59 9 view .LVU495
 1391 00b6 43EA1663 		orr	r3, r3, r6, lsr #24
 1392              	.LVL121:
 1393              		.loc 4 59 9 view .LVU496
 1394              	.LBE341:
 1395              	.LBE340:
 273:/mnt/c/Users/31740/Documents/codes/newcore-rp2350/include/linux/libfdt.h **** fdt_set_hdr_(off_mem_rsvmap)
 1396              		.loc 3 273 1 discriminator 1 view .LVU497
 1397 00ba EB60     		str	r3, [r5, #12]
 1398              	.LVL122:
 273:/mnt/c/Users/31740/Documents/codes/newcore-rp2350/include/linux/libfdt.h **** fdt_set_hdr_(off_mem_rsvmap)
 1399              		.loc 3 273 1 discriminator 1 view .LVU498
 1400              	.LBE339:
 1401              	.LBE338:
 424:/mnt/c/Users/31740/Documents/codes/newcore-rp2350/lib/fdt/fdt_rw.c **** 	fdt_set_size_dt_strings(new, fdt_size_dt_strings(old));
 1402              		.loc 1 424 2 is_stmt 1 view .LVU499
 1403              	.LBB342:
 1404              	.LBI342:
 145:/mnt/c/Users/31740/Documents/codes/newcore-rp2350/include/linux/libfdt.h **** {
 1405              		.loc 3 145 24 view .LVU500
 1406              	.LBB343:
 147:/mnt/c/Users/31740/Documents/codes/newcore-rp2350/include/linux/libfdt.h **** 
 1407              		.loc 3 147 2 view .LVU501
 149:/mnt/c/Users/31740/Documents/codes/newcore-rp2350/include/linux/libfdt.h **** 		| ((uint32_t)bp[1] << 16)
ARM GAS  /tmp/ccyijaMA.s 			page 45


 1408              		.loc 3 149 2 view .LVU502
 150:/mnt/c/Users/31740/Documents/codes/newcore-rp2350/include/linux/libfdt.h **** 		| ((uint32_t)bp[2] << 8)
 1409              		.loc 3 150 18 is_stmt 0 view .LVU503
 1410 00bc 94F82120 		ldrb	r2, [r4, #33]	@ zero_extendqisi2
 151:/mnt/c/Users/31740/Documents/codes/newcore-rp2350/include/linux/libfdt.h **** 		| bp[3];
 1411              		.loc 3 151 18 view .LVU504
 1412 00c0 94F82230 		ldrb	r3, [r4, #34]	@ zero_extendqisi2
 152:/mnt/c/Users/31740/Documents/codes/newcore-rp2350/include/linux/libfdt.h **** }
 1413              		.loc 3 152 7 view .LVU505
 1414 00c4 94F82310 		ldrb	r1, [r4, #35]	@ zero_extendqisi2
 1415              	.LVL123:
 152:/mnt/c/Users/31740/Documents/codes/newcore-rp2350/include/linux/libfdt.h **** }
 1416              		.loc 3 152 7 view .LVU506
 1417              	.LBE343:
 1418              	.LBE342:
 1419              	.LBB344:
 1420              	.LBI344:
 278:/mnt/c/Users/31740/Documents/codes/newcore-rp2350/include/linux/libfdt.h **** fdt_set_hdr_(size_dt_struct)
 1421              		.loc 3 278 1 is_stmt 1 view .LVU507
 1422              	.LBB345:
 278:/mnt/c/Users/31740/Documents/codes/newcore-rp2350/include/linux/libfdt.h **** fdt_set_hdr_(size_dt_struct)
 1423              		.loc 3 278 1 view .LVU508
 278:/mnt/c/Users/31740/Documents/codes/newcore-rp2350/include/linux/libfdt.h **** fdt_set_hdr_(size_dt_struct)
 1424              		.loc 3 278 1 view .LVU509
 1425              	.LBB346:
 1426              	.LBI346:
  57:/mnt/c/Users/31740/Documents/codes/newcore-rp2350/include/linux/libfdt_env.h **** {
 1427              		.loc 4 57 23 view .LVU510
 1428              	.LBB347:
 1429              		.loc 4 59 2 view .LVU511
 1430              		.loc 4 59 28 is_stmt 0 view .LVU512
 1431 00c8 1B04     		lsls	r3, r3, #16
 1432              	.LVL124:
 1433              		.loc 4 59 28 view .LVU513
 1434 00ca 43EA0163 		orr	r3, r3, r1, lsl #24
 1435 00ce 43EA0223 		orr	r3, r3, r2, lsl #8
 1436 00d2 94F82020 		ldrb	r2, [r4, #32]	@ zero_extendqisi2
 1437              	.LVL125:
 1438              		.loc 4 59 9 view .LVU514
 1439 00d6 1343     		orrs	r3, r3, r2
 1440              	.LVL126:
 1441              		.loc 4 59 9 view .LVU515
 1442              	.LBE347:
 1443              	.LBE346:
 278:/mnt/c/Users/31740/Documents/codes/newcore-rp2350/include/linux/libfdt.h **** fdt_set_hdr_(size_dt_struct)
 1444              		.loc 3 278 1 discriminator 1 view .LVU516
 1445 00d8 2B62     		str	r3, [r5, #32]
 1446              	.LVL127:
 278:/mnt/c/Users/31740/Documents/codes/newcore-rp2350/include/linux/libfdt.h **** fdt_set_hdr_(size_dt_struct)
 1447              		.loc 3 278 1 discriminator 1 view .LVU517
 1448              	.LBE345:
 1449              	.LBE344:
 425:/mnt/c/Users/31740/Documents/codes/newcore-rp2350/lib/fdt/fdt_rw.c **** }
 1450              		.loc 1 425 1 view .LVU518
 1451 00da BDE8F081 		pop	{r4, r5, r6, r7, r8, pc}
 1452              		.loc 1 425 1 view .LVU519
 1453              		.cfi_endproc
ARM GAS  /tmp/ccyijaMA.s 			page 46


 1454              	.LFE96:
 1456              		.section	.text.fdt_del_last_string_,"ax",%progbits
 1457              		.align	1
 1458              		.syntax unified
 1459              		.thumb
 1460              		.thumb_func
 1462              	fdt_del_last_string_:
 1463              	.LVL128:
 1464              	.LFB81:
 100:/mnt/c/Users/31740/Documents/codes/newcore-rp2350/lib/fdt/fdt_rw.c **** 	int newlen = strlen(s) + 1;
 1465              		.loc 1 100 1 is_stmt 1 view -0
 1466              		.cfi_startproc
 1467              		@ args = 0, pretend = 0, frame = 0
 1468              		@ frame_needed = 0, uses_anonymous_args = 0
 100:/mnt/c/Users/31740/Documents/codes/newcore-rp2350/lib/fdt/fdt_rw.c **** 	int newlen = strlen(s) + 1;
 1469              		.loc 1 100 1 is_stmt 0 view .LVU521
 1470 0000 10B5     		push	{r4, lr}
 1471              	.LCFI9:
 1472              		.cfi_def_cfa_offset 8
 1473              		.cfi_offset 4, -8
 1474              		.cfi_offset 14, -4
 1475 0002 0446     		mov	r4, r0
 101:/mnt/c/Users/31740/Documents/codes/newcore-rp2350/lib/fdt/fdt_rw.c **** 
 1476              		.loc 1 101 2 is_stmt 1 view .LVU522
 101:/mnt/c/Users/31740/Documents/codes/newcore-rp2350/lib/fdt/fdt_rw.c **** 
 1477              		.loc 1 101 15 is_stmt 0 view .LVU523
 1478 0004 0846     		mov	r0, r1
 1479              	.LVL129:
 101:/mnt/c/Users/31740/Documents/codes/newcore-rp2350/lib/fdt/fdt_rw.c **** 
 1480              		.loc 1 101 15 view .LVU524
 1481 0006 FFF7FEFF 		bl	strlen
 1482              	.LVL130:
 101:/mnt/c/Users/31740/Documents/codes/newcore-rp2350/lib/fdt/fdt_rw.c **** 
 1483              		.loc 1 101 25 discriminator 1 view .LVU525
 1484 000a 0130     		adds	r0, r0, #1
 1485              	.LVL131:
 103:/mnt/c/Users/31740/Documents/codes/newcore-rp2350/lib/fdt/fdt_rw.c **** }
 1486              		.loc 1 103 2 is_stmt 1 view .LVU526
 1487              	.LBB348:
 1488              	.LBI348:
 145:/mnt/c/Users/31740/Documents/codes/newcore-rp2350/include/linux/libfdt.h **** {
 1489              		.loc 3 145 24 view .LVU527
 1490              	.LBB349:
 147:/mnt/c/Users/31740/Documents/codes/newcore-rp2350/include/linux/libfdt.h **** 
 1491              		.loc 3 147 2 view .LVU528
 149:/mnt/c/Users/31740/Documents/codes/newcore-rp2350/include/linux/libfdt.h **** 		| ((uint32_t)bp[1] << 16)
 1492              		.loc 3 149 2 view .LVU529
 149:/mnt/c/Users/31740/Documents/codes/newcore-rp2350/include/linux/libfdt.h **** 		| ((uint32_t)bp[1] << 16)
 1493              		.loc 3 149 22 is_stmt 0 view .LVU530
 1494 000c 94F82020 		ldrb	r2, [r4, #32]	@ zero_extendqisi2
 150:/mnt/c/Users/31740/Documents/codes/newcore-rp2350/include/linux/libfdt.h **** 		| ((uint32_t)bp[2] << 8)
 1495              		.loc 3 150 18 view .LVU531
 1496 0010 94F82130 		ldrb	r3, [r4, #33]	@ zero_extendqisi2
 150:/mnt/c/Users/31740/Documents/codes/newcore-rp2350/include/linux/libfdt.h **** 		| ((uint32_t)bp[2] << 8)
 1497              		.loc 3 150 22 view .LVU532
 1498 0014 1B04     		lsls	r3, r3, #16
 150:/mnt/c/Users/31740/Documents/codes/newcore-rp2350/include/linux/libfdt.h **** 		| ((uint32_t)bp[2] << 8)
ARM GAS  /tmp/ccyijaMA.s 			page 47


 1499              		.loc 3 150 3 view .LVU533
 1500 0016 43EA0263 		orr	r3, r3, r2, lsl #24
 151:/mnt/c/Users/31740/Documents/codes/newcore-rp2350/include/linux/libfdt.h **** 		| bp[3];
 1501              		.loc 3 151 18 view .LVU534
 1502 001a 94F82220 		ldrb	r2, [r4, #34]	@ zero_extendqisi2
 151:/mnt/c/Users/31740/Documents/codes/newcore-rp2350/include/linux/libfdt.h **** 		| bp[3];
 1503              		.loc 3 151 3 view .LVU535
 1504 001e 43EA0223 		orr	r3, r3, r2, lsl #8
 152:/mnt/c/Users/31740/Documents/codes/newcore-rp2350/include/linux/libfdt.h **** }
 1505              		.loc 3 152 7 view .LVU536
 1506 0022 94F82320 		ldrb	r2, [r4, #35]	@ zero_extendqisi2
 152:/mnt/c/Users/31740/Documents/codes/newcore-rp2350/include/linux/libfdt.h **** }
 1507              		.loc 3 152 3 view .LVU537
 1508 0026 1343     		orrs	r3, r3, r2
 1509              	.LVL132:
 152:/mnt/c/Users/31740/Documents/codes/newcore-rp2350/include/linux/libfdt.h **** }
 1510              		.loc 3 152 3 view .LVU538
 1511              	.LBE349:
 1512              	.LBE348:
 103:/mnt/c/Users/31740/Documents/codes/newcore-rp2350/lib/fdt/fdt_rw.c **** }
 1513              		.loc 1 103 2 discriminator 1 view .LVU539
 1514 0028 1B1A     		subs	r3, r3, r0
 1515              	.LVL133:
 1516              	.LBB350:
 1517              	.LBI350:
 278:/mnt/c/Users/31740/Documents/codes/newcore-rp2350/include/linux/libfdt.h **** fdt_set_hdr_(size_dt_struct)
 1518              		.loc 3 278 1 is_stmt 1 view .LVU540
 1519              	.LBB351:
 278:/mnt/c/Users/31740/Documents/codes/newcore-rp2350/include/linux/libfdt.h **** fdt_set_hdr_(size_dt_struct)
 1520              		.loc 3 278 1 view .LVU541
 278:/mnt/c/Users/31740/Documents/codes/newcore-rp2350/include/linux/libfdt.h **** fdt_set_hdr_(size_dt_struct)
 1521              		.loc 3 278 1 view .LVU542
 1522              	.LBB352:
 1523              	.LBI352:
  57:/mnt/c/Users/31740/Documents/codes/newcore-rp2350/include/linux/libfdt_env.h **** {
 1524              		.loc 4 57 23 view .LVU543
 1525              	.LBB353:
 1526              		.loc 4 59 2 view .LVU544
 1527              		.loc 4 59 28 is_stmt 0 view .LVU545
 1528 002a C3F30722 		ubfx	r2, r3, #8, #8
 1529 002e 1204     		lsls	r2, r2, #16
 1530 0030 42EA0362 		orr	r2, r2, r3, lsl #24
 1531 0034 C3F30741 		ubfx	r1, r3, #16, #8
 1532 0038 42EA0122 		orr	r2, r2, r1, lsl #8
 1533              		.loc 4 59 9 view .LVU546
 1534 003c 42EA1363 		orr	r3, r2, r3, lsr #24
 1535              	.LVL134:
 1536              		.loc 4 59 9 view .LVU547
 1537              	.LBE353:
 1538              	.LBE352:
 278:/mnt/c/Users/31740/Documents/codes/newcore-rp2350/include/linux/libfdt.h **** fdt_set_hdr_(size_dt_struct)
 1539              		.loc 3 278 1 discriminator 1 view .LVU548
 1540 0040 2362     		str	r3, [r4, #32]
 1541              	.LVL135:
 278:/mnt/c/Users/31740/Documents/codes/newcore-rp2350/include/linux/libfdt.h **** fdt_set_hdr_(size_dt_struct)
 1542              		.loc 3 278 1 discriminator 1 view .LVU549
 1543              	.LBE351:
ARM GAS  /tmp/ccyijaMA.s 			page 48


 1544              	.LBE350:
 104:/mnt/c/Users/31740/Documents/codes/newcore-rp2350/lib/fdt/fdt_rw.c **** 
 1545              		.loc 1 104 1 view .LVU550
 1546 0042 10BD     		pop	{r4, pc}
 104:/mnt/c/Users/31740/Documents/codes/newcore-rp2350/lib/fdt/fdt_rw.c **** 
 1547              		.loc 1 104 1 view .LVU551
 1548              		.cfi_endproc
 1549              	.LFE81:
 1551              		.section	.text.fdt_resize_property_,"ax",%progbits
 1552              		.align	1
 1553              		.syntax unified
 1554              		.thumb
 1555              		.thumb_func
 1557              	fdt_resize_property_:
 1558              	.LVL136:
 1559              	.LFB86:
 190:/mnt/c/Users/31740/Documents/codes/newcore-rp2350/lib/fdt/fdt_rw.c **** 	int oldlen;
 1560              		.loc 1 190 1 is_stmt 1 view -0
 1561              		.cfi_startproc
 1562              		@ args = 8, pretend = 0, frame = 8
 1563              		@ frame_needed = 0, uses_anonymous_args = 0
 190:/mnt/c/Users/31740/Documents/codes/newcore-rp2350/lib/fdt/fdt_rw.c **** 	int oldlen;
 1564              		.loc 1 190 1 is_stmt 0 view .LVU553
 1565 0000 F0B5     		push	{r4, r5, r6, r7, lr}
 1566              	.LCFI10:
 1567              		.cfi_def_cfa_offset 20
 1568              		.cfi_offset 4, -20
 1569              		.cfi_offset 5, -16
 1570              		.cfi_offset 6, -12
 1571              		.cfi_offset 7, -8
 1572              		.cfi_offset 14, -4
 1573 0002 85B0     		sub	sp, sp, #20
 1574              	.LCFI11:
 1575              		.cfi_def_cfa_offset 40
 1576 0004 0746     		mov	r7, r0
 1577 0006 0A9C     		ldr	r4, [sp, #40]
 1578 0008 0B9E     		ldr	r6, [sp, #44]
 191:/mnt/c/Users/31740/Documents/codes/newcore-rp2350/lib/fdt/fdt_rw.c **** 	int err;
 1579              		.loc 1 191 2 is_stmt 1 view .LVU554
 192:/mnt/c/Users/31740/Documents/codes/newcore-rp2350/lib/fdt/fdt_rw.c **** 
 1580              		.loc 1 192 2 view .LVU555
 194:/mnt/c/Users/31740/Documents/codes/newcore-rp2350/lib/fdt/fdt_rw.c **** 					   &oldlen);
 1581              		.loc 1 194 2 view .LVU556
 1582              	.LVL137:
 1583              	.LBB354:
 1584              	.LBI354:
 280:/mnt/c/Users/31740/Documents/codes/newcore-rp2350/include/linux/libfdt.h **** #undef fdt_set_hdr_
 281:/mnt/c/Users/31740/Documents/codes/newcore-rp2350/include/linux/libfdt.h **** 
 282:/mnt/c/Users/31740/Documents/codes/newcore-rp2350/include/linux/libfdt.h **** /**
 283:/mnt/c/Users/31740/Documents/codes/newcore-rp2350/include/linux/libfdt.h ****  * fdt_header_size - return the size of the tree's header
 284:/mnt/c/Users/31740/Documents/codes/newcore-rp2350/include/linux/libfdt.h ****  * @fdt: pointer to a flattened device tree
 285:/mnt/c/Users/31740/Documents/codes/newcore-rp2350/include/linux/libfdt.h ****  *
 286:/mnt/c/Users/31740/Documents/codes/newcore-rp2350/include/linux/libfdt.h ****  * Return: size of DTB header in bytes
 287:/mnt/c/Users/31740/Documents/codes/newcore-rp2350/include/linux/libfdt.h ****  */
 288:/mnt/c/Users/31740/Documents/codes/newcore-rp2350/include/linux/libfdt.h **** size_t fdt_header_size(const void *fdt);
 289:/mnt/c/Users/31740/Documents/codes/newcore-rp2350/include/linux/libfdt.h **** 
 290:/mnt/c/Users/31740/Documents/codes/newcore-rp2350/include/linux/libfdt.h **** /**
ARM GAS  /tmp/ccyijaMA.s 			page 49


 291:/mnt/c/Users/31740/Documents/codes/newcore-rp2350/include/linux/libfdt.h ****  * fdt_header_size_ - internal function to get header size from a version number
 292:/mnt/c/Users/31740/Documents/codes/newcore-rp2350/include/linux/libfdt.h ****  * @version: device tree version number
 293:/mnt/c/Users/31740/Documents/codes/newcore-rp2350/include/linux/libfdt.h ****  *
 294:/mnt/c/Users/31740/Documents/codes/newcore-rp2350/include/linux/libfdt.h ****  * Return: size of DTB header in bytes
 295:/mnt/c/Users/31740/Documents/codes/newcore-rp2350/include/linux/libfdt.h ****  */
 296:/mnt/c/Users/31740/Documents/codes/newcore-rp2350/include/linux/libfdt.h **** size_t fdt_header_size_(uint32_t version);
 297:/mnt/c/Users/31740/Documents/codes/newcore-rp2350/include/linux/libfdt.h **** 
 298:/mnt/c/Users/31740/Documents/codes/newcore-rp2350/include/linux/libfdt.h **** /**
 299:/mnt/c/Users/31740/Documents/codes/newcore-rp2350/include/linux/libfdt.h ****  * fdt_check_header - sanity check a device tree header
 300:/mnt/c/Users/31740/Documents/codes/newcore-rp2350/include/linux/libfdt.h ****  * @fdt: pointer to data which might be a flattened device tree
 301:/mnt/c/Users/31740/Documents/codes/newcore-rp2350/include/linux/libfdt.h ****  *
 302:/mnt/c/Users/31740/Documents/codes/newcore-rp2350/include/linux/libfdt.h ****  * fdt_check_header() checks that the given buffer contains what
 303:/mnt/c/Users/31740/Documents/codes/newcore-rp2350/include/linux/libfdt.h ****  * appears to be a flattened device tree, and that the header contains
 304:/mnt/c/Users/31740/Documents/codes/newcore-rp2350/include/linux/libfdt.h ****  * valid information (to the extent that can be determined from the
 305:/mnt/c/Users/31740/Documents/codes/newcore-rp2350/include/linux/libfdt.h ****  * header alone).
 306:/mnt/c/Users/31740/Documents/codes/newcore-rp2350/include/linux/libfdt.h ****  *
 307:/mnt/c/Users/31740/Documents/codes/newcore-rp2350/include/linux/libfdt.h ****  * returns:
 308:/mnt/c/Users/31740/Documents/codes/newcore-rp2350/include/linux/libfdt.h ****  *     0, if the buffer appears to contain a valid device tree
 309:/mnt/c/Users/31740/Documents/codes/newcore-rp2350/include/linux/libfdt.h ****  *     -FDT_ERR_BADMAGIC,
 310:/mnt/c/Users/31740/Documents/codes/newcore-rp2350/include/linux/libfdt.h ****  *     -FDT_ERR_BADVERSION,
 311:/mnt/c/Users/31740/Documents/codes/newcore-rp2350/include/linux/libfdt.h ****  *     -FDT_ERR_BADSTATE,
 312:/mnt/c/Users/31740/Documents/codes/newcore-rp2350/include/linux/libfdt.h ****  *     -FDT_ERR_TRUNCATED, standard meanings, as above
 313:/mnt/c/Users/31740/Documents/codes/newcore-rp2350/include/linux/libfdt.h ****  */
 314:/mnt/c/Users/31740/Documents/codes/newcore-rp2350/include/linux/libfdt.h **** int fdt_check_header(const void *fdt);
 315:/mnt/c/Users/31740/Documents/codes/newcore-rp2350/include/linux/libfdt.h **** 
 316:/mnt/c/Users/31740/Documents/codes/newcore-rp2350/include/linux/libfdt.h **** /**
 317:/mnt/c/Users/31740/Documents/codes/newcore-rp2350/include/linux/libfdt.h ****  * fdt_move - move a device tree around in memory
 318:/mnt/c/Users/31740/Documents/codes/newcore-rp2350/include/linux/libfdt.h ****  * @fdt: pointer to the device tree to move
 319:/mnt/c/Users/31740/Documents/codes/newcore-rp2350/include/linux/libfdt.h ****  * @buf: pointer to memory where the device is to be moved
 320:/mnt/c/Users/31740/Documents/codes/newcore-rp2350/include/linux/libfdt.h ****  * @bufsize: size of the memory space at buf
 321:/mnt/c/Users/31740/Documents/codes/newcore-rp2350/include/linux/libfdt.h ****  *
 322:/mnt/c/Users/31740/Documents/codes/newcore-rp2350/include/linux/libfdt.h ****  * fdt_move() relocates, if possible, the device tree blob located at
 323:/mnt/c/Users/31740/Documents/codes/newcore-rp2350/include/linux/libfdt.h ****  * fdt to the buffer at buf of size bufsize.  The buffer may overlap
 324:/mnt/c/Users/31740/Documents/codes/newcore-rp2350/include/linux/libfdt.h ****  * with the existing device tree blob at fdt.  Therefore,
 325:/mnt/c/Users/31740/Documents/codes/newcore-rp2350/include/linux/libfdt.h ****  *     fdt_move(fdt, fdt, fdt_totalsize(fdt))
 326:/mnt/c/Users/31740/Documents/codes/newcore-rp2350/include/linux/libfdt.h ****  * should always succeed.
 327:/mnt/c/Users/31740/Documents/codes/newcore-rp2350/include/linux/libfdt.h ****  *
 328:/mnt/c/Users/31740/Documents/codes/newcore-rp2350/include/linux/libfdt.h ****  * returns:
 329:/mnt/c/Users/31740/Documents/codes/newcore-rp2350/include/linux/libfdt.h ****  *     0, on success
 330:/mnt/c/Users/31740/Documents/codes/newcore-rp2350/include/linux/libfdt.h ****  *     -FDT_ERR_NOSPACE, bufsize is insufficient to contain the device tree
 331:/mnt/c/Users/31740/Documents/codes/newcore-rp2350/include/linux/libfdt.h ****  *     -FDT_ERR_BADMAGIC,
 332:/mnt/c/Users/31740/Documents/codes/newcore-rp2350/include/linux/libfdt.h ****  *     -FDT_ERR_BADVERSION,
 333:/mnt/c/Users/31740/Documents/codes/newcore-rp2350/include/linux/libfdt.h ****  *     -FDT_ERR_BADSTATE, standard meanings
 334:/mnt/c/Users/31740/Documents/codes/newcore-rp2350/include/linux/libfdt.h ****  */
 335:/mnt/c/Users/31740/Documents/codes/newcore-rp2350/include/linux/libfdt.h **** int fdt_move(const void *fdt, void *buf, int bufsize);
 336:/mnt/c/Users/31740/Documents/codes/newcore-rp2350/include/linux/libfdt.h **** 
 337:/mnt/c/Users/31740/Documents/codes/newcore-rp2350/include/linux/libfdt.h **** /**********************************************************************/
 338:/mnt/c/Users/31740/Documents/codes/newcore-rp2350/include/linux/libfdt.h **** /* Read-only functions                                                */
 339:/mnt/c/Users/31740/Documents/codes/newcore-rp2350/include/linux/libfdt.h **** /**********************************************************************/
 340:/mnt/c/Users/31740/Documents/codes/newcore-rp2350/include/linux/libfdt.h **** 
 341:/mnt/c/Users/31740/Documents/codes/newcore-rp2350/include/linux/libfdt.h **** int fdt_check_full(const void *fdt, size_t bufsize);
 342:/mnt/c/Users/31740/Documents/codes/newcore-rp2350/include/linux/libfdt.h **** 
 343:/mnt/c/Users/31740/Documents/codes/newcore-rp2350/include/linux/libfdt.h **** /**
 344:/mnt/c/Users/31740/Documents/codes/newcore-rp2350/include/linux/libfdt.h ****  * fdt_get_string - retrieve a string from the strings block of a device tree
 345:/mnt/c/Users/31740/Documents/codes/newcore-rp2350/include/linux/libfdt.h ****  * @fdt: pointer to the device tree blob
 346:/mnt/c/Users/31740/Documents/codes/newcore-rp2350/include/linux/libfdt.h ****  * @stroffset: offset of the string within the strings block (native endian)
 347:/mnt/c/Users/31740/Documents/codes/newcore-rp2350/include/linux/libfdt.h ****  * @lenp: optional pointer to return the string's length
ARM GAS  /tmp/ccyijaMA.s 			page 50


 348:/mnt/c/Users/31740/Documents/codes/newcore-rp2350/include/linux/libfdt.h ****  *
 349:/mnt/c/Users/31740/Documents/codes/newcore-rp2350/include/linux/libfdt.h ****  * fdt_get_string() retrieves a pointer to a single string from the
 350:/mnt/c/Users/31740/Documents/codes/newcore-rp2350/include/linux/libfdt.h ****  * strings block of the device tree blob at fdt, and optionally also
 351:/mnt/c/Users/31740/Documents/codes/newcore-rp2350/include/linux/libfdt.h ****  * returns the string's length in *lenp.
 352:/mnt/c/Users/31740/Documents/codes/newcore-rp2350/include/linux/libfdt.h ****  *
 353:/mnt/c/Users/31740/Documents/codes/newcore-rp2350/include/linux/libfdt.h ****  * returns:
 354:/mnt/c/Users/31740/Documents/codes/newcore-rp2350/include/linux/libfdt.h ****  *     a pointer to the string, on success
 355:/mnt/c/Users/31740/Documents/codes/newcore-rp2350/include/linux/libfdt.h ****  *     NULL, if stroffset is out of bounds, or doesn't point to a valid string
 356:/mnt/c/Users/31740/Documents/codes/newcore-rp2350/include/linux/libfdt.h ****  */
 357:/mnt/c/Users/31740/Documents/codes/newcore-rp2350/include/linux/libfdt.h **** const char *fdt_get_string(const void *fdt, int stroffset, int *lenp);
 358:/mnt/c/Users/31740/Documents/codes/newcore-rp2350/include/linux/libfdt.h **** 
 359:/mnt/c/Users/31740/Documents/codes/newcore-rp2350/include/linux/libfdt.h **** /**
 360:/mnt/c/Users/31740/Documents/codes/newcore-rp2350/include/linux/libfdt.h ****  * fdt_string - retrieve a string from the strings block of a device tree
 361:/mnt/c/Users/31740/Documents/codes/newcore-rp2350/include/linux/libfdt.h ****  * @fdt: pointer to the device tree blob
 362:/mnt/c/Users/31740/Documents/codes/newcore-rp2350/include/linux/libfdt.h ****  * @stroffset: offset of the string within the strings block (native endian)
 363:/mnt/c/Users/31740/Documents/codes/newcore-rp2350/include/linux/libfdt.h ****  *
 364:/mnt/c/Users/31740/Documents/codes/newcore-rp2350/include/linux/libfdt.h ****  * fdt_string() retrieves a pointer to a single string from the
 365:/mnt/c/Users/31740/Documents/codes/newcore-rp2350/include/linux/libfdt.h ****  * strings block of the device tree blob at fdt.
 366:/mnt/c/Users/31740/Documents/codes/newcore-rp2350/include/linux/libfdt.h ****  *
 367:/mnt/c/Users/31740/Documents/codes/newcore-rp2350/include/linux/libfdt.h ****  * returns:
 368:/mnt/c/Users/31740/Documents/codes/newcore-rp2350/include/linux/libfdt.h ****  *     a pointer to the string, on success
 369:/mnt/c/Users/31740/Documents/codes/newcore-rp2350/include/linux/libfdt.h ****  *     NULL, if stroffset is out of bounds, or doesn't point to a valid string
 370:/mnt/c/Users/31740/Documents/codes/newcore-rp2350/include/linux/libfdt.h ****  */
 371:/mnt/c/Users/31740/Documents/codes/newcore-rp2350/include/linux/libfdt.h **** const char *fdt_string(const void *fdt, int stroffset);
 372:/mnt/c/Users/31740/Documents/codes/newcore-rp2350/include/linux/libfdt.h **** 
 373:/mnt/c/Users/31740/Documents/codes/newcore-rp2350/include/linux/libfdt.h **** /**
 374:/mnt/c/Users/31740/Documents/codes/newcore-rp2350/include/linux/libfdt.h ****  * fdt_find_max_phandle - find and return the highest phandle in a tree
 375:/mnt/c/Users/31740/Documents/codes/newcore-rp2350/include/linux/libfdt.h ****  * @fdt: pointer to the device tree blob
 376:/mnt/c/Users/31740/Documents/codes/newcore-rp2350/include/linux/libfdt.h ****  * @phandle: return location for the highest phandle value found in the tree
 377:/mnt/c/Users/31740/Documents/codes/newcore-rp2350/include/linux/libfdt.h ****  *
 378:/mnt/c/Users/31740/Documents/codes/newcore-rp2350/include/linux/libfdt.h ****  * fdt_find_max_phandle() finds the highest phandle value in the given device
 379:/mnt/c/Users/31740/Documents/codes/newcore-rp2350/include/linux/libfdt.h ****  * tree. The value returned in @phandle is only valid if the function returns
 380:/mnt/c/Users/31740/Documents/codes/newcore-rp2350/include/linux/libfdt.h ****  * success.
 381:/mnt/c/Users/31740/Documents/codes/newcore-rp2350/include/linux/libfdt.h ****  *
 382:/mnt/c/Users/31740/Documents/codes/newcore-rp2350/include/linux/libfdt.h ****  * returns:
 383:/mnt/c/Users/31740/Documents/codes/newcore-rp2350/include/linux/libfdt.h ****  *     0 on success or a negative error code on failure
 384:/mnt/c/Users/31740/Documents/codes/newcore-rp2350/include/linux/libfdt.h ****  */
 385:/mnt/c/Users/31740/Documents/codes/newcore-rp2350/include/linux/libfdt.h **** int fdt_find_max_phandle(const void *fdt, uint32_t *phandle);
 386:/mnt/c/Users/31740/Documents/codes/newcore-rp2350/include/linux/libfdt.h **** 
 387:/mnt/c/Users/31740/Documents/codes/newcore-rp2350/include/linux/libfdt.h **** /**
 388:/mnt/c/Users/31740/Documents/codes/newcore-rp2350/include/linux/libfdt.h ****  * fdt_get_max_phandle - retrieves the highest phandle in a tree
 389:/mnt/c/Users/31740/Documents/codes/newcore-rp2350/include/linux/libfdt.h ****  * @fdt: pointer to the device tree blob
 390:/mnt/c/Users/31740/Documents/codes/newcore-rp2350/include/linux/libfdt.h ****  *
 391:/mnt/c/Users/31740/Documents/codes/newcore-rp2350/include/linux/libfdt.h ****  * fdt_get_max_phandle retrieves the highest phandle in the given
 392:/mnt/c/Users/31740/Documents/codes/newcore-rp2350/include/linux/libfdt.h ****  * device tree. This will ignore badly formatted phandles, or phandles
 393:/mnt/c/Users/31740/Documents/codes/newcore-rp2350/include/linux/libfdt.h ****  * with a value of 0 or -1.
 394:/mnt/c/Users/31740/Documents/codes/newcore-rp2350/include/linux/libfdt.h ****  *
 395:/mnt/c/Users/31740/Documents/codes/newcore-rp2350/include/linux/libfdt.h ****  * This function is deprecated in favour of fdt_find_max_phandle().
 396:/mnt/c/Users/31740/Documents/codes/newcore-rp2350/include/linux/libfdt.h ****  *
 397:/mnt/c/Users/31740/Documents/codes/newcore-rp2350/include/linux/libfdt.h ****  * returns:
 398:/mnt/c/Users/31740/Documents/codes/newcore-rp2350/include/linux/libfdt.h ****  *      the highest phandle on success
 399:/mnt/c/Users/31740/Documents/codes/newcore-rp2350/include/linux/libfdt.h ****  *      0, if no phandle was found in the device tree
 400:/mnt/c/Users/31740/Documents/codes/newcore-rp2350/include/linux/libfdt.h ****  *      -1, if an error occurred
 401:/mnt/c/Users/31740/Documents/codes/newcore-rp2350/include/linux/libfdt.h ****  */
 402:/mnt/c/Users/31740/Documents/codes/newcore-rp2350/include/linux/libfdt.h **** static inline uint32_t fdt_get_max_phandle(const void *fdt)
 403:/mnt/c/Users/31740/Documents/codes/newcore-rp2350/include/linux/libfdt.h **** {
 404:/mnt/c/Users/31740/Documents/codes/newcore-rp2350/include/linux/libfdt.h **** 	uint32_t phandle;
ARM GAS  /tmp/ccyijaMA.s 			page 51


 405:/mnt/c/Users/31740/Documents/codes/newcore-rp2350/include/linux/libfdt.h **** 	int err;
 406:/mnt/c/Users/31740/Documents/codes/newcore-rp2350/include/linux/libfdt.h **** 
 407:/mnt/c/Users/31740/Documents/codes/newcore-rp2350/include/linux/libfdt.h **** 	err = fdt_find_max_phandle(fdt, &phandle);
 408:/mnt/c/Users/31740/Documents/codes/newcore-rp2350/include/linux/libfdt.h **** 	if (err < 0)
 409:/mnt/c/Users/31740/Documents/codes/newcore-rp2350/include/linux/libfdt.h **** 		return (uint32_t)-1;
 410:/mnt/c/Users/31740/Documents/codes/newcore-rp2350/include/linux/libfdt.h **** 
 411:/mnt/c/Users/31740/Documents/codes/newcore-rp2350/include/linux/libfdt.h **** 	return phandle;
 412:/mnt/c/Users/31740/Documents/codes/newcore-rp2350/include/linux/libfdt.h **** }
 413:/mnt/c/Users/31740/Documents/codes/newcore-rp2350/include/linux/libfdt.h **** 
 414:/mnt/c/Users/31740/Documents/codes/newcore-rp2350/include/linux/libfdt.h **** /**
 415:/mnt/c/Users/31740/Documents/codes/newcore-rp2350/include/linux/libfdt.h ****  * fdt_generate_phandle - return a new, unused phandle for a device tree blob
 416:/mnt/c/Users/31740/Documents/codes/newcore-rp2350/include/linux/libfdt.h ****  * @fdt: pointer to the device tree blob
 417:/mnt/c/Users/31740/Documents/codes/newcore-rp2350/include/linux/libfdt.h ****  * @phandle: return location for the new phandle
 418:/mnt/c/Users/31740/Documents/codes/newcore-rp2350/include/linux/libfdt.h ****  *
 419:/mnt/c/Users/31740/Documents/codes/newcore-rp2350/include/linux/libfdt.h ****  * Walks the device tree blob and looks for the highest phandle value. On
 420:/mnt/c/Users/31740/Documents/codes/newcore-rp2350/include/linux/libfdt.h ****  * success, the new, unused phandle value (one higher than the previously
 421:/mnt/c/Users/31740/Documents/codes/newcore-rp2350/include/linux/libfdt.h ****  * highest phandle value in the device tree blob) will be returned in the
 422:/mnt/c/Users/31740/Documents/codes/newcore-rp2350/include/linux/libfdt.h ****  * @phandle parameter.
 423:/mnt/c/Users/31740/Documents/codes/newcore-rp2350/include/linux/libfdt.h ****  *
 424:/mnt/c/Users/31740/Documents/codes/newcore-rp2350/include/linux/libfdt.h ****  * Return: 0 on success or a negative error-code on failure
 425:/mnt/c/Users/31740/Documents/codes/newcore-rp2350/include/linux/libfdt.h ****  */
 426:/mnt/c/Users/31740/Documents/codes/newcore-rp2350/include/linux/libfdt.h **** int fdt_generate_phandle(const void *fdt, uint32_t *phandle);
 427:/mnt/c/Users/31740/Documents/codes/newcore-rp2350/include/linux/libfdt.h **** 
 428:/mnt/c/Users/31740/Documents/codes/newcore-rp2350/include/linux/libfdt.h **** /**
 429:/mnt/c/Users/31740/Documents/codes/newcore-rp2350/include/linux/libfdt.h ****  * fdt_num_mem_rsv - retrieve the number of memory reserve map entries
 430:/mnt/c/Users/31740/Documents/codes/newcore-rp2350/include/linux/libfdt.h ****  * @fdt: pointer to the device tree blob
 431:/mnt/c/Users/31740/Documents/codes/newcore-rp2350/include/linux/libfdt.h ****  *
 432:/mnt/c/Users/31740/Documents/codes/newcore-rp2350/include/linux/libfdt.h ****  * Returns the number of entries in the device tree blob's memory
 433:/mnt/c/Users/31740/Documents/codes/newcore-rp2350/include/linux/libfdt.h ****  * reservation map.  This does not include the terminating 0,0 entry
 434:/mnt/c/Users/31740/Documents/codes/newcore-rp2350/include/linux/libfdt.h ****  * or any other (0,0) entries reserved for expansion.
 435:/mnt/c/Users/31740/Documents/codes/newcore-rp2350/include/linux/libfdt.h ****  *
 436:/mnt/c/Users/31740/Documents/codes/newcore-rp2350/include/linux/libfdt.h ****  * returns:
 437:/mnt/c/Users/31740/Documents/codes/newcore-rp2350/include/linux/libfdt.h ****  *     the number of entries
 438:/mnt/c/Users/31740/Documents/codes/newcore-rp2350/include/linux/libfdt.h ****  */
 439:/mnt/c/Users/31740/Documents/codes/newcore-rp2350/include/linux/libfdt.h **** int fdt_num_mem_rsv(const void *fdt);
 440:/mnt/c/Users/31740/Documents/codes/newcore-rp2350/include/linux/libfdt.h **** 
 441:/mnt/c/Users/31740/Documents/codes/newcore-rp2350/include/linux/libfdt.h **** /**
 442:/mnt/c/Users/31740/Documents/codes/newcore-rp2350/include/linux/libfdt.h ****  * fdt_get_mem_rsv - retrieve one memory reserve map entry
 443:/mnt/c/Users/31740/Documents/codes/newcore-rp2350/include/linux/libfdt.h ****  * @fdt: pointer to the device tree blob
 444:/mnt/c/Users/31740/Documents/codes/newcore-rp2350/include/linux/libfdt.h ****  * @n: index of reserve map entry
 445:/mnt/c/Users/31740/Documents/codes/newcore-rp2350/include/linux/libfdt.h ****  * @address: pointer to 64-bit variable to hold the start address
 446:/mnt/c/Users/31740/Documents/codes/newcore-rp2350/include/linux/libfdt.h ****  * @size: pointer to 64-bit variable to hold the size of the entry
 447:/mnt/c/Users/31740/Documents/codes/newcore-rp2350/include/linux/libfdt.h ****  *
 448:/mnt/c/Users/31740/Documents/codes/newcore-rp2350/include/linux/libfdt.h ****  * On success, @address and @size will contain the address and size of
 449:/mnt/c/Users/31740/Documents/codes/newcore-rp2350/include/linux/libfdt.h ****  * the n-th reserve map entry from the device tree blob, in
 450:/mnt/c/Users/31740/Documents/codes/newcore-rp2350/include/linux/libfdt.h ****  * native-endian format.
 451:/mnt/c/Users/31740/Documents/codes/newcore-rp2350/include/linux/libfdt.h ****  *
 452:/mnt/c/Users/31740/Documents/codes/newcore-rp2350/include/linux/libfdt.h ****  * returns:
 453:/mnt/c/Users/31740/Documents/codes/newcore-rp2350/include/linux/libfdt.h ****  *     0, on success
 454:/mnt/c/Users/31740/Documents/codes/newcore-rp2350/include/linux/libfdt.h ****  *     -FDT_ERR_BADMAGIC,
 455:/mnt/c/Users/31740/Documents/codes/newcore-rp2350/include/linux/libfdt.h ****  *     -FDT_ERR_BADVERSION,
 456:/mnt/c/Users/31740/Documents/codes/newcore-rp2350/include/linux/libfdt.h ****  *     -FDT_ERR_BADSTATE, standard meanings
 457:/mnt/c/Users/31740/Documents/codes/newcore-rp2350/include/linux/libfdt.h ****  */
 458:/mnt/c/Users/31740/Documents/codes/newcore-rp2350/include/linux/libfdt.h **** int fdt_get_mem_rsv(const void *fdt, int n, uint64_t *address, uint64_t *size);
 459:/mnt/c/Users/31740/Documents/codes/newcore-rp2350/include/linux/libfdt.h **** 
 460:/mnt/c/Users/31740/Documents/codes/newcore-rp2350/include/linux/libfdt.h **** /**
 461:/mnt/c/Users/31740/Documents/codes/newcore-rp2350/include/linux/libfdt.h ****  * fdt_subnode_offset_namelen - find a subnode based on substring
ARM GAS  /tmp/ccyijaMA.s 			page 52


 462:/mnt/c/Users/31740/Documents/codes/newcore-rp2350/include/linux/libfdt.h ****  * @fdt: pointer to the device tree blob
 463:/mnt/c/Users/31740/Documents/codes/newcore-rp2350/include/linux/libfdt.h ****  * @parentoffset: structure block offset of a node
 464:/mnt/c/Users/31740/Documents/codes/newcore-rp2350/include/linux/libfdt.h ****  * @name: name of the subnode to locate
 465:/mnt/c/Users/31740/Documents/codes/newcore-rp2350/include/linux/libfdt.h ****  * @namelen: number of characters of name to consider
 466:/mnt/c/Users/31740/Documents/codes/newcore-rp2350/include/linux/libfdt.h ****  *
 467:/mnt/c/Users/31740/Documents/codes/newcore-rp2350/include/linux/libfdt.h ****  * Identical to fdt_subnode_offset(), but only examine the first
 468:/mnt/c/Users/31740/Documents/codes/newcore-rp2350/include/linux/libfdt.h ****  * namelen characters of name for matching the subnode name.  This is
 469:/mnt/c/Users/31740/Documents/codes/newcore-rp2350/include/linux/libfdt.h ****  * useful for finding subnodes based on a portion of a larger string,
 470:/mnt/c/Users/31740/Documents/codes/newcore-rp2350/include/linux/libfdt.h ****  * such as a full path.
 471:/mnt/c/Users/31740/Documents/codes/newcore-rp2350/include/linux/libfdt.h ****  *
 472:/mnt/c/Users/31740/Documents/codes/newcore-rp2350/include/linux/libfdt.h ****  * Return: offset of the subnode or -FDT_ERR_NOTFOUND if name not found.
 473:/mnt/c/Users/31740/Documents/codes/newcore-rp2350/include/linux/libfdt.h ****  */
 474:/mnt/c/Users/31740/Documents/codes/newcore-rp2350/include/linux/libfdt.h **** #ifndef SWIG /* Not available in Python */
 475:/mnt/c/Users/31740/Documents/codes/newcore-rp2350/include/linux/libfdt.h **** int fdt_subnode_offset_namelen(const void *fdt, int parentoffset,
 476:/mnt/c/Users/31740/Documents/codes/newcore-rp2350/include/linux/libfdt.h **** 			       const char *name, int namelen);
 477:/mnt/c/Users/31740/Documents/codes/newcore-rp2350/include/linux/libfdt.h **** #endif
 478:/mnt/c/Users/31740/Documents/codes/newcore-rp2350/include/linux/libfdt.h **** /**
 479:/mnt/c/Users/31740/Documents/codes/newcore-rp2350/include/linux/libfdt.h ****  * fdt_subnode_offset - find a subnode of a given node
 480:/mnt/c/Users/31740/Documents/codes/newcore-rp2350/include/linux/libfdt.h ****  * @fdt: pointer to the device tree blob
 481:/mnt/c/Users/31740/Documents/codes/newcore-rp2350/include/linux/libfdt.h ****  * @parentoffset: structure block offset of a node
 482:/mnt/c/Users/31740/Documents/codes/newcore-rp2350/include/linux/libfdt.h ****  * @name: name of the subnode to locate
 483:/mnt/c/Users/31740/Documents/codes/newcore-rp2350/include/linux/libfdt.h ****  *
 484:/mnt/c/Users/31740/Documents/codes/newcore-rp2350/include/linux/libfdt.h ****  * fdt_subnode_offset() finds a subnode of the node at structure block
 485:/mnt/c/Users/31740/Documents/codes/newcore-rp2350/include/linux/libfdt.h ****  * offset parentoffset with the given name.  name may include a unit
 486:/mnt/c/Users/31740/Documents/codes/newcore-rp2350/include/linux/libfdt.h ****  * address, in which case fdt_subnode_offset() will find the subnode
 487:/mnt/c/Users/31740/Documents/codes/newcore-rp2350/include/linux/libfdt.h ****  * with that unit address, or the unit address may be omitted, in
 488:/mnt/c/Users/31740/Documents/codes/newcore-rp2350/include/linux/libfdt.h ****  * which case fdt_subnode_offset() will find an arbitrary subnode
 489:/mnt/c/Users/31740/Documents/codes/newcore-rp2350/include/linux/libfdt.h ****  * whose name excluding unit address matches the given name.
 490:/mnt/c/Users/31740/Documents/codes/newcore-rp2350/include/linux/libfdt.h ****  *
 491:/mnt/c/Users/31740/Documents/codes/newcore-rp2350/include/linux/libfdt.h ****  * returns:
 492:/mnt/c/Users/31740/Documents/codes/newcore-rp2350/include/linux/libfdt.h ****  *	structure block offset of the requested subnode (>=0), on success
 493:/mnt/c/Users/31740/Documents/codes/newcore-rp2350/include/linux/libfdt.h ****  *	-FDT_ERR_NOTFOUND, if the requested subnode does not exist
 494:/mnt/c/Users/31740/Documents/codes/newcore-rp2350/include/linux/libfdt.h ****  *	-FDT_ERR_BADOFFSET, if parentoffset did not point to an FDT_BEGIN_NODE
 495:/mnt/c/Users/31740/Documents/codes/newcore-rp2350/include/linux/libfdt.h ****  *		tag
 496:/mnt/c/Users/31740/Documents/codes/newcore-rp2350/include/linux/libfdt.h ****  *	-FDT_ERR_BADMAGIC,
 497:/mnt/c/Users/31740/Documents/codes/newcore-rp2350/include/linux/libfdt.h ****  *	-FDT_ERR_BADVERSION,
 498:/mnt/c/Users/31740/Documents/codes/newcore-rp2350/include/linux/libfdt.h ****  *	-FDT_ERR_BADSTATE,
 499:/mnt/c/Users/31740/Documents/codes/newcore-rp2350/include/linux/libfdt.h ****  *	-FDT_ERR_BADSTRUCTURE,
 500:/mnt/c/Users/31740/Documents/codes/newcore-rp2350/include/linux/libfdt.h ****  *	-FDT_ERR_TRUNCATED, standard meanings.
 501:/mnt/c/Users/31740/Documents/codes/newcore-rp2350/include/linux/libfdt.h ****  */
 502:/mnt/c/Users/31740/Documents/codes/newcore-rp2350/include/linux/libfdt.h **** int fdt_subnode_offset(const void *fdt, int parentoffset, const char *name);
 503:/mnt/c/Users/31740/Documents/codes/newcore-rp2350/include/linux/libfdt.h **** 
 504:/mnt/c/Users/31740/Documents/codes/newcore-rp2350/include/linux/libfdt.h **** /**
 505:/mnt/c/Users/31740/Documents/codes/newcore-rp2350/include/linux/libfdt.h ****  * fdt_path_offset_namelen - find a tree node by its full path
 506:/mnt/c/Users/31740/Documents/codes/newcore-rp2350/include/linux/libfdt.h ****  * @fdt: pointer to the device tree blob
 507:/mnt/c/Users/31740/Documents/codes/newcore-rp2350/include/linux/libfdt.h ****  * @path: full path of the node to locate
 508:/mnt/c/Users/31740/Documents/codes/newcore-rp2350/include/linux/libfdt.h ****  * @namelen: number of characters of path to consider
 509:/mnt/c/Users/31740/Documents/codes/newcore-rp2350/include/linux/libfdt.h ****  *
 510:/mnt/c/Users/31740/Documents/codes/newcore-rp2350/include/linux/libfdt.h ****  * Identical to fdt_path_offset(), but only consider the first namelen
 511:/mnt/c/Users/31740/Documents/codes/newcore-rp2350/include/linux/libfdt.h ****  * characters of path as the path name.
 512:/mnt/c/Users/31740/Documents/codes/newcore-rp2350/include/linux/libfdt.h ****  *
 513:/mnt/c/Users/31740/Documents/codes/newcore-rp2350/include/linux/libfdt.h ****  * Return: offset of the node or negative libfdt error value otherwise
 514:/mnt/c/Users/31740/Documents/codes/newcore-rp2350/include/linux/libfdt.h ****  */
 515:/mnt/c/Users/31740/Documents/codes/newcore-rp2350/include/linux/libfdt.h **** #ifndef SWIG /* Not available in Python */
 516:/mnt/c/Users/31740/Documents/codes/newcore-rp2350/include/linux/libfdt.h **** int fdt_path_offset_namelen(const void *fdt, const char *path, int namelen);
 517:/mnt/c/Users/31740/Documents/codes/newcore-rp2350/include/linux/libfdt.h **** #endif
 518:/mnt/c/Users/31740/Documents/codes/newcore-rp2350/include/linux/libfdt.h **** 
ARM GAS  /tmp/ccyijaMA.s 			page 53


 519:/mnt/c/Users/31740/Documents/codes/newcore-rp2350/include/linux/libfdt.h **** /**
 520:/mnt/c/Users/31740/Documents/codes/newcore-rp2350/include/linux/libfdt.h ****  * fdt_path_offset - find a tree node by its full path
 521:/mnt/c/Users/31740/Documents/codes/newcore-rp2350/include/linux/libfdt.h ****  * @fdt: pointer to the device tree blob
 522:/mnt/c/Users/31740/Documents/codes/newcore-rp2350/include/linux/libfdt.h ****  * @path: full path of the node to locate
 523:/mnt/c/Users/31740/Documents/codes/newcore-rp2350/include/linux/libfdt.h ****  *
 524:/mnt/c/Users/31740/Documents/codes/newcore-rp2350/include/linux/libfdt.h ****  * fdt_path_offset() finds a node of a given path in the device tree.
 525:/mnt/c/Users/31740/Documents/codes/newcore-rp2350/include/linux/libfdt.h ****  * Each path component may omit the unit address portion, but the
 526:/mnt/c/Users/31740/Documents/codes/newcore-rp2350/include/linux/libfdt.h ****  * results of this are undefined if any such path component is
 527:/mnt/c/Users/31740/Documents/codes/newcore-rp2350/include/linux/libfdt.h ****  * ambiguous (that is if there are multiple nodes at the relevant
 528:/mnt/c/Users/31740/Documents/codes/newcore-rp2350/include/linux/libfdt.h ****  * level matching the given component, differentiated only by unit
 529:/mnt/c/Users/31740/Documents/codes/newcore-rp2350/include/linux/libfdt.h ****  * address).
 530:/mnt/c/Users/31740/Documents/codes/newcore-rp2350/include/linux/libfdt.h ****  *
 531:/mnt/c/Users/31740/Documents/codes/newcore-rp2350/include/linux/libfdt.h ****  * If the path is not absolute (i.e. does not begin with '/'), the
 532:/mnt/c/Users/31740/Documents/codes/newcore-rp2350/include/linux/libfdt.h ****  * first component is treated as an alias.  That is, the property by
 533:/mnt/c/Users/31740/Documents/codes/newcore-rp2350/include/linux/libfdt.h ****  * that name is looked up in the /aliases node, and the value of that
 534:/mnt/c/Users/31740/Documents/codes/newcore-rp2350/include/linux/libfdt.h ****  * property used in place of that first component.
 535:/mnt/c/Users/31740/Documents/codes/newcore-rp2350/include/linux/libfdt.h ****  *
 536:/mnt/c/Users/31740/Documents/codes/newcore-rp2350/include/linux/libfdt.h ****  * For example, for this small fragment
 537:/mnt/c/Users/31740/Documents/codes/newcore-rp2350/include/linux/libfdt.h ****  *
 538:/mnt/c/Users/31740/Documents/codes/newcore-rp2350/include/linux/libfdt.h ****  * / {
 539:/mnt/c/Users/31740/Documents/codes/newcore-rp2350/include/linux/libfdt.h ****  *     aliases {
 540:/mnt/c/Users/31740/Documents/codes/newcore-rp2350/include/linux/libfdt.h ****  *         i2c2 = &foo; // RHS compiles to "/soc@0/i2c@30a40000/eeprom@52"
 541:/mnt/c/Users/31740/Documents/codes/newcore-rp2350/include/linux/libfdt.h ****  *     };
 542:/mnt/c/Users/31740/Documents/codes/newcore-rp2350/include/linux/libfdt.h ****  *     soc@0 {
 543:/mnt/c/Users/31740/Documents/codes/newcore-rp2350/include/linux/libfdt.h ****  *         foo: i2c@30a40000 {
 544:/mnt/c/Users/31740/Documents/codes/newcore-rp2350/include/linux/libfdt.h ****  *             bar: eeprom@52 {
 545:/mnt/c/Users/31740/Documents/codes/newcore-rp2350/include/linux/libfdt.h ****  *             };
 546:/mnt/c/Users/31740/Documents/codes/newcore-rp2350/include/linux/libfdt.h ****  *         };
 547:/mnt/c/Users/31740/Documents/codes/newcore-rp2350/include/linux/libfdt.h ****  *     };
 548:/mnt/c/Users/31740/Documents/codes/newcore-rp2350/include/linux/libfdt.h ****  * };
 549:/mnt/c/Users/31740/Documents/codes/newcore-rp2350/include/linux/libfdt.h ****  *
 550:/mnt/c/Users/31740/Documents/codes/newcore-rp2350/include/linux/libfdt.h ****  * these would be equivalent:
 551:/mnt/c/Users/31740/Documents/codes/newcore-rp2350/include/linux/libfdt.h ****  *
 552:/mnt/c/Users/31740/Documents/codes/newcore-rp2350/include/linux/libfdt.h ****  *   /soc@0/i2c@30a40000/eeprom@52
 553:/mnt/c/Users/31740/Documents/codes/newcore-rp2350/include/linux/libfdt.h ****  *   i2c2/eeprom@52
 554:/mnt/c/Users/31740/Documents/codes/newcore-rp2350/include/linux/libfdt.h ****  *
 555:/mnt/c/Users/31740/Documents/codes/newcore-rp2350/include/linux/libfdt.h ****  * returns:
 556:/mnt/c/Users/31740/Documents/codes/newcore-rp2350/include/linux/libfdt.h ****  *	structure block offset of the node with the requested path (>=0), on
 557:/mnt/c/Users/31740/Documents/codes/newcore-rp2350/include/linux/libfdt.h ****  *		success
 558:/mnt/c/Users/31740/Documents/codes/newcore-rp2350/include/linux/libfdt.h ****  *	-FDT_ERR_BADPATH, given path does not begin with '/' and the first
 559:/mnt/c/Users/31740/Documents/codes/newcore-rp2350/include/linux/libfdt.h ****  *		component is not a valid alias
 560:/mnt/c/Users/31740/Documents/codes/newcore-rp2350/include/linux/libfdt.h ****  *	-FDT_ERR_NOTFOUND, if the requested node does not exist
 561:/mnt/c/Users/31740/Documents/codes/newcore-rp2350/include/linux/libfdt.h ****  *	-FDT_ERR_BADMAGIC,
 562:/mnt/c/Users/31740/Documents/codes/newcore-rp2350/include/linux/libfdt.h ****  *	-FDT_ERR_BADVERSION,
 563:/mnt/c/Users/31740/Documents/codes/newcore-rp2350/include/linux/libfdt.h ****  *	-FDT_ERR_BADSTATE,
 564:/mnt/c/Users/31740/Documents/codes/newcore-rp2350/include/linux/libfdt.h ****  *	-FDT_ERR_BADSTRUCTURE,
 565:/mnt/c/Users/31740/Documents/codes/newcore-rp2350/include/linux/libfdt.h ****  *	-FDT_ERR_TRUNCATED, standard meanings.
 566:/mnt/c/Users/31740/Documents/codes/newcore-rp2350/include/linux/libfdt.h ****  */
 567:/mnt/c/Users/31740/Documents/codes/newcore-rp2350/include/linux/libfdt.h **** int fdt_path_offset(const void *fdt, const char *path);
 568:/mnt/c/Users/31740/Documents/codes/newcore-rp2350/include/linux/libfdt.h **** 
 569:/mnt/c/Users/31740/Documents/codes/newcore-rp2350/include/linux/libfdt.h **** /**
 570:/mnt/c/Users/31740/Documents/codes/newcore-rp2350/include/linux/libfdt.h ****  * fdt_get_name - retrieve the name of a given node
 571:/mnt/c/Users/31740/Documents/codes/newcore-rp2350/include/linux/libfdt.h ****  * @fdt: pointer to the device tree blob
 572:/mnt/c/Users/31740/Documents/codes/newcore-rp2350/include/linux/libfdt.h ****  * @nodeoffset: structure block offset of the starting node
 573:/mnt/c/Users/31740/Documents/codes/newcore-rp2350/include/linux/libfdt.h ****  * @lenp: pointer to an integer variable (will be overwritten) or NULL
 574:/mnt/c/Users/31740/Documents/codes/newcore-rp2350/include/linux/libfdt.h ****  *
 575:/mnt/c/Users/31740/Documents/codes/newcore-rp2350/include/linux/libfdt.h ****  * fdt_get_name() retrieves the name (including unit address) of the
ARM GAS  /tmp/ccyijaMA.s 			page 54


 576:/mnt/c/Users/31740/Documents/codes/newcore-rp2350/include/linux/libfdt.h ****  * device tree node at structure block offset nodeoffset.  If lenp is
 577:/mnt/c/Users/31740/Documents/codes/newcore-rp2350/include/linux/libfdt.h ****  * non-NULL, the length of this name is also returned, in the integer
 578:/mnt/c/Users/31740/Documents/codes/newcore-rp2350/include/linux/libfdt.h ****  * pointed to by lenp.
 579:/mnt/c/Users/31740/Documents/codes/newcore-rp2350/include/linux/libfdt.h ****  *
 580:/mnt/c/Users/31740/Documents/codes/newcore-rp2350/include/linux/libfdt.h ****  * returns:
 581:/mnt/c/Users/31740/Documents/codes/newcore-rp2350/include/linux/libfdt.h ****  *	pointer to the node's name, on success
 582:/mnt/c/Users/31740/Documents/codes/newcore-rp2350/include/linux/libfdt.h ****  *		If lenp is non-NULL, *lenp contains the length of that name
 583:/mnt/c/Users/31740/Documents/codes/newcore-rp2350/include/linux/libfdt.h ****  *			(>=0)
 584:/mnt/c/Users/31740/Documents/codes/newcore-rp2350/include/linux/libfdt.h ****  *	NULL, on error
 585:/mnt/c/Users/31740/Documents/codes/newcore-rp2350/include/linux/libfdt.h ****  *		if lenp is non-NULL *lenp contains an error code (<0):
 586:/mnt/c/Users/31740/Documents/codes/newcore-rp2350/include/linux/libfdt.h ****  *		-FDT_ERR_BADOFFSET, nodeoffset did not point to FDT_BEGIN_NODE
 587:/mnt/c/Users/31740/Documents/codes/newcore-rp2350/include/linux/libfdt.h ****  *			tag
 588:/mnt/c/Users/31740/Documents/codes/newcore-rp2350/include/linux/libfdt.h ****  *		-FDT_ERR_BADMAGIC,
 589:/mnt/c/Users/31740/Documents/codes/newcore-rp2350/include/linux/libfdt.h ****  *		-FDT_ERR_BADVERSION,
 590:/mnt/c/Users/31740/Documents/codes/newcore-rp2350/include/linux/libfdt.h ****  *		-FDT_ERR_BADSTATE, standard meanings
 591:/mnt/c/Users/31740/Documents/codes/newcore-rp2350/include/linux/libfdt.h ****  */
 592:/mnt/c/Users/31740/Documents/codes/newcore-rp2350/include/linux/libfdt.h **** const char *fdt_get_name(const void *fdt, int nodeoffset, int *lenp);
 593:/mnt/c/Users/31740/Documents/codes/newcore-rp2350/include/linux/libfdt.h **** 
 594:/mnt/c/Users/31740/Documents/codes/newcore-rp2350/include/linux/libfdt.h **** /**
 595:/mnt/c/Users/31740/Documents/codes/newcore-rp2350/include/linux/libfdt.h ****  * fdt_first_property_offset - find the offset of a node's first property
 596:/mnt/c/Users/31740/Documents/codes/newcore-rp2350/include/linux/libfdt.h ****  * @fdt: pointer to the device tree blob
 597:/mnt/c/Users/31740/Documents/codes/newcore-rp2350/include/linux/libfdt.h ****  * @nodeoffset: structure block offset of a node
 598:/mnt/c/Users/31740/Documents/codes/newcore-rp2350/include/linux/libfdt.h ****  *
 599:/mnt/c/Users/31740/Documents/codes/newcore-rp2350/include/linux/libfdt.h ****  * fdt_first_property_offset() finds the first property of the node at
 600:/mnt/c/Users/31740/Documents/codes/newcore-rp2350/include/linux/libfdt.h ****  * the given structure block offset.
 601:/mnt/c/Users/31740/Documents/codes/newcore-rp2350/include/linux/libfdt.h ****  *
 602:/mnt/c/Users/31740/Documents/codes/newcore-rp2350/include/linux/libfdt.h ****  * returns:
 603:/mnt/c/Users/31740/Documents/codes/newcore-rp2350/include/linux/libfdt.h ****  *	structure block offset of the property (>=0), on success
 604:/mnt/c/Users/31740/Documents/codes/newcore-rp2350/include/linux/libfdt.h ****  *	-FDT_ERR_NOTFOUND, if the requested node has no properties
 605:/mnt/c/Users/31740/Documents/codes/newcore-rp2350/include/linux/libfdt.h ****  *	-FDT_ERR_BADOFFSET, if nodeoffset did not point to an FDT_BEGIN_NODE tag
 606:/mnt/c/Users/31740/Documents/codes/newcore-rp2350/include/linux/libfdt.h ****  *	-FDT_ERR_BADMAGIC,
 607:/mnt/c/Users/31740/Documents/codes/newcore-rp2350/include/linux/libfdt.h ****  *	-FDT_ERR_BADVERSION,
 608:/mnt/c/Users/31740/Documents/codes/newcore-rp2350/include/linux/libfdt.h ****  *	-FDT_ERR_BADSTATE,
 609:/mnt/c/Users/31740/Documents/codes/newcore-rp2350/include/linux/libfdt.h ****  *	-FDT_ERR_BADSTRUCTURE,
 610:/mnt/c/Users/31740/Documents/codes/newcore-rp2350/include/linux/libfdt.h ****  *	-FDT_ERR_TRUNCATED, standard meanings.
 611:/mnt/c/Users/31740/Documents/codes/newcore-rp2350/include/linux/libfdt.h ****  */
 612:/mnt/c/Users/31740/Documents/codes/newcore-rp2350/include/linux/libfdt.h **** int fdt_first_property_offset(const void *fdt, int nodeoffset);
 613:/mnt/c/Users/31740/Documents/codes/newcore-rp2350/include/linux/libfdt.h **** 
 614:/mnt/c/Users/31740/Documents/codes/newcore-rp2350/include/linux/libfdt.h **** /**
 615:/mnt/c/Users/31740/Documents/codes/newcore-rp2350/include/linux/libfdt.h ****  * fdt_next_property_offset - step through a node's properties
 616:/mnt/c/Users/31740/Documents/codes/newcore-rp2350/include/linux/libfdt.h ****  * @fdt: pointer to the device tree blob
 617:/mnt/c/Users/31740/Documents/codes/newcore-rp2350/include/linux/libfdt.h ****  * @offset: structure block offset of a property
 618:/mnt/c/Users/31740/Documents/codes/newcore-rp2350/include/linux/libfdt.h ****  *
 619:/mnt/c/Users/31740/Documents/codes/newcore-rp2350/include/linux/libfdt.h ****  * fdt_next_property_offset() finds the property immediately after the
 620:/mnt/c/Users/31740/Documents/codes/newcore-rp2350/include/linux/libfdt.h ****  * one at the given structure block offset.  This will be a property
 621:/mnt/c/Users/31740/Documents/codes/newcore-rp2350/include/linux/libfdt.h ****  * of the same node as the given property.
 622:/mnt/c/Users/31740/Documents/codes/newcore-rp2350/include/linux/libfdt.h ****  *
 623:/mnt/c/Users/31740/Documents/codes/newcore-rp2350/include/linux/libfdt.h ****  * returns:
 624:/mnt/c/Users/31740/Documents/codes/newcore-rp2350/include/linux/libfdt.h ****  *	structure block offset of the next property (>=0), on success
 625:/mnt/c/Users/31740/Documents/codes/newcore-rp2350/include/linux/libfdt.h ****  *	-FDT_ERR_NOTFOUND, if the given property is the last in its node
 626:/mnt/c/Users/31740/Documents/codes/newcore-rp2350/include/linux/libfdt.h ****  *	-FDT_ERR_BADOFFSET, if nodeoffset did not point to an FDT_PROP tag
 627:/mnt/c/Users/31740/Documents/codes/newcore-rp2350/include/linux/libfdt.h ****  *	-FDT_ERR_BADMAGIC,
 628:/mnt/c/Users/31740/Documents/codes/newcore-rp2350/include/linux/libfdt.h ****  *	-FDT_ERR_BADVERSION,
 629:/mnt/c/Users/31740/Documents/codes/newcore-rp2350/include/linux/libfdt.h ****  *	-FDT_ERR_BADSTATE,
 630:/mnt/c/Users/31740/Documents/codes/newcore-rp2350/include/linux/libfdt.h ****  *	-FDT_ERR_BADSTRUCTURE,
 631:/mnt/c/Users/31740/Documents/codes/newcore-rp2350/include/linux/libfdt.h ****  *	-FDT_ERR_TRUNCATED, standard meanings.
 632:/mnt/c/Users/31740/Documents/codes/newcore-rp2350/include/linux/libfdt.h ****  */
ARM GAS  /tmp/ccyijaMA.s 			page 55


 633:/mnt/c/Users/31740/Documents/codes/newcore-rp2350/include/linux/libfdt.h **** int fdt_next_property_offset(const void *fdt, int offset);
 634:/mnt/c/Users/31740/Documents/codes/newcore-rp2350/include/linux/libfdt.h **** 
 635:/mnt/c/Users/31740/Documents/codes/newcore-rp2350/include/linux/libfdt.h **** /**
 636:/mnt/c/Users/31740/Documents/codes/newcore-rp2350/include/linux/libfdt.h ****  * fdt_for_each_property_offset - iterate over all properties of a node
 637:/mnt/c/Users/31740/Documents/codes/newcore-rp2350/include/linux/libfdt.h ****  *
 638:/mnt/c/Users/31740/Documents/codes/newcore-rp2350/include/linux/libfdt.h ****  * @property:	property offset (int, lvalue)
 639:/mnt/c/Users/31740/Documents/codes/newcore-rp2350/include/linux/libfdt.h ****  * @fdt:	FDT blob (const void *)
 640:/mnt/c/Users/31740/Documents/codes/newcore-rp2350/include/linux/libfdt.h ****  * @node:	node offset (int)
 641:/mnt/c/Users/31740/Documents/codes/newcore-rp2350/include/linux/libfdt.h ****  *
 642:/mnt/c/Users/31740/Documents/codes/newcore-rp2350/include/linux/libfdt.h ****  * This is actually a wrapper around a for loop and would be used like so:
 643:/mnt/c/Users/31740/Documents/codes/newcore-rp2350/include/linux/libfdt.h ****  *
 644:/mnt/c/Users/31740/Documents/codes/newcore-rp2350/include/linux/libfdt.h ****  *	fdt_for_each_property_offset(property, fdt, node) {
 645:/mnt/c/Users/31740/Documents/codes/newcore-rp2350/include/linux/libfdt.h ****  *		Use property
 646:/mnt/c/Users/31740/Documents/codes/newcore-rp2350/include/linux/libfdt.h ****  *		...
 647:/mnt/c/Users/31740/Documents/codes/newcore-rp2350/include/linux/libfdt.h ****  *	}
 648:/mnt/c/Users/31740/Documents/codes/newcore-rp2350/include/linux/libfdt.h ****  *
 649:/mnt/c/Users/31740/Documents/codes/newcore-rp2350/include/linux/libfdt.h ****  *	if ((property < 0) && (property != -FDT_ERR_NOTFOUND)) {
 650:/mnt/c/Users/31740/Documents/codes/newcore-rp2350/include/linux/libfdt.h ****  *		Error handling
 651:/mnt/c/Users/31740/Documents/codes/newcore-rp2350/include/linux/libfdt.h ****  *	}
 652:/mnt/c/Users/31740/Documents/codes/newcore-rp2350/include/linux/libfdt.h ****  *
 653:/mnt/c/Users/31740/Documents/codes/newcore-rp2350/include/linux/libfdt.h ****  * Note that this is implemented as a macro and property is used as
 654:/mnt/c/Users/31740/Documents/codes/newcore-rp2350/include/linux/libfdt.h ****  * iterator in the loop. The node variable can be constant or even a
 655:/mnt/c/Users/31740/Documents/codes/newcore-rp2350/include/linux/libfdt.h ****  * literal.
 656:/mnt/c/Users/31740/Documents/codes/newcore-rp2350/include/linux/libfdt.h ****  */
 657:/mnt/c/Users/31740/Documents/codes/newcore-rp2350/include/linux/libfdt.h **** #define fdt_for_each_property_offset(property, fdt, node)	\
 658:/mnt/c/Users/31740/Documents/codes/newcore-rp2350/include/linux/libfdt.h **** 	for (property = fdt_first_property_offset(fdt, node);	\
 659:/mnt/c/Users/31740/Documents/codes/newcore-rp2350/include/linux/libfdt.h **** 	     property >= 0;					\
 660:/mnt/c/Users/31740/Documents/codes/newcore-rp2350/include/linux/libfdt.h **** 	     property = fdt_next_property_offset(fdt, property))
 661:/mnt/c/Users/31740/Documents/codes/newcore-rp2350/include/linux/libfdt.h **** 
 662:/mnt/c/Users/31740/Documents/codes/newcore-rp2350/include/linux/libfdt.h **** /**
 663:/mnt/c/Users/31740/Documents/codes/newcore-rp2350/include/linux/libfdt.h ****  * fdt_get_property_by_offset - retrieve the property at a given offset
 664:/mnt/c/Users/31740/Documents/codes/newcore-rp2350/include/linux/libfdt.h ****  * @fdt: pointer to the device tree blob
 665:/mnt/c/Users/31740/Documents/codes/newcore-rp2350/include/linux/libfdt.h ****  * @offset: offset of the property to retrieve
 666:/mnt/c/Users/31740/Documents/codes/newcore-rp2350/include/linux/libfdt.h ****  * @lenp: pointer to an integer variable (will be overwritten) or NULL
 667:/mnt/c/Users/31740/Documents/codes/newcore-rp2350/include/linux/libfdt.h ****  *
 668:/mnt/c/Users/31740/Documents/codes/newcore-rp2350/include/linux/libfdt.h ****  * fdt_get_property_by_offset() retrieves a pointer to the
 669:/mnt/c/Users/31740/Documents/codes/newcore-rp2350/include/linux/libfdt.h ****  * fdt_property structure within the device tree blob at the given
 670:/mnt/c/Users/31740/Documents/codes/newcore-rp2350/include/linux/libfdt.h ****  * offset.  If lenp is non-NULL, the length of the property value is
 671:/mnt/c/Users/31740/Documents/codes/newcore-rp2350/include/linux/libfdt.h ****  * also returned, in the integer pointed to by lenp.
 672:/mnt/c/Users/31740/Documents/codes/newcore-rp2350/include/linux/libfdt.h ****  *
 673:/mnt/c/Users/31740/Documents/codes/newcore-rp2350/include/linux/libfdt.h ****  * Note that this code only works on device tree versions >= 16. fdt_getprop()
 674:/mnt/c/Users/31740/Documents/codes/newcore-rp2350/include/linux/libfdt.h ****  * works on all versions.
 675:/mnt/c/Users/31740/Documents/codes/newcore-rp2350/include/linux/libfdt.h ****  *
 676:/mnt/c/Users/31740/Documents/codes/newcore-rp2350/include/linux/libfdt.h ****  * returns:
 677:/mnt/c/Users/31740/Documents/codes/newcore-rp2350/include/linux/libfdt.h ****  *	pointer to the structure representing the property
 678:/mnt/c/Users/31740/Documents/codes/newcore-rp2350/include/linux/libfdt.h ****  *		if lenp is non-NULL, *lenp contains the length of the property
 679:/mnt/c/Users/31740/Documents/codes/newcore-rp2350/include/linux/libfdt.h ****  *		value (>=0)
 680:/mnt/c/Users/31740/Documents/codes/newcore-rp2350/include/linux/libfdt.h ****  *	NULL, on error
 681:/mnt/c/Users/31740/Documents/codes/newcore-rp2350/include/linux/libfdt.h ****  *		if lenp is non-NULL, *lenp contains an error code (<0):
 682:/mnt/c/Users/31740/Documents/codes/newcore-rp2350/include/linux/libfdt.h ****  *		-FDT_ERR_BADOFFSET, nodeoffset did not point to FDT_PROP tag
 683:/mnt/c/Users/31740/Documents/codes/newcore-rp2350/include/linux/libfdt.h ****  *		-FDT_ERR_BADMAGIC,
 684:/mnt/c/Users/31740/Documents/codes/newcore-rp2350/include/linux/libfdt.h ****  *		-FDT_ERR_BADVERSION,
 685:/mnt/c/Users/31740/Documents/codes/newcore-rp2350/include/linux/libfdt.h ****  *		-FDT_ERR_BADSTATE,
 686:/mnt/c/Users/31740/Documents/codes/newcore-rp2350/include/linux/libfdt.h ****  *		-FDT_ERR_BADSTRUCTURE,
 687:/mnt/c/Users/31740/Documents/codes/newcore-rp2350/include/linux/libfdt.h ****  *		-FDT_ERR_TRUNCATED, standard meanings
 688:/mnt/c/Users/31740/Documents/codes/newcore-rp2350/include/linux/libfdt.h ****  */
 689:/mnt/c/Users/31740/Documents/codes/newcore-rp2350/include/linux/libfdt.h **** const struct fdt_property *fdt_get_property_by_offset(const void *fdt,
ARM GAS  /tmp/ccyijaMA.s 			page 56


 690:/mnt/c/Users/31740/Documents/codes/newcore-rp2350/include/linux/libfdt.h **** 						      int offset,
 691:/mnt/c/Users/31740/Documents/codes/newcore-rp2350/include/linux/libfdt.h **** 						      int *lenp);
 692:/mnt/c/Users/31740/Documents/codes/newcore-rp2350/include/linux/libfdt.h **** static inline struct fdt_property *fdt_get_property_by_offset_w(void *fdt,
 693:/mnt/c/Users/31740/Documents/codes/newcore-rp2350/include/linux/libfdt.h **** 								int offset,
 694:/mnt/c/Users/31740/Documents/codes/newcore-rp2350/include/linux/libfdt.h **** 								int *lenp)
 695:/mnt/c/Users/31740/Documents/codes/newcore-rp2350/include/linux/libfdt.h **** {
 696:/mnt/c/Users/31740/Documents/codes/newcore-rp2350/include/linux/libfdt.h **** 	return (struct fdt_property *)(uintptr_t)
 697:/mnt/c/Users/31740/Documents/codes/newcore-rp2350/include/linux/libfdt.h **** 		fdt_get_property_by_offset(fdt, offset, lenp);
 698:/mnt/c/Users/31740/Documents/codes/newcore-rp2350/include/linux/libfdt.h **** }
 699:/mnt/c/Users/31740/Documents/codes/newcore-rp2350/include/linux/libfdt.h **** 
 700:/mnt/c/Users/31740/Documents/codes/newcore-rp2350/include/linux/libfdt.h **** /**
 701:/mnt/c/Users/31740/Documents/codes/newcore-rp2350/include/linux/libfdt.h ****  * fdt_get_property_namelen - find a property based on substring
 702:/mnt/c/Users/31740/Documents/codes/newcore-rp2350/include/linux/libfdt.h ****  * @fdt: pointer to the device tree blob
 703:/mnt/c/Users/31740/Documents/codes/newcore-rp2350/include/linux/libfdt.h ****  * @nodeoffset: offset of the node whose property to find
 704:/mnt/c/Users/31740/Documents/codes/newcore-rp2350/include/linux/libfdt.h ****  * @name: name of the property to find
 705:/mnt/c/Users/31740/Documents/codes/newcore-rp2350/include/linux/libfdt.h ****  * @namelen: number of characters of name to consider
 706:/mnt/c/Users/31740/Documents/codes/newcore-rp2350/include/linux/libfdt.h ****  * @lenp: pointer to an integer variable (will be overwritten) or NULL
 707:/mnt/c/Users/31740/Documents/codes/newcore-rp2350/include/linux/libfdt.h ****  *
 708:/mnt/c/Users/31740/Documents/codes/newcore-rp2350/include/linux/libfdt.h ****  * Identical to fdt_get_property(), but only examine the first namelen
 709:/mnt/c/Users/31740/Documents/codes/newcore-rp2350/include/linux/libfdt.h ****  * characters of name for matching the property name.
 710:/mnt/c/Users/31740/Documents/codes/newcore-rp2350/include/linux/libfdt.h ****  *
 711:/mnt/c/Users/31740/Documents/codes/newcore-rp2350/include/linux/libfdt.h ****  * Return: pointer to the structure representing the property, or NULL
 712:/mnt/c/Users/31740/Documents/codes/newcore-rp2350/include/linux/libfdt.h ****  *         if not found
 713:/mnt/c/Users/31740/Documents/codes/newcore-rp2350/include/linux/libfdt.h ****  */
 714:/mnt/c/Users/31740/Documents/codes/newcore-rp2350/include/linux/libfdt.h **** #ifndef SWIG /* Not available in Python */
 715:/mnt/c/Users/31740/Documents/codes/newcore-rp2350/include/linux/libfdt.h **** const struct fdt_property *fdt_get_property_namelen(const void *fdt,
 716:/mnt/c/Users/31740/Documents/codes/newcore-rp2350/include/linux/libfdt.h **** 						    int nodeoffset,
 717:/mnt/c/Users/31740/Documents/codes/newcore-rp2350/include/linux/libfdt.h **** 						    const char *name,
 718:/mnt/c/Users/31740/Documents/codes/newcore-rp2350/include/linux/libfdt.h **** 						    int namelen, int *lenp);
 719:/mnt/c/Users/31740/Documents/codes/newcore-rp2350/include/linux/libfdt.h **** static inline struct fdt_property *
 720:/mnt/c/Users/31740/Documents/codes/newcore-rp2350/include/linux/libfdt.h **** fdt_get_property_namelen_w(void *fdt, int nodeoffset, const char *name,
 1585              		.loc 3 720 1 view .LVU557
 1586              	.LBB355:
 721:/mnt/c/Users/31740/Documents/codes/newcore-rp2350/include/linux/libfdt.h **** 			   int namelen, int *lenp)
 722:/mnt/c/Users/31740/Documents/codes/newcore-rp2350/include/linux/libfdt.h **** {
 723:/mnt/c/Users/31740/Documents/codes/newcore-rp2350/include/linux/libfdt.h **** 	return (struct fdt_property *)(uintptr_t)fdt_get_property_namelen(
 1587              		.loc 3 723 2 view .LVU558
 1588              		.loc 3 723 43 is_stmt 0 view .LVU559
 1589 000a 03AD     		add	r5, sp, #12
 1590              	.LVL138:
 1591              		.loc 3 723 43 view .LVU560
 1592 000c 0095     		str	r5, [sp]
 1593 000e FFF7FEFF 		bl	fdt_get_property_namelen
 1594              	.LVL139:
 1595              		.loc 3 723 43 view .LVU561
 1596              	.LBE355:
 1597              	.LBE354:
 194:/mnt/c/Users/31740/Documents/codes/newcore-rp2350/lib/fdt/fdt_rw.c **** 					   &oldlen);
 1598              		.loc 1 194 8 discriminator 1 view .LVU562
 1599 0012 3060     		str	r0, [r6]
 196:/mnt/c/Users/31740/Documents/codes/newcore-rp2350/lib/fdt/fdt_rw.c **** 		return oldlen;
 1600              		.loc 1 196 2 is_stmt 1 view .LVU563
 196:/mnt/c/Users/31740/Documents/codes/newcore-rp2350/lib/fdt/fdt_rw.c **** 		return oldlen;
 1601              		.loc 1 196 5 is_stmt 0 view .LVU564
 1602 0014 D8B1     		cbz	r0, .L44
 199:/mnt/c/Users/31740/Documents/codes/newcore-rp2350/lib/fdt/fdt_rw.c **** 				      FDT_TAGALIGN(len))))
 1603              		.loc 1 199 2 is_stmt 1 view .LVU565
ARM GAS  /tmp/ccyijaMA.s 			page 57


 199:/mnt/c/Users/31740/Documents/codes/newcore-rp2350/lib/fdt/fdt_rw.c **** 				      FDT_TAGALIGN(len))))
 1604              		.loc 1 199 52 is_stmt 0 view .LVU566
 1605 0016 039A     		ldr	r2, [sp, #12]
 1606 0018 0332     		adds	r2, r2, #3
 200:/mnt/c/Users/31740/Documents/codes/newcore-rp2350/lib/fdt/fdt_rw.c **** 		return err;
 1607              		.loc 1 200 11 view .LVU567
 1608 001a E31C     		adds	r3, r4, #3
 199:/mnt/c/Users/31740/Documents/codes/newcore-rp2350/lib/fdt/fdt_rw.c **** 				      FDT_TAGALIGN(len))))
 1609              		.loc 1 199 13 view .LVU568
 1610 001c 23F00303 		bic	r3, r3, #3
 1611 0020 22F00302 		bic	r2, r2, #3
 1612 0024 00F10C01 		add	r1, r0, #12
 1613 0028 3846     		mov	r0, r7
 1614 002a FFF7FEFF 		bl	fdt_splice_struct_
 1615              	.LVL140:
 199:/mnt/c/Users/31740/Documents/codes/newcore-rp2350/lib/fdt/fdt_rw.c **** 				      FDT_TAGALIGN(len))))
 1616              		.loc 1 199 5 discriminator 1 view .LVU569
 1617 002e 60B9     		cbnz	r0, .L40
 203:/mnt/c/Users/31740/Documents/codes/newcore-rp2350/lib/fdt/fdt_rw.c **** 	return 0;
 1618              		.loc 1 203 2 is_stmt 1 view .LVU570
 203:/mnt/c/Users/31740/Documents/codes/newcore-rp2350/lib/fdt/fdt_rw.c **** 	return 0;
 1619              		.loc 1 203 3 is_stmt 0 view .LVU571
 1620 0030 3268     		ldr	r2, [r6]
 1621              	.LVL141:
 1622              	.LBB356:
 1623              	.LBI356:
  57:/mnt/c/Users/31740/Documents/codes/newcore-rp2350/include/linux/libfdt_env.h **** {
 1624              		.loc 4 57 23 is_stmt 1 view .LVU572
 1625              	.LBB357:
 1626              		.loc 4 59 2 view .LVU573
 1627              		.loc 4 59 28 is_stmt 0 view .LVU574
 1628 0032 C4F30723 		ubfx	r3, r4, #8, #8
 1629 0036 1B04     		lsls	r3, r3, #16
 1630 0038 43EA0463 		orr	r3, r3, r4, lsl #24
 1631 003c C4F30741 		ubfx	r1, r4, #16, #8
 1632 0040 43EA0123 		orr	r3, r3, r1, lsl #8
 1633              		.loc 4 59 9 view .LVU575
 1634 0044 43EA1463 		orr	r3, r3, r4, lsr #24
 1635              	.LVL142:
 1636              		.loc 4 59 9 view .LVU576
 1637              	.LBE357:
 1638              	.LBE356:
 203:/mnt/c/Users/31740/Documents/codes/newcore-rp2350/lib/fdt/fdt_rw.c **** 	return 0;
 1639              		.loc 1 203 15 discriminator 1 view .LVU577
 1640 0048 5360     		str	r3, [r2, #4]
 204:/mnt/c/Users/31740/Documents/codes/newcore-rp2350/lib/fdt/fdt_rw.c **** }
 1641              		.loc 1 204 2 is_stmt 1 view .LVU578
 1642              	.LVL143:
 1643              	.L40:
 205:/mnt/c/Users/31740/Documents/codes/newcore-rp2350/lib/fdt/fdt_rw.c **** 
 1644              		.loc 1 205 1 is_stmt 0 view .LVU579
 1645 004a 05B0     		add	sp, sp, #20
 1646              	.LCFI12:
 1647              		.cfi_remember_state
 1648              		.cfi_def_cfa_offset 20
 1649              		@ sp needed
 1650 004c F0BD     		pop	{r4, r5, r6, r7, pc}
ARM GAS  /tmp/ccyijaMA.s 			page 58


 1651              	.LVL144:
 1652              	.L44:
 1653              	.LCFI13:
 1654              		.cfi_restore_state
 197:/mnt/c/Users/31740/Documents/codes/newcore-rp2350/lib/fdt/fdt_rw.c **** 
 1655              		.loc 1 197 3 is_stmt 1 view .LVU580
 197:/mnt/c/Users/31740/Documents/codes/newcore-rp2350/lib/fdt/fdt_rw.c **** 
 1656              		.loc 1 197 10 is_stmt 0 view .LVU581
 1657 004e 0398     		ldr	r0, [sp, #12]
 1658 0050 FBE7     		b	.L40
 1659              		.cfi_endproc
 1660              	.LFE86:
 1662              		.section	.text.fdt_find_add_string_,"ax",%progbits
 1663              		.align	1
 1664              		.syntax unified
 1665              		.thumb
 1666              		.thumb_func
 1668              	fdt_find_add_string_:
 1669              	.LVL145:
 1670              	.LFB83:
 130:/mnt/c/Users/31740/Documents/codes/newcore-rp2350/lib/fdt/fdt_rw.c **** 	char *strtab = (char *)fdt + fdt_off_dt_strings(fdt);
 1671              		.loc 1 130 1 is_stmt 1 view -0
 1672              		.cfi_startproc
 1673              		@ args = 0, pretend = 0, frame = 0
 1674              		@ frame_needed = 0, uses_anonymous_args = 0
 130:/mnt/c/Users/31740/Documents/codes/newcore-rp2350/lib/fdt/fdt_rw.c **** 	char *strtab = (char *)fdt + fdt_off_dt_strings(fdt);
 1675              		.loc 1 130 1 is_stmt 0 view .LVU583
 1676 0000 2DE9F843 		push	{r3, r4, r5, r6, r7, r8, r9, lr}
 1677              	.LCFI14:
 1678              		.cfi_def_cfa_offset 32
 1679              		.cfi_offset 3, -32
 1680              		.cfi_offset 4, -28
 1681              		.cfi_offset 5, -24
 1682              		.cfi_offset 6, -20
 1683              		.cfi_offset 7, -16
 1684              		.cfi_offset 8, -12
 1685              		.cfi_offset 9, -8
 1686              		.cfi_offset 14, -4
 1687 0004 0546     		mov	r5, r0
 1688 0006 0F46     		mov	r7, r1
 1689 0008 1646     		mov	r6, r2
 1690 000a 9846     		mov	r8, r3
 131:/mnt/c/Users/31740/Documents/codes/newcore-rp2350/lib/fdt/fdt_rw.c **** 	const char *p;
 1691              		.loc 1 131 2 is_stmt 1 view .LVU584
 1692              	.LVL146:
 1693              	.LBB358:
 1694              	.LBI358:
 145:/mnt/c/Users/31740/Documents/codes/newcore-rp2350/include/linux/libfdt.h **** {
 1695              		.loc 3 145 24 view .LVU585
 1696              	.LBB359:
 147:/mnt/c/Users/31740/Documents/codes/newcore-rp2350/include/linux/libfdt.h **** 
 1697              		.loc 3 147 2 view .LVU586
 149:/mnt/c/Users/31740/Documents/codes/newcore-rp2350/include/linux/libfdt.h **** 		| ((uint32_t)bp[1] << 16)
