ARM GAS  /tmp/ccyijaMA.s 			page 1


   1              		.cpu cortex-m33
   2              		.arch armv8-m.main
   3              		.fpu fpv4-sp-d16
   4              		.arch_extension dsp
   5              		.eabi_attribute 27, 1
   6              		.eabi_attribute 28, 1
   7              		.eabi_attribute 20, 1
   8              		.eabi_attribute 21, 1
   9              		.eabi_attribute 23, 3
  10              		.eabi_attribute 24, 1
  11              		.eabi_attribute 25, 1
  12              		.eabi_attribute 26, 1
  13              		.eabi_attribute 30, 1
  14              		.eabi_attribute 34, 1
  15              		.eabi_attribute 18, 4
  16              		.file	"fdt_rw.c"
  17              		.text
  18              	.Ltext0:
  19              		.cfi_sections	.debug_frame
  20              		.file 1 "/mnt/c/Users/31740/Documents/codes/newcore-rp2350/lib/fdt/fdt_rw.c"
  21              		.section	.text.fdt_mem_rsv_,"ax",%progbits
  22              		.align	1
  23              		.syntax unified
  24              		.thumb
  25              		.thumb_func
  27              	fdt_mem_rsv_:
  28              	.LVL0:
  29              	.LFB70:
  30              		.file 2 "/mnt/c/Users/31740/Documents/codes/newcore-rp2350/lib/fdt/libfdt_internal.h"
   1:/mnt/c/Users/31740/Documents/codes/newcore-rp2350/lib/fdt/libfdt_internal.h **** /* SPDX-License-Identifier: (GPL-2.0-or-later OR BSD-2-Clause) */
   2:/mnt/c/Users/31740/Documents/codes/newcore-rp2350/lib/fdt/libfdt_internal.h **** #ifndef LIBFDT_INTERNAL_H
   3:/mnt/c/Users/31740/Documents/codes/newcore-rp2350/lib/fdt/libfdt_internal.h **** #define LIBFDT_INTERNAL_H
   4:/mnt/c/Users/31740/Documents/codes/newcore-rp2350/lib/fdt/libfdt_internal.h **** /*
   5:/mnt/c/Users/31740/Documents/codes/newcore-rp2350/lib/fdt/libfdt_internal.h ****  * libfdt - Flat Device Tree manipulation
   6:/mnt/c/Users/31740/Documents/codes/newcore-rp2350/lib/fdt/libfdt_internal.h ****  * Copyright (C) 2006 David Gibson, IBM Corporation.
   7:/mnt/c/Users/31740/Documents/codes/newcore-rp2350/lib/fdt/libfdt_internal.h ****  */
   8:/mnt/c/Users/31740/Documents/codes/newcore-rp2350/lib/fdt/libfdt_internal.h **** #include <linux/fdt.h>
   9:/mnt/c/Users/31740/Documents/codes/newcore-rp2350/lib/fdt/libfdt_internal.h **** #include <linux/string.h>
  10:/mnt/c/Users/31740/Documents/codes/newcore-rp2350/lib/fdt/libfdt_internal.h **** 
  11:/mnt/c/Users/31740/Documents/codes/newcore-rp2350/lib/fdt/libfdt_internal.h **** #define FDT_ALIGN(x, a)		(((x) + (a) - 1) & ~((a) - 1))
  12:/mnt/c/Users/31740/Documents/codes/newcore-rp2350/lib/fdt/libfdt_internal.h **** #define FDT_TAGALIGN(x)		(FDT_ALIGN((x), FDT_TAGSIZE))
  13:/mnt/c/Users/31740/Documents/codes/newcore-rp2350/lib/fdt/libfdt_internal.h **** 
  14:/mnt/c/Users/31740/Documents/codes/newcore-rp2350/lib/fdt/libfdt_internal.h **** int32_t fdt_ro_probe_(const void *fdt);
  15:/mnt/c/Users/31740/Documents/codes/newcore-rp2350/lib/fdt/libfdt_internal.h **** #define FDT_RO_PROBE(fdt)					\
  16:/mnt/c/Users/31740/Documents/codes/newcore-rp2350/lib/fdt/libfdt_internal.h **** 	{							\
  17:/mnt/c/Users/31740/Documents/codes/newcore-rp2350/lib/fdt/libfdt_internal.h **** 		int32_t totalsize_;				\
  18:/mnt/c/Users/31740/Documents/codes/newcore-rp2350/lib/fdt/libfdt_internal.h **** 		if ((totalsize_ = fdt_ro_probe_(fdt)) < 0)	\
  19:/mnt/c/Users/31740/Documents/codes/newcore-rp2350/lib/fdt/libfdt_internal.h **** 			return totalsize_;			\
  20:/mnt/c/Users/31740/Documents/codes/newcore-rp2350/lib/fdt/libfdt_internal.h **** 	}
  21:/mnt/c/Users/31740/Documents/codes/newcore-rp2350/lib/fdt/libfdt_internal.h **** 
  22:/mnt/c/Users/31740/Documents/codes/newcore-rp2350/lib/fdt/libfdt_internal.h **** int fdt_check_node_offset_(const void *fdt, int offset);
  23:/mnt/c/Users/31740/Documents/codes/newcore-rp2350/lib/fdt/libfdt_internal.h **** int fdt_check_prop_offset_(const void *fdt, int offset);
  24:/mnt/c/Users/31740/Documents/codes/newcore-rp2350/lib/fdt/libfdt_internal.h **** 
  25:/mnt/c/Users/31740/Documents/codes/newcore-rp2350/lib/fdt/libfdt_internal.h **** const char *fdt_find_string_len_(const char *strtab, int tabsize, const char *s,
  26:/mnt/c/Users/31740/Documents/codes/newcore-rp2350/lib/fdt/libfdt_internal.h **** 				 int s_len);
  27:/mnt/c/Users/31740/Documents/codes/newcore-rp2350/lib/fdt/libfdt_internal.h **** static inline const char *fdt_find_string_(const char *strtab, int tabsize,
  28:/mnt/c/Users/31740/Documents/codes/newcore-rp2350/lib/fdt/libfdt_internal.h **** 					   const char *s)
ARM GAS  /tmp/ccyijaMA.s 			page 2


  29:/mnt/c/Users/31740/Documents/codes/newcore-rp2350/lib/fdt/libfdt_internal.h **** {
  30:/mnt/c/Users/31740/Documents/codes/newcore-rp2350/lib/fdt/libfdt_internal.h **** 	return fdt_find_string_len_(strtab, tabsize, s, strlen(s));
  31:/mnt/c/Users/31740/Documents/codes/newcore-rp2350/lib/fdt/libfdt_internal.h **** }
  32:/mnt/c/Users/31740/Documents/codes/newcore-rp2350/lib/fdt/libfdt_internal.h **** 
  33:/mnt/c/Users/31740/Documents/codes/newcore-rp2350/lib/fdt/libfdt_internal.h **** int fdt_node_end_offset_(void *fdt, int nodeoffset);
  34:/mnt/c/Users/31740/Documents/codes/newcore-rp2350/lib/fdt/libfdt_internal.h **** 
  35:/mnt/c/Users/31740/Documents/codes/newcore-rp2350/lib/fdt/libfdt_internal.h **** static inline const void *fdt_offset_ptr_(const void *fdt, int offset)
  36:/mnt/c/Users/31740/Documents/codes/newcore-rp2350/lib/fdt/libfdt_internal.h **** {
  37:/mnt/c/Users/31740/Documents/codes/newcore-rp2350/lib/fdt/libfdt_internal.h **** 	return (const char *)fdt + fdt_off_dt_struct(fdt) + offset;
  38:/mnt/c/Users/31740/Documents/codes/newcore-rp2350/lib/fdt/libfdt_internal.h **** }
  39:/mnt/c/Users/31740/Documents/codes/newcore-rp2350/lib/fdt/libfdt_internal.h **** 
  40:/mnt/c/Users/31740/Documents/codes/newcore-rp2350/lib/fdt/libfdt_internal.h **** static inline void *fdt_offset_ptr_w_(void *fdt, int offset)
  41:/mnt/c/Users/31740/Documents/codes/newcore-rp2350/lib/fdt/libfdt_internal.h **** {
  42:/mnt/c/Users/31740/Documents/codes/newcore-rp2350/lib/fdt/libfdt_internal.h **** 	return (void *)(uintptr_t)fdt_offset_ptr_(fdt, offset);
  43:/mnt/c/Users/31740/Documents/codes/newcore-rp2350/lib/fdt/libfdt_internal.h **** }
  44:/mnt/c/Users/31740/Documents/codes/newcore-rp2350/lib/fdt/libfdt_internal.h **** 
  45:/mnt/c/Users/31740/Documents/codes/newcore-rp2350/lib/fdt/libfdt_internal.h **** static inline const struct fdt_reserve_entry *fdt_mem_rsv_(const void *fdt, int n)
  46:/mnt/c/Users/31740/Documents/codes/newcore-rp2350/lib/fdt/libfdt_internal.h **** {
  31              		.loc 2 46 1 view -0
  32              		.cfi_startproc
  33              		@ args = 0, pretend = 0, frame = 0
  34              		@ frame_needed = 0, uses_anonymous_args = 0
  35              		@ link register save eliminated.
  47:/mnt/c/Users/31740/Documents/codes/newcore-rp2350/lib/fdt/libfdt_internal.h **** 	const struct fdt_reserve_entry *rsv_table =
  36              		.loc 2 47 2 view .LVU1
  37              	.LBB263:
  38              	.LBI263:
  39              		.file 3 "/mnt/c/Users/31740/Documents/codes/newcore-rp2350/include/linux/libfdt.h"
   1:/mnt/c/Users/31740/Documents/codes/newcore-rp2350/include/linux/libfdt.h **** /* SPDX-License-Identifier: (GPL-2.0-or-later OR BSD-2-Clause) */
   2:/mnt/c/Users/31740/Documents/codes/newcore-rp2350/include/linux/libfdt.h **** #ifndef LIBFDT_H
   3:/mnt/c/Users/31740/Documents/codes/newcore-rp2350/include/linux/libfdt.h **** #define LIBFDT_H
   4:/mnt/c/Users/31740/Documents/codes/newcore-rp2350/include/linux/libfdt.h **** /*
   5:/mnt/c/Users/31740/Documents/codes/newcore-rp2350/include/linux/libfdt.h ****  * libfdt - Flat Device Tree manipulation
   6:/mnt/c/Users/31740/Documents/codes/newcore-rp2350/include/linux/libfdt.h ****  * Copyright (C) 2006 David Gibson, IBM Corporation.
   7:/mnt/c/Users/31740/Documents/codes/newcore-rp2350/include/linux/libfdt.h ****  */
   8:/mnt/c/Users/31740/Documents/codes/newcore-rp2350/include/linux/libfdt.h **** 
   9:/mnt/c/Users/31740/Documents/codes/newcore-rp2350/include/linux/libfdt.h **** #include <linux/libfdt_env.h>
  10:/mnt/c/Users/31740/Documents/codes/newcore-rp2350/include/linux/libfdt.h **** #include <linux/fdt.h>
  11:/mnt/c/Users/31740/Documents/codes/newcore-rp2350/include/linux/libfdt.h **** 
  12:/mnt/c/Users/31740/Documents/codes/newcore-rp2350/include/linux/libfdt.h **** #ifdef __cplusplus
  13:/mnt/c/Users/31740/Documents/codes/newcore-rp2350/include/linux/libfdt.h **** extern "C" {
  14:/mnt/c/Users/31740/Documents/codes/newcore-rp2350/include/linux/libfdt.h **** #endif
  15:/mnt/c/Users/31740/Documents/codes/newcore-rp2350/include/linux/libfdt.h **** 
  16:/mnt/c/Users/31740/Documents/codes/newcore-rp2350/include/linux/libfdt.h **** 
  17:/mnt/c/Users/31740/Documents/codes/newcore-rp2350/include/linux/libfdt.h **** extern const uint8_t __dtb_file_start_address[];
  18:/mnt/c/Users/31740/Documents/codes/newcore-rp2350/include/linux/libfdt.h **** extern const uint8_t __dtb_file_end_address[];
  19:/mnt/c/Users/31740/Documents/codes/newcore-rp2350/include/linux/libfdt.h **** 
  20:/mnt/c/Users/31740/Documents/codes/newcore-rp2350/include/linux/libfdt.h **** #define FDT_FIRST_SUPPORTED_VERSION	0x02
  21:/mnt/c/Users/31740/Documents/codes/newcore-rp2350/include/linux/libfdt.h **** #define FDT_LAST_COMPATIBLE_VERSION	0x10
  22:/mnt/c/Users/31740/Documents/codes/newcore-rp2350/include/linux/libfdt.h **** #define FDT_LAST_SUPPORTED_VERSION	0x11
  23:/mnt/c/Users/31740/Documents/codes/newcore-rp2350/include/linux/libfdt.h **** 
  24:/mnt/c/Users/31740/Documents/codes/newcore-rp2350/include/linux/libfdt.h **** /* Error codes: informative error codes */
  25:/mnt/c/Users/31740/Documents/codes/newcore-rp2350/include/linux/libfdt.h **** #define FDT_ERR_NOTFOUND	1
  26:/mnt/c/Users/31740/Documents/codes/newcore-rp2350/include/linux/libfdt.h **** 	/* FDT_ERR_NOTFOUND: The requested node or property does not exist */
  27:/mnt/c/Users/31740/Documents/codes/newcore-rp2350/include/linux/libfdt.h **** #define FDT_ERR_EXISTS		2
  28:/mnt/c/Users/31740/Documents/codes/newcore-rp2350/include/linux/libfdt.h **** 	/* FDT_ERR_EXISTS: Attempted to create a node or property which
  29:/mnt/c/Users/31740/Documents/codes/newcore-rp2350/include/linux/libfdt.h **** 	 * already exists */
ARM GAS  /tmp/ccyijaMA.s 			page 3


  30:/mnt/c/Users/31740/Documents/codes/newcore-rp2350/include/linux/libfdt.h **** #define FDT_ERR_NOSPACE		3
  31:/mnt/c/Users/31740/Documents/codes/newcore-rp2350/include/linux/libfdt.h **** 	/* FDT_ERR_NOSPACE: Operation needed to expand the device
  32:/mnt/c/Users/31740/Documents/codes/newcore-rp2350/include/linux/libfdt.h **** 	 * tree, but its buffer did not have sufficient space to
  33:/mnt/c/Users/31740/Documents/codes/newcore-rp2350/include/linux/libfdt.h **** 	 * contain the expanded tree. Use fdt_open_into() to move the
  34:/mnt/c/Users/31740/Documents/codes/newcore-rp2350/include/linux/libfdt.h **** 	 * device tree to a buffer with more space. */
  35:/mnt/c/Users/31740/Documents/codes/newcore-rp2350/include/linux/libfdt.h **** 
  36:/mnt/c/Users/31740/Documents/codes/newcore-rp2350/include/linux/libfdt.h **** /* Error codes: codes for bad parameters */
  37:/mnt/c/Users/31740/Documents/codes/newcore-rp2350/include/linux/libfdt.h **** #define FDT_ERR_BADOFFSET	4
  38:/mnt/c/Users/31740/Documents/codes/newcore-rp2350/include/linux/libfdt.h **** 	/* FDT_ERR_BADOFFSET: Function was passed a structure block
  39:/mnt/c/Users/31740/Documents/codes/newcore-rp2350/include/linux/libfdt.h **** 	 * offset which is out-of-bounds, or which points to an
  40:/mnt/c/Users/31740/Documents/codes/newcore-rp2350/include/linux/libfdt.h **** 	 * unsuitable part of the structure for the operation. */
  41:/mnt/c/Users/31740/Documents/codes/newcore-rp2350/include/linux/libfdt.h **** #define FDT_ERR_BADPATH		5
  42:/mnt/c/Users/31740/Documents/codes/newcore-rp2350/include/linux/libfdt.h **** 	/* FDT_ERR_BADPATH: Function was passed a badly formatted path
  43:/mnt/c/Users/31740/Documents/codes/newcore-rp2350/include/linux/libfdt.h **** 	 * (e.g. missing a leading / for a function which requires an
  44:/mnt/c/Users/31740/Documents/codes/newcore-rp2350/include/linux/libfdt.h **** 	 * absolute path) */
  45:/mnt/c/Users/31740/Documents/codes/newcore-rp2350/include/linux/libfdt.h **** #define FDT_ERR_BADPHANDLE	6
  46:/mnt/c/Users/31740/Documents/codes/newcore-rp2350/include/linux/libfdt.h **** 	/* FDT_ERR_BADPHANDLE: Function was passed an invalid phandle.
  47:/mnt/c/Users/31740/Documents/codes/newcore-rp2350/include/linux/libfdt.h **** 	 * This can be caused either by an invalid phandle property
  48:/mnt/c/Users/31740/Documents/codes/newcore-rp2350/include/linux/libfdt.h **** 	 * length, or the phandle value was either 0 or -1, which are
  49:/mnt/c/Users/31740/Documents/codes/newcore-rp2350/include/linux/libfdt.h **** 	 * not permitted. */
  50:/mnt/c/Users/31740/Documents/codes/newcore-rp2350/include/linux/libfdt.h **** #define FDT_ERR_BADSTATE	7
  51:/mnt/c/Users/31740/Documents/codes/newcore-rp2350/include/linux/libfdt.h **** 	/* FDT_ERR_BADSTATE: Function was passed an incomplete device
  52:/mnt/c/Users/31740/Documents/codes/newcore-rp2350/include/linux/libfdt.h **** 	 * tree created by the sequential-write functions, which is
  53:/mnt/c/Users/31740/Documents/codes/newcore-rp2350/include/linux/libfdt.h **** 	 * not sufficiently complete for the requested operation. */
  54:/mnt/c/Users/31740/Documents/codes/newcore-rp2350/include/linux/libfdt.h **** 
  55:/mnt/c/Users/31740/Documents/codes/newcore-rp2350/include/linux/libfdt.h **** /* Error codes: codes for bad device tree blobs */
  56:/mnt/c/Users/31740/Documents/codes/newcore-rp2350/include/linux/libfdt.h **** #define FDT_ERR_TRUNCATED	8
  57:/mnt/c/Users/31740/Documents/codes/newcore-rp2350/include/linux/libfdt.h **** 	/* FDT_ERR_TRUNCATED: FDT or a sub-block is improperly
  58:/mnt/c/Users/31740/Documents/codes/newcore-rp2350/include/linux/libfdt.h **** 	 * terminated (overflows, goes outside allowed bounds, or
  59:/mnt/c/Users/31740/Documents/codes/newcore-rp2350/include/linux/libfdt.h **** 	 * isn't properly terminated).  */
  60:/mnt/c/Users/31740/Documents/codes/newcore-rp2350/include/linux/libfdt.h **** #define FDT_ERR_BADMAGIC	9
  61:/mnt/c/Users/31740/Documents/codes/newcore-rp2350/include/linux/libfdt.h **** 	/* FDT_ERR_BADMAGIC: Given "device tree" appears not to be a
  62:/mnt/c/Users/31740/Documents/codes/newcore-rp2350/include/linux/libfdt.h **** 	 * device tree at all - it is missing the flattened device
  63:/mnt/c/Users/31740/Documents/codes/newcore-rp2350/include/linux/libfdt.h **** 	 * tree magic number. */
  64:/mnt/c/Users/31740/Documents/codes/newcore-rp2350/include/linux/libfdt.h **** #define FDT_ERR_BADVERSION	10
  65:/mnt/c/Users/31740/Documents/codes/newcore-rp2350/include/linux/libfdt.h **** 	/* FDT_ERR_BADVERSION: Given device tree has a version which
  66:/mnt/c/Users/31740/Documents/codes/newcore-rp2350/include/linux/libfdt.h **** 	 * can't be handled by the requested operation.  For
  67:/mnt/c/Users/31740/Documents/codes/newcore-rp2350/include/linux/libfdt.h **** 	 * read-write functions, this may mean that fdt_open_into() is
  68:/mnt/c/Users/31740/Documents/codes/newcore-rp2350/include/linux/libfdt.h **** 	 * required to convert the tree to the expected version. */
  69:/mnt/c/Users/31740/Documents/codes/newcore-rp2350/include/linux/libfdt.h **** #define FDT_ERR_BADSTRUCTURE	11
  70:/mnt/c/Users/31740/Documents/codes/newcore-rp2350/include/linux/libfdt.h **** 	/* FDT_ERR_BADSTRUCTURE: Given device tree has a corrupt
  71:/mnt/c/Users/31740/Documents/codes/newcore-rp2350/include/linux/libfdt.h **** 	 * structure block or other serious error (e.g. misnested
  72:/mnt/c/Users/31740/Documents/codes/newcore-rp2350/include/linux/libfdt.h **** 	 * nodes, or subnodes preceding properties). */
  73:/mnt/c/Users/31740/Documents/codes/newcore-rp2350/include/linux/libfdt.h **** #define FDT_ERR_BADLAYOUT	12
  74:/mnt/c/Users/31740/Documents/codes/newcore-rp2350/include/linux/libfdt.h **** 	/* FDT_ERR_BADLAYOUT: For read-write functions, the given
  75:/mnt/c/Users/31740/Documents/codes/newcore-rp2350/include/linux/libfdt.h **** 	 * device tree has it's sub-blocks in an order that the
  76:/mnt/c/Users/31740/Documents/codes/newcore-rp2350/include/linux/libfdt.h **** 	 * function can't handle (memory reserve map, then structure,
  77:/mnt/c/Users/31740/Documents/codes/newcore-rp2350/include/linux/libfdt.h **** 	 * then strings).  Use fdt_open_into() to reorganize the tree
  78:/mnt/c/Users/31740/Documents/codes/newcore-rp2350/include/linux/libfdt.h **** 	 * into a form suitable for the read-write operations. */
  79:/mnt/c/Users/31740/Documents/codes/newcore-rp2350/include/linux/libfdt.h **** 
  80:/mnt/c/Users/31740/Documents/codes/newcore-rp2350/include/linux/libfdt.h **** /* "Can't happen" error indicating a bug in libfdt */
  81:/mnt/c/Users/31740/Documents/codes/newcore-rp2350/include/linux/libfdt.h **** #define FDT_ERR_INTERNAL	13
  82:/mnt/c/Users/31740/Documents/codes/newcore-rp2350/include/linux/libfdt.h **** 	/* FDT_ERR_INTERNAL: libfdt has failed an internal assertion.
  83:/mnt/c/Users/31740/Documents/codes/newcore-rp2350/include/linux/libfdt.h **** 	 * Should never be returned, if it is, it indicates a bug in
  84:/mnt/c/Users/31740/Documents/codes/newcore-rp2350/include/linux/libfdt.h **** 	 * libfdt itself. */
  85:/mnt/c/Users/31740/Documents/codes/newcore-rp2350/include/linux/libfdt.h **** 
  86:/mnt/c/Users/31740/Documents/codes/newcore-rp2350/include/linux/libfdt.h **** /* Errors in device tree content */
ARM GAS  /tmp/ccyijaMA.s 			page 4


  87:/mnt/c/Users/31740/Documents/codes/newcore-rp2350/include/linux/libfdt.h **** #define FDT_ERR_BADNCELLS	14
  88:/mnt/c/Users/31740/Documents/codes/newcore-rp2350/include/linux/libfdt.h **** 	/* FDT_ERR_BADNCELLS: Device tree has a #address-cells, #size-cells
  89:/mnt/c/Users/31740/Documents/codes/newcore-rp2350/include/linux/libfdt.h **** 	 * or similar property with a bad format or value */
  90:/mnt/c/Users/31740/Documents/codes/newcore-rp2350/include/linux/libfdt.h **** 
  91:/mnt/c/Users/31740/Documents/codes/newcore-rp2350/include/linux/libfdt.h **** #define FDT_ERR_BADVALUE	15
  92:/mnt/c/Users/31740/Documents/codes/newcore-rp2350/include/linux/libfdt.h **** 	/* FDT_ERR_BADVALUE: Device tree has a property with an unexpected
  93:/mnt/c/Users/31740/Documents/codes/newcore-rp2350/include/linux/libfdt.h **** 	 * value. For example: a property expected to contain a string list
  94:/mnt/c/Users/31740/Documents/codes/newcore-rp2350/include/linux/libfdt.h **** 	 * is not NUL-terminated within the length of its value. */
  95:/mnt/c/Users/31740/Documents/codes/newcore-rp2350/include/linux/libfdt.h **** 
  96:/mnt/c/Users/31740/Documents/codes/newcore-rp2350/include/linux/libfdt.h **** #define FDT_ERR_BADOVERLAY	16
  97:/mnt/c/Users/31740/Documents/codes/newcore-rp2350/include/linux/libfdt.h **** 	/* FDT_ERR_BADOVERLAY: The device tree overlay, while
  98:/mnt/c/Users/31740/Documents/codes/newcore-rp2350/include/linux/libfdt.h **** 	 * correctly structured, cannot be applied due to some
  99:/mnt/c/Users/31740/Documents/codes/newcore-rp2350/include/linux/libfdt.h **** 	 * unexpected or missing value, property or node. */
 100:/mnt/c/Users/31740/Documents/codes/newcore-rp2350/include/linux/libfdt.h **** 
 101:/mnt/c/Users/31740/Documents/codes/newcore-rp2350/include/linux/libfdt.h **** #define FDT_ERR_NOPHANDLES	17
 102:/mnt/c/Users/31740/Documents/codes/newcore-rp2350/include/linux/libfdt.h **** 	/* FDT_ERR_NOPHANDLES: The device tree doesn't have any
 103:/mnt/c/Users/31740/Documents/codes/newcore-rp2350/include/linux/libfdt.h **** 	 * phandle available anymore without causing an overflow */
 104:/mnt/c/Users/31740/Documents/codes/newcore-rp2350/include/linux/libfdt.h **** 
 105:/mnt/c/Users/31740/Documents/codes/newcore-rp2350/include/linux/libfdt.h **** #define FDT_ERR_BADFLAGS	18
 106:/mnt/c/Users/31740/Documents/codes/newcore-rp2350/include/linux/libfdt.h **** 	/* FDT_ERR_BADFLAGS: The function was passed a flags field that
 107:/mnt/c/Users/31740/Documents/codes/newcore-rp2350/include/linux/libfdt.h **** 	 * contains invalid flags or an invalid combination of flags. */
 108:/mnt/c/Users/31740/Documents/codes/newcore-rp2350/include/linux/libfdt.h **** 
 109:/mnt/c/Users/31740/Documents/codes/newcore-rp2350/include/linux/libfdt.h **** #define FDT_ERR_ALIGNMENT	19
 110:/mnt/c/Users/31740/Documents/codes/newcore-rp2350/include/linux/libfdt.h **** 	/* FDT_ERR_ALIGNMENT: The device tree base address is not 8-byte
 111:/mnt/c/Users/31740/Documents/codes/newcore-rp2350/include/linux/libfdt.h **** 	 * aligned. */
 112:/mnt/c/Users/31740/Documents/codes/newcore-rp2350/include/linux/libfdt.h **** 
 113:/mnt/c/Users/31740/Documents/codes/newcore-rp2350/include/linux/libfdt.h **** #define FDT_ERR_MAX		19
 114:/mnt/c/Users/31740/Documents/codes/newcore-rp2350/include/linux/libfdt.h **** 
 115:/mnt/c/Users/31740/Documents/codes/newcore-rp2350/include/linux/libfdt.h **** /* constants */
 116:/mnt/c/Users/31740/Documents/codes/newcore-rp2350/include/linux/libfdt.h **** #define FDT_MAX_PHANDLE 0xfffffffe
 117:/mnt/c/Users/31740/Documents/codes/newcore-rp2350/include/linux/libfdt.h **** 	/* Valid values for phandles range from 1 to 2^32-2. */
 118:/mnt/c/Users/31740/Documents/codes/newcore-rp2350/include/linux/libfdt.h **** 
 119:/mnt/c/Users/31740/Documents/codes/newcore-rp2350/include/linux/libfdt.h **** /**********************************************************************/
 120:/mnt/c/Users/31740/Documents/codes/newcore-rp2350/include/linux/libfdt.h **** /* Low-level functions (you probably don't need these)                */
 121:/mnt/c/Users/31740/Documents/codes/newcore-rp2350/include/linux/libfdt.h **** /**********************************************************************/
 122:/mnt/c/Users/31740/Documents/codes/newcore-rp2350/include/linux/libfdt.h **** 
 123:/mnt/c/Users/31740/Documents/codes/newcore-rp2350/include/linux/libfdt.h **** #ifndef SWIG /* This function is not useful in Python */
 124:/mnt/c/Users/31740/Documents/codes/newcore-rp2350/include/linux/libfdt.h **** const void *fdt_offset_ptr(const void *fdt, int offset, unsigned int checklen);
 125:/mnt/c/Users/31740/Documents/codes/newcore-rp2350/include/linux/libfdt.h **** #endif
 126:/mnt/c/Users/31740/Documents/codes/newcore-rp2350/include/linux/libfdt.h **** static inline void *fdt_offset_ptr_w(void *fdt, int offset, int checklen)
 127:/mnt/c/Users/31740/Documents/codes/newcore-rp2350/include/linux/libfdt.h **** {
 128:/mnt/c/Users/31740/Documents/codes/newcore-rp2350/include/linux/libfdt.h **** 	return (void *)(uintptr_t)fdt_offset_ptr(fdt, offset, checklen);
 129:/mnt/c/Users/31740/Documents/codes/newcore-rp2350/include/linux/libfdt.h **** }
 130:/mnt/c/Users/31740/Documents/codes/newcore-rp2350/include/linux/libfdt.h **** 
 131:/mnt/c/Users/31740/Documents/codes/newcore-rp2350/include/linux/libfdt.h **** uint32_t fdt_next_tag(const void *fdt, int offset, int *nextoffset);
 132:/mnt/c/Users/31740/Documents/codes/newcore-rp2350/include/linux/libfdt.h **** 
 133:/mnt/c/Users/31740/Documents/codes/newcore-rp2350/include/linux/libfdt.h **** /*
 134:/mnt/c/Users/31740/Documents/codes/newcore-rp2350/include/linux/libfdt.h ****  * External helpers to access words from a device tree blob. They're built
 135:/mnt/c/Users/31740/Documents/codes/newcore-rp2350/include/linux/libfdt.h ****  * to work even with unaligned pointers on platforms (such as ARMv5) that don't
 136:/mnt/c/Users/31740/Documents/codes/newcore-rp2350/include/linux/libfdt.h ****  * like unaligned loads and stores.
 137:/mnt/c/Users/31740/Documents/codes/newcore-rp2350/include/linux/libfdt.h ****  */
 138:/mnt/c/Users/31740/Documents/codes/newcore-rp2350/include/linux/libfdt.h **** static inline uint16_t fdt16_ld(const fdt16_t *p)
 139:/mnt/c/Users/31740/Documents/codes/newcore-rp2350/include/linux/libfdt.h **** {
 140:/mnt/c/Users/31740/Documents/codes/newcore-rp2350/include/linux/libfdt.h **** 	const uint8_t *bp = (const uint8_t *)p;
 141:/mnt/c/Users/31740/Documents/codes/newcore-rp2350/include/linux/libfdt.h **** 
 142:/mnt/c/Users/31740/Documents/codes/newcore-rp2350/include/linux/libfdt.h **** 	return ((uint16_t)bp[0] << 8) | bp[1];
 143:/mnt/c/Users/31740/Documents/codes/newcore-rp2350/include/linux/libfdt.h **** }
ARM GAS  /tmp/ccyijaMA.s 			page 5


 144:/mnt/c/Users/31740/Documents/codes/newcore-rp2350/include/linux/libfdt.h **** 
 145:/mnt/c/Users/31740/Documents/codes/newcore-rp2350/include/linux/libfdt.h **** static inline uint32_t fdt32_ld(const fdt32_t *p)
  40              		.loc 3 145 24 view .LVU2
  41              	.LBB264:
 146:/mnt/c/Users/31740/Documents/codes/newcore-rp2350/include/linux/libfdt.h **** {
 147:/mnt/c/Users/31740/Documents/codes/newcore-rp2350/include/linux/libfdt.h **** 	const uint8_t *bp = (const uint8_t *)p;
  42              		.loc 3 147 2 view .LVU3
 148:/mnt/c/Users/31740/Documents/codes/newcore-rp2350/include/linux/libfdt.h **** 
 149:/mnt/c/Users/31740/Documents/codes/newcore-rp2350/include/linux/libfdt.h **** 	return ((uint32_t)bp[0] << 24)
  43              		.loc 3 149 2 view .LVU4
  44              		.loc 3 149 22 is_stmt 0 view .LVU5
  45 0000 027C     		ldrb	r2, [r0, #16]	@ zero_extendqisi2
 150:/mnt/c/Users/31740/Documents/codes/newcore-rp2350/include/linux/libfdt.h **** 		| ((uint32_t)bp[1] << 16)
  46              		.loc 3 150 18 view .LVU6
  47 0002 437C     		ldrb	r3, [r0, #17]	@ zero_extendqisi2
  48              		.loc 3 150 22 view .LVU7
  49 0004 1B04     		lsls	r3, r3, #16
  50              		.loc 3 150 3 view .LVU8
  51 0006 43EA0263 		orr	r3, r3, r2, lsl #24
 151:/mnt/c/Users/31740/Documents/codes/newcore-rp2350/include/linux/libfdt.h **** 		| ((uint32_t)bp[2] << 8)
  52              		.loc 3 151 18 view .LVU9
  53 000a 827C     		ldrb	r2, [r0, #18]	@ zero_extendqisi2
  54              		.loc 3 151 3 view .LVU10
  55 000c 43EA0223 		orr	r3, r3, r2, lsl #8
 152:/mnt/c/Users/31740/Documents/codes/newcore-rp2350/include/linux/libfdt.h **** 		| bp[3];
  56              		.loc 3 152 7 view .LVU11
  57 0010 C27C     		ldrb	r2, [r0, #19]	@ zero_extendqisi2
  58              		.loc 3 152 3 view .LVU12
  59 0012 1343     		orrs	r3, r3, r2
  60              	.LVL1:
  61              		.loc 3 152 3 view .LVU13
  62              	.LBE264:
  63              	.LBE263:
  48:/mnt/c/Users/31740/Documents/codes/newcore-rp2350/lib/fdt/libfdt_internal.h **** 		(const struct fdt_reserve_entry *)
  49:/mnt/c/Users/31740/Documents/codes/newcore-rp2350/lib/fdt/libfdt_internal.h **** 		((const char *)fdt + fdt_off_mem_rsvmap(fdt));
  50:/mnt/c/Users/31740/Documents/codes/newcore-rp2350/lib/fdt/libfdt_internal.h **** 
  51:/mnt/c/Users/31740/Documents/codes/newcore-rp2350/lib/fdt/libfdt_internal.h **** 	return rsv_table + n;
  64              		.loc 2 51 2 is_stmt 1 view .LVU14
  65              		.loc 2 51 19 is_stmt 0 view .LVU15
  66 0014 03EBC103 		add	r3, r3, r1, lsl #3
  67              	.LVL2:
  52:/mnt/c/Users/31740/Documents/codes/newcore-rp2350/lib/fdt/libfdt_internal.h **** }
  68              		.loc 2 52 1 view .LVU16
  69 0018 1844     		add	r0, r0, r3
  70              	.LVL3:
  71              		.loc 2 52 1 view .LVU17
  72 001a 7047     		bx	lr
  73              		.cfi_endproc
  74              	.LFE70:
  76              		.section	.text.fdt_blocks_misordered_,"ax",%progbits
  77              		.align	1
  78              		.syntax unified
  79              		.thumb
  80              		.thumb_func
  82              	fdt_blocks_misordered_:
  83              	.LVL4:
  84              	.LFB75:
ARM GAS  /tmp/ccyijaMA.s 			page 6


   1:/mnt/c/Users/31740/Documents/codes/newcore-rp2350/lib/fdt/fdt_rw.c **** // SPDX-License-Identifier: (GPL-2.0-or-later OR BSD-2-Clause)
   2:/mnt/c/Users/31740/Documents/codes/newcore-rp2350/lib/fdt/fdt_rw.c **** /*
   3:/mnt/c/Users/31740/Documents/codes/newcore-rp2350/lib/fdt/fdt_rw.c ****  * libfdt - Flat Device Tree manipulation
   4:/mnt/c/Users/31740/Documents/codes/newcore-rp2350/lib/fdt/fdt_rw.c ****  * Copyright (C) 2006 David Gibson, IBM Corporation.
   5:/mnt/c/Users/31740/Documents/codes/newcore-rp2350/lib/fdt/fdt_rw.c ****  */
   6:/mnt/c/Users/31740/Documents/codes/newcore-rp2350/lib/fdt/fdt_rw.c **** #include <linux/libfdt_env.h>
   7:/mnt/c/Users/31740/Documents/codes/newcore-rp2350/lib/fdt/fdt_rw.c **** 
   8:/mnt/c/Users/31740/Documents/codes/newcore-rp2350/lib/fdt/fdt_rw.c **** #include <linux/fdt.h>
   9:/mnt/c/Users/31740/Documents/codes/newcore-rp2350/lib/fdt/fdt_rw.c **** #include <linux/libfdt.h>
  10:/mnt/c/Users/31740/Documents/codes/newcore-rp2350/lib/fdt/fdt_rw.c **** 
  11:/mnt/c/Users/31740/Documents/codes/newcore-rp2350/lib/fdt/fdt_rw.c **** 
  12:/mnt/c/Users/31740/Documents/codes/newcore-rp2350/lib/fdt/fdt_rw.c **** #include "libfdt_internal.h"
  13:/mnt/c/Users/31740/Documents/codes/newcore-rp2350/lib/fdt/fdt_rw.c **** 
  14:/mnt/c/Users/31740/Documents/codes/newcore-rp2350/lib/fdt/fdt_rw.c **** static int fdt_blocks_misordered_(const void *fdt,
  15:/mnt/c/Users/31740/Documents/codes/newcore-rp2350/lib/fdt/fdt_rw.c **** 				  int mem_rsv_size, int struct_size)
  16:/mnt/c/Users/31740/Documents/codes/newcore-rp2350/lib/fdt/fdt_rw.c **** {
  85              		.loc 1 16 1 is_stmt 1 view -0
  86              		.cfi_startproc
  87              		@ args = 0, pretend = 0, frame = 0
  88              		@ frame_needed = 0, uses_anonymous_args = 0
  17:/mnt/c/Users/31740/Documents/codes/newcore-rp2350/lib/fdt/fdt_rw.c **** 	return (fdt_off_mem_rsvmap(fdt) < FDT_ALIGN(sizeof(struct fdt_header), 8))
  89              		.loc 1 17 2 view .LVU19
  90              	.LBB265:
  91              	.LBI265:
 145:/mnt/c/Users/31740/Documents/codes/newcore-rp2350/include/linux/libfdt.h **** {
  92              		.loc 3 145 24 view .LVU20
  93              	.LBB266:
 147:/mnt/c/Users/31740/Documents/codes/newcore-rp2350/include/linux/libfdt.h **** 
  94              		.loc 3 147 2 view .LVU21
 149:/mnt/c/Users/31740/Documents/codes/newcore-rp2350/include/linux/libfdt.h **** 		| ((uint32_t)bp[1] << 16)
  95              		.loc 3 149 2 view .LVU22
 149:/mnt/c/Users/31740/Documents/codes/newcore-rp2350/include/linux/libfdt.h **** 		| ((uint32_t)bp[1] << 16)
  96              		.loc 3 149 22 is_stmt 0 view .LVU23
  97 0000 90F810C0 		ldrb	ip, [r0, #16]	@ zero_extendqisi2
 150:/mnt/c/Users/31740/Documents/codes/newcore-rp2350/include/linux/libfdt.h **** 		| ((uint32_t)bp[2] << 8)
  98              		.loc 3 150 18 view .LVU24
  99 0004 437C     		ldrb	r3, [r0, #17]	@ zero_extendqisi2
 150:/mnt/c/Users/31740/Documents/codes/newcore-rp2350/include/linux/libfdt.h **** 		| ((uint32_t)bp[2] << 8)
 100              		.loc 3 150 22 view .LVU25
 101 0006 1B04     		lsls	r3, r3, #16
 150:/mnt/c/Users/31740/Documents/codes/newcore-rp2350/include/linux/libfdt.h **** 		| ((uint32_t)bp[2] << 8)
 102              		.loc 3 150 3 view .LVU26
 103 0008 43EA0C63 		orr	r3, r3, ip, lsl #24
 151:/mnt/c/Users/31740/Documents/codes/newcore-rp2350/include/linux/libfdt.h **** 		| bp[3];
 104              		.loc 3 151 18 view .LVU27
 105 000c 90F812C0 		ldrb	ip, [r0, #18]	@ zero_extendqisi2
 151:/mnt/c/Users/31740/Documents/codes/newcore-rp2350/include/linux/libfdt.h **** 		| bp[3];
 106              		.loc 3 151 3 view .LVU28
 107 0010 43EA0C23 		orr	r3, r3, ip, lsl #8
 108              		.loc 3 152 7 view .LVU29
 109 0014 90F813C0 		ldrb	ip, [r0, #19]	@ zero_extendqisi2
 110              		.loc 3 152 3 view .LVU30
 111 0018 43EA0C03 		orr	r3, r3, ip
 112              	.LVL5:
 113              		.loc 3 152 3 view .LVU31
 114              	.LBE266:
 115              	.LBE265:
ARM GAS  /tmp/ccyijaMA.s 			page 7


  18:/mnt/c/Users/31740/Documents/codes/newcore-rp2350/lib/fdt/fdt_rw.c **** 		|| (fdt_off_dt_struct(fdt) <
  19:/mnt/c/Users/31740/Documents/codes/newcore-rp2350/lib/fdt/fdt_rw.c **** 		    (fdt_off_mem_rsvmap(fdt) + mem_rsv_size))
  20:/mnt/c/Users/31740/Documents/codes/newcore-rp2350/lib/fdt/fdt_rw.c **** 		|| (fdt_off_dt_strings(fdt) <
  21:/mnt/c/Users/31740/Documents/codes/newcore-rp2350/lib/fdt/fdt_rw.c **** 		    (fdt_off_dt_struct(fdt) + struct_size))
  22:/mnt/c/Users/31740/Documents/codes/newcore-rp2350/lib/fdt/fdt_rw.c **** 		|| (fdt_totalsize(fdt) <
 116              		.loc 1 22 3 view .LVU32
 117 001c 272B     		cmp	r3, #39
 118 001e 3DD9     		bls	.L4
  16:/mnt/c/Users/31740/Documents/codes/newcore-rp2350/lib/fdt/fdt_rw.c **** 	return (fdt_off_mem_rsvmap(fdt) < FDT_ALIGN(sizeof(struct fdt_header), 8))
 119              		.loc 1 16 1 view .LVU33
 120 0020 00B5     		push	{lr}
 121              	.LCFI0:
 122              		.cfi_def_cfa_offset 4
 123              		.cfi_offset 14, -4
 124              	.LVL6:
 125              	.LBB267:
 126              	.LBI267:
 145:/mnt/c/Users/31740/Documents/codes/newcore-rp2350/include/linux/libfdt.h **** {
 127              		.loc 3 145 24 is_stmt 1 view .LVU34
 128              	.LBB268:
 147:/mnt/c/Users/31740/Documents/codes/newcore-rp2350/include/linux/libfdt.h **** 
 129              		.loc 3 147 2 view .LVU35
 149:/mnt/c/Users/31740/Documents/codes/newcore-rp2350/include/linux/libfdt.h **** 		| ((uint32_t)bp[1] << 16)
 130              		.loc 3 149 2 view .LVU36
 149:/mnt/c/Users/31740/Documents/codes/newcore-rp2350/include/linux/libfdt.h **** 		| ((uint32_t)bp[1] << 16)
 131              		.loc 3 149 22 is_stmt 0 view .LVU37
 132 0022 90F808E0 		ldrb	lr, [r0, #8]	@ zero_extendqisi2
 150:/mnt/c/Users/31740/Documents/codes/newcore-rp2350/include/linux/libfdt.h **** 		| ((uint32_t)bp[2] << 8)
 133              		.loc 3 150 18 view .LVU38
 134 0026 90F809C0 		ldrb	ip, [r0, #9]	@ zero_extendqisi2
 150:/mnt/c/Users/31740/Documents/codes/newcore-rp2350/include/linux/libfdt.h **** 		| ((uint32_t)bp[2] << 8)
 135              		.loc 3 150 22 view .LVU39
 136 002a 4FEA0C4C 		lsl	ip, ip, #16
 150:/mnt/c/Users/31740/Documents/codes/newcore-rp2350/include/linux/libfdt.h **** 		| ((uint32_t)bp[2] << 8)
 137              		.loc 3 150 3 view .LVU40
 138 002e 4CEA0E6C 		orr	ip, ip, lr, lsl #24
 151:/mnt/c/Users/31740/Documents/codes/newcore-rp2350/include/linux/libfdt.h **** 		| bp[3];
 139              		.loc 3 151 18 view .LVU41
 140 0032 90F80AE0 		ldrb	lr, [r0, #10]	@ zero_extendqisi2
 151:/mnt/c/Users/31740/Documents/codes/newcore-rp2350/include/linux/libfdt.h **** 		| bp[3];
 141              		.loc 3 151 3 view .LVU42
 142 0036 4CEA0E2C 		orr	ip, ip, lr, lsl #8
 143              		.loc 3 152 7 view .LVU43
 144 003a 90F80BE0 		ldrb	lr, [r0, #11]	@ zero_extendqisi2
 145              		.loc 3 152 3 view .LVU44
 146 003e 4CEA0E0C 		orr	ip, ip, lr
 147              	.LVL7:
 148              		.loc 3 152 3 view .LVU45
 149              	.LBE268:
 150              	.LBE267:
  19:/mnt/c/Users/31740/Documents/codes/newcore-rp2350/lib/fdt/fdt_rw.c **** 		|| (fdt_off_dt_strings(fdt) <
 151              		.loc 1 19 32 discriminator 1 view .LVU46
 152 0042 1944     		add	r1, r1, r3
 153              	.LVL8:
  18:/mnt/c/Users/31740/Documents/codes/newcore-rp2350/lib/fdt/fdt_rw.c **** 		    (fdt_off_mem_rsvmap(fdt) + mem_rsv_size))
 154              		.loc 1 18 3 view .LVU47
 155 0044 6145     		cmp	r1, ip
ARM GAS  /tmp/ccyijaMA.s 			page 8


 156 0046 2BD8     		bhi	.L5
 157              	.LVL9:
 158              	.LBB269:
 159              	.LBI269:
 145:/mnt/c/Users/31740/Documents/codes/newcore-rp2350/include/linux/libfdt.h **** {
 160              		.loc 3 145 24 is_stmt 1 view .LVU48
 161              	.LBB270:
 147:/mnt/c/Users/31740/Documents/codes/newcore-rp2350/include/linux/libfdt.h **** 
 162              		.loc 3 147 2 view .LVU49
 149:/mnt/c/Users/31740/Documents/codes/newcore-rp2350/include/linux/libfdt.h **** 		| ((uint32_t)bp[1] << 16)
 163              		.loc 3 149 2 view .LVU50
 149:/mnt/c/Users/31740/Documents/codes/newcore-rp2350/include/linux/libfdt.h **** 		| ((uint32_t)bp[1] << 16)
 164              		.loc 3 149 22 is_stmt 0 view .LVU51
 165 0048 017B     		ldrb	r1, [r0, #12]	@ zero_extendqisi2
 150:/mnt/c/Users/31740/Documents/codes/newcore-rp2350/include/linux/libfdt.h **** 		| ((uint32_t)bp[2] << 8)
 166              		.loc 3 150 18 view .LVU52
 167 004a 437B     		ldrb	r3, [r0, #13]	@ zero_extendqisi2
 150:/mnt/c/Users/31740/Documents/codes/newcore-rp2350/include/linux/libfdt.h **** 		| ((uint32_t)bp[2] << 8)
 168              		.loc 3 150 22 view .LVU53
 169 004c 1B04     		lsls	r3, r3, #16
 150:/mnt/c/Users/31740/Documents/codes/newcore-rp2350/include/linux/libfdt.h **** 		| ((uint32_t)bp[2] << 8)
 170              		.loc 3 150 3 view .LVU54
 171 004e 43EA0163 		orr	r3, r3, r1, lsl #24
 151:/mnt/c/Users/31740/Documents/codes/newcore-rp2350/include/linux/libfdt.h **** 		| bp[3];
 172              		.loc 3 151 18 view .LVU55
 173 0052 817B     		ldrb	r1, [r0, #14]	@ zero_extendqisi2
 151:/mnt/c/Users/31740/Documents/codes/newcore-rp2350/include/linux/libfdt.h **** 		| bp[3];
 174              		.loc 3 151 3 view .LVU56
 175 0054 43EA0123 		orr	r3, r3, r1, lsl #8
 176              		.loc 3 152 7 view .LVU57
 177 0058 C17B     		ldrb	r1, [r0, #15]	@ zero_extendqisi2
 178              		.loc 3 152 3 view .LVU58
 179 005a 0B43     		orrs	r3, r3, r1
 180              	.LVL10:
 181              		.loc 3 152 3 view .LVU59
 182              	.LBE270:
 183              	.LBE269:
  21:/mnt/c/Users/31740/Documents/codes/newcore-rp2350/lib/fdt/fdt_rw.c **** 		|| (fdt_totalsize(fdt) <
 184              		.loc 1 21 31 discriminator 1 view .LVU60
 185 005c 6244     		add	r2, r2, ip
 186              	.LVL11:
  20:/mnt/c/Users/31740/Documents/codes/newcore-rp2350/lib/fdt/fdt_rw.c **** 		    (fdt_off_dt_struct(fdt) + struct_size))
 187              		.loc 1 20 3 view .LVU61
 188 005e 9A42     		cmp	r2, r3
 189 0060 21D8     		bhi	.L6
 190              	.LVL12:
 191              	.LBB271:
 192              	.LBI271:
 145:/mnt/c/Users/31740/Documents/codes/newcore-rp2350/include/linux/libfdt.h **** {
 193              		.loc 3 145 24 is_stmt 1 view .LVU62
 194              	.LBB272:
 147:/mnt/c/Users/31740/Documents/codes/newcore-rp2350/include/linux/libfdt.h **** 
 195              		.loc 3 147 2 view .LVU63
 149:/mnt/c/Users/31740/Documents/codes/newcore-rp2350/include/linux/libfdt.h **** 		| ((uint32_t)bp[1] << 16)
 196              		.loc 3 149 2 view .LVU64
 149:/mnt/c/Users/31740/Documents/codes/newcore-rp2350/include/linux/libfdt.h **** 		| ((uint32_t)bp[1] << 16)
 197              		.loc 3 149 22 is_stmt 0 view .LVU65
ARM GAS  /tmp/ccyijaMA.s 			page 9


 198 0062 0179     		ldrb	r1, [r0, #4]	@ zero_extendqisi2
 150:/mnt/c/Users/31740/Documents/codes/newcore-rp2350/include/linux/libfdt.h **** 		| ((uint32_t)bp[2] << 8)
 199              		.loc 3 150 18 view .LVU66
 200 0064 4279     		ldrb	r2, [r0, #5]	@ zero_extendqisi2
 150:/mnt/c/Users/31740/Documents/codes/newcore-rp2350/include/linux/libfdt.h **** 		| ((uint32_t)bp[2] << 8)
 201              		.loc 3 150 22 view .LVU67
 202 0066 1204     		lsls	r2, r2, #16
 150:/mnt/c/Users/31740/Documents/codes/newcore-rp2350/include/linux/libfdt.h **** 		| ((uint32_t)bp[2] << 8)
 203              		.loc 3 150 3 view .LVU68
 204 0068 42EA0162 		orr	r2, r2, r1, lsl #24
 151:/mnt/c/Users/31740/Documents/codes/newcore-rp2350/include/linux/libfdt.h **** 		| bp[3];
 205              		.loc 3 151 18 view .LVU69
 206 006c 8179     		ldrb	r1, [r0, #6]	@ zero_extendqisi2
 151:/mnt/c/Users/31740/Documents/codes/newcore-rp2350/include/linux/libfdt.h **** 		| bp[3];
 207              		.loc 3 151 3 view .LVU70
 208 006e 42EA0122 		orr	r2, r2, r1, lsl #8
 209              		.loc 3 152 7 view .LVU71
 210 0072 C179     		ldrb	r1, [r0, #7]	@ zero_extendqisi2
 211              		.loc 3 152 3 view .LVU72
 212 0074 0A43     		orrs	r2, r2, r1
 213              	.LVL13:
 214              		.loc 3 152 3 view .LVU73
 215              	.LBE272:
 216              	.LBE271:
 217              	.LBB273:
 218              	.LBI273:
 145:/mnt/c/Users/31740/Documents/codes/newcore-rp2350/include/linux/libfdt.h **** {
 219              		.loc 3 145 24 is_stmt 1 view .LVU74
 220              	.LBB274:
 147:/mnt/c/Users/31740/Documents/codes/newcore-rp2350/include/linux/libfdt.h **** 
 221              		.loc 3 147 2 view .LVU75
 149:/mnt/c/Users/31740/Documents/codes/newcore-rp2350/include/linux/libfdt.h **** 		| ((uint32_t)bp[1] << 16)
 222              		.loc 3 149 2 view .LVU76
 149:/mnt/c/Users/31740/Documents/codes/newcore-rp2350/include/linux/libfdt.h **** 		| ((uint32_t)bp[1] << 16)
 223              		.loc 3 149 22 is_stmt 0 view .LVU77
 224 0076 90F820C0 		ldrb	ip, [r0, #32]	@ zero_extendqisi2
 150:/mnt/c/Users/31740/Documents/codes/newcore-rp2350/include/linux/libfdt.h **** 		| ((uint32_t)bp[2] << 8)
 225              		.loc 3 150 18 view .LVU78
 226 007a 90F82110 		ldrb	r1, [r0, #33]	@ zero_extendqisi2
 150:/mnt/c/Users/31740/Documents/codes/newcore-rp2350/include/linux/libfdt.h **** 		| ((uint32_t)bp[2] << 8)
 227              		.loc 3 150 22 view .LVU79
 228 007e 0904     		lsls	r1, r1, #16
 150:/mnt/c/Users/31740/Documents/codes/newcore-rp2350/include/linux/libfdt.h **** 		| ((uint32_t)bp[2] << 8)
 229              		.loc 3 150 3 view .LVU80
 230 0080 41EA0C61 		orr	r1, r1, ip, lsl #24
 151:/mnt/c/Users/31740/Documents/codes/newcore-rp2350/include/linux/libfdt.h **** 		| bp[3];
 231              		.loc 3 151 18 view .LVU81
 232 0084 90F822C0 		ldrb	ip, [r0, #34]	@ zero_extendqisi2
 151:/mnt/c/Users/31740/Documents/codes/newcore-rp2350/include/linux/libfdt.h **** 		| bp[3];
 233              		.loc 3 151 3 view .LVU82
 234 0088 41EA0C21 		orr	r1, r1, ip, lsl #8
 235              		.loc 3 152 7 view .LVU83
 236 008c 90F82300 		ldrb	r0, [r0, #35]	@ zero_extendqisi2
 237              	.LVL14:
 238              		.loc 3 152 3 view .LVU84
 239 0090 0143     		orrs	r1, r1, r0
 240              	.LVL15:
ARM GAS  /tmp/ccyijaMA.s 			page 10


 241              		.loc 3 152 3 view .LVU85
 242              	.LBE274:
 243              	.LBE273:
  23:/mnt/c/Users/31740/Documents/codes/newcore-rp2350/lib/fdt/fdt_rw.c **** 		    (fdt_off_dt_strings(fdt) + fdt_size_dt_strings(fdt)));
 244              		.loc 1 23 32 discriminator 2 view .LVU86
 245 0092 0B44     		add	r3, r3, r1
  22:/mnt/c/Users/31740/Documents/codes/newcore-rp2350/lib/fdt/fdt_rw.c **** 		    (fdt_off_dt_strings(fdt) + fdt_size_dt_strings(fdt)));
 246              		.loc 1 22 3 discriminator 2 view .LVU87
 247 0094 9342     		cmp	r3, r2
 248 0096 08D8     		bhi	.L7
  22:/mnt/c/Users/31740/Documents/codes/newcore-rp2350/lib/fdt/fdt_rw.c **** 		    (fdt_off_dt_strings(fdt) + fdt_size_dt_strings(fdt)));
 249              		.loc 1 22 3 discriminator 3 view .LVU88
 250 0098 0020     		movs	r0, #0
 251 009a 02E0     		b	.L2
 252              	.LVL16:
 253              	.L4:
 254              	.LCFI1:
 255              		.cfi_def_cfa_offset 0
 256              		.cfi_restore 14
  22:/mnt/c/Users/31740/Documents/codes/newcore-rp2350/lib/fdt/fdt_rw.c **** 		    (fdt_off_dt_strings(fdt) + fdt_size_dt_strings(fdt)));
 257              		.loc 1 22 3 discriminator 1 view .LVU89
 258 009c 0120     		movs	r0, #1
 259              	.LVL17:
  24:/mnt/c/Users/31740/Documents/codes/newcore-rp2350/lib/fdt/fdt_rw.c **** }
 260              		.loc 1 24 1 view .LVU90
 261 009e 7047     		bx	lr
 262              	.LVL18:
 263              	.L5:
 264              	.LCFI2:
 265              		.cfi_def_cfa_offset 4
 266              		.cfi_offset 14, -4
  22:/mnt/c/Users/31740/Documents/codes/newcore-rp2350/lib/fdt/fdt_rw.c **** 		    (fdt_off_dt_strings(fdt) + fdt_size_dt_strings(fdt)));
 267              		.loc 1 22 3 discriminator 1 view .LVU91
 268 00a0 0120     		movs	r0, #1
 269              	.LVL19:
 270              	.L2:
 271              		.loc 1 24 1 view .LVU92
 272 00a2 5DF804FB 		ldr	pc, [sp], #4
 273              	.LVL20:
 274              	.L6:
  22:/mnt/c/Users/31740/Documents/codes/newcore-rp2350/lib/fdt/fdt_rw.c **** 		    (fdt_off_dt_strings(fdt) + fdt_size_dt_strings(fdt)));
 275              		.loc 1 22 3 discriminator 1 view .LVU93
 276 00a6 0120     		movs	r0, #1
 277              	.LVL21:
  22:/mnt/c/Users/31740/Documents/codes/newcore-rp2350/lib/fdt/fdt_rw.c **** 		    (fdt_off_dt_strings(fdt) + fdt_size_dt_strings(fdt)));
 278              		.loc 1 22 3 discriminator 1 view .LVU94
 279 00a8 FBE7     		b	.L2
 280              	.LVL22:
 281              	.L7:
  22:/mnt/c/Users/31740/Documents/codes/newcore-rp2350/lib/fdt/fdt_rw.c **** 		    (fdt_off_dt_strings(fdt) + fdt_size_dt_strings(fdt)));
 282              		.loc 1 22 3 discriminator 1 view .LVU95
 283 00aa 0120     		movs	r0, #1
  22:/mnt/c/Users/31740/Documents/codes/newcore-rp2350/lib/fdt/fdt_rw.c **** 		    (fdt_off_dt_strings(fdt) + fdt_size_dt_strings(fdt)));
 284              		.loc 1 22 3 view .LVU96
 285 00ac F9E7     		b	.L2
 286              		.cfi_endproc
 287              	.LFE75:
ARM GAS  /tmp/ccyijaMA.s 			page 11


 289              		.section	.text.fdt_data_size_,"ax",%progbits
 290              		.align	1
 291              		.syntax unified
 292              		.thumb
 293              		.thumb_func
 295              	fdt_data_size_:
 296              	.LVL23:
 297              	.LFB77:
  25:/mnt/c/Users/31740/Documents/codes/newcore-rp2350/lib/fdt/fdt_rw.c **** 
  26:/mnt/c/Users/31740/Documents/codes/newcore-rp2350/lib/fdt/fdt_rw.c **** static int fdt_rw_probe_(void *fdt)
  27:/mnt/c/Users/31740/Documents/codes/newcore-rp2350/lib/fdt/fdt_rw.c **** {
  28:/mnt/c/Users/31740/Documents/codes/newcore-rp2350/lib/fdt/fdt_rw.c **** 	if (can_assume(VALID_DTB))
  29:/mnt/c/Users/31740/Documents/codes/newcore-rp2350/lib/fdt/fdt_rw.c **** 		return 0;
  30:/mnt/c/Users/31740/Documents/codes/newcore-rp2350/lib/fdt/fdt_rw.c **** 	FDT_RO_PROBE(fdt);
  31:/mnt/c/Users/31740/Documents/codes/newcore-rp2350/lib/fdt/fdt_rw.c **** 
  32:/mnt/c/Users/31740/Documents/codes/newcore-rp2350/lib/fdt/fdt_rw.c **** 	if (!can_assume(LATEST) && fdt_version(fdt) < 17)
  33:/mnt/c/Users/31740/Documents/codes/newcore-rp2350/lib/fdt/fdt_rw.c **** 		return -FDT_ERR_BADVERSION;
  34:/mnt/c/Users/31740/Documents/codes/newcore-rp2350/lib/fdt/fdt_rw.c **** 	if (fdt_blocks_misordered_(fdt, sizeof(struct fdt_reserve_entry),
  35:/mnt/c/Users/31740/Documents/codes/newcore-rp2350/lib/fdt/fdt_rw.c **** 				   fdt_size_dt_struct(fdt)))
  36:/mnt/c/Users/31740/Documents/codes/newcore-rp2350/lib/fdt/fdt_rw.c **** 		return -FDT_ERR_BADLAYOUT;
  37:/mnt/c/Users/31740/Documents/codes/newcore-rp2350/lib/fdt/fdt_rw.c **** 	if (!can_assume(LATEST) && fdt_version(fdt) > 17)
  38:/mnt/c/Users/31740/Documents/codes/newcore-rp2350/lib/fdt/fdt_rw.c **** 		fdt_set_version(fdt, 17);
  39:/mnt/c/Users/31740/Documents/codes/newcore-rp2350/lib/fdt/fdt_rw.c **** 
  40:/mnt/c/Users/31740/Documents/codes/newcore-rp2350/lib/fdt/fdt_rw.c **** 	return 0;
  41:/mnt/c/Users/31740/Documents/codes/newcore-rp2350/lib/fdt/fdt_rw.c **** }
  42:/mnt/c/Users/31740/Documents/codes/newcore-rp2350/lib/fdt/fdt_rw.c **** 
  43:/mnt/c/Users/31740/Documents/codes/newcore-rp2350/lib/fdt/fdt_rw.c **** #define FDT_RW_PROBE(fdt) \
  44:/mnt/c/Users/31740/Documents/codes/newcore-rp2350/lib/fdt/fdt_rw.c **** 	{ \
  45:/mnt/c/Users/31740/Documents/codes/newcore-rp2350/lib/fdt/fdt_rw.c **** 		int err_; \
  46:/mnt/c/Users/31740/Documents/codes/newcore-rp2350/lib/fdt/fdt_rw.c **** 		if ((err_ = fdt_rw_probe_(fdt)) != 0) \
  47:/mnt/c/Users/31740/Documents/codes/newcore-rp2350/lib/fdt/fdt_rw.c **** 			return err_; \
  48:/mnt/c/Users/31740/Documents/codes/newcore-rp2350/lib/fdt/fdt_rw.c **** 	}
  49:/mnt/c/Users/31740/Documents/codes/newcore-rp2350/lib/fdt/fdt_rw.c **** 
  50:/mnt/c/Users/31740/Documents/codes/newcore-rp2350/lib/fdt/fdt_rw.c **** static inline unsigned int fdt_data_size_(void *fdt)
  51:/mnt/c/Users/31740/Documents/codes/newcore-rp2350/lib/fdt/fdt_rw.c **** {
 298              		.loc 1 51 1 is_stmt 1 view -0
 299              		.cfi_startproc
 300              		@ args = 0, pretend = 0, frame = 0
 301              		@ frame_needed = 0, uses_anonymous_args = 0
 302              		@ link register save eliminated.
  52:/mnt/c/Users/31740/Documents/codes/newcore-rp2350/lib/fdt/fdt_rw.c **** 	return fdt_off_dt_strings(fdt) + fdt_size_dt_strings(fdt);
 303              		.loc 1 52 2 view .LVU98
 304              	.LBB275:
 305              	.LBI275:
 145:/mnt/c/Users/31740/Documents/codes/newcore-rp2350/include/linux/libfdt.h **** {
 306              		.loc 3 145 24 view .LVU99
 307              	.LBB276:
 147:/mnt/c/Users/31740/Documents/codes/newcore-rp2350/include/linux/libfdt.h **** 
 308              		.loc 3 147 2 view .LVU100
 149:/mnt/c/Users/31740/Documents/codes/newcore-rp2350/include/linux/libfdt.h **** 		| ((uint32_t)bp[1] << 16)
 309              		.loc 3 149 2 view .LVU101
 149:/mnt/c/Users/31740/Documents/codes/newcore-rp2350/include/linux/libfdt.h **** 		| ((uint32_t)bp[1] << 16)
 310              		.loc 3 149 22 is_stmt 0 view .LVU102
 311 0000 027B     		ldrb	r2, [r0, #12]	@ zero_extendqisi2
 150:/mnt/c/Users/31740/Documents/codes/newcore-rp2350/include/linux/libfdt.h **** 		| ((uint32_t)bp[2] << 8)
 312              		.loc 3 150 18 view .LVU103
 313 0002 437B     		ldrb	r3, [r0, #13]	@ zero_extendqisi2
ARM GAS  /tmp/ccyijaMA.s 			page 12


 150:/mnt/c/Users/31740/Documents/codes/newcore-rp2350/include/linux/libfdt.h **** 		| ((uint32_t)bp[2] << 8)
 314              		.loc 3 150 22 view .LVU104
 315 0004 1B04     		lsls	r3, r3, #16
 150:/mnt/c/Users/31740/Documents/codes/newcore-rp2350/include/linux/libfdt.h **** 		| ((uint32_t)bp[2] << 8)
 316              		.loc 3 150 3 view .LVU105
 317 0006 43EA0263 		orr	r3, r3, r2, lsl #24
 151:/mnt/c/Users/31740/Documents/codes/newcore-rp2350/include/linux/libfdt.h **** 		| bp[3];
 318              		.loc 3 151 18 view .LVU106
 319 000a 827B     		ldrb	r2, [r0, #14]	@ zero_extendqisi2
 151:/mnt/c/Users/31740/Documents/codes/newcore-rp2350/include/linux/libfdt.h **** 		| bp[3];
 320              		.loc 3 151 3 view .LVU107
 321 000c 43EA0223 		orr	r3, r3, r2, lsl #8
 322              		.loc 3 152 7 view .LVU108
 323 0010 C27B     		ldrb	r2, [r0, #15]	@ zero_extendqisi2
 324              		.loc 3 152 3 view .LVU109
 325 0012 1343     		orrs	r3, r3, r2
 326              	.LVL24:
 327              		.loc 3 152 3 view .LVU110
 328              	.LBE276:
 329              	.LBE275:
 330              	.LBB277:
 331              	.LBI277:
 145:/mnt/c/Users/31740/Documents/codes/newcore-rp2350/include/linux/libfdt.h **** {
 332              		.loc 3 145 24 is_stmt 1 view .LVU111
 333              	.LBB278:
 147:/mnt/c/Users/31740/Documents/codes/newcore-rp2350/include/linux/libfdt.h **** 
 334              		.loc 3 147 2 view .LVU112
 149:/mnt/c/Users/31740/Documents/codes/newcore-rp2350/include/linux/libfdt.h **** 		| ((uint32_t)bp[1] << 16)
 335              		.loc 3 149 2 view .LVU113
 149:/mnt/c/Users/31740/Documents/codes/newcore-rp2350/include/linux/libfdt.h **** 		| ((uint32_t)bp[1] << 16)
 336              		.loc 3 149 22 is_stmt 0 view .LVU114
 337 0014 90F82010 		ldrb	r1, [r0, #32]	@ zero_extendqisi2
 150:/mnt/c/Users/31740/Documents/codes/newcore-rp2350/include/linux/libfdt.h **** 		| ((uint32_t)bp[2] << 8)
 338              		.loc 3 150 18 view .LVU115
 339 0018 90F82120 		ldrb	r2, [r0, #33]	@ zero_extendqisi2
 150:/mnt/c/Users/31740/Documents/codes/newcore-rp2350/include/linux/libfdt.h **** 		| ((uint32_t)bp[2] << 8)
 340              		.loc 3 150 22 view .LVU116
 341 001c 1204     		lsls	r2, r2, #16
 150:/mnt/c/Users/31740/Documents/codes/newcore-rp2350/include/linux/libfdt.h **** 		| ((uint32_t)bp[2] << 8)
 342              		.loc 3 150 3 view .LVU117
 343 001e 42EA0162 		orr	r2, r2, r1, lsl #24
 151:/mnt/c/Users/31740/Documents/codes/newcore-rp2350/include/linux/libfdt.h **** 		| bp[3];
 344              		.loc 3 151 18 view .LVU118
 345 0022 90F82210 		ldrb	r1, [r0, #34]	@ zero_extendqisi2
 151:/mnt/c/Users/31740/Documents/codes/newcore-rp2350/include/linux/libfdt.h **** 		| bp[3];
 346              		.loc 3 151 3 view .LVU119
 347 0026 42EA0122 		orr	r2, r2, r1, lsl #8
 348              		.loc 3 152 7 view .LVU120
 349 002a 90F82310 		ldrb	r1, [r0, #35]	@ zero_extendqisi2
 350              		.loc 3 152 3 view .LVU121
 351 002e 42EA0100 		orr	r0, r2, r1
 352              	.LVL25:
 353              		.loc 3 152 3 view .LVU122
 354              	.LBE278:
 355              	.LBE277:
  53:/mnt/c/Users/31740/Documents/codes/newcore-rp2350/lib/fdt/fdt_rw.c **** }
 356              		.loc 1 53 1 view .LVU123
ARM GAS  /tmp/ccyijaMA.s 			page 13


 357 0032 1844     		add	r0, r0, r3
 358 0034 7047     		bx	lr
 359              		.cfi_endproc
 360              	.LFE77:
 362              		.section	.text.fdt_rw_probe_,"ax",%progbits
 363              		.align	1
 364              		.syntax unified
 365              		.thumb
 366              		.thumb_func
 368              	fdt_rw_probe_:
 369              	.LVL26:
 370              	.LFB76:
  27:/mnt/c/Users/31740/Documents/codes/newcore-rp2350/lib/fdt/fdt_rw.c **** 	if (can_assume(VALID_DTB))
 371              		.loc 1 27 1 is_stmt 1 view -0
 372              		.cfi_startproc
 373              		@ args = 0, pretend = 0, frame = 0
 374              		@ frame_needed = 0, uses_anonymous_args = 0
  27:/mnt/c/Users/31740/Documents/codes/newcore-rp2350/lib/fdt/fdt_rw.c **** 	if (can_assume(VALID_DTB))
 375              		.loc 1 27 1 is_stmt 0 view .LVU125
 376 0000 38B5     		push	{r3, r4, r5, lr}
 377              	.LCFI3:
 378              		.cfi_def_cfa_offset 16
 379              		.cfi_offset 3, -16
 380              		.cfi_offset 4, -12
 381              		.cfi_offset 5, -8
 382              		.cfi_offset 14, -4
 383 0002 0446     		mov	r4, r0
  28:/mnt/c/Users/31740/Documents/codes/newcore-rp2350/lib/fdt/fdt_rw.c **** 		return 0;
 384              		.loc 1 28 2 is_stmt 1 view .LVU126
 385              	.LBB279:
  30:/mnt/c/Users/31740/Documents/codes/newcore-rp2350/lib/fdt/fdt_rw.c **** 
 386              		.loc 1 30 2 view .LVU127
  30:/mnt/c/Users/31740/Documents/codes/newcore-rp2350/lib/fdt/fdt_rw.c **** 
 387              		.loc 1 30 2 view .LVU128
 388 0004 FFF7FEFF 		bl	fdt_ro_probe_
 389              	.LVL27:
  30:/mnt/c/Users/31740/Documents/codes/newcore-rp2350/lib/fdt/fdt_rw.c **** 
 390              		.loc 1 30 2 is_stmt 0 discriminator 1 view .LVU129
 391 0008 0028     		cmp	r0, #0
  30:/mnt/c/Users/31740/Documents/codes/newcore-rp2350/lib/fdt/fdt_rw.c **** 
 392              		.loc 1 30 2 discriminator 1 view .LVU130
 393 000a 23DB     		blt	.L13
 394              	.LBE279:
  30:/mnt/c/Users/31740/Documents/codes/newcore-rp2350/lib/fdt/fdt_rw.c **** 
 395              		.loc 1 30 19 is_stmt 1 discriminator 2 view .LVU131
  32:/mnt/c/Users/31740/Documents/codes/newcore-rp2350/lib/fdt/fdt_rw.c **** 		return -FDT_ERR_BADVERSION;
 396              		.loc 1 32 2 view .LVU132
 397              	.LVL28:
 398              	.LBB280:
 399              	.LBI280:
 145:/mnt/c/Users/31740/Documents/codes/newcore-rp2350/include/linux/libfdt.h **** {
 400              		.loc 3 145 24 view .LVU133
 401              	.LBB281:
 147:/mnt/c/Users/31740/Documents/codes/newcore-rp2350/include/linux/libfdt.h **** 
 402              		.loc 3 147 2 view .LVU134
 149:/mnt/c/Users/31740/Documents/codes/newcore-rp2350/include/linux/libfdt.h **** 		| ((uint32_t)bp[1] << 16)
 403              		.loc 3 149 2 view .LVU135
ARM GAS  /tmp/ccyijaMA.s 			page 14


 149:/mnt/c/Users/31740/Documents/codes/newcore-rp2350/include/linux/libfdt.h **** 		| ((uint32_t)bp[1] << 16)
 404              		.loc 3 149 22 is_stmt 0 view .LVU136
 405 000c 237D     		ldrb	r3, [r4, #20]	@ zero_extendqisi2
 150:/mnt/c/Users/31740/Documents/codes/newcore-rp2350/include/linux/libfdt.h **** 		| ((uint32_t)bp[2] << 8)
 406              		.loc 3 150 18 view .LVU137
 407 000e 657D     		ldrb	r5, [r4, #21]	@ zero_extendqisi2
 150:/mnt/c/Users/31740/Documents/codes/newcore-rp2350/include/linux/libfdt.h **** 		| ((uint32_t)bp[2] << 8)
 408              		.loc 3 150 22 view .LVU138
 409 0010 2D04     		lsls	r5, r5, #16
 150:/mnt/c/Users/31740/Documents/codes/newcore-rp2350/include/linux/libfdt.h **** 		| ((uint32_t)bp[2] << 8)
 410              		.loc 3 150 3 view .LVU139
 411 0012 45EA0365 		orr	r5, r5, r3, lsl #24
 151:/mnt/c/Users/31740/Documents/codes/newcore-rp2350/include/linux/libfdt.h **** 		| bp[3];
 412              		.loc 3 151 18 view .LVU140
 413 0016 A37D     		ldrb	r3, [r4, #22]	@ zero_extendqisi2
 151:/mnt/c/Users/31740/Documents/codes/newcore-rp2350/include/linux/libfdt.h **** 		| bp[3];
 414              		.loc 3 151 3 view .LVU141
 415 0018 45EA0325 		orr	r5, r5, r3, lsl #8
 416              		.loc 3 152 7 view .LVU142
 417 001c E37D     		ldrb	r3, [r4, #23]	@ zero_extendqisi2
 418              		.loc 3 152 3 view .LVU143
 419 001e 1D43     		orrs	r5, r5, r3
 420              	.LVL29:
 421              		.loc 3 152 3 view .LVU144
 422              	.LBE281:
 423              	.LBE280:
  32:/mnt/c/Users/31740/Documents/codes/newcore-rp2350/lib/fdt/fdt_rw.c **** 		return -FDT_ERR_BADVERSION;
 424              		.loc 1 32 26 discriminator 1 view .LVU145
 425 0020 102D     		cmp	r5, #16
 426 0022 18D9     		bls	.L15
  34:/mnt/c/Users/31740/Documents/codes/newcore-rp2350/lib/fdt/fdt_rw.c **** 				   fdt_size_dt_struct(fdt)))
 427              		.loc 1 34 2 is_stmt 1 view .LVU146
 428              	.LVL30:
 429              	.LBB282:
 430              	.LBI282:
 145:/mnt/c/Users/31740/Documents/codes/newcore-rp2350/include/linux/libfdt.h **** {
 431              		.loc 3 145 24 view .LVU147
 432              	.LBB283:
 147:/mnt/c/Users/31740/Documents/codes/newcore-rp2350/include/linux/libfdt.h **** 
 433              		.loc 3 147 2 view .LVU148
 149:/mnt/c/Users/31740/Documents/codes/newcore-rp2350/include/linux/libfdt.h **** 		| ((uint32_t)bp[1] << 16)
 434              		.loc 3 149 2 view .LVU149
 149:/mnt/c/Users/31740/Documents/codes/newcore-rp2350/include/linux/libfdt.h **** 		| ((uint32_t)bp[1] << 16)
 435              		.loc 3 149 22 is_stmt 0 view .LVU150
 436 0024 94F82420 		ldrb	r2, [r4, #36]	@ zero_extendqisi2
 150:/mnt/c/Users/31740/Documents/codes/newcore-rp2350/include/linux/libfdt.h **** 		| ((uint32_t)bp[2] << 8)
 437              		.loc 3 150 18 view .LVU151
 438 0028 94F82530 		ldrb	r3, [r4, #37]	@ zero_extendqisi2
 150:/mnt/c/Users/31740/Documents/codes/newcore-rp2350/include/linux/libfdt.h **** 		| ((uint32_t)bp[2] << 8)
 439              		.loc 3 150 22 view .LVU152
 440 002c 1B04     		lsls	r3, r3, #16
 150:/mnt/c/Users/31740/Documents/codes/newcore-rp2350/include/linux/libfdt.h **** 		| ((uint32_t)bp[2] << 8)
 441              		.loc 3 150 3 view .LVU153
 442 002e 43EA0263 		orr	r3, r3, r2, lsl #24
 151:/mnt/c/Users/31740/Documents/codes/newcore-rp2350/include/linux/libfdt.h **** 		| bp[3];
 443              		.loc 3 151 18 view .LVU154
 444 0032 94F82620 		ldrb	r2, [r4, #38]	@ zero_extendqisi2
ARM GAS  /tmp/ccyijaMA.s 			page 15


 151:/mnt/c/Users/31740/Documents/codes/newcore-rp2350/include/linux/libfdt.h **** 		| bp[3];
 445              		.loc 3 151 3 view .LVU155
 446 0036 43EA0223 		orr	r3, r3, r2, lsl #8
 447              		.loc 3 152 7 view .LVU156
 448 003a 94F82720 		ldrb	r2, [r4, #39]	@ zero_extendqisi2
 449              	.LVL31:
 450              		.loc 3 152 7 view .LVU157
 451              	.LBE283:
 452              	.LBE282:
  34:/mnt/c/Users/31740/Documents/codes/newcore-rp2350/lib/fdt/fdt_rw.c **** 				   fdt_size_dt_struct(fdt)))
 453              		.loc 1 34 6 view .LVU158
 454 003e 1A43     		orrs	r2, r2, r3
 455 0040 0821     		movs	r1, #8
 456 0042 2046     		mov	r0, r4
 457              	.LVL32:
  34:/mnt/c/Users/31740/Documents/codes/newcore-rp2350/lib/fdt/fdt_rw.c **** 				   fdt_size_dt_struct(fdt)))
 458              		.loc 1 34 6 view .LVU159
 459 0044 FFF7FEFF 		bl	fdt_blocks_misordered_
 460              	.LVL33:
  34:/mnt/c/Users/31740/Documents/codes/newcore-rp2350/lib/fdt/fdt_rw.c **** 				   fdt_size_dt_struct(fdt)))
 461              		.loc 1 34 5 discriminator 1 view .LVU160
 462 0048 40B9     		cbnz	r0, .L16
  37:/mnt/c/Users/31740/Documents/codes/newcore-rp2350/lib/fdt/fdt_rw.c **** 		fdt_set_version(fdt, 17);
 463              		.loc 1 37 2 is_stmt 1 view .LVU161
 464              	.LVL34:
  37:/mnt/c/Users/31740/Documents/codes/newcore-rp2350/lib/fdt/fdt_rw.c **** 		fdt_set_version(fdt, 17);
 465              		.loc 1 37 26 is_stmt 0 discriminator 1 view .LVU162
 466 004a 112D     		cmp	r5, #17
 467 004c 02D9     		bls	.L13
  38:/mnt/c/Users/31740/Documents/codes/newcore-rp2350/lib/fdt/fdt_rw.c **** 
 468              		.loc 1 38 3 is_stmt 1 view .LVU163
 469              	.LVL35:
 470              	.LBB284:
 471              	.LBI284:
 153:/mnt/c/Users/31740/Documents/codes/newcore-rp2350/include/linux/libfdt.h **** }
 154:/mnt/c/Users/31740/Documents/codes/newcore-rp2350/include/linux/libfdt.h **** 
 155:/mnt/c/Users/31740/Documents/codes/newcore-rp2350/include/linux/libfdt.h **** static inline void fdt32_st(void *property, uint32_t value)
 156:/mnt/c/Users/31740/Documents/codes/newcore-rp2350/include/linux/libfdt.h **** {
 157:/mnt/c/Users/31740/Documents/codes/newcore-rp2350/include/linux/libfdt.h **** 	uint8_t *bp = (uint8_t *)property;
 158:/mnt/c/Users/31740/Documents/codes/newcore-rp2350/include/linux/libfdt.h **** 
 159:/mnt/c/Users/31740/Documents/codes/newcore-rp2350/include/linux/libfdt.h **** 	bp[0] = value >> 24;
 160:/mnt/c/Users/31740/Documents/codes/newcore-rp2350/include/linux/libfdt.h **** 	bp[1] = (value >> 16) & 0xff;
 161:/mnt/c/Users/31740/Documents/codes/newcore-rp2350/include/linux/libfdt.h **** 	bp[2] = (value >> 8) & 0xff;
 162:/mnt/c/Users/31740/Documents/codes/newcore-rp2350/include/linux/libfdt.h **** 	bp[3] = value & 0xff;
 163:/mnt/c/Users/31740/Documents/codes/newcore-rp2350/include/linux/libfdt.h **** }
 164:/mnt/c/Users/31740/Documents/codes/newcore-rp2350/include/linux/libfdt.h **** 
 165:/mnt/c/Users/31740/Documents/codes/newcore-rp2350/include/linux/libfdt.h **** static inline uint64_t fdt64_ld(const fdt64_t *p)
 166:/mnt/c/Users/31740/Documents/codes/newcore-rp2350/include/linux/libfdt.h **** {
 167:/mnt/c/Users/31740/Documents/codes/newcore-rp2350/include/linux/libfdt.h **** 	const uint8_t *bp = (const uint8_t *)p;
 168:/mnt/c/Users/31740/Documents/codes/newcore-rp2350/include/linux/libfdt.h **** 
 169:/mnt/c/Users/31740/Documents/codes/newcore-rp2350/include/linux/libfdt.h **** 	return ((uint64_t)bp[0] << 56)
 170:/mnt/c/Users/31740/Documents/codes/newcore-rp2350/include/linux/libfdt.h **** 		| ((uint64_t)bp[1] << 48)
 171:/mnt/c/Users/31740/Documents/codes/newcore-rp2350/include/linux/libfdt.h **** 		| ((uint64_t)bp[2] << 40)
 172:/mnt/c/Users/31740/Documents/codes/newcore-rp2350/include/linux/libfdt.h **** 		| ((uint64_t)bp[3] << 32)
 173:/mnt/c/Users/31740/Documents/codes/newcore-rp2350/include/linux/libfdt.h **** 		| ((uint64_t)bp[4] << 24)
 174:/mnt/c/Users/31740/Documents/codes/newcore-rp2350/include/linux/libfdt.h **** 		| ((uint64_t)bp[5] << 16)
 175:/mnt/c/Users/31740/Documents/codes/newcore-rp2350/include/linux/libfdt.h **** 		| ((uint64_t)bp[6] << 8)
ARM GAS  /tmp/ccyijaMA.s 			page 16


 176:/mnt/c/Users/31740/Documents/codes/newcore-rp2350/include/linux/libfdt.h **** 		| bp[7];
 177:/mnt/c/Users/31740/Documents/codes/newcore-rp2350/include/linux/libfdt.h **** }
 178:/mnt/c/Users/31740/Documents/codes/newcore-rp2350/include/linux/libfdt.h **** 
 179:/mnt/c/Users/31740/Documents/codes/newcore-rp2350/include/linux/libfdt.h **** static inline void fdt64_st(void *property, uint64_t value)
 180:/mnt/c/Users/31740/Documents/codes/newcore-rp2350/include/linux/libfdt.h **** {
 181:/mnt/c/Users/31740/Documents/codes/newcore-rp2350/include/linux/libfdt.h **** 	uint8_t *bp = (uint8_t *)property;
 182:/mnt/c/Users/31740/Documents/codes/newcore-rp2350/include/linux/libfdt.h **** 
 183:/mnt/c/Users/31740/Documents/codes/newcore-rp2350/include/linux/libfdt.h **** 	bp[0] = value >> 56;
 184:/mnt/c/Users/31740/Documents/codes/newcore-rp2350/include/linux/libfdt.h **** 	bp[1] = (value >> 48) & 0xff;
 185:/mnt/c/Users/31740/Documents/codes/newcore-rp2350/include/linux/libfdt.h **** 	bp[2] = (value >> 40) & 0xff;
 186:/mnt/c/Users/31740/Documents/codes/newcore-rp2350/include/linux/libfdt.h **** 	bp[3] = (value >> 32) & 0xff;
 187:/mnt/c/Users/31740/Documents/codes/newcore-rp2350/include/linux/libfdt.h **** 	bp[4] = (value >> 24) & 0xff;
 188:/mnt/c/Users/31740/Documents/codes/newcore-rp2350/include/linux/libfdt.h **** 	bp[5] = (value >> 16) & 0xff;
 189:/mnt/c/Users/31740/Documents/codes/newcore-rp2350/include/linux/libfdt.h **** 	bp[6] = (value >> 8) & 0xff;
 190:/mnt/c/Users/31740/Documents/codes/newcore-rp2350/include/linux/libfdt.h **** 	bp[7] = value & 0xff;
 191:/mnt/c/Users/31740/Documents/codes/newcore-rp2350/include/linux/libfdt.h **** }
 192:/mnt/c/Users/31740/Documents/codes/newcore-rp2350/include/linux/libfdt.h **** 
 193:/mnt/c/Users/31740/Documents/codes/newcore-rp2350/include/linux/libfdt.h **** /**********************************************************************/
 194:/mnt/c/Users/31740/Documents/codes/newcore-rp2350/include/linux/libfdt.h **** /* Traversal functions                                                */
 195:/mnt/c/Users/31740/Documents/codes/newcore-rp2350/include/linux/libfdt.h **** /**********************************************************************/
 196:/mnt/c/Users/31740/Documents/codes/newcore-rp2350/include/linux/libfdt.h **** 
 197:/mnt/c/Users/31740/Documents/codes/newcore-rp2350/include/linux/libfdt.h **** int fdt_next_node(const void *fdt, int offset, int *depth);
 198:/mnt/c/Users/31740/Documents/codes/newcore-rp2350/include/linux/libfdt.h **** 
 199:/mnt/c/Users/31740/Documents/codes/newcore-rp2350/include/linux/libfdt.h **** /**
 200:/mnt/c/Users/31740/Documents/codes/newcore-rp2350/include/linux/libfdt.h ****  * fdt_first_subnode() - get offset of first direct subnode
 201:/mnt/c/Users/31740/Documents/codes/newcore-rp2350/include/linux/libfdt.h ****  * @fdt:	FDT blob
 202:/mnt/c/Users/31740/Documents/codes/newcore-rp2350/include/linux/libfdt.h ****  * @offset:	Offset of node to check
 203:/mnt/c/Users/31740/Documents/codes/newcore-rp2350/include/linux/libfdt.h ****  *
 204:/mnt/c/Users/31740/Documents/codes/newcore-rp2350/include/linux/libfdt.h ****  * Return: offset of first subnode, or -FDT_ERR_NOTFOUND if there is none
 205:/mnt/c/Users/31740/Documents/codes/newcore-rp2350/include/linux/libfdt.h ****  */
 206:/mnt/c/Users/31740/Documents/codes/newcore-rp2350/include/linux/libfdt.h **** int fdt_first_subnode(const void *fdt, int offset);
 207:/mnt/c/Users/31740/Documents/codes/newcore-rp2350/include/linux/libfdt.h **** 
 208:/mnt/c/Users/31740/Documents/codes/newcore-rp2350/include/linux/libfdt.h **** /**
 209:/mnt/c/Users/31740/Documents/codes/newcore-rp2350/include/linux/libfdt.h ****  * fdt_next_subnode() - get offset of next direct subnode
 210:/mnt/c/Users/31740/Documents/codes/newcore-rp2350/include/linux/libfdt.h ****  * @fdt:	FDT blob
 211:/mnt/c/Users/31740/Documents/codes/newcore-rp2350/include/linux/libfdt.h ****  * @offset:	Offset of previous subnode
 212:/mnt/c/Users/31740/Documents/codes/newcore-rp2350/include/linux/libfdt.h ****  *
 213:/mnt/c/Users/31740/Documents/codes/newcore-rp2350/include/linux/libfdt.h ****  * After first calling fdt_first_subnode(), call this function repeatedly to
 214:/mnt/c/Users/31740/Documents/codes/newcore-rp2350/include/linux/libfdt.h ****  * get direct subnodes of a parent node.
 215:/mnt/c/Users/31740/Documents/codes/newcore-rp2350/include/linux/libfdt.h ****  *
 216:/mnt/c/Users/31740/Documents/codes/newcore-rp2350/include/linux/libfdt.h ****  * Return: offset of next subnode, or -FDT_ERR_NOTFOUND if there are no more
 217:/mnt/c/Users/31740/Documents/codes/newcore-rp2350/include/linux/libfdt.h ****  *         subnodes
 218:/mnt/c/Users/31740/Documents/codes/newcore-rp2350/include/linux/libfdt.h ****  */
 219:/mnt/c/Users/31740/Documents/codes/newcore-rp2350/include/linux/libfdt.h **** int fdt_next_subnode(const void *fdt, int offset);
 220:/mnt/c/Users/31740/Documents/codes/newcore-rp2350/include/linux/libfdt.h **** 
 221:/mnt/c/Users/31740/Documents/codes/newcore-rp2350/include/linux/libfdt.h **** /**
 222:/mnt/c/Users/31740/Documents/codes/newcore-rp2350/include/linux/libfdt.h ****  * fdt_for_each_subnode - iterate over all subnodes of a parent
 223:/mnt/c/Users/31740/Documents/codes/newcore-rp2350/include/linux/libfdt.h ****  *
 224:/mnt/c/Users/31740/Documents/codes/newcore-rp2350/include/linux/libfdt.h ****  * @node:	child node (int, lvalue)
 225:/mnt/c/Users/31740/Documents/codes/newcore-rp2350/include/linux/libfdt.h ****  * @fdt:	FDT blob (const void *)
 226:/mnt/c/Users/31740/Documents/codes/newcore-rp2350/include/linux/libfdt.h ****  * @parent:	parent node (int)
 227:/mnt/c/Users/31740/Documents/codes/newcore-rp2350/include/linux/libfdt.h ****  *
 228:/mnt/c/Users/31740/Documents/codes/newcore-rp2350/include/linux/libfdt.h ****  * This is actually a wrapper around a for loop and would be used like so:
 229:/mnt/c/Users/31740/Documents/codes/newcore-rp2350/include/linux/libfdt.h ****  *
 230:/mnt/c/Users/31740/Documents/codes/newcore-rp2350/include/linux/libfdt.h ****  *	fdt_for_each_subnode(node, fdt, parent) {
 231:/mnt/c/Users/31740/Documents/codes/newcore-rp2350/include/linux/libfdt.h ****  *		Use node
 232:/mnt/c/Users/31740/Documents/codes/newcore-rp2350/include/linux/libfdt.h ****  *		...
ARM GAS  /tmp/ccyijaMA.s 			page 17


 233:/mnt/c/Users/31740/Documents/codes/newcore-rp2350/include/linux/libfdt.h ****  *	}
 234:/mnt/c/Users/31740/Documents/codes/newcore-rp2350/include/linux/libfdt.h ****  *
 235:/mnt/c/Users/31740/Documents/codes/newcore-rp2350/include/linux/libfdt.h ****  *	if ((node < 0) && (node != -FDT_ERR_NOTFOUND)) {
 236:/mnt/c/Users/31740/Documents/codes/newcore-rp2350/include/linux/libfdt.h ****  *		Error handling
 237:/mnt/c/Users/31740/Documents/codes/newcore-rp2350/include/linux/libfdt.h ****  *	}
 238:/mnt/c/Users/31740/Documents/codes/newcore-rp2350/include/linux/libfdt.h ****  *
 239:/mnt/c/Users/31740/Documents/codes/newcore-rp2350/include/linux/libfdt.h ****  * Note that this is implemented as a macro and @node is used as
 240:/mnt/c/Users/31740/Documents/codes/newcore-rp2350/include/linux/libfdt.h ****  * iterator in the loop. The parent variable be constant or even a
 241:/mnt/c/Users/31740/Documents/codes/newcore-rp2350/include/linux/libfdt.h ****  * literal.
 242:/mnt/c/Users/31740/Documents/codes/newcore-rp2350/include/linux/libfdt.h ****  */
 243:/mnt/c/Users/31740/Documents/codes/newcore-rp2350/include/linux/libfdt.h **** #define fdt_for_each_subnode(node, fdt, parent)		\
 244:/mnt/c/Users/31740/Documents/codes/newcore-rp2350/include/linux/libfdt.h **** 	for (node = fdt_first_subnode(fdt, parent);	\
 245:/mnt/c/Users/31740/Documents/codes/newcore-rp2350/include/linux/libfdt.h **** 	     node >= 0;					\
 246:/mnt/c/Users/31740/Documents/codes/newcore-rp2350/include/linux/libfdt.h **** 	     node = fdt_next_subnode(fdt, node))
 247:/mnt/c/Users/31740/Documents/codes/newcore-rp2350/include/linux/libfdt.h **** 
 248:/mnt/c/Users/31740/Documents/codes/newcore-rp2350/include/linux/libfdt.h **** /**********************************************************************/
 249:/mnt/c/Users/31740/Documents/codes/newcore-rp2350/include/linux/libfdt.h **** /* General functions                                                  */
 250:/mnt/c/Users/31740/Documents/codes/newcore-rp2350/include/linux/libfdt.h **** /**********************************************************************/
 251:/mnt/c/Users/31740/Documents/codes/newcore-rp2350/include/linux/libfdt.h **** #define fdt_get_header(fdt, field) \
 252:/mnt/c/Users/31740/Documents/codes/newcore-rp2350/include/linux/libfdt.h **** 	(fdt32_ld(&((const struct fdt_header *)(fdt))->field))
 253:/mnt/c/Users/31740/Documents/codes/newcore-rp2350/include/linux/libfdt.h **** #define fdt_magic(fdt)			(fdt_get_header(fdt, magic))
 254:/mnt/c/Users/31740/Documents/codes/newcore-rp2350/include/linux/libfdt.h **** #define fdt_totalsize(fdt)		(fdt_get_header(fdt, totalsize))
 255:/mnt/c/Users/31740/Documents/codes/newcore-rp2350/include/linux/libfdt.h **** #define fdt_off_dt_struct(fdt)		(fdt_get_header(fdt, off_dt_struct))
 256:/mnt/c/Users/31740/Documents/codes/newcore-rp2350/include/linux/libfdt.h **** #define fdt_off_dt_strings(fdt)		(fdt_get_header(fdt, off_dt_strings))
 257:/mnt/c/Users/31740/Documents/codes/newcore-rp2350/include/linux/libfdt.h **** #define fdt_off_mem_rsvmap(fdt)		(fdt_get_header(fdt, off_mem_rsvmap))
 258:/mnt/c/Users/31740/Documents/codes/newcore-rp2350/include/linux/libfdt.h **** #define fdt_version(fdt)		(fdt_get_header(fdt, version))
 259:/mnt/c/Users/31740/Documents/codes/newcore-rp2350/include/linux/libfdt.h **** #define fdt_last_comp_version(fdt)	(fdt_get_header(fdt, last_comp_version))
 260:/mnt/c/Users/31740/Documents/codes/newcore-rp2350/include/linux/libfdt.h **** #define fdt_boot_cpuid_phys(fdt)	(fdt_get_header(fdt, boot_cpuid_phys))
 261:/mnt/c/Users/31740/Documents/codes/newcore-rp2350/include/linux/libfdt.h **** #define fdt_size_dt_strings(fdt)	(fdt_get_header(fdt, size_dt_strings))
 262:/mnt/c/Users/31740/Documents/codes/newcore-rp2350/include/linux/libfdt.h **** #define fdt_size_dt_struct(fdt)		(fdt_get_header(fdt, size_dt_struct))
 263:/mnt/c/Users/31740/Documents/codes/newcore-rp2350/include/linux/libfdt.h **** 
 264:/mnt/c/Users/31740/Documents/codes/newcore-rp2350/include/linux/libfdt.h **** #define fdt_set_hdr_(name) \
 265:/mnt/c/Users/31740/Documents/codes/newcore-rp2350/include/linux/libfdt.h **** 	static inline void fdt_set_##name(void *fdt, uint32_t val) \
 266:/mnt/c/Users/31740/Documents/codes/newcore-rp2350/include/linux/libfdt.h **** 	{ \
 267:/mnt/c/Users/31740/Documents/codes/newcore-rp2350/include/linux/libfdt.h **** 		struct fdt_header *fdth = (struct fdt_header *)fdt; \
 268:/mnt/c/Users/31740/Documents/codes/newcore-rp2350/include/linux/libfdt.h **** 		fdth->name = cpu_to_fdt32(val); \
 269:/mnt/c/Users/31740/Documents/codes/newcore-rp2350/include/linux/libfdt.h **** 	}
 270:/mnt/c/Users/31740/Documents/codes/newcore-rp2350/include/linux/libfdt.h **** fdt_set_hdr_(magic)
 271:/mnt/c/Users/31740/Documents/codes/newcore-rp2350/include/linux/libfdt.h **** fdt_set_hdr_(totalsize)
 272:/mnt/c/Users/31740/Documents/codes/newcore-rp2350/include/linux/libfdt.h **** fdt_set_hdr_(off_dt_struct)
 273:/mnt/c/Users/31740/Documents/codes/newcore-rp2350/include/linux/libfdt.h **** fdt_set_hdr_(off_dt_strings)
 274:/mnt/c/Users/31740/Documents/codes/newcore-rp2350/include/linux/libfdt.h **** fdt_set_hdr_(off_mem_rsvmap)
 275:/mnt/c/Users/31740/Documents/codes/newcore-rp2350/include/linux/libfdt.h **** fdt_set_hdr_(version)
 472              		.loc 3 275 1 view .LVU164
 473              	.LBB285:
 474              		.loc 3 275 1 view .LVU165
 475              		.loc 3 275 1 view .LVU166
 476              		.loc 3 275 1 is_stmt 0 discriminator 1 view .LVU167
 477 004e 4FF08853 		mov	r3, #285212672
 478 0052 6361     		str	r3, [r4, #20]
 479              	.LVL36:
 480              	.L13:
 481              		.loc 3 275 1 discriminator 1 view .LVU168
 482              	.LBE285:
 483              	.LBE284:
  41:/mnt/c/Users/31740/Documents/codes/newcore-rp2350/lib/fdt/fdt_rw.c **** 
 484              		.loc 1 41 1 view .LVU169
ARM GAS  /tmp/ccyijaMA.s 			page 18


 485 0054 38BD     		pop	{r3, r4, r5, pc}
 486              	.LVL37:
 487              	.L15:
  33:/mnt/c/Users/31740/Documents/codes/newcore-rp2350/lib/fdt/fdt_rw.c **** 	if (fdt_blocks_misordered_(fdt, sizeof(struct fdt_reserve_entry),
 488              		.loc 1 33 10 view .LVU170
 489 0056 6FF00900 		mvn	r0, #9
 490              	.LVL38:
  33:/mnt/c/Users/31740/Documents/codes/newcore-rp2350/lib/fdt/fdt_rw.c **** 	if (fdt_blocks_misordered_(fdt, sizeof(struct fdt_reserve_entry),
 491              		.loc 1 33 10 view .LVU171
 492 005a FBE7     		b	.L13
 493              	.LVL39:
 494              	.L16:
  36:/mnt/c/Users/31740/Documents/codes/newcore-rp2350/lib/fdt/fdt_rw.c **** 	if (!can_assume(LATEST) && fdt_version(fdt) > 17)
 495              		.loc 1 36 10 view .LVU172
 496 005c 6FF00B00 		mvn	r0, #11
 497 0060 F8E7     		b	.L13
 498              		.cfi_endproc
 499              	.LFE76:
 501              		.section	.text.fdt_splice_,"ax",%progbits
 502              		.align	1
 503              		.syntax unified
 504              		.thumb
 505              		.thumb_func
 507              	fdt_splice_:
 508              	.LVL40:
 509              	.LFB78:
  54:/mnt/c/Users/31740/Documents/codes/newcore-rp2350/lib/fdt/fdt_rw.c **** 
  55:/mnt/c/Users/31740/Documents/codes/newcore-rp2350/lib/fdt/fdt_rw.c **** static int fdt_splice_(void *fdt, void *splicepoint, int oldlen, int newlen)
  56:/mnt/c/Users/31740/Documents/codes/newcore-rp2350/lib/fdt/fdt_rw.c **** {
 510              		.loc 1 56 1 is_stmt 1 view -0
 511              		.cfi_startproc
 512              		@ args = 0, pretend = 0, frame = 0
 513              		@ frame_needed = 0, uses_anonymous_args = 0
 514              		.loc 1 56 1 is_stmt 0 view .LVU174
 515 0000 F8B5     		push	{r3, r4, r5, r6, r7, lr}
 516              	.LCFI4:
 517              		.cfi_def_cfa_offset 24
 518              		.cfi_offset 3, -24
 519              		.cfi_offset 4, -20
 520              		.cfi_offset 5, -16
 521              		.cfi_offset 6, -12
 522              		.cfi_offset 7, -8
 523              		.cfi_offset 14, -4
 524 0002 0546     		mov	r5, r0
 525 0004 0E46     		mov	r6, r1
 526 0006 1446     		mov	r4, r2
 527 0008 1F46     		mov	r7, r3
  57:/mnt/c/Users/31740/Documents/codes/newcore-rp2350/lib/fdt/fdt_rw.c **** 	char *p = splicepoint;
 528              		.loc 1 57 2 is_stmt 1 view .LVU175
 529              	.LVL41:
  58:/mnt/c/Users/31740/Documents/codes/newcore-rp2350/lib/fdt/fdt_rw.c **** 	unsigned int dsize = fdt_data_size_(fdt);
 530              		.loc 1 58 2 view .LVU176
 531              		.loc 1 58 23 is_stmt 0 view .LVU177
 532 000a FFF7FEFF 		bl	fdt_data_size_
 533              	.LVL42:
  59:/mnt/c/Users/31740/Documents/codes/newcore-rp2350/lib/fdt/fdt_rw.c **** 	size_t soff = p - (char *)fdt;
 534              		.loc 1 59 2 is_stmt 1 view .LVU178
ARM GAS  /tmp/ccyijaMA.s 			page 19


 535              		.loc 1 59 18 is_stmt 0 view .LVU179
 536 000e 731B     		subs	r3, r6, r5
 537              	.LVL43:
  60:/mnt/c/Users/31740/Documents/codes/newcore-rp2350/lib/fdt/fdt_rw.c **** 
  61:/mnt/c/Users/31740/Documents/codes/newcore-rp2350/lib/fdt/fdt_rw.c **** 	if ((oldlen < 0) || (soff + oldlen < soff) || (soff + oldlen > dsize))
 538              		.loc 1 61 2 is_stmt 1 view .LVU180
 539              		.loc 1 61 5 is_stmt 0 view .LVU181
 540 0010 002C     		cmp	r4, #0
 541 0012 1EDB     		blt	.L20
 542              		.loc 1 61 19 discriminator 1 view .LVU182
 543 0014 E318     		adds	r3, r4, r3
 544              	.LVL44:
 545              		.loc 1 61 19 discriminator 1 view .LVU183
 546 0016 1FD2     		bcs	.L21
 547              		.loc 1 61 45 discriminator 2 view .LVU184
 548 0018 8342     		cmp	r3, r0
 549 001a 20D8     		bhi	.L22
  62:/mnt/c/Users/31740/Documents/codes/newcore-rp2350/lib/fdt/fdt_rw.c **** 		return -FDT_ERR_BADOFFSET;
  63:/mnt/c/Users/31740/Documents/codes/newcore-rp2350/lib/fdt/fdt_rw.c **** 	if ((p < (char *)fdt) || (dsize + newlen < (unsigned)oldlen))
 550              		.loc 1 63 2 is_stmt 1 view .LVU185
 551              		.loc 1 63 5 is_stmt 0 view .LVU186
 552 001c AE42     		cmp	r6, r5
 553 001e 21D3     		bcc	.L23
 554              		.loc 1 63 34 discriminator 1 view .LVU187
 555 0020 3B18     		adds	r3, r7, r0
 556              		.loc 1 63 24 discriminator 1 view .LVU188
 557 0022 9C42     		cmp	r4, r3
 558 0024 21D8     		bhi	.L24
  64:/mnt/c/Users/31740/Documents/codes/newcore-rp2350/lib/fdt/fdt_rw.c **** 		return -FDT_ERR_BADOFFSET;
  65:/mnt/c/Users/31740/Documents/codes/newcore-rp2350/lib/fdt/fdt_rw.c **** 	if (dsize - oldlen + newlen > fdt_totalsize(fdt))
 559              		.loc 1 65 2 is_stmt 1 view .LVU189
 560              		.loc 1 65 12 is_stmt 0 view .LVU190
 561 0026 031B     		subs	r3, r0, r4
 562              		.loc 1 65 21 view .LVU191
 563 0028 3B44     		add	r3, r3, r7
 564              	.LVL45:
 565              	.LBB286:
 566              	.LBI286:
 145:/mnt/c/Users/31740/Documents/codes/newcore-rp2350/include/linux/libfdt.h **** {
 567              		.loc 3 145 24 is_stmt 1 view .LVU192
 568              	.LBB287:
 147:/mnt/c/Users/31740/Documents/codes/newcore-rp2350/include/linux/libfdt.h **** 
 569              		.loc 3 147 2 view .LVU193
 149:/mnt/c/Users/31740/Documents/codes/newcore-rp2350/include/linux/libfdt.h **** 		| ((uint32_t)bp[1] << 16)
 570              		.loc 3 149 2 view .LVU194
 149:/mnt/c/Users/31740/Documents/codes/newcore-rp2350/include/linux/libfdt.h **** 		| ((uint32_t)bp[1] << 16)
 571              		.loc 3 149 22 is_stmt 0 view .LVU195
 572 002a 2979     		ldrb	r1, [r5, #4]	@ zero_extendqisi2
 150:/mnt/c/Users/31740/Documents/codes/newcore-rp2350/include/linux/libfdt.h **** 		| ((uint32_t)bp[2] << 8)
 573              		.loc 3 150 18 view .LVU196
 574 002c 6A79     		ldrb	r2, [r5, #5]	@ zero_extendqisi2
 150:/mnt/c/Users/31740/Documents/codes/newcore-rp2350/include/linux/libfdt.h **** 		| ((uint32_t)bp[2] << 8)
 575              		.loc 3 150 22 view .LVU197
 576 002e 1204     		lsls	r2, r2, #16
 150:/mnt/c/Users/31740/Documents/codes/newcore-rp2350/include/linux/libfdt.h **** 		| ((uint32_t)bp[2] << 8)
 577              		.loc 3 150 3 view .LVU198
 578 0030 42EA0162 		orr	r2, r2, r1, lsl #24
ARM GAS  /tmp/ccyijaMA.s 			page 20


 151:/mnt/c/Users/31740/Documents/codes/newcore-rp2350/include/linux/libfdt.h **** 		| bp[3];
 579              		.loc 3 151 18 view .LVU199
 580 0034 A979     		ldrb	r1, [r5, #6]	@ zero_extendqisi2
 151:/mnt/c/Users/31740/Documents/codes/newcore-rp2350/include/linux/libfdt.h **** 		| bp[3];
 581              		.loc 3 151 3 view .LVU200
 582 0036 42EA0122 		orr	r2, r2, r1, lsl #8
 152:/mnt/c/Users/31740/Documents/codes/newcore-rp2350/include/linux/libfdt.h **** }
 583              		.loc 3 152 7 view .LVU201
 584 003a E979     		ldrb	r1, [r5, #7]	@ zero_extendqisi2
 152:/mnt/c/Users/31740/Documents/codes/newcore-rp2350/include/linux/libfdt.h **** }
 585              		.loc 3 152 3 view .LVU202
 586 003c 0A43     		orrs	r2, r2, r1
 587              	.LVL46:
 152:/mnt/c/Users/31740/Documents/codes/newcore-rp2350/include/linux/libfdt.h **** }
 588              		.loc 3 152 3 view .LVU203
 589              	.LBE287:
 590              	.LBE286:
 591              		.loc 1 65 5 discriminator 1 view .LVU204
 592 003e 9342     		cmp	r3, r2
 593 0040 16D8     		bhi	.L25
  66:/mnt/c/Users/31740/Documents/codes/newcore-rp2350/lib/fdt/fdt_rw.c **** 		return -FDT_ERR_NOSPACE;
  67:/mnt/c/Users/31740/Documents/codes/newcore-rp2350/lib/fdt/fdt_rw.c **** 	memmove(p + newlen, p + oldlen, ((char *)fdt + dsize) - (p + oldlen));
 594              		.loc 1 67 2 is_stmt 1 view .LVU205
 595              		.loc 1 67 24 is_stmt 0 view .LVU206
 596 0042 3119     		adds	r1, r6, r4
 597              		.loc 1 67 47 view .LVU207
 598 0044 2A18     		adds	r2, r5, r0
 599              		.loc 1 67 2 view .LVU208
 600 0046 521A     		subs	r2, r2, r1
 601 0048 F019     		adds	r0, r6, r7
 602              	.LVL47:
 603              		.loc 1 67 2 view .LVU209
 604 004a FFF7FEFF 		bl	memmove
 605              	.LVL48:
  68:/mnt/c/Users/31740/Documents/codes/newcore-rp2350/lib/fdt/fdt_rw.c **** 	return 0;
 606              		.loc 1 68 2 is_stmt 1 view .LVU210
 607              		.loc 1 68 9 is_stmt 0 view .LVU211
 608 004e 0020     		movs	r0, #0
 609              	.LVL49:
 610              	.L18:
  69:/mnt/c/Users/31740/Documents/codes/newcore-rp2350/lib/fdt/fdt_rw.c **** }
 611              		.loc 1 69 1 view .LVU212
 612 0050 F8BD     		pop	{r3, r4, r5, r6, r7, pc}
 613              	.LVL50:
 614              	.L20:
  62:/mnt/c/Users/31740/Documents/codes/newcore-rp2350/lib/fdt/fdt_rw.c **** 	if ((p < (char *)fdt) || (dsize + newlen < (unsigned)oldlen))
 615              		.loc 1 62 10 view .LVU213
 616 0052 6FF00300 		mvn	r0, #3
 617              	.LVL51:
  62:/mnt/c/Users/31740/Documents/codes/newcore-rp2350/lib/fdt/fdt_rw.c **** 	if ((p < (char *)fdt) || (dsize + newlen < (unsigned)oldlen))
 618              		.loc 1 62 10 view .LVU214
 619 0056 FBE7     		b	.L18
 620              	.LVL52:
 621              	.L21:
  62:/mnt/c/Users/31740/Documents/codes/newcore-rp2350/lib/fdt/fdt_rw.c **** 	if ((p < (char *)fdt) || (dsize + newlen < (unsigned)oldlen))
 622              		.loc 1 62 10 view .LVU215
 623 0058 6FF00300 		mvn	r0, #3
ARM GAS  /tmp/ccyijaMA.s 			page 21


 624              	.LVL53:
  62:/mnt/c/Users/31740/Documents/codes/newcore-rp2350/lib/fdt/fdt_rw.c **** 	if ((p < (char *)fdt) || (dsize + newlen < (unsigned)oldlen))
 625              		.loc 1 62 10 view .LVU216
 626 005c F8E7     		b	.L18
 627              	.LVL54:
 628              	.L22:
  62:/mnt/c/Users/31740/Documents/codes/newcore-rp2350/lib/fdt/fdt_rw.c **** 	if ((p < (char *)fdt) || (dsize + newlen < (unsigned)oldlen))
 629              		.loc 1 62 10 view .LVU217
 630 005e 6FF00300 		mvn	r0, #3
 631              	.LVL55:
  62:/mnt/c/Users/31740/Documents/codes/newcore-rp2350/lib/fdt/fdt_rw.c **** 	if ((p < (char *)fdt) || (dsize + newlen < (unsigned)oldlen))
 632              		.loc 1 62 10 view .LVU218
 633 0062 F5E7     		b	.L18
 634              	.LVL56:
 635              	.L23:
  64:/mnt/c/Users/31740/Documents/codes/newcore-rp2350/lib/fdt/fdt_rw.c **** 	if (dsize - oldlen + newlen > fdt_totalsize(fdt))
 636              		.loc 1 64 10 view .LVU219
 637 0064 6FF00300 		mvn	r0, #3
 638              	.LVL57:
  64:/mnt/c/Users/31740/Documents/codes/newcore-rp2350/lib/fdt/fdt_rw.c **** 	if (dsize - oldlen + newlen > fdt_totalsize(fdt))
 639              		.loc 1 64 10 view .LVU220
 640 0068 F2E7     		b	.L18
 641              	.LVL58:
 642              	.L24:
  64:/mnt/c/Users/31740/Documents/codes/newcore-rp2350/lib/fdt/fdt_rw.c **** 	if (dsize - oldlen + newlen > fdt_totalsize(fdt))
 643              		.loc 1 64 10 view .LVU221
 644 006a 6FF00300 		mvn	r0, #3
 645              	.LVL59:
  64:/mnt/c/Users/31740/Documents/codes/newcore-rp2350/lib/fdt/fdt_rw.c **** 	if (dsize - oldlen + newlen > fdt_totalsize(fdt))
 646              		.loc 1 64 10 view .LVU222
 647 006e EFE7     		b	.L18
 648              	.LVL60:
 649              	.L25:
  66:/mnt/c/Users/31740/Documents/codes/newcore-rp2350/lib/fdt/fdt_rw.c **** 	memmove(p + newlen, p + oldlen, ((char *)fdt + dsize) - (p + oldlen));
 650              		.loc 1 66 10 view .LVU223
 651 0070 6FF00200 		mvn	r0, #2
 652              	.LVL61:
  66:/mnt/c/Users/31740/Documents/codes/newcore-rp2350/lib/fdt/fdt_rw.c **** 	memmove(p + newlen, p + oldlen, ((char *)fdt + dsize) - (p + oldlen));
 653              		.loc 1 66 10 view .LVU224
 654 0074 ECE7     		b	.L18
 655              		.cfi_endproc
 656              	.LFE78:
 658              		.section	.text.fdt_splice_mem_rsv_,"ax",%progbits
 659              		.align	1
 660              		.syntax unified
 661              		.thumb
 662              		.thumb_func
 664              	fdt_splice_mem_rsv_:
 665              	.LVL62:
 666              	.LFB79:
  70:/mnt/c/Users/31740/Documents/codes/newcore-rp2350/lib/fdt/fdt_rw.c **** 
  71:/mnt/c/Users/31740/Documents/codes/newcore-rp2350/lib/fdt/fdt_rw.c **** static int fdt_splice_mem_rsv_(void *fdt, struct fdt_reserve_entry *p,
  72:/mnt/c/Users/31740/Documents/codes/newcore-rp2350/lib/fdt/fdt_rw.c **** 			       int oldn, int newn)
  73:/mnt/c/Users/31740/Documents/codes/newcore-rp2350/lib/fdt/fdt_rw.c **** {
 667              		.loc 1 73 1 is_stmt 1 view -0
 668              		.cfi_startproc
 669              		@ args = 0, pretend = 0, frame = 0
ARM GAS  /tmp/ccyijaMA.s 			page 22


 670              		@ frame_needed = 0, uses_anonymous_args = 0
 671              		.loc 1 73 1 is_stmt 0 view .LVU226
 672 0000 38B5     		push	{r3, r4, r5, lr}
 673              	.LCFI5:
 674              		.cfi_def_cfa_offset 16
 675              		.cfi_offset 3, -16
 676              		.cfi_offset 4, -12
 677              		.cfi_offset 5, -8
 678              		.cfi_offset 14, -4
 679 0002 0446     		mov	r4, r0
  74:/mnt/c/Users/31740/Documents/codes/newcore-rp2350/lib/fdt/fdt_rw.c **** 	int delta = (newn - oldn) * sizeof(*p);
 680              		.loc 1 74 2 is_stmt 1 view .LVU227
 681              		.loc 1 74 20 is_stmt 0 view .LVU228
 682 0004 9D1A     		subs	r5, r3, r2
 683              	.LVL63:
  75:/mnt/c/Users/31740/Documents/codes/newcore-rp2350/lib/fdt/fdt_rw.c **** 	int err;
 684              		.loc 1 75 2 is_stmt 1 view .LVU229
  76:/mnt/c/Users/31740/Documents/codes/newcore-rp2350/lib/fdt/fdt_rw.c **** 	err = fdt_splice_(fdt, p, oldn * sizeof(*p), newn * sizeof(*p));
 685              		.loc 1 76 2 view .LVU230
 686              		.loc 1 76 8 is_stmt 0 view .LVU231
 687 0006 DB00     		lsls	r3, r3, #3
 688              	.LVL64:
 689              		.loc 1 76 8 view .LVU232
 690 0008 D200     		lsls	r2, r2, #3
 691              	.LVL65:
 692              		.loc 1 76 8 view .LVU233
 693 000a FFF7FEFF 		bl	fdt_splice_
 694              	.LVL66:
  77:/mnt/c/Users/31740/Documents/codes/newcore-rp2350/lib/fdt/fdt_rw.c **** 	if (err)
 695              		.loc 1 77 2 is_stmt 1 view .LVU234
 696              		.loc 1 77 5 is_stmt 0 view .LVU235
 697 000e 0246     		mov	r2, r0
 698 0010 70BB     		cbnz	r0, .L27
 699 0012 ED00     		lsls	r5, r5, #3
 700              	.LVL67:
  78:/mnt/c/Users/31740/Documents/codes/newcore-rp2350/lib/fdt/fdt_rw.c **** 		return err;
  79:/mnt/c/Users/31740/Documents/codes/newcore-rp2350/lib/fdt/fdt_rw.c **** 	fdt_set_off_dt_struct(fdt, fdt_off_dt_struct(fdt) + delta);
 701              		.loc 1 79 2 is_stmt 1 view .LVU236
 702              	.LBB288:
 703              	.LBI288:
 145:/mnt/c/Users/31740/Documents/codes/newcore-rp2350/include/linux/libfdt.h **** {
 704              		.loc 3 145 24 view .LVU237
 705              	.LBB289:
 147:/mnt/c/Users/31740/Documents/codes/newcore-rp2350/include/linux/libfdt.h **** 
 706              		.loc 3 147 2 view .LVU238
 149:/mnt/c/Users/31740/Documents/codes/newcore-rp2350/include/linux/libfdt.h **** 		| ((uint32_t)bp[1] << 16)
 707              		.loc 3 149 2 view .LVU239
 149:/mnt/c/Users/31740/Documents/codes/newcore-rp2350/include/linux/libfdt.h **** 		| ((uint32_t)bp[1] << 16)
 708              		.loc 3 149 22 is_stmt 0 view .LVU240
 709 0014 217A     		ldrb	r1, [r4, #8]	@ zero_extendqisi2
 150:/mnt/c/Users/31740/Documents/codes/newcore-rp2350/include/linux/libfdt.h **** 		| ((uint32_t)bp[2] << 8)
 710              		.loc 3 150 18 view .LVU241
 711 0016 637A     		ldrb	r3, [r4, #9]	@ zero_extendqisi2
 150:/mnt/c/Users/31740/Documents/codes/newcore-rp2350/include/linux/libfdt.h **** 		| ((uint32_t)bp[2] << 8)
 712              		.loc 3 150 22 view .LVU242
 713 0018 1B04     		lsls	r3, r3, #16
 150:/mnt/c/Users/31740/Documents/codes/newcore-rp2350/include/linux/libfdt.h **** 		| ((uint32_t)bp[2] << 8)
ARM GAS  /tmp/ccyijaMA.s 			page 23


 714              		.loc 3 150 3 view .LVU243
 715 001a 43EA0163 		orr	r3, r3, r1, lsl #24
 151:/mnt/c/Users/31740/Documents/codes/newcore-rp2350/include/linux/libfdt.h **** 		| bp[3];
 716              		.loc 3 151 18 view .LVU244
 717 001e A17A     		ldrb	r1, [r4, #10]	@ zero_extendqisi2
 151:/mnt/c/Users/31740/Documents/codes/newcore-rp2350/include/linux/libfdt.h **** 		| bp[3];
 718              		.loc 3 151 3 view .LVU245
 719 0020 43EA0123 		orr	r3, r3, r1, lsl #8
 152:/mnt/c/Users/31740/Documents/codes/newcore-rp2350/include/linux/libfdt.h **** }
 720              		.loc 3 152 7 view .LVU246
 721 0024 E17A     		ldrb	r1, [r4, #11]	@ zero_extendqisi2
 152:/mnt/c/Users/31740/Documents/codes/newcore-rp2350/include/linux/libfdt.h **** }
 722              		.loc 3 152 3 view .LVU247
 723 0026 0B43     		orrs	r3, r3, r1
 724              	.LVL68:
 152:/mnt/c/Users/31740/Documents/codes/newcore-rp2350/include/linux/libfdt.h **** }
 725              		.loc 3 152 3 view .LVU248
 726              	.LBE289:
 727              	.LBE288:
 728              		.loc 1 79 2 discriminator 1 view .LVU249
 729 0028 2B44     		add	r3, r3, r5
 730              	.LVL69:
 731              	.LBB290:
 732              	.LBI290:
 272:/mnt/c/Users/31740/Documents/codes/newcore-rp2350/include/linux/libfdt.h **** fdt_set_hdr_(off_dt_strings)
 733              		.loc 3 272 1 is_stmt 1 view .LVU250
 734              	.LBB291:
 272:/mnt/c/Users/31740/Documents/codes/newcore-rp2350/include/linux/libfdt.h **** fdt_set_hdr_(off_dt_strings)
 735              		.loc 3 272 1 view .LVU251
 272:/mnt/c/Users/31740/Documents/codes/newcore-rp2350/include/linux/libfdt.h **** fdt_set_hdr_(off_dt_strings)
 736              		.loc 3 272 1 view .LVU252
 737              	.LBB292:
 738              	.LBI292:
 739              		.file 4 "/mnt/c/Users/31740/Documents/codes/newcore-rp2350/include/linux/libfdt_env.h"
   1:/mnt/c/Users/31740/Documents/codes/newcore-rp2350/include/linux/libfdt_env.h **** /* SPDX-License-Identifier: (GPL-2.0-or-later OR BSD-2-Clause) */
   2:/mnt/c/Users/31740/Documents/codes/newcore-rp2350/include/linux/libfdt_env.h **** #ifndef LIBFDT_ENV_H
   3:/mnt/c/Users/31740/Documents/codes/newcore-rp2350/include/linux/libfdt_env.h **** #define LIBFDT_ENV_H
   4:/mnt/c/Users/31740/Documents/codes/newcore-rp2350/include/linux/libfdt_env.h **** /*
   5:/mnt/c/Users/31740/Documents/codes/newcore-rp2350/include/linux/libfdt_env.h ****  * libfdt - Flat Device Tree manipulation
   6:/mnt/c/Users/31740/Documents/codes/newcore-rp2350/include/linux/libfdt_env.h ****  * Copyright (C) 2006 David Gibson, IBM Corporation.
   7:/mnt/c/Users/31740/Documents/codes/newcore-rp2350/include/linux/libfdt_env.h ****  * Copyright 2012 Kim Phillips, Freescale Semiconductor.
   8:/mnt/c/Users/31740/Documents/codes/newcore-rp2350/include/linux/libfdt_env.h ****  */
   9:/mnt/c/Users/31740/Documents/codes/newcore-rp2350/include/linux/libfdt_env.h **** 
  10:/mnt/c/Users/31740/Documents/codes/newcore-rp2350/include/linux/libfdt_env.h **** #include <linux/types.h>
  11:/mnt/c/Users/31740/Documents/codes/newcore-rp2350/include/linux/libfdt_env.h **** #include <linux/stddef.h>
  12:/mnt/c/Users/31740/Documents/codes/newcore-rp2350/include/linux/libfdt_env.h **** #include <linux/string.h>
  13:/mnt/c/Users/31740/Documents/codes/newcore-rp2350/include/linux/libfdt_env.h **** #include <linux/limits.h>
  14:/mnt/c/Users/31740/Documents/codes/newcore-rp2350/include/linux/libfdt_env.h **** 
  15:/mnt/c/Users/31740/Documents/codes/newcore-rp2350/include/linux/libfdt_env.h **** 
  16:/mnt/c/Users/31740/Documents/codes/newcore-rp2350/include/linux/libfdt_env.h **** #ifdef __CHECKER__
  17:/mnt/c/Users/31740/Documents/codes/newcore-rp2350/include/linux/libfdt_env.h **** #define FDT_FORCE __attribute__((force))
  18:/mnt/c/Users/31740/Documents/codes/newcore-rp2350/include/linux/libfdt_env.h **** #define FDT_BITWISE __attribute__((bitwise))
  19:/mnt/c/Users/31740/Documents/codes/newcore-rp2350/include/linux/libfdt_env.h **** #else
  20:/mnt/c/Users/31740/Documents/codes/newcore-rp2350/include/linux/libfdt_env.h **** #define FDT_FORCE
  21:/mnt/c/Users/31740/Documents/codes/newcore-rp2350/include/linux/libfdt_env.h **** #define FDT_BITWISE
  22:/mnt/c/Users/31740/Documents/codes/newcore-rp2350/include/linux/libfdt_env.h **** #endif
  23:/mnt/c/Users/31740/Documents/codes/newcore-rp2350/include/linux/libfdt_env.h **** 
ARM GAS  /tmp/ccyijaMA.s 			page 24


  24:/mnt/c/Users/31740/Documents/codes/newcore-rp2350/include/linux/libfdt_env.h **** typedef uint16_t FDT_BITWISE fdt16_t;
  25:/mnt/c/Users/31740/Documents/codes/newcore-rp2350/include/linux/libfdt_env.h **** typedef uint32_t FDT_BITWISE fdt32_t;
  26:/mnt/c/Users/31740/Documents/codes/newcore-rp2350/include/linux/libfdt_env.h **** typedef uint64_t FDT_BITWISE fdt64_t;
  27:/mnt/c/Users/31740/Documents/codes/newcore-rp2350/include/linux/libfdt_env.h **** 
  28:/mnt/c/Users/31740/Documents/codes/newcore-rp2350/include/linux/libfdt_env.h **** #define EXTRACT_BYTE(x, n)	((unsigned long long)((uint8_t *)&x)[n])
  29:/mnt/c/Users/31740/Documents/codes/newcore-rp2350/include/linux/libfdt_env.h **** 
  30:/mnt/c/Users/31740/Documents/codes/newcore-rp2350/include/linux/libfdt_env.h **** #define CPU_TO_FDT16(x) ((EXTRACT_BYTE(x, 0) << 8) | EXTRACT_BYTE(x, 1))
  31:/mnt/c/Users/31740/Documents/codes/newcore-rp2350/include/linux/libfdt_env.h **** #define CPU_TO_FDT32(x) ((EXTRACT_BYTE(x, 0) << 24) | (EXTRACT_BYTE(x, 1) << 16) | \
  32:/mnt/c/Users/31740/Documents/codes/newcore-rp2350/include/linux/libfdt_env.h **** 			 (EXTRACT_BYTE(x, 2) << 8) | EXTRACT_BYTE(x, 3))
  33:/mnt/c/Users/31740/Documents/codes/newcore-rp2350/include/linux/libfdt_env.h **** #define CPU_TO_FDT64(x) ((EXTRACT_BYTE(x, 0) << 56) | (EXTRACT_BYTE(x, 1) << 48) | \
  34:/mnt/c/Users/31740/Documents/codes/newcore-rp2350/include/linux/libfdt_env.h **** 			 (EXTRACT_BYTE(x, 2) << 40) | (EXTRACT_BYTE(x, 3) << 32) | \
  35:/mnt/c/Users/31740/Documents/codes/newcore-rp2350/include/linux/libfdt_env.h **** 			 (EXTRACT_BYTE(x, 4) << 24) | (EXTRACT_BYTE(x, 5) << 16) | \
  36:/mnt/c/Users/31740/Documents/codes/newcore-rp2350/include/linux/libfdt_env.h **** 			 (EXTRACT_BYTE(x, 6) << 8) | EXTRACT_BYTE(x, 7))
  37:/mnt/c/Users/31740/Documents/codes/newcore-rp2350/include/linux/libfdt_env.h **** 
  38:/mnt/c/Users/31740/Documents/codes/newcore-rp2350/include/linux/libfdt_env.h **** 
  39:/mnt/c/Users/31740/Documents/codes/newcore-rp2350/include/linux/libfdt_env.h **** // #define CPU_TO_FDT16(x) x
  40:/mnt/c/Users/31740/Documents/codes/newcore-rp2350/include/linux/libfdt_env.h **** // #define CPU_TO_FDT32(x) x
  41:/mnt/c/Users/31740/Documents/codes/newcore-rp2350/include/linux/libfdt_env.h **** // #define CPU_TO_FDT64(x) x
  42:/mnt/c/Users/31740/Documents/codes/newcore-rp2350/include/linux/libfdt_env.h **** 
  43:/mnt/c/Users/31740/Documents/codes/newcore-rp2350/include/linux/libfdt_env.h **** 
  44:/mnt/c/Users/31740/Documents/codes/newcore-rp2350/include/linux/libfdt_env.h **** static inline uint16_t fdt16_to_cpu(fdt16_t x)
  45:/mnt/c/Users/31740/Documents/codes/newcore-rp2350/include/linux/libfdt_env.h **** {
  46:/mnt/c/Users/31740/Documents/codes/newcore-rp2350/include/linux/libfdt_env.h **** 	return (FDT_FORCE uint16_t)CPU_TO_FDT16(x);
  47:/mnt/c/Users/31740/Documents/codes/newcore-rp2350/include/linux/libfdt_env.h **** }
  48:/mnt/c/Users/31740/Documents/codes/newcore-rp2350/include/linux/libfdt_env.h **** static inline fdt16_t cpu_to_fdt16(uint16_t x)
  49:/mnt/c/Users/31740/Documents/codes/newcore-rp2350/include/linux/libfdt_env.h **** {
  50:/mnt/c/Users/31740/Documents/codes/newcore-rp2350/include/linux/libfdt_env.h **** 	return (FDT_FORCE fdt16_t)CPU_TO_FDT16(x);
  51:/mnt/c/Users/31740/Documents/codes/newcore-rp2350/include/linux/libfdt_env.h **** }
  52:/mnt/c/Users/31740/Documents/codes/newcore-rp2350/include/linux/libfdt_env.h **** 
  53:/mnt/c/Users/31740/Documents/codes/newcore-rp2350/include/linux/libfdt_env.h **** static inline uint32_t fdt32_to_cpu(fdt32_t x)
  54:/mnt/c/Users/31740/Documents/codes/newcore-rp2350/include/linux/libfdt_env.h **** {
  55:/mnt/c/Users/31740/Documents/codes/newcore-rp2350/include/linux/libfdt_env.h **** 	return (FDT_FORCE uint32_t)CPU_TO_FDT32(x);
  56:/mnt/c/Users/31740/Documents/codes/newcore-rp2350/include/linux/libfdt_env.h **** }
  57:/mnt/c/Users/31740/Documents/codes/newcore-rp2350/include/linux/libfdt_env.h **** static inline fdt32_t cpu_to_fdt32(uint32_t x)
 740              		.loc 4 57 23 view .LVU253
 741              	.LBB293:
  58:/mnt/c/Users/31740/Documents/codes/newcore-rp2350/include/linux/libfdt_env.h **** {
  59:/mnt/c/Users/31740/Documents/codes/newcore-rp2350/include/linux/libfdt_env.h **** 	return (FDT_FORCE fdt32_t)CPU_TO_FDT32(x);
 742              		.loc 4 59 2 view .LVU254
 743              		.loc 4 59 28 is_stmt 0 view .LVU255
 744 002a C3F30721 		ubfx	r1, r3, #8, #8
 745 002e 0904     		lsls	r1, r1, #16
 746 0030 41EA0361 		orr	r1, r1, r3, lsl #24
 747 0034 C3F30740 		ubfx	r0, r3, #16, #8
 748              	.LVL70:
 749              		.loc 4 59 28 view .LVU256
 750 0038 41EA0021 		orr	r1, r1, r0, lsl #8
 751              		.loc 4 59 9 view .LVU257
 752 003c 41EA1363 		orr	r3, r1, r3, lsr #24
 753              	.LVL71:
 754              		.loc 4 59 9 view .LVU258
 755              	.LBE293:
 756              	.LBE292:
 272:/mnt/c/Users/31740/Documents/codes/newcore-rp2350/include/linux/libfdt.h **** fdt_set_hdr_(off_dt_strings)
 757              		.loc 3 272 1 discriminator 1 view .LVU259
 758 0040 A360     		str	r3, [r4, #8]
 759              	.LVL72:
ARM GAS  /tmp/ccyijaMA.s 			page 25


 272:/mnt/c/Users/31740/Documents/codes/newcore-rp2350/include/linux/libfdt.h **** fdt_set_hdr_(off_dt_strings)
 760              		.loc 3 272 1 discriminator 1 view .LVU260
 761              	.LBE291:
 762              	.LBE290:
  80:/mnt/c/Users/31740/Documents/codes/newcore-rp2350/lib/fdt/fdt_rw.c **** 	fdt_set_off_dt_strings(fdt, fdt_off_dt_strings(fdt) + delta);
 763              		.loc 1 80 2 is_stmt 1 view .LVU261
 764              	.LBB294:
 765              	.LBI294:
 145:/mnt/c/Users/31740/Documents/codes/newcore-rp2350/include/linux/libfdt.h **** {
 766              		.loc 3 145 24 view .LVU262
 767              	.LBB295:
 147:/mnt/c/Users/31740/Documents/codes/newcore-rp2350/include/linux/libfdt.h **** 
 768              		.loc 3 147 2 view .LVU263
 149:/mnt/c/Users/31740/Documents/codes/newcore-rp2350/include/linux/libfdt.h **** 		| ((uint32_t)bp[1] << 16)
 769              		.loc 3 149 2 view .LVU264
 149:/mnt/c/Users/31740/Documents/codes/newcore-rp2350/include/linux/libfdt.h **** 		| ((uint32_t)bp[1] << 16)
 770              		.loc 3 149 22 is_stmt 0 view .LVU265
 771 0042 217B     		ldrb	r1, [r4, #12]	@ zero_extendqisi2
 150:/mnt/c/Users/31740/Documents/codes/newcore-rp2350/include/linux/libfdt.h **** 		| ((uint32_t)bp[2] << 8)
 772              		.loc 3 150 18 view .LVU266
 773 0044 637B     		ldrb	r3, [r4, #13]	@ zero_extendqisi2
 150:/mnt/c/Users/31740/Documents/codes/newcore-rp2350/include/linux/libfdt.h **** 		| ((uint32_t)bp[2] << 8)
 774              		.loc 3 150 22 view .LVU267
 775 0046 1B04     		lsls	r3, r3, #16
 150:/mnt/c/Users/31740/Documents/codes/newcore-rp2350/include/linux/libfdt.h **** 		| ((uint32_t)bp[2] << 8)
 776              		.loc 3 150 3 view .LVU268
 777 0048 43EA0163 		orr	r3, r3, r1, lsl #24
 151:/mnt/c/Users/31740/Documents/codes/newcore-rp2350/include/linux/libfdt.h **** 		| bp[3];
 778              		.loc 3 151 18 view .LVU269
 779 004c A17B     		ldrb	r1, [r4, #14]	@ zero_extendqisi2
 151:/mnt/c/Users/31740/Documents/codes/newcore-rp2350/include/linux/libfdt.h **** 		| bp[3];
 780              		.loc 3 151 3 view .LVU270
 781 004e 43EA0123 		orr	r3, r3, r1, lsl #8
 152:/mnt/c/Users/31740/Documents/codes/newcore-rp2350/include/linux/libfdt.h **** }
 782              		.loc 3 152 7 view .LVU271
 783 0052 E17B     		ldrb	r1, [r4, #15]	@ zero_extendqisi2
 152:/mnt/c/Users/31740/Documents/codes/newcore-rp2350/include/linux/libfdt.h **** }
 784              		.loc 3 152 3 view .LVU272
 785 0054 0B43     		orrs	r3, r3, r1
 786              	.LVL73:
 152:/mnt/c/Users/31740/Documents/codes/newcore-rp2350/include/linux/libfdt.h **** }
 787              		.loc 3 152 3 view .LVU273
 788              	.LBE295:
 789              	.LBE294:
 790              		.loc 1 80 2 discriminator 1 view .LVU274
 791 0056 1D44     		add	r5, r5, r3
 792              	.LVL74:
 793              	.LBB296:
 794              	.LBI296:
 273:/mnt/c/Users/31740/Documents/codes/newcore-rp2350/include/linux/libfdt.h **** fdt_set_hdr_(off_mem_rsvmap)
 795              		.loc 3 273 1 is_stmt 1 view .LVU275
 796              	.LBB297:
 273:/mnt/c/Users/31740/Documents/codes/newcore-rp2350/include/linux/libfdt.h **** fdt_set_hdr_(off_mem_rsvmap)
 797              		.loc 3 273 1 view .LVU276
 273:/mnt/c/Users/31740/Documents/codes/newcore-rp2350/include/linux/libfdt.h **** fdt_set_hdr_(off_mem_rsvmap)
 798              		.loc 3 273 1 view .LVU277
 799              	.LBB298:
ARM GAS  /tmp/ccyijaMA.s 			page 26


 800              	.LBI298:
  57:/mnt/c/Users/31740/Documents/codes/newcore-rp2350/include/linux/libfdt_env.h **** {
 801              		.loc 4 57 23 view .LVU278
 802              	.LBB299:
 803              		.loc 4 59 2 view .LVU279
 804              		.loc 4 59 28 is_stmt 0 view .LVU280
 805 0058 C5F30723 		ubfx	r3, r5, #8, #8
 806 005c 1B04     		lsls	r3, r3, #16
 807 005e 43EA0563 		orr	r3, r3, r5, lsl #24
 808 0062 C5F30741 		ubfx	r1, r5, #16, #8
 809 0066 43EA0123 		orr	r3, r3, r1, lsl #8
 810              		.loc 4 59 9 view .LVU281
 811 006a 43EA1565 		orr	r5, r3, r5, lsr #24
 812              	.LVL75:
 813              		.loc 4 59 9 view .LVU282
 814              	.LBE299:
 815              	.LBE298:
 273:/mnt/c/Users/31740/Documents/codes/newcore-rp2350/include/linux/libfdt.h **** fdt_set_hdr_(off_mem_rsvmap)
 816              		.loc 3 273 1 discriminator 1 view .LVU283
 817 006e E560     		str	r5, [r4, #12]
 818              	.LVL76:
 273:/mnt/c/Users/31740/Documents/codes/newcore-rp2350/include/linux/libfdt.h **** fdt_set_hdr_(off_mem_rsvmap)
 819              		.loc 3 273 1 discriminator 1 view .LVU284
 820              	.LBE297:
 821              	.LBE296:
  81:/mnt/c/Users/31740/Documents/codes/newcore-rp2350/lib/fdt/fdt_rw.c **** 	return 0;
 822              		.loc 1 81 2 is_stmt 1 view .LVU285
 823              	.L27:
  82:/mnt/c/Users/31740/Documents/codes/newcore-rp2350/lib/fdt/fdt_rw.c **** }
 824              		.loc 1 82 1 is_stmt 0 view .LVU286
 825 0070 1046     		mov	r0, r2
 826 0072 38BD     		pop	{r3, r4, r5, pc}
 827              		.loc 1 82 1 view .LVU287
 828              		.cfi_endproc
 829              	.LFE79:
 831              		.section	.text.fdt_splice_struct_,"ax",%progbits
 832              		.align	1
 833              		.syntax unified
 834              		.thumb
 835              		.thumb_func
 837              	fdt_splice_struct_:
 838              	.LVL77:
 839              	.LFB80:
  83:/mnt/c/Users/31740/Documents/codes/newcore-rp2350/lib/fdt/fdt_rw.c **** 
  84:/mnt/c/Users/31740/Documents/codes/newcore-rp2350/lib/fdt/fdt_rw.c **** static int fdt_splice_struct_(void *fdt, void *p,
  85:/mnt/c/Users/31740/Documents/codes/newcore-rp2350/lib/fdt/fdt_rw.c **** 			      int oldlen, int newlen)
  86:/mnt/c/Users/31740/Documents/codes/newcore-rp2350/lib/fdt/fdt_rw.c **** {
 840              		.loc 1 86 1 is_stmt 1 view -0
 841              		.cfi_startproc
 842              		@ args = 0, pretend = 0, frame = 0
 843              		@ frame_needed = 0, uses_anonymous_args = 0
 844              		.loc 1 86 1 is_stmt 0 view .LVU289
 845 0000 38B5     		push	{r3, r4, r5, lr}
 846              	.LCFI6:
 847              		.cfi_def_cfa_offset 16
 848              		.cfi_offset 3, -16
 849              		.cfi_offset 4, -12
ARM GAS  /tmp/ccyijaMA.s 			page 27


 850              		.cfi_offset 5, -8
 851              		.cfi_offset 14, -4
 852 0002 0446     		mov	r4, r0
  87:/mnt/c/Users/31740/Documents/codes/newcore-rp2350/lib/fdt/fdt_rw.c **** 	int delta = newlen - oldlen;
 853              		.loc 1 87 2 is_stmt 1 view .LVU290
 854              		.loc 1 87 6 is_stmt 0 view .LVU291
 855 0004 9D1A     		subs	r5, r3, r2
 856              	.LVL78:
  88:/mnt/c/Users/31740/Documents/codes/newcore-rp2350/lib/fdt/fdt_rw.c **** 	int err;
 857              		.loc 1 88 2 is_stmt 1 view .LVU292
  89:/mnt/c/Users/31740/Documents/codes/newcore-rp2350/lib/fdt/fdt_rw.c **** 
  90:/mnt/c/Users/31740/Documents/codes/newcore-rp2350/lib/fdt/fdt_rw.c **** 	if ((err = fdt_splice_(fdt, p, oldlen, newlen)))
 858              		.loc 1 90 2 view .LVU293
 859              		.loc 1 90 13 is_stmt 0 view .LVU294
 860 0006 FFF7FEFF 		bl	fdt_splice_
 861              	.LVL79:
 862              		.loc 1 90 5 discriminator 1 view .LVU295
 863 000a 0246     		mov	r2, r0
 864 000c 88BB     		cbnz	r0, .L30
  91:/mnt/c/Users/31740/Documents/codes/newcore-rp2350/lib/fdt/fdt_rw.c **** 		return err;
  92:/mnt/c/Users/31740/Documents/codes/newcore-rp2350/lib/fdt/fdt_rw.c **** 
  93:/mnt/c/Users/31740/Documents/codes/newcore-rp2350/lib/fdt/fdt_rw.c **** 	fdt_set_size_dt_struct(fdt, fdt_size_dt_struct(fdt) + delta);
 865              		.loc 1 93 2 is_stmt 1 view .LVU296
 866              	.LVL80:
 867              	.LBB300:
 868              	.LBI300:
 145:/mnt/c/Users/31740/Documents/codes/newcore-rp2350/include/linux/libfdt.h **** {
 869              		.loc 3 145 24 view .LVU297
 870              	.LBB301:
 147:/mnt/c/Users/31740/Documents/codes/newcore-rp2350/include/linux/libfdt.h **** 
 871              		.loc 3 147 2 view .LVU298
 149:/mnt/c/Users/31740/Documents/codes/newcore-rp2350/include/linux/libfdt.h **** 		| ((uint32_t)bp[1] << 16)
 872              		.loc 3 149 2 view .LVU299
 149:/mnt/c/Users/31740/Documents/codes/newcore-rp2350/include/linux/libfdt.h **** 		| ((uint32_t)bp[1] << 16)
 873              		.loc 3 149 22 is_stmt 0 view .LVU300
 874 000e 94F82430 		ldrb	r3, [r4, #36]	@ zero_extendqisi2
 150:/mnt/c/Users/31740/Documents/codes/newcore-rp2350/include/linux/libfdt.h **** 		| ((uint32_t)bp[2] << 8)
 875              		.loc 3 150 18 view .LVU301
 876 0012 94F82510 		ldrb	r1, [r4, #37]	@ zero_extendqisi2
 150:/mnt/c/Users/31740/Documents/codes/newcore-rp2350/include/linux/libfdt.h **** 		| ((uint32_t)bp[2] << 8)
 877              		.loc 3 150 22 view .LVU302
 878 0016 0904     		lsls	r1, r1, #16
 150:/mnt/c/Users/31740/Documents/codes/newcore-rp2350/include/linux/libfdt.h **** 		| ((uint32_t)bp[2] << 8)
 879              		.loc 3 150 3 view .LVU303
 880 0018 41EA0361 		orr	r1, r1, r3, lsl #24
 151:/mnt/c/Users/31740/Documents/codes/newcore-rp2350/include/linux/libfdt.h **** 		| bp[3];
 881              		.loc 3 151 18 view .LVU304
 882 001c 94F82630 		ldrb	r3, [r4, #38]	@ zero_extendqisi2
 151:/mnt/c/Users/31740/Documents/codes/newcore-rp2350/include/linux/libfdt.h **** 		| bp[3];
 883              		.loc 3 151 3 view .LVU305
 884 0020 41EA0321 		orr	r1, r1, r3, lsl #8
 152:/mnt/c/Users/31740/Documents/codes/newcore-rp2350/include/linux/libfdt.h **** }
 885              		.loc 3 152 7 view .LVU306
 886 0024 94F82730 		ldrb	r3, [r4, #39]	@ zero_extendqisi2
 152:/mnt/c/Users/31740/Documents/codes/newcore-rp2350/include/linux/libfdt.h **** }
 887              		.loc 3 152 3 view .LVU307
 888 0028 1943     		orrs	r1, r1, r3
ARM GAS  /tmp/ccyijaMA.s 			page 28


 889              	.LVL81:
 152:/mnt/c/Users/31740/Documents/codes/newcore-rp2350/include/linux/libfdt.h **** }
 890              		.loc 3 152 3 view .LVU308
 891              	.LBE301:
 892              	.LBE300:
 893              		.loc 1 93 2 discriminator 1 view .LVU309
 894 002a 2944     		add	r1, r1, r5
 895              	.LVL82:
 896              	.LBB302:
 897              	.LBI302:
 276:/mnt/c/Users/31740/Documents/codes/newcore-rp2350/include/linux/libfdt.h **** fdt_set_hdr_(last_comp_version)
 277:/mnt/c/Users/31740/Documents/codes/newcore-rp2350/include/linux/libfdt.h **** fdt_set_hdr_(boot_cpuid_phys)
 278:/mnt/c/Users/31740/Documents/codes/newcore-rp2350/include/linux/libfdt.h **** fdt_set_hdr_(size_dt_strings)
 279:/mnt/c/Users/31740/Documents/codes/newcore-rp2350/include/linux/libfdt.h **** fdt_set_hdr_(size_dt_struct)
 898              		.loc 3 279 1 is_stmt 1 view .LVU310
 899              	.LBB303:
 900              		.loc 3 279 1 view .LVU311
 901              		.loc 3 279 1 view .LVU312
 902              	.LBB304:
 903              	.LBI304:
  57:/mnt/c/Users/31740/Documents/codes/newcore-rp2350/include/linux/libfdt_env.h **** {
 904              		.loc 4 57 23 view .LVU313
 905              	.LBB305:
 906              		.loc 4 59 2 view .LVU314
 907              		.loc 4 59 28 is_stmt 0 view .LVU315
 908 002c C1F30723 		ubfx	r3, r1, #8, #8
 909 0030 1B04     		lsls	r3, r3, #16
 910 0032 43EA0163 		orr	r3, r3, r1, lsl #24
 911 0036 C1F30740 		ubfx	r0, r1, #16, #8
 912              	.LVL83:
 913              		.loc 4 59 28 view .LVU316
 914 003a 43EA0023 		orr	r3, r3, r0, lsl #8
 915              		.loc 4 59 9 view .LVU317
 916 003e 43EA1163 		orr	r3, r3, r1, lsr #24
 917              	.LVL84:
 918              		.loc 4 59 9 view .LVU318
 919              	.LBE305:
 920              	.LBE304:
 921              		.loc 3 279 1 discriminator 1 view .LVU319
 922 0042 6362     		str	r3, [r4, #36]
 923              	.LVL85:
 924              		.loc 3 279 1 discriminator 1 view .LVU320
 925              	.LBE303:
 926              	.LBE302:
  94:/mnt/c/Users/31740/Documents/codes/newcore-rp2350/lib/fdt/fdt_rw.c **** 	fdt_set_off_dt_strings(fdt, fdt_off_dt_strings(fdt) + delta);
 927              		.loc 1 94 2 is_stmt 1 view .LVU321
 928              	.LBB306:
 929              	.LBI306:
 145:/mnt/c/Users/31740/Documents/codes/newcore-rp2350/include/linux/libfdt.h **** {
 930              		.loc 3 145 24 view .LVU322
 931              	.LBB307:
 147:/mnt/c/Users/31740/Documents/codes/newcore-rp2350/include/linux/libfdt.h **** 
 932              		.loc 3 147 2 view .LVU323
 149:/mnt/c/Users/31740/Documents/codes/newcore-rp2350/include/linux/libfdt.h **** 		| ((uint32_t)bp[1] << 16)
 933              		.loc 3 149 2 view .LVU324
 149:/mnt/c/Users/31740/Documents/codes/newcore-rp2350/include/linux/libfdt.h **** 		| ((uint32_t)bp[1] << 16)
 934              		.loc 3 149 22 is_stmt 0 view .LVU325
ARM GAS  /tmp/ccyijaMA.s 			page 29


 935 0044 217B     		ldrb	r1, [r4, #12]	@ zero_extendqisi2
 150:/mnt/c/Users/31740/Documents/codes/newcore-rp2350/include/linux/libfdt.h **** 		| ((uint32_t)bp[2] << 8)
 936              		.loc 3 150 18 view .LVU326
 937 0046 637B     		ldrb	r3, [r4, #13]	@ zero_extendqisi2
 150:/mnt/c/Users/31740/Documents/codes/newcore-rp2350/include/linux/libfdt.h **** 		| ((uint32_t)bp[2] << 8)
 938              		.loc 3 150 22 view .LVU327
 939 0048 1B04     		lsls	r3, r3, #16
 150:/mnt/c/Users/31740/Documents/codes/newcore-rp2350/include/linux/libfdt.h **** 		| ((uint32_t)bp[2] << 8)
 940              		.loc 3 150 3 view .LVU328
 941 004a 43EA0163 		orr	r3, r3, r1, lsl #24
 151:/mnt/c/Users/31740/Documents/codes/newcore-rp2350/include/linux/libfdt.h **** 		| bp[3];
 942              		.loc 3 151 18 view .LVU329
 943 004e A17B     		ldrb	r1, [r4, #14]	@ zero_extendqisi2
 151:/mnt/c/Users/31740/Documents/codes/newcore-rp2350/include/linux/libfdt.h **** 		| bp[3];
 944              		.loc 3 151 3 view .LVU330
 945 0050 43EA0123 		orr	r3, r3, r1, lsl #8
 152:/mnt/c/Users/31740/Documents/codes/newcore-rp2350/include/linux/libfdt.h **** }
 946              		.loc 3 152 7 view .LVU331
 947 0054 E17B     		ldrb	r1, [r4, #15]	@ zero_extendqisi2
 152:/mnt/c/Users/31740/Documents/codes/newcore-rp2350/include/linux/libfdt.h **** }
 948              		.loc 3 152 3 view .LVU332
 949 0056 0B43     		orrs	r3, r3, r1
 950              	.LVL86:
 152:/mnt/c/Users/31740/Documents/codes/newcore-rp2350/include/linux/libfdt.h **** }
 951              		.loc 3 152 3 view .LVU333
 952              	.LBE307:
 953              	.LBE306:
 954              		.loc 1 94 2 discriminator 1 view .LVU334
 955 0058 1D44     		add	r5, r5, r3
 956              	.LVL87:
 957              	.LBB308:
 958              	.LBI308:
 273:/mnt/c/Users/31740/Documents/codes/newcore-rp2350/include/linux/libfdt.h **** fdt_set_hdr_(off_mem_rsvmap)
 959              		.loc 3 273 1 is_stmt 1 view .LVU335
 960              	.LBB309:
 273:/mnt/c/Users/31740/Documents/codes/newcore-rp2350/include/linux/libfdt.h **** fdt_set_hdr_(off_mem_rsvmap)
 961              		.loc 3 273 1 view .LVU336
 273:/mnt/c/Users/31740/Documents/codes/newcore-rp2350/include/linux/libfdt.h **** fdt_set_hdr_(off_mem_rsvmap)
 962              		.loc 3 273 1 view .LVU337
 963              	.LBB310:
 964              	.LBI310:
  57:/mnt/c/Users/31740/Documents/codes/newcore-rp2350/include/linux/libfdt_env.h **** {
 965              		.loc 4 57 23 view .LVU338
 966              	.LBB311:
 967              		.loc 4 59 2 view .LVU339
 968              		.loc 4 59 28 is_stmt 0 view .LVU340
 969 005a C5F30723 		ubfx	r3, r5, #8, #8
 970 005e 1B04     		lsls	r3, r3, #16
 971 0060 43EA0563 		orr	r3, r3, r5, lsl #24
 972 0064 C5F30741 		ubfx	r1, r5, #16, #8
 973 0068 43EA0123 		orr	r3, r3, r1, lsl #8
 974              		.loc 4 59 9 view .LVU341
 975 006c 43EA1565 		orr	r5, r3, r5, lsr #24
 976              	.LVL88:
 977              		.loc 4 59 9 view .LVU342
 978              	.LBE311:
 979              	.LBE310:
ARM GAS  /tmp/ccyijaMA.s 			page 30


 273:/mnt/c/Users/31740/Documents/codes/newcore-rp2350/include/linux/libfdt.h **** fdt_set_hdr_(off_mem_rsvmap)
 980              		.loc 3 273 1 discriminator 1 view .LVU343
 981 0070 E560     		str	r5, [r4, #12]
 982              	.LVL89:
 273:/mnt/c/Users/31740/Documents/codes/newcore-rp2350/include/linux/libfdt.h **** fdt_set_hdr_(off_mem_rsvmap)
 983              		.loc 3 273 1 discriminator 1 view .LVU344
 984              	.LBE309:
 985              	.LBE308:
  95:/mnt/c/Users/31740/Documents/codes/newcore-rp2350/lib/fdt/fdt_rw.c **** 	return 0;
 986              		.loc 1 95 2 is_stmt 1 view .LVU345
 987              	.L30:
  96:/mnt/c/Users/31740/Documents/codes/newcore-rp2350/lib/fdt/fdt_rw.c **** }
 988              		.loc 1 96 1 is_stmt 0 view .LVU346
 989 0072 1046     		mov	r0, r2
 990 0074 38BD     		pop	{r3, r4, r5, pc}
 991              		.loc 1 96 1 view .LVU347
 992              		.cfi_endproc
 993              	.LFE80:
 995              		.section	.text.fdt_splice_string_,"ax",%progbits
 996              		.align	1
 997              		.syntax unified
 998              		.thumb
 999              		.thumb_func
 1001              	fdt_splice_string_:
 1002              	.LVL90:
 1003              	.LFB82:
  97:/mnt/c/Users/31740/Documents/codes/newcore-rp2350/lib/fdt/fdt_rw.c **** 
  98:/mnt/c/Users/31740/Documents/codes/newcore-rp2350/lib/fdt/fdt_rw.c **** /* Must only be used to roll back in case of error */
  99:/mnt/c/Users/31740/Documents/codes/newcore-rp2350/lib/fdt/fdt_rw.c **** static void fdt_del_last_string_(void *fdt, const char *s)
 100:/mnt/c/Users/31740/Documents/codes/newcore-rp2350/lib/fdt/fdt_rw.c **** {
 101:/mnt/c/Users/31740/Documents/codes/newcore-rp2350/lib/fdt/fdt_rw.c **** 	int newlen = strlen(s) + 1;
 102:/mnt/c/Users/31740/Documents/codes/newcore-rp2350/lib/fdt/fdt_rw.c **** 
 103:/mnt/c/Users/31740/Documents/codes/newcore-rp2350/lib/fdt/fdt_rw.c **** 	fdt_set_size_dt_strings(fdt, fdt_size_dt_strings(fdt) - newlen);
 104:/mnt/c/Users/31740/Documents/codes/newcore-rp2350/lib/fdt/fdt_rw.c **** }
 105:/mnt/c/Users/31740/Documents/codes/newcore-rp2350/lib/fdt/fdt_rw.c **** 
 106:/mnt/c/Users/31740/Documents/codes/newcore-rp2350/lib/fdt/fdt_rw.c **** static int fdt_splice_string_(void *fdt, int newlen)
 107:/mnt/c/Users/31740/Documents/codes/newcore-rp2350/lib/fdt/fdt_rw.c **** {
 1004              		.loc 1 107 1 is_stmt 1 view -0
 1005              		.cfi_startproc
 1006              		@ args = 0, pretend = 0, frame = 0
 1007              		@ frame_needed = 0, uses_anonymous_args = 0
 1008              		.loc 1 107 1 is_stmt 0 view .LVU349
 1009 0000 38B5     		push	{r3, r4, r5, lr}
 1010              	.LCFI7:
 1011              		.cfi_def_cfa_offset 16
 1012              		.cfi_offset 3, -16
 1013              		.cfi_offset 4, -12
 1014              		.cfi_offset 5, -8
 1015              		.cfi_offset 14, -4
 1016 0002 0446     		mov	r4, r0
 1017 0004 0D46     		mov	r5, r1
 108:/mnt/c/Users/31740/Documents/codes/newcore-rp2350/lib/fdt/fdt_rw.c **** 	void *p = (char *)fdt
 1018              		.loc 1 108 2 is_stmt 1 view .LVU350
 1019              	.LVL91:
 1020              	.LBB312:
 1021              	.LBI312:
 145:/mnt/c/Users/31740/Documents/codes/newcore-rp2350/include/linux/libfdt.h **** {
ARM GAS  /tmp/ccyijaMA.s 			page 31


 1022              		.loc 3 145 24 view .LVU351
 1023              	.LBB313:
 147:/mnt/c/Users/31740/Documents/codes/newcore-rp2350/include/linux/libfdt.h **** 
 1024              		.loc 3 147 2 view .LVU352
 149:/mnt/c/Users/31740/Documents/codes/newcore-rp2350/include/linux/libfdt.h **** 		| ((uint32_t)bp[1] << 16)
 1025              		.loc 3 149 2 view .LVU353
 149:/mnt/c/Users/31740/Documents/codes/newcore-rp2350/include/linux/libfdt.h **** 		| ((uint32_t)bp[1] << 16)
 1026              		.loc 3 149 22 is_stmt 0 view .LVU354
 1027 0006 027B     		ldrb	r2, [r0, #12]	@ zero_extendqisi2
 150:/mnt/c/Users/31740/Documents/codes/newcore-rp2350/include/linux/libfdt.h **** 		| ((uint32_t)bp[2] << 8)
 1028              		.loc 3 150 18 view .LVU355
 1029 0008 437B     		ldrb	r3, [r0, #13]	@ zero_extendqisi2
 150:/mnt/c/Users/31740/Documents/codes/newcore-rp2350/include/linux/libfdt.h **** 		| ((uint32_t)bp[2] << 8)
 1030              		.loc 3 150 22 view .LVU356
 1031 000a 1B04     		lsls	r3, r3, #16
 150:/mnt/c/Users/31740/Documents/codes/newcore-rp2350/include/linux/libfdt.h **** 		| ((uint32_t)bp[2] << 8)
 1032              		.loc 3 150 3 view .LVU357
 1033 000c 43EA0263 		orr	r3, r3, r2, lsl #24
 151:/mnt/c/Users/31740/Documents/codes/newcore-rp2350/include/linux/libfdt.h **** 		| bp[3];
 1034              		.loc 3 151 18 view .LVU358
 1035 0010 827B     		ldrb	r2, [r0, #14]	@ zero_extendqisi2
 151:/mnt/c/Users/31740/Documents/codes/newcore-rp2350/include/linux/libfdt.h **** 		| bp[3];
 1036              		.loc 3 151 3 view .LVU359
 1037 0012 43EA0223 		orr	r3, r3, r2, lsl #8
 152:/mnt/c/Users/31740/Documents/codes/newcore-rp2350/include/linux/libfdt.h **** }
 1038              		.loc 3 152 7 view .LVU360
 1039 0016 C27B     		ldrb	r2, [r0, #15]	@ zero_extendqisi2
 152:/mnt/c/Users/31740/Documents/codes/newcore-rp2350/include/linux/libfdt.h **** }
 1040              		.loc 3 152 3 view .LVU361
 1041 0018 1343     		orrs	r3, r3, r2
 1042              	.LVL92:
 152:/mnt/c/Users/31740/Documents/codes/newcore-rp2350/include/linux/libfdt.h **** }
 1043              		.loc 3 152 3 view .LVU362
 1044              	.LBE313:
 1045              	.LBE312:
 1046              	.LBB314:
 1047              	.LBI314:
 145:/mnt/c/Users/31740/Documents/codes/newcore-rp2350/include/linux/libfdt.h **** {
 1048              		.loc 3 145 24 is_stmt 1 view .LVU363
 1049              	.LBB315:
 147:/mnt/c/Users/31740/Documents/codes/newcore-rp2350/include/linux/libfdt.h **** 
 1050              		.loc 3 147 2 view .LVU364
 149:/mnt/c/Users/31740/Documents/codes/newcore-rp2350/include/linux/libfdt.h **** 		| ((uint32_t)bp[1] << 16)
 1051              		.loc 3 149 2 view .LVU365
 149:/mnt/c/Users/31740/Documents/codes/newcore-rp2350/include/linux/libfdt.h **** 		| ((uint32_t)bp[1] << 16)
 1052              		.loc 3 149 22 is_stmt 0 view .LVU366
 1053 001a 90F82020 		ldrb	r2, [r0, #32]	@ zero_extendqisi2
 150:/mnt/c/Users/31740/Documents/codes/newcore-rp2350/include/linux/libfdt.h **** 		| ((uint32_t)bp[2] << 8)
 1054              		.loc 3 150 18 view .LVU367
 1055 001e 90F821C0 		ldrb	ip, [r0, #33]	@ zero_extendqisi2
 150:/mnt/c/Users/31740/Documents/codes/newcore-rp2350/include/linux/libfdt.h **** 		| ((uint32_t)bp[2] << 8)
 1056              		.loc 3 150 22 view .LVU368
 1057 0022 4FEA0C4C 		lsl	ip, ip, #16
 150:/mnt/c/Users/31740/Documents/codes/newcore-rp2350/include/linux/libfdt.h **** 		| ((uint32_t)bp[2] << 8)
 1058              		.loc 3 150 3 view .LVU369
 1059 0026 4CEA026C 		orr	ip, ip, r2, lsl #24
 151:/mnt/c/Users/31740/Documents/codes/newcore-rp2350/include/linux/libfdt.h **** 		| bp[3];
ARM GAS  /tmp/ccyijaMA.s 			page 32


 1060              		.loc 3 151 18 view .LVU370
 1061 002a 90F82220 		ldrb	r2, [r0, #34]	@ zero_extendqisi2
 151:/mnt/c/Users/31740/Documents/codes/newcore-rp2350/include/linux/libfdt.h **** 		| bp[3];
 1062              		.loc 3 151 3 view .LVU371
 1063 002e 4CEA022C 		orr	ip, ip, r2, lsl #8
 152:/mnt/c/Users/31740/Documents/codes/newcore-rp2350/include/linux/libfdt.h **** }
 1064              		.loc 3 152 7 view .LVU372
 1065 0032 90F82320 		ldrb	r2, [r0, #35]	@ zero_extendqisi2
 152:/mnt/c/Users/31740/Documents/codes/newcore-rp2350/include/linux/libfdt.h **** }
 1066              		.loc 3 152 3 view .LVU373
 1067 0036 4CEA020C 		orr	ip, ip, r2
 1068              	.LVL93:
 152:/mnt/c/Users/31740/Documents/codes/newcore-rp2350/include/linux/libfdt.h **** }
 1069              		.loc 3 152 3 view .LVU374
 1070              	.LBE315:
 1071              	.LBE314:
 109:/mnt/c/Users/31740/Documents/codes/newcore-rp2350/lib/fdt/fdt_rw.c **** 		+ fdt_off_dt_strings(fdt) + fdt_size_dt_strings(fdt);
 1072              		.loc 1 109 29 discriminator 2 view .LVU375
 1073 003a 9C44     		add	ip, ip, r3
 1074              	.LVL94:
 110:/mnt/c/Users/31740/Documents/codes/newcore-rp2350/lib/fdt/fdt_rw.c **** 	int err;
 1075              		.loc 1 110 2 is_stmt 1 view .LVU376
 111:/mnt/c/Users/31740/Documents/codes/newcore-rp2350/lib/fdt/fdt_rw.c **** 
 112:/mnt/c/Users/31740/Documents/codes/newcore-rp2350/lib/fdt/fdt_rw.c **** 	if ((err = fdt_splice_(fdt, p, 0, newlen)))
 1076              		.loc 1 112 2 view .LVU377
 1077              		.loc 1 112 13 is_stmt 0 view .LVU378
 1078 003c 0B46     		mov	r3, r1
 1079 003e 0022     		movs	r2, #0
 1080 0040 00EB0C01 		add	r1, r0, ip
 1081              	.LVL95:
 1082              		.loc 1 112 13 view .LVU379
 1083 0044 FFF7FEFF 		bl	fdt_splice_
 1084              	.LVL96:
 1085              		.loc 1 112 5 discriminator 1 view .LVU380
 1086 0048 0246     		mov	r2, r0
 1087 004a D0B9     		cbnz	r0, .L33
 113:/mnt/c/Users/31740/Documents/codes/newcore-rp2350/lib/fdt/fdt_rw.c **** 		return err;
 114:/mnt/c/Users/31740/Documents/codes/newcore-rp2350/lib/fdt/fdt_rw.c **** 
 115:/mnt/c/Users/31740/Documents/codes/newcore-rp2350/lib/fdt/fdt_rw.c **** 	fdt_set_size_dt_strings(fdt, fdt_size_dt_strings(fdt) + newlen);
 1088              		.loc 1 115 2 is_stmt 1 view .LVU381
 1089              	.LVL97:
 1090              	.LBB316:
 1091              	.LBI316:
 145:/mnt/c/Users/31740/Documents/codes/newcore-rp2350/include/linux/libfdt.h **** {
 1092              		.loc 3 145 24 view .LVU382
 1093              	.LBB317:
 147:/mnt/c/Users/31740/Documents/codes/newcore-rp2350/include/linux/libfdt.h **** 
 1094              		.loc 3 147 2 view .LVU383
 149:/mnt/c/Users/31740/Documents/codes/newcore-rp2350/include/linux/libfdt.h **** 		| ((uint32_t)bp[1] << 16)
 1095              		.loc 3 149 2 view .LVU384
 149:/mnt/c/Users/31740/Documents/codes/newcore-rp2350/include/linux/libfdt.h **** 		| ((uint32_t)bp[1] << 16)
 1096              		.loc 3 149 22 is_stmt 0 view .LVU385
 1097 004c 94F82010 		ldrb	r1, [r4, #32]	@ zero_extendqisi2
 150:/mnt/c/Users/31740/Documents/codes/newcore-rp2350/include/linux/libfdt.h **** 		| ((uint32_t)bp[2] << 8)
 1098              		.loc 3 150 18 view .LVU386
 1099 0050 94F82130 		ldrb	r3, [r4, #33]	@ zero_extendqisi2
 150:/mnt/c/Users/31740/Documents/codes/newcore-rp2350/include/linux/libfdt.h **** 		| ((uint32_t)bp[2] << 8)
ARM GAS  /tmp/ccyijaMA.s 			page 33


 1100              		.loc 3 150 22 view .LVU387
 1101 0054 1B04     		lsls	r3, r3, #16
 150:/mnt/c/Users/31740/Documents/codes/newcore-rp2350/include/linux/libfdt.h **** 		| ((uint32_t)bp[2] << 8)
 1102              		.loc 3 150 3 view .LVU388
 1103 0056 43EA0163 		orr	r3, r3, r1, lsl #24
 151:/mnt/c/Users/31740/Documents/codes/newcore-rp2350/include/linux/libfdt.h **** 		| bp[3];
 1104              		.loc 3 151 18 view .LVU389
 1105 005a 94F82210 		ldrb	r1, [r4, #34]	@ zero_extendqisi2
 151:/mnt/c/Users/31740/Documents/codes/newcore-rp2350/include/linux/libfdt.h **** 		| bp[3];
 1106              		.loc 3 151 3 view .LVU390
 1107 005e 43EA0123 		orr	r3, r3, r1, lsl #8
 152:/mnt/c/Users/31740/Documents/codes/newcore-rp2350/include/linux/libfdt.h **** }
 1108              		.loc 3 152 7 view .LVU391
 1109 0062 94F82310 		ldrb	r1, [r4, #35]	@ zero_extendqisi2
 152:/mnt/c/Users/31740/Documents/codes/newcore-rp2350/include/linux/libfdt.h **** }
 1110              		.loc 3 152 3 view .LVU392
 1111 0066 0B43     		orrs	r3, r3, r1
 1112              	.LVL98:
 152:/mnt/c/Users/31740/Documents/codes/newcore-rp2350/include/linux/libfdt.h **** }
 1113              		.loc 3 152 3 view .LVU393
 1114              	.LBE317:
 1115              	.LBE316:
 1116              		.loc 1 115 2 discriminator 1 view .LVU394
 1117 0068 1D44     		add	r5, r5, r3
 1118              	.LVL99:
 1119              	.LBB318:
 1120              	.LBI318:
 278:/mnt/c/Users/31740/Documents/codes/newcore-rp2350/include/linux/libfdt.h **** fdt_set_hdr_(size_dt_struct)
 1121              		.loc 3 278 1 is_stmt 1 view .LVU395
 1122              	.LBB319:
 278:/mnt/c/Users/31740/Documents/codes/newcore-rp2350/include/linux/libfdt.h **** fdt_set_hdr_(size_dt_struct)
 1123              		.loc 3 278 1 view .LVU396
 278:/mnt/c/Users/31740/Documents/codes/newcore-rp2350/include/linux/libfdt.h **** fdt_set_hdr_(size_dt_struct)
 1124              		.loc 3 278 1 view .LVU397
 1125              	.LBB320:
 1126              	.LBI320:
  57:/mnt/c/Users/31740/Documents/codes/newcore-rp2350/include/linux/libfdt_env.h **** {
 1127              		.loc 4 57 23 view .LVU398
 1128              	.LBB321:
 1129              		.loc 4 59 2 view .LVU399
 1130              		.loc 4 59 28 is_stmt 0 view .LVU400
 1131 006a C5F30723 		ubfx	r3, r5, #8, #8
 1132 006e 1B04     		lsls	r3, r3, #16
 1133 0070 43EA0563 		orr	r3, r3, r5, lsl #24
 1134 0074 C5F30741 		ubfx	r1, r5, #16, #8
 1135 0078 43EA0123 		orr	r3, r3, r1, lsl #8
 1136              		.loc 4 59 9 view .LVU401
 1137 007c 43EA1565 		orr	r5, r3, r5, lsr #24
 1138              	.LVL100:
 1139              		.loc 4 59 9 view .LVU402
 1140              	.LBE321:
 1141              	.LBE320:
 278:/mnt/c/Users/31740/Documents/codes/newcore-rp2350/include/linux/libfdt.h **** fdt_set_hdr_(size_dt_struct)
 1142              		.loc 3 278 1 discriminator 1 view .LVU403
 1143 0080 2562     		str	r5, [r4, #32]
 1144              	.LVL101:
 278:/mnt/c/Users/31740/Documents/codes/newcore-rp2350/include/linux/libfdt.h **** fdt_set_hdr_(size_dt_struct)
ARM GAS  /tmp/ccyijaMA.s 			page 34


 1145              		.loc 3 278 1 discriminator 1 view .LVU404
 1146              	.LBE319:
 1147              	.LBE318:
 116:/mnt/c/Users/31740/Documents/codes/newcore-rp2350/lib/fdt/fdt_rw.c **** 	return 0;
 1148              		.loc 1 116 2 is_stmt 1 view .LVU405
 1149              	.L33:
 117:/mnt/c/Users/31740/Documents/codes/newcore-rp2350/lib/fdt/fdt_rw.c **** }
 1150              		.loc 1 117 1 is_stmt 0 view .LVU406
 1151 0082 1046     		mov	r0, r2
 1152              	.LVL102:
 1153              		.loc 1 117 1 view .LVU407
 1154 0084 38BD     		pop	{r3, r4, r5, pc}
 1155              		.loc 1 117 1 view .LVU408
 1156              		.cfi_endproc
 1157              	.LFE82:
 1159              		.section	.text.fdt_packblocks_,"ax",%progbits
 1160              		.align	1
 1161              		.syntax unified
 1162              		.thumb
 1163              		.thumb_func
 1165              	fdt_packblocks_:
 1166              	.LVL103:
 1167              	.LFB96:
 118:/mnt/c/Users/31740/Documents/codes/newcore-rp2350/lib/fdt/fdt_rw.c **** 
 119:/mnt/c/Users/31740/Documents/codes/newcore-rp2350/lib/fdt/fdt_rw.c **** /**
 120:/mnt/c/Users/31740/Documents/codes/newcore-rp2350/lib/fdt/fdt_rw.c ****  * fdt_find_add_string_() - Find or allocate a string
 121:/mnt/c/Users/31740/Documents/codes/newcore-rp2350/lib/fdt/fdt_rw.c ****  *
 122:/mnt/c/Users/31740/Documents/codes/newcore-rp2350/lib/fdt/fdt_rw.c ****  * @fdt: pointer to the device tree to check/adjust
 123:/mnt/c/Users/31740/Documents/codes/newcore-rp2350/lib/fdt/fdt_rw.c ****  * @s: string to find/add
 124:/mnt/c/Users/31740/Documents/codes/newcore-rp2350/lib/fdt/fdt_rw.c ****  * @allocated: Set to 0 if the string was found, 1 if not found and so
 125:/mnt/c/Users/31740/Documents/codes/newcore-rp2350/lib/fdt/fdt_rw.c ****  *	allocated. Ignored if can_assume(NO_ROLLBACK)
 126:/mnt/c/Users/31740/Documents/codes/newcore-rp2350/lib/fdt/fdt_rw.c ****  * @return offset of string in the string table (whether found or added)
 127:/mnt/c/Users/31740/Documents/codes/newcore-rp2350/lib/fdt/fdt_rw.c ****  */
 128:/mnt/c/Users/31740/Documents/codes/newcore-rp2350/lib/fdt/fdt_rw.c **** static int fdt_find_add_string_(void *fdt, const char *s, int slen,
 129:/mnt/c/Users/31740/Documents/codes/newcore-rp2350/lib/fdt/fdt_rw.c **** 				int *allocated)
 130:/mnt/c/Users/31740/Documents/codes/newcore-rp2350/lib/fdt/fdt_rw.c **** {
 131:/mnt/c/Users/31740/Documents/codes/newcore-rp2350/lib/fdt/fdt_rw.c **** 	char *strtab = (char *)fdt + fdt_off_dt_strings(fdt);
 132:/mnt/c/Users/31740/Documents/codes/newcore-rp2350/lib/fdt/fdt_rw.c **** 	const char *p;
 133:/mnt/c/Users/31740/Documents/codes/newcore-rp2350/lib/fdt/fdt_rw.c **** 	char *new;
 134:/mnt/c/Users/31740/Documents/codes/newcore-rp2350/lib/fdt/fdt_rw.c **** 	int err;
 135:/mnt/c/Users/31740/Documents/codes/newcore-rp2350/lib/fdt/fdt_rw.c **** 
 136:/mnt/c/Users/31740/Documents/codes/newcore-rp2350/lib/fdt/fdt_rw.c **** 	if (!can_assume(NO_ROLLBACK))
 137:/mnt/c/Users/31740/Documents/codes/newcore-rp2350/lib/fdt/fdt_rw.c **** 		*allocated = 0;
 138:/mnt/c/Users/31740/Documents/codes/newcore-rp2350/lib/fdt/fdt_rw.c **** 
 139:/mnt/c/Users/31740/Documents/codes/newcore-rp2350/lib/fdt/fdt_rw.c **** 	p = fdt_find_string_len_(strtab, fdt_size_dt_strings(fdt), s, slen);
 140:/mnt/c/Users/31740/Documents/codes/newcore-rp2350/lib/fdt/fdt_rw.c **** 	if (p)
 141:/mnt/c/Users/31740/Documents/codes/newcore-rp2350/lib/fdt/fdt_rw.c **** 		/* found it */
 142:/mnt/c/Users/31740/Documents/codes/newcore-rp2350/lib/fdt/fdt_rw.c **** 		return (p - strtab);
 143:/mnt/c/Users/31740/Documents/codes/newcore-rp2350/lib/fdt/fdt_rw.c **** 
 144:/mnt/c/Users/31740/Documents/codes/newcore-rp2350/lib/fdt/fdt_rw.c **** 	new = strtab + fdt_size_dt_strings(fdt);
 145:/mnt/c/Users/31740/Documents/codes/newcore-rp2350/lib/fdt/fdt_rw.c **** 	err = fdt_splice_string_(fdt, slen + 1);
 146:/mnt/c/Users/31740/Documents/codes/newcore-rp2350/lib/fdt/fdt_rw.c **** 	if (err)
 147:/mnt/c/Users/31740/Documents/codes/newcore-rp2350/lib/fdt/fdt_rw.c **** 		return err;
 148:/mnt/c/Users/31740/Documents/codes/newcore-rp2350/lib/fdt/fdt_rw.c **** 
 149:/mnt/c/Users/31740/Documents/codes/newcore-rp2350/lib/fdt/fdt_rw.c **** 	if (!can_assume(NO_ROLLBACK))
 150:/mnt/c/Users/31740/Documents/codes/newcore-rp2350/lib/fdt/fdt_rw.c **** 		*allocated = 1;
 151:/mnt/c/Users/31740/Documents/codes/newcore-rp2350/lib/fdt/fdt_rw.c **** 
ARM GAS  /tmp/ccyijaMA.s 			page 35


 152:/mnt/c/Users/31740/Documents/codes/newcore-rp2350/lib/fdt/fdt_rw.c **** 	memcpy(new, s, slen);
 153:/mnt/c/Users/31740/Documents/codes/newcore-rp2350/lib/fdt/fdt_rw.c **** 	new[slen] = '\0';
 154:/mnt/c/Users/31740/Documents/codes/newcore-rp2350/lib/fdt/fdt_rw.c **** 
 155:/mnt/c/Users/31740/Documents/codes/newcore-rp2350/lib/fdt/fdt_rw.c **** 	return (new - strtab);
 156:/mnt/c/Users/31740/Documents/codes/newcore-rp2350/lib/fdt/fdt_rw.c **** }
 157:/mnt/c/Users/31740/Documents/codes/newcore-rp2350/lib/fdt/fdt_rw.c **** 
 158:/mnt/c/Users/31740/Documents/codes/newcore-rp2350/lib/fdt/fdt_rw.c **** int fdt_add_mem_rsv(void *fdt, uint64_t address, uint64_t size)
 159:/mnt/c/Users/31740/Documents/codes/newcore-rp2350/lib/fdt/fdt_rw.c **** {
 160:/mnt/c/Users/31740/Documents/codes/newcore-rp2350/lib/fdt/fdt_rw.c **** 	struct fdt_reserve_entry *re;
 161:/mnt/c/Users/31740/Documents/codes/newcore-rp2350/lib/fdt/fdt_rw.c **** 	int err;
 162:/mnt/c/Users/31740/Documents/codes/newcore-rp2350/lib/fdt/fdt_rw.c **** 
 163:/mnt/c/Users/31740/Documents/codes/newcore-rp2350/lib/fdt/fdt_rw.c **** 	FDT_RW_PROBE(fdt);
 164:/mnt/c/Users/31740/Documents/codes/newcore-rp2350/lib/fdt/fdt_rw.c **** 
 165:/mnt/c/Users/31740/Documents/codes/newcore-rp2350/lib/fdt/fdt_rw.c **** 	re = fdt_mem_rsv_w_(fdt, fdt_num_mem_rsv(fdt));
 166:/mnt/c/Users/31740/Documents/codes/newcore-rp2350/lib/fdt/fdt_rw.c **** 	err = fdt_splice_mem_rsv_(fdt, re, 0, 1);
 167:/mnt/c/Users/31740/Documents/codes/newcore-rp2350/lib/fdt/fdt_rw.c **** 	if (err)
 168:/mnt/c/Users/31740/Documents/codes/newcore-rp2350/lib/fdt/fdt_rw.c **** 		return err;
 169:/mnt/c/Users/31740/Documents/codes/newcore-rp2350/lib/fdt/fdt_rw.c **** 
 170:/mnt/c/Users/31740/Documents/codes/newcore-rp2350/lib/fdt/fdt_rw.c **** 	re->address = cpu_to_fdt64(address);
 171:/mnt/c/Users/31740/Documents/codes/newcore-rp2350/lib/fdt/fdt_rw.c **** 	re->size = cpu_to_fdt64(size);
 172:/mnt/c/Users/31740/Documents/codes/newcore-rp2350/lib/fdt/fdt_rw.c **** 	return 0;
 173:/mnt/c/Users/31740/Documents/codes/newcore-rp2350/lib/fdt/fdt_rw.c **** }
 174:/mnt/c/Users/31740/Documents/codes/newcore-rp2350/lib/fdt/fdt_rw.c **** 
 175:/mnt/c/Users/31740/Documents/codes/newcore-rp2350/lib/fdt/fdt_rw.c **** int fdt_del_mem_rsv(void *fdt, int n)
 176:/mnt/c/Users/31740/Documents/codes/newcore-rp2350/lib/fdt/fdt_rw.c **** {
 177:/mnt/c/Users/31740/Documents/codes/newcore-rp2350/lib/fdt/fdt_rw.c **** 	struct fdt_reserve_entry *re = fdt_mem_rsv_w_(fdt, n);
 178:/mnt/c/Users/31740/Documents/codes/newcore-rp2350/lib/fdt/fdt_rw.c **** 
 179:/mnt/c/Users/31740/Documents/codes/newcore-rp2350/lib/fdt/fdt_rw.c **** 	FDT_RW_PROBE(fdt);
 180:/mnt/c/Users/31740/Documents/codes/newcore-rp2350/lib/fdt/fdt_rw.c **** 
 181:/mnt/c/Users/31740/Documents/codes/newcore-rp2350/lib/fdt/fdt_rw.c **** 	if (n >= fdt_num_mem_rsv(fdt))
 182:/mnt/c/Users/31740/Documents/codes/newcore-rp2350/lib/fdt/fdt_rw.c **** 		return -FDT_ERR_NOTFOUND;
 183:/mnt/c/Users/31740/Documents/codes/newcore-rp2350/lib/fdt/fdt_rw.c **** 
 184:/mnt/c/Users/31740/Documents/codes/newcore-rp2350/lib/fdt/fdt_rw.c **** 	return fdt_splice_mem_rsv_(fdt, re, 1, 0);
 185:/mnt/c/Users/31740/Documents/codes/newcore-rp2350/lib/fdt/fdt_rw.c **** }
 186:/mnt/c/Users/31740/Documents/codes/newcore-rp2350/lib/fdt/fdt_rw.c **** 
 187:/mnt/c/Users/31740/Documents/codes/newcore-rp2350/lib/fdt/fdt_rw.c **** static int fdt_resize_property_(void *fdt, int nodeoffset,
 188:/mnt/c/Users/31740/Documents/codes/newcore-rp2350/lib/fdt/fdt_rw.c **** 				const char *name, int namelen,
 189:/mnt/c/Users/31740/Documents/codes/newcore-rp2350/lib/fdt/fdt_rw.c **** 				int len, struct fdt_property **prop)
 190:/mnt/c/Users/31740/Documents/codes/newcore-rp2350/lib/fdt/fdt_rw.c **** {
 191:/mnt/c/Users/31740/Documents/codes/newcore-rp2350/lib/fdt/fdt_rw.c **** 	int oldlen;
 192:/mnt/c/Users/31740/Documents/codes/newcore-rp2350/lib/fdt/fdt_rw.c **** 	int err;
 193:/mnt/c/Users/31740/Documents/codes/newcore-rp2350/lib/fdt/fdt_rw.c **** 
 194:/mnt/c/Users/31740/Documents/codes/newcore-rp2350/lib/fdt/fdt_rw.c **** 	*prop = fdt_get_property_namelen_w(fdt, nodeoffset, name, namelen,
 195:/mnt/c/Users/31740/Documents/codes/newcore-rp2350/lib/fdt/fdt_rw.c **** 					   &oldlen);
 196:/mnt/c/Users/31740/Documents/codes/newcore-rp2350/lib/fdt/fdt_rw.c **** 	if (!*prop)
 197:/mnt/c/Users/31740/Documents/codes/newcore-rp2350/lib/fdt/fdt_rw.c **** 		return oldlen;
 198:/mnt/c/Users/31740/Documents/codes/newcore-rp2350/lib/fdt/fdt_rw.c **** 
 199:/mnt/c/Users/31740/Documents/codes/newcore-rp2350/lib/fdt/fdt_rw.c **** 	if ((err = fdt_splice_struct_(fdt, (*prop)->data, FDT_TAGALIGN(oldlen),
 200:/mnt/c/Users/31740/Documents/codes/newcore-rp2350/lib/fdt/fdt_rw.c **** 				      FDT_TAGALIGN(len))))
 201:/mnt/c/Users/31740/Documents/codes/newcore-rp2350/lib/fdt/fdt_rw.c **** 		return err;
 202:/mnt/c/Users/31740/Documents/codes/newcore-rp2350/lib/fdt/fdt_rw.c **** 
 203:/mnt/c/Users/31740/Documents/codes/newcore-rp2350/lib/fdt/fdt_rw.c **** 	(*prop)->len = cpu_to_fdt32(len);
 204:/mnt/c/Users/31740/Documents/codes/newcore-rp2350/lib/fdt/fdt_rw.c **** 	return 0;
 205:/mnt/c/Users/31740/Documents/codes/newcore-rp2350/lib/fdt/fdt_rw.c **** }
 206:/mnt/c/Users/31740/Documents/codes/newcore-rp2350/lib/fdt/fdt_rw.c **** 
 207:/mnt/c/Users/31740/Documents/codes/newcore-rp2350/lib/fdt/fdt_rw.c **** static int fdt_add_property_(void *fdt, int nodeoffset, const char *name,
 208:/mnt/c/Users/31740/Documents/codes/newcore-rp2350/lib/fdt/fdt_rw.c **** 			     int namelen, int len, struct fdt_property **prop)
ARM GAS  /tmp/ccyijaMA.s 			page 36


 209:/mnt/c/Users/31740/Documents/codes/newcore-rp2350/lib/fdt/fdt_rw.c **** {
 210:/mnt/c/Users/31740/Documents/codes/newcore-rp2350/lib/fdt/fdt_rw.c **** 	int proplen;
 211:/mnt/c/Users/31740/Documents/codes/newcore-rp2350/lib/fdt/fdt_rw.c **** 	int nextoffset;
 212:/mnt/c/Users/31740/Documents/codes/newcore-rp2350/lib/fdt/fdt_rw.c **** 	int namestroff;
 213:/mnt/c/Users/31740/Documents/codes/newcore-rp2350/lib/fdt/fdt_rw.c **** 	int err;
 214:/mnt/c/Users/31740/Documents/codes/newcore-rp2350/lib/fdt/fdt_rw.c **** 	int allocated;
 215:/mnt/c/Users/31740/Documents/codes/newcore-rp2350/lib/fdt/fdt_rw.c **** 
 216:/mnt/c/Users/31740/Documents/codes/newcore-rp2350/lib/fdt/fdt_rw.c **** 	if ((nextoffset = fdt_check_node_offset_(fdt, nodeoffset)) < 0)
 217:/mnt/c/Users/31740/Documents/codes/newcore-rp2350/lib/fdt/fdt_rw.c **** 		return nextoffset;
 218:/mnt/c/Users/31740/Documents/codes/newcore-rp2350/lib/fdt/fdt_rw.c **** 
 219:/mnt/c/Users/31740/Documents/codes/newcore-rp2350/lib/fdt/fdt_rw.c **** 	namestroff = fdt_find_add_string_(fdt, name, namelen, &allocated);
 220:/mnt/c/Users/31740/Documents/codes/newcore-rp2350/lib/fdt/fdt_rw.c **** 	if (namestroff < 0)
 221:/mnt/c/Users/31740/Documents/codes/newcore-rp2350/lib/fdt/fdt_rw.c **** 		return namestroff;
 222:/mnt/c/Users/31740/Documents/codes/newcore-rp2350/lib/fdt/fdt_rw.c **** 
 223:/mnt/c/Users/31740/Documents/codes/newcore-rp2350/lib/fdt/fdt_rw.c **** 	*prop = fdt_offset_ptr_w_(fdt, nextoffset);
 224:/mnt/c/Users/31740/Documents/codes/newcore-rp2350/lib/fdt/fdt_rw.c **** 	proplen = sizeof(**prop) + FDT_TAGALIGN(len);
 225:/mnt/c/Users/31740/Documents/codes/newcore-rp2350/lib/fdt/fdt_rw.c **** 
 226:/mnt/c/Users/31740/Documents/codes/newcore-rp2350/lib/fdt/fdt_rw.c **** 	err = fdt_splice_struct_(fdt, *prop, 0, proplen);
 227:/mnt/c/Users/31740/Documents/codes/newcore-rp2350/lib/fdt/fdt_rw.c **** 	if (err) {
 228:/mnt/c/Users/31740/Documents/codes/newcore-rp2350/lib/fdt/fdt_rw.c **** 		/* Delete the string if we failed to add it */
 229:/mnt/c/Users/31740/Documents/codes/newcore-rp2350/lib/fdt/fdt_rw.c **** 		if (!can_assume(NO_ROLLBACK) && allocated)
 230:/mnt/c/Users/31740/Documents/codes/newcore-rp2350/lib/fdt/fdt_rw.c **** 			fdt_del_last_string_(fdt, name);
 231:/mnt/c/Users/31740/Documents/codes/newcore-rp2350/lib/fdt/fdt_rw.c **** 		return err;
 232:/mnt/c/Users/31740/Documents/codes/newcore-rp2350/lib/fdt/fdt_rw.c **** 	}
 233:/mnt/c/Users/31740/Documents/codes/newcore-rp2350/lib/fdt/fdt_rw.c **** 
 234:/mnt/c/Users/31740/Documents/codes/newcore-rp2350/lib/fdt/fdt_rw.c **** 	(*prop)->tag = cpu_to_fdt32(FDT_PROP);
 235:/mnt/c/Users/31740/Documents/codes/newcore-rp2350/lib/fdt/fdt_rw.c **** 	(*prop)->nameoff = cpu_to_fdt32(namestroff);
 236:/mnt/c/Users/31740/Documents/codes/newcore-rp2350/lib/fdt/fdt_rw.c **** 	(*prop)->len = cpu_to_fdt32(len);
 237:/mnt/c/Users/31740/Documents/codes/newcore-rp2350/lib/fdt/fdt_rw.c **** 	return 0;
 238:/mnt/c/Users/31740/Documents/codes/newcore-rp2350/lib/fdt/fdt_rw.c **** }
 239:/mnt/c/Users/31740/Documents/codes/newcore-rp2350/lib/fdt/fdt_rw.c **** 
 240:/mnt/c/Users/31740/Documents/codes/newcore-rp2350/lib/fdt/fdt_rw.c **** int fdt_set_name(void *fdt, int nodeoffset, const char *name)
 241:/mnt/c/Users/31740/Documents/codes/newcore-rp2350/lib/fdt/fdt_rw.c **** {
 242:/mnt/c/Users/31740/Documents/codes/newcore-rp2350/lib/fdt/fdt_rw.c **** 	char *namep;
 243:/mnt/c/Users/31740/Documents/codes/newcore-rp2350/lib/fdt/fdt_rw.c **** 	int oldlen, newlen;
 244:/mnt/c/Users/31740/Documents/codes/newcore-rp2350/lib/fdt/fdt_rw.c **** 	int err;
 245:/mnt/c/Users/31740/Documents/codes/newcore-rp2350/lib/fdt/fdt_rw.c **** 
 246:/mnt/c/Users/31740/Documents/codes/newcore-rp2350/lib/fdt/fdt_rw.c **** 	FDT_RW_PROBE(fdt);
 247:/mnt/c/Users/31740/Documents/codes/newcore-rp2350/lib/fdt/fdt_rw.c **** 
 248:/mnt/c/Users/31740/Documents/codes/newcore-rp2350/lib/fdt/fdt_rw.c **** 	namep = (char *)(uintptr_t)fdt_get_name(fdt, nodeoffset, &oldlen);
 249:/mnt/c/Users/31740/Documents/codes/newcore-rp2350/lib/fdt/fdt_rw.c **** 	if (!namep)
 250:/mnt/c/Users/31740/Documents/codes/newcore-rp2350/lib/fdt/fdt_rw.c **** 		return oldlen;
 251:/mnt/c/Users/31740/Documents/codes/newcore-rp2350/lib/fdt/fdt_rw.c **** 
 252:/mnt/c/Users/31740/Documents/codes/newcore-rp2350/lib/fdt/fdt_rw.c **** 	newlen = strlen(name);
 253:/mnt/c/Users/31740/Documents/codes/newcore-rp2350/lib/fdt/fdt_rw.c **** 
 254:/mnt/c/Users/31740/Documents/codes/newcore-rp2350/lib/fdt/fdt_rw.c **** 	err = fdt_splice_struct_(fdt, namep, FDT_TAGALIGN(oldlen+1),
 255:/mnt/c/Users/31740/Documents/codes/newcore-rp2350/lib/fdt/fdt_rw.c **** 				 FDT_TAGALIGN(newlen+1));
 256:/mnt/c/Users/31740/Documents/codes/newcore-rp2350/lib/fdt/fdt_rw.c **** 	if (err)
 257:/mnt/c/Users/31740/Documents/codes/newcore-rp2350/lib/fdt/fdt_rw.c **** 		return err;
 258:/mnt/c/Users/31740/Documents/codes/newcore-rp2350/lib/fdt/fdt_rw.c **** 
 259:/mnt/c/Users/31740/Documents/codes/newcore-rp2350/lib/fdt/fdt_rw.c **** 	memcpy(namep, name, newlen+1);
 260:/mnt/c/Users/31740/Documents/codes/newcore-rp2350/lib/fdt/fdt_rw.c **** 	return 0;
 261:/mnt/c/Users/31740/Documents/codes/newcore-rp2350/lib/fdt/fdt_rw.c **** }
 262:/mnt/c/Users/31740/Documents/codes/newcore-rp2350/lib/fdt/fdt_rw.c **** 
 263:/mnt/c/Users/31740/Documents/codes/newcore-rp2350/lib/fdt/fdt_rw.c **** int fdt_setprop_placeholder_namelen(void *fdt, int nodeoffset, const char *name,
 264:/mnt/c/Users/31740/Documents/codes/newcore-rp2350/lib/fdt/fdt_rw.c **** 				    int namelen, int len, void **prop_data)
 265:/mnt/c/Users/31740/Documents/codes/newcore-rp2350/lib/fdt/fdt_rw.c **** {
ARM GAS  /tmp/ccyijaMA.s 			page 37


 266:/mnt/c/Users/31740/Documents/codes/newcore-rp2350/lib/fdt/fdt_rw.c **** 	struct fdt_property *prop;
 267:/mnt/c/Users/31740/Documents/codes/newcore-rp2350/lib/fdt/fdt_rw.c **** 	int err;
 268:/mnt/c/Users/31740/Documents/codes/newcore-rp2350/lib/fdt/fdt_rw.c **** 
 269:/mnt/c/Users/31740/Documents/codes/newcore-rp2350/lib/fdt/fdt_rw.c **** 	FDT_RW_PROBE(fdt);
 270:/mnt/c/Users/31740/Documents/codes/newcore-rp2350/lib/fdt/fdt_rw.c **** 
 271:/mnt/c/Users/31740/Documents/codes/newcore-rp2350/lib/fdt/fdt_rw.c **** 	err = fdt_resize_property_(fdt, nodeoffset, name, namelen, len, &prop);
 272:/mnt/c/Users/31740/Documents/codes/newcore-rp2350/lib/fdt/fdt_rw.c **** 	if (err == -FDT_ERR_NOTFOUND)
 273:/mnt/c/Users/31740/Documents/codes/newcore-rp2350/lib/fdt/fdt_rw.c **** 		err = fdt_add_property_(fdt, nodeoffset, name, namelen, len,
 274:/mnt/c/Users/31740/Documents/codes/newcore-rp2350/lib/fdt/fdt_rw.c **** 					&prop);
 275:/mnt/c/Users/31740/Documents/codes/newcore-rp2350/lib/fdt/fdt_rw.c **** 	if (err)
 276:/mnt/c/Users/31740/Documents/codes/newcore-rp2350/lib/fdt/fdt_rw.c **** 		return err;
 277:/mnt/c/Users/31740/Documents/codes/newcore-rp2350/lib/fdt/fdt_rw.c **** 
 278:/mnt/c/Users/31740/Documents/codes/newcore-rp2350/lib/fdt/fdt_rw.c **** 	*prop_data = prop->data;
 279:/mnt/c/Users/31740/Documents/codes/newcore-rp2350/lib/fdt/fdt_rw.c **** 	return 0;
 280:/mnt/c/Users/31740/Documents/codes/newcore-rp2350/lib/fdt/fdt_rw.c **** }
 281:/mnt/c/Users/31740/Documents/codes/newcore-rp2350/lib/fdt/fdt_rw.c **** 
 282:/mnt/c/Users/31740/Documents/codes/newcore-rp2350/lib/fdt/fdt_rw.c **** int fdt_setprop_namelen(void *fdt, int nodeoffset, const char *name,
 283:/mnt/c/Users/31740/Documents/codes/newcore-rp2350/lib/fdt/fdt_rw.c **** 			int namelen, const void *val, int len)
 284:/mnt/c/Users/31740/Documents/codes/newcore-rp2350/lib/fdt/fdt_rw.c **** {
 285:/mnt/c/Users/31740/Documents/codes/newcore-rp2350/lib/fdt/fdt_rw.c **** 	void *prop_data;
 286:/mnt/c/Users/31740/Documents/codes/newcore-rp2350/lib/fdt/fdt_rw.c **** 	int err;
 287:/mnt/c/Users/31740/Documents/codes/newcore-rp2350/lib/fdt/fdt_rw.c **** 
 288:/mnt/c/Users/31740/Documents/codes/newcore-rp2350/lib/fdt/fdt_rw.c **** 	err = fdt_setprop_placeholder_namelen(fdt, nodeoffset, name, namelen,
 289:/mnt/c/Users/31740/Documents/codes/newcore-rp2350/lib/fdt/fdt_rw.c **** 					      len, &prop_data);
 290:/mnt/c/Users/31740/Documents/codes/newcore-rp2350/lib/fdt/fdt_rw.c **** 	if (err)
 291:/mnt/c/Users/31740/Documents/codes/newcore-rp2350/lib/fdt/fdt_rw.c **** 		return err;
 292:/mnt/c/Users/31740/Documents/codes/newcore-rp2350/lib/fdt/fdt_rw.c **** 
 293:/mnt/c/Users/31740/Documents/codes/newcore-rp2350/lib/fdt/fdt_rw.c **** 	if (len)
 294:/mnt/c/Users/31740/Documents/codes/newcore-rp2350/lib/fdt/fdt_rw.c **** 		memcpy(prop_data, val, len);
 295:/mnt/c/Users/31740/Documents/codes/newcore-rp2350/lib/fdt/fdt_rw.c **** 	return 0;
 296:/mnt/c/Users/31740/Documents/codes/newcore-rp2350/lib/fdt/fdt_rw.c **** }
 297:/mnt/c/Users/31740/Documents/codes/newcore-rp2350/lib/fdt/fdt_rw.c **** 
 298:/mnt/c/Users/31740/Documents/codes/newcore-rp2350/lib/fdt/fdt_rw.c **** int fdt_appendprop(void *fdt, int nodeoffset, const char *name,
 299:/mnt/c/Users/31740/Documents/codes/newcore-rp2350/lib/fdt/fdt_rw.c **** 		   const void *val, int len)
 300:/mnt/c/Users/31740/Documents/codes/newcore-rp2350/lib/fdt/fdt_rw.c **** {
 301:/mnt/c/Users/31740/Documents/codes/newcore-rp2350/lib/fdt/fdt_rw.c **** 	struct fdt_property *prop;
 302:/mnt/c/Users/31740/Documents/codes/newcore-rp2350/lib/fdt/fdt_rw.c **** 	int err, oldlen, newlen;
 303:/mnt/c/Users/31740/Documents/codes/newcore-rp2350/lib/fdt/fdt_rw.c **** 
 304:/mnt/c/Users/31740/Documents/codes/newcore-rp2350/lib/fdt/fdt_rw.c **** 	FDT_RW_PROBE(fdt);
 305:/mnt/c/Users/31740/Documents/codes/newcore-rp2350/lib/fdt/fdt_rw.c **** 
 306:/mnt/c/Users/31740/Documents/codes/newcore-rp2350/lib/fdt/fdt_rw.c **** 	prop = fdt_get_property_w(fdt, nodeoffset, name, &oldlen);
 307:/mnt/c/Users/31740/Documents/codes/newcore-rp2350/lib/fdt/fdt_rw.c **** 	if (prop) {
 308:/mnt/c/Users/31740/Documents/codes/newcore-rp2350/lib/fdt/fdt_rw.c **** 		newlen = len + oldlen;
 309:/mnt/c/Users/31740/Documents/codes/newcore-rp2350/lib/fdt/fdt_rw.c **** 		err = fdt_splice_struct_(fdt, prop->data,
 310:/mnt/c/Users/31740/Documents/codes/newcore-rp2350/lib/fdt/fdt_rw.c **** 					 FDT_TAGALIGN(oldlen),
 311:/mnt/c/Users/31740/Documents/codes/newcore-rp2350/lib/fdt/fdt_rw.c **** 					 FDT_TAGALIGN(newlen));
 312:/mnt/c/Users/31740/Documents/codes/newcore-rp2350/lib/fdt/fdt_rw.c **** 		if (err)
 313:/mnt/c/Users/31740/Documents/codes/newcore-rp2350/lib/fdt/fdt_rw.c **** 			return err;
 314:/mnt/c/Users/31740/Documents/codes/newcore-rp2350/lib/fdt/fdt_rw.c **** 		prop->len = cpu_to_fdt32(newlen);
 315:/mnt/c/Users/31740/Documents/codes/newcore-rp2350/lib/fdt/fdt_rw.c **** 		memcpy(prop->data + oldlen, val, len);
 316:/mnt/c/Users/31740/Documents/codes/newcore-rp2350/lib/fdt/fdt_rw.c **** 	} else {
 317:/mnt/c/Users/31740/Documents/codes/newcore-rp2350/lib/fdt/fdt_rw.c **** 		err = fdt_add_property_(fdt, nodeoffset, name, strlen(name),
 318:/mnt/c/Users/31740/Documents/codes/newcore-rp2350/lib/fdt/fdt_rw.c **** 					len, &prop);
 319:/mnt/c/Users/31740/Documents/codes/newcore-rp2350/lib/fdt/fdt_rw.c **** 		if (err)
 320:/mnt/c/Users/31740/Documents/codes/newcore-rp2350/lib/fdt/fdt_rw.c **** 			return err;
 321:/mnt/c/Users/31740/Documents/codes/newcore-rp2350/lib/fdt/fdt_rw.c **** 		memcpy(prop->data, val, len);
 322:/mnt/c/Users/31740/Documents/codes/newcore-rp2350/lib/fdt/fdt_rw.c **** 	}
ARM GAS  /tmp/ccyijaMA.s 			page 38


 323:/mnt/c/Users/31740/Documents/codes/newcore-rp2350/lib/fdt/fdt_rw.c **** 	return 0;
 324:/mnt/c/Users/31740/Documents/codes/newcore-rp2350/lib/fdt/fdt_rw.c **** }
 325:/mnt/c/Users/31740/Documents/codes/newcore-rp2350/lib/fdt/fdt_rw.c **** 
 326:/mnt/c/Users/31740/Documents/codes/newcore-rp2350/lib/fdt/fdt_rw.c **** int fdt_delprop(void *fdt, int nodeoffset, const char *name)
 327:/mnt/c/Users/31740/Documents/codes/newcore-rp2350/lib/fdt/fdt_rw.c **** {
 328:/mnt/c/Users/31740/Documents/codes/newcore-rp2350/lib/fdt/fdt_rw.c **** 	struct fdt_property *prop;
 329:/mnt/c/Users/31740/Documents/codes/newcore-rp2350/lib/fdt/fdt_rw.c **** 	int len, proplen;
 330:/mnt/c/Users/31740/Documents/codes/newcore-rp2350/lib/fdt/fdt_rw.c **** 
 331:/mnt/c/Users/31740/Documents/codes/newcore-rp2350/lib/fdt/fdt_rw.c **** 	FDT_RW_PROBE(fdt);
 332:/mnt/c/Users/31740/Documents/codes/newcore-rp2350/lib/fdt/fdt_rw.c **** 
 333:/mnt/c/Users/31740/Documents/codes/newcore-rp2350/lib/fdt/fdt_rw.c **** 	prop = fdt_get_property_w(fdt, nodeoffset, name, &len);
 334:/mnt/c/Users/31740/Documents/codes/newcore-rp2350/lib/fdt/fdt_rw.c **** 	if (!prop)
 335:/mnt/c/Users/31740/Documents/codes/newcore-rp2350/lib/fdt/fdt_rw.c **** 		return len;
 336:/mnt/c/Users/31740/Documents/codes/newcore-rp2350/lib/fdt/fdt_rw.c **** 
 337:/mnt/c/Users/31740/Documents/codes/newcore-rp2350/lib/fdt/fdt_rw.c **** 	proplen = sizeof(*prop) + FDT_TAGALIGN(len);
 338:/mnt/c/Users/31740/Documents/codes/newcore-rp2350/lib/fdt/fdt_rw.c **** 	return fdt_splice_struct_(fdt, prop, proplen, 0);
 339:/mnt/c/Users/31740/Documents/codes/newcore-rp2350/lib/fdt/fdt_rw.c **** }
 340:/mnt/c/Users/31740/Documents/codes/newcore-rp2350/lib/fdt/fdt_rw.c **** 
 341:/mnt/c/Users/31740/Documents/codes/newcore-rp2350/lib/fdt/fdt_rw.c **** int fdt_add_subnode_namelen(void *fdt, int parentoffset,
 342:/mnt/c/Users/31740/Documents/codes/newcore-rp2350/lib/fdt/fdt_rw.c **** 			    const char *name, int namelen)
 343:/mnt/c/Users/31740/Documents/codes/newcore-rp2350/lib/fdt/fdt_rw.c **** {
 344:/mnt/c/Users/31740/Documents/codes/newcore-rp2350/lib/fdt/fdt_rw.c **** 	struct fdt_node_header *nh;
 345:/mnt/c/Users/31740/Documents/codes/newcore-rp2350/lib/fdt/fdt_rw.c **** 	int offset, nextoffset;
 346:/mnt/c/Users/31740/Documents/codes/newcore-rp2350/lib/fdt/fdt_rw.c **** 	int nodelen;
 347:/mnt/c/Users/31740/Documents/codes/newcore-rp2350/lib/fdt/fdt_rw.c **** 	int err;
 348:/mnt/c/Users/31740/Documents/codes/newcore-rp2350/lib/fdt/fdt_rw.c **** 	uint32_t tag;
 349:/mnt/c/Users/31740/Documents/codes/newcore-rp2350/lib/fdt/fdt_rw.c **** 	fdt32_t *endtag;
 350:/mnt/c/Users/31740/Documents/codes/newcore-rp2350/lib/fdt/fdt_rw.c **** 
 351:/mnt/c/Users/31740/Documents/codes/newcore-rp2350/lib/fdt/fdt_rw.c **** 	FDT_RW_PROBE(fdt);
 352:/mnt/c/Users/31740/Documents/codes/newcore-rp2350/lib/fdt/fdt_rw.c **** 
 353:/mnt/c/Users/31740/Documents/codes/newcore-rp2350/lib/fdt/fdt_rw.c **** 	offset = fdt_subnode_offset_namelen(fdt, parentoffset, name, namelen);
 354:/mnt/c/Users/31740/Documents/codes/newcore-rp2350/lib/fdt/fdt_rw.c **** 	if (offset >= 0)
 355:/mnt/c/Users/31740/Documents/codes/newcore-rp2350/lib/fdt/fdt_rw.c **** 		return -FDT_ERR_EXISTS;
 356:/mnt/c/Users/31740/Documents/codes/newcore-rp2350/lib/fdt/fdt_rw.c **** 	else if (offset != -FDT_ERR_NOTFOUND)
 357:/mnt/c/Users/31740/Documents/codes/newcore-rp2350/lib/fdt/fdt_rw.c **** 		return offset;
 358:/mnt/c/Users/31740/Documents/codes/newcore-rp2350/lib/fdt/fdt_rw.c **** 
 359:/mnt/c/Users/31740/Documents/codes/newcore-rp2350/lib/fdt/fdt_rw.c **** 	/* Try to place the new node after the parent's properties */
 360:/mnt/c/Users/31740/Documents/codes/newcore-rp2350/lib/fdt/fdt_rw.c **** 	tag = fdt_next_tag(fdt, parentoffset, &nextoffset);
 361:/mnt/c/Users/31740/Documents/codes/newcore-rp2350/lib/fdt/fdt_rw.c **** 	/* the fdt_subnode_offset_namelen() should ensure this never hits */
 362:/mnt/c/Users/31740/Documents/codes/newcore-rp2350/lib/fdt/fdt_rw.c **** 	if (!can_assume(LIBFDT_FLAWLESS) && (tag != FDT_BEGIN_NODE))
 363:/mnt/c/Users/31740/Documents/codes/newcore-rp2350/lib/fdt/fdt_rw.c **** 		return -FDT_ERR_INTERNAL;
 364:/mnt/c/Users/31740/Documents/codes/newcore-rp2350/lib/fdt/fdt_rw.c **** 	do {
 365:/mnt/c/Users/31740/Documents/codes/newcore-rp2350/lib/fdt/fdt_rw.c **** 		offset = nextoffset;
 366:/mnt/c/Users/31740/Documents/codes/newcore-rp2350/lib/fdt/fdt_rw.c **** 		tag = fdt_next_tag(fdt, offset, &nextoffset);
 367:/mnt/c/Users/31740/Documents/codes/newcore-rp2350/lib/fdt/fdt_rw.c **** 	} while ((tag == FDT_PROP) || (tag == FDT_NOP));
 368:/mnt/c/Users/31740/Documents/codes/newcore-rp2350/lib/fdt/fdt_rw.c **** 
 369:/mnt/c/Users/31740/Documents/codes/newcore-rp2350/lib/fdt/fdt_rw.c **** 	nh = fdt_offset_ptr_w_(fdt, offset);
 370:/mnt/c/Users/31740/Documents/codes/newcore-rp2350/lib/fdt/fdt_rw.c **** 	nodelen = sizeof(*nh) + FDT_TAGALIGN(namelen+1) + FDT_TAGSIZE;
 371:/mnt/c/Users/31740/Documents/codes/newcore-rp2350/lib/fdt/fdt_rw.c **** 
 372:/mnt/c/Users/31740/Documents/codes/newcore-rp2350/lib/fdt/fdt_rw.c **** 	err = fdt_splice_struct_(fdt, nh, 0, nodelen);
 373:/mnt/c/Users/31740/Documents/codes/newcore-rp2350/lib/fdt/fdt_rw.c **** 	if (err)
 374:/mnt/c/Users/31740/Documents/codes/newcore-rp2350/lib/fdt/fdt_rw.c **** 		return err;
 375:/mnt/c/Users/31740/Documents/codes/newcore-rp2350/lib/fdt/fdt_rw.c **** 
 376:/mnt/c/Users/31740/Documents/codes/newcore-rp2350/lib/fdt/fdt_rw.c **** 	nh->tag = cpu_to_fdt32(FDT_BEGIN_NODE);
 377:/mnt/c/Users/31740/Documents/codes/newcore-rp2350/lib/fdt/fdt_rw.c **** 	memset(nh->name, 0, FDT_TAGALIGN(namelen+1));
 378:/mnt/c/Users/31740/Documents/codes/newcore-rp2350/lib/fdt/fdt_rw.c **** 	memcpy(nh->name, name, namelen);
 379:/mnt/c/Users/31740/Documents/codes/newcore-rp2350/lib/fdt/fdt_rw.c **** 	endtag = (fdt32_t *)((char *)nh + nodelen - FDT_TAGSIZE);
ARM GAS  /tmp/ccyijaMA.s 			page 39


 380:/mnt/c/Users/31740/Documents/codes/newcore-rp2350/lib/fdt/fdt_rw.c **** 	*endtag = cpu_to_fdt32(FDT_END_NODE);
 381:/mnt/c/Users/31740/Documents/codes/newcore-rp2350/lib/fdt/fdt_rw.c **** 
 382:/mnt/c/Users/31740/Documents/codes/newcore-rp2350/lib/fdt/fdt_rw.c **** 	return offset;
 383:/mnt/c/Users/31740/Documents/codes/newcore-rp2350/lib/fdt/fdt_rw.c **** }
 384:/mnt/c/Users/31740/Documents/codes/newcore-rp2350/lib/fdt/fdt_rw.c **** 
 385:/mnt/c/Users/31740/Documents/codes/newcore-rp2350/lib/fdt/fdt_rw.c **** int fdt_add_subnode(void *fdt, int parentoffset, const char *name)
 386:/mnt/c/Users/31740/Documents/codes/newcore-rp2350/lib/fdt/fdt_rw.c **** {
 387:/mnt/c/Users/31740/Documents/codes/newcore-rp2350/lib/fdt/fdt_rw.c **** 	return fdt_add_subnode_namelen(fdt, parentoffset, name, strlen(name));
 388:/mnt/c/Users/31740/Documents/codes/newcore-rp2350/lib/fdt/fdt_rw.c **** }
 389:/mnt/c/Users/31740/Documents/codes/newcore-rp2350/lib/fdt/fdt_rw.c **** 
 390:/mnt/c/Users/31740/Documents/codes/newcore-rp2350/lib/fdt/fdt_rw.c **** int fdt_del_node(void *fdt, int nodeoffset)
 391:/mnt/c/Users/31740/Documents/codes/newcore-rp2350/lib/fdt/fdt_rw.c **** {
 392:/mnt/c/Users/31740/Documents/codes/newcore-rp2350/lib/fdt/fdt_rw.c **** 	int endoffset;
 393:/mnt/c/Users/31740/Documents/codes/newcore-rp2350/lib/fdt/fdt_rw.c **** 
 394:/mnt/c/Users/31740/Documents/codes/newcore-rp2350/lib/fdt/fdt_rw.c **** 	FDT_RW_PROBE(fdt);
 395:/mnt/c/Users/31740/Documents/codes/newcore-rp2350/lib/fdt/fdt_rw.c **** 
 396:/mnt/c/Users/31740/Documents/codes/newcore-rp2350/lib/fdt/fdt_rw.c **** 	endoffset = fdt_node_end_offset_(fdt, nodeoffset);
 397:/mnt/c/Users/31740/Documents/codes/newcore-rp2350/lib/fdt/fdt_rw.c **** 	if (endoffset < 0)
 398:/mnt/c/Users/31740/Documents/codes/newcore-rp2350/lib/fdt/fdt_rw.c **** 		return endoffset;
 399:/mnt/c/Users/31740/Documents/codes/newcore-rp2350/lib/fdt/fdt_rw.c **** 
 400:/mnt/c/Users/31740/Documents/codes/newcore-rp2350/lib/fdt/fdt_rw.c **** 	return fdt_splice_struct_(fdt, fdt_offset_ptr_w_(fdt, nodeoffset),
 401:/mnt/c/Users/31740/Documents/codes/newcore-rp2350/lib/fdt/fdt_rw.c **** 				  endoffset - nodeoffset, 0);
 402:/mnt/c/Users/31740/Documents/codes/newcore-rp2350/lib/fdt/fdt_rw.c **** }
 403:/mnt/c/Users/31740/Documents/codes/newcore-rp2350/lib/fdt/fdt_rw.c **** 
 404:/mnt/c/Users/31740/Documents/codes/newcore-rp2350/lib/fdt/fdt_rw.c **** static void fdt_packblocks_(const char *old, char *new,
 405:/mnt/c/Users/31740/Documents/codes/newcore-rp2350/lib/fdt/fdt_rw.c **** 			    int mem_rsv_size,
 406:/mnt/c/Users/31740/Documents/codes/newcore-rp2350/lib/fdt/fdt_rw.c **** 			    int struct_size,
 407:/mnt/c/Users/31740/Documents/codes/newcore-rp2350/lib/fdt/fdt_rw.c **** 			    int strings_size)
 408:/mnt/c/Users/31740/Documents/codes/newcore-rp2350/lib/fdt/fdt_rw.c **** {
 1168              		.loc 1 408 1 is_stmt 1 view -0
 1169              		.cfi_startproc
 1170              		@ args = 4, pretend = 0, frame = 0
 1171              		@ frame_needed = 0, uses_anonymous_args = 0
 1172              		.loc 1 408 1 is_stmt 0 view .LVU410
 1173 0000 2DE9F041 		push	{r4, r5, r6, r7, r8, lr}
 1174              	.LCFI8:
 1175              		.cfi_def_cfa_offset 24
 1176              		.cfi_offset 4, -24
 1177              		.cfi_offset 5, -20
 1178              		.cfi_offset 6, -16
 1179              		.cfi_offset 7, -12
 1180              		.cfi_offset 8, -8
 1181              		.cfi_offset 14, -4
 1182 0004 0446     		mov	r4, r0
 1183 0006 0D46     		mov	r5, r1
 1184 0008 1F46     		mov	r7, r3
 409:/mnt/c/Users/31740/Documents/codes/newcore-rp2350/lib/fdt/fdt_rw.c **** 	int mem_rsv_off, struct_off, strings_off;
 1185              		.loc 1 409 2 is_stmt 1 view .LVU411
 410:/mnt/c/Users/31740/Documents/codes/newcore-rp2350/lib/fdt/fdt_rw.c **** 
 411:/mnt/c/Users/31740/Documents/codes/newcore-rp2350/lib/fdt/fdt_rw.c **** 	mem_rsv_off = FDT_ALIGN(sizeof(struct fdt_header), 8);
 1186              		.loc 1 411 2 view .LVU412
 1187              	.LVL104:
 412:/mnt/c/Users/31740/Documents/codes/newcore-rp2350/lib/fdt/fdt_rw.c **** 	struct_off = mem_rsv_off + mem_rsv_size;
 1188              		.loc 1 412 2 view .LVU413
 1189              		.loc 1 412 13 is_stmt 0 view .LVU414
 1190 000a 02F12808 		add	r8, r2, #40
 1191              	.LVL105:
ARM GAS  /tmp/ccyijaMA.s 			page 40


 413:/mnt/c/Users/31740/Documents/codes/newcore-rp2350/lib/fdt/fdt_rw.c **** 	strings_off = struct_off + struct_size;
 1192              		.loc 1 413 2 is_stmt 1 view .LVU415
 1193              		.loc 1 413 14 is_stmt 0 view .LVU416
 1194 000e 08EB0306 		add	r6, r8, r3
 1195              	.LVL106:
 414:/mnt/c/Users/31740/Documents/codes/newcore-rp2350/lib/fdt/fdt_rw.c **** 
 415:/mnt/c/Users/31740/Documents/codes/newcore-rp2350/lib/fdt/fdt_rw.c **** 	memmove(new + mem_rsv_off, old + fdt_off_mem_rsvmap(old), mem_rsv_size);
 1196              		.loc 1 415 2 is_stmt 1 view .LVU417
 1197              	.LBB322:
 1198              	.LBI322:
 145:/mnt/c/Users/31740/Documents/codes/newcore-rp2350/include/linux/libfdt.h **** {
 1199              		.loc 3 145 24 view .LVU418
 1200              	.LBB323:
 147:/mnt/c/Users/31740/Documents/codes/newcore-rp2350/include/linux/libfdt.h **** 
 1201              		.loc 3 147 2 view .LVU419
 149:/mnt/c/Users/31740/Documents/codes/newcore-rp2350/include/linux/libfdt.h **** 		| ((uint32_t)bp[1] << 16)
 1202              		.loc 3 149 2 view .LVU420
 149:/mnt/c/Users/31740/Documents/codes/newcore-rp2350/include/linux/libfdt.h **** 		| ((uint32_t)bp[1] << 16)
 1203              		.loc 3 149 22 is_stmt 0 view .LVU421
 1204 0012 037C     		ldrb	r3, [r0, #16]	@ zero_extendqisi2
 1205              	.LVL107:
 150:/mnt/c/Users/31740/Documents/codes/newcore-rp2350/include/linux/libfdt.h **** 		| ((uint32_t)bp[2] << 8)
 1206              		.loc 3 150 18 view .LVU422
 1207 0014 417C     		ldrb	r1, [r0, #17]	@ zero_extendqisi2
 1208              	.LVL108:
 150:/mnt/c/Users/31740/Documents/codes/newcore-rp2350/include/linux/libfdt.h **** 		| ((uint32_t)bp[2] << 8)
 1209              		.loc 3 150 22 view .LVU423
 1210 0016 0904     		lsls	r1, r1, #16
 150:/mnt/c/Users/31740/Documents/codes/newcore-rp2350/include/linux/libfdt.h **** 		| ((uint32_t)bp[2] << 8)
 1211              		.loc 3 150 3 view .LVU424
 1212 0018 41EA0361 		orr	r1, r1, r3, lsl #24
 151:/mnt/c/Users/31740/Documents/codes/newcore-rp2350/include/linux/libfdt.h **** 		| bp[3];
 1213              		.loc 3 151 18 view .LVU425
 1214 001c 837C     		ldrb	r3, [r0, #18]	@ zero_extendqisi2
 151:/mnt/c/Users/31740/Documents/codes/newcore-rp2350/include/linux/libfdt.h **** 		| bp[3];
 1215              		.loc 3 151 3 view .LVU426
 1216 001e 41EA0321 		orr	r1, r1, r3, lsl #8
 152:/mnt/c/Users/31740/Documents/codes/newcore-rp2350/include/linux/libfdt.h **** }
 1217              		.loc 3 152 7 view .LVU427
 1218 0022 C37C     		ldrb	r3, [r0, #19]	@ zero_extendqisi2
 152:/mnt/c/Users/31740/Documents/codes/newcore-rp2350/include/linux/libfdt.h **** }
 1219              		.loc 3 152 3 view .LVU428
 1220 0024 1943     		orrs	r1, r1, r3
 1221              	.LVL109:
 152:/mnt/c/Users/31740/Documents/codes/newcore-rp2350/include/linux/libfdt.h **** }
 1222              		.loc 3 152 3 view .LVU429
 1223              	.LBE323:
 1224              	.LBE322:
 1225              		.loc 1 415 2 discriminator 1 view .LVU430
 1226 0026 0144     		add	r1, r1, r0
 1227 0028 05F12800 		add	r0, r5, #40
 1228              	.LVL110:
 1229              		.loc 1 415 2 discriminator 1 view .LVU431
 1230 002c FFF7FEFF 		bl	memmove
 1231              	.LVL111:
 416:/mnt/c/Users/31740/Documents/codes/newcore-rp2350/lib/fdt/fdt_rw.c **** 	fdt_set_off_mem_rsvmap(new, mem_rsv_off);
 1232              		.loc 1 416 2 is_stmt 1 view .LVU432
ARM GAS  /tmp/ccyijaMA.s 			page 41


 1233              	.LBB324:
 1234              	.LBI324:
 274:/mnt/c/Users/31740/Documents/codes/newcore-rp2350/include/linux/libfdt.h **** fdt_set_hdr_(version)
 1235              		.loc 3 274 1 view .LVU433
 1236              	.LBB325:
 274:/mnt/c/Users/31740/Documents/codes/newcore-rp2350/include/linux/libfdt.h **** fdt_set_hdr_(version)
 1237              		.loc 3 274 1 view .LVU434
 274:/mnt/c/Users/31740/Documents/codes/newcore-rp2350/include/linux/libfdt.h **** fdt_set_hdr_(version)
 1238              		.loc 3 274 1 view .LVU435
 274:/mnt/c/Users/31740/Documents/codes/newcore-rp2350/include/linux/libfdt.h **** fdt_set_hdr_(version)
 1239              		.loc 3 274 1 is_stmt 0 discriminator 1 view .LVU436
 1240 0030 4FF02053 		mov	r3, #671088640
 1241 0034 2B61     		str	r3, [r5, #16]
 1242              	.LVL112:
 274:/mnt/c/Users/31740/Documents/codes/newcore-rp2350/include/linux/libfdt.h **** fdt_set_hdr_(version)
 1243              		.loc 3 274 1 discriminator 1 view .LVU437
 1244              	.LBE325:
 1245              	.LBE324:
 417:/mnt/c/Users/31740/Documents/codes/newcore-rp2350/lib/fdt/fdt_rw.c **** 
 418:/mnt/c/Users/31740/Documents/codes/newcore-rp2350/lib/fdt/fdt_rw.c **** 	memmove(new + struct_off, old + fdt_off_dt_struct(old), struct_size);
 1246              		.loc 1 418 2 is_stmt 1 view .LVU438
 1247              	.LBB326:
 1248              	.LBI326:
 145:/mnt/c/Users/31740/Documents/codes/newcore-rp2350/include/linux/libfdt.h **** {
 1249              		.loc 3 145 24 view .LVU439
 1250              	.LBB327:
 147:/mnt/c/Users/31740/Documents/codes/newcore-rp2350/include/linux/libfdt.h **** 
 1251              		.loc 3 147 2 view .LVU440
 149:/mnt/c/Users/31740/Documents/codes/newcore-rp2350/include/linux/libfdt.h **** 		| ((uint32_t)bp[1] << 16)
 1252              		.loc 3 149 2 view .LVU441
 149:/mnt/c/Users/31740/Documents/codes/newcore-rp2350/include/linux/libfdt.h **** 		| ((uint32_t)bp[1] << 16)
 1253              		.loc 3 149 22 is_stmt 0 view .LVU442
 1254 0036 237A     		ldrb	r3, [r4, #8]	@ zero_extendqisi2
 150:/mnt/c/Users/31740/Documents/codes/newcore-rp2350/include/linux/libfdt.h **** 		| ((uint32_t)bp[2] << 8)
 1255              		.loc 3 150 18 view .LVU443
 1256 0038 617A     		ldrb	r1, [r4, #9]	@ zero_extendqisi2
 150:/mnt/c/Users/31740/Documents/codes/newcore-rp2350/include/linux/libfdt.h **** 		| ((uint32_t)bp[2] << 8)
 1257              		.loc 3 150 22 view .LVU444
 1258 003a 0904     		lsls	r1, r1, #16
 150:/mnt/c/Users/31740/Documents/codes/newcore-rp2350/include/linux/libfdt.h **** 		| ((uint32_t)bp[2] << 8)
 1259              		.loc 3 150 3 view .LVU445
 1260 003c 41EA0361 		orr	r1, r1, r3, lsl #24
 151:/mnt/c/Users/31740/Documents/codes/newcore-rp2350/include/linux/libfdt.h **** 		| bp[3];
 1261              		.loc 3 151 18 view .LVU446
 1262 0040 A37A     		ldrb	r3, [r4, #10]	@ zero_extendqisi2
 151:/mnt/c/Users/31740/Documents/codes/newcore-rp2350/include/linux/libfdt.h **** 		| bp[3];
 1263              		.loc 3 151 3 view .LVU447
 1264 0042 41EA0321 		orr	r1, r1, r3, lsl #8
 152:/mnt/c/Users/31740/Documents/codes/newcore-rp2350/include/linux/libfdt.h **** }
 1265              		.loc 3 152 7 view .LVU448
 1266 0046 E37A     		ldrb	r3, [r4, #11]	@ zero_extendqisi2
 152:/mnt/c/Users/31740/Documents/codes/newcore-rp2350/include/linux/libfdt.h **** }
 1267              		.loc 3 152 3 view .LVU449
 1268 0048 1943     		orrs	r1, r1, r3
 1269              	.LVL113:
 152:/mnt/c/Users/31740/Documents/codes/newcore-rp2350/include/linux/libfdt.h **** }
 1270              		.loc 3 152 3 view .LVU450
ARM GAS  /tmp/ccyijaMA.s 			page 42


 1271              	.LBE327:
 1272              	.LBE326:
 1273              		.loc 1 418 2 discriminator 1 view .LVU451
 1274 004a 3A46     		mov	r2, r7
 1275 004c 2144     		add	r1, r1, r4
 1276 004e 05EB0800 		add	r0, r5, r8
 1277 0052 FFF7FEFF 		bl	memmove
 1278              	.LVL114:
 419:/mnt/c/Users/31740/Documents/codes/newcore-rp2350/lib/fdt/fdt_rw.c **** 	fdt_set_off_dt_struct(new, struct_off);
 1279              		.loc 1 419 2 is_stmt 1 view .LVU452
 1280              	.LBB328:
 1281              	.LBI328:
 272:/mnt/c/Users/31740/Documents/codes/newcore-rp2350/include/linux/libfdt.h **** fdt_set_hdr_(off_dt_strings)
 1282              		.loc 3 272 1 view .LVU453
 1283              	.LBB329:
 272:/mnt/c/Users/31740/Documents/codes/newcore-rp2350/include/linux/libfdt.h **** fdt_set_hdr_(off_dt_strings)
 1284              		.loc 3 272 1 view .LVU454
 272:/mnt/c/Users/31740/Documents/codes/newcore-rp2350/include/linux/libfdt.h **** fdt_set_hdr_(off_dt_strings)
 1285              		.loc 3 272 1 view .LVU455
 1286              	.LBB330:
 1287              	.LBI330:
  57:/mnt/c/Users/31740/Documents/codes/newcore-rp2350/include/linux/libfdt_env.h **** {
 1288              		.loc 4 57 23 view .LVU456
 1289              	.LBB331:
 1290              		.loc 4 59 2 view .LVU457
 1291              		.loc 4 59 28 is_stmt 0 view .LVU458
 1292 0056 C8F30722 		ubfx	r2, r8, #8, #8
 1293 005a 1204     		lsls	r2, r2, #16
 1294 005c 42EA0862 		orr	r2, r2, r8, lsl #24
 1295 0060 C8F30743 		ubfx	r3, r8, #16, #8
 1296 0064 42EA0322 		orr	r2, r2, r3, lsl #8
 1297              		.loc 4 59 9 view .LVU459
 1298 0068 42EA1862 		orr	r2, r2, r8, lsr #24
 1299              	.LVL115:
 1300              		.loc 4 59 9 view .LVU460
 1301              	.LBE331:
 1302              	.LBE330:
 272:/mnt/c/Users/31740/Documents/codes/newcore-rp2350/include/linux/libfdt.h **** fdt_set_hdr_(off_dt_strings)
 1303              		.loc 3 272 1 discriminator 1 view .LVU461
 1304 006c AA60     		str	r2, [r5, #8]
 1305              	.LVL116:
 272:/mnt/c/Users/31740/Documents/codes/newcore-rp2350/include/linux/libfdt.h **** fdt_set_hdr_(off_dt_strings)
 1306              		.loc 3 272 1 discriminator 1 view .LVU462
 1307              	.LBE329:
 1308              	.LBE328:
 420:/mnt/c/Users/31740/Documents/codes/newcore-rp2350/lib/fdt/fdt_rw.c **** 	fdt_set_size_dt_struct(new, struct_size);
 1309              		.loc 1 420 2 is_stmt 1 view .LVU463
 1310              	.LBB332:
 1311              	.LBI332:
 1312              		.loc 3 279 1 view .LVU464
 1313              	.LBB333:
 1314              		.loc 3 279 1 view .LVU465
 1315              		.loc 3 279 1 view .LVU466
 1316              	.LBB334:
 1317              	.LBI334:
  57:/mnt/c/Users/31740/Documents/codes/newcore-rp2350/include/linux/libfdt_env.h **** {
 1318              		.loc 4 57 23 view .LVU467
ARM GAS  /tmp/ccyijaMA.s 			page 43


 1319              	.LBB335:
 1320              		.loc 4 59 2 view .LVU468
 1321              		.loc 4 59 28 is_stmt 0 view .LVU469
 1322 006e C7F30721 		ubfx	r1, r7, #8, #8
 1323 0072 0904     		lsls	r1, r1, #16
 1324 0074 41EA0761 		orr	r1, r1, r7, lsl #24
 1325 0078 C7F30743 		ubfx	r3, r7, #16, #8
 1326 007c 41EA0321 		orr	r1, r1, r3, lsl #8
 1327              		.loc 4 59 9 view .LVU470
 1328 0080 41EA1761 		orr	r1, r1, r7, lsr #24
 1329              	.LVL117:
 1330              		.loc 4 59 9 view .LVU471
 1331              	.LBE335:
 1332              	.LBE334:
 1333              		.loc 3 279 1 discriminator 1 view .LVU472
 1334 0084 6962     		str	r1, [r5, #36]
 1335              	.LVL118:
 1336              		.loc 3 279 1 discriminator 1 view .LVU473
 1337              	.LBE333:
 1338              	.LBE332:
 421:/mnt/c/Users/31740/Documents/codes/newcore-rp2350/lib/fdt/fdt_rw.c **** 
 422:/mnt/c/Users/31740/Documents/codes/newcore-rp2350/lib/fdt/fdt_rw.c **** 	memmove(new + strings_off, old + fdt_off_dt_strings(old), strings_size);
 1339              		.loc 1 422 2 is_stmt 1 view .LVU474
 1340              	.LBB336:
 1341              	.LBI336:
 145:/mnt/c/Users/31740/Documents/codes/newcore-rp2350/include/linux/libfdt.h **** {
 1342              		.loc 3 145 24 view .LVU475
 1343              	.LBB337:
 147:/mnt/c/Users/31740/Documents/codes/newcore-rp2350/include/linux/libfdt.h **** 
 1344              		.loc 3 147 2 view .LVU476
 149:/mnt/c/Users/31740/Documents/codes/newcore-rp2350/include/linux/libfdt.h **** 		| ((uint32_t)bp[1] << 16)
 1345              		.loc 3 149 2 view .LVU477
 149:/mnt/c/Users/31740/Documents/codes/newcore-rp2350/include/linux/libfdt.h **** 		| ((uint32_t)bp[1] << 16)
 1346              		.loc 3 149 22 is_stmt 0 view .LVU478
 1347 0086 237B     		ldrb	r3, [r4, #12]	@ zero_extendqisi2
 150:/mnt/c/Users/31740/Documents/codes/newcore-rp2350/include/linux/libfdt.h **** 		| ((uint32_t)bp[2] << 8)
 1348              		.loc 3 150 18 view .LVU479
 1349 0088 617B     		ldrb	r1, [r4, #13]	@ zero_extendqisi2
 150:/mnt/c/Users/31740/Documents/codes/newcore-rp2350/include/linux/libfdt.h **** 		| ((uint32_t)bp[2] << 8)
 1350              		.loc 3 150 22 view .LVU480
 1351 008a 0904     		lsls	r1, r1, #16
 150:/mnt/c/Users/31740/Documents/codes/newcore-rp2350/include/linux/libfdt.h **** 		| ((uint32_t)bp[2] << 8)
 1352              		.loc 3 150 3 view .LVU481
 1353 008c 41EA0361 		orr	r1, r1, r3, lsl #24
 151:/mnt/c/Users/31740/Documents/codes/newcore-rp2350/include/linux/libfdt.h **** 		| bp[3];
 1354              		.loc 3 151 18 view .LVU482
 1355 0090 A37B     		ldrb	r3, [r4, #14]	@ zero_extendqisi2
 151:/mnt/c/Users/31740/Documents/codes/newcore-rp2350/include/linux/libfdt.h **** 		| bp[3];
 1356              		.loc 3 151 3 view .LVU483
 1357 0092 41EA0321 		orr	r1, r1, r3, lsl #8
 152:/mnt/c/Users/31740/Documents/codes/newcore-rp2350/include/linux/libfdt.h **** }
 1358              		.loc 3 152 7 view .LVU484
 1359 0096 E37B     		ldrb	r3, [r4, #15]	@ zero_extendqisi2
 152:/mnt/c/Users/31740/Documents/codes/newcore-rp2350/include/linux/libfdt.h **** }
 1360              		.loc 3 152 3 view .LVU485
 1361 0098 1943     		orrs	r1, r1, r3
 1362              	.LVL119:
ARM GAS  /tmp/ccyijaMA.s 			page 44


 152:/mnt/c/Users/31740/Documents/codes/newcore-rp2350/include/linux/libfdt.h **** }
 1363              		.loc 3 152 3 view .LVU486
 1364              	.LBE337:
 1365              	.LBE336:
 1366              		.loc 1 422 2 discriminator 1 view .LVU487
 1367 009a 069A     		ldr	r2, [sp, #24]
 1368 009c 2144     		add	r1, r1, r4
 1369 009e A819     		adds	r0, r5, r6
 1370 00a0 FFF7FEFF 		bl	memmove
 1371              	.LVL120:
 423:/mnt/c/Users/31740/Documents/codes/newcore-rp2350/lib/fdt/fdt_rw.c **** 	fdt_set_off_dt_strings(new, strings_off);
 1372              		.loc 1 423 2 is_stmt 1 view .LVU488
 1373              	.LBB338:
 1374              	.LBI338:
 273:/mnt/c/Users/31740/Documents/codes/newcore-rp2350/include/linux/libfdt.h **** fdt_set_hdr_(off_mem_rsvmap)
 1375              		.loc 3 273 1 view .LVU489
 1376              	.LBB339:
 273:/mnt/c/Users/31740/Documents/codes/newcore-rp2350/include/linux/libfdt.h **** fdt_set_hdr_(off_mem_rsvmap)
 1377              		.loc 3 273 1 view .LVU490
 273:/mnt/c/Users/31740/Documents/codes/newcore-rp2350/include/linux/libfdt.h **** fdt_set_hdr_(off_mem_rsvmap)
 1378              		.loc 3 273 1 view .LVU491
 1379              	.LBB340:
 1380              	.LBI340:
  57:/mnt/c/Users/31740/Documents/codes/newcore-rp2350/include/linux/libfdt_env.h **** {
 1381              		.loc 4 57 23 view .LVU492
 1382              	.LBB341:
 1383              		.loc 4 59 2 view .LVU493
 1384              		.loc 4 59 28 is_stmt 0 view .LVU494
 1385 00a4 C6F30723 		ubfx	r3, r6, #8, #8
 1386 00a8 1B04     		lsls	r3, r3, #16
 1387 00aa 43EA0663 		orr	r3, r3, r6, lsl #24
 1388 00ae C6F30742 		ubfx	r2, r6, #16, #8
 1389 00b2 43EA0223 		orr	r3, r3, r2, lsl #8
 1390              		.loc 4 59 9 view .LVU495
 1391 00b6 43EA1663 		orr	r3, r3, r6, lsr #24
 1392              	.LVL121:
 1393              		.loc 4 59 9 view .LVU496
 1394              	.LBE341:
 1395              	.LBE340:
 273:/mnt/c/Users/31740/Documents/codes/newcore-rp2350/include/linux/libfdt.h **** fdt_set_hdr_(off_mem_rsvmap)
 1396              		.loc 3 273 1 discriminator 1 view .LVU497
 1397 00ba EB60     		str	r3, [r5, #12]
 1398              	.LVL122:
 273:/mnt/c/Users/31740/Documents/codes/newcore-rp2350/include/linux/libfdt.h **** fdt_set_hdr_(off_mem_rsvmap)
 1399              		.loc 3 273 1 discriminator 1 view .LVU498
 1400              	.LBE339:
 1401              	.LBE338:
 424:/mnt/c/Users/31740/Documents/codes/newcore-rp2350/lib/fdt/fdt_rw.c **** 	fdt_set_size_dt_strings(new, fdt_size_dt_strings(old));
 1402              		.loc 1 424 2 is_stmt 1 view .LVU499
 1403              	.LBB342:
 1404              	.LBI342:
 145:/mnt/c/Users/31740/Documents/codes/newcore-rp2350/include/linux/libfdt.h **** {
 1405              		.loc 3 145 24 view .LVU500
 1406              	.LBB343:
 147:/mnt/c/Users/31740/Documents/codes/newcore-rp2350/include/linux/libfdt.h **** 
 1407              		.loc 3 147 2 view .LVU501
 149:/mnt/c/Users/31740/Documents/codes/newcore-rp2350/include/linux/libfdt.h **** 		| ((uint32_t)bp[1] << 16)
ARM GAS  /tmp/ccyijaMA.s 			page 45


 1408              		.loc 3 149 2 view .LVU502
 150:/mnt/c/Users/31740/Documents/codes/newcore-rp2350/include/linux/libfdt.h **** 		| ((uint32_t)bp[2] << 8)
 1409              		.loc 3 150 18 is_stmt 0 view .LVU503
 1410 00bc 94F82120 		ldrb	r2, [r4, #33]	@ zero_extendqisi2
 151:/mnt/c/Users/31740/Documents/codes/newcore-rp2350/include/linux/libfdt.h **** 		| bp[3];
 1411              		.loc 3 151 18 view .LVU504
 1412 00c0 94F82230 		ldrb	r3, [r4, #34]	@ zero_extendqisi2
 152:/mnt/c/Users/31740/Documents/codes/newcore-rp2350/include/linux/libfdt.h **** }
 1413              		.loc 3 152 7 view .LVU505
 1414 00c4 94F82310 		ldrb	r1, [r4, #35]	@ zero_extendqisi2
 1415              	.LVL123:
 152:/mnt/c/Users/31740/Documents/codes/newcore-rp2350/include/linux/libfdt.h **** }
 1416              		.loc 3 152 7 view .LVU506
 1417              	.LBE343:
 1418              	.LBE342:
 1419              	.LBB344:
 1420              	.LBI344:
 278:/mnt/c/Users/31740/Documents/codes/newcore-rp2350/include/linux/libfdt.h **** fdt_set_hdr_(size_dt_struct)
 1421              		.loc 3 278 1 is_stmt 1 view .LVU507
 1422              	.LBB345:
 278:/mnt/c/Users/31740/Documents/codes/newcore-rp2350/include/linux/libfdt.h **** fdt_set_hdr_(size_dt_struct)
 1423              		.loc 3 278 1 view .LVU508
 278:/mnt/c/Users/31740/Documents/codes/newcore-rp2350/include/linux/libfdt.h **** fdt_set_hdr_(size_dt_struct)
 1424              		.loc 3 278 1 view .LVU509
 1425              	.LBB346:
 1426              	.LBI346:
  57:/mnt/c/Users/31740/Documents/codes/newcore-rp2350/include/linux/libfdt_env.h **** {
 1427              		.loc 4 57 23 view .LVU510
 1428              	.LBB347:
 1429              		.loc 4 59 2 view .LVU511
 1430              		.loc 4 59 28 is_stmt 0 view .LVU512
 1431 00c8 1B04     		lsls	r3, r3, #16
 1432              	.LVL124:
 1433              		.loc 4 59 28 view .LVU513
 1434 00ca 43EA0163 		orr	r3, r3, r1, lsl #24
 1435 00ce 43EA0223 		orr	r3, r3, r2, lsl #8
 1436 00d2 94F82020 		ldrb	r2, [r4, #32]	@ zero_extendqisi2
 1437              	.LVL125:
 1438              		.loc 4 59 9 view .LVU514
 1439 00d6 1343     		orrs	r3, r3, r2
 1440              	.LVL126:
 1441              		.loc 4 59 9 view .LVU515
 1442              	.LBE347:
 1443              	.LBE346:
 278:/mnt/c/Users/31740/Documents/codes/newcore-rp2350/include/linux/libfdt.h **** fdt_set_hdr_(size_dt_struct)
 1444              		.loc 3 278 1 discriminator 1 view .LVU516
 1445 00d8 2B62     		str	r3, [r5, #32]
 1446              	.LVL127:
 278:/mnt/c/Users/31740/Documents/codes/newcore-rp2350/include/linux/libfdt.h **** fdt_set_hdr_(size_dt_struct)
 1447              		.loc 3 278 1 discriminator 1 view .LVU517
 1448              	.LBE345:
 1449              	.LBE344:
 425:/mnt/c/Users/31740/Documents/codes/newcore-rp2350/lib/fdt/fdt_rw.c **** }
 1450              		.loc 1 425 1 view .LVU518
 1451 00da BDE8F081 		pop	{r4, r5, r6, r7, r8, pc}
 1452              		.loc 1 425 1 view .LVU519
 1453              		.cfi_endproc
ARM GAS  /tmp/ccyijaMA.s 			page 46


 1454              	.LFE96:
 1456              		.section	.text.fdt_del_last_string_,"ax",%progbits
 1457              		.align	1
 1458              		.syntax unified
 1459              		.thumb
 1460              		.thumb_func
 1462              	fdt_del_last_string_:
 1463              	.LVL128:
 1464              	.LFB81:
 100:/mnt/c/Users/31740/Documents/codes/newcore-rp2350/lib/fdt/fdt_rw.c **** 	int newlen = strlen(s) + 1;
 1465              		.loc 1 100 1 is_stmt 1 view -0
 1466              		.cfi_startproc
 1467              		@ args = 0, pretend = 0, frame = 0
 1468              		@ frame_needed = 0, uses_anonymous_args = 0
 100:/mnt/c/Users/31740/Documents/codes/newcore-rp2350/lib/fdt/fdt_rw.c **** 	int newlen = strlen(s) + 1;
 1469              		.loc 1 100 1 is_stmt 0 view .LVU521
 1470 0000 10B5     		push	{r4, lr}
 1471              	.LCFI9:
 1472              		.cfi_def_cfa_offset 8
 1473              		.cfi_offset 4, -8
 1474              		.cfi_offset 14, -4
 1475 0002 0446     		mov	r4, r0
 101:/mnt/c/Users/31740/Documents/codes/newcore-rp2350/lib/fdt/fdt_rw.c **** 
 1476              		.loc 1 101 2 is_stmt 1 view .LVU522
 101:/mnt/c/Users/31740/Documents/codes/newcore-rp2350/lib/fdt/fdt_rw.c **** 
 1477              		.loc 1 101 15 is_stmt 0 view .LVU523
 1478 0004 0846     		mov	r0, r1
 1479              	.LVL129:
 101:/mnt/c/Users/31740/Documents/codes/newcore-rp2350/lib/fdt/fdt_rw.c **** 
 1480              		.loc 1 101 15 view .LVU524
 1481 0006 FFF7FEFF 		bl	strlen
 1482              	.LVL130:
 101:/mnt/c/Users/31740/Documents/codes/newcore-rp2350/lib/fdt/fdt_rw.c **** 
 1483              		.loc 1 101 25 discriminator 1 view .LVU525
 1484 000a 0130     		adds	r0, r0, #1
 1485              	.LVL131:
 103:/mnt/c/Users/31740/Documents/codes/newcore-rp2350/lib/fdt/fdt_rw.c **** }
 1486              		.loc 1 103 2 is_stmt 1 view .LVU526
 1487              	.LBB348:
 1488              	.LBI348:
 145:/mnt/c/Users/31740/Documents/codes/newcore-rp2350/include/linux/libfdt.h **** {
 1489              		.loc 3 145 24 view .LVU527
 1490              	.LBB349:
 147:/mnt/c/Users/31740/Documents/codes/newcore-rp2350/include/linux/libfdt.h **** 
 1491              		.loc 3 147 2 view .LVU528
 149:/mnt/c/Users/31740/Documents/codes/newcore-rp2350/include/linux/libfdt.h **** 		| ((uint32_t)bp[1] << 16)
 1492              		.loc 3 149 2 view .LVU529
 149:/mnt/c/Users/31740/Documents/codes/newcore-rp2350/include/linux/libfdt.h **** 		| ((uint32_t)bp[1] << 16)
 1493              		.loc 3 149 22 is_stmt 0 view .LVU530
 1494 000c 94F82020 		ldrb	r2, [r4, #32]	@ zero_extendqisi2
 150:/mnt/c/Users/31740/Documents/codes/newcore-rp2350/include/linux/libfdt.h **** 		| ((uint32_t)bp[2] << 8)
 1495              		.loc 3 150 18 view .LVU531
 1496 0010 94F82130 		ldrb	r3, [r4, #33]	@ zero_extendqisi2
 150:/mnt/c/Users/31740/Documents/codes/newcore-rp2350/include/linux/libfdt.h **** 		| ((uint32_t)bp[2] << 8)
 1497              		.loc 3 150 22 view .LVU532
 1498 0014 1B04     		lsls	r3, r3, #16
 150:/mnt/c/Users/31740/Documents/codes/newcore-rp2350/include/linux/libfdt.h **** 		| ((uint32_t)bp[2] << 8)
ARM GAS  /tmp/ccyijaMA.s 			page 47


 1499              		.loc 3 150 3 view .LVU533
 1500 0016 43EA0263 		orr	r3, r3, r2, lsl #24
 151:/mnt/c/Users/31740/Documents/codes/newcore-rp2350/include/linux/libfdt.h **** 		| bp[3];
 1501              		.loc 3 151 18 view .LVU534
 1502 001a 94F82220 		ldrb	r2, [r4, #34]	@ zero_extendqisi2
 151:/mnt/c/Users/31740/Documents/codes/newcore-rp2350/include/linux/libfdt.h **** 		| bp[3];
 1503              		.loc 3 151 3 view .LVU535
 1504 001e 43EA0223 		orr	r3, r3, r2, lsl #8
 152:/mnt/c/Users/31740/Documents/codes/newcore-rp2350/include/linux/libfdt.h **** }
 1505              		.loc 3 152 7 view .LVU536
 1506 0022 94F82320 		ldrb	r2, [r4, #35]	@ zero_extendqisi2
 152:/mnt/c/Users/31740/Documents/codes/newcore-rp2350/include/linux/libfdt.h **** }
 1507              		.loc 3 152 3 view .LVU537
 1508 0026 1343     		orrs	r3, r3, r2
 1509              	.LVL132:
 152:/mnt/c/Users/31740/Documents/codes/newcore-rp2350/include/linux/libfdt.h **** }
 1510              		.loc 3 152 3 view .LVU538
 1511              	.LBE349:
 1512              	.LBE348:
 103:/mnt/c/Users/31740/Documents/codes/newcore-rp2350/lib/fdt/fdt_rw.c **** }
 1513              		.loc 1 103 2 discriminator 1 view .LVU539
 1514 0028 1B1A     		subs	r3, r3, r0
 1515              	.LVL133:
 1516              	.LBB350:
 1517              	.LBI350:
 278:/mnt/c/Users/31740/Documents/codes/newcore-rp2350/include/linux/libfdt.h **** fdt_set_hdr_(size_dt_struct)
 1518              		.loc 3 278 1 is_stmt 1 view .LVU540
 1519              	.LBB351:
 278:/mnt/c/Users/31740/Documents/codes/newcore-rp2350/include/linux/libfdt.h **** fdt_set_hdr_(size_dt_struct)
 1520              		.loc 3 278 1 view .LVU541
 278:/mnt/c/Users/31740/Documents/codes/newcore-rp2350/include/linux/libfdt.h **** fdt_set_hdr_(size_dt_struct)
 1521              		.loc 3 278 1 view .LVU542
 1522              	.LBB352:
 1523              	.LBI352:
  57:/mnt/c/Users/31740/Documents/codes/newcore-rp2350/include/linux/libfdt_env.h **** {
 1524              		.loc 4 57 23 view .LVU543
 1525              	.LBB353:
 1526              		.loc 4 59 2 view .LVU544
 1527              		.loc 4 59 28 is_stmt 0 view .LVU545
 1528 002a C3F30722 		ubfx	r2, r3, #8, #8
 1529 002e 1204     		lsls	r2, r2, #16
 1530 0030 42EA0362 		orr	r2, r2, r3, lsl #24
 1531 0034 C3F30741 		ubfx	r1, r3, #16, #8
 1532 0038 42EA0122 		orr	r2, r2, r1, lsl #8
 1533              		.loc 4 59 9 view .LVU546
 1534 003c 42EA1363 		orr	r3, r2, r3, lsr #24
 1535              	.LVL134:
 1536              		.loc 4 59 9 view .LVU547
 1537              	.LBE353:
 1538              	.LBE352:
 278:/mnt/c/Users/31740/Documents/codes/newcore-rp2350/include/linux/libfdt.h **** fdt_set_hdr_(size_dt_struct)
 1539              		.loc 3 278 1 discriminator 1 view .LVU548
 1540 0040 2362     		str	r3, [r4, #32]
 1541              	.LVL135:
 278:/mnt/c/Users/31740/Documents/codes/newcore-rp2350/include/linux/libfdt.h **** fdt_set_hdr_(size_dt_struct)
 1542              		.loc 3 278 1 discriminator 1 view .LVU549
 1543              	.LBE351:
ARM GAS  /tmp/ccyijaMA.s 			page 48


 1544              	.LBE350:
 104:/mnt/c/Users/31740/Documents/codes/newcore-rp2350/lib/fdt/fdt_rw.c **** 
 1545              		.loc 1 104 1 view .LVU550
 1546 0042 10BD     		pop	{r4, pc}
 104:/mnt/c/Users/31740/Documents/codes/newcore-rp2350/lib/fdt/fdt_rw.c **** 
 1547              		.loc 1 104 1 view .LVU551
 1548              		.cfi_endproc
 1549              	.LFE81:
 1551              		.section	.text.fdt_resize_property_,"ax",%progbits
 1552              		.align	1
 1553              		.syntax unified
 1554              		.thumb
 1555              		.thumb_func
 1557              	fdt_resize_property_:
 1558              	.LVL136:
 1559              	.LFB86:
 190:/mnt/c/Users/31740/Documents/codes/newcore-rp2350/lib/fdt/fdt_rw.c **** 	int oldlen;
 1560              		.loc 1 190 1 is_stmt 1 view -0
 1561              		.cfi_startproc
 1562              		@ args = 8, pretend = 0, frame = 8
 1563              		@ frame_needed = 0, uses_anonymous_args = 0
 190:/mnt/c/Users/31740/Documents/codes/newcore-rp2350/lib/fdt/fdt_rw.c **** 	int oldlen;
 1564              		.loc 1 190 1 is_stmt 0 view .LVU553
 1565 0000 F0B5     		push	{r4, r5, r6, r7, lr}
 1566              	.LCFI10:
 1567              		.cfi_def_cfa_offset 20
 1568              		.cfi_offset 4, -20
 1569              		.cfi_offset 5, -16
 1570              		.cfi_offset 6, -12
 1571              		.cfi_offset 7, -8
 1572              		.cfi_offset 14, -4
 1573 0002 85B0     		sub	sp, sp, #20
 1574              	.LCFI11:
 1575              		.cfi_def_cfa_offset 40
 1576 0004 0746     		mov	r7, r0
 1577 0006 0A9C     		ldr	r4, [sp, #40]
 1578 0008 0B9E     		ldr	r6, [sp, #44]
 191:/mnt/c/Users/31740/Documents/codes/newcore-rp2350/lib/fdt/fdt_rw.c **** 	int err;
 1579              		.loc 1 191 2 is_stmt 1 view .LVU554
 192:/mnt/c/Users/31740/Documents/codes/newcore-rp2350/lib/fdt/fdt_rw.c **** 
 1580              		.loc 1 192 2 view .LVU555
 194:/mnt/c/Users/31740/Documents/codes/newcore-rp2350/lib/fdt/fdt_rw.c **** 					   &oldlen);
 1581              		.loc 1 194 2 view .LVU556
 1582              	.LVL137:
 1583              	.LBB354:
 1584              	.LBI354:
 280:/mnt/c/Users/31740/Documents/codes/newcore-rp2350/include/linux/libfdt.h **** #undef fdt_set_hdr_
 281:/mnt/c/Users/31740/Documents/codes/newcore-rp2350/include/linux/libfdt.h **** 
 282:/mnt/c/Users/31740/Documents/codes/newcore-rp2350/include/linux/libfdt.h **** /**
 283:/mnt/c/Users/31740/Documents/codes/newcore-rp2350/include/linux/libfdt.h ****  * fdt_header_size - return the size of the tree's header
 284:/mnt/c/Users/31740/Documents/codes/newcore-rp2350/include/linux/libfdt.h ****  * @fdt: pointer to a flattened device tree
 285:/mnt/c/Users/31740/Documents/codes/newcore-rp2350/include/linux/libfdt.h ****  *
 286:/mnt/c/Users/31740/Documents/codes/newcore-rp2350/include/linux/libfdt.h ****  * Return: size of DTB header in bytes
 287:/mnt/c/Users/31740/Documents/codes/newcore-rp2350/include/linux/libfdt.h ****  */
 288:/mnt/c/Users/31740/Documents/codes/newcore-rp2350/include/linux/libfdt.h **** size_t fdt_header_size(const void *fdt);
 289:/mnt/c/Users/31740/Documents/codes/newcore-rp2350/include/linux/libfdt.h **** 
 290:/mnt/c/Users/31740/Documents/codes/newcore-rp2350/include/linux/libfdt.h **** /**
ARM GAS  /tmp/ccyijaMA.s 			page 49


 291:/mnt/c/Users/31740/Documents/codes/newcore-rp2350/include/linux/libfdt.h ****  * fdt_header_size_ - internal function to get header size from a version number
 292:/mnt/c/Users/31740/Documents/codes/newcore-rp2350/include/linux/libfdt.h ****  * @version: device tree version number
 293:/mnt/c/Users/31740/Documents/codes/newcore-rp2350/include/linux/libfdt.h ****  *
 294:/mnt/c/Users/31740/Documents/codes/newcore-rp2350/include/linux/libfdt.h ****  * Return: size of DTB header in bytes
 295:/mnt/c/Users/31740/Documents/codes/newcore-rp2350/include/linux/libfdt.h ****  */
 296:/mnt/c/Users/31740/Documents/codes/newcore-rp2350/include/linux/libfdt.h **** size_t fdt_header_size_(uint32_t version);
 297:/mnt/c/Users/31740/Documents/codes/newcore-rp2350/include/linux/libfdt.h **** 
 298:/mnt/c/Users/31740/Documents/codes/newcore-rp2350/include/linux/libfdt.h **** /**
 299:/mnt/c/Users/31740/Documents/codes/newcore-rp2350/include/linux/libfdt.h ****  * fdt_check_header - sanity check a device tree header
 300:/mnt/c/Users/31740/Documents/codes/newcore-rp2350/include/linux/libfdt.h ****  * @fdt: pointer to data which might be a flattened device tree
 301:/mnt/c/Users/31740/Documents/codes/newcore-rp2350/include/linux/libfdt.h ****  *
 302:/mnt/c/Users/31740/Documents/codes/newcore-rp2350/include/linux/libfdt.h ****  * fdt_check_header() checks that the given buffer contains what
 303:/mnt/c/Users/31740/Documents/codes/newcore-rp2350/include/linux/libfdt.h ****  * appears to be a flattened device tree, and that the header contains
 304:/mnt/c/Users/31740/Documents/codes/newcore-rp2350/include/linux/libfdt.h ****  * valid information (to the extent that can be determined from the
 305:/mnt/c/Users/31740/Documents/codes/newcore-rp2350/include/linux/libfdt.h ****  * header alone).
 306:/mnt/c/Users/31740/Documents/codes/newcore-rp2350/include/linux/libfdt.h ****  *
 307:/mnt/c/Users/31740/Documents/codes/newcore-rp2350/include/linux/libfdt.h ****  * returns:
 308:/mnt/c/Users/31740/Documents/codes/newcore-rp2350/include/linux/libfdt.h ****  *     0, if the buffer appears to contain a valid device tree
 309:/mnt/c/Users/31740/Documents/codes/newcore-rp2350/include/linux/libfdt.h ****  *     -FDT_ERR_BADMAGIC,
 310:/mnt/c/Users/31740/Documents/codes/newcore-rp2350/include/linux/libfdt.h ****  *     -FDT_ERR_BADVERSION,
 311:/mnt/c/Users/31740/Documents/codes/newcore-rp2350/include/linux/libfdt.h ****  *     -FDT_ERR_BADSTATE,
 312:/mnt/c/Users/31740/Documents/codes/newcore-rp2350/include/linux/libfdt.h ****  *     -FDT_ERR_TRUNCATED, standard meanings, as above
 313:/mnt/c/Users/31740/Documents/codes/newcore-rp2350/include/linux/libfdt.h ****  */
 314:/mnt/c/Users/31740/Documents/codes/newcore-rp2350/include/linux/libfdt.h **** int fdt_check_header(const void *fdt);
 315:/mnt/c/Users/31740/Documents/codes/newcore-rp2350/include/linux/libfdt.h **** 
 316:/mnt/c/Users/31740/Documents/codes/newcore-rp2350/include/linux/libfdt.h **** /**
 317:/mnt/c/Users/31740/Documents/codes/newcore-rp2350/include/linux/libfdt.h ****  * fdt_move - move a device tree around in memory
 318:/mnt/c/Users/31740/Documents/codes/newcore-rp2350/include/linux/libfdt.h ****  * @fdt: pointer to the device tree to move
 319:/mnt/c/Users/31740/Documents/codes/newcore-rp2350/include/linux/libfdt.h ****  * @buf: pointer to memory where the device is to be moved
 320:/mnt/c/Users/31740/Documents/codes/newcore-rp2350/include/linux/libfdt.h ****  * @bufsize: size of the memory space at buf
 321:/mnt/c/Users/31740/Documents/codes/newcore-rp2350/include/linux/libfdt.h ****  *
 322:/mnt/c/Users/31740/Documents/codes/newcore-rp2350/include/linux/libfdt.h ****  * fdt_move() relocates, if possible, the device tree blob located at
 323:/mnt/c/Users/31740/Documents/codes/newcore-rp2350/include/linux/libfdt.h ****  * fdt to the buffer at buf of size bufsize.  The buffer may overlap
 324:/mnt/c/Users/31740/Documents/codes/newcore-rp2350/include/linux/libfdt.h ****  * with the existing device tree blob at fdt.  Therefore,
 325:/mnt/c/Users/31740/Documents/codes/newcore-rp2350/include/linux/libfdt.h ****  *     fdt_move(fdt, fdt, fdt_totalsize(fdt))
 326:/mnt/c/Users/31740/Documents/codes/newcore-rp2350/include/linux/libfdt.h ****  * should always succeed.
 327:/mnt/c/Users/31740/Documents/codes/newcore-rp2350/include/linux/libfdt.h ****  *
 328:/mnt/c/Users/31740/Documents/codes/newcore-rp2350/include/linux/libfdt.h ****  * returns:
 329:/mnt/c/Users/31740/Documents/codes/newcore-rp2350/include/linux/libfdt.h ****  *     0, on success
 330:/mnt/c/Users/31740/Documents/codes/newcore-rp2350/include/linux/libfdt.h ****  *     -FDT_ERR_NOSPACE, bufsize is insufficient to contain the device tree
 331:/mnt/c/Users/31740/Documents/codes/newcore-rp2350/include/linux/libfdt.h ****  *     -FDT_ERR_BADMAGIC,
 332:/mnt/c/Users/31740/Documents/codes/newcore-rp2350/include/linux/libfdt.h ****  *     -FDT_ERR_BADVERSION,
 333:/mnt/c/Users/31740/Documents/codes/newcore-rp2350/include/linux/libfdt.h ****  *     -FDT_ERR_BADSTATE, standard meanings
 334:/mnt/c/Users/31740/Documents/codes/newcore-rp2350/include/linux/libfdt.h ****  */
 335:/mnt/c/Users/31740/Documents/codes/newcore-rp2350/include/linux/libfdt.h **** int fdt_move(const void *fdt, void *buf, int bufsize);
 336:/mnt/c/Users/31740/Documents/codes/newcore-rp2350/include/linux/libfdt.h **** 
 337:/mnt/c/Users/31740/Documents/codes/newcore-rp2350/include/linux/libfdt.h **** /**********************************************************************/
 338:/mnt/c/Users/31740/Documents/codes/newcore-rp2350/include/linux/libfdt.h **** /* Read-only functions                                                */
 339:/mnt/c/Users/31740/Documents/codes/newcore-rp2350/include/linux/libfdt.h **** /**********************************************************************/
 340:/mnt/c/Users/31740/Documents/codes/newcore-rp2350/include/linux/libfdt.h **** 
 341:/mnt/c/Users/31740/Documents/codes/newcore-rp2350/include/linux/libfdt.h **** int fdt_check_full(const void *fdt, size_t bufsize);
 342:/mnt/c/Users/31740/Documents/codes/newcore-rp2350/include/linux/libfdt.h **** 
 343:/mnt/c/Users/31740/Documents/codes/newcore-rp2350/include/linux/libfdt.h **** /**
 344:/mnt/c/Users/31740/Documents/codes/newcore-rp2350/include/linux/libfdt.h ****  * fdt_get_string - retrieve a string from the strings block of a device tree
 345:/mnt/c/Users/31740/Documents/codes/newcore-rp2350/include/linux/libfdt.h ****  * @fdt: pointer to the device tree blob
 346:/mnt/c/Users/31740/Documents/codes/newcore-rp2350/include/linux/libfdt.h ****  * @stroffset: offset of the string within the strings block (native endian)
 347:/mnt/c/Users/31740/Documents/codes/newcore-rp2350/include/linux/libfdt.h ****  * @lenp: optional pointer to return the string's length
ARM GAS  /tmp/ccyijaMA.s 			page 50


 348:/mnt/c/Users/31740/Documents/codes/newcore-rp2350/include/linux/libfdt.h ****  *
 349:/mnt/c/Users/31740/Documents/codes/newcore-rp2350/include/linux/libfdt.h ****  * fdt_get_string() retrieves a pointer to a single string from the
 350:/mnt/c/Users/31740/Documents/codes/newcore-rp2350/include/linux/libfdt.h ****  * strings block of the device tree blob at fdt, and optionally also
 351:/mnt/c/Users/31740/Documents/codes/newcore-rp2350/include/linux/libfdt.h ****  * returns the string's length in *lenp.
 352:/mnt/c/Users/31740/Documents/codes/newcore-rp2350/include/linux/libfdt.h ****  *
 353:/mnt/c/Users/31740/Documents/codes/newcore-rp2350/include/linux/libfdt.h ****  * returns:
 354:/mnt/c/Users/31740/Documents/codes/newcore-rp2350/include/linux/libfdt.h ****  *     a pointer to the string, on success
 355:/mnt/c/Users/31740/Documents/codes/newcore-rp2350/include/linux/libfdt.h ****  *     NULL, if stroffset is out of bounds, or doesn't point to a valid string
 356:/mnt/c/Users/31740/Documents/codes/newcore-rp2350/include/linux/libfdt.h ****  */
 357:/mnt/c/Users/31740/Documents/codes/newcore-rp2350/include/linux/libfdt.h **** const char *fdt_get_string(const void *fdt, int stroffset, int *lenp);
 358:/mnt/c/Users/31740/Documents/codes/newcore-rp2350/include/linux/libfdt.h **** 
 359:/mnt/c/Users/31740/Documents/codes/newcore-rp2350/include/linux/libfdt.h **** /**
 360:/mnt/c/Users/31740/Documents/codes/newcore-rp2350/include/linux/libfdt.h ****  * fdt_string - retrieve a string from the strings block of a device tree
 361:/mnt/c/Users/31740/Documents/codes/newcore-rp2350/include/linux/libfdt.h ****  * @fdt: pointer to the device tree blob
 362:/mnt/c/Users/31740/Documents/codes/newcore-rp2350/include/linux/libfdt.h ****  * @stroffset: offset of the string within the strings block (native endian)
 363:/mnt/c/Users/31740/Documents/codes/newcore-rp2350/include/linux/libfdt.h ****  *
 364:/mnt/c/Users/31740/Documents/codes/newcore-rp2350/include/linux/libfdt.h ****  * fdt_string() retrieves a pointer to a single string from the
 365:/mnt/c/Users/31740/Documents/codes/newcore-rp2350/include/linux/libfdt.h ****  * strings block of the device tree blob at fdt.
 366:/mnt/c/Users/31740/Documents/codes/newcore-rp2350/include/linux/libfdt.h ****  *
 367:/mnt/c/Users/31740/Documents/codes/newcore-rp2350/include/linux/libfdt.h ****  * returns:
 368:/mnt/c/Users/31740/Documents/codes/newcore-rp2350/include/linux/libfdt.h ****  *     a pointer to the string, on success
 369:/mnt/c/Users/31740/Documents/codes/newcore-rp2350/include/linux/libfdt.h ****  *     NULL, if stroffset is out of bounds, or doesn't point to a valid string
 370:/mnt/c/Users/31740/Documents/codes/newcore-rp2350/include/linux/libfdt.h ****  */
 371:/mnt/c/Users/31740/Documents/codes/newcore-rp2350/include/linux/libfdt.h **** const char *fdt_string(const void *fdt, int stroffset);
 372:/mnt/c/Users/31740/Documents/codes/newcore-rp2350/include/linux/libfdt.h **** 
 373:/mnt/c/Users/31740/Documents/codes/newcore-rp2350/include/linux/libfdt.h **** /**
 374:/mnt/c/Users/31740/Documents/codes/newcore-rp2350/include/linux/libfdt.h ****  * fdt_find_max_phandle - find and return the highest phandle in a tree
 375:/mnt/c/Users/31740/Documents/codes/newcore-rp2350/include/linux/libfdt.h ****  * @fdt: pointer to the device tree blob
 376:/mnt/c/Users/31740/Documents/codes/newcore-rp2350/include/linux/libfdt.h ****  * @phandle: return location for the highest phandle value found in the tree
 377:/mnt/c/Users/31740/Documents/codes/newcore-rp2350/include/linux/libfdt.h ****  *
 378:/mnt/c/Users/31740/Documents/codes/newcore-rp2350/include/linux/libfdt.h ****  * fdt_find_max_phandle() finds the highest phandle value in the given device
 379:/mnt/c/Users/31740/Documents/codes/newcore-rp2350/include/linux/libfdt.h ****  * tree. The value returned in @phandle is only valid if the function returns
 380:/mnt/c/Users/31740/Documents/codes/newcore-rp2350/include/linux/libfdt.h ****  * success.
 381:/mnt/c/Users/31740/Documents/codes/newcore-rp2350/include/linux/libfdt.h ****  *
 382:/mnt/c/Users/31740/Documents/codes/newcore-rp2350/include/linux/libfdt.h ****  * returns:
 383:/mnt/c/Users/31740/Documents/codes/newcore-rp2350/include/linux/libfdt.h ****  *     0 on success or a negative error code on failure
 384:/mnt/c/Users/31740/Documents/codes/newcore-rp2350/include/linux/libfdt.h ****  */
 385:/mnt/c/Users/31740/Documents/codes/newcore-rp2350/include/linux/libfdt.h **** int fdt_find_max_phandle(const void *fdt, uint32_t *phandle);
 386:/mnt/c/Users/31740/Documents/codes/newcore-rp2350/include/linux/libfdt.h **** 
 387:/mnt/c/Users/31740/Documents/codes/newcore-rp2350/include/linux/libfdt.h **** /**
 388:/mnt/c/Users/31740/Documents/codes/newcore-rp2350/include/linux/libfdt.h ****  * fdt_get_max_phandle - retrieves the highest phandle in a tree
 389:/mnt/c/Users/31740/Documents/codes/newcore-rp2350/include/linux/libfdt.h ****  * @fdt: pointer to the device tree blob
 390:/mnt/c/Users/31740/Documents/codes/newcore-rp2350/include/linux/libfdt.h ****  *
 391:/mnt/c/Users/31740/Documents/codes/newcore-rp2350/include/linux/libfdt.h ****  * fdt_get_max_phandle retrieves the highest phandle in the given
 392:/mnt/c/Users/31740/Documents/codes/newcore-rp2350/include/linux/libfdt.h ****  * device tree. This will ignore badly formatted phandles, or phandles
 393:/mnt/c/Users/31740/Documents/codes/newcore-rp2350/include/linux/libfdt.h ****  * with a value of 0 or -1.
 394:/mnt/c/Users/31740/Documents/codes/newcore-rp2350/include/linux/libfdt.h ****  *
 395:/mnt/c/Users/31740/Documents/codes/newcore-rp2350/include/linux/libfdt.h ****  * This function is deprecated in favour of fdt_find_max_phandle().
 396:/mnt/c/Users/31740/Documents/codes/newcore-rp2350/include/linux/libfdt.h ****  *
 397:/mnt/c/Users/31740/Documents/codes/newcore-rp2350/include/linux/libfdt.h ****  * returns:
 398:/mnt/c/Users/31740/Documents/codes/newcore-rp2350/include/linux/libfdt.h ****  *      the highest phandle on success
 399:/mnt/c/Users/31740/Documents/codes/newcore-rp2350/include/linux/libfdt.h ****  *      0, if no phandle was found in the device tree
 400:/mnt/c/Users/31740/Documents/codes/newcore-rp2350/include/linux/libfdt.h ****  *      -1, if an error occurred
 401:/mnt/c/Users/31740/Documents/codes/newcore-rp2350/include/linux/libfdt.h ****  */
 402:/mnt/c/Users/31740/Documents/codes/newcore-rp2350/include/linux/libfdt.h **** static inline uint32_t fdt_get_max_phandle(const void *fdt)
 403:/mnt/c/Users/31740/Documents/codes/newcore-rp2350/include/linux/libfdt.h **** {
 404:/mnt/c/Users/31740/Documents/codes/newcore-rp2350/include/linux/libfdt.h **** 	uint32_t phandle;
ARM GAS  /tmp/ccyijaMA.s 			page 51


 405:/mnt/c/Users/31740/Documents/codes/newcore-rp2350/include/linux/libfdt.h **** 	int err;
 406:/mnt/c/Users/31740/Documents/codes/newcore-rp2350/include/linux/libfdt.h **** 
 407:/mnt/c/Users/31740/Documents/codes/newcore-rp2350/include/linux/libfdt.h **** 	err = fdt_find_max_phandle(fdt, &phandle);
 408:/mnt/c/Users/31740/Documents/codes/newcore-rp2350/include/linux/libfdt.h **** 	if (err < 0)
 409:/mnt/c/Users/31740/Documents/codes/newcore-rp2350/include/linux/libfdt.h **** 		return (uint32_t)-1;
 410:/mnt/c/Users/31740/Documents/codes/newcore-rp2350/include/linux/libfdt.h **** 
 411:/mnt/c/Users/31740/Documents/codes/newcore-rp2350/include/linux/libfdt.h **** 	return phandle;
 412:/mnt/c/Users/31740/Documents/codes/newcore-rp2350/include/linux/libfdt.h **** }
 413:/mnt/c/Users/31740/Documents/codes/newcore-rp2350/include/linux/libfdt.h **** 
 414:/mnt/c/Users/31740/Documents/codes/newcore-rp2350/include/linux/libfdt.h **** /**
 415:/mnt/c/Users/31740/Documents/codes/newcore-rp2350/include/linux/libfdt.h ****  * fdt_generate_phandle - return a new, unused phandle for a device tree blob
 416:/mnt/c/Users/31740/Documents/codes/newcore-rp2350/include/linux/libfdt.h ****  * @fdt: pointer to the device tree blob
 417:/mnt/c/Users/31740/Documents/codes/newcore-rp2350/include/linux/libfdt.h ****  * @phandle: return location for the new phandle
 418:/mnt/c/Users/31740/Documents/codes/newcore-rp2350/include/linux/libfdt.h ****  *
 419:/mnt/c/Users/31740/Documents/codes/newcore-rp2350/include/linux/libfdt.h ****  * Walks the device tree blob and looks for the highest phandle value. On
 420:/mnt/c/Users/31740/Documents/codes/newcore-rp2350/include/linux/libfdt.h ****  * success, the new, unused phandle value (one higher than the previously
 421:/mnt/c/Users/31740/Documents/codes/newcore-rp2350/include/linux/libfdt.h ****  * highest phandle value in the device tree blob) will be returned in the
 422:/mnt/c/Users/31740/Documents/codes/newcore-rp2350/include/linux/libfdt.h ****  * @phandle parameter.
 423:/mnt/c/Users/31740/Documents/codes/newcore-rp2350/include/linux/libfdt.h ****  *
 424:/mnt/c/Users/31740/Documents/codes/newcore-rp2350/include/linux/libfdt.h ****  * Return: 0 on success or a negative error-code on failure
 425:/mnt/c/Users/31740/Documents/codes/newcore-rp2350/include/linux/libfdt.h ****  */
 426:/mnt/c/Users/31740/Documents/codes/newcore-rp2350/include/linux/libfdt.h **** int fdt_generate_phandle(const void *fdt, uint32_t *phandle);
 427:/mnt/c/Users/31740/Documents/codes/newcore-rp2350/include/linux/libfdt.h **** 
 428:/mnt/c/Users/31740/Documents/codes/newcore-rp2350/include/linux/libfdt.h **** /**
 429:/mnt/c/Users/31740/Documents/codes/newcore-rp2350/include/linux/libfdt.h ****  * fdt_num_mem_rsv - retrieve the number of memory reserve map entries
 430:/mnt/c/Users/31740/Documents/codes/newcore-rp2350/include/linux/libfdt.h ****  * @fdt: pointer to the device tree blob
 431:/mnt/c/Users/31740/Documents/codes/newcore-rp2350/include/linux/libfdt.h ****  *
 432:/mnt/c/Users/31740/Documents/codes/newcore-rp2350/include/linux/libfdt.h ****  * Returns the number of entries in the device tree blob's memory
 433:/mnt/c/Users/31740/Documents/codes/newcore-rp2350/include/linux/libfdt.h ****  * reservation map.  This does not include the terminating 0,0 entry
 434:/mnt/c/Users/31740/Documents/codes/newcore-rp2350/include/linux/libfdt.h ****  * or any other (0,0) entries reserved for expansion.
 435:/mnt/c/Users/31740/Documents/codes/newcore-rp2350/include/linux/libfdt.h ****  *
 436:/mnt/c/Users/31740/Documents/codes/newcore-rp2350/include/linux/libfdt.h ****  * returns:
 437:/mnt/c/Users/31740/Documents/codes/newcore-rp2350/include/linux/libfdt.h ****  *     the number of entries
 438:/mnt/c/Users/31740/Documents/codes/newcore-rp2350/include/linux/libfdt.h ****  */
 439:/mnt/c/Users/31740/Documents/codes/newcore-rp2350/include/linux/libfdt.h **** int fdt_num_mem_rsv(const void *fdt);
 440:/mnt/c/Users/31740/Documents/codes/newcore-rp2350/include/linux/libfdt.h **** 
 441:/mnt/c/Users/31740/Documents/codes/newcore-rp2350/include/linux/libfdt.h **** /**
 442:/mnt/c/Users/31740/Documents/codes/newcore-rp2350/include/linux/libfdt.h ****  * fdt_get_mem_rsv - retrieve one memory reserve map entry
 443:/mnt/c/Users/31740/Documents/codes/newcore-rp2350/include/linux/libfdt.h ****  * @fdt: pointer to the device tree blob
 444:/mnt/c/Users/31740/Documents/codes/newcore-rp2350/include/linux/libfdt.h ****  * @n: index of reserve map entry
 445:/mnt/c/Users/31740/Documents/codes/newcore-rp2350/include/linux/libfdt.h ****  * @address: pointer to 64-bit variable to hold the start address
 446:/mnt/c/Users/31740/Documents/codes/newcore-rp2350/include/linux/libfdt.h ****  * @size: pointer to 64-bit variable to hold the size of the entry
 447:/mnt/c/Users/31740/Documents/codes/newcore-rp2350/include/linux/libfdt.h ****  *
 448:/mnt/c/Users/31740/Documents/codes/newcore-rp2350/include/linux/libfdt.h ****  * On success, @address and @size will contain the address and size of
 449:/mnt/c/Users/31740/Documents/codes/newcore-rp2350/include/linux/libfdt.h ****  * the n-th reserve map entry from the device tree blob, in
 450:/mnt/c/Users/31740/Documents/codes/newcore-rp2350/include/linux/libfdt.h ****  * native-endian format.
 451:/mnt/c/Users/31740/Documents/codes/newcore-rp2350/include/linux/libfdt.h ****  *
 452:/mnt/c/Users/31740/Documents/codes/newcore-rp2350/include/linux/libfdt.h ****  * returns:
 453:/mnt/c/Users/31740/Documents/codes/newcore-rp2350/include/linux/libfdt.h ****  *     0, on success
 454:/mnt/c/Users/31740/Documents/codes/newcore-rp2350/include/linux/libfdt.h ****  *     -FDT_ERR_BADMAGIC,
 455:/mnt/c/Users/31740/Documents/codes/newcore-rp2350/include/linux/libfdt.h ****  *     -FDT_ERR_BADVERSION,
 456:/mnt/c/Users/31740/Documents/codes/newcore-rp2350/include/linux/libfdt.h ****  *     -FDT_ERR_BADSTATE, standard meanings
 457:/mnt/c/Users/31740/Documents/codes/newcore-rp2350/include/linux/libfdt.h ****  */
 458:/mnt/c/Users/31740/Documents/codes/newcore-rp2350/include/linux/libfdt.h **** int fdt_get_mem_rsv(const void *fdt, int n, uint64_t *address, uint64_t *size);
 459:/mnt/c/Users/31740/Documents/codes/newcore-rp2350/include/linux/libfdt.h **** 
 460:/mnt/c/Users/31740/Documents/codes/newcore-rp2350/include/linux/libfdt.h **** /**
 461:/mnt/c/Users/31740/Documents/codes/newcore-rp2350/include/linux/libfdt.h ****  * fdt_subnode_offset_namelen - find a subnode based on substring
ARM GAS  /tmp/ccyijaMA.s 			page 52


 462:/mnt/c/Users/31740/Documents/codes/newcore-rp2350/include/linux/libfdt.h ****  * @fdt: pointer to the device tree blob
 463:/mnt/c/Users/31740/Documents/codes/newcore-rp2350/include/linux/libfdt.h ****  * @parentoffset: structure block offset of a node
 464:/mnt/c/Users/31740/Documents/codes/newcore-rp2350/include/linux/libfdt.h ****  * @name: name of the subnode to locate
 465:/mnt/c/Users/31740/Documents/codes/newcore-rp2350/include/linux/libfdt.h ****  * @namelen: number of characters of name to consider
 466:/mnt/c/Users/31740/Documents/codes/newcore-rp2350/include/linux/libfdt.h ****  *
 467:/mnt/c/Users/31740/Documents/codes/newcore-rp2350/include/linux/libfdt.h ****  * Identical to fdt_subnode_offset(), but only examine the first
 468:/mnt/c/Users/31740/Documents/codes/newcore-rp2350/include/linux/libfdt.h ****  * namelen characters of name for matching the subnode name.  This is
 469:/mnt/c/Users/31740/Documents/codes/newcore-rp2350/include/linux/libfdt.h ****  * useful for finding subnodes based on a portion of a larger string,
 470:/mnt/c/Users/31740/Documents/codes/newcore-rp2350/include/linux/libfdt.h ****  * such as a full path.
 471:/mnt/c/Users/31740/Documents/codes/newcore-rp2350/include/linux/libfdt.h ****  *
 472:/mnt/c/Users/31740/Documents/codes/newcore-rp2350/include/linux/libfdt.h ****  * Return: offset of the subnode or -FDT_ERR_NOTFOUND if name not found.
 473:/mnt/c/Users/31740/Documents/codes/newcore-rp2350/include/linux/libfdt.h ****  */
 474:/mnt/c/Users/31740/Documents/codes/newcore-rp2350/include/linux/libfdt.h **** #ifndef SWIG /* Not available in Python */
 475:/mnt/c/Users/31740/Documents/codes/newcore-rp2350/include/linux/libfdt.h **** int fdt_subnode_offset_namelen(const void *fdt, int parentoffset,
 476:/mnt/c/Users/31740/Documents/codes/newcore-rp2350/include/linux/libfdt.h **** 			       const char *name, int namelen);
 477:/mnt/c/Users/31740/Documents/codes/newcore-rp2350/include/linux/libfdt.h **** #endif
 478:/mnt/c/Users/31740/Documents/codes/newcore-rp2350/include/linux/libfdt.h **** /**
 479:/mnt/c/Users/31740/Documents/codes/newcore-rp2350/include/linux/libfdt.h ****  * fdt_subnode_offset - find a subnode of a given node
 480:/mnt/c/Users/31740/Documents/codes/newcore-rp2350/include/linux/libfdt.h ****  * @fdt: pointer to the device tree blob
 481:/mnt/c/Users/31740/Documents/codes/newcore-rp2350/include/linux/libfdt.h ****  * @parentoffset: structure block offset of a node
 482:/mnt/c/Users/31740/Documents/codes/newcore-rp2350/include/linux/libfdt.h ****  * @name: name of the subnode to locate
 483:/mnt/c/Users/31740/Documents/codes/newcore-rp2350/include/linux/libfdt.h ****  *
 484:/mnt/c/Users/31740/Documents/codes/newcore-rp2350/include/linux/libfdt.h ****  * fdt_subnode_offset() finds a subnode of the node at structure block
 485:/mnt/c/Users/31740/Documents/codes/newcore-rp2350/include/linux/libfdt.h ****  * offset parentoffset with the given name.  name may include a unit
 486:/mnt/c/Users/31740/Documents/codes/newcore-rp2350/include/linux/libfdt.h ****  * address, in which case fdt_subnode_offset() will find the subnode
 487:/mnt/c/Users/31740/Documents/codes/newcore-rp2350/include/linux/libfdt.h ****  * with that unit address, or the unit address may be omitted, in
 488:/mnt/c/Users/31740/Documents/codes/newcore-rp2350/include/linux/libfdt.h ****  * which case fdt_subnode_offset() will find an arbitrary subnode
 489:/mnt/c/Users/31740/Documents/codes/newcore-rp2350/include/linux/libfdt.h ****  * whose name excluding unit address matches the given name.
 490:/mnt/c/Users/31740/Documents/codes/newcore-rp2350/include/linux/libfdt.h ****  *
 491:/mnt/c/Users/31740/Documents/codes/newcore-rp2350/include/linux/libfdt.h ****  * returns:
 492:/mnt/c/Users/31740/Documents/codes/newcore-rp2350/include/linux/libfdt.h ****  *	structure block offset of the requested subnode (>=0), on success
 493:/mnt/c/Users/31740/Documents/codes/newcore-rp2350/include/linux/libfdt.h ****  *	-FDT_ERR_NOTFOUND, if the requested subnode does not exist
 494:/mnt/c/Users/31740/Documents/codes/newcore-rp2350/include/linux/libfdt.h ****  *	-FDT_ERR_BADOFFSET, if parentoffset did not point to an FDT_BEGIN_NODE
 495:/mnt/c/Users/31740/Documents/codes/newcore-rp2350/include/linux/libfdt.h ****  *		tag
 496:/mnt/c/Users/31740/Documents/codes/newcore-rp2350/include/linux/libfdt.h ****  *	-FDT_ERR_BADMAGIC,
 497:/mnt/c/Users/31740/Documents/codes/newcore-rp2350/include/linux/libfdt.h ****  *	-FDT_ERR_BADVERSION,
 498:/mnt/c/Users/31740/Documents/codes/newcore-rp2350/include/linux/libfdt.h ****  *	-FDT_ERR_BADSTATE,
 499:/mnt/c/Users/31740/Documents/codes/newcore-rp2350/include/linux/libfdt.h ****  *	-FDT_ERR_BADSTRUCTURE,
 500:/mnt/c/Users/31740/Documents/codes/newcore-rp2350/include/linux/libfdt.h ****  *	-FDT_ERR_TRUNCATED, standard meanings.
 501:/mnt/c/Users/31740/Documents/codes/newcore-rp2350/include/linux/libfdt.h ****  */
 502:/mnt/c/Users/31740/Documents/codes/newcore-rp2350/include/linux/libfdt.h **** int fdt_subnode_offset(const void *fdt, int parentoffset, const char *name);
 503:/mnt/c/Users/31740/Documents/codes/newcore-rp2350/include/linux/libfdt.h **** 
 504:/mnt/c/Users/31740/Documents/codes/newcore-rp2350/include/linux/libfdt.h **** /**
 505:/mnt/c/Users/31740/Documents/codes/newcore-rp2350/include/linux/libfdt.h ****  * fdt_path_offset_namelen - find a tree node by its full path
 506:/mnt/c/Users/31740/Documents/codes/newcore-rp2350/include/linux/libfdt.h ****  * @fdt: pointer to the device tree blob
 507:/mnt/c/Users/31740/Documents/codes/newcore-rp2350/include/linux/libfdt.h ****  * @path: full path of the node to locate
 508:/mnt/c/Users/31740/Documents/codes/newcore-rp2350/include/linux/libfdt.h ****  * @namelen: number of characters of path to consider
 509:/mnt/c/Users/31740/Documents/codes/newcore-rp2350/include/linux/libfdt.h ****  *
 510:/mnt/c/Users/31740/Documents/codes/newcore-rp2350/include/linux/libfdt.h ****  * Identical to fdt_path_offset(), but only consider the first namelen
 511:/mnt/c/Users/31740/Documents/codes/newcore-rp2350/include/linux/libfdt.h ****  * characters of path as the path name.
 512:/mnt/c/Users/31740/Documents/codes/newcore-rp2350/include/linux/libfdt.h ****  *
 513:/mnt/c/Users/31740/Documents/codes/newcore-rp2350/include/linux/libfdt.h ****  * Return: offset of the node or negative libfdt error value otherwise
 514:/mnt/c/Users/31740/Documents/codes/newcore-rp2350/include/linux/libfdt.h ****  */
 515:/mnt/c/Users/31740/Documents/codes/newcore-rp2350/include/linux/libfdt.h **** #ifndef SWIG /* Not available in Python */
 516:/mnt/c/Users/31740/Documents/codes/newcore-rp2350/include/linux/libfdt.h **** int fdt_path_offset_namelen(const void *fdt, const char *path, int namelen);
 517:/mnt/c/Users/31740/Documents/codes/newcore-rp2350/include/linux/libfdt.h **** #endif
 518:/mnt/c/Users/31740/Documents/codes/newcore-rp2350/include/linux/libfdt.h **** 
ARM GAS  /tmp/ccyijaMA.s 			page 53


 519:/mnt/c/Users/31740/Documents/codes/newcore-rp2350/include/linux/libfdt.h **** /**
 520:/mnt/c/Users/31740/Documents/codes/newcore-rp2350/include/linux/libfdt.h ****  * fdt_path_offset - find a tree node by its full path
 521:/mnt/c/Users/31740/Documents/codes/newcore-rp2350/include/linux/libfdt.h ****  * @fdt: pointer to the device tree blob
 522:/mnt/c/Users/31740/Documents/codes/newcore-rp2350/include/linux/libfdt.h ****  * @path: full path of the node to locate
 523:/mnt/c/Users/31740/Documents/codes/newcore-rp2350/include/linux/libfdt.h ****  *
 524:/mnt/c/Users/31740/Documents/codes/newcore-rp2350/include/linux/libfdt.h ****  * fdt_path_offset() finds a node of a given path in the device tree.
 525:/mnt/c/Users/31740/Documents/codes/newcore-rp2350/include/linux/libfdt.h ****  * Each path component may omit the unit address portion, but the
 526:/mnt/c/Users/31740/Documents/codes/newcore-rp2350/include/linux/libfdt.h ****  * results of this are undefined if any such path component is
 527:/mnt/c/Users/31740/Documents/codes/newcore-rp2350/include/linux/libfdt.h ****  * ambiguous (that is if there are multiple nodes at the relevant
 528:/mnt/c/Users/31740/Documents/codes/newcore-rp2350/include/linux/libfdt.h ****  * level matching the given component, differentiated only by unit
 529:/mnt/c/Users/31740/Documents/codes/newcore-rp2350/include/linux/libfdt.h ****  * address).
 530:/mnt/c/Users/31740/Documents/codes/newcore-rp2350/include/linux/libfdt.h ****  *
 531:/mnt/c/Users/31740/Documents/codes/newcore-rp2350/include/linux/libfdt.h ****  * If the path is not absolute (i.e. does not begin with '/'), the
 532:/mnt/c/Users/31740/Documents/codes/newcore-rp2350/include/linux/libfdt.h ****  * first component is treated as an alias.  That is, the property by
 533:/mnt/c/Users/31740/Documents/codes/newcore-rp2350/include/linux/libfdt.h ****  * that name is looked up in the /aliases node, and the value of that
 534:/mnt/c/Users/31740/Documents/codes/newcore-rp2350/include/linux/libfdt.h ****  * property used in place of that first component.
 535:/mnt/c/Users/31740/Documents/codes/newcore-rp2350/include/linux/libfdt.h ****  *
 536:/mnt/c/Users/31740/Documents/codes/newcore-rp2350/include/linux/libfdt.h ****  * For example, for this small fragment
 537:/mnt/c/Users/31740/Documents/codes/newcore-rp2350/include/linux/libfdt.h ****  *
 538:/mnt/c/Users/31740/Documents/codes/newcore-rp2350/include/linux/libfdt.h ****  * / {
 539:/mnt/c/Users/31740/Documents/codes/newcore-rp2350/include/linux/libfdt.h ****  *     aliases {
 540:/mnt/c/Users/31740/Documents/codes/newcore-rp2350/include/linux/libfdt.h ****  *         i2c2 = &foo; // RHS compiles to "/soc@0/i2c@30a40000/eeprom@52"
 541:/mnt/c/Users/31740/Documents/codes/newcore-rp2350/include/linux/libfdt.h ****  *     };
 542:/mnt/c/Users/31740/Documents/codes/newcore-rp2350/include/linux/libfdt.h ****  *     soc@0 {
 543:/mnt/c/Users/31740/Documents/codes/newcore-rp2350/include/linux/libfdt.h ****  *         foo: i2c@30a40000 {
 544:/mnt/c/Users/31740/Documents/codes/newcore-rp2350/include/linux/libfdt.h ****  *             bar: eeprom@52 {
 545:/mnt/c/Users/31740/Documents/codes/newcore-rp2350/include/linux/libfdt.h ****  *             };
 546:/mnt/c/Users/31740/Documents/codes/newcore-rp2350/include/linux/libfdt.h ****  *         };
 547:/mnt/c/Users/31740/Documents/codes/newcore-rp2350/include/linux/libfdt.h ****  *     };
 548:/mnt/c/Users/31740/Documents/codes/newcore-rp2350/include/linux/libfdt.h ****  * };
 549:/mnt/c/Users/31740/Documents/codes/newcore-rp2350/include/linux/libfdt.h ****  *
 550:/mnt/c/Users/31740/Documents/codes/newcore-rp2350/include/linux/libfdt.h ****  * these would be equivalent:
 551:/mnt/c/Users/31740/Documents/codes/newcore-rp2350/include/linux/libfdt.h ****  *
 552:/mnt/c/Users/31740/Documents/codes/newcore-rp2350/include/linux/libfdt.h ****  *   /soc@0/i2c@30a40000/eeprom@52
 553:/mnt/c/Users/31740/Documents/codes/newcore-rp2350/include/linux/libfdt.h ****  *   i2c2/eeprom@52
 554:/mnt/c/Users/31740/Documents/codes/newcore-rp2350/include/linux/libfdt.h ****  *
 555:/mnt/c/Users/31740/Documents/codes/newcore-rp2350/include/linux/libfdt.h ****  * returns:
 556:/mnt/c/Users/31740/Documents/codes/newcore-rp2350/include/linux/libfdt.h ****  *	structure block offset of the node with the requested path (>=0), on
 557:/mnt/c/Users/31740/Documents/codes/newcore-rp2350/include/linux/libfdt.h ****  *		success
 558:/mnt/c/Users/31740/Documents/codes/newcore-rp2350/include/linux/libfdt.h ****  *	-FDT_ERR_BADPATH, given path does not begin with '/' and the first
 559:/mnt/c/Users/31740/Documents/codes/newcore-rp2350/include/linux/libfdt.h ****  *		component is not a valid alias
 560:/mnt/c/Users/31740/Documents/codes/newcore-rp2350/include/linux/libfdt.h ****  *	-FDT_ERR_NOTFOUND, if the requested node does not exist
 561:/mnt/c/Users/31740/Documents/codes/newcore-rp2350/include/linux/libfdt.h ****  *	-FDT_ERR_BADMAGIC,
 562:/mnt/c/Users/31740/Documents/codes/newcore-rp2350/include/linux/libfdt.h ****  *	-FDT_ERR_BADVERSION,
 563:/mnt/c/Users/31740/Documents/codes/newcore-rp2350/include/linux/libfdt.h ****  *	-FDT_ERR_BADSTATE,
 564:/mnt/c/Users/31740/Documents/codes/newcore-rp2350/include/linux/libfdt.h ****  *	-FDT_ERR_BADSTRUCTURE,
 565:/mnt/c/Users/31740/Documents/codes/newcore-rp2350/include/linux/libfdt.h ****  *	-FDT_ERR_TRUNCATED, standard meanings.
 566:/mnt/c/Users/31740/Documents/codes/newcore-rp2350/include/linux/libfdt.h ****  */
 567:/mnt/c/Users/31740/Documents/codes/newcore-rp2350/include/linux/libfdt.h **** int fdt_path_offset(const void *fdt, const char *path);
 568:/mnt/c/Users/31740/Documents/codes/newcore-rp2350/include/linux/libfdt.h **** 
 569:/mnt/c/Users/31740/Documents/codes/newcore-rp2350/include/linux/libfdt.h **** /**
 570:/mnt/c/Users/31740/Documents/codes/newcore-rp2350/include/linux/libfdt.h ****  * fdt_get_name - retrieve the name of a given node
 571:/mnt/c/Users/31740/Documents/codes/newcore-rp2350/include/linux/libfdt.h ****  * @fdt: pointer to the device tree blob
 572:/mnt/c/Users/31740/Documents/codes/newcore-rp2350/include/linux/libfdt.h ****  * @nodeoffset: structure block offset of the starting node
 573:/mnt/c/Users/31740/Documents/codes/newcore-rp2350/include/linux/libfdt.h ****  * @lenp: pointer to an integer variable (will be overwritten) or NULL
 574:/mnt/c/Users/31740/Documents/codes/newcore-rp2350/include/linux/libfdt.h ****  *
 575:/mnt/c/Users/31740/Documents/codes/newcore-rp2350/include/linux/libfdt.h ****  * fdt_get_name() retrieves the name (including unit address) of the
ARM GAS  /tmp/ccyijaMA.s 			page 54


 576:/mnt/c/Users/31740/Documents/codes/newcore-rp2350/include/linux/libfdt.h ****  * device tree node at structure block offset nodeoffset.  If lenp is
 577:/mnt/c/Users/31740/Documents/codes/newcore-rp2350/include/linux/libfdt.h ****  * non-NULL, the length of this name is also returned, in the integer
 578:/mnt/c/Users/31740/Documents/codes/newcore-rp2350/include/linux/libfdt.h ****  * pointed to by lenp.
 579:/mnt/c/Users/31740/Documents/codes/newcore-rp2350/include/linux/libfdt.h ****  *
 580:/mnt/c/Users/31740/Documents/codes/newcore-rp2350/include/linux/libfdt.h ****  * returns:
 581:/mnt/c/Users/31740/Documents/codes/newcore-rp2350/include/linux/libfdt.h ****  *	pointer to the node's name, on success
 582:/mnt/c/Users/31740/Documents/codes/newcore-rp2350/include/linux/libfdt.h ****  *		If lenp is non-NULL, *lenp contains the length of that name
 583:/mnt/c/Users/31740/Documents/codes/newcore-rp2350/include/linux/libfdt.h ****  *			(>=0)
 584:/mnt/c/Users/31740/Documents/codes/newcore-rp2350/include/linux/libfdt.h ****  *	NULL, on error
 585:/mnt/c/Users/31740/Documents/codes/newcore-rp2350/include/linux/libfdt.h ****  *		if lenp is non-NULL *lenp contains an error code (<0):
 586:/mnt/c/Users/31740/Documents/codes/newcore-rp2350/include/linux/libfdt.h ****  *		-FDT_ERR_BADOFFSET, nodeoffset did not point to FDT_BEGIN_NODE
 587:/mnt/c/Users/31740/Documents/codes/newcore-rp2350/include/linux/libfdt.h ****  *			tag
 588:/mnt/c/Users/31740/Documents/codes/newcore-rp2350/include/linux/libfdt.h ****  *		-FDT_ERR_BADMAGIC,
 589:/mnt/c/Users/31740/Documents/codes/newcore-rp2350/include/linux/libfdt.h ****  *		-FDT_ERR_BADVERSION,
 590:/mnt/c/Users/31740/Documents/codes/newcore-rp2350/include/linux/libfdt.h ****  *		-FDT_ERR_BADSTATE, standard meanings
 591:/mnt/c/Users/31740/Documents/codes/newcore-rp2350/include/linux/libfdt.h ****  */
 592:/mnt/c/Users/31740/Documents/codes/newcore-rp2350/include/linux/libfdt.h **** const char *fdt_get_name(const void *fdt, int nodeoffset, int *lenp);
 593:/mnt/c/Users/31740/Documents/codes/newcore-rp2350/include/linux/libfdt.h **** 
 594:/mnt/c/Users/31740/Documents/codes/newcore-rp2350/include/linux/libfdt.h **** /**
 595:/mnt/c/Users/31740/Documents/codes/newcore-rp2350/include/linux/libfdt.h ****  * fdt_first_property_offset - find the offset of a node's first property
 596:/mnt/c/Users/31740/Documents/codes/newcore-rp2350/include/linux/libfdt.h ****  * @fdt: pointer to the device tree blob
 597:/mnt/c/Users/31740/Documents/codes/newcore-rp2350/include/linux/libfdt.h ****  * @nodeoffset: structure block offset of a node
 598:/mnt/c/Users/31740/Documents/codes/newcore-rp2350/include/linux/libfdt.h ****  *
 599:/mnt/c/Users/31740/Documents/codes/newcore-rp2350/include/linux/libfdt.h ****  * fdt_first_property_offset() finds the first property of the node at
 600:/mnt/c/Users/31740/Documents/codes/newcore-rp2350/include/linux/libfdt.h ****  * the given structure block offset.
 601:/mnt/c/Users/31740/Documents/codes/newcore-rp2350/include/linux/libfdt.h ****  *
 602:/mnt/c/Users/31740/Documents/codes/newcore-rp2350/include/linux/libfdt.h ****  * returns:
 603:/mnt/c/Users/31740/Documents/codes/newcore-rp2350/include/linux/libfdt.h ****  *	structure block offset of the property (>=0), on success
 604:/mnt/c/Users/31740/Documents/codes/newcore-rp2350/include/linux/libfdt.h ****  *	-FDT_ERR_NOTFOUND, if the requested node has no properties
 605:/mnt/c/Users/31740/Documents/codes/newcore-rp2350/include/linux/libfdt.h ****  *	-FDT_ERR_BADOFFSET, if nodeoffset did not point to an FDT_BEGIN_NODE tag
 606:/mnt/c/Users/31740/Documents/codes/newcore-rp2350/include/linux/libfdt.h ****  *	-FDT_ERR_BADMAGIC,
 607:/mnt/c/Users/31740/Documents/codes/newcore-rp2350/include/linux/libfdt.h ****  *	-FDT_ERR_BADVERSION,
 608:/mnt/c/Users/31740/Documents/codes/newcore-rp2350/include/linux/libfdt.h ****  *	-FDT_ERR_BADSTATE,
 609:/mnt/c/Users/31740/Documents/codes/newcore-rp2350/include/linux/libfdt.h ****  *	-FDT_ERR_BADSTRUCTURE,
 610:/mnt/c/Users/31740/Documents/codes/newcore-rp2350/include/linux/libfdt.h ****  *	-FDT_ERR_TRUNCATED, standard meanings.
 611:/mnt/c/Users/31740/Documents/codes/newcore-rp2350/include/linux/libfdt.h ****  */
 612:/mnt/c/Users/31740/Documents/codes/newcore-rp2350/include/linux/libfdt.h **** int fdt_first_property_offset(const void *fdt, int nodeoffset);
 613:/mnt/c/Users/31740/Documents/codes/newcore-rp2350/include/linux/libfdt.h **** 
 614:/mnt/c/Users/31740/Documents/codes/newcore-rp2350/include/linux/libfdt.h **** /**
 615:/mnt/c/Users/31740/Documents/codes/newcore-rp2350/include/linux/libfdt.h ****  * fdt_next_property_offset - step through a node's properties
 616:/mnt/c/Users/31740/Documents/codes/newcore-rp2350/include/linux/libfdt.h ****  * @fdt: pointer to the device tree blob
 617:/mnt/c/Users/31740/Documents/codes/newcore-rp2350/include/linux/libfdt.h ****  * @offset: structure block offset of a property
 618:/mnt/c/Users/31740/Documents/codes/newcore-rp2350/include/linux/libfdt.h ****  *
 619:/mnt/c/Users/31740/Documents/codes/newcore-rp2350/include/linux/libfdt.h ****  * fdt_next_property_offset() finds the property immediately after the
 620:/mnt/c/Users/31740/Documents/codes/newcore-rp2350/include/linux/libfdt.h ****  * one at the given structure block offset.  This will be a property
 621:/mnt/c/Users/31740/Documents/codes/newcore-rp2350/include/linux/libfdt.h ****  * of the same node as the given property.
 622:/mnt/c/Users/31740/Documents/codes/newcore-rp2350/include/linux/libfdt.h ****  *
 623:/mnt/c/Users/31740/Documents/codes/newcore-rp2350/include/linux/libfdt.h ****  * returns:
 624:/mnt/c/Users/31740/Documents/codes/newcore-rp2350/include/linux/libfdt.h ****  *	structure block offset of the next property (>=0), on success
 625:/mnt/c/Users/31740/Documents/codes/newcore-rp2350/include/linux/libfdt.h ****  *	-FDT_ERR_NOTFOUND, if the given property is the last in its node
 626:/mnt/c/Users/31740/Documents/codes/newcore-rp2350/include/linux/libfdt.h ****  *	-FDT_ERR_BADOFFSET, if nodeoffset did not point to an FDT_PROP tag
 627:/mnt/c/Users/31740/Documents/codes/newcore-rp2350/include/linux/libfdt.h ****  *	-FDT_ERR_BADMAGIC,
 628:/mnt/c/Users/31740/Documents/codes/newcore-rp2350/include/linux/libfdt.h ****  *	-FDT_ERR_BADVERSION,
 629:/mnt/c/Users/31740/Documents/codes/newcore-rp2350/include/linux/libfdt.h ****  *	-FDT_ERR_BADSTATE,
 630:/mnt/c/Users/31740/Documents/codes/newcore-rp2350/include/linux/libfdt.h ****  *	-FDT_ERR_BADSTRUCTURE,
 631:/mnt/c/Users/31740/Documents/codes/newcore-rp2350/include/linux/libfdt.h ****  *	-FDT_ERR_TRUNCATED, standard meanings.
 632:/mnt/c/Users/31740/Documents/codes/newcore-rp2350/include/linux/libfdt.h ****  */
ARM GAS  /tmp/ccyijaMA.s 			page 55


 633:/mnt/c/Users/31740/Documents/codes/newcore-rp2350/include/linux/libfdt.h **** int fdt_next_property_offset(const void *fdt, int offset);
 634:/mnt/c/Users/31740/Documents/codes/newcore-rp2350/include/linux/libfdt.h **** 
 635:/mnt/c/Users/31740/Documents/codes/newcore-rp2350/include/linux/libfdt.h **** /**
 636:/mnt/c/Users/31740/Documents/codes/newcore-rp2350/include/linux/libfdt.h ****  * fdt_for_each_property_offset - iterate over all properties of a node
 637:/mnt/c/Users/31740/Documents/codes/newcore-rp2350/include/linux/libfdt.h ****  *
 638:/mnt/c/Users/31740/Documents/codes/newcore-rp2350/include/linux/libfdt.h ****  * @property:	property offset (int, lvalue)
 639:/mnt/c/Users/31740/Documents/codes/newcore-rp2350/include/linux/libfdt.h ****  * @fdt:	FDT blob (const void *)
 640:/mnt/c/Users/31740/Documents/codes/newcore-rp2350/include/linux/libfdt.h ****  * @node:	node offset (int)
 641:/mnt/c/Users/31740/Documents/codes/newcore-rp2350/include/linux/libfdt.h ****  *
 642:/mnt/c/Users/31740/Documents/codes/newcore-rp2350/include/linux/libfdt.h ****  * This is actually a wrapper around a for loop and would be used like so:
 643:/mnt/c/Users/31740/Documents/codes/newcore-rp2350/include/linux/libfdt.h ****  *
 644:/mnt/c/Users/31740/Documents/codes/newcore-rp2350/include/linux/libfdt.h ****  *	fdt_for_each_property_offset(property, fdt, node) {
 645:/mnt/c/Users/31740/Documents/codes/newcore-rp2350/include/linux/libfdt.h ****  *		Use property
 646:/mnt/c/Users/31740/Documents/codes/newcore-rp2350/include/linux/libfdt.h ****  *		...
 647:/mnt/c/Users/31740/Documents/codes/newcore-rp2350/include/linux/libfdt.h ****  *	}
 648:/mnt/c/Users/31740/Documents/codes/newcore-rp2350/include/linux/libfdt.h ****  *
 649:/mnt/c/Users/31740/Documents/codes/newcore-rp2350/include/linux/libfdt.h ****  *	if ((property < 0) && (property != -FDT_ERR_NOTFOUND)) {
 650:/mnt/c/Users/31740/Documents/codes/newcore-rp2350/include/linux/libfdt.h ****  *		Error handling
 651:/mnt/c/Users/31740/Documents/codes/newcore-rp2350/include/linux/libfdt.h ****  *	}
 652:/mnt/c/Users/31740/Documents/codes/newcore-rp2350/include/linux/libfdt.h ****  *
 653:/mnt/c/Users/31740/Documents/codes/newcore-rp2350/include/linux/libfdt.h ****  * Note that this is implemented as a macro and property is used as
 654:/mnt/c/Users/31740/Documents/codes/newcore-rp2350/include/linux/libfdt.h ****  * iterator in the loop. The node variable can be constant or even a
 655:/mnt/c/Users/31740/Documents/codes/newcore-rp2350/include/linux/libfdt.h ****  * literal.
 656:/mnt/c/Users/31740/Documents/codes/newcore-rp2350/include/linux/libfdt.h ****  */
 657:/mnt/c/Users/31740/Documents/codes/newcore-rp2350/include/linux/libfdt.h **** #define fdt_for_each_property_offset(property, fdt, node)	\
 658:/mnt/c/Users/31740/Documents/codes/newcore-rp2350/include/linux/libfdt.h **** 	for (property = fdt_first_property_offset(fdt, node);	\
 659:/mnt/c/Users/31740/Documents/codes/newcore-rp2350/include/linux/libfdt.h **** 	     property >= 0;					\
 660:/mnt/c/Users/31740/Documents/codes/newcore-rp2350/include/linux/libfdt.h **** 	     property = fdt_next_property_offset(fdt, property))
 661:/mnt/c/Users/31740/Documents/codes/newcore-rp2350/include/linux/libfdt.h **** 
 662:/mnt/c/Users/31740/Documents/codes/newcore-rp2350/include/linux/libfdt.h **** /**
 663:/mnt/c/Users/31740/Documents/codes/newcore-rp2350/include/linux/libfdt.h ****  * fdt_get_property_by_offset - retrieve the property at a given offset
 664:/mnt/c/Users/31740/Documents/codes/newcore-rp2350/include/linux/libfdt.h ****  * @fdt: pointer to the device tree blob
 665:/mnt/c/Users/31740/Documents/codes/newcore-rp2350/include/linux/libfdt.h ****  * @offset: offset of the property to retrieve
 666:/mnt/c/Users/31740/Documents/codes/newcore-rp2350/include/linux/libfdt.h ****  * @lenp: pointer to an integer variable (will be overwritten) or NULL
 667:/mnt/c/Users/31740/Documents/codes/newcore-rp2350/include/linux/libfdt.h ****  *
 668:/mnt/c/Users/31740/Documents/codes/newcore-rp2350/include/linux/libfdt.h ****  * fdt_get_property_by_offset() retrieves a pointer to the
 669:/mnt/c/Users/31740/Documents/codes/newcore-rp2350/include/linux/libfdt.h ****  * fdt_property structure within the device tree blob at the given
 670:/mnt/c/Users/31740/Documents/codes/newcore-rp2350/include/linux/libfdt.h ****  * offset.  If lenp is non-NULL, the length of the property value is
 671:/mnt/c/Users/31740/Documents/codes/newcore-rp2350/include/linux/libfdt.h ****  * also returned, in the integer pointed to by lenp.
 672:/mnt/c/Users/31740/Documents/codes/newcore-rp2350/include/linux/libfdt.h ****  *
 673:/mnt/c/Users/31740/Documents/codes/newcore-rp2350/include/linux/libfdt.h ****  * Note that this code only works on device tree versions >= 16. fdt_getprop()
 674:/mnt/c/Users/31740/Documents/codes/newcore-rp2350/include/linux/libfdt.h ****  * works on all versions.
 675:/mnt/c/Users/31740/Documents/codes/newcore-rp2350/include/linux/libfdt.h ****  *
 676:/mnt/c/Users/31740/Documents/codes/newcore-rp2350/include/linux/libfdt.h ****  * returns:
 677:/mnt/c/Users/31740/Documents/codes/newcore-rp2350/include/linux/libfdt.h ****  *	pointer to the structure representing the property
 678:/mnt/c/Users/31740/Documents/codes/newcore-rp2350/include/linux/libfdt.h ****  *		if lenp is non-NULL, *lenp contains the length of the property
 679:/mnt/c/Users/31740/Documents/codes/newcore-rp2350/include/linux/libfdt.h ****  *		value (>=0)
 680:/mnt/c/Users/31740/Documents/codes/newcore-rp2350/include/linux/libfdt.h ****  *	NULL, on error
 681:/mnt/c/Users/31740/Documents/codes/newcore-rp2350/include/linux/libfdt.h ****  *		if lenp is non-NULL, *lenp contains an error code (<0):
 682:/mnt/c/Users/31740/Documents/codes/newcore-rp2350/include/linux/libfdt.h ****  *		-FDT_ERR_BADOFFSET, nodeoffset did not point to FDT_PROP tag
 683:/mnt/c/Users/31740/Documents/codes/newcore-rp2350/include/linux/libfdt.h ****  *		-FDT_ERR_BADMAGIC,
 684:/mnt/c/Users/31740/Documents/codes/newcore-rp2350/include/linux/libfdt.h ****  *		-FDT_ERR_BADVERSION,
 685:/mnt/c/Users/31740/Documents/codes/newcore-rp2350/include/linux/libfdt.h ****  *		-FDT_ERR_BADSTATE,
 686:/mnt/c/Users/31740/Documents/codes/newcore-rp2350/include/linux/libfdt.h ****  *		-FDT_ERR_BADSTRUCTURE,
 687:/mnt/c/Users/31740/Documents/codes/newcore-rp2350/include/linux/libfdt.h ****  *		-FDT_ERR_TRUNCATED, standard meanings
 688:/mnt/c/Users/31740/Documents/codes/newcore-rp2350/include/linux/libfdt.h ****  */
 689:/mnt/c/Users/31740/Documents/codes/newcore-rp2350/include/linux/libfdt.h **** const struct fdt_property *fdt_get_property_by_offset(const void *fdt,
ARM GAS  /tmp/ccyijaMA.s 			page 56


 690:/mnt/c/Users/31740/Documents/codes/newcore-rp2350/include/linux/libfdt.h **** 						      int offset,
 691:/mnt/c/Users/31740/Documents/codes/newcore-rp2350/include/linux/libfdt.h **** 						      int *lenp);
 692:/mnt/c/Users/31740/Documents/codes/newcore-rp2350/include/linux/libfdt.h **** static inline struct fdt_property *fdt_get_property_by_offset_w(void *fdt,
 693:/mnt/c/Users/31740/Documents/codes/newcore-rp2350/include/linux/libfdt.h **** 								int offset,
 694:/mnt/c/Users/31740/Documents/codes/newcore-rp2350/include/linux/libfdt.h **** 								int *lenp)
 695:/mnt/c/Users/31740/Documents/codes/newcore-rp2350/include/linux/libfdt.h **** {
 696:/mnt/c/Users/31740/Documents/codes/newcore-rp2350/include/linux/libfdt.h **** 	return (struct fdt_property *)(uintptr_t)
 697:/mnt/c/Users/31740/Documents/codes/newcore-rp2350/include/linux/libfdt.h **** 		fdt_get_property_by_offset(fdt, offset, lenp);
 698:/mnt/c/Users/31740/Documents/codes/newcore-rp2350/include/linux/libfdt.h **** }
 699:/mnt/c/Users/31740/Documents/codes/newcore-rp2350/include/linux/libfdt.h **** 
 700:/mnt/c/Users/31740/Documents/codes/newcore-rp2350/include/linux/libfdt.h **** /**
 701:/mnt/c/Users/31740/Documents/codes/newcore-rp2350/include/linux/libfdt.h ****  * fdt_get_property_namelen - find a property based on substring
 702:/mnt/c/Users/31740/Documents/codes/newcore-rp2350/include/linux/libfdt.h ****  * @fdt: pointer to the device tree blob
 703:/mnt/c/Users/31740/Documents/codes/newcore-rp2350/include/linux/libfdt.h ****  * @nodeoffset: offset of the node whose property to find
 704:/mnt/c/Users/31740/Documents/codes/newcore-rp2350/include/linux/libfdt.h ****  * @name: name of the property to find
 705:/mnt/c/Users/31740/Documents/codes/newcore-rp2350/include/linux/libfdt.h ****  * @namelen: number of characters of name to consider
 706:/mnt/c/Users/31740/Documents/codes/newcore-rp2350/include/linux/libfdt.h ****  * @lenp: pointer to an integer variable (will be overwritten) or NULL
 707:/mnt/c/Users/31740/Documents/codes/newcore-rp2350/include/linux/libfdt.h ****  *
 708:/mnt/c/Users/31740/Documents/codes/newcore-rp2350/include/linux/libfdt.h ****  * Identical to fdt_get_property(), but only examine the first namelen
 709:/mnt/c/Users/31740/Documents/codes/newcore-rp2350/include/linux/libfdt.h ****  * characters of name for matching the property name.
 710:/mnt/c/Users/31740/Documents/codes/newcore-rp2350/include/linux/libfdt.h ****  *
 711:/mnt/c/Users/31740/Documents/codes/newcore-rp2350/include/linux/libfdt.h ****  * Return: pointer to the structure representing the property, or NULL
 712:/mnt/c/Users/31740/Documents/codes/newcore-rp2350/include/linux/libfdt.h ****  *         if not found
 713:/mnt/c/Users/31740/Documents/codes/newcore-rp2350/include/linux/libfdt.h ****  */
 714:/mnt/c/Users/31740/Documents/codes/newcore-rp2350/include/linux/libfdt.h **** #ifndef SWIG /* Not available in Python */
 715:/mnt/c/Users/31740/Documents/codes/newcore-rp2350/include/linux/libfdt.h **** const struct fdt_property *fdt_get_property_namelen(const void *fdt,
 716:/mnt/c/Users/31740/Documents/codes/newcore-rp2350/include/linux/libfdt.h **** 						    int nodeoffset,
 717:/mnt/c/Users/31740/Documents/codes/newcore-rp2350/include/linux/libfdt.h **** 						    const char *name,
 718:/mnt/c/Users/31740/Documents/codes/newcore-rp2350/include/linux/libfdt.h **** 						    int namelen, int *lenp);
 719:/mnt/c/Users/31740/Documents/codes/newcore-rp2350/include/linux/libfdt.h **** static inline struct fdt_property *
 720:/mnt/c/Users/31740/Documents/codes/newcore-rp2350/include/linux/libfdt.h **** fdt_get_property_namelen_w(void *fdt, int nodeoffset, const char *name,
 1585              		.loc 3 720 1 view .LVU557
 1586              	.LBB355:
 721:/mnt/c/Users/31740/Documents/codes/newcore-rp2350/include/linux/libfdt.h **** 			   int namelen, int *lenp)
 722:/mnt/c/Users/31740/Documents/codes/newcore-rp2350/include/linux/libfdt.h **** {
 723:/mnt/c/Users/31740/Documents/codes/newcore-rp2350/include/linux/libfdt.h **** 	return (struct fdt_property *)(uintptr_t)fdt_get_property_namelen(
 1587              		.loc 3 723 2 view .LVU558
 1588              		.loc 3 723 43 is_stmt 0 view .LVU559
 1589 000a 03AD     		add	r5, sp, #12
 1590              	.LVL138:
 1591              		.loc 3 723 43 view .LVU560
 1592 000c 0095     		str	r5, [sp]
 1593 000e FFF7FEFF 		bl	fdt_get_property_namelen
 1594              	.LVL139:
 1595              		.loc 3 723 43 view .LVU561
 1596              	.LBE355:
 1597              	.LBE354:
 194:/mnt/c/Users/31740/Documents/codes/newcore-rp2350/lib/fdt/fdt_rw.c **** 					   &oldlen);
 1598              		.loc 1 194 8 discriminator 1 view .LVU562
 1599 0012 3060     		str	r0, [r6]
 196:/mnt/c/Users/31740/Documents/codes/newcore-rp2350/lib/fdt/fdt_rw.c **** 		return oldlen;
 1600              		.loc 1 196 2 is_stmt 1 view .LVU563
 196:/mnt/c/Users/31740/Documents/codes/newcore-rp2350/lib/fdt/fdt_rw.c **** 		return oldlen;
 1601              		.loc 1 196 5 is_stmt 0 view .LVU564
 1602 0014 D8B1     		cbz	r0, .L44
 199:/mnt/c/Users/31740/Documents/codes/newcore-rp2350/lib/fdt/fdt_rw.c **** 				      FDT_TAGALIGN(len))))
 1603              		.loc 1 199 2 is_stmt 1 view .LVU565
ARM GAS  /tmp/ccyijaMA.s 			page 57


 199:/mnt/c/Users/31740/Documents/codes/newcore-rp2350/lib/fdt/fdt_rw.c **** 				      FDT_TAGALIGN(len))))
 1604              		.loc 1 199 52 is_stmt 0 view .LVU566
 1605 0016 039A     		ldr	r2, [sp, #12]
 1606 0018 0332     		adds	r2, r2, #3
 200:/mnt/c/Users/31740/Documents/codes/newcore-rp2350/lib/fdt/fdt_rw.c **** 		return err;
 1607              		.loc 1 200 11 view .LVU567
 1608 001a E31C     		adds	r3, r4, #3
 199:/mnt/c/Users/31740/Documents/codes/newcore-rp2350/lib/fdt/fdt_rw.c **** 				      FDT_TAGALIGN(len))))
 1609              		.loc 1 199 13 view .LVU568
 1610 001c 23F00303 		bic	r3, r3, #3
 1611 0020 22F00302 		bic	r2, r2, #3
 1612 0024 00F10C01 		add	r1, r0, #12
 1613 0028 3846     		mov	r0, r7
 1614 002a FFF7FEFF 		bl	fdt_splice_struct_
 1615              	.LVL140:
 199:/mnt/c/Users/31740/Documents/codes/newcore-rp2350/lib/fdt/fdt_rw.c **** 				      FDT_TAGALIGN(len))))
 1616              		.loc 1 199 5 discriminator 1 view .LVU569
 1617 002e 60B9     		cbnz	r0, .L40
 203:/mnt/c/Users/31740/Documents/codes/newcore-rp2350/lib/fdt/fdt_rw.c **** 	return 0;
 1618              		.loc 1 203 2 is_stmt 1 view .LVU570
 203:/mnt/c/Users/31740/Documents/codes/newcore-rp2350/lib/fdt/fdt_rw.c **** 	return 0;
 1619              		.loc 1 203 3 is_stmt 0 view .LVU571
 1620 0030 3268     		ldr	r2, [r6]
 1621              	.LVL141:
 1622              	.LBB356:
 1623              	.LBI356:
  57:/mnt/c/Users/31740/Documents/codes/newcore-rp2350/include/linux/libfdt_env.h **** {
 1624              		.loc 4 57 23 is_stmt 1 view .LVU572
 1625              	.LBB357:
 1626              		.loc 4 59 2 view .LVU573
 1627              		.loc 4 59 28 is_stmt 0 view .LVU574
 1628 0032 C4F30723 		ubfx	r3, r4, #8, #8
 1629 0036 1B04     		lsls	r3, r3, #16
 1630 0038 43EA0463 		orr	r3, r3, r4, lsl #24
 1631 003c C4F30741 		ubfx	r1, r4, #16, #8
 1632 0040 43EA0123 		orr	r3, r3, r1, lsl #8
 1633              		.loc 4 59 9 view .LVU575
 1634 0044 43EA1463 		orr	r3, r3, r4, lsr #24
 1635              	.LVL142:
 1636              		.loc 4 59 9 view .LVU576
 1637              	.LBE357:
 1638              	.LBE356:
 203:/mnt/c/Users/31740/Documents/codes/newcore-rp2350/lib/fdt/fdt_rw.c **** 	return 0;
 1639              		.loc 1 203 15 discriminator 1 view .LVU577
 1640 0048 5360     		str	r3, [r2, #4]
 204:/mnt/c/Users/31740/Documents/codes/newcore-rp2350/lib/fdt/fdt_rw.c **** }
 1641              		.loc 1 204 2 is_stmt 1 view .LVU578
 1642              	.LVL143:
 1643              	.L40:
 205:/mnt/c/Users/31740/Documents/codes/newcore-rp2350/lib/fdt/fdt_rw.c **** 
 1644              		.loc 1 205 1 is_stmt 0 view .LVU579
 1645 004a 05B0     		add	sp, sp, #20
 1646              	.LCFI12:
 1647              		.cfi_remember_state
 1648              		.cfi_def_cfa_offset 20
 1649              		@ sp needed
 1650 004c F0BD     		pop	{r4, r5, r6, r7, pc}
ARM GAS  /tmp/ccyijaMA.s 			page 58


 1651              	.LVL144:
 1652              	.L44:
 1653              	.LCFI13:
 1654              		.cfi_restore_state
 197:/mnt/c/Users/31740/Documents/codes/newcore-rp2350/lib/fdt/fdt_rw.c **** 
 1655              		.loc 1 197 3 is_stmt 1 view .LVU580
 197:/mnt/c/Users/31740/Documents/codes/newcore-rp2350/lib/fdt/fdt_rw.c **** 
 1656              		.loc 1 197 10 is_stmt 0 view .LVU581
 1657 004e 0398     		ldr	r0, [sp, #12]
 1658 0050 FBE7     		b	.L40
 1659              		.cfi_endproc
 1660              	.LFE86:
 1662              		.section	.text.fdt_find_add_string_,"ax",%progbits
 1663              		.align	1
 1664              		.syntax unified
 1665              		.thumb
 1666              		.thumb_func
 1668              	fdt_find_add_string_:
 1669              	.LVL145:
 1670              	.LFB83:
 130:/mnt/c/Users/31740/Documents/codes/newcore-rp2350/lib/fdt/fdt_rw.c **** 	char *strtab = (char *)fdt + fdt_off_dt_strings(fdt);
 1671              		.loc 1 130 1 is_stmt 1 view -0
 1672              		.cfi_startproc
 1673              		@ args = 0, pretend = 0, frame = 0
 1674              		@ frame_needed = 0, uses_anonymous_args = 0
 130:/mnt/c/Users/31740/Documents/codes/newcore-rp2350/lib/fdt/fdt_rw.c **** 	char *strtab = (char *)fdt + fdt_off_dt_strings(fdt);
 1675              		.loc 1 130 1 is_stmt 0 view .LVU583
 1676 0000 2DE9F843 		push	{r3, r4, r5, r6, r7, r8, r9, lr}
 1677              	.LCFI14:
 1678              		.cfi_def_cfa_offset 32
 1679              		.cfi_offset 3, -32
 1680              		.cfi_offset 4, -28
 1681              		.cfi_offset 5, -24
 1682              		.cfi_offset 6, -20
 1683              		.cfi_offset 7, -16
 1684              		.cfi_offset 8, -12
 1685              		.cfi_offset 9, -8
 1686              		.cfi_offset 14, -4
 1687 0004 0546     		mov	r5, r0
 1688 0006 0F46     		mov	r7, r1
 1689 0008 1646     		mov	r6, r2
 1690 000a 9846     		mov	r8, r3
 131:/mnt/c/Users/31740/Documents/codes/newcore-rp2350/lib/fdt/fdt_rw.c **** 	const char *p;
 1691              		.loc 1 131 2 is_stmt 1 view .LVU584
 1692              	.LVL146:
 1693              	.LBB358:
 1694              	.LBI358:
 145:/mnt/c/Users/31740/Documents/codes/newcore-rp2350/include/linux/libfdt.h **** {
 1695              		.loc 3 145 24 view .LVU585
 1696              	.LBB359:
 147:/mnt/c/Users/31740/Documents/codes/newcore-rp2350/include/linux/libfdt.h **** 
 1697              		.loc 3 147 2 view .LVU586
 149:/mnt/c/Users/31740/Documents/codes/newcore-rp2350/include/linux/libfdt.h **** 		| ((uint32_t)bp[1] << 16)
 1698              		.loc 3 149 2 view .LVU587
 149:/mnt/c/Users/31740/Documents/codes/newcore-rp2350/include/linux/libfdt.h **** 		| ((uint32_t)bp[1] << 16)
 1699              		.loc 3 149 22 is_stmt 0 view .LVU588
 1700 000c 037B     		ldrb	r3, [r0, #12]	@ zero_extendqisi2
ARM GAS  /tmp/ccyijaMA.s 			page 59


 1701              	.LVL147:
 150:/mnt/c/Users/31740/Documents/codes/newcore-rp2350/include/linux/libfdt.h **** 		| ((uint32_t)bp[2] << 8)
 1702              		.loc 3 150 18 view .LVU589
 1703 000e 447B     		ldrb	r4, [r0, #13]	@ zero_extendqisi2
 150:/mnt/c/Users/31740/Documents/codes/newcore-rp2350/include/linux/libfdt.h **** 		| ((uint32_t)bp[2] << 8)
 1704              		.loc 3 150 22 view .LVU590
 1705 0010 2404     		lsls	r4, r4, #16
 150:/mnt/c/Users/31740/Documents/codes/newcore-rp2350/include/linux/libfdt.h **** 		| ((uint32_t)bp[2] << 8)
 1706              		.loc 3 150 3 view .LVU591
 1707 0012 44EA0364 		orr	r4, r4, r3, lsl #24
 151:/mnt/c/Users/31740/Documents/codes/newcore-rp2350/include/linux/libfdt.h **** 		| bp[3];
 1708              		.loc 3 151 18 view .LVU592
 1709 0016 837B     		ldrb	r3, [r0, #14]	@ zero_extendqisi2
 151:/mnt/c/Users/31740/Documents/codes/newcore-rp2350/include/linux/libfdt.h **** 		| bp[3];
 1710              		.loc 3 151 3 view .LVU593
 1711 0018 44EA0324 		orr	r4, r4, r3, lsl #8
 152:/mnt/c/Users/31740/Documents/codes/newcore-rp2350/include/linux/libfdt.h **** }
 1712              		.loc 3 152 7 view .LVU594
 1713 001c C37B     		ldrb	r3, [r0, #15]	@ zero_extendqisi2
 152:/mnt/c/Users/31740/Documents/codes/newcore-rp2350/include/linux/libfdt.h **** }
 1714              		.loc 3 152 3 view .LVU595
 1715 001e 1C43     		orrs	r4, r4, r3
 1716              	.LVL148:
 152:/mnt/c/Users/31740/Documents/codes/newcore-rp2350/include/linux/libfdt.h **** }
 1717              		.loc 3 152 3 view .LVU596
 1718              	.LBE359:
 1719              	.LBE358:
 131:/mnt/c/Users/31740/Documents/codes/newcore-rp2350/lib/fdt/fdt_rw.c **** 	const char *p;
 1720              		.loc 1 131 8 discriminator 1 view .LVU597
 1721 0020 0444     		add	r4, r4, r0
 1722              	.LVL149:
 132:/mnt/c/Users/31740/Documents/codes/newcore-rp2350/lib/fdt/fdt_rw.c **** 	char *new;
 1723              		.loc 1 132 2 is_stmt 1 view .LVU598
 133:/mnt/c/Users/31740/Documents/codes/newcore-rp2350/lib/fdt/fdt_rw.c **** 	int err;
 1724              		.loc 1 133 2 view .LVU599
 134:/mnt/c/Users/31740/Documents/codes/newcore-rp2350/lib/fdt/fdt_rw.c **** 
 1725              		.loc 1 134 2 view .LVU600
 136:/mnt/c/Users/31740/Documents/codes/newcore-rp2350/lib/fdt/fdt_rw.c **** 		*allocated = 0;
 1726              		.loc 1 136 2 view .LVU601
 137:/mnt/c/Users/31740/Documents/codes/newcore-rp2350/lib/fdt/fdt_rw.c **** 
 1727              		.loc 1 137 3 view .LVU602
 137:/mnt/c/Users/31740/Documents/codes/newcore-rp2350/lib/fdt/fdt_rw.c **** 
 1728              		.loc 1 137 14 is_stmt 0 view .LVU603
 1729 0022 0023     		movs	r3, #0
 1730 0024 C8F80030 		str	r3, [r8]
 139:/mnt/c/Users/31740/Documents/codes/newcore-rp2350/lib/fdt/fdt_rw.c **** 	if (p)
 1731              		.loc 1 139 2 is_stmt 1 view .LVU604
 1732              	.LVL150:
 1733              	.LBB360:
 1734              	.LBI360:
 145:/mnt/c/Users/31740/Documents/codes/newcore-rp2350/include/linux/libfdt.h **** {
 1735              		.loc 3 145 24 view .LVU605
 1736              	.LBB361:
 147:/mnt/c/Users/31740/Documents/codes/newcore-rp2350/include/linux/libfdt.h **** 
 1737              		.loc 3 147 2 view .LVU606
 149:/mnt/c/Users/31740/Documents/codes/newcore-rp2350/include/linux/libfdt.h **** 		| ((uint32_t)bp[1] << 16)
 1738              		.loc 3 149 2 view .LVU607
ARM GAS  /tmp/ccyijaMA.s 			page 60


 149:/mnt/c/Users/31740/Documents/codes/newcore-rp2350/include/linux/libfdt.h **** 		| ((uint32_t)bp[1] << 16)
 1739              		.loc 3 149 22 is_stmt 0 view .LVU608
 1740 0028 90F82030 		ldrb	r3, [r0, #32]	@ zero_extendqisi2
 150:/mnt/c/Users/31740/Documents/codes/newcore-rp2350/include/linux/libfdt.h **** 		| ((uint32_t)bp[2] << 8)
 1741              		.loc 3 150 18 view .LVU609
 1742 002c 90F82110 		ldrb	r1, [r0, #33]	@ zero_extendqisi2
 1743              	.LVL151:
 150:/mnt/c/Users/31740/Documents/codes/newcore-rp2350/include/linux/libfdt.h **** 		| ((uint32_t)bp[2] << 8)
 1744              		.loc 3 150 22 view .LVU610
 1745 0030 0904     		lsls	r1, r1, #16
 150:/mnt/c/Users/31740/Documents/codes/newcore-rp2350/include/linux/libfdt.h **** 		| ((uint32_t)bp[2] << 8)
 1746              		.loc 3 150 3 view .LVU611
 1747 0032 41EA0361 		orr	r1, r1, r3, lsl #24
 151:/mnt/c/Users/31740/Documents/codes/newcore-rp2350/include/linux/libfdt.h **** 		| bp[3];
 1748              		.loc 3 151 18 view .LVU612
 1749 0036 90F82230 		ldrb	r3, [r0, #34]	@ zero_extendqisi2
 151:/mnt/c/Users/31740/Documents/codes/newcore-rp2350/include/linux/libfdt.h **** 		| bp[3];
 1750              		.loc 3 151 3 view .LVU613
 1751 003a 41EA0321 		orr	r1, r1, r3, lsl #8
 152:/mnt/c/Users/31740/Documents/codes/newcore-rp2350/include/linux/libfdt.h **** }
 1752              		.loc 3 152 7 view .LVU614
 1753 003e 90F82300 		ldrb	r0, [r0, #35]	@ zero_extendqisi2
 1754              	.LVL152:
 152:/mnt/c/Users/31740/Documents/codes/newcore-rp2350/include/linux/libfdt.h **** }
 1755              		.loc 3 152 7 view .LVU615
 1756              	.LBE361:
 1757              	.LBE360:
 139:/mnt/c/Users/31740/Documents/codes/newcore-rp2350/lib/fdt/fdt_rw.c **** 	if (p)
 1758              		.loc 1 139 6 discriminator 1 view .LVU616
 1759 0042 1346     		mov	r3, r2
 1760 0044 3A46     		mov	r2, r7
 1761              	.LVL153:
 139:/mnt/c/Users/31740/Documents/codes/newcore-rp2350/lib/fdt/fdt_rw.c **** 	if (p)
 1762              		.loc 1 139 6 discriminator 1 view .LVU617
 1763 0046 0143     		orrs	r1, r1, r0
 1764 0048 2046     		mov	r0, r4
 1765 004a FFF7FEFF 		bl	fdt_find_string_len_
 1766              	.LVL154:
 140:/mnt/c/Users/31740/Documents/codes/newcore-rp2350/lib/fdt/fdt_rw.c **** 		/* found it */
 1767              		.loc 1 140 2 is_stmt 1 view .LVU618
 140:/mnt/c/Users/31740/Documents/codes/newcore-rp2350/lib/fdt/fdt_rw.c **** 		/* found it */
 1768              		.loc 1 140 5 is_stmt 0 view .LVU619
 1769 004e 10B1     		cbz	r0, .L46
 142:/mnt/c/Users/31740/Documents/codes/newcore-rp2350/lib/fdt/fdt_rw.c **** 
 1770              		.loc 1 142 3 is_stmt 1 view .LVU620
 142:/mnt/c/Users/31740/Documents/codes/newcore-rp2350/lib/fdt/fdt_rw.c **** 
 1771              		.loc 1 142 13 is_stmt 0 view .LVU621
 1772 0050 001B     		subs	r0, r0, r4
 1773              	.LVL155:
 1774              	.L45:
 156:/mnt/c/Users/31740/Documents/codes/newcore-rp2350/lib/fdt/fdt_rw.c **** 
 1775              		.loc 1 156 1 view .LVU622
 1776 0052 BDE8F883 		pop	{r3, r4, r5, r6, r7, r8, r9, pc}
 1777              	.LVL156:
 1778              	.L46:
 144:/mnt/c/Users/31740/Documents/codes/newcore-rp2350/lib/fdt/fdt_rw.c **** 	err = fdt_splice_string_(fdt, slen + 1);
 1779              		.loc 1 144 2 is_stmt 1 view .LVU623
ARM GAS  /tmp/ccyijaMA.s 			page 61


 1780              	.LBB362:
 1781              	.LBI362:
 145:/mnt/c/Users/31740/Documents/codes/newcore-rp2350/include/linux/libfdt.h **** {
 1782              		.loc 3 145 24 view .LVU624
 1783              	.LBB363:
 147:/mnt/c/Users/31740/Documents/codes/newcore-rp2350/include/linux/libfdt.h **** 
 1784              		.loc 3 147 2 view .LVU625
 149:/mnt/c/Users/31740/Documents/codes/newcore-rp2350/include/linux/libfdt.h **** 		| ((uint32_t)bp[1] << 16)
 1785              		.loc 3 149 2 view .LVU626
 149:/mnt/c/Users/31740/Documents/codes/newcore-rp2350/include/linux/libfdt.h **** 		| ((uint32_t)bp[1] << 16)
 1786              		.loc 3 149 22 is_stmt 0 view .LVU627
 1787 0056 95F82030 		ldrb	r3, [r5, #32]	@ zero_extendqisi2
 150:/mnt/c/Users/31740/Documents/codes/newcore-rp2350/include/linux/libfdt.h **** 		| ((uint32_t)bp[2] << 8)
 1788              		.loc 3 150 18 view .LVU628
 1789 005a 95F82190 		ldrb	r9, [r5, #33]	@ zero_extendqisi2
 150:/mnt/c/Users/31740/Documents/codes/newcore-rp2350/include/linux/libfdt.h **** 		| ((uint32_t)bp[2] << 8)
 1790              		.loc 3 150 22 view .LVU629
 1791 005e 4FEA0949 		lsl	r9, r9, #16
 150:/mnt/c/Users/31740/Documents/codes/newcore-rp2350/include/linux/libfdt.h **** 		| ((uint32_t)bp[2] << 8)
 1792              		.loc 3 150 3 view .LVU630
 1793 0062 49EA0369 		orr	r9, r9, r3, lsl #24
 151:/mnt/c/Users/31740/Documents/codes/newcore-rp2350/include/linux/libfdt.h **** 		| bp[3];
 1794              		.loc 3 151 18 view .LVU631
 1795 0066 95F82230 		ldrb	r3, [r5, #34]	@ zero_extendqisi2
 151:/mnt/c/Users/31740/Documents/codes/newcore-rp2350/include/linux/libfdt.h **** 		| bp[3];
 1796              		.loc 3 151 3 view .LVU632
 1797 006a 49EA0329 		orr	r9, r9, r3, lsl #8
 152:/mnt/c/Users/31740/Documents/codes/newcore-rp2350/include/linux/libfdt.h **** }
 1798              		.loc 3 152 7 view .LVU633
 1799 006e 95F82330 		ldrb	r3, [r5, #35]	@ zero_extendqisi2
 152:/mnt/c/Users/31740/Documents/codes/newcore-rp2350/include/linux/libfdt.h **** }
 1800              		.loc 3 152 3 view .LVU634
 1801 0072 49EA0309 		orr	r9, r9, r3
 1802              	.LVL157:
 152:/mnt/c/Users/31740/Documents/codes/newcore-rp2350/include/linux/libfdt.h **** }
 1803              		.loc 3 152 3 view .LVU635
 1804              	.LBE363:
 1805              	.LBE362:
 144:/mnt/c/Users/31740/Documents/codes/newcore-rp2350/lib/fdt/fdt_rw.c **** 	err = fdt_splice_string_(fdt, slen + 1);
 1806              		.loc 1 144 6 discriminator 1 view .LVU636
 1807 0076 4C44     		add	r4, r4, r9
 1808              	.LVL158:
 145:/mnt/c/Users/31740/Documents/codes/newcore-rp2350/lib/fdt/fdt_rw.c **** 	if (err)
 1809              		.loc 1 145 2 is_stmt 1 view .LVU637
 145:/mnt/c/Users/31740/Documents/codes/newcore-rp2350/lib/fdt/fdt_rw.c **** 	if (err)
 1810              		.loc 1 145 8 is_stmt 0 view .LVU638
 1811 0078 711C     		adds	r1, r6, #1
 1812 007a 2846     		mov	r0, r5
 1813              	.LVL159:
 145:/mnt/c/Users/31740/Documents/codes/newcore-rp2350/lib/fdt/fdt_rw.c **** 	if (err)
 1814              		.loc 1 145 8 view .LVU639
 1815 007c FFF7FEFF 		bl	fdt_splice_string_
 1816              	.LVL160:
 146:/mnt/c/Users/31740/Documents/codes/newcore-rp2350/lib/fdt/fdt_rw.c **** 		return err;
 1817              		.loc 1 146 2 is_stmt 1 view .LVU640
 146:/mnt/c/Users/31740/Documents/codes/newcore-rp2350/lib/fdt/fdt_rw.c **** 		return err;
 1818              		.loc 1 146 5 is_stmt 0 view .LVU641
ARM GAS  /tmp/ccyijaMA.s 			page 62


 1819 0080 0028     		cmp	r0, #0
 1820 0082 E6D1     		bne	.L45
 149:/mnt/c/Users/31740/Documents/codes/newcore-rp2350/lib/fdt/fdt_rw.c **** 		*allocated = 1;
 1821              		.loc 1 149 2 is_stmt 1 view .LVU642
 150:/mnt/c/Users/31740/Documents/codes/newcore-rp2350/lib/fdt/fdt_rw.c **** 
 1822              		.loc 1 150 3 view .LVU643
 150:/mnt/c/Users/31740/Documents/codes/newcore-rp2350/lib/fdt/fdt_rw.c **** 
 1823              		.loc 1 150 14 is_stmt 0 view .LVU644
 1824 0084 0123     		movs	r3, #1
 1825 0086 C8F80030 		str	r3, [r8]
 152:/mnt/c/Users/31740/Documents/codes/newcore-rp2350/lib/fdt/fdt_rw.c **** 	new[slen] = '\0';
 1826              		.loc 1 152 2 is_stmt 1 view .LVU645
 1827 008a 3246     		mov	r2, r6
 1828 008c 3946     		mov	r1, r7
 1829 008e 2046     		mov	r0, r4
 1830              	.LVL161:
 152:/mnt/c/Users/31740/Documents/codes/newcore-rp2350/lib/fdt/fdt_rw.c **** 	new[slen] = '\0';
 1831              		.loc 1 152 2 is_stmt 0 view .LVU646
 1832 0090 FFF7FEFF 		bl	memcpy
 1833              	.LVL162:
 153:/mnt/c/Users/31740/Documents/codes/newcore-rp2350/lib/fdt/fdt_rw.c **** 
 1834              		.loc 1 153 2 is_stmt 1 view .LVU647
 153:/mnt/c/Users/31740/Documents/codes/newcore-rp2350/lib/fdt/fdt_rw.c **** 
 1835              		.loc 1 153 12 is_stmt 0 view .LVU648
 1836 0094 0023     		movs	r3, #0
 1837 0096 A355     		strb	r3, [r4, r6]
 155:/mnt/c/Users/31740/Documents/codes/newcore-rp2350/lib/fdt/fdt_rw.c **** }
 1838              		.loc 1 155 2 is_stmt 1 view .LVU649
 1839 0098 4846     		mov	r0, r9
 155:/mnt/c/Users/31740/Documents/codes/newcore-rp2350/lib/fdt/fdt_rw.c **** }
 1840              		.loc 1 155 14 is_stmt 0 view .LVU650
 1841 009a DAE7     		b	.L45
 1842              		.cfi_endproc
 1843              	.LFE83:
 1845              		.section	.text.fdt_add_property_,"ax",%progbits
 1846              		.align	1
 1847              		.syntax unified
 1848              		.thumb
 1849              		.thumb_func
 1851              	fdt_add_property_:
 1852              	.LVL163:
 1853              	.LFB87:
 209:/mnt/c/Users/31740/Documents/codes/newcore-rp2350/lib/fdt/fdt_rw.c **** 	int proplen;
 1854              		.loc 1 209 1 is_stmt 1 view -0
 1855              		.cfi_startproc
 1856              		@ args = 8, pretend = 0, frame = 8
 1857              		@ frame_needed = 0, uses_anonymous_args = 0
 209:/mnt/c/Users/31740/Documents/codes/newcore-rp2350/lib/fdt/fdt_rw.c **** 	int proplen;
 1858              		.loc 1 209 1 is_stmt 0 view .LVU652
 1859 0000 2DE9F043 		push	{r4, r5, r6, r7, r8, r9, lr}
 1860              	.LCFI15:
 1861              		.cfi_def_cfa_offset 28
 1862              		.cfi_offset 4, -28
 1863              		.cfi_offset 5, -24
 1864              		.cfi_offset 6, -20
 1865              		.cfi_offset 7, -16
 1866              		.cfi_offset 8, -12
ARM GAS  /tmp/ccyijaMA.s 			page 63


 1867              		.cfi_offset 9, -8
 1868              		.cfi_offset 14, -4
 1869 0004 83B0     		sub	sp, sp, #12
 1870              	.LCFI16:
 1871              		.cfi_def_cfa_offset 40
 1872 0006 0546     		mov	r5, r0
 1873 0008 1646     		mov	r6, r2
 1874 000a 1F46     		mov	r7, r3
 1875 000c DDF82880 		ldr	r8, [sp, #40]
 1876 0010 DDF82C90 		ldr	r9, [sp, #44]
 210:/mnt/c/Users/31740/Documents/codes/newcore-rp2350/lib/fdt/fdt_rw.c **** 	int nextoffset;
 1877              		.loc 1 210 2 is_stmt 1 view .LVU653
 211:/mnt/c/Users/31740/Documents/codes/newcore-rp2350/lib/fdt/fdt_rw.c **** 	int namestroff;
 1878              		.loc 1 211 2 view .LVU654
 212:/mnt/c/Users/31740/Documents/codes/newcore-rp2350/lib/fdt/fdt_rw.c **** 	int err;
 1879              		.loc 1 212 2 view .LVU655
 213:/mnt/c/Users/31740/Documents/codes/newcore-rp2350/lib/fdt/fdt_rw.c **** 	int allocated;
 1880              		.loc 1 213 2 view .LVU656
 214:/mnt/c/Users/31740/Documents/codes/newcore-rp2350/lib/fdt/fdt_rw.c **** 
 1881              		.loc 1 214 2 view .LVU657
 216:/mnt/c/Users/31740/Documents/codes/newcore-rp2350/lib/fdt/fdt_rw.c **** 		return nextoffset;
 1882              		.loc 1 216 2 view .LVU658
 216:/mnt/c/Users/31740/Documents/codes/newcore-rp2350/lib/fdt/fdt_rw.c **** 		return nextoffset;
 1883              		.loc 1 216 20 is_stmt 0 view .LVU659
 1884 0014 FFF7FEFF 		bl	fdt_check_node_offset_
 1885              	.LVL164:
 216:/mnt/c/Users/31740/Documents/codes/newcore-rp2350/lib/fdt/fdt_rw.c **** 		return nextoffset;
 1886              		.loc 1 216 5 discriminator 1 view .LVU660
 1887 0018 041E     		subs	r4, r0, #0
 1888 001a 4ADB     		blt	.L49
 219:/mnt/c/Users/31740/Documents/codes/newcore-rp2350/lib/fdt/fdt_rw.c **** 	if (namestroff < 0)
 1889              		.loc 1 219 2 is_stmt 1 view .LVU661
 219:/mnt/c/Users/31740/Documents/codes/newcore-rp2350/lib/fdt/fdt_rw.c **** 	if (namestroff < 0)
 1890              		.loc 1 219 15 is_stmt 0 view .LVU662
 1891 001c 01AB     		add	r3, sp, #4
 1892 001e 3A46     		mov	r2, r7
 1893 0020 3146     		mov	r1, r6
 1894 0022 2846     		mov	r0, r5
 1895              	.LVL165:
 219:/mnt/c/Users/31740/Documents/codes/newcore-rp2350/lib/fdt/fdt_rw.c **** 	if (namestroff < 0)
 1896              		.loc 1 219 15 view .LVU663
 1897 0024 FFF7FEFF 		bl	fdt_find_add_string_
 1898              	.LVL166:
 220:/mnt/c/Users/31740/Documents/codes/newcore-rp2350/lib/fdt/fdt_rw.c **** 		return namestroff;
 1899              		.loc 1 220 2 is_stmt 1 view .LVU664
 220:/mnt/c/Users/31740/Documents/codes/newcore-rp2350/lib/fdt/fdt_rw.c **** 		return namestroff;
 1900              		.loc 1 220 5 is_stmt 0 view .LVU665
 1901 0028 071E     		subs	r7, r0, #0
 1902              	.LVL167:
 220:/mnt/c/Users/31740/Documents/codes/newcore-rp2350/lib/fdt/fdt_rw.c **** 		return namestroff;
 1903              		.loc 1 220 5 view .LVU666
 1904 002a 41DB     		blt	.L53
 223:/mnt/c/Users/31740/Documents/codes/newcore-rp2350/lib/fdt/fdt_rw.c **** 	proplen = sizeof(**prop) + FDT_TAGALIGN(len);
 1905              		.loc 1 223 2 is_stmt 1 view .LVU667
 1906              	.LVL168:
 1907              	.LBB364:
 1908              	.LBI364:
ARM GAS  /tmp/ccyijaMA.s 			page 64


  40:/mnt/c/Users/31740/Documents/codes/newcore-rp2350/lib/fdt/libfdt_internal.h **** {
 1909              		.loc 2 40 21 view .LVU668
  42:/mnt/c/Users/31740/Documents/codes/newcore-rp2350/lib/fdt/libfdt_internal.h **** }
 1910              		.loc 2 42 2 view .LVU669
 1911              	.LBB365:
 1912              	.LBI365:
  35:/mnt/c/Users/31740/Documents/codes/newcore-rp2350/lib/fdt/libfdt_internal.h **** {
 1913              		.loc 2 35 27 view .LVU670
 1914              	.LBB366:
  37:/mnt/c/Users/31740/Documents/codes/newcore-rp2350/lib/fdt/libfdt_internal.h **** }
 1915              		.loc 2 37 2 view .LVU671
 1916              	.LBB367:
 1917              	.LBI367:
 145:/mnt/c/Users/31740/Documents/codes/newcore-rp2350/include/linux/libfdt.h **** {
 1918              		.loc 3 145 24 view .LVU672
 1919              	.LBB368:
 147:/mnt/c/Users/31740/Documents/codes/newcore-rp2350/include/linux/libfdt.h **** 
 1920              		.loc 3 147 2 view .LVU673
 149:/mnt/c/Users/31740/Documents/codes/newcore-rp2350/include/linux/libfdt.h **** 		| ((uint32_t)bp[1] << 16)
 1921              		.loc 3 149 2 view .LVU674
 149:/mnt/c/Users/31740/Documents/codes/newcore-rp2350/include/linux/libfdt.h **** 		| ((uint32_t)bp[1] << 16)
 1922              		.loc 3 149 22 is_stmt 0 view .LVU675
 1923 002c 2B7A     		ldrb	r3, [r5, #8]	@ zero_extendqisi2
 150:/mnt/c/Users/31740/Documents/codes/newcore-rp2350/include/linux/libfdt.h **** 		| ((uint32_t)bp[2] << 8)
 1924              		.loc 3 150 18 view .LVU676
 1925 002e 697A     		ldrb	r1, [r5, #9]	@ zero_extendqisi2
 150:/mnt/c/Users/31740/Documents/codes/newcore-rp2350/include/linux/libfdt.h **** 		| ((uint32_t)bp[2] << 8)
 1926              		.loc 3 150 22 view .LVU677
 1927 0030 0904     		lsls	r1, r1, #16
 150:/mnt/c/Users/31740/Documents/codes/newcore-rp2350/include/linux/libfdt.h **** 		| ((uint32_t)bp[2] << 8)
 1928              		.loc 3 150 3 view .LVU678
 1929 0032 41EA0361 		orr	r1, r1, r3, lsl #24
 151:/mnt/c/Users/31740/Documents/codes/newcore-rp2350/include/linux/libfdt.h **** 		| bp[3];
 1930              		.loc 3 151 18 view .LVU679
 1931 0036 AB7A     		ldrb	r3, [r5, #10]	@ zero_extendqisi2
 151:/mnt/c/Users/31740/Documents/codes/newcore-rp2350/include/linux/libfdt.h **** 		| bp[3];
 1932              		.loc 3 151 3 view .LVU680
 1933 0038 41EA0321 		orr	r1, r1, r3, lsl #8
 152:/mnt/c/Users/31740/Documents/codes/newcore-rp2350/include/linux/libfdt.h **** }
 1934              		.loc 3 152 7 view .LVU681
 1935 003c EB7A     		ldrb	r3, [r5, #11]	@ zero_extendqisi2
 152:/mnt/c/Users/31740/Documents/codes/newcore-rp2350/include/linux/libfdt.h **** }
 1936              		.loc 3 152 3 view .LVU682
 1937 003e 1943     		orrs	r1, r1, r3
 1938              	.LVL169:
 152:/mnt/c/Users/31740/Documents/codes/newcore-rp2350/include/linux/libfdt.h **** }
 1939              		.loc 3 152 3 view .LVU683
 1940              	.LBE368:
 1941              	.LBE367:
  37:/mnt/c/Users/31740/Documents/codes/newcore-rp2350/lib/fdt/libfdt_internal.h **** }
 1942              		.loc 2 37 52 discriminator 1 view .LVU684
 1943 0040 2144     		add	r1, r1, r4
 1944 0042 2944     		add	r1, r1, r5
 1945              	.LVL170:
  37:/mnt/c/Users/31740/Documents/codes/newcore-rp2350/lib/fdt/libfdt_internal.h **** }
 1946              		.loc 2 37 52 discriminator 1 view .LVU685
 1947              	.LBE366:
ARM GAS  /tmp/ccyijaMA.s 			page 65


 1948              	.LBE365:
 1949              	.LBE364:
 223:/mnt/c/Users/31740/Documents/codes/newcore-rp2350/lib/fdt/fdt_rw.c **** 	proplen = sizeof(**prop) + FDT_TAGALIGN(len);
 1950              		.loc 1 223 8 discriminator 1 view .LVU686
 1951 0044 C9F80010 		str	r1, [r9]
 224:/mnt/c/Users/31740/Documents/codes/newcore-rp2350/lib/fdt/fdt_rw.c **** 
 1952              		.loc 1 224 2 is_stmt 1 view .LVU687
 224:/mnt/c/Users/31740/Documents/codes/newcore-rp2350/lib/fdt/fdt_rw.c **** 
 1953              		.loc 1 224 29 is_stmt 0 view .LVU688
 1954 0048 08F10303 		add	r3, r8, #3
 1955 004c 23F00303 		bic	r3, r3, #3
 1956              	.LVL171:
 226:/mnt/c/Users/31740/Documents/codes/newcore-rp2350/lib/fdt/fdt_rw.c **** 	if (err) {
 1957              		.loc 1 226 2 is_stmt 1 view .LVU689
 226:/mnt/c/Users/31740/Documents/codes/newcore-rp2350/lib/fdt/fdt_rw.c **** 	if (err) {
 1958              		.loc 1 226 8 is_stmt 0 view .LVU690
 1959 0050 0C33     		adds	r3, r3, #12
 1960              	.LVL172:
 226:/mnt/c/Users/31740/Documents/codes/newcore-rp2350/lib/fdt/fdt_rw.c **** 	if (err) {
 1961              		.loc 1 226 8 view .LVU691
 1962 0052 0022     		movs	r2, #0
 1963 0054 2846     		mov	r0, r5
 1964              	.LVL173:
 226:/mnt/c/Users/31740/Documents/codes/newcore-rp2350/lib/fdt/fdt_rw.c **** 	if (err) {
 1965              		.loc 1 226 8 view .LVU692
 1966 0056 FFF7FEFF 		bl	fdt_splice_struct_
 1967              	.LVL174:
 227:/mnt/c/Users/31740/Documents/codes/newcore-rp2350/lib/fdt/fdt_rw.c **** 		/* Delete the string if we failed to add it */
 1968              		.loc 1 227 2 is_stmt 1 view .LVU693
 227:/mnt/c/Users/31740/Documents/codes/newcore-rp2350/lib/fdt/fdt_rw.c **** 		/* Delete the string if we failed to add it */
 1969              		.loc 1 227 5 is_stmt 0 view .LVU694
 1970 005a 0446     		mov	r4, r0
 1971              	.LVL175:
 227:/mnt/c/Users/31740/Documents/codes/newcore-rp2350/lib/fdt/fdt_rw.c **** 		/* Delete the string if we failed to add it */
 1972              		.loc 1 227 5 view .LVU695
 1973 005c 08BB     		cbnz	r0, .L55
 234:/mnt/c/Users/31740/Documents/codes/newcore-rp2350/lib/fdt/fdt_rw.c **** 	(*prop)->nameoff = cpu_to_fdt32(namestroff);
 1974              		.loc 1 234 2 is_stmt 1 view .LVU696
 234:/mnt/c/Users/31740/Documents/codes/newcore-rp2350/lib/fdt/fdt_rw.c **** 	(*prop)->nameoff = cpu_to_fdt32(namestroff);
 1975              		.loc 1 234 3 is_stmt 0 view .LVU697
 1976 005e D9F80030 		ldr	r3, [r9]
 234:/mnt/c/Users/31740/Documents/codes/newcore-rp2350/lib/fdt/fdt_rw.c **** 	(*prop)->nameoff = cpu_to_fdt32(namestroff);
 1977              		.loc 1 234 15 discriminator 1 view .LVU698
 1978 0062 4FF04072 		mov	r2, #50331648
 1979 0066 1A60     		str	r2, [r3]
 235:/mnt/c/Users/31740/Documents/codes/newcore-rp2350/lib/fdt/fdt_rw.c **** 	(*prop)->len = cpu_to_fdt32(len);
 1980              		.loc 1 235 2 is_stmt 1 view .LVU699
 235:/mnt/c/Users/31740/Documents/codes/newcore-rp2350/lib/fdt/fdt_rw.c **** 	(*prop)->len = cpu_to_fdt32(len);
 1981              		.loc 1 235 3 is_stmt 0 view .LVU700
 1982 0068 D9F80020 		ldr	r2, [r9]
 1983              	.LVL176:
 1984              	.LBB369:
 1985              	.LBI369:
  57:/mnt/c/Users/31740/Documents/codes/newcore-rp2350/include/linux/libfdt_env.h **** {
 1986              		.loc 4 57 23 is_stmt 1 view .LVU701
 1987              	.LBB370:
 1988              		.loc 4 59 2 view .LVU702
ARM GAS  /tmp/ccyijaMA.s 			page 66


 1989              		.loc 4 59 28 is_stmt 0 view .LVU703
 1990 006c C7F30723 		ubfx	r3, r7, #8, #8
 1991 0070 1B04     		lsls	r3, r3, #16
 1992 0072 43EA0763 		orr	r3, r3, r7, lsl #24
 1993 0076 C7F30741 		ubfx	r1, r7, #16, #8
 1994 007a 43EA0123 		orr	r3, r3, r1, lsl #8
 1995              		.loc 4 59 9 view .LVU704
 1996 007e 43EA1763 		orr	r3, r3, r7, lsr #24
 1997              	.LVL177:
 1998              		.loc 4 59 9 view .LVU705
 1999              	.LBE370:
 2000              	.LBE369:
 235:/mnt/c/Users/31740/Documents/codes/newcore-rp2350/lib/fdt/fdt_rw.c **** 	(*prop)->len = cpu_to_fdt32(len);
 2001              		.loc 1 235 19 discriminator 1 view .LVU706
 2002 0082 9360     		str	r3, [r2, #8]
 236:/mnt/c/Users/31740/Documents/codes/newcore-rp2350/lib/fdt/fdt_rw.c **** 	return 0;
 2003              		.loc 1 236 2 is_stmt 1 view .LVU707
 236:/mnt/c/Users/31740/Documents/codes/newcore-rp2350/lib/fdt/fdt_rw.c **** 	return 0;
 2004              		.loc 1 236 3 is_stmt 0 view .LVU708
 2005 0084 D9F80020 		ldr	r2, [r9]
 2006              	.LVL178:
 2007              	.LBB371:
 2008              	.LBI371:
  57:/mnt/c/Users/31740/Documents/codes/newcore-rp2350/include/linux/libfdt_env.h **** {
 2009              		.loc 4 57 23 is_stmt 1 view .LVU709
 2010              	.LBB372:
 2011              		.loc 4 59 2 view .LVU710
 2012              		.loc 4 59 28 is_stmt 0 view .LVU711
 2013 0088 C8F30723 		ubfx	r3, r8, #8, #8
 2014 008c 1B04     		lsls	r3, r3, #16
 2015 008e 43EA0863 		orr	r3, r3, r8, lsl #24
 2016 0092 C8F30741 		ubfx	r1, r8, #16, #8
 2017 0096 43EA0123 		orr	r3, r3, r1, lsl #8
 2018              		.loc 4 59 9 view .LVU712
 2019 009a 43EA1863 		orr	r3, r3, r8, lsr #24
 2020              	.LVL179:
 2021              		.loc 4 59 9 view .LVU713
 2022              	.LBE372:
 2023              	.LBE371:
 236:/mnt/c/Users/31740/Documents/codes/newcore-rp2350/lib/fdt/fdt_rw.c **** 	return 0;
 2024              		.loc 1 236 15 discriminator 1 view .LVU714
 2025 009e 5360     		str	r3, [r2, #4]
 237:/mnt/c/Users/31740/Documents/codes/newcore-rp2350/lib/fdt/fdt_rw.c **** }
 2026              		.loc 1 237 2 is_stmt 1 view .LVU715
 237:/mnt/c/Users/31740/Documents/codes/newcore-rp2350/lib/fdt/fdt_rw.c **** }
 2027              		.loc 1 237 9 is_stmt 0 view .LVU716
 2028 00a0 07E0     		b	.L49
 2029              	.L55:
 229:/mnt/c/Users/31740/Documents/codes/newcore-rp2350/lib/fdt/fdt_rw.c **** 			fdt_del_last_string_(fdt, name);
 2030              		.loc 1 229 3 is_stmt 1 view .LVU717
 229:/mnt/c/Users/31740/Documents/codes/newcore-rp2350/lib/fdt/fdt_rw.c **** 			fdt_del_last_string_(fdt, name);
 2031              		.loc 1 229 32 is_stmt 0 discriminator 1 view .LVU718
 2032 00a2 019B     		ldr	r3, [sp, #4]
 2033 00a4 2BB1     		cbz	r3, .L49
 230:/mnt/c/Users/31740/Documents/codes/newcore-rp2350/lib/fdt/fdt_rw.c **** 		return err;
 2034              		.loc 1 230 4 is_stmt 1 view .LVU719
 2035 00a6 3146     		mov	r1, r6
ARM GAS  /tmp/ccyijaMA.s 			page 67


 2036 00a8 2846     		mov	r0, r5
 2037              	.LVL180:
 230:/mnt/c/Users/31740/Documents/codes/newcore-rp2350/lib/fdt/fdt_rw.c **** 		return err;
 2038              		.loc 1 230 4 is_stmt 0 view .LVU720
 2039 00aa FFF7FEFF 		bl	fdt_del_last_string_
 2040              	.LVL181:
 231:/mnt/c/Users/31740/Documents/codes/newcore-rp2350/lib/fdt/fdt_rw.c **** 	}
 2041              		.loc 1 231 3 is_stmt 1 view .LVU721
 231:/mnt/c/Users/31740/Documents/codes/newcore-rp2350/lib/fdt/fdt_rw.c **** 	}
 2042              		.loc 1 231 10 is_stmt 0 view .LVU722
 2043 00ae 00E0     		b	.L49
 2044              	.LVL182:
 2045              	.L53:
 221:/mnt/c/Users/31740/Documents/codes/newcore-rp2350/lib/fdt/fdt_rw.c **** 
 2046              		.loc 1 221 10 view .LVU723
 2047 00b0 3C46     		mov	r4, r7
 2048              	.LVL183:
 2049              	.L49:
 238:/mnt/c/Users/31740/Documents/codes/newcore-rp2350/lib/fdt/fdt_rw.c **** 
 2050              		.loc 1 238 1 view .LVU724
 2051 00b2 2046     		mov	r0, r4
 2052 00b4 03B0     		add	sp, sp, #12
 2053              	.LCFI17:
 2054              		.cfi_def_cfa_offset 28
 2055              		@ sp needed
 2056 00b6 BDE8F083 		pop	{r4, r5, r6, r7, r8, r9, pc}
 238:/mnt/c/Users/31740/Documents/codes/newcore-rp2350/lib/fdt/fdt_rw.c **** 
 2057              		.loc 1 238 1 view .LVU725
 2058              		.cfi_endproc
 2059              	.LFE87:
 2061              		.section	.text.fdt_add_mem_rsv,"ax",%progbits
 2062              		.align	1
 2063              		.global	fdt_add_mem_rsv
 2064              		.syntax unified
 2065              		.thumb
 2066              		.thumb_func
 2068              	fdt_add_mem_rsv:
 2069              	.LVL184:
 2070              	.LFB84:
 159:/mnt/c/Users/31740/Documents/codes/newcore-rp2350/lib/fdt/fdt_rw.c **** 	struct fdt_reserve_entry *re;
 2071              		.loc 1 159 1 is_stmt 1 view -0
 2072              		.cfi_startproc
 2073              		@ args = 0, pretend = 0, frame = 8
 2074              		@ frame_needed = 0, uses_anonymous_args = 0
 159:/mnt/c/Users/31740/Documents/codes/newcore-rp2350/lib/fdt/fdt_rw.c **** 	struct fdt_reserve_entry *re;
 2075              		.loc 1 159 1 is_stmt 0 view .LVU727
 2076 0000 F0B5     		push	{r4, r5, r6, r7, lr}
 2077              	.LCFI18:
 2078              		.cfi_def_cfa_offset 20
 2079              		.cfi_offset 4, -20
 2080              		.cfi_offset 5, -16
 2081              		.cfi_offset 6, -12
 2082              		.cfi_offset 7, -8
 2083              		.cfi_offset 14, -4
 2084 0002 83B0     		sub	sp, sp, #12
 2085              	.LCFI19:
 2086              		.cfi_def_cfa_offset 32
ARM GAS  /tmp/ccyijaMA.s 			page 68


 2087 0004 0446     		mov	r4, r0
 2088 0006 0F46     		mov	r7, r1
 2089 0008 1546     		mov	r5, r2
 160:/mnt/c/Users/31740/Documents/codes/newcore-rp2350/lib/fdt/fdt_rw.c **** 	int err;
 2090              		.loc 1 160 2 is_stmt 1 view .LVU728
 161:/mnt/c/Users/31740/Documents/codes/newcore-rp2350/lib/fdt/fdt_rw.c **** 
 2091              		.loc 1 161 2 view .LVU729
 2092              	.LBB373:
 163:/mnt/c/Users/31740/Documents/codes/newcore-rp2350/lib/fdt/fdt_rw.c **** 
 2093              		.loc 1 163 2 view .LVU730
 163:/mnt/c/Users/31740/Documents/codes/newcore-rp2350/lib/fdt/fdt_rw.c **** 
 2094              		.loc 1 163 2 view .LVU731
 2095 000a FFF7FEFF 		bl	fdt_rw_probe_
 2096              	.LVL185:
 163:/mnt/c/Users/31740/Documents/codes/newcore-rp2350/lib/fdt/fdt_rw.c **** 
 2097              		.loc 1 163 2 is_stmt 0 discriminator 1 view .LVU732
 2098 000e 0246     		mov	r2, r0
 2099 0010 10B1     		cbz	r0, .L59
 2100              	.LVL186:
 2101              	.L56:
 163:/mnt/c/Users/31740/Documents/codes/newcore-rp2350/lib/fdt/fdt_rw.c **** 
 2102              		.loc 1 163 2 discriminator 1 view .LVU733
 2103              	.LBE373:
 173:/mnt/c/Users/31740/Documents/codes/newcore-rp2350/lib/fdt/fdt_rw.c **** 
 2104              		.loc 1 173 1 view .LVU734
 2105 0012 1046     		mov	r0, r2
 2106 0014 03B0     		add	sp, sp, #12
 2107              	.LCFI20:
 2108              		.cfi_remember_state
 2109              		.cfi_def_cfa_offset 20
 2110              		@ sp needed
 2111 0016 F0BD     		pop	{r4, r5, r6, r7, pc}
 2112              	.LVL187:
 2113              	.L59:
 2114              	.LCFI21:
 2115              		.cfi_restore_state
 163:/mnt/c/Users/31740/Documents/codes/newcore-rp2350/lib/fdt/fdt_rw.c **** 
 2116              		.loc 1 163 19 is_stmt 1 discriminator 2 view .LVU735
 165:/mnt/c/Users/31740/Documents/codes/newcore-rp2350/lib/fdt/fdt_rw.c **** 	err = fdt_splice_mem_rsv_(fdt, re, 0, 1);
 2117              		.loc 1 165 2 view .LVU736
 165:/mnt/c/Users/31740/Documents/codes/newcore-rp2350/lib/fdt/fdt_rw.c **** 	err = fdt_splice_mem_rsv_(fdt, re, 0, 1);
 2118              		.loc 1 165 7 is_stmt 0 view .LVU737
 2119 0018 2046     		mov	r0, r4
 2120              	.LVL188:
 165:/mnt/c/Users/31740/Documents/codes/newcore-rp2350/lib/fdt/fdt_rw.c **** 	err = fdt_splice_mem_rsv_(fdt, re, 0, 1);
 2121              		.loc 1 165 7 view .LVU738
 2122 001a FFF7FEFF 		bl	fdt_num_mem_rsv
 2123              	.LVL189:
 165:/mnt/c/Users/31740/Documents/codes/newcore-rp2350/lib/fdt/fdt_rw.c **** 	err = fdt_splice_mem_rsv_(fdt, re, 0, 1);
 2124              		.loc 1 165 7 view .LVU739
 2125 001e 0146     		mov	r1, r0
 2126              	.LVL190:
 2127              	.LBB374:
 2128              	.LBI374:
  53:/mnt/c/Users/31740/Documents/codes/newcore-rp2350/lib/fdt/libfdt_internal.h **** static inline struct fdt_reserve_entry *fdt_mem_rsv_w_(void *fdt, int n)
 2129              		.loc 2 53 41 is_stmt 1 view .LVU740
 2130              	.LBB375:
ARM GAS  /tmp/ccyijaMA.s 			page 69


  54:/mnt/c/Users/31740/Documents/codes/newcore-rp2350/lib/fdt/libfdt_internal.h **** {
  55:/mnt/c/Users/31740/Documents/codes/newcore-rp2350/lib/fdt/libfdt_internal.h **** 	return (void *)(uintptr_t)fdt_mem_rsv_(fdt, n);
 2131              		.loc 2 55 2 view .LVU741
 2132              		.loc 2 55 28 is_stmt 0 view .LVU742
 2133 0020 2046     		mov	r0, r4
 2134              	.LVL191:
 2135              		.loc 2 55 28 view .LVU743
 2136 0022 FFF7FEFF 		bl	fdt_mem_rsv_
 2137              	.LVL192:
 2138              		.loc 2 55 28 view .LVU744
 2139 0026 0646     		mov	r6, r0
 2140              	.LVL193:
 2141              		.loc 2 55 28 view .LVU745
 2142              	.LBE375:
 2143              	.LBE374:
 166:/mnt/c/Users/31740/Documents/codes/newcore-rp2350/lib/fdt/fdt_rw.c **** 	if (err)
 2144              		.loc 1 166 2 is_stmt 1 view .LVU746
 166:/mnt/c/Users/31740/Documents/codes/newcore-rp2350/lib/fdt/fdt_rw.c **** 	if (err)
 2145              		.loc 1 166 8 is_stmt 0 view .LVU747
 2146 0028 0123     		movs	r3, #1
 2147 002a 0022     		movs	r2, #0
 2148 002c 0146     		mov	r1, r0
 2149 002e 2046     		mov	r0, r4
 2150              	.LVL194:
 166:/mnt/c/Users/31740/Documents/codes/newcore-rp2350/lib/fdt/fdt_rw.c **** 	if (err)
 2151              		.loc 1 166 8 view .LVU748
 2152 0030 FFF7FEFF 		bl	fdt_splice_mem_rsv_
 2153              	.LVL195:
 167:/mnt/c/Users/31740/Documents/codes/newcore-rp2350/lib/fdt/fdt_rw.c **** 		return err;
 2154              		.loc 1 167 2 is_stmt 1 view .LVU749
 167:/mnt/c/Users/31740/Documents/codes/newcore-rp2350/lib/fdt/fdt_rw.c **** 		return err;
 2155              		.loc 1 167 5 is_stmt 0 view .LVU750
 2156 0034 0246     		mov	r2, r0
 2157 0036 0028     		cmp	r0, #0
 2158 0038 EBD1     		bne	.L56
 170:/mnt/c/Users/31740/Documents/codes/newcore-rp2350/lib/fdt/fdt_rw.c **** 	re->size = cpu_to_fdt64(size);
 2159              		.loc 1 170 2 is_stmt 1 view .LVU751
 2160              	.LVL196:
 2161              	.LBB376:
 2162              	.LBI376:
  60:/mnt/c/Users/31740/Documents/codes/newcore-rp2350/include/linux/libfdt_env.h **** }
  61:/mnt/c/Users/31740/Documents/codes/newcore-rp2350/include/linux/libfdt_env.h **** 
  62:/mnt/c/Users/31740/Documents/codes/newcore-rp2350/include/linux/libfdt_env.h **** static inline uint64_t fdt64_to_cpu(fdt64_t x)
  63:/mnt/c/Users/31740/Documents/codes/newcore-rp2350/include/linux/libfdt_env.h **** {
  64:/mnt/c/Users/31740/Documents/codes/newcore-rp2350/include/linux/libfdt_env.h **** 	return (FDT_FORCE uint64_t)CPU_TO_FDT64(x);
  65:/mnt/c/Users/31740/Documents/codes/newcore-rp2350/include/linux/libfdt_env.h **** }
  66:/mnt/c/Users/31740/Documents/codes/newcore-rp2350/include/linux/libfdt_env.h **** static inline fdt64_t cpu_to_fdt64(uint64_t x)
 2163              		.loc 4 66 23 view .LVU752
 2164              	.LBB377:
  67:/mnt/c/Users/31740/Documents/codes/newcore-rp2350/include/linux/libfdt_env.h **** {
  68:/mnt/c/Users/31740/Documents/codes/newcore-rp2350/include/linux/libfdt_env.h **** 	return (FDT_FORCE fdt64_t)CPU_TO_FDT64(x);
 2165              		.loc 4 68 2 view .LVU753
 2166              		.loc 4 68 28 is_stmt 0 view .LVU754
 2167 003a 0197     		str	r7, [sp, #4]
 2168 003c 9DF80810 		ldrb	r1, [sp, #8]	@ zero_extendqisi2
 2169 0040 9DF80930 		ldrb	r3, [sp, #9]	@ zero_extendqisi2
 2170 0044 1B04     		lsls	r3, r3, #16
ARM GAS  /tmp/ccyijaMA.s 			page 70


 2171 0046 43EA0163 		orr	r3, r3, r1, lsl #24
 2172 004a 9DF80A10 		ldrb	r1, [sp, #10]	@ zero_extendqisi2
 2173 004e 43EA0123 		orr	r3, r3, r1, lsl #8
 2174 0052 9DF80B10 		ldrb	r1, [sp, #11]	@ zero_extendqisi2
 2175              		.loc 4 68 9 view .LVU755
 2176 0056 0B43     		orrs	r3, r3, r1
 2177              	.LVL197:
 2178              		.loc 4 68 9 view .LVU756
 2179              	.LBE377:
 2180              	.LBE376:
 170:/mnt/c/Users/31740/Documents/codes/newcore-rp2350/lib/fdt/fdt_rw.c **** 	re->size = cpu_to_fdt64(size);
 2181              		.loc 1 170 14 discriminator 1 view .LVU757
 2182 0058 3360     		str	r3, [r6]
 171:/mnt/c/Users/31740/Documents/codes/newcore-rp2350/lib/fdt/fdt_rw.c **** 	return 0;
 2183              		.loc 1 171 2 is_stmt 1 view .LVU758
 2184              	.LVL198:
 2185              	.LBB378:
 2186              	.LBI378:
  66:/mnt/c/Users/31740/Documents/codes/newcore-rp2350/include/linux/libfdt_env.h **** {
 2187              		.loc 4 66 23 view .LVU759
 2188              	.LBB379:
 2189              		.loc 4 68 2 view .LVU760
 2190              		.loc 4 68 28 is_stmt 0 view .LVU761
 2191 005a 0195     		str	r5, [sp, #4]
 2192 005c 9DF80810 		ldrb	r1, [sp, #8]	@ zero_extendqisi2
 2193 0060 9DF80930 		ldrb	r3, [sp, #9]	@ zero_extendqisi2
 2194 0064 1B04     		lsls	r3, r3, #16
 2195 0066 43EA0163 		orr	r3, r3, r1, lsl #24
 2196 006a 9DF80A10 		ldrb	r1, [sp, #10]	@ zero_extendqisi2
 2197 006e 43EA0123 		orr	r3, r3, r1, lsl #8
 2198 0072 9DF80B10 		ldrb	r1, [sp, #11]	@ zero_extendqisi2
 2199              		.loc 4 68 9 view .LVU762
 2200 0076 0B43     		orrs	r3, r3, r1
 2201              	.LVL199:
 2202              		.loc 4 68 9 view .LVU763
 2203              	.LBE379:
 2204              	.LBE378:
 171:/mnt/c/Users/31740/Documents/codes/newcore-rp2350/lib/fdt/fdt_rw.c **** 	return 0;
 2205              		.loc 1 171 11 discriminator 1 view .LVU764
 2206 0078 7360     		str	r3, [r6, #4]
 172:/mnt/c/Users/31740/Documents/codes/newcore-rp2350/lib/fdt/fdt_rw.c **** }
 2207              		.loc 1 172 2 is_stmt 1 view .LVU765
 172:/mnt/c/Users/31740/Documents/codes/newcore-rp2350/lib/fdt/fdt_rw.c **** }
 2208              		.loc 1 172 9 is_stmt 0 view .LVU766
 2209 007a CAE7     		b	.L56
 2210              		.cfi_endproc
 2211              	.LFE84:
 2213              		.section	.text.fdt_del_mem_rsv,"ax",%progbits
 2214              		.align	1
 2215              		.global	fdt_del_mem_rsv
 2216              		.syntax unified
 2217              		.thumb
 2218              		.thumb_func
 2220              	fdt_del_mem_rsv:
 2221              	.LVL200:
 2222              	.LFB85:
 176:/mnt/c/Users/31740/Documents/codes/newcore-rp2350/lib/fdt/fdt_rw.c **** 	struct fdt_reserve_entry *re = fdt_mem_rsv_w_(fdt, n);
ARM GAS  /tmp/ccyijaMA.s 			page 71


 2223              		.loc 1 176 1 is_stmt 1 view -0
 2224              		.cfi_startproc
 2225              		@ args = 0, pretend = 0, frame = 0
 2226              		@ frame_needed = 0, uses_anonymous_args = 0
 176:/mnt/c/Users/31740/Documents/codes/newcore-rp2350/lib/fdt/fdt_rw.c **** 	struct fdt_reserve_entry *re = fdt_mem_rsv_w_(fdt, n);
 2227              		.loc 1 176 1 is_stmt 0 view .LVU768
 2228 0000 70B5     		push	{r4, r5, r6, lr}
 2229              	.LCFI22:
 2230              		.cfi_def_cfa_offset 16
 2231              		.cfi_offset 4, -16
 2232              		.cfi_offset 5, -12
 2233              		.cfi_offset 6, -8
 2234              		.cfi_offset 14, -4
 2235 0002 0446     		mov	r4, r0
 2236 0004 0D46     		mov	r5, r1
 177:/mnt/c/Users/31740/Documents/codes/newcore-rp2350/lib/fdt/fdt_rw.c **** 
 2237              		.loc 1 177 2 is_stmt 1 view .LVU769
 2238              	.LVL201:
 2239              	.LBB380:
 2240              	.LBI380:
  53:/mnt/c/Users/31740/Documents/codes/newcore-rp2350/lib/fdt/libfdt_internal.h **** {
 2241              		.loc 2 53 41 view .LVU770
 2242              	.LBB381:
 2243              		.loc 2 55 2 view .LVU771
 2244              		.loc 2 55 28 is_stmt 0 view .LVU772
 2245 0006 FFF7FEFF 		bl	fdt_mem_rsv_
 2246              	.LVL202:
 2247              		.loc 2 55 28 view .LVU773
 2248 000a 0646     		mov	r6, r0
 2249              	.LVL203:
 2250              		.loc 2 55 28 view .LVU774
 2251              	.LBE381:
 2252              	.LBE380:
 2253              	.LBB382:
 179:/mnt/c/Users/31740/Documents/codes/newcore-rp2350/lib/fdt/fdt_rw.c **** 
 2254              		.loc 1 179 2 is_stmt 1 view .LVU775
 179:/mnt/c/Users/31740/Documents/codes/newcore-rp2350/lib/fdt/fdt_rw.c **** 
 2255              		.loc 1 179 2 view .LVU776
 2256 000c 2046     		mov	r0, r4
 2257              	.LVL204:
 179:/mnt/c/Users/31740/Documents/codes/newcore-rp2350/lib/fdt/fdt_rw.c **** 
 2258              		.loc 1 179 2 is_stmt 0 view .LVU777
 2259 000e FFF7FEFF 		bl	fdt_rw_probe_
 2260              	.LVL205:
 179:/mnt/c/Users/31740/Documents/codes/newcore-rp2350/lib/fdt/fdt_rw.c **** 
 2261              		.loc 1 179 2 discriminator 1 view .LVU778
 2262 0012 00B1     		cbz	r0, .L64
 2263              	.L60:
 2264              	.LBE382:
 185:/mnt/c/Users/31740/Documents/codes/newcore-rp2350/lib/fdt/fdt_rw.c **** 
 2265              		.loc 1 185 1 view .LVU779
 2266 0014 70BD     		pop	{r4, r5, r6, pc}
 2267              	.LVL206:
 2268              	.L64:
 179:/mnt/c/Users/31740/Documents/codes/newcore-rp2350/lib/fdt/fdt_rw.c **** 
 2269              		.loc 1 179 19 is_stmt 1 discriminator 2 view .LVU780
 181:/mnt/c/Users/31740/Documents/codes/newcore-rp2350/lib/fdt/fdt_rw.c **** 		return -FDT_ERR_NOTFOUND;
ARM GAS  /tmp/ccyijaMA.s 			page 72


 2270              		.loc 1 181 2 view .LVU781
 181:/mnt/c/Users/31740/Documents/codes/newcore-rp2350/lib/fdt/fdt_rw.c **** 		return -FDT_ERR_NOTFOUND;
 2271              		.loc 1 181 11 is_stmt 0 view .LVU782
 2272 0016 2046     		mov	r0, r4
 2273 0018 FFF7FEFF 		bl	fdt_num_mem_rsv
 2274              	.LVL207:
 181:/mnt/c/Users/31740/Documents/codes/newcore-rp2350/lib/fdt/fdt_rw.c **** 		return -FDT_ERR_NOTFOUND;
 2275              		.loc 1 181 5 discriminator 1 view .LVU783
 2276 001c A842     		cmp	r0, r5
 2277 001e 06DD     		ble	.L62
 184:/mnt/c/Users/31740/Documents/codes/newcore-rp2350/lib/fdt/fdt_rw.c **** }
 2278              		.loc 1 184 2 is_stmt 1 view .LVU784
 184:/mnt/c/Users/31740/Documents/codes/newcore-rp2350/lib/fdt/fdt_rw.c **** }
 2279              		.loc 1 184 9 is_stmt 0 view .LVU785
 2280 0020 0023     		movs	r3, #0
 2281 0022 0122     		movs	r2, #1
 2282 0024 3146     		mov	r1, r6
 2283 0026 2046     		mov	r0, r4
 2284 0028 FFF7FEFF 		bl	fdt_splice_mem_rsv_
 2285              	.LVL208:
 2286 002c F2E7     		b	.L60
 2287              	.L62:
 182:/mnt/c/Users/31740/Documents/codes/newcore-rp2350/lib/fdt/fdt_rw.c **** 
 2288              		.loc 1 182 10 view .LVU786
 2289 002e 4FF0FF30 		mov	r0, #-1
 2290 0032 EFE7     		b	.L60
 2291              		.cfi_endproc
 2292              	.LFE85:
 2294              		.section	.text.fdt_set_name,"ax",%progbits
 2295              		.align	1
 2296              		.global	fdt_set_name
 2297              		.syntax unified
 2298              		.thumb
 2299              		.thumb_func
 2301              	fdt_set_name:
 2302              	.LVL209:
 2303              	.LFB88:
 241:/mnt/c/Users/31740/Documents/codes/newcore-rp2350/lib/fdt/fdt_rw.c **** 	char *namep;
 2304              		.loc 1 241 1 is_stmt 1 view -0
 2305              		.cfi_startproc
 2306              		@ args = 0, pretend = 0, frame = 8
 2307              		@ frame_needed = 0, uses_anonymous_args = 0
 241:/mnt/c/Users/31740/Documents/codes/newcore-rp2350/lib/fdt/fdt_rw.c **** 	char *namep;
 2308              		.loc 1 241 1 is_stmt 0 view .LVU788
 2309 0000 2DE9F041 		push	{r4, r5, r6, r7, r8, lr}
 2310              	.LCFI23:
 2311              		.cfi_def_cfa_offset 24
 2312              		.cfi_offset 4, -24
 2313              		.cfi_offset 5, -20
 2314              		.cfi_offset 6, -16
 2315              		.cfi_offset 7, -12
 2316              		.cfi_offset 8, -8
 2317              		.cfi_offset 14, -4
 2318 0004 82B0     		sub	sp, sp, #8
 2319              	.LCFI24:
 2320              		.cfi_def_cfa_offset 32
 2321 0006 0746     		mov	r7, r0
ARM GAS  /tmp/ccyijaMA.s 			page 73


 2322 0008 0C46     		mov	r4, r1
 2323 000a 1646     		mov	r6, r2
 242:/mnt/c/Users/31740/Documents/codes/newcore-rp2350/lib/fdt/fdt_rw.c **** 	int oldlen, newlen;
 2324              		.loc 1 242 2 is_stmt 1 view .LVU789
 243:/mnt/c/Users/31740/Documents/codes/newcore-rp2350/lib/fdt/fdt_rw.c **** 	int err;
 2325              		.loc 1 243 2 view .LVU790
 244:/mnt/c/Users/31740/Documents/codes/newcore-rp2350/lib/fdt/fdt_rw.c **** 
 2326              		.loc 1 244 2 view .LVU791
 2327              	.LBB383:
 246:/mnt/c/Users/31740/Documents/codes/newcore-rp2350/lib/fdt/fdt_rw.c **** 
 2328              		.loc 1 246 2 view .LVU792
 246:/mnt/c/Users/31740/Documents/codes/newcore-rp2350/lib/fdt/fdt_rw.c **** 
 2329              		.loc 1 246 2 view .LVU793
 2330 000c FFF7FEFF 		bl	fdt_rw_probe_
 2331              	.LVL210:
 246:/mnt/c/Users/31740/Documents/codes/newcore-rp2350/lib/fdt/fdt_rw.c **** 
 2332              		.loc 1 246 2 is_stmt 0 discriminator 1 view .LVU794
 2333 0010 0546     		mov	r5, r0
 2334 0012 18B1     		cbz	r0, .L69
 2335              	.LVL211:
 2336              	.L65:
 246:/mnt/c/Users/31740/Documents/codes/newcore-rp2350/lib/fdt/fdt_rw.c **** 
 2337              		.loc 1 246 2 discriminator 1 view .LVU795
 2338              	.LBE383:
 261:/mnt/c/Users/31740/Documents/codes/newcore-rp2350/lib/fdt/fdt_rw.c **** 
 2339              		.loc 1 261 1 view .LVU796
 2340 0014 2846     		mov	r0, r5
 2341 0016 02B0     		add	sp, sp, #8
 2342              	.LCFI25:
 2343              		.cfi_remember_state
 2344              		.cfi_def_cfa_offset 24
 2345              		@ sp needed
 2346 0018 BDE8F081 		pop	{r4, r5, r6, r7, r8, pc}
 2347              	.LVL212:
 2348              	.L69:
 2349              	.LCFI26:
 2350              		.cfi_restore_state
 246:/mnt/c/Users/31740/Documents/codes/newcore-rp2350/lib/fdt/fdt_rw.c **** 
 2351              		.loc 1 246 19 is_stmt 1 discriminator 2 view .LVU797
 248:/mnt/c/Users/31740/Documents/codes/newcore-rp2350/lib/fdt/fdt_rw.c **** 	if (!namep)
 2352              		.loc 1 248 2 view .LVU798
 248:/mnt/c/Users/31740/Documents/codes/newcore-rp2350/lib/fdt/fdt_rw.c **** 	if (!namep)
 2353              		.loc 1 248 29 is_stmt 0 view .LVU799
 2354 001c 01AA     		add	r2, sp, #4
 2355 001e 2146     		mov	r1, r4
 2356 0020 3846     		mov	r0, r7
 2357              	.LVL213:
 248:/mnt/c/Users/31740/Documents/codes/newcore-rp2350/lib/fdt/fdt_rw.c **** 	if (!namep)
 2358              		.loc 1 248 29 view .LVU800
 2359 0022 FFF7FEFF 		bl	fdt_get_name
 2360              	.LVL214:
 249:/mnt/c/Users/31740/Documents/codes/newcore-rp2350/lib/fdt/fdt_rw.c **** 		return oldlen;
 2361              		.loc 1 249 2 is_stmt 1 view .LVU801
 249:/mnt/c/Users/31740/Documents/codes/newcore-rp2350/lib/fdt/fdt_rw.c **** 		return oldlen;
 2362              		.loc 1 249 5 is_stmt 0 view .LVU802
 2363 0026 8046     		mov	r8, r0
 2364 0028 B8B1     		cbz	r0, .L70
ARM GAS  /tmp/ccyijaMA.s 			page 74


 252:/mnt/c/Users/31740/Documents/codes/newcore-rp2350/lib/fdt/fdt_rw.c **** 
 2365              		.loc 1 252 2 is_stmt 1 view .LVU803
 252:/mnt/c/Users/31740/Documents/codes/newcore-rp2350/lib/fdt/fdt_rw.c **** 
 2366              		.loc 1 252 11 is_stmt 0 view .LVU804
 2367 002a 3046     		mov	r0, r6
 2368              	.LVL215:
 252:/mnt/c/Users/31740/Documents/codes/newcore-rp2350/lib/fdt/fdt_rw.c **** 
 2369              		.loc 1 252 11 view .LVU805
 2370 002c FFF7FEFF 		bl	strlen
 2371              	.LVL216:
 2372 0030 0446     		mov	r4, r0
 2373              	.LVL217:
 254:/mnt/c/Users/31740/Documents/codes/newcore-rp2350/lib/fdt/fdt_rw.c **** 				 FDT_TAGALIGN(newlen+1));
 2374              		.loc 1 254 2 is_stmt 1 view .LVU806
 254:/mnt/c/Users/31740/Documents/codes/newcore-rp2350/lib/fdt/fdt_rw.c **** 				 FDT_TAGALIGN(newlen+1));
 2375              		.loc 1 254 39 is_stmt 0 view .LVU807
 2376 0032 019A     		ldr	r2, [sp, #4]
 2377 0034 0432     		adds	r2, r2, #4
 255:/mnt/c/Users/31740/Documents/codes/newcore-rp2350/lib/fdt/fdt_rw.c **** 	if (err)
 2378              		.loc 1 255 6 view .LVU808
 2379 0036 031D     		adds	r3, r0, #4
 254:/mnt/c/Users/31740/Documents/codes/newcore-rp2350/lib/fdt/fdt_rw.c **** 				 FDT_TAGALIGN(newlen+1));
 2380              		.loc 1 254 8 view .LVU809
 2381 0038 23F00303 		bic	r3, r3, #3
 2382 003c 22F00302 		bic	r2, r2, #3
 2383 0040 4146     		mov	r1, r8
 2384 0042 3846     		mov	r0, r7
 2385              	.LVL218:
 254:/mnt/c/Users/31740/Documents/codes/newcore-rp2350/lib/fdt/fdt_rw.c **** 				 FDT_TAGALIGN(newlen+1));
 2386              		.loc 1 254 8 view .LVU810
 2387 0044 FFF7FEFF 		bl	fdt_splice_struct_
 2388              	.LVL219:
 256:/mnt/c/Users/31740/Documents/codes/newcore-rp2350/lib/fdt/fdt_rw.c **** 		return err;
 2389              		.loc 1 256 2 is_stmt 1 view .LVU811
 256:/mnt/c/Users/31740/Documents/codes/newcore-rp2350/lib/fdt/fdt_rw.c **** 		return err;
 2390              		.loc 1 256 5 is_stmt 0 view .LVU812
 2391 0048 0546     		mov	r5, r0
 2392              	.LVL220:
 256:/mnt/c/Users/31740/Documents/codes/newcore-rp2350/lib/fdt/fdt_rw.c **** 		return err;
 2393              		.loc 1 256 5 view .LVU813
 2394 004a 0028     		cmp	r0, #0
 2395 004c E2D1     		bne	.L65
 259:/mnt/c/Users/31740/Documents/codes/newcore-rp2350/lib/fdt/fdt_rw.c **** 	return 0;
 2396              		.loc 1 259 2 is_stmt 1 view .LVU814
 2397 004e 621C     		adds	r2, r4, #1
 2398 0050 3146     		mov	r1, r6
 2399 0052 4046     		mov	r0, r8
 2400              	.LVL221:
 259:/mnt/c/Users/31740/Documents/codes/newcore-rp2350/lib/fdt/fdt_rw.c **** 	return 0;
 2401              		.loc 1 259 2 is_stmt 0 view .LVU815
 2402 0054 FFF7FEFF 		bl	memcpy
 2403              	.LVL222:
 260:/mnt/c/Users/31740/Documents/codes/newcore-rp2350/lib/fdt/fdt_rw.c **** }
 2404              		.loc 1 260 2 is_stmt 1 view .LVU816
 260:/mnt/c/Users/31740/Documents/codes/newcore-rp2350/lib/fdt/fdt_rw.c **** }
 2405              		.loc 1 260 9 is_stmt 0 view .LVU817
 2406 0058 DCE7     		b	.L65
ARM GAS  /tmp/ccyijaMA.s 			page 75


 2407              	.LVL223:
 2408              	.L70:
 250:/mnt/c/Users/31740/Documents/codes/newcore-rp2350/lib/fdt/fdt_rw.c **** 
 2409              		.loc 1 250 3 is_stmt 1 view .LVU818
 250:/mnt/c/Users/31740/Documents/codes/newcore-rp2350/lib/fdt/fdt_rw.c **** 
 2410              		.loc 1 250 10 is_stmt 0 view .LVU819
 2411 005a 019D     		ldr	r5, [sp, #4]
 2412              	.LVL224:
 250:/mnt/c/Users/31740/Documents/codes/newcore-rp2350/lib/fdt/fdt_rw.c **** 
 2413              		.loc 1 250 10 view .LVU820
 2414 005c DAE7     		b	.L65
 2415              		.cfi_endproc
 2416              	.LFE88:
 2418              		.section	.text.fdt_setprop_placeholder_namelen,"ax",%progbits
 2419              		.align	1
 2420              		.global	fdt_setprop_placeholder_namelen
 2421              		.syntax unified
 2422              		.thumb
 2423              		.thumb_func
 2425              	fdt_setprop_placeholder_namelen:
 2426              	.LVL225:
 2427              	.LFB89:
 265:/mnt/c/Users/31740/Documents/codes/newcore-rp2350/lib/fdt/fdt_rw.c **** 	struct fdt_property *prop;
 2428              		.loc 1 265 1 is_stmt 1 view -0
 2429              		.cfi_startproc
 2430              		@ args = 8, pretend = 0, frame = 8
 2431              		@ frame_needed = 0, uses_anonymous_args = 0
 265:/mnt/c/Users/31740/Documents/codes/newcore-rp2350/lib/fdt/fdt_rw.c **** 	struct fdt_property *prop;
 2432              		.loc 1 265 1 is_stmt 0 view .LVU822
 2433 0000 F0B5     		push	{r4, r5, r6, r7, lr}
 2434              	.LCFI27:
 2435              		.cfi_def_cfa_offset 20
 2436              		.cfi_offset 4, -20
 2437              		.cfi_offset 5, -16
 2438              		.cfi_offset 6, -12
 2439              		.cfi_offset 7, -8
 2440              		.cfi_offset 14, -4
 2441 0002 85B0     		sub	sp, sp, #20
 2442              	.LCFI28:
 2443              		.cfi_def_cfa_offset 40
 2444 0004 0446     		mov	r4, r0
 2445 0006 0D46     		mov	r5, r1
 2446 0008 1746     		mov	r7, r2
 2447 000a 1E46     		mov	r6, r3
 266:/mnt/c/Users/31740/Documents/codes/newcore-rp2350/lib/fdt/fdt_rw.c **** 	int err;
 2448              		.loc 1 266 2 is_stmt 1 view .LVU823
 267:/mnt/c/Users/31740/Documents/codes/newcore-rp2350/lib/fdt/fdt_rw.c **** 
 2449              		.loc 1 267 2 view .LVU824
 2450              	.LBB384:
 269:/mnt/c/Users/31740/Documents/codes/newcore-rp2350/lib/fdt/fdt_rw.c **** 
 2451              		.loc 1 269 2 view .LVU825
 269:/mnt/c/Users/31740/Documents/codes/newcore-rp2350/lib/fdt/fdt_rw.c **** 
 2452              		.loc 1 269 2 view .LVU826
 2453 000c FFF7FEFF 		bl	fdt_rw_probe_
 2454              	.LVL226:
 269:/mnt/c/Users/31740/Documents/codes/newcore-rp2350/lib/fdt/fdt_rw.c **** 
 2455              		.loc 1 269 2 is_stmt 0 discriminator 1 view .LVU827
ARM GAS  /tmp/ccyijaMA.s 			page 76


 2456 0010 08B1     		cbz	r0, .L75
 2457              	.L71:
 2458              	.LBE384:
 280:/mnt/c/Users/31740/Documents/codes/newcore-rp2350/lib/fdt/fdt_rw.c **** 
 2459              		.loc 1 280 1 view .LVU828
 2460 0012 05B0     		add	sp, sp, #20
 2461              	.LCFI29:
 2462              		.cfi_remember_state
 2463              		.cfi_def_cfa_offset 20
 2464              		@ sp needed
 2465 0014 F0BD     		pop	{r4, r5, r6, r7, pc}
 2466              	.LVL227:
 2467              	.L75:
 2468              	.LCFI30:
 2469              		.cfi_restore_state
 269:/mnt/c/Users/31740/Documents/codes/newcore-rp2350/lib/fdt/fdt_rw.c **** 
 2470              		.loc 1 269 19 is_stmt 1 discriminator 2 view .LVU829
 271:/mnt/c/Users/31740/Documents/codes/newcore-rp2350/lib/fdt/fdt_rw.c **** 	if (err == -FDT_ERR_NOTFOUND)
 2471              		.loc 1 271 2 view .LVU830
 271:/mnt/c/Users/31740/Documents/codes/newcore-rp2350/lib/fdt/fdt_rw.c **** 	if (err == -FDT_ERR_NOTFOUND)
 2472              		.loc 1 271 8 is_stmt 0 view .LVU831
 2473 0016 03AB     		add	r3, sp, #12
 2474 0018 0193     		str	r3, [sp, #4]
 2475 001a 0A9B     		ldr	r3, [sp, #40]
 2476 001c 0093     		str	r3, [sp]
 2477 001e 3346     		mov	r3, r6
 2478 0020 3A46     		mov	r2, r7
 2479 0022 2946     		mov	r1, r5
 2480 0024 2046     		mov	r0, r4
 2481 0026 FFF7FEFF 		bl	fdt_resize_property_
 2482              	.LVL228:
 272:/mnt/c/Users/31740/Documents/codes/newcore-rp2350/lib/fdt/fdt_rw.c **** 		err = fdt_add_property_(fdt, nodeoffset, name, namelen, len,
 2483              		.loc 1 272 2 is_stmt 1 view .LVU832
 272:/mnt/c/Users/31740/Documents/codes/newcore-rp2350/lib/fdt/fdt_rw.c **** 		err = fdt_add_property_(fdt, nodeoffset, name, namelen, len,
 2484              		.loc 1 272 5 is_stmt 0 view .LVU833
 2485 002a B0F1FF3F 		cmp	r0, #-1
 2486 002e 06D0     		beq	.L76
 2487              	.L73:
 275:/mnt/c/Users/31740/Documents/codes/newcore-rp2350/lib/fdt/fdt_rw.c **** 		return err;
 2488              		.loc 1 275 2 is_stmt 1 view .LVU834
 275:/mnt/c/Users/31740/Documents/codes/newcore-rp2350/lib/fdt/fdt_rw.c **** 		return err;
 2489              		.loc 1 275 5 is_stmt 0 view .LVU835
 2490 0030 0028     		cmp	r0, #0
 2491 0032 EED1     		bne	.L71
 278:/mnt/c/Users/31740/Documents/codes/newcore-rp2350/lib/fdt/fdt_rw.c **** 	return 0;
 2492              		.loc 1 278 2 is_stmt 1 view .LVU836
 278:/mnt/c/Users/31740/Documents/codes/newcore-rp2350/lib/fdt/fdt_rw.c **** 	return 0;
 2493              		.loc 1 278 19 is_stmt 0 view .LVU837
 2494 0034 039B     		ldr	r3, [sp, #12]
 278:/mnt/c/Users/31740/Documents/codes/newcore-rp2350/lib/fdt/fdt_rw.c **** 	return 0;
 2495              		.loc 1 278 15 view .LVU838
 2496 0036 0C33     		adds	r3, r3, #12
 278:/mnt/c/Users/31740/Documents/codes/newcore-rp2350/lib/fdt/fdt_rw.c **** 	return 0;
 2497              		.loc 1 278 13 view .LVU839
 2498 0038 0B9A     		ldr	r2, [sp, #44]
 2499 003a 1360     		str	r3, [r2]
 279:/mnt/c/Users/31740/Documents/codes/newcore-rp2350/lib/fdt/fdt_rw.c **** }
ARM GAS  /tmp/ccyijaMA.s 			page 77


 2500              		.loc 1 279 2 is_stmt 1 view .LVU840
 279:/mnt/c/Users/31740/Documents/codes/newcore-rp2350/lib/fdt/fdt_rw.c **** }
 2501              		.loc 1 279 9 is_stmt 0 view .LVU841
 2502 003c E9E7     		b	.L71
 2503              	.L76:
 273:/mnt/c/Users/31740/Documents/codes/newcore-rp2350/lib/fdt/fdt_rw.c **** 					&prop);
 2504              		.loc 1 273 3 is_stmt 1 view .LVU842
 273:/mnt/c/Users/31740/Documents/codes/newcore-rp2350/lib/fdt/fdt_rw.c **** 					&prop);
 2505              		.loc 1 273 9 is_stmt 0 view .LVU843
 2506 003e 03AB     		add	r3, sp, #12
 2507 0040 0193     		str	r3, [sp, #4]
 2508 0042 0A9B     		ldr	r3, [sp, #40]
 2509 0044 0093     		str	r3, [sp]
 2510 0046 3346     		mov	r3, r6
 2511 0048 3A46     		mov	r2, r7
 2512 004a 2946     		mov	r1, r5
 2513 004c 2046     		mov	r0, r4
 2514              	.LVL229:
 273:/mnt/c/Users/31740/Documents/codes/newcore-rp2350/lib/fdt/fdt_rw.c **** 					&prop);
 2515              		.loc 1 273 9 view .LVU844
 2516 004e FFF7FEFF 		bl	fdt_add_property_
 2517              	.LVL230:
 273:/mnt/c/Users/31740/Documents/codes/newcore-rp2350/lib/fdt/fdt_rw.c **** 					&prop);
 2518              		.loc 1 273 9 view .LVU845
 2519 0052 EDE7     		b	.L73
 2520              		.cfi_endproc
 2521              	.LFE89:
 2523              		.section	.text.fdt_setprop_namelen,"ax",%progbits
 2524              		.align	1
 2525              		.global	fdt_setprop_namelen
 2526              		.syntax unified
 2527              		.thumb
 2528              		.thumb_func
 2530              	fdt_setprop_namelen:
 2531              	.LVL231:
 2532              	.LFB90:
 284:/mnt/c/Users/31740/Documents/codes/newcore-rp2350/lib/fdt/fdt_rw.c **** 	void *prop_data;
 2533              		.loc 1 284 1 is_stmt 1 view -0
 2534              		.cfi_startproc
 2535              		@ args = 8, pretend = 0, frame = 8
 2536              		@ frame_needed = 0, uses_anonymous_args = 0
 284:/mnt/c/Users/31740/Documents/codes/newcore-rp2350/lib/fdt/fdt_rw.c **** 	void *prop_data;
 2537              		.loc 1 284 1 is_stmt 0 view .LVU847
 2538 0000 30B5     		push	{r4, r5, lr}
 2539              	.LCFI31:
 2540              		.cfi_def_cfa_offset 12
 2541              		.cfi_offset 4, -12
 2542              		.cfi_offset 5, -8
 2543              		.cfi_offset 14, -4
 2544 0002 85B0     		sub	sp, sp, #20
 2545              	.LCFI32:
 2546              		.cfi_def_cfa_offset 32
 2547 0004 099C     		ldr	r4, [sp, #36]
 285:/mnt/c/Users/31740/Documents/codes/newcore-rp2350/lib/fdt/fdt_rw.c **** 	int err;
 2548              		.loc 1 285 2 is_stmt 1 view .LVU848
 286:/mnt/c/Users/31740/Documents/codes/newcore-rp2350/lib/fdt/fdt_rw.c **** 
 2549              		.loc 1 286 2 view .LVU849
ARM GAS  /tmp/ccyijaMA.s 			page 78


 288:/mnt/c/Users/31740/Documents/codes/newcore-rp2350/lib/fdt/fdt_rw.c **** 					      len, &prop_data);
 2550              		.loc 1 288 2 view .LVU850
 288:/mnt/c/Users/31740/Documents/codes/newcore-rp2350/lib/fdt/fdt_rw.c **** 					      len, &prop_data);
 2551              		.loc 1 288 8 is_stmt 0 view .LVU851
 2552 0006 03AD     		add	r5, sp, #12
 2553 0008 0195     		str	r5, [sp, #4]
 2554 000a 0094     		str	r4, [sp]
 2555 000c FFF7FEFF 		bl	fdt_setprop_placeholder_namelen
 2556              	.LVL232:
 290:/mnt/c/Users/31740/Documents/codes/newcore-rp2350/lib/fdt/fdt_rw.c **** 		return err;
 2557              		.loc 1 290 2 is_stmt 1 view .LVU852
 290:/mnt/c/Users/31740/Documents/codes/newcore-rp2350/lib/fdt/fdt_rw.c **** 		return err;
 2558              		.loc 1 290 5 is_stmt 0 view .LVU853
 2559 0010 0546     		mov	r5, r0
 2560 0012 00B9     		cbnz	r0, .L77
 293:/mnt/c/Users/31740/Documents/codes/newcore-rp2350/lib/fdt/fdt_rw.c **** 		memcpy(prop_data, val, len);
 2561              		.loc 1 293 2 is_stmt 1 view .LVU854
 293:/mnt/c/Users/31740/Documents/codes/newcore-rp2350/lib/fdt/fdt_rw.c **** 		memcpy(prop_data, val, len);
 2562              		.loc 1 293 5 is_stmt 0 view .LVU855
 2563 0014 14B9     		cbnz	r4, .L80
 2564              	.LVL233:
 2565              	.L77:
 296:/mnt/c/Users/31740/Documents/codes/newcore-rp2350/lib/fdt/fdt_rw.c **** 
 2566              		.loc 1 296 1 view .LVU856
 2567 0016 2846     		mov	r0, r5
 2568 0018 05B0     		add	sp, sp, #20
 2569              	.LCFI33:
 2570              		.cfi_remember_state
 2571              		.cfi_def_cfa_offset 12
 2572              		@ sp needed
 2573 001a 30BD     		pop	{r4, r5, pc}
 2574              	.LVL234:
 2575              	.L80:
 2576              	.LCFI34:
 2577              		.cfi_restore_state
 294:/mnt/c/Users/31740/Documents/codes/newcore-rp2350/lib/fdt/fdt_rw.c **** 	return 0;
 2578              		.loc 1 294 3 is_stmt 1 view .LVU857
 2579 001c 2246     		mov	r2, r4
 2580 001e 0899     		ldr	r1, [sp, #32]
 2581 0020 0398     		ldr	r0, [sp, #12]
 2582              	.LVL235:
 294:/mnt/c/Users/31740/Documents/codes/newcore-rp2350/lib/fdt/fdt_rw.c **** 	return 0;
 2583              		.loc 1 294 3 is_stmt 0 view .LVU858
 2584 0022 FFF7FEFF 		bl	memcpy
 2585              	.LVL236:
 2586 0026 F6E7     		b	.L77
 2587              		.cfi_endproc
 2588              	.LFE90:
 2590              		.section	.text.fdt_appendprop,"ax",%progbits
 2591              		.align	1
 2592              		.global	fdt_appendprop
 2593              		.syntax unified
 2594              		.thumb
 2595              		.thumb_func
 2597              	fdt_appendprop:
 2598              	.LVL237:
 2599              	.LFB91:
ARM GAS  /tmp/ccyijaMA.s 			page 79


 300:/mnt/c/Users/31740/Documents/codes/newcore-rp2350/lib/fdt/fdt_rw.c **** 	struct fdt_property *prop;
 2600              		.loc 1 300 1 is_stmt 1 view -0
 2601              		.cfi_startproc
 2602              		@ args = 4, pretend = 0, frame = 8
 2603              		@ frame_needed = 0, uses_anonymous_args = 0
 300:/mnt/c/Users/31740/Documents/codes/newcore-rp2350/lib/fdt/fdt_rw.c **** 	struct fdt_property *prop;
 2604              		.loc 1 300 1 is_stmt 0 view .LVU860
 2605 0000 2DE9F041 		push	{r4, r5, r6, r7, r8, lr}
 2606              	.LCFI35:
 2607              		.cfi_def_cfa_offset 24
 2608              		.cfi_offset 4, -24
 2609              		.cfi_offset 5, -20
 2610              		.cfi_offset 6, -16
 2611              		.cfi_offset 7, -12
 2612              		.cfi_offset 8, -8
 2613              		.cfi_offset 14, -4
 2614 0004 84B0     		sub	sp, sp, #16
 2615              	.LCFI36:
 2616              		.cfi_def_cfa_offset 40
 2617 0006 0446     		mov	r4, r0
 2618 0008 0E46     		mov	r6, r1
 2619 000a 1546     		mov	r5, r2
 2620 000c 9846     		mov	r8, r3
 301:/mnt/c/Users/31740/Documents/codes/newcore-rp2350/lib/fdt/fdt_rw.c **** 	int err, oldlen, newlen;
 2621              		.loc 1 301 2 is_stmt 1 view .LVU861
 302:/mnt/c/Users/31740/Documents/codes/newcore-rp2350/lib/fdt/fdt_rw.c **** 
 2622              		.loc 1 302 2 view .LVU862
 2623              	.LBB385:
 304:/mnt/c/Users/31740/Documents/codes/newcore-rp2350/lib/fdt/fdt_rw.c **** 
 2624              		.loc 1 304 2 view .LVU863
 304:/mnt/c/Users/31740/Documents/codes/newcore-rp2350/lib/fdt/fdt_rw.c **** 
 2625              		.loc 1 304 2 view .LVU864
 2626 000e FFF7FEFF 		bl	fdt_rw_probe_
 2627              	.LVL238:
 304:/mnt/c/Users/31740/Documents/codes/newcore-rp2350/lib/fdt/fdt_rw.c **** 
 2628              		.loc 1 304 2 is_stmt 0 discriminator 1 view .LVU865
 2629 0012 0746     		mov	r7, r0
 2630 0014 18B1     		cbz	r0, .L85
 2631              	.LVL239:
 2632              	.L81:
 304:/mnt/c/Users/31740/Documents/codes/newcore-rp2350/lib/fdt/fdt_rw.c **** 
 2633              		.loc 1 304 2 discriminator 1 view .LVU866
 2634              	.LBE385:
 324:/mnt/c/Users/31740/Documents/codes/newcore-rp2350/lib/fdt/fdt_rw.c **** 
 2635              		.loc 1 324 1 view .LVU867
 2636 0016 3846     		mov	r0, r7
 2637 0018 04B0     		add	sp, sp, #16
 2638              	.LCFI37:
 2639              		.cfi_remember_state
 2640              		.cfi_def_cfa_offset 24
 2641              		@ sp needed
 2642 001a BDE8F081 		pop	{r4, r5, r6, r7, r8, pc}
 2643              	.LVL240:
 2644              	.L85:
 2645              	.LCFI38:
 2646              		.cfi_restore_state
 304:/mnt/c/Users/31740/Documents/codes/newcore-rp2350/lib/fdt/fdt_rw.c **** 
ARM GAS  /tmp/ccyijaMA.s 			page 80


 2647              		.loc 1 304 19 is_stmt 1 discriminator 2 view .LVU868
 306:/mnt/c/Users/31740/Documents/codes/newcore-rp2350/lib/fdt/fdt_rw.c **** 	if (prop) {
 2648              		.loc 1 306 2 view .LVU869
 2649              	.LBB386:
 2650              	.LBI386:
 724:/mnt/c/Users/31740/Documents/codes/newcore-rp2350/include/linux/libfdt.h **** 		fdt, nodeoffset, name, namelen, lenp);
 725:/mnt/c/Users/31740/Documents/codes/newcore-rp2350/include/linux/libfdt.h **** }
 726:/mnt/c/Users/31740/Documents/codes/newcore-rp2350/include/linux/libfdt.h **** #endif
 727:/mnt/c/Users/31740/Documents/codes/newcore-rp2350/include/linux/libfdt.h **** 
 728:/mnt/c/Users/31740/Documents/codes/newcore-rp2350/include/linux/libfdt.h **** /**
 729:/mnt/c/Users/31740/Documents/codes/newcore-rp2350/include/linux/libfdt.h ****  * fdt_get_property - find a given property in a given node
 730:/mnt/c/Users/31740/Documents/codes/newcore-rp2350/include/linux/libfdt.h ****  * @fdt: pointer to the device tree blob
 731:/mnt/c/Users/31740/Documents/codes/newcore-rp2350/include/linux/libfdt.h ****  * @nodeoffset: offset of the node whose property to find
 732:/mnt/c/Users/31740/Documents/codes/newcore-rp2350/include/linux/libfdt.h ****  * @name: name of the property to find
 733:/mnt/c/Users/31740/Documents/codes/newcore-rp2350/include/linux/libfdt.h ****  * @lenp: pointer to an integer variable (will be overwritten) or NULL
 734:/mnt/c/Users/31740/Documents/codes/newcore-rp2350/include/linux/libfdt.h ****  *
 735:/mnt/c/Users/31740/Documents/codes/newcore-rp2350/include/linux/libfdt.h ****  * fdt_get_property() retrieves a pointer to the fdt_property
 736:/mnt/c/Users/31740/Documents/codes/newcore-rp2350/include/linux/libfdt.h ****  * structure within the device tree blob corresponding to the property
 737:/mnt/c/Users/31740/Documents/codes/newcore-rp2350/include/linux/libfdt.h ****  * named 'name' of the node at offset nodeoffset.  If lenp is
 738:/mnt/c/Users/31740/Documents/codes/newcore-rp2350/include/linux/libfdt.h ****  * non-NULL, the length of the property value is also returned, in the
 739:/mnt/c/Users/31740/Documents/codes/newcore-rp2350/include/linux/libfdt.h ****  * integer pointed to by lenp.
 740:/mnt/c/Users/31740/Documents/codes/newcore-rp2350/include/linux/libfdt.h ****  *
 741:/mnt/c/Users/31740/Documents/codes/newcore-rp2350/include/linux/libfdt.h ****  * returns:
 742:/mnt/c/Users/31740/Documents/codes/newcore-rp2350/include/linux/libfdt.h ****  *	pointer to the structure representing the property
 743:/mnt/c/Users/31740/Documents/codes/newcore-rp2350/include/linux/libfdt.h ****  *		if lenp is non-NULL, *lenp contains the length of the property
 744:/mnt/c/Users/31740/Documents/codes/newcore-rp2350/include/linux/libfdt.h ****  *		value (>=0)
 745:/mnt/c/Users/31740/Documents/codes/newcore-rp2350/include/linux/libfdt.h ****  *	NULL, on error
 746:/mnt/c/Users/31740/Documents/codes/newcore-rp2350/include/linux/libfdt.h ****  *		if lenp is non-NULL, *lenp contains an error code (<0):
 747:/mnt/c/Users/31740/Documents/codes/newcore-rp2350/include/linux/libfdt.h ****  *		-FDT_ERR_NOTFOUND, node does not have named property
 748:/mnt/c/Users/31740/Documents/codes/newcore-rp2350/include/linux/libfdt.h ****  *		-FDT_ERR_BADOFFSET, nodeoffset did not point to FDT_BEGIN_NODE
 749:/mnt/c/Users/31740/Documents/codes/newcore-rp2350/include/linux/libfdt.h ****  *			tag
 750:/mnt/c/Users/31740/Documents/codes/newcore-rp2350/include/linux/libfdt.h ****  *		-FDT_ERR_BADMAGIC,
 751:/mnt/c/Users/31740/Documents/codes/newcore-rp2350/include/linux/libfdt.h ****  *		-FDT_ERR_BADVERSION,
 752:/mnt/c/Users/31740/Documents/codes/newcore-rp2350/include/linux/libfdt.h ****  *		-FDT_ERR_BADSTATE,
 753:/mnt/c/Users/31740/Documents/codes/newcore-rp2350/include/linux/libfdt.h ****  *		-FDT_ERR_BADSTRUCTURE,
 754:/mnt/c/Users/31740/Documents/codes/newcore-rp2350/include/linux/libfdt.h ****  *		-FDT_ERR_TRUNCATED, standard meanings
 755:/mnt/c/Users/31740/Documents/codes/newcore-rp2350/include/linux/libfdt.h ****  */
 756:/mnt/c/Users/31740/Documents/codes/newcore-rp2350/include/linux/libfdt.h **** const struct fdt_property *fdt_get_property(const void *fdt, int nodeoffset,
 757:/mnt/c/Users/31740/Documents/codes/newcore-rp2350/include/linux/libfdt.h **** 					    const char *name, int *lenp);
 758:/mnt/c/Users/31740/Documents/codes/newcore-rp2350/include/linux/libfdt.h **** static inline struct fdt_property *fdt_get_property_w(void *fdt, int nodeoffset,
 2651              		.loc 3 758 36 view .LVU870
 2652              	.LBB387:
 759:/mnt/c/Users/31740/Documents/codes/newcore-rp2350/include/linux/libfdt.h **** 						      const char *name,
 760:/mnt/c/Users/31740/Documents/codes/newcore-rp2350/include/linux/libfdt.h **** 						      int *lenp)
 761:/mnt/c/Users/31740/Documents/codes/newcore-rp2350/include/linux/libfdt.h **** {
 762:/mnt/c/Users/31740/Documents/codes/newcore-rp2350/include/linux/libfdt.h **** 	return (struct fdt_property *)(uintptr_t)
 2653              		.loc 3 762 2 view .LVU871
 763:/mnt/c/Users/31740/Documents/codes/newcore-rp2350/include/linux/libfdt.h **** 		fdt_get_property(fdt, nodeoffset, name, lenp);
 2654              		.loc 3 763 3 is_stmt 0 view .LVU872
 2655 001e 02AB     		add	r3, sp, #8
 2656              	.LVL241:
 2657              		.loc 3 763 3 view .LVU873
 2658 0020 2A46     		mov	r2, r5
 2659 0022 3146     		mov	r1, r6
 2660 0024 2046     		mov	r0, r4
 2661              	.LVL242:
 2662              		.loc 3 763 3 view .LVU874
ARM GAS  /tmp/ccyijaMA.s 			page 81


 2663 0026 FFF7FEFF 		bl	fdt_get_property
 2664              	.LVL243:
 2665              		.loc 3 763 3 view .LVU875
 2666              	.LBE387:
 2667              	.LBE386:
 306:/mnt/c/Users/31740/Documents/codes/newcore-rp2350/lib/fdt/fdt_rw.c **** 	if (prop) {
 2668              		.loc 1 306 7 discriminator 1 view .LVU876
 2669 002a 0390     		str	r0, [sp, #12]
 307:/mnt/c/Users/31740/Documents/codes/newcore-rp2350/lib/fdt/fdt_rw.c **** 		newlen = len + oldlen;
 2670              		.loc 1 307 2 is_stmt 1 view .LVU877
 307:/mnt/c/Users/31740/Documents/codes/newcore-rp2350/lib/fdt/fdt_rw.c **** 		newlen = len + oldlen;
 2671              		.loc 1 307 5 is_stmt 0 view .LVU878
 2672 002c 28B3     		cbz	r0, .L83
 308:/mnt/c/Users/31740/Documents/codes/newcore-rp2350/lib/fdt/fdt_rw.c **** 		err = fdt_splice_struct_(fdt, prop->data,
 2673              		.loc 1 308 3 is_stmt 1 view .LVU879
 308:/mnt/c/Users/31740/Documents/codes/newcore-rp2350/lib/fdt/fdt_rw.c **** 		err = fdt_splice_struct_(fdt, prop->data,
 2674              		.loc 1 308 16 is_stmt 0 view .LVU880
 2675 002e 029A     		ldr	r2, [sp, #8]
 308:/mnt/c/Users/31740/Documents/codes/newcore-rp2350/lib/fdt/fdt_rw.c **** 		err = fdt_splice_struct_(fdt, prop->data,
 2676              		.loc 1 308 10 view .LVU881
 2677 0030 0A9B     		ldr	r3, [sp, #40]
 2678 0032 D518     		adds	r5, r2, r3
 2679              	.LVL244:
 309:/mnt/c/Users/31740/Documents/codes/newcore-rp2350/lib/fdt/fdt_rw.c **** 					 FDT_TAGALIGN(oldlen),
 2680              		.loc 1 309 3 is_stmt 1 view .LVU882
 310:/mnt/c/Users/31740/Documents/codes/newcore-rp2350/lib/fdt/fdt_rw.c **** 					 FDT_TAGALIGN(newlen));
 2681              		.loc 1 310 7 is_stmt 0 view .LVU883
 2682 0034 0332     		adds	r2, r2, #3
 311:/mnt/c/Users/31740/Documents/codes/newcore-rp2350/lib/fdt/fdt_rw.c **** 		if (err)
 2683              		.loc 1 311 7 view .LVU884
 2684 0036 EB1C     		adds	r3, r5, #3
 309:/mnt/c/Users/31740/Documents/codes/newcore-rp2350/lib/fdt/fdt_rw.c **** 					 FDT_TAGALIGN(oldlen),
 2685              		.loc 1 309 9 view .LVU885
 2686 0038 23F00303 		bic	r3, r3, #3
 2687 003c 22F00302 		bic	r2, r2, #3
 2688 0040 00F10C01 		add	r1, r0, #12
 2689 0044 2046     		mov	r0, r4
 2690 0046 FFF7FEFF 		bl	fdt_splice_struct_
 2691              	.LVL245:
 312:/mnt/c/Users/31740/Documents/codes/newcore-rp2350/lib/fdt/fdt_rw.c **** 			return err;
 2692              		.loc 1 312 3 is_stmt 1 view .LVU886
 312:/mnt/c/Users/31740/Documents/codes/newcore-rp2350/lib/fdt/fdt_rw.c **** 			return err;
 2693              		.loc 1 312 6 is_stmt 0 view .LVU887
 2694 004a 0746     		mov	r7, r0
 2695              	.LVL246:
 312:/mnt/c/Users/31740/Documents/codes/newcore-rp2350/lib/fdt/fdt_rw.c **** 			return err;
 2696              		.loc 1 312 6 view .LVU888
 2697 004c 0028     		cmp	r0, #0
 2698 004e E2D1     		bne	.L81
 314:/mnt/c/Users/31740/Documents/codes/newcore-rp2350/lib/fdt/fdt_rw.c **** 		memcpy(prop->data + oldlen, val, len);
 2699              		.loc 1 314 3 is_stmt 1 view .LVU889
 314:/mnt/c/Users/31740/Documents/codes/newcore-rp2350/lib/fdt/fdt_rw.c **** 		memcpy(prop->data + oldlen, val, len);
 2700              		.loc 1 314 7 is_stmt 0 view .LVU890
 2701 0050 0398     		ldr	r0, [sp, #12]
 2702              	.LVL247:
 2703              	.LBB388:
 2704              	.LBI388:
ARM GAS  /tmp/ccyijaMA.s 			page 82


  57:/mnt/c/Users/31740/Documents/codes/newcore-rp2350/include/linux/libfdt_env.h **** {
 2705              		.loc 4 57 23 is_stmt 1 view .LVU891
 2706              	.LBB389:
  59:/mnt/c/Users/31740/Documents/codes/newcore-rp2350/include/linux/libfdt_env.h **** }
 2707              		.loc 4 59 2 view .LVU892
  59:/mnt/c/Users/31740/Documents/codes/newcore-rp2350/include/linux/libfdt_env.h **** }
 2708              		.loc 4 59 28 is_stmt 0 view .LVU893
 2709 0052 C5F30723 		ubfx	r3, r5, #8, #8
 2710 0056 1B04     		lsls	r3, r3, #16
 2711 0058 43EA0563 		orr	r3, r3, r5, lsl #24
 2712 005c C5F30742 		ubfx	r2, r5, #16, #8
 2713 0060 43EA0223 		orr	r3, r3, r2, lsl #8
  59:/mnt/c/Users/31740/Documents/codes/newcore-rp2350/include/linux/libfdt_env.h **** }
 2714              		.loc 4 59 9 view .LVU894
 2715 0064 43EA1563 		orr	r3, r3, r5, lsr #24
 2716              	.LVL248:
  59:/mnt/c/Users/31740/Documents/codes/newcore-rp2350/include/linux/libfdt_env.h **** }
 2717              		.loc 4 59 9 view .LVU895
 2718              	.LBE389:
 2719              	.LBE388:
 314:/mnt/c/Users/31740/Documents/codes/newcore-rp2350/lib/fdt/fdt_rw.c **** 		memcpy(prop->data + oldlen, val, len);
 2720              		.loc 1 314 13 discriminator 1 view .LVU896
 2721 0068 4360     		str	r3, [r0, #4]
 315:/mnt/c/Users/31740/Documents/codes/newcore-rp2350/lib/fdt/fdt_rw.c **** 	} else {
 2722              		.loc 1 315 3 is_stmt 1 view .LVU897
 315:/mnt/c/Users/31740/Documents/codes/newcore-rp2350/lib/fdt/fdt_rw.c **** 	} else {
 2723              		.loc 1 315 10 is_stmt 0 view .LVU898
 2724 006a 0C30     		adds	r0, r0, #12
 315:/mnt/c/Users/31740/Documents/codes/newcore-rp2350/lib/fdt/fdt_rw.c **** 	} else {
 2725              		.loc 1 315 3 view .LVU899
 2726 006c 0A9A     		ldr	r2, [sp, #40]
 2727 006e 4146     		mov	r1, r8
 2728 0070 029B     		ldr	r3, [sp, #8]
 2729 0072 1844     		add	r0, r0, r3
 2730 0074 FFF7FEFF 		bl	memcpy
 2731              	.LVL249:
 2732 0078 CDE7     		b	.L81
 2733              	.LVL250:
 2734              	.L83:
 317:/mnt/c/Users/31740/Documents/codes/newcore-rp2350/lib/fdt/fdt_rw.c **** 					len, &prop);
 2735              		.loc 1 317 3 is_stmt 1 view .LVU900
 317:/mnt/c/Users/31740/Documents/codes/newcore-rp2350/lib/fdt/fdt_rw.c **** 					len, &prop);
 2736              		.loc 1 317 50 is_stmt 0 view .LVU901
 2737 007a 2846     		mov	r0, r5
 2738 007c FFF7FEFF 		bl	strlen
 2739              	.LVL251:
 2740 0080 0346     		mov	r3, r0
 317:/mnt/c/Users/31740/Documents/codes/newcore-rp2350/lib/fdt/fdt_rw.c **** 					len, &prop);
 2741              		.loc 1 317 9 discriminator 1 view .LVU902
 2742 0082 03AA     		add	r2, sp, #12
 2743 0084 0192     		str	r2, [sp, #4]
 2744 0086 0A9A     		ldr	r2, [sp, #40]
 2745 0088 0092     		str	r2, [sp]
 2746 008a 2A46     		mov	r2, r5
 2747 008c 3146     		mov	r1, r6
 2748 008e 2046     		mov	r0, r4
 2749 0090 FFF7FEFF 		bl	fdt_add_property_
ARM GAS  /tmp/ccyijaMA.s 			page 83


 2750              	.LVL252:
 319:/mnt/c/Users/31740/Documents/codes/newcore-rp2350/lib/fdt/fdt_rw.c **** 			return err;
 2751              		.loc 1 319 3 is_stmt 1 view .LVU903
 319:/mnt/c/Users/31740/Documents/codes/newcore-rp2350/lib/fdt/fdt_rw.c **** 			return err;
 2752              		.loc 1 319 6 is_stmt 0 view .LVU904
 2753 0094 0746     		mov	r7, r0
 2754              	.LVL253:
 319:/mnt/c/Users/31740/Documents/codes/newcore-rp2350/lib/fdt/fdt_rw.c **** 			return err;
 2755              		.loc 1 319 6 view .LVU905
 2756 0096 0028     		cmp	r0, #0
 2757 0098 BDD1     		bne	.L81
 321:/mnt/c/Users/31740/Documents/codes/newcore-rp2350/lib/fdt/fdt_rw.c **** 	}
 2758              		.loc 1 321 3 is_stmt 1 view .LVU906
 2759 009a 0A9A     		ldr	r2, [sp, #40]
 2760 009c 4146     		mov	r1, r8
 2761 009e 0398     		ldr	r0, [sp, #12]
 2762              	.LVL254:
 321:/mnt/c/Users/31740/Documents/codes/newcore-rp2350/lib/fdt/fdt_rw.c **** 	}
 2763              		.loc 1 321 3 is_stmt 0 view .LVU907
 2764 00a0 0C30     		adds	r0, r0, #12
 2765 00a2 FFF7FEFF 		bl	memcpy
 2766              	.LVL255:
 2767 00a6 B6E7     		b	.L81
 2768              		.cfi_endproc
 2769              	.LFE91:
 2771              		.section	.text.fdt_delprop,"ax",%progbits
 2772              		.align	1
 2773              		.global	fdt_delprop
 2774              		.syntax unified
 2775              		.thumb
 2776              		.thumb_func
 2778              	fdt_delprop:
 2779              	.LVL256:
 2780              	.LFB92:
 327:/mnt/c/Users/31740/Documents/codes/newcore-rp2350/lib/fdt/fdt_rw.c **** 	struct fdt_property *prop;
 2781              		.loc 1 327 1 is_stmt 1 view -0
 2782              		.cfi_startproc
 2783              		@ args = 0, pretend = 0, frame = 8
 2784              		@ frame_needed = 0, uses_anonymous_args = 0
 327:/mnt/c/Users/31740/Documents/codes/newcore-rp2350/lib/fdt/fdt_rw.c **** 	struct fdt_property *prop;
 2785              		.loc 1 327 1 is_stmt 0 view .LVU909
 2786 0000 70B5     		push	{r4, r5, r6, lr}
 2787              	.LCFI39:
 2788              		.cfi_def_cfa_offset 16
 2789              		.cfi_offset 4, -16
 2790              		.cfi_offset 5, -12
 2791              		.cfi_offset 6, -8
 2792              		.cfi_offset 14, -4
 2793 0002 82B0     		sub	sp, sp, #8
 2794              	.LCFI40:
 2795              		.cfi_def_cfa_offset 24
 2796 0004 0446     		mov	r4, r0
 2797 0006 0D46     		mov	r5, r1
 2798 0008 1646     		mov	r6, r2
 328:/mnt/c/Users/31740/Documents/codes/newcore-rp2350/lib/fdt/fdt_rw.c **** 	int len, proplen;
 2799              		.loc 1 328 2 is_stmt 1 view .LVU910
 329:/mnt/c/Users/31740/Documents/codes/newcore-rp2350/lib/fdt/fdt_rw.c **** 
ARM GAS  /tmp/ccyijaMA.s 			page 84


 2800              		.loc 1 329 2 view .LVU911
 2801              	.LBB390:
 331:/mnt/c/Users/31740/Documents/codes/newcore-rp2350/lib/fdt/fdt_rw.c **** 
 2802              		.loc 1 331 2 view .LVU912
 331:/mnt/c/Users/31740/Documents/codes/newcore-rp2350/lib/fdt/fdt_rw.c **** 
 2803              		.loc 1 331 2 view .LVU913
 2804 000a FFF7FEFF 		bl	fdt_rw_probe_
 2805              	.LVL257:
 331:/mnt/c/Users/31740/Documents/codes/newcore-rp2350/lib/fdt/fdt_rw.c **** 
 2806              		.loc 1 331 2 is_stmt 0 discriminator 1 view .LVU914
 2807 000e 08B1     		cbz	r0, .L90
 2808              	.L86:
 2809              	.LBE390:
 339:/mnt/c/Users/31740/Documents/codes/newcore-rp2350/lib/fdt/fdt_rw.c **** 
 2810              		.loc 1 339 1 view .LVU915
 2811 0010 02B0     		add	sp, sp, #8
 2812              	.LCFI41:
 2813              		.cfi_remember_state
 2814              		.cfi_def_cfa_offset 16
 2815              		@ sp needed
 2816 0012 70BD     		pop	{r4, r5, r6, pc}
 2817              	.LVL258:
 2818              	.L90:
 2819              	.LCFI42:
 2820              		.cfi_restore_state
 331:/mnt/c/Users/31740/Documents/codes/newcore-rp2350/lib/fdt/fdt_rw.c **** 
 2821              		.loc 1 331 19 is_stmt 1 discriminator 2 view .LVU916
 333:/mnt/c/Users/31740/Documents/codes/newcore-rp2350/lib/fdt/fdt_rw.c **** 	if (!prop)
 2822              		.loc 1 333 2 view .LVU917
 2823              	.LBB391:
 2824              	.LBI391:
 758:/mnt/c/Users/31740/Documents/codes/newcore-rp2350/include/linux/libfdt.h **** 						      const char *name,
 2825              		.loc 3 758 36 view .LVU918
 2826              	.LBB392:
 762:/mnt/c/Users/31740/Documents/codes/newcore-rp2350/include/linux/libfdt.h **** 		fdt_get_property(fdt, nodeoffset, name, lenp);
 2827              		.loc 3 762 2 view .LVU919
 2828              		.loc 3 763 3 is_stmt 0 view .LVU920
 2829 0014 01AB     		add	r3, sp, #4
 2830              	.LVL259:
 2831              		.loc 3 763 3 view .LVU921
 2832 0016 3246     		mov	r2, r6
 2833 0018 2946     		mov	r1, r5
 2834 001a 2046     		mov	r0, r4
 2835 001c FFF7FEFF 		bl	fdt_get_property
 2836              	.LVL260:
 2837              		.loc 3 763 3 view .LVU922
 2838              	.LBE392:
 2839              	.LBE391:
 334:/mnt/c/Users/31740/Documents/codes/newcore-rp2350/lib/fdt/fdt_rw.c **** 		return len;
 2840              		.loc 1 334 2 is_stmt 1 view .LVU923
 334:/mnt/c/Users/31740/Documents/codes/newcore-rp2350/lib/fdt/fdt_rw.c **** 		return len;
 2841              		.loc 1 334 5 is_stmt 0 view .LVU924
 2842 0020 0146     		mov	r1, r0
 2843 0022 48B1     		cbz	r0, .L91
 337:/mnt/c/Users/31740/Documents/codes/newcore-rp2350/lib/fdt/fdt_rw.c **** 	return fdt_splice_struct_(fdt, prop, proplen, 0);
 2844              		.loc 1 337 2 is_stmt 1 view .LVU925
 337:/mnt/c/Users/31740/Documents/codes/newcore-rp2350/lib/fdt/fdt_rw.c **** 	return fdt_splice_struct_(fdt, prop, proplen, 0);
ARM GAS  /tmp/ccyijaMA.s 			page 85


 2845              		.loc 1 337 28 is_stmt 0 view .LVU926
 2846 0024 019A     		ldr	r2, [sp, #4]
 2847 0026 0332     		adds	r2, r2, #3
 2848 0028 22F00302 		bic	r2, r2, #3
 2849              	.LVL261:
 338:/mnt/c/Users/31740/Documents/codes/newcore-rp2350/lib/fdt/fdt_rw.c **** }
 2850              		.loc 1 338 2 is_stmt 1 view .LVU927
 338:/mnt/c/Users/31740/Documents/codes/newcore-rp2350/lib/fdt/fdt_rw.c **** }
 2851              		.loc 1 338 9 is_stmt 0 view .LVU928
 2852 002c 0023     		movs	r3, #0
 2853 002e 0C32     		adds	r2, r2, #12
 2854              	.LVL262:
 338:/mnt/c/Users/31740/Documents/codes/newcore-rp2350/lib/fdt/fdt_rw.c **** }
 2855              		.loc 1 338 9 view .LVU929
 2856 0030 2046     		mov	r0, r4
 2857              	.LVL263:
 338:/mnt/c/Users/31740/Documents/codes/newcore-rp2350/lib/fdt/fdt_rw.c **** }
 2858              		.loc 1 338 9 view .LVU930
 2859 0032 FFF7FEFF 		bl	fdt_splice_struct_
 2860              	.LVL264:
 338:/mnt/c/Users/31740/Documents/codes/newcore-rp2350/lib/fdt/fdt_rw.c **** }
 2861              		.loc 1 338 9 view .LVU931
 2862 0036 EBE7     		b	.L86
 2863              	.LVL265:
 2864              	.L91:
 335:/mnt/c/Users/31740/Documents/codes/newcore-rp2350/lib/fdt/fdt_rw.c **** 
 2865              		.loc 1 335 3 is_stmt 1 view .LVU932
 335:/mnt/c/Users/31740/Documents/codes/newcore-rp2350/lib/fdt/fdt_rw.c **** 
 2866              		.loc 1 335 10 is_stmt 0 view .LVU933
 2867 0038 0198     		ldr	r0, [sp, #4]
 2868              	.LVL266:
 335:/mnt/c/Users/31740/Documents/codes/newcore-rp2350/lib/fdt/fdt_rw.c **** 
 2869              		.loc 1 335 10 view .LVU934
 2870 003a E9E7     		b	.L86
 2871              		.cfi_endproc
 2872              	.LFE92:
 2874              		.section	.text.fdt_add_subnode_namelen,"ax",%progbits
 2875              		.align	1
 2876              		.global	fdt_add_subnode_namelen
 2877              		.syntax unified
 2878              		.thumb
 2879              		.thumb_func
 2881              	fdt_add_subnode_namelen:
 2882              	.LVL267:
 2883              	.LFB93:
 343:/mnt/c/Users/31740/Documents/codes/newcore-rp2350/lib/fdt/fdt_rw.c **** 	struct fdt_node_header *nh;
 2884              		.loc 1 343 1 is_stmt 1 view -0
 2885              		.cfi_startproc
 2886              		@ args = 0, pretend = 0, frame = 8
 2887              		@ frame_needed = 0, uses_anonymous_args = 0
 343:/mnt/c/Users/31740/Documents/codes/newcore-rp2350/lib/fdt/fdt_rw.c **** 	struct fdt_node_header *nh;
 2888              		.loc 1 343 1 is_stmt 0 view .LVU936
 2889 0000 2DE9F047 		push	{r4, r5, r6, r7, r8, r9, r10, lr}
 2890              	.LCFI43:
 2891              		.cfi_def_cfa_offset 32
 2892              		.cfi_offset 4, -32
 2893              		.cfi_offset 5, -28
ARM GAS  /tmp/ccyijaMA.s 			page 86


 2894              		.cfi_offset 6, -24
 2895              		.cfi_offset 7, -20
 2896              		.cfi_offset 8, -16
 2897              		.cfi_offset 9, -12
 2898              		.cfi_offset 10, -8
 2899              		.cfi_offset 14, -4
 2900 0004 82B0     		sub	sp, sp, #8
 2901              	.LCFI44:
 2902              		.cfi_def_cfa_offset 40
 2903 0006 0446     		mov	r4, r0
 2904 0008 0E46     		mov	r6, r1
 2905 000a 1746     		mov	r7, r2
 2906 000c 1D46     		mov	r5, r3
 344:/mnt/c/Users/31740/Documents/codes/newcore-rp2350/lib/fdt/fdt_rw.c **** 	int offset, nextoffset;
 2907              		.loc 1 344 2 is_stmt 1 view .LVU937
 345:/mnt/c/Users/31740/Documents/codes/newcore-rp2350/lib/fdt/fdt_rw.c **** 	int nodelen;
 2908              		.loc 1 345 2 view .LVU938
 346:/mnt/c/Users/31740/Documents/codes/newcore-rp2350/lib/fdt/fdt_rw.c **** 	int err;
 2909              		.loc 1 346 2 view .LVU939
 347:/mnt/c/Users/31740/Documents/codes/newcore-rp2350/lib/fdt/fdt_rw.c **** 	uint32_t tag;
 2910              		.loc 1 347 2 view .LVU940
 348:/mnt/c/Users/31740/Documents/codes/newcore-rp2350/lib/fdt/fdt_rw.c **** 	fdt32_t *endtag;
 2911              		.loc 1 348 2 view .LVU941
 349:/mnt/c/Users/31740/Documents/codes/newcore-rp2350/lib/fdt/fdt_rw.c **** 
 2912              		.loc 1 349 2 view .LVU942
 2913              	.LBB393:
 351:/mnt/c/Users/31740/Documents/codes/newcore-rp2350/lib/fdt/fdt_rw.c **** 
 2914              		.loc 1 351 2 view .LVU943
 351:/mnt/c/Users/31740/Documents/codes/newcore-rp2350/lib/fdt/fdt_rw.c **** 
 2915              		.loc 1 351 2 view .LVU944
 2916 000e FFF7FEFF 		bl	fdt_rw_probe_
 2917              	.LVL268:
 351:/mnt/c/Users/31740/Documents/codes/newcore-rp2350/lib/fdt/fdt_rw.c **** 
 2918              		.loc 1 351 2 is_stmt 0 discriminator 1 view .LVU945
 2919 0012 8446     		mov	ip, r0
 2920 0014 18B1     		cbz	r0, .L98
 2921              	.LVL269:
 2922              	.L92:
 351:/mnt/c/Users/31740/Documents/codes/newcore-rp2350/lib/fdt/fdt_rw.c **** 
 2923              		.loc 1 351 2 discriminator 1 view .LVU946
 2924              	.LBE393:
 383:/mnt/c/Users/31740/Documents/codes/newcore-rp2350/lib/fdt/fdt_rw.c **** 
 2925              		.loc 1 383 1 view .LVU947
 2926 0016 6046     		mov	r0, ip
 2927 0018 02B0     		add	sp, sp, #8
 2928              	.LCFI45:
 2929              		.cfi_remember_state
 2930              		.cfi_def_cfa_offset 32
 2931              		@ sp needed
 2932 001a BDE8F087 		pop	{r4, r5, r6, r7, r8, r9, r10, pc}
 2933              	.LVL270:
 2934              	.L98:
 2935              	.LCFI46:
 2936              		.cfi_restore_state
 351:/mnt/c/Users/31740/Documents/codes/newcore-rp2350/lib/fdt/fdt_rw.c **** 
 2937              		.loc 1 351 19 is_stmt 1 discriminator 2 view .LVU948
 353:/mnt/c/Users/31740/Documents/codes/newcore-rp2350/lib/fdt/fdt_rw.c **** 	if (offset >= 0)
ARM GAS  /tmp/ccyijaMA.s 			page 87


 2938              		.loc 1 353 2 view .LVU949
 353:/mnt/c/Users/31740/Documents/codes/newcore-rp2350/lib/fdt/fdt_rw.c **** 	if (offset >= 0)
 2939              		.loc 1 353 11 is_stmt 0 view .LVU950
 2940 001e 2B46     		mov	r3, r5
 2941 0020 3A46     		mov	r2, r7
 2942 0022 3146     		mov	r1, r6
 2943 0024 2046     		mov	r0, r4
 2944              	.LVL271:
 353:/mnt/c/Users/31740/Documents/codes/newcore-rp2350/lib/fdt/fdt_rw.c **** 	if (offset >= 0)
 2945              		.loc 1 353 11 view .LVU951
 2946 0026 FFF7FEFF 		bl	fdt_subnode_offset_namelen
 2947              	.LVL272:
 354:/mnt/c/Users/31740/Documents/codes/newcore-rp2350/lib/fdt/fdt_rw.c **** 		return -FDT_ERR_EXISTS;
 2948              		.loc 1 354 2 is_stmt 1 view .LVU952
 354:/mnt/c/Users/31740/Documents/codes/newcore-rp2350/lib/fdt/fdt_rw.c **** 		return -FDT_ERR_EXISTS;
 2949              		.loc 1 354 5 is_stmt 0 view .LVU953
 2950 002a B0F1000C 		subs	ip, r0, #0
 2951 002e 48DA     		bge	.L95
 356:/mnt/c/Users/31740/Documents/codes/newcore-rp2350/lib/fdt/fdt_rw.c **** 		return offset;
 2952              		.loc 1 356 7 is_stmt 1 view .LVU954
 356:/mnt/c/Users/31740/Documents/codes/newcore-rp2350/lib/fdt/fdt_rw.c **** 		return offset;
 2953              		.loc 1 356 10 is_stmt 0 view .LVU955
 2954 0030 BCF1FF3F 		cmp	ip, #-1
 2955 0034 EFD1     		bne	.L92
 360:/mnt/c/Users/31740/Documents/codes/newcore-rp2350/lib/fdt/fdt_rw.c **** 	/* the fdt_subnode_offset_namelen() should ensure this never hits */
 2956              		.loc 1 360 2 is_stmt 1 view .LVU956
 360:/mnt/c/Users/31740/Documents/codes/newcore-rp2350/lib/fdt/fdt_rw.c **** 	/* the fdt_subnode_offset_namelen() should ensure this never hits */
 2957              		.loc 1 360 8 is_stmt 0 view .LVU957
 2958 0036 01AA     		add	r2, sp, #4
 2959 0038 3146     		mov	r1, r6
 2960 003a 2046     		mov	r0, r4
 2961              	.LVL273:
 360:/mnt/c/Users/31740/Documents/codes/newcore-rp2350/lib/fdt/fdt_rw.c **** 	/* the fdt_subnode_offset_namelen() should ensure this never hits */
 2962              		.loc 1 360 8 view .LVU958
 2963 003c FFF7FEFF 		bl	fdt_next_tag
 2964              	.LVL274:
 362:/mnt/c/Users/31740/Documents/codes/newcore-rp2350/lib/fdt/fdt_rw.c **** 		return -FDT_ERR_INTERNAL;
 2965              		.loc 1 362 2 is_stmt 1 view .LVU959
 362:/mnt/c/Users/31740/Documents/codes/newcore-rp2350/lib/fdt/fdt_rw.c **** 		return -FDT_ERR_INTERNAL;
 2966              		.loc 1 362 35 is_stmt 0 discriminator 1 view .LVU960
 2967 0040 0128     		cmp	r0, #1
 2968 0042 41D1     		bne	.L96
 2969              	.LVL275:
 2970              	.L94:
 364:/mnt/c/Users/31740/Documents/codes/newcore-rp2350/lib/fdt/fdt_rw.c **** 		offset = nextoffset;
 2971              		.loc 1 364 2 is_stmt 1 view .LVU961
 365:/mnt/c/Users/31740/Documents/codes/newcore-rp2350/lib/fdt/fdt_rw.c **** 		tag = fdt_next_tag(fdt, offset, &nextoffset);
 2972              		.loc 1 365 3 view .LVU962
 365:/mnt/c/Users/31740/Documents/codes/newcore-rp2350/lib/fdt/fdt_rw.c **** 		tag = fdt_next_tag(fdt, offset, &nextoffset);
 2973              		.loc 1 365 10 is_stmt 0 view .LVU963
 2974 0044 019E     		ldr	r6, [sp, #4]
 2975              	.LVL276:
 366:/mnt/c/Users/31740/Documents/codes/newcore-rp2350/lib/fdt/fdt_rw.c **** 	} while ((tag == FDT_PROP) || (tag == FDT_NOP));
 2976              		.loc 1 366 3 is_stmt 1 view .LVU964
 366:/mnt/c/Users/31740/Documents/codes/newcore-rp2350/lib/fdt/fdt_rw.c **** 	} while ((tag == FDT_PROP) || (tag == FDT_NOP));
 2977              		.loc 1 366 9 is_stmt 0 view .LVU965
 2978 0046 01AA     		add	r2, sp, #4
ARM GAS  /tmp/ccyijaMA.s 			page 88


 2979 0048 3146     		mov	r1, r6
 2980 004a 2046     		mov	r0, r4
 2981 004c FFF7FEFF 		bl	fdt_next_tag
 2982              	.LVL277:
 367:/mnt/c/Users/31740/Documents/codes/newcore-rp2350/lib/fdt/fdt_rw.c **** 
 2983              		.loc 1 367 29 is_stmt 1 discriminator 1 view .LVU966
 2984 0050 0338     		subs	r0, r0, #3
 2985              	.LVL278:
 367:/mnt/c/Users/31740/Documents/codes/newcore-rp2350/lib/fdt/fdt_rw.c **** 
 2986              		.loc 1 367 29 is_stmt 0 discriminator 1 view .LVU967
 2987 0052 0128     		cmp	r0, #1
 2988 0054 F6D9     		bls	.L94
 369:/mnt/c/Users/31740/Documents/codes/newcore-rp2350/lib/fdt/fdt_rw.c **** 	nodelen = sizeof(*nh) + FDT_TAGALIGN(namelen+1) + FDT_TAGSIZE;
 2989              		.loc 1 369 2 is_stmt 1 view .LVU968
 2990              	.LVL279:
 2991              	.LBB394:
 2992              	.LBI394:
  40:/mnt/c/Users/31740/Documents/codes/newcore-rp2350/lib/fdt/libfdt_internal.h **** {
 2993              		.loc 2 40 21 view .LVU969
  42:/mnt/c/Users/31740/Documents/codes/newcore-rp2350/lib/fdt/libfdt_internal.h **** }
 2994              		.loc 2 42 2 view .LVU970
 2995              	.LBB395:
 2996              	.LBI395:
  35:/mnt/c/Users/31740/Documents/codes/newcore-rp2350/lib/fdt/libfdt_internal.h **** {
 2997              		.loc 2 35 27 view .LVU971
 2998              	.LBB396:
  37:/mnt/c/Users/31740/Documents/codes/newcore-rp2350/lib/fdt/libfdt_internal.h **** }
 2999              		.loc 2 37 2 view .LVU972
 3000              	.LBB397:
 3001              	.LBI397:
 145:/mnt/c/Users/31740/Documents/codes/newcore-rp2350/include/linux/libfdt.h **** {
 3002              		.loc 3 145 24 view .LVU973
 3003              	.LBB398:
 147:/mnt/c/Users/31740/Documents/codes/newcore-rp2350/include/linux/libfdt.h **** 
 3004              		.loc 3 147 2 view .LVU974
 149:/mnt/c/Users/31740/Documents/codes/newcore-rp2350/include/linux/libfdt.h **** 		| ((uint32_t)bp[1] << 16)
 3005              		.loc 3 149 2 view .LVU975
 149:/mnt/c/Users/31740/Documents/codes/newcore-rp2350/include/linux/libfdt.h **** 		| ((uint32_t)bp[1] << 16)
 3006              		.loc 3 149 22 is_stmt 0 view .LVU976
 3007 0056 237A     		ldrb	r3, [r4, #8]	@ zero_extendqisi2
 150:/mnt/c/Users/31740/Documents/codes/newcore-rp2350/include/linux/libfdt.h **** 		| ((uint32_t)bp[2] << 8)
 3008              		.loc 3 150 18 view .LVU977
 3009 0058 94F80980 		ldrb	r8, [r4, #9]	@ zero_extendqisi2
 150:/mnt/c/Users/31740/Documents/codes/newcore-rp2350/include/linux/libfdt.h **** 		| ((uint32_t)bp[2] << 8)
 3010              		.loc 3 150 22 view .LVU978
 3011 005c 4FEA0848 		lsl	r8, r8, #16
 150:/mnt/c/Users/31740/Documents/codes/newcore-rp2350/include/linux/libfdt.h **** 		| ((uint32_t)bp[2] << 8)
 3012              		.loc 3 150 3 view .LVU979
 3013 0060 48EA0368 		orr	r8, r8, r3, lsl #24
 151:/mnt/c/Users/31740/Documents/codes/newcore-rp2350/include/linux/libfdt.h **** 		| bp[3];
 3014              		.loc 3 151 18 view .LVU980
 3015 0064 A37A     		ldrb	r3, [r4, #10]	@ zero_extendqisi2
 151:/mnt/c/Users/31740/Documents/codes/newcore-rp2350/include/linux/libfdt.h **** 		| bp[3];
 3016              		.loc 3 151 3 view .LVU981
 3017 0066 48EA0328 		orr	r8, r8, r3, lsl #8
 152:/mnt/c/Users/31740/Documents/codes/newcore-rp2350/include/linux/libfdt.h **** }
 3018              		.loc 3 152 7 view .LVU982
ARM GAS  /tmp/ccyijaMA.s 			page 89


 3019 006a E37A     		ldrb	r3, [r4, #11]	@ zero_extendqisi2
 152:/mnt/c/Users/31740/Documents/codes/newcore-rp2350/include/linux/libfdt.h **** }
 3020              		.loc 3 152 3 view .LVU983
 3021 006c 48EA0308 		orr	r8, r8, r3
 3022              	.LVL280:
 152:/mnt/c/Users/31740/Documents/codes/newcore-rp2350/include/linux/libfdt.h **** }
 3023              		.loc 3 152 3 view .LVU984
 3024              	.LBE398:
 3025              	.LBE397:
  37:/mnt/c/Users/31740/Documents/codes/newcore-rp2350/lib/fdt/libfdt_internal.h **** }
 3026              		.loc 2 37 52 discriminator 1 view .LVU985
 3027 0070 B044     		add	r8, r8, r6
 3028 0072 04EB080A 		add	r10, r4, r8
 3029              	.LVL281:
  37:/mnt/c/Users/31740/Documents/codes/newcore-rp2350/lib/fdt/libfdt_internal.h **** }
 3030              		.loc 2 37 52 discriminator 1 view .LVU986
 3031              	.LBE396:
 3032              	.LBE395:
 3033              	.LBE394:
 370:/mnt/c/Users/31740/Documents/codes/newcore-rp2350/lib/fdt/fdt_rw.c **** 
 3034              		.loc 1 370 2 is_stmt 1 view .LVU987
 370:/mnt/c/Users/31740/Documents/codes/newcore-rp2350/lib/fdt/fdt_rw.c **** 
 3035              		.loc 1 370 26 is_stmt 0 view .LVU988
 3036 0076 05F10409 		add	r9, r5, #4
 3037 007a 29F00309 		bic	r9, r9, #3
 3038              	.LVL282:
 372:/mnt/c/Users/31740/Documents/codes/newcore-rp2350/lib/fdt/fdt_rw.c **** 	if (err)
 3039              		.loc 1 372 2 is_stmt 1 view .LVU989
 372:/mnt/c/Users/31740/Documents/codes/newcore-rp2350/lib/fdt/fdt_rw.c **** 	if (err)
 3040              		.loc 1 372 8 is_stmt 0 view .LVU990
 3041 007e 09F10803 		add	r3, r9, #8
 3042              	.LVL283:
 372:/mnt/c/Users/31740/Documents/codes/newcore-rp2350/lib/fdt/fdt_rw.c **** 	if (err)
 3043              		.loc 1 372 8 view .LVU991
 3044 0082 0022     		movs	r2, #0
 3045 0084 5146     		mov	r1, r10
 3046 0086 2046     		mov	r0, r4
 3047              	.LVL284:
 372:/mnt/c/Users/31740/Documents/codes/newcore-rp2350/lib/fdt/fdt_rw.c **** 	if (err)
 3048              		.loc 1 372 8 view .LVU992
 3049 0088 FFF7FEFF 		bl	fdt_splice_struct_
 3050              	.LVL285:
 373:/mnt/c/Users/31740/Documents/codes/newcore-rp2350/lib/fdt/fdt_rw.c **** 		return err;
 3051              		.loc 1 373 2 is_stmt 1 view .LVU993
 373:/mnt/c/Users/31740/Documents/codes/newcore-rp2350/lib/fdt/fdt_rw.c **** 		return err;
 3052              		.loc 1 373 5 is_stmt 0 view .LVU994
 3053 008c 8446     		mov	ip, r0
 3054 008e 0028     		cmp	r0, #0
 3055 0090 C1D1     		bne	.L92
 376:/mnt/c/Users/31740/Documents/codes/newcore-rp2350/lib/fdt/fdt_rw.c **** 	memset(nh->name, 0, FDT_TAGALIGN(namelen+1));
 3056              		.loc 1 376 2 is_stmt 1 view .LVU995
 376:/mnt/c/Users/31740/Documents/codes/newcore-rp2350/lib/fdt/fdt_rw.c **** 	memset(nh->name, 0, FDT_TAGALIGN(namelen+1));
 3057              		.loc 1 376 10 is_stmt 0 discriminator 1 view .LVU996
 3058 0092 4FF08073 		mov	r3, #16777216
 3059 0096 44F80830 		str	r3, [r4, r8]
 377:/mnt/c/Users/31740/Documents/codes/newcore-rp2350/lib/fdt/fdt_rw.c **** 	memcpy(nh->name, name, namelen);
 3060              		.loc 1 377 2 is_stmt 1 view .LVU997
ARM GAS  /tmp/ccyijaMA.s 			page 90


 377:/mnt/c/Users/31740/Documents/codes/newcore-rp2350/lib/fdt/fdt_rw.c **** 	memcpy(nh->name, name, namelen);
 3061              		.loc 1 377 11 is_stmt 0 view .LVU998
 3062 009a 0AF10404 		add	r4, r10, #4
 3063              	.LVL286:
 377:/mnt/c/Users/31740/Documents/codes/newcore-rp2350/lib/fdt/fdt_rw.c **** 	memcpy(nh->name, name, namelen);
 3064              		.loc 1 377 2 view .LVU999
 3065 009e 4A46     		mov	r2, r9
 3066 00a0 0021     		movs	r1, #0
 3067 00a2 2046     		mov	r0, r4
 3068              	.LVL287:
 377:/mnt/c/Users/31740/Documents/codes/newcore-rp2350/lib/fdt/fdt_rw.c **** 	memcpy(nh->name, name, namelen);
 3069              		.loc 1 377 2 view .LVU1000
 3070 00a4 FFF7FEFF 		bl	memset
 3071              	.LVL288:
 378:/mnt/c/Users/31740/Documents/codes/newcore-rp2350/lib/fdt/fdt_rw.c **** 	endtag = (fdt32_t *)((char *)nh + nodelen - FDT_TAGSIZE);
 3072              		.loc 1 378 2 is_stmt 1 view .LVU1001
 3073 00a8 2A46     		mov	r2, r5
 3074 00aa 3946     		mov	r1, r7
 3075 00ac 2046     		mov	r0, r4
 3076 00ae FFF7FEFF 		bl	memcpy
 3077              	.LVL289:
 379:/mnt/c/Users/31740/Documents/codes/newcore-rp2350/lib/fdt/fdt_rw.c **** 	*endtag = cpu_to_fdt32(FDT_END_NODE);
 3078              		.loc 1 379 2 view .LVU1002
 379:/mnt/c/Users/31740/Documents/codes/newcore-rp2350/lib/fdt/fdt_rw.c **** 	*endtag = cpu_to_fdt32(FDT_END_NODE);
 3079              		.loc 1 379 44 is_stmt 0 view .LVU1003
 3080 00b2 09F10409 		add	r9, r9, #4
 3081              	.LVL290:
 380:/mnt/c/Users/31740/Documents/codes/newcore-rp2350/lib/fdt/fdt_rw.c **** 
 3082              		.loc 1 380 2 is_stmt 1 view .LVU1004
 380:/mnt/c/Users/31740/Documents/codes/newcore-rp2350/lib/fdt/fdt_rw.c **** 
 3083              		.loc 1 380 10 is_stmt 0 discriminator 1 view .LVU1005
 3084 00b6 4FF00073 		mov	r3, #33554432
 3085 00ba 4AF80930 		str	r3, [r10, r9]
 382:/mnt/c/Users/31740/Documents/codes/newcore-rp2350/lib/fdt/fdt_rw.c **** }
 3086              		.loc 1 382 2 is_stmt 1 view .LVU1006
 382:/mnt/c/Users/31740/Documents/codes/newcore-rp2350/lib/fdt/fdt_rw.c **** }
 3087              		.loc 1 382 9 is_stmt 0 view .LVU1007
 3088 00be B446     		mov	ip, r6
 3089 00c0 A9E7     		b	.L92
 3090              	.LVL291:
 3091              	.L95:
 355:/mnt/c/Users/31740/Documents/codes/newcore-rp2350/lib/fdt/fdt_rw.c **** 	else if (offset != -FDT_ERR_NOTFOUND)
 3092              		.loc 1 355 10 view .LVU1008
 3093 00c2 6FF0010C 		mvn	ip, #1
 3094 00c6 A6E7     		b	.L92
 3095              	.LVL292:
 3096              	.L96:
 363:/mnt/c/Users/31740/Documents/codes/newcore-rp2350/lib/fdt/fdt_rw.c **** 	do {
 3097              		.loc 1 363 10 view .LVU1009
 3098 00c8 6FF00C0C 		mvn	ip, #12
 3099 00cc A3E7     		b	.L92
 3100              		.cfi_endproc
 3101              	.LFE93:
 3103              		.section	.text.fdt_add_subnode,"ax",%progbits
 3104              		.align	1
 3105              		.global	fdt_add_subnode
 3106              		.syntax unified
ARM GAS  /tmp/ccyijaMA.s 			page 91


 3107              		.thumb
 3108              		.thumb_func
 3110              	fdt_add_subnode:
 3111              	.LVL293:
 3112              	.LFB94:
 386:/mnt/c/Users/31740/Documents/codes/newcore-rp2350/lib/fdt/fdt_rw.c **** 	return fdt_add_subnode_namelen(fdt, parentoffset, name, strlen(name));
 3113              		.loc 1 386 1 is_stmt 1 view -0
 3114              		.cfi_startproc
 3115              		@ args = 0, pretend = 0, frame = 0
 3116              		@ frame_needed = 0, uses_anonymous_args = 0
 386:/mnt/c/Users/31740/Documents/codes/newcore-rp2350/lib/fdt/fdt_rw.c **** 	return fdt_add_subnode_namelen(fdt, parentoffset, name, strlen(name));
 3117              		.loc 1 386 1 is_stmt 0 view .LVU1011
 3118 0000 70B5     		push	{r4, r5, r6, lr}
 3119              	.LCFI47:
 3120              		.cfi_def_cfa_offset 16
 3121              		.cfi_offset 4, -16
 3122              		.cfi_offset 5, -12
 3123              		.cfi_offset 6, -8
 3124              		.cfi_offset 14, -4
 3125 0002 0546     		mov	r5, r0
 3126 0004 0E46     		mov	r6, r1
 3127 0006 1446     		mov	r4, r2
 387:/mnt/c/Users/31740/Documents/codes/newcore-rp2350/lib/fdt/fdt_rw.c **** }
 3128              		.loc 1 387 2 is_stmt 1 view .LVU1012
 387:/mnt/c/Users/31740/Documents/codes/newcore-rp2350/lib/fdt/fdt_rw.c **** }
 3129              		.loc 1 387 58 is_stmt 0 view .LVU1013
 3130 0008 1046     		mov	r0, r2
 3131              	.LVL294:
 387:/mnt/c/Users/31740/Documents/codes/newcore-rp2350/lib/fdt/fdt_rw.c **** }
 3132              		.loc 1 387 58 view .LVU1014
 3133 000a FFF7FEFF 		bl	strlen
 3134              	.LVL295:
 387:/mnt/c/Users/31740/Documents/codes/newcore-rp2350/lib/fdt/fdt_rw.c **** }
 3135              		.loc 1 387 58 view .LVU1015
 3136 000e 0346     		mov	r3, r0
 387:/mnt/c/Users/31740/Documents/codes/newcore-rp2350/lib/fdt/fdt_rw.c **** }
 3137              		.loc 1 387 9 discriminator 1 view .LVU1016
 3138 0010 2246     		mov	r2, r4
 3139 0012 3146     		mov	r1, r6
 3140 0014 2846     		mov	r0, r5
 3141 0016 FFF7FEFF 		bl	fdt_add_subnode_namelen
 3142              	.LVL296:
 388:/mnt/c/Users/31740/Documents/codes/newcore-rp2350/lib/fdt/fdt_rw.c **** 
 3143              		.loc 1 388 1 view .LVU1017
 3144 001a 70BD     		pop	{r4, r5, r6, pc}
 388:/mnt/c/Users/31740/Documents/codes/newcore-rp2350/lib/fdt/fdt_rw.c **** 
 3145              		.loc 1 388 1 view .LVU1018
 3146              		.cfi_endproc
 3147              	.LFE94:
 3149              		.section	.text.fdt_del_node,"ax",%progbits
 3150              		.align	1
 3151              		.global	fdt_del_node
 3152              		.syntax unified
 3153              		.thumb
 3154              		.thumb_func
 3156              	fdt_del_node:
 3157              	.LVL297:
ARM GAS  /tmp/ccyijaMA.s 			page 92


 3158              	.LFB95:
 391:/mnt/c/Users/31740/Documents/codes/newcore-rp2350/lib/fdt/fdt_rw.c **** 	int endoffset;
 3159              		.loc 1 391 1 is_stmt 1 view -0
 3160              		.cfi_startproc
 3161              		@ args = 0, pretend = 0, frame = 0
 3162              		@ frame_needed = 0, uses_anonymous_args = 0
 391:/mnt/c/Users/31740/Documents/codes/newcore-rp2350/lib/fdt/fdt_rw.c **** 	int endoffset;
 3163              		.loc 1 391 1 is_stmt 0 view .LVU1020
 3164 0000 38B5     		push	{r3, r4, r5, lr}
 3165              	.LCFI48:
 3166              		.cfi_def_cfa_offset 16
 3167              		.cfi_offset 3, -16
 3168              		.cfi_offset 4, -12
 3169              		.cfi_offset 5, -8
 3170              		.cfi_offset 14, -4
 3171 0002 0446     		mov	r4, r0
 3172 0004 0D46     		mov	r5, r1
 392:/mnt/c/Users/31740/Documents/codes/newcore-rp2350/lib/fdt/fdt_rw.c **** 
 3173              		.loc 1 392 2 is_stmt 1 view .LVU1021
 3174              	.LBB399:
 394:/mnt/c/Users/31740/Documents/codes/newcore-rp2350/lib/fdt/fdt_rw.c **** 
 3175              		.loc 1 394 2 view .LVU1022
 394:/mnt/c/Users/31740/Documents/codes/newcore-rp2350/lib/fdt/fdt_rw.c **** 
 3176              		.loc 1 394 2 view .LVU1023
 3177 0006 FFF7FEFF 		bl	fdt_rw_probe_
 3178              	.LVL298:
 394:/mnt/c/Users/31740/Documents/codes/newcore-rp2350/lib/fdt/fdt_rw.c **** 
 3179              		.loc 1 394 2 is_stmt 0 discriminator 1 view .LVU1024
 3180 000a 00B1     		cbz	r0, .L104
 3181              	.L101:
 3182              	.LBE399:
 402:/mnt/c/Users/31740/Documents/codes/newcore-rp2350/lib/fdt/fdt_rw.c **** 
 3183              		.loc 1 402 1 view .LVU1025
 3184 000c 38BD     		pop	{r3, r4, r5, pc}
 3185              	.LVL299:
 3186              	.L104:
 394:/mnt/c/Users/31740/Documents/codes/newcore-rp2350/lib/fdt/fdt_rw.c **** 
 3187              		.loc 1 394 19 is_stmt 1 discriminator 2 view .LVU1026
 396:/mnt/c/Users/31740/Documents/codes/newcore-rp2350/lib/fdt/fdt_rw.c **** 	if (endoffset < 0)
 3188              		.loc 1 396 2 view .LVU1027
 396:/mnt/c/Users/31740/Documents/codes/newcore-rp2350/lib/fdt/fdt_rw.c **** 	if (endoffset < 0)
 3189              		.loc 1 396 14 is_stmt 0 view .LVU1028
 3190 000e 2946     		mov	r1, r5
 3191 0010 2046     		mov	r0, r4
 3192 0012 FFF7FEFF 		bl	fdt_node_end_offset_
 3193              	.LVL300:
 397:/mnt/c/Users/31740/Documents/codes/newcore-rp2350/lib/fdt/fdt_rw.c **** 		return endoffset;
 3194              		.loc 1 397 2 is_stmt 1 view .LVU1029
 397:/mnt/c/Users/31740/Documents/codes/newcore-rp2350/lib/fdt/fdt_rw.c **** 		return endoffset;
 3195              		.loc 1 397 5 is_stmt 0 view .LVU1030
 3196 0016 0028     		cmp	r0, #0
 397:/mnt/c/Users/31740/Documents/codes/newcore-rp2350/lib/fdt/fdt_rw.c **** 		return endoffset;
 3197              		.loc 1 397 5 view .LVU1031
 3198 0018 F8DB     		blt	.L101
 400:/mnt/c/Users/31740/Documents/codes/newcore-rp2350/lib/fdt/fdt_rw.c **** 				  endoffset - nodeoffset, 0);
 3199              		.loc 1 400 2 is_stmt 1 view .LVU1032
 3200              	.LVL301:
ARM GAS  /tmp/ccyijaMA.s 			page 93


 3201              	.LBB400:
 3202              	.LBI400:
  40:/mnt/c/Users/31740/Documents/codes/newcore-rp2350/lib/fdt/libfdt_internal.h **** {
 3203              		.loc 2 40 21 view .LVU1033
  42:/mnt/c/Users/31740/Documents/codes/newcore-rp2350/lib/fdt/libfdt_internal.h **** }
 3204              		.loc 2 42 2 view .LVU1034
 3205              	.LBB401:
 3206              	.LBI401:
  35:/mnt/c/Users/31740/Documents/codes/newcore-rp2350/lib/fdt/libfdt_internal.h **** {
 3207              		.loc 2 35 27 view .LVU1035
 3208              	.LBB402:
  37:/mnt/c/Users/31740/Documents/codes/newcore-rp2350/lib/fdt/libfdt_internal.h **** }
 3209              		.loc 2 37 2 view .LVU1036
 3210              	.LBB403:
 3211              	.LBI403:
 145:/mnt/c/Users/31740/Documents/codes/newcore-rp2350/include/linux/libfdt.h **** {
 3212              		.loc 3 145 24 view .LVU1037
 3213              	.LBB404:
 147:/mnt/c/Users/31740/Documents/codes/newcore-rp2350/include/linux/libfdt.h **** 
 3214              		.loc 3 147 2 view .LVU1038
 149:/mnt/c/Users/31740/Documents/codes/newcore-rp2350/include/linux/libfdt.h **** 		| ((uint32_t)bp[1] << 16)
 3215              		.loc 3 149 2 view .LVU1039
 149:/mnt/c/Users/31740/Documents/codes/newcore-rp2350/include/linux/libfdt.h **** 		| ((uint32_t)bp[1] << 16)
 3216              		.loc 3 149 22 is_stmt 0 view .LVU1040
 3217 001a 237A     		ldrb	r3, [r4, #8]	@ zero_extendqisi2
 150:/mnt/c/Users/31740/Documents/codes/newcore-rp2350/include/linux/libfdt.h **** 		| ((uint32_t)bp[2] << 8)
 3218              		.loc 3 150 18 view .LVU1041
 3219 001c 617A     		ldrb	r1, [r4, #9]	@ zero_extendqisi2
 150:/mnt/c/Users/31740/Documents/codes/newcore-rp2350/include/linux/libfdt.h **** 		| ((uint32_t)bp[2] << 8)
 3220              		.loc 3 150 22 view .LVU1042
 3221 001e 0904     		lsls	r1, r1, #16
 150:/mnt/c/Users/31740/Documents/codes/newcore-rp2350/include/linux/libfdt.h **** 		| ((uint32_t)bp[2] << 8)
 3222              		.loc 3 150 3 view .LVU1043
 3223 0020 41EA0361 		orr	r1, r1, r3, lsl #24
 151:/mnt/c/Users/31740/Documents/codes/newcore-rp2350/include/linux/libfdt.h **** 		| bp[3];
 3224              		.loc 3 151 18 view .LVU1044
 3225 0024 A37A     		ldrb	r3, [r4, #10]	@ zero_extendqisi2
 151:/mnt/c/Users/31740/Documents/codes/newcore-rp2350/include/linux/libfdt.h **** 		| bp[3];
 3226              		.loc 3 151 3 view .LVU1045
 3227 0026 41EA0321 		orr	r1, r1, r3, lsl #8
 152:/mnt/c/Users/31740/Documents/codes/newcore-rp2350/include/linux/libfdt.h **** }
 3228              		.loc 3 152 7 view .LVU1046
 3229 002a E37A     		ldrb	r3, [r4, #11]	@ zero_extendqisi2
 152:/mnt/c/Users/31740/Documents/codes/newcore-rp2350/include/linux/libfdt.h **** }
 3230              		.loc 3 152 3 view .LVU1047
 3231 002c 1943     		orrs	r1, r1, r3
 3232              	.LVL302:
 152:/mnt/c/Users/31740/Documents/codes/newcore-rp2350/include/linux/libfdt.h **** }
 3233              		.loc 3 152 3 view .LVU1048
 3234              	.LBE404:
 3235              	.LBE403:
  37:/mnt/c/Users/31740/Documents/codes/newcore-rp2350/lib/fdt/libfdt_internal.h **** }
 3236              		.loc 2 37 52 discriminator 1 view .LVU1049
 3237 002e 2944     		add	r1, r1, r5
 3238              	.LVL303:
  37:/mnt/c/Users/31740/Documents/codes/newcore-rp2350/lib/fdt/libfdt_internal.h **** }
 3239              		.loc 2 37 52 discriminator 1 view .LVU1050
ARM GAS  /tmp/ccyijaMA.s 			page 94


 3240              	.LBE402:
 3241              	.LBE401:
 3242              	.LBE400:
 400:/mnt/c/Users/31740/Documents/codes/newcore-rp2350/lib/fdt/fdt_rw.c **** 				  endoffset - nodeoffset, 0);
 3243              		.loc 1 400 9 discriminator 1 view .LVU1051
 3244 0030 0023     		movs	r3, #0
 3245 0032 421B     		subs	r2, r0, r5
 3246 0034 2144     		add	r1, r1, r4
 3247 0036 2046     		mov	r0, r4
 3248              	.LVL304:
 400:/mnt/c/Users/31740/Documents/codes/newcore-rp2350/lib/fdt/fdt_rw.c **** 				  endoffset - nodeoffset, 0);
 3249              		.loc 1 400 9 discriminator 1 view .LVU1052
 3250 0038 FFF7FEFF 		bl	fdt_splice_struct_
 3251              	.LVL305:
 400:/mnt/c/Users/31740/Documents/codes/newcore-rp2350/lib/fdt/fdt_rw.c **** 				  endoffset - nodeoffset, 0);
 3252              		.loc 1 400 9 view .LVU1053
 3253 003c E6E7     		b	.L101
 3254              		.cfi_endproc
 3255              	.LFE95:
 3257              		.section	.text.fdt_open_into,"ax",%progbits
 3258              		.align	1
 3259              		.global	fdt_open_into
 3260              		.syntax unified
 3261              		.thumb
 3262              		.thumb_func
 3264              	fdt_open_into:
 3265              	.LVL306:
 3266              	.LFB97:
 426:/mnt/c/Users/31740/Documents/codes/newcore-rp2350/lib/fdt/fdt_rw.c **** 
 427:/mnt/c/Users/31740/Documents/codes/newcore-rp2350/lib/fdt/fdt_rw.c **** int fdt_open_into(const void *fdt, void *buf, int bufsize)
 428:/mnt/c/Users/31740/Documents/codes/newcore-rp2350/lib/fdt/fdt_rw.c **** {
 3267              		.loc 1 428 1 is_stmt 1 view -0
 3268              		.cfi_startproc
 3269              		@ args = 0, pretend = 0, frame = 8
 3270              		@ frame_needed = 0, uses_anonymous_args = 0
 3271              		.loc 1 428 1 is_stmt 0 view .LVU1055
 3272 0000 2DE9F047 		push	{r4, r5, r6, r7, r8, r9, r10, lr}
 3273              	.LCFI49:
 3274              		.cfi_def_cfa_offset 32
 3275              		.cfi_offset 4, -32
 3276              		.cfi_offset 5, -28
 3277              		.cfi_offset 6, -24
 3278              		.cfi_offset 7, -20
 3279              		.cfi_offset 8, -16
 3280              		.cfi_offset 9, -12
 3281              		.cfi_offset 10, -8
 3282              		.cfi_offset 14, -4
 3283 0004 84B0     		sub	sp, sp, #16
 3284              	.LCFI50:
 3285              		.cfi_def_cfa_offset 48
 3286 0006 0446     		mov	r4, r0
 3287 0008 0E46     		mov	r6, r1
 3288 000a 1746     		mov	r7, r2
 429:/mnt/c/Users/31740/Documents/codes/newcore-rp2350/lib/fdt/fdt_rw.c **** 	int err;
 3289              		.loc 1 429 2 is_stmt 1 view .LVU1056
 430:/mnt/c/Users/31740/Documents/codes/newcore-rp2350/lib/fdt/fdt_rw.c **** 	int mem_rsv_size, struct_size;
 3290              		.loc 1 430 2 view .LVU1057
ARM GAS  /tmp/ccyijaMA.s 			page 95


 431:/mnt/c/Users/31740/Documents/codes/newcore-rp2350/lib/fdt/fdt_rw.c **** 	int newsize;
 3291              		.loc 1 431 2 view .LVU1058
 432:/mnt/c/Users/31740/Documents/codes/newcore-rp2350/lib/fdt/fdt_rw.c **** 	const char *fdtstart = fdt;
 3292              		.loc 1 432 2 view .LVU1059
 3293              	.LVL307:
 433:/mnt/c/Users/31740/Documents/codes/newcore-rp2350/lib/fdt/fdt_rw.c **** 	const char *fdtend = fdtstart + fdt_totalsize(fdt);
 3294              		.loc 1 433 2 view .LVU1060
 3295              	.LBB405:
 3296              	.LBI405:
 145:/mnt/c/Users/31740/Documents/codes/newcore-rp2350/include/linux/libfdt.h **** {
 3297              		.loc 3 145 24 view .LVU1061
 3298              	.LBB406:
 147:/mnt/c/Users/31740/Documents/codes/newcore-rp2350/include/linux/libfdt.h **** 
 3299              		.loc 3 147 2 view .LVU1062
 149:/mnt/c/Users/31740/Documents/codes/newcore-rp2350/include/linux/libfdt.h **** 		| ((uint32_t)bp[1] << 16)
 3300              		.loc 3 149 2 view .LVU1063
 149:/mnt/c/Users/31740/Documents/codes/newcore-rp2350/include/linux/libfdt.h **** 		| ((uint32_t)bp[1] << 16)
 3301              		.loc 3 149 22 is_stmt 0 view .LVU1064
 3302 000c 0379     		ldrb	r3, [r0, #4]	@ zero_extendqisi2
 150:/mnt/c/Users/31740/Documents/codes/newcore-rp2350/include/linux/libfdt.h **** 		| ((uint32_t)bp[2] << 8)
 3303              		.loc 3 150 18 view .LVU1065
 3304 000e 4579     		ldrb	r5, [r0, #5]	@ zero_extendqisi2
 150:/mnt/c/Users/31740/Documents/codes/newcore-rp2350/include/linux/libfdt.h **** 		| ((uint32_t)bp[2] << 8)
 3305              		.loc 3 150 22 view .LVU1066
 3306 0010 2D04     		lsls	r5, r5, #16
 150:/mnt/c/Users/31740/Documents/codes/newcore-rp2350/include/linux/libfdt.h **** 		| ((uint32_t)bp[2] << 8)
 3307              		.loc 3 150 3 view .LVU1067
 3308 0012 45EA0365 		orr	r5, r5, r3, lsl #24
 151:/mnt/c/Users/31740/Documents/codes/newcore-rp2350/include/linux/libfdt.h **** 		| bp[3];
 3309              		.loc 3 151 18 view .LVU1068
 3310 0016 8379     		ldrb	r3, [r0, #6]	@ zero_extendqisi2
 151:/mnt/c/Users/31740/Documents/codes/newcore-rp2350/include/linux/libfdt.h **** 		| bp[3];
 3311              		.loc 3 151 3 view .LVU1069
 3312 0018 45EA0325 		orr	r5, r5, r3, lsl #8
 152:/mnt/c/Users/31740/Documents/codes/newcore-rp2350/include/linux/libfdt.h **** }
 3313              		.loc 3 152 7 view .LVU1070
 3314 001c C379     		ldrb	r3, [r0, #7]	@ zero_extendqisi2
 152:/mnt/c/Users/31740/Documents/codes/newcore-rp2350/include/linux/libfdt.h **** }
 3315              		.loc 3 152 3 view .LVU1071
 3316 001e 1D43     		orrs	r5, r5, r3
 3317              	.LVL308:
 152:/mnt/c/Users/31740/Documents/codes/newcore-rp2350/include/linux/libfdt.h **** }
 3318              		.loc 3 152 3 view .LVU1072
 3319              	.LBE406:
 3320              	.LBE405:
 3321              		.loc 1 433 14 discriminator 1 view .LVU1073
 3322 0020 0544     		add	r5, r5, r0
 3323              	.LVL309:
 434:/mnt/c/Users/31740/Documents/codes/newcore-rp2350/lib/fdt/fdt_rw.c **** 	char *tmp;
 3324              		.loc 1 434 2 is_stmt 1 view .LVU1074
 3325              	.LBB407:
 435:/mnt/c/Users/31740/Documents/codes/newcore-rp2350/lib/fdt/fdt_rw.c **** 
 436:/mnt/c/Users/31740/Documents/codes/newcore-rp2350/lib/fdt/fdt_rw.c **** 	FDT_RO_PROBE(fdt);
 3326              		.loc 1 436 2 view .LVU1075
 3327              		.loc 1 436 2 view .LVU1076
 3328 0022 FFF7FEFF 		bl	fdt_ro_probe_
 3329              	.LVL310:
ARM GAS  /tmp/ccyijaMA.s 			page 96


 3330              		.loc 1 436 2 is_stmt 0 discriminator 1 view .LVU1077
 3331 0026 0028     		cmp	r0, #0
 3332              		.loc 1 436 2 discriminator 1 view .LVU1078
 3333 0028 C0F2AF80 		blt	.L105
 3334              	.LBE407:
 3335              		.loc 1 436 19 is_stmt 1 discriminator 2 view .LVU1079
 437:/mnt/c/Users/31740/Documents/codes/newcore-rp2350/lib/fdt/fdt_rw.c **** 
 438:/mnt/c/Users/31740/Documents/codes/newcore-rp2350/lib/fdt/fdt_rw.c **** 	mem_rsv_size = (fdt_num_mem_rsv(fdt)+1)
 3336              		.loc 1 438 2 view .LVU1080
 3337              		.loc 1 438 18 is_stmt 0 view .LVU1081
 3338 002c 2046     		mov	r0, r4
 3339              	.LVL311:
 3340              		.loc 1 438 18 view .LVU1082
 3341 002e FFF7FEFF 		bl	fdt_num_mem_rsv
 3342              	.LVL312:
 3343              		.loc 1 438 38 discriminator 1 view .LVU1083
 3344 0032 00F10108 		add	r8, r0, #1
 439:/mnt/c/Users/31740/Documents/codes/newcore-rp2350/lib/fdt/fdt_rw.c **** 		* sizeof(struct fdt_reserve_entry);
 3345              		.loc 1 439 3 view .LVU1084
 3346 0036 4FEAC808 		lsl	r8, r8, #3
 3347              	.LVL313:
 440:/mnt/c/Users/31740/Documents/codes/newcore-rp2350/lib/fdt/fdt_rw.c **** 
 441:/mnt/c/Users/31740/Documents/codes/newcore-rp2350/lib/fdt/fdt_rw.c **** 	if (can_assume(LATEST) || fdt_version(fdt) >= 17) {
 3348              		.loc 1 441 2 is_stmt 1 view .LVU1085
 3349              	.LBB408:
 3350              	.LBI408:
 145:/mnt/c/Users/31740/Documents/codes/newcore-rp2350/include/linux/libfdt.h **** {
 3351              		.loc 3 145 24 view .LVU1086
 3352              	.LBB409:
 147:/mnt/c/Users/31740/Documents/codes/newcore-rp2350/include/linux/libfdt.h **** 
 3353              		.loc 3 147 2 view .LVU1087
 149:/mnt/c/Users/31740/Documents/codes/newcore-rp2350/include/linux/libfdt.h **** 		| ((uint32_t)bp[1] << 16)
 3354              		.loc 3 149 2 view .LVU1088
 149:/mnt/c/Users/31740/Documents/codes/newcore-rp2350/include/linux/libfdt.h **** 		| ((uint32_t)bp[1] << 16)
 3355              		.loc 3 149 22 is_stmt 0 view .LVU1089
 3356 003a 227D     		ldrb	r2, [r4, #20]	@ zero_extendqisi2
 150:/mnt/c/Users/31740/Documents/codes/newcore-rp2350/include/linux/libfdt.h **** 		| ((uint32_t)bp[2] << 8)
 3357              		.loc 3 150 18 view .LVU1090
 3358 003c 637D     		ldrb	r3, [r4, #21]	@ zero_extendqisi2
 150:/mnt/c/Users/31740/Documents/codes/newcore-rp2350/include/linux/libfdt.h **** 		| ((uint32_t)bp[2] << 8)
 3359              		.loc 3 150 22 view .LVU1091
 3360 003e 1B04     		lsls	r3, r3, #16
 150:/mnt/c/Users/31740/Documents/codes/newcore-rp2350/include/linux/libfdt.h **** 		| ((uint32_t)bp[2] << 8)
 3361              		.loc 3 150 3 view .LVU1092
 3362 0040 43EA0263 		orr	r3, r3, r2, lsl #24
 151:/mnt/c/Users/31740/Documents/codes/newcore-rp2350/include/linux/libfdt.h **** 		| bp[3];
 3363              		.loc 3 151 18 view .LVU1093
 3364 0044 A27D     		ldrb	r2, [r4, #22]	@ zero_extendqisi2
 151:/mnt/c/Users/31740/Documents/codes/newcore-rp2350/include/linux/libfdt.h **** 		| bp[3];
 3365              		.loc 3 151 3 view .LVU1094
 3366 0046 43EA0223 		orr	r3, r3, r2, lsl #8
 152:/mnt/c/Users/31740/Documents/codes/newcore-rp2350/include/linux/libfdt.h **** }
 3367              		.loc 3 152 7 view .LVU1095
 3368 004a E27D     		ldrb	r2, [r4, #23]	@ zero_extendqisi2
 152:/mnt/c/Users/31740/Documents/codes/newcore-rp2350/include/linux/libfdt.h **** }
 3369              		.loc 3 152 3 view .LVU1096
 3370 004c 1343     		orrs	r3, r3, r2
ARM GAS  /tmp/ccyijaMA.s 			page 97


 3371              	.LVL314:
 152:/mnt/c/Users/31740/Documents/codes/newcore-rp2350/include/linux/libfdt.h **** }
 3372              		.loc 3 152 3 view .LVU1097
 3373              	.LBE409:
 3374              	.LBE408:
 3375              		.loc 1 441 25 discriminator 1 view .LVU1098
 3376 004e 102B     		cmp	r3, #16
 3377 0050 39D9     		bls	.L107
 442:/mnt/c/Users/31740/Documents/codes/newcore-rp2350/lib/fdt/fdt_rw.c **** 		struct_size = fdt_size_dt_struct(fdt);
 3378              		.loc 1 442 3 is_stmt 1 view .LVU1099
 3379              	.LVL315:
 3380              	.LBB410:
 3381              	.LBI410:
 145:/mnt/c/Users/31740/Documents/codes/newcore-rp2350/include/linux/libfdt.h **** {
 3382              		.loc 3 145 24 view .LVU1100
 3383              	.LBB411:
 147:/mnt/c/Users/31740/Documents/codes/newcore-rp2350/include/linux/libfdt.h **** 
 3384              		.loc 3 147 2 view .LVU1101
 149:/mnt/c/Users/31740/Documents/codes/newcore-rp2350/include/linux/libfdt.h **** 		| ((uint32_t)bp[1] << 16)
 3385              		.loc 3 149 2 view .LVU1102
 149:/mnt/c/Users/31740/Documents/codes/newcore-rp2350/include/linux/libfdt.h **** 		| ((uint32_t)bp[1] << 16)
 3386              		.loc 3 149 22 is_stmt 0 view .LVU1103
 3387 0052 94F82420 		ldrb	r2, [r4, #36]	@ zero_extendqisi2
 150:/mnt/c/Users/31740/Documents/codes/newcore-rp2350/include/linux/libfdt.h **** 		| ((uint32_t)bp[2] << 8)
 3388              		.loc 3 150 18 view .LVU1104
 3389 0056 94F82530 		ldrb	r3, [r4, #37]	@ zero_extendqisi2
 150:/mnt/c/Users/31740/Documents/codes/newcore-rp2350/include/linux/libfdt.h **** 		| ((uint32_t)bp[2] << 8)
 3390              		.loc 3 150 22 view .LVU1105
 3391 005a 1B04     		lsls	r3, r3, #16
 150:/mnt/c/Users/31740/Documents/codes/newcore-rp2350/include/linux/libfdt.h **** 		| ((uint32_t)bp[2] << 8)
 3392              		.loc 3 150 3 view .LVU1106
 3393 005c 43EA0263 		orr	r3, r3, r2, lsl #24
 151:/mnt/c/Users/31740/Documents/codes/newcore-rp2350/include/linux/libfdt.h **** 		| bp[3];
 3394              		.loc 3 151 18 view .LVU1107
 3395 0060 94F82620 		ldrb	r2, [r4, #38]	@ zero_extendqisi2
 151:/mnt/c/Users/31740/Documents/codes/newcore-rp2350/include/linux/libfdt.h **** 		| bp[3];
 3396              		.loc 3 151 3 view .LVU1108
 3397 0064 43EA0223 		orr	r3, r3, r2, lsl #8
 152:/mnt/c/Users/31740/Documents/codes/newcore-rp2350/include/linux/libfdt.h **** }
 3398              		.loc 3 152 7 view .LVU1109
 3399 0068 94F82720 		ldrb	r2, [r4, #39]	@ zero_extendqisi2
 152:/mnt/c/Users/31740/Documents/codes/newcore-rp2350/include/linux/libfdt.h **** }
 3400              		.loc 3 152 3 view .LVU1110
 3401 006c 1343     		orrs	r3, r3, r2
 3402              	.LVL316:
 152:/mnt/c/Users/31740/Documents/codes/newcore-rp2350/include/linux/libfdt.h **** }
 3403              		.loc 3 152 3 view .LVU1111
 3404              	.LBE411:
 3405              	.LBE410:
 3406              		.loc 1 442 15 discriminator 1 view .LVU1112
 3407 006e 0393     		str	r3, [sp, #12]
 3408              	.LVL317:
 3409              	.L108:
 443:/mnt/c/Users/31740/Documents/codes/newcore-rp2350/lib/fdt/fdt_rw.c **** 	} else if (fdt_version(fdt) == 16) {
 444:/mnt/c/Users/31740/Documents/codes/newcore-rp2350/lib/fdt/fdt_rw.c **** 		struct_size = 0;
 445:/mnt/c/Users/31740/Documents/codes/newcore-rp2350/lib/fdt/fdt_rw.c **** 		while (fdt_next_tag(fdt, struct_size, &struct_size) != FDT_END)
 446:/mnt/c/Users/31740/Documents/codes/newcore-rp2350/lib/fdt/fdt_rw.c **** 			;
ARM GAS  /tmp/ccyijaMA.s 			page 98


 447:/mnt/c/Users/31740/Documents/codes/newcore-rp2350/lib/fdt/fdt_rw.c **** 		if (struct_size < 0)
 448:/mnt/c/Users/31740/Documents/codes/newcore-rp2350/lib/fdt/fdt_rw.c **** 			return struct_size;
 449:/mnt/c/Users/31740/Documents/codes/newcore-rp2350/lib/fdt/fdt_rw.c **** 	} else {
 450:/mnt/c/Users/31740/Documents/codes/newcore-rp2350/lib/fdt/fdt_rw.c **** 		return -FDT_ERR_BADVERSION;
 451:/mnt/c/Users/31740/Documents/codes/newcore-rp2350/lib/fdt/fdt_rw.c **** 	}
 452:/mnt/c/Users/31740/Documents/codes/newcore-rp2350/lib/fdt/fdt_rw.c **** 
 453:/mnt/c/Users/31740/Documents/codes/newcore-rp2350/lib/fdt/fdt_rw.c **** 	if (can_assume(LIBFDT_ORDER) ||
 3410              		.loc 1 453 2 is_stmt 1 view .LVU1113
 454:/mnt/c/Users/31740/Documents/codes/newcore-rp2350/lib/fdt/fdt_rw.c **** 	    !fdt_blocks_misordered_(fdt, mem_rsv_size, struct_size)) {
 3411              		.loc 1 454 7 is_stmt 0 view .LVU1114
 3412 0070 DDF80C90 		ldr	r9, [sp, #12]
 3413 0074 4A46     		mov	r2, r9
 3414 0076 4146     		mov	r1, r8
 3415 0078 2046     		mov	r0, r4
 3416 007a FFF7FEFF 		bl	fdt_blocks_misordered_
 3417              	.LVL318:
 453:/mnt/c/Users/31740/Documents/codes/newcore-rp2350/lib/fdt/fdt_rw.c **** 	    !fdt_blocks_misordered_(fdt, mem_rsv_size, struct_size)) {
 3418              		.loc 1 453 31 discriminator 1 view .LVU1115
 3419 007e 88B3     		cbz	r0, .L118
 455:/mnt/c/Users/31740/Documents/codes/newcore-rp2350/lib/fdt/fdt_rw.c **** 		/* no further work necessary */
 456:/mnt/c/Users/31740/Documents/codes/newcore-rp2350/lib/fdt/fdt_rw.c **** 		err = fdt_move(fdt, buf, bufsize);
 457:/mnt/c/Users/31740/Documents/codes/newcore-rp2350/lib/fdt/fdt_rw.c **** 		if (err)
 458:/mnt/c/Users/31740/Documents/codes/newcore-rp2350/lib/fdt/fdt_rw.c **** 			return err;
 459:/mnt/c/Users/31740/Documents/codes/newcore-rp2350/lib/fdt/fdt_rw.c **** 		fdt_set_version(buf, 17);
 460:/mnt/c/Users/31740/Documents/codes/newcore-rp2350/lib/fdt/fdt_rw.c **** 		fdt_set_size_dt_struct(buf, struct_size);
 461:/mnt/c/Users/31740/Documents/codes/newcore-rp2350/lib/fdt/fdt_rw.c **** 		fdt_set_totalsize(buf, bufsize);
 462:/mnt/c/Users/31740/Documents/codes/newcore-rp2350/lib/fdt/fdt_rw.c **** 		return 0;
 463:/mnt/c/Users/31740/Documents/codes/newcore-rp2350/lib/fdt/fdt_rw.c **** 	}
 464:/mnt/c/Users/31740/Documents/codes/newcore-rp2350/lib/fdt/fdt_rw.c **** 
 465:/mnt/c/Users/31740/Documents/codes/newcore-rp2350/lib/fdt/fdt_rw.c **** 	/* Need to reorder */
 466:/mnt/c/Users/31740/Documents/codes/newcore-rp2350/lib/fdt/fdt_rw.c **** 	newsize = FDT_ALIGN(sizeof(struct fdt_header), 8) + mem_rsv_size
 3420              		.loc 1 466 2 is_stmt 1 view .LVU1116
 467:/mnt/c/Users/31740/Documents/codes/newcore-rp2350/lib/fdt/fdt_rw.c **** 		+ struct_size + fdt_size_dt_strings(fdt);
 3421              		.loc 1 467 3 is_stmt 0 view .LVU1117
 3422 0080 09EB080A 		add	r10, r9, r8
 3423              	.LVL319:
 3424              	.LBB412:
 3425              	.LBI412:
 145:/mnt/c/Users/31740/Documents/codes/newcore-rp2350/include/linux/libfdt.h **** {
 3426              		.loc 3 145 24 is_stmt 1 view .LVU1118
 3427              	.LBB413:
 147:/mnt/c/Users/31740/Documents/codes/newcore-rp2350/include/linux/libfdt.h **** 
 3428              		.loc 3 147 2 view .LVU1119
 149:/mnt/c/Users/31740/Documents/codes/newcore-rp2350/include/linux/libfdt.h **** 		| ((uint32_t)bp[1] << 16)
 3429              		.loc 3 149 2 view .LVU1120
 149:/mnt/c/Users/31740/Documents/codes/newcore-rp2350/include/linux/libfdt.h **** 		| ((uint32_t)bp[1] << 16)
 3430              		.loc 3 149 22 is_stmt 0 view .LVU1121
 3431 0084 94F82020 		ldrb	r2, [r4, #32]	@ zero_extendqisi2
 150:/mnt/c/Users/31740/Documents/codes/newcore-rp2350/include/linux/libfdt.h **** 		| ((uint32_t)bp[2] << 8)
 3432              		.loc 3 150 18 view .LVU1122
 3433 0088 94F82130 		ldrb	r3, [r4, #33]	@ zero_extendqisi2
 150:/mnt/c/Users/31740/Documents/codes/newcore-rp2350/include/linux/libfdt.h **** 		| ((uint32_t)bp[2] << 8)
 3434              		.loc 3 150 22 view .LVU1123
 3435 008c 1B04     		lsls	r3, r3, #16
 150:/mnt/c/Users/31740/Documents/codes/newcore-rp2350/include/linux/libfdt.h **** 		| ((uint32_t)bp[2] << 8)
 3436              		.loc 3 150 3 view .LVU1124
 3437 008e 43EA0263 		orr	r3, r3, r2, lsl #24
ARM GAS  /tmp/ccyijaMA.s 			page 99


 151:/mnt/c/Users/31740/Documents/codes/newcore-rp2350/include/linux/libfdt.h **** 		| bp[3];
 3438              		.loc 3 151 18 view .LVU1125
 3439 0092 94F82220 		ldrb	r2, [r4, #34]	@ zero_extendqisi2
 151:/mnt/c/Users/31740/Documents/codes/newcore-rp2350/include/linux/libfdt.h **** 		| bp[3];
 3440              		.loc 3 151 3 view .LVU1126
 3441 0096 43EA0223 		orr	r3, r3, r2, lsl #8
 152:/mnt/c/Users/31740/Documents/codes/newcore-rp2350/include/linux/libfdt.h **** }
 3442              		.loc 3 152 7 view .LVU1127
 3443 009a 94F82320 		ldrb	r2, [r4, #35]	@ zero_extendqisi2
 152:/mnt/c/Users/31740/Documents/codes/newcore-rp2350/include/linux/libfdt.h **** }
 3444              		.loc 3 152 3 view .LVU1128
 3445 009e 1343     		orrs	r3, r3, r2
 3446              	.LVL320:
 152:/mnt/c/Users/31740/Documents/codes/newcore-rp2350/include/linux/libfdt.h **** }
 3447              		.loc 3 152 3 view .LVU1129
 3448              	.LBE413:
 3449              	.LBE412:
 3450              		.loc 1 467 17 discriminator 1 view .LVU1130
 3451 00a0 9A44     		add	r10, r10, r3
 3452 00a2 0AF1280A 		add	r10, r10, #40
 3453              	.LVL321:
 468:/mnt/c/Users/31740/Documents/codes/newcore-rp2350/lib/fdt/fdt_rw.c **** 
 469:/mnt/c/Users/31740/Documents/codes/newcore-rp2350/lib/fdt/fdt_rw.c **** 	if (bufsize < newsize)
 3454              		.loc 1 469 2 is_stmt 1 view .LVU1131
 3455              		.loc 1 469 5 is_stmt 0 view .LVU1132
 3456 00a6 BA45     		cmp	r10, r7
 3457 00a8 75DC     		bgt	.L113
 470:/mnt/c/Users/31740/Documents/codes/newcore-rp2350/lib/fdt/fdt_rw.c **** 		return -FDT_ERR_NOSPACE;
 471:/mnt/c/Users/31740/Documents/codes/newcore-rp2350/lib/fdt/fdt_rw.c **** 
 472:/mnt/c/Users/31740/Documents/codes/newcore-rp2350/lib/fdt/fdt_rw.c **** 	/* First attempt to build converted tree at beginning of buffer */
 473:/mnt/c/Users/31740/Documents/codes/newcore-rp2350/lib/fdt/fdt_rw.c **** 	tmp = buf;
 3458              		.loc 1 473 2 is_stmt 1 view .LVU1133
 3459              	.LVL322:
 474:/mnt/c/Users/31740/Documents/codes/newcore-rp2350/lib/fdt/fdt_rw.c **** 	/* But if that overlaps with the old tree... */
 475:/mnt/c/Users/31740/Documents/codes/newcore-rp2350/lib/fdt/fdt_rw.c **** 	if (((tmp + newsize) > fdtstart) && (tmp < fdtend)) {
 3460              		.loc 1 475 2 view .LVU1134
 3461              		.loc 1 475 12 is_stmt 0 view .LVU1135
 3462 00aa 06EB0A02 		add	r2, r6, r10
 3463              		.loc 1 475 5 view .LVU1136
 3464 00ae A242     		cmp	r2, r4
 3465 00b0 3CD9     		bls	.L114
 3466              		.loc 1 475 35 discriminator 1 view .LVU1137
 3467 00b2 B542     		cmp	r5, r6
 3468 00b4 3CD9     		bls	.L115
 476:/mnt/c/Users/31740/Documents/codes/newcore-rp2350/lib/fdt/fdt_rw.c **** 		/* Try right after the old tree instead */
 477:/mnt/c/Users/31740/Documents/codes/newcore-rp2350/lib/fdt/fdt_rw.c **** 		tmp = (char *)(uintptr_t)fdtend;
 3469              		.loc 1 477 3 is_stmt 1 view .LVU1138
 3470              	.LVL323:
 478:/mnt/c/Users/31740/Documents/codes/newcore-rp2350/lib/fdt/fdt_rw.c **** 		if ((tmp + newsize) > ((char *)buf + bufsize))
 3471              		.loc 1 478 3 view .LVU1139
 3472              		.loc 1 478 12 is_stmt 0 view .LVU1140
 3473 00b6 05EB0A02 		add	r2, r5, r10
 3474              		.loc 1 478 38 view .LVU1141
 3475 00ba F119     		adds	r1, r6, r7
 3476              		.loc 1 478 6 view .LVU1142
 3477 00bc 8A42     		cmp	r2, r1
 3478 00be 38D9     		bls	.L111
ARM GAS  /tmp/ccyijaMA.s 			page 100


 479:/mnt/c/Users/31740/Documents/codes/newcore-rp2350/lib/fdt/fdt_rw.c **** 			return -FDT_ERR_NOSPACE;
 3479              		.loc 1 479 11 view .LVU1143
 3480 00c0 6FF00200 		mvn	r0, #2
 3481 00c4 61E0     		b	.L105
 3482              	.LVL324:
 3483              	.L107:
 443:/mnt/c/Users/31740/Documents/codes/newcore-rp2350/lib/fdt/fdt_rw.c **** 		struct_size = 0;
 3484              		.loc 1 443 9 is_stmt 1 view .LVU1144
 443:/mnt/c/Users/31740/Documents/codes/newcore-rp2350/lib/fdt/fdt_rw.c **** 		struct_size = 0;
 3485              		.loc 1 443 12 is_stmt 0 discriminator 1 view .LVU1145
 3486 00c6 102B     		cmp	r3, #16
 3487 00c8 62D1     		bne	.L112
 444:/mnt/c/Users/31740/Documents/codes/newcore-rp2350/lib/fdt/fdt_rw.c **** 		while (fdt_next_tag(fdt, struct_size, &struct_size) != FDT_END)
 3488              		.loc 1 444 3 is_stmt 1 view .LVU1146
 444:/mnt/c/Users/31740/Documents/codes/newcore-rp2350/lib/fdt/fdt_rw.c **** 		while (fdt_next_tag(fdt, struct_size, &struct_size) != FDT_END)
 3489              		.loc 1 444 15 is_stmt 0 view .LVU1147
 3490 00ca 0023     		movs	r3, #0
 3491 00cc 0393     		str	r3, [sp, #12]
 445:/mnt/c/Users/31740/Documents/codes/newcore-rp2350/lib/fdt/fdt_rw.c **** 			;
 3492              		.loc 1 445 3 is_stmt 1 view .LVU1148
 3493              	.L109:
 445:/mnt/c/Users/31740/Documents/codes/newcore-rp2350/lib/fdt/fdt_rw.c **** 			;
 3494              		.loc 1 445 55 discriminator 1 view .LVU1149
 445:/mnt/c/Users/31740/Documents/codes/newcore-rp2350/lib/fdt/fdt_rw.c **** 			;
 3495              		.loc 1 445 10 is_stmt 0 discriminator 1 view .LVU1150
 3496 00ce 03AA     		add	r2, sp, #12
 3497 00d0 0399     		ldr	r1, [sp, #12]
 3498 00d2 2046     		mov	r0, r4
 3499 00d4 FFF7FEFF 		bl	fdt_next_tag
 3500              	.LVL325:
 445:/mnt/c/Users/31740/Documents/codes/newcore-rp2350/lib/fdt/fdt_rw.c **** 			;
 3501              		.loc 1 445 55 discriminator 1 view .LVU1151
 3502 00d8 0928     		cmp	r0, #9
 3503 00da F8D1     		bne	.L109
 447:/mnt/c/Users/31740/Documents/codes/newcore-rp2350/lib/fdt/fdt_rw.c **** 			return struct_size;
 3504              		.loc 1 447 3 is_stmt 1 view .LVU1152
 447:/mnt/c/Users/31740/Documents/codes/newcore-rp2350/lib/fdt/fdt_rw.c **** 			return struct_size;
 3505              		.loc 1 447 19 is_stmt 0 view .LVU1153
 3506 00dc 0398     		ldr	r0, [sp, #12]
 447:/mnt/c/Users/31740/Documents/codes/newcore-rp2350/lib/fdt/fdt_rw.c **** 			return struct_size;
 3507              		.loc 1 447 6 view .LVU1154
 3508 00de 0028     		cmp	r0, #0
 3509 00e0 C6DA     		bge	.L108
 3510 00e2 52E0     		b	.L105
 3511              	.LVL326:
 3512              	.L118:
 456:/mnt/c/Users/31740/Documents/codes/newcore-rp2350/lib/fdt/fdt_rw.c **** 		if (err)
 3513              		.loc 1 456 3 is_stmt 1 view .LVU1155
 456:/mnt/c/Users/31740/Documents/codes/newcore-rp2350/lib/fdt/fdt_rw.c **** 		if (err)
 3514              		.loc 1 456 9 is_stmt 0 view .LVU1156
 3515 00e4 3A46     		mov	r2, r7
 3516 00e6 3146     		mov	r1, r6
 3517 00e8 2046     		mov	r0, r4
 3518 00ea FFF7FEFF 		bl	fdt_move
 3519              	.LVL327:
 457:/mnt/c/Users/31740/Documents/codes/newcore-rp2350/lib/fdt/fdt_rw.c **** 			return err;
 3520              		.loc 1 457 3 is_stmt 1 view .LVU1157
ARM GAS  /tmp/ccyijaMA.s 			page 101


 457:/mnt/c/Users/31740/Documents/codes/newcore-rp2350/lib/fdt/fdt_rw.c **** 			return err;
 3521              		.loc 1 457 6 is_stmt 0 view .LVU1158
 3522 00ee 0028     		cmp	r0, #0
 3523 00f0 4BD1     		bne	.L105
 459:/mnt/c/Users/31740/Documents/codes/newcore-rp2350/lib/fdt/fdt_rw.c **** 		fdt_set_size_dt_struct(buf, struct_size);
 3524              		.loc 1 459 3 is_stmt 1 view .LVU1159
 3525              	.LVL328:
 3526              	.LBB414:
 3527              	.LBI414:
 275:/mnt/c/Users/31740/Documents/codes/newcore-rp2350/include/linux/libfdt.h **** fdt_set_hdr_(last_comp_version)
 3528              		.loc 3 275 1 view .LVU1160
 3529              	.LBB415:
 275:/mnt/c/Users/31740/Documents/codes/newcore-rp2350/include/linux/libfdt.h **** fdt_set_hdr_(last_comp_version)
 3530              		.loc 3 275 1 view .LVU1161
 275:/mnt/c/Users/31740/Documents/codes/newcore-rp2350/include/linux/libfdt.h **** fdt_set_hdr_(last_comp_version)
 3531              		.loc 3 275 1 view .LVU1162
 275:/mnt/c/Users/31740/Documents/codes/newcore-rp2350/include/linux/libfdt.h **** fdt_set_hdr_(last_comp_version)
 3532              		.loc 3 275 1 is_stmt 0 discriminator 1 view .LVU1163
 3533 00f2 4FF08853 		mov	r3, #285212672
 3534 00f6 7361     		str	r3, [r6, #20]
 3535              	.LVL329:
 275:/mnt/c/Users/31740/Documents/codes/newcore-rp2350/include/linux/libfdt.h **** fdt_set_hdr_(last_comp_version)
 3536              		.loc 3 275 1 discriminator 1 view .LVU1164
 3537              	.LBE415:
 3538              	.LBE414:
 460:/mnt/c/Users/31740/Documents/codes/newcore-rp2350/lib/fdt/fdt_rw.c **** 		fdt_set_totalsize(buf, bufsize);
 3539              		.loc 1 460 3 is_stmt 1 view .LVU1165
 3540 00f8 039A     		ldr	r2, [sp, #12]
 3541              	.LVL330:
 3542              	.LBB416:
 3543              	.LBI416:
 279:/mnt/c/Users/31740/Documents/codes/newcore-rp2350/include/linux/libfdt.h **** #undef fdt_set_hdr_
 3544              		.loc 3 279 1 view .LVU1166
 3545              	.LBB417:
 279:/mnt/c/Users/31740/Documents/codes/newcore-rp2350/include/linux/libfdt.h **** #undef fdt_set_hdr_
 3546              		.loc 3 279 1 view .LVU1167
 279:/mnt/c/Users/31740/Documents/codes/newcore-rp2350/include/linux/libfdt.h **** #undef fdt_set_hdr_
 3547              		.loc 3 279 1 view .LVU1168
 3548              	.LBB418:
 3549              	.LBI418:
  57:/mnt/c/Users/31740/Documents/codes/newcore-rp2350/include/linux/libfdt_env.h **** {
 3550              		.loc 4 57 23 view .LVU1169
 3551              	.LBB419:
  59:/mnt/c/Users/31740/Documents/codes/newcore-rp2350/include/linux/libfdt_env.h **** }
 3552              		.loc 4 59 2 view .LVU1170
  59:/mnt/c/Users/31740/Documents/codes/newcore-rp2350/include/linux/libfdt_env.h **** }
 3553              		.loc 4 59 28 is_stmt 0 view .LVU1171
 3554 00fa C2F30723 		ubfx	r3, r2, #8, #8
 3555 00fe 1B04     		lsls	r3, r3, #16
 3556 0100 43EA0263 		orr	r3, r3, r2, lsl #24
 3557 0104 C2F30741 		ubfx	r1, r2, #16, #8
 3558 0108 43EA0123 		orr	r3, r3, r1, lsl #8
  59:/mnt/c/Users/31740/Documents/codes/newcore-rp2350/include/linux/libfdt_env.h **** }
 3559              		.loc 4 59 9 view .LVU1172
 3560 010c 43EA1263 		orr	r3, r3, r2, lsr #24
 3561              	.LVL331:
  59:/mnt/c/Users/31740/Documents/codes/newcore-rp2350/include/linux/libfdt_env.h **** }
ARM GAS  /tmp/ccyijaMA.s 			page 102


 3562              		.loc 4 59 9 view .LVU1173
 3563              	.LBE419:
 3564              	.LBE418:
 279:/mnt/c/Users/31740/Documents/codes/newcore-rp2350/include/linux/libfdt.h **** #undef fdt_set_hdr_
 3565              		.loc 3 279 1 discriminator 1 view .LVU1174
 3566 0110 7362     		str	r3, [r6, #36]
 3567              	.LVL332:
 279:/mnt/c/Users/31740/Documents/codes/newcore-rp2350/include/linux/libfdt.h **** #undef fdt_set_hdr_
 3568              		.loc 3 279 1 discriminator 1 view .LVU1175
 3569              	.LBE417:
 3570              	.LBE416:
 461:/mnt/c/Users/31740/Documents/codes/newcore-rp2350/lib/fdt/fdt_rw.c **** 		return 0;
 3571              		.loc 1 461 3 is_stmt 1 view .LVU1176
 3572              	.LBB420:
 3573              	.LBI420:
 271:/mnt/c/Users/31740/Documents/codes/newcore-rp2350/include/linux/libfdt.h **** fdt_set_hdr_(off_dt_struct)
 3574              		.loc 3 271 1 view .LVU1177
 3575              	.LBB421:
 271:/mnt/c/Users/31740/Documents/codes/newcore-rp2350/include/linux/libfdt.h **** fdt_set_hdr_(off_dt_struct)
 3576              		.loc 3 271 1 view .LVU1178
 271:/mnt/c/Users/31740/Documents/codes/newcore-rp2350/include/linux/libfdt.h **** fdt_set_hdr_(off_dt_struct)
 3577              		.loc 3 271 1 view .LVU1179
 3578              	.LBB422:
 3579              	.LBI422:
  57:/mnt/c/Users/31740/Documents/codes/newcore-rp2350/include/linux/libfdt_env.h **** {
 3580              		.loc 4 57 23 view .LVU1180
 3581              	.LBB423:
  59:/mnt/c/Users/31740/Documents/codes/newcore-rp2350/include/linux/libfdt_env.h **** }
 3582              		.loc 4 59 2 view .LVU1181
  59:/mnt/c/Users/31740/Documents/codes/newcore-rp2350/include/linux/libfdt_env.h **** }
 3583              		.loc 4 59 28 is_stmt 0 view .LVU1182
 3584 0112 C7F30723 		ubfx	r3, r7, #8, #8
 3585 0116 1B04     		lsls	r3, r3, #16
 3586 0118 43EA0763 		orr	r3, r3, r7, lsl #24
 3587 011c C7F30742 		ubfx	r2, r7, #16, #8
 3588 0120 43EA0223 		orr	r3, r3, r2, lsl #8
  59:/mnt/c/Users/31740/Documents/codes/newcore-rp2350/include/linux/libfdt_env.h **** }
 3589              		.loc 4 59 9 view .LVU1183
 3590 0124 43EA1763 		orr	r3, r3, r7, lsr #24
 3591              	.LVL333:
  59:/mnt/c/Users/31740/Documents/codes/newcore-rp2350/include/linux/libfdt_env.h **** }
 3592              		.loc 4 59 9 view .LVU1184
 3593              	.LBE423:
 3594              	.LBE422:
 271:/mnt/c/Users/31740/Documents/codes/newcore-rp2350/include/linux/libfdt.h **** fdt_set_hdr_(off_dt_struct)
 3595              		.loc 3 271 1 discriminator 1 view .LVU1185
 3596 0128 7360     		str	r3, [r6, #4]
 3597              	.LVL334:
 271:/mnt/c/Users/31740/Documents/codes/newcore-rp2350/include/linux/libfdt.h **** fdt_set_hdr_(off_dt_struct)
 3598              		.loc 3 271 1 discriminator 1 view .LVU1186
 3599              	.LBE421:
 3600              	.LBE420:
 462:/mnt/c/Users/31740/Documents/codes/newcore-rp2350/lib/fdt/fdt_rw.c **** 	}
 3601              		.loc 1 462 3 is_stmt 1 view .LVU1187
 462:/mnt/c/Users/31740/Documents/codes/newcore-rp2350/lib/fdt/fdt_rw.c **** 	}
 3602              		.loc 1 462 10 is_stmt 0 view .LVU1188
 3603 012a 2EE0     		b	.L105
ARM GAS  /tmp/ccyijaMA.s 			page 103


 3604              	.LVL335:
 3605              	.L114:
 473:/mnt/c/Users/31740/Documents/codes/newcore-rp2350/lib/fdt/fdt_rw.c **** 	/* But if that overlaps with the old tree... */
 3606              		.loc 1 473 6 view .LVU1189
 3607 012c 3546     		mov	r5, r6
 3608              	.LVL336:
 473:/mnt/c/Users/31740/Documents/codes/newcore-rp2350/lib/fdt/fdt_rw.c **** 	/* But if that overlaps with the old tree... */
 3609              		.loc 1 473 6 view .LVU1190
 3610 012e 00E0     		b	.L111
 3611              	.LVL337:
 3612              	.L115:
 473:/mnt/c/Users/31740/Documents/codes/newcore-rp2350/lib/fdt/fdt_rw.c **** 	/* But if that overlaps with the old tree... */
 3613              		.loc 1 473 6 view .LVU1191
 3614 0130 3546     		mov	r5, r6
 3615              	.LVL338:
 3616              	.L111:
 480:/mnt/c/Users/31740/Documents/codes/newcore-rp2350/lib/fdt/fdt_rw.c **** 	}
 481:/mnt/c/Users/31740/Documents/codes/newcore-rp2350/lib/fdt/fdt_rw.c **** 
 482:/mnt/c/Users/31740/Documents/codes/newcore-rp2350/lib/fdt/fdt_rw.c **** 	fdt_packblocks_(fdt, tmp, mem_rsv_size, struct_size,
 3617              		.loc 1 482 2 is_stmt 1 view .LVU1192
 3618              		.loc 1 482 2 is_stmt 0 view .LVU1193
 3619 0132 0093     		str	r3, [sp]
 3620 0134 4B46     		mov	r3, r9
 3621 0136 4246     		mov	r2, r8
 3622 0138 2946     		mov	r1, r5
 3623 013a 2046     		mov	r0, r4
 3624 013c FFF7FEFF 		bl	fdt_packblocks_
 3625              	.LVL339:
 483:/mnt/c/Users/31740/Documents/codes/newcore-rp2350/lib/fdt/fdt_rw.c **** 			fdt_size_dt_strings(fdt));
 484:/mnt/c/Users/31740/Documents/codes/newcore-rp2350/lib/fdt/fdt_rw.c **** 	memmove(buf, tmp, newsize);
 3626              		.loc 1 484 2 is_stmt 1 view .LVU1194
 3627 0140 5246     		mov	r2, r10
 3628 0142 2946     		mov	r1, r5
 3629 0144 3046     		mov	r0, r6
 3630 0146 FFF7FEFF 		bl	memmove
 3631              	.LVL340:
 485:/mnt/c/Users/31740/Documents/codes/newcore-rp2350/lib/fdt/fdt_rw.c **** 
 486:/mnt/c/Users/31740/Documents/codes/newcore-rp2350/lib/fdt/fdt_rw.c **** 	fdt_set_magic(buf, FDT_MAGIC);
 3632              		.loc 1 486 2 view .LVU1195
 3633              	.LBB424:
 3634              	.LBI424:
 270:/mnt/c/Users/31740/Documents/codes/newcore-rp2350/include/linux/libfdt.h **** fdt_set_hdr_(totalsize)
 3635              		.loc 3 270 1 view .LVU1196
 3636              	.LBB425:
 270:/mnt/c/Users/31740/Documents/codes/newcore-rp2350/include/linux/libfdt.h **** fdt_set_hdr_(totalsize)
 3637              		.loc 3 270 1 view .LVU1197
 270:/mnt/c/Users/31740/Documents/codes/newcore-rp2350/include/linux/libfdt.h **** fdt_set_hdr_(totalsize)
 3638              		.loc 3 270 1 view .LVU1198
 270:/mnt/c/Users/31740/Documents/codes/newcore-rp2350/include/linux/libfdt.h **** fdt_set_hdr_(totalsize)
 3639              		.loc 3 270 1 is_stmt 0 discriminator 1 view .LVU1199
 3640 014a 144B     		ldr	r3, .L119
 3641 014c 3360     		str	r3, [r6]
 3642              	.LVL341:
 270:/mnt/c/Users/31740/Documents/codes/newcore-rp2350/include/linux/libfdt.h **** fdt_set_hdr_(totalsize)
 3643              		.loc 3 270 1 discriminator 1 view .LVU1200
 3644              	.LBE425:
 3645              	.LBE424:
ARM GAS  /tmp/ccyijaMA.s 			page 104


 487:/mnt/c/Users/31740/Documents/codes/newcore-rp2350/lib/fdt/fdt_rw.c **** 	fdt_set_totalsize(buf, bufsize);
 3646              		.loc 1 487 2 is_stmt 1 view .LVU1201
 3647              	.LBB426:
 3648              	.LBI426:
 271:/mnt/c/Users/31740/Documents/codes/newcore-rp2350/include/linux/libfdt.h **** fdt_set_hdr_(off_dt_struct)
 3649              		.loc 3 271 1 view .LVU1202
 3650              	.LBB427:
 271:/mnt/c/Users/31740/Documents/codes/newcore-rp2350/include/linux/libfdt.h **** fdt_set_hdr_(off_dt_struct)
 3651              		.loc 3 271 1 view .LVU1203
 271:/mnt/c/Users/31740/Documents/codes/newcore-rp2350/include/linux/libfdt.h **** fdt_set_hdr_(off_dt_struct)
 3652              		.loc 3 271 1 view .LVU1204
 3653              	.LBB428:
 3654              	.LBI428:
  57:/mnt/c/Users/31740/Documents/codes/newcore-rp2350/include/linux/libfdt_env.h **** {
 3655              		.loc 4 57 23 view .LVU1205
 3656              	.LBB429:
  59:/mnt/c/Users/31740/Documents/codes/newcore-rp2350/include/linux/libfdt_env.h **** }
 3657              		.loc 4 59 2 view .LVU1206
  59:/mnt/c/Users/31740/Documents/codes/newcore-rp2350/include/linux/libfdt_env.h **** }
 3658              		.loc 4 59 28 is_stmt 0 view .LVU1207
 3659 014e C7F30723 		ubfx	r3, r7, #8, #8
 3660 0152 1B04     		lsls	r3, r3, #16
 3661 0154 43EA0763 		orr	r3, r3, r7, lsl #24
 3662 0158 C7F30742 		ubfx	r2, r7, #16, #8
 3663 015c 43EA0223 		orr	r3, r3, r2, lsl #8
  59:/mnt/c/Users/31740/Documents/codes/newcore-rp2350/include/linux/libfdt_env.h **** }
 3664              		.loc 4 59 9 view .LVU1208
 3665 0160 43EA1763 		orr	r3, r3, r7, lsr #24
 3666              	.LVL342:
  59:/mnt/c/Users/31740/Documents/codes/newcore-rp2350/include/linux/libfdt_env.h **** }
 3667              		.loc 4 59 9 view .LVU1209
 3668              	.LBE429:
 3669              	.LBE428:
 271:/mnt/c/Users/31740/Documents/codes/newcore-rp2350/include/linux/libfdt.h **** fdt_set_hdr_(off_dt_struct)
 3670              		.loc 3 271 1 discriminator 1 view .LVU1210
 3671 0164 7360     		str	r3, [r6, #4]
 3672              	.LVL343:
 271:/mnt/c/Users/31740/Documents/codes/newcore-rp2350/include/linux/libfdt.h **** fdt_set_hdr_(off_dt_struct)
 3673              		.loc 3 271 1 discriminator 1 view .LVU1211
 3674              	.LBE427:
 3675              	.LBE426:
 488:/mnt/c/Users/31740/Documents/codes/newcore-rp2350/lib/fdt/fdt_rw.c **** 	fdt_set_version(buf, 17);
 3676              		.loc 1 488 2 is_stmt 1 view .LVU1212
 3677              	.LBB430:
 3678              	.LBI430:
 275:/mnt/c/Users/31740/Documents/codes/newcore-rp2350/include/linux/libfdt.h **** fdt_set_hdr_(last_comp_version)
 3679              		.loc 3 275 1 view .LVU1213
 3680              	.LBB431:
 275:/mnt/c/Users/31740/Documents/codes/newcore-rp2350/include/linux/libfdt.h **** fdt_set_hdr_(last_comp_version)
 3681              		.loc 3 275 1 view .LVU1214
 275:/mnt/c/Users/31740/Documents/codes/newcore-rp2350/include/linux/libfdt.h **** fdt_set_hdr_(last_comp_version)
 3682              		.loc 3 275 1 view .LVU1215
 275:/mnt/c/Users/31740/Documents/codes/newcore-rp2350/include/linux/libfdt.h **** fdt_set_hdr_(last_comp_version)
 3683              		.loc 3 275 1 is_stmt 0 discriminator 1 view .LVU1216
 3684 0166 4FF08853 		mov	r3, #285212672
 3685 016a 7361     		str	r3, [r6, #20]
 3686              	.LVL344:
ARM GAS  /tmp/ccyijaMA.s 			page 105


 275:/mnt/c/Users/31740/Documents/codes/newcore-rp2350/include/linux/libfdt.h **** fdt_set_hdr_(last_comp_version)
 3687              		.loc 3 275 1 discriminator 1 view .LVU1217
 3688              	.LBE431:
 3689              	.LBE430:
 489:/mnt/c/Users/31740/Documents/codes/newcore-rp2350/lib/fdt/fdt_rw.c **** 	fdt_set_last_comp_version(buf, 16);
 3690              		.loc 1 489 2 is_stmt 1 view .LVU1218
 3691              	.LBB432:
 3692              	.LBI432:
 276:/mnt/c/Users/31740/Documents/codes/newcore-rp2350/include/linux/libfdt.h **** fdt_set_hdr_(boot_cpuid_phys)
 3693              		.loc 3 276 1 view .LVU1219
 3694              	.LBB433:
 276:/mnt/c/Users/31740/Documents/codes/newcore-rp2350/include/linux/libfdt.h **** fdt_set_hdr_(boot_cpuid_phys)
 3695              		.loc 3 276 1 view .LVU1220
 276:/mnt/c/Users/31740/Documents/codes/newcore-rp2350/include/linux/libfdt.h **** fdt_set_hdr_(boot_cpuid_phys)
 3696              		.loc 3 276 1 view .LVU1221
 276:/mnt/c/Users/31740/Documents/codes/newcore-rp2350/include/linux/libfdt.h **** fdt_set_hdr_(boot_cpuid_phys)
 3697              		.loc 3 276 1 is_stmt 0 discriminator 1 view .LVU1222
 3698 016c 4FF08053 		mov	r3, #268435456
 3699 0170 B361     		str	r3, [r6, #24]
 3700              	.LVL345:
 276:/mnt/c/Users/31740/Documents/codes/newcore-rp2350/include/linux/libfdt.h **** fdt_set_hdr_(boot_cpuid_phys)
 3701              		.loc 3 276 1 discriminator 1 view .LVU1223
 3702              	.LBE433:
 3703              	.LBE432:
 490:/mnt/c/Users/31740/Documents/codes/newcore-rp2350/lib/fdt/fdt_rw.c **** 	fdt_set_boot_cpuid_phys(buf, fdt_boot_cpuid_phys(fdt));
 3704              		.loc 1 490 2 is_stmt 1 view .LVU1224
 3705              	.LBB434:
 3706              	.LBI434:
 145:/mnt/c/Users/31740/Documents/codes/newcore-rp2350/include/linux/libfdt.h **** {
 3707              		.loc 3 145 24 view .LVU1225
 3708              	.LBB435:
 147:/mnt/c/Users/31740/Documents/codes/newcore-rp2350/include/linux/libfdt.h **** 
 3709              		.loc 3 147 2 view .LVU1226
 149:/mnt/c/Users/31740/Documents/codes/newcore-rp2350/include/linux/libfdt.h **** 		| ((uint32_t)bp[1] << 16)
 3710              		.loc 3 149 2 view .LVU1227
 150:/mnt/c/Users/31740/Documents/codes/newcore-rp2350/include/linux/libfdt.h **** 		| ((uint32_t)bp[2] << 8)
 3711              		.loc 3 150 18 is_stmt 0 view .LVU1228
 3712 0172 627F     		ldrb	r2, [r4, #29]	@ zero_extendqisi2
 151:/mnt/c/Users/31740/Documents/codes/newcore-rp2350/include/linux/libfdt.h **** 		| bp[3];
 3713              		.loc 3 151 18 view .LVU1229
 3714 0174 A37F     		ldrb	r3, [r4, #30]	@ zero_extendqisi2
 152:/mnt/c/Users/31740/Documents/codes/newcore-rp2350/include/linux/libfdt.h **** }
 3715              		.loc 3 152 7 view .LVU1230
 3716 0176 E17F     		ldrb	r1, [r4, #31]	@ zero_extendqisi2
 3717              	.LVL346:
 152:/mnt/c/Users/31740/Documents/codes/newcore-rp2350/include/linux/libfdt.h **** }
 3718              		.loc 3 152 7 view .LVU1231
 3719              	.LBE435:
 3720              	.LBE434:
 3721              	.LBB436:
 3722              	.LBI436:
 277:/mnt/c/Users/31740/Documents/codes/newcore-rp2350/include/linux/libfdt.h **** fdt_set_hdr_(size_dt_strings)
 3723              		.loc 3 277 1 is_stmt 1 view .LVU1232
 3724              	.LBB437:
 277:/mnt/c/Users/31740/Documents/codes/newcore-rp2350/include/linux/libfdt.h **** fdt_set_hdr_(size_dt_strings)
 3725              		.loc 3 277 1 view .LVU1233
 277:/mnt/c/Users/31740/Documents/codes/newcore-rp2350/include/linux/libfdt.h **** fdt_set_hdr_(size_dt_strings)
ARM GAS  /tmp/ccyijaMA.s 			page 106


 3726              		.loc 3 277 1 view .LVU1234
 3727              	.LBB438:
 3728              	.LBI438:
  57:/mnt/c/Users/31740/Documents/codes/newcore-rp2350/include/linux/libfdt_env.h **** {
 3729              		.loc 4 57 23 view .LVU1235
 3730              	.LBB439:
  59:/mnt/c/Users/31740/Documents/codes/newcore-rp2350/include/linux/libfdt_env.h **** }
 3731              		.loc 4 59 2 view .LVU1236
  59:/mnt/c/Users/31740/Documents/codes/newcore-rp2350/include/linux/libfdt_env.h **** }
 3732              		.loc 4 59 28 is_stmt 0 view .LVU1237
 3733 0178 1B04     		lsls	r3, r3, #16
 3734              	.LVL347:
  59:/mnt/c/Users/31740/Documents/codes/newcore-rp2350/include/linux/libfdt_env.h **** }
 3735              		.loc 4 59 28 view .LVU1238
 3736 017a 43EA0163 		orr	r3, r3, r1, lsl #24
 3737 017e 43EA0223 		orr	r3, r3, r2, lsl #8
 3738 0182 227F     		ldrb	r2, [r4, #28]	@ zero_extendqisi2
 3739              	.LVL348:
  59:/mnt/c/Users/31740/Documents/codes/newcore-rp2350/include/linux/libfdt_env.h **** }
 3740              		.loc 4 59 9 view .LVU1239
 3741 0184 1343     		orrs	r3, r3, r2
 3742              	.LVL349:
  59:/mnt/c/Users/31740/Documents/codes/newcore-rp2350/include/linux/libfdt_env.h **** }
 3743              		.loc 4 59 9 view .LVU1240
 3744              	.LBE439:
 3745              	.LBE438:
 277:/mnt/c/Users/31740/Documents/codes/newcore-rp2350/include/linux/libfdt.h **** fdt_set_hdr_(size_dt_strings)
 3746              		.loc 3 277 1 discriminator 1 view .LVU1241
 3747 0186 F361     		str	r3, [r6, #28]
 3748              	.LVL350:
 277:/mnt/c/Users/31740/Documents/codes/newcore-rp2350/include/linux/libfdt.h **** fdt_set_hdr_(size_dt_strings)
 3749              		.loc 3 277 1 discriminator 1 view .LVU1242
 3750              	.LBE437:
 3751              	.LBE436:
 491:/mnt/c/Users/31740/Documents/codes/newcore-rp2350/lib/fdt/fdt_rw.c **** 
 492:/mnt/c/Users/31740/Documents/codes/newcore-rp2350/lib/fdt/fdt_rw.c **** 	return 0;
 3752              		.loc 1 492 2 is_stmt 1 view .LVU1243
 3753              		.loc 1 492 9 is_stmt 0 view .LVU1244
 3754 0188 0020     		movs	r0, #0
 3755              	.LVL351:
 3756              	.L105:
 493:/mnt/c/Users/31740/Documents/codes/newcore-rp2350/lib/fdt/fdt_rw.c **** }
 3757              		.loc 1 493 1 view .LVU1245
 3758 018a 04B0     		add	sp, sp, #16
 3759              	.LCFI51:
 3760              		.cfi_remember_state
 3761              		.cfi_def_cfa_offset 32
 3762              		@ sp needed
 3763 018c BDE8F087 		pop	{r4, r5, r6, r7, r8, r9, r10, pc}
 3764              	.LVL352:
 3765              	.L112:
 3766              	.LCFI52:
 3767              		.cfi_restore_state
 450:/mnt/c/Users/31740/Documents/codes/newcore-rp2350/lib/fdt/fdt_rw.c **** 	}
 3768              		.loc 1 450 10 view .LVU1246
 3769 0190 6FF00900 		mvn	r0, #9
 3770 0194 F9E7     		b	.L105
ARM GAS  /tmp/ccyijaMA.s 			page 107


 3771              	.LVL353:
 3772              	.L113:
 470:/mnt/c/Users/31740/Documents/codes/newcore-rp2350/lib/fdt/fdt_rw.c **** 
 3773              		.loc 1 470 10 view .LVU1247
 3774 0196 6FF00200 		mvn	r0, #2
 3775 019a F6E7     		b	.L105
 3776              	.L120:
 3777              		.align	2
 3778              	.L119:
 3779 019c D00DFEED 		.word	-302117424
 3780              		.cfi_endproc
 3781              	.LFE97:
 3783              		.section	.text.fdt_pack,"ax",%progbits
 3784              		.align	1
 3785              		.global	fdt_pack
 3786              		.syntax unified
 3787              		.thumb
 3788              		.thumb_func
 3790              	fdt_pack:
 3791              	.LVL354:
 3792              	.LFB98:
 494:/mnt/c/Users/31740/Documents/codes/newcore-rp2350/lib/fdt/fdt_rw.c **** 
 495:/mnt/c/Users/31740/Documents/codes/newcore-rp2350/lib/fdt/fdt_rw.c **** int fdt_pack(void *fdt)
 496:/mnt/c/Users/31740/Documents/codes/newcore-rp2350/lib/fdt/fdt_rw.c **** {
 3793              		.loc 1 496 1 is_stmt 1 view -0
 3794              		.cfi_startproc
 3795              		@ args = 0, pretend = 0, frame = 0
 3796              		@ frame_needed = 0, uses_anonymous_args = 0
 3797              		.loc 1 496 1 is_stmt 0 view .LVU1249
 3798 0000 30B5     		push	{r4, r5, lr}
 3799              	.LCFI53:
 3800              		.cfi_def_cfa_offset 12
 3801              		.cfi_offset 4, -12
 3802              		.cfi_offset 5, -8
 3803              		.cfi_offset 14, -4
 3804 0002 83B0     		sub	sp, sp, #12
 3805              	.LCFI54:
 3806              		.cfi_def_cfa_offset 24
 3807 0004 0446     		mov	r4, r0
 497:/mnt/c/Users/31740/Documents/codes/newcore-rp2350/lib/fdt/fdt_rw.c **** 	int mem_rsv_size;
 3808              		.loc 1 497 2 is_stmt 1 view .LVU1250
 3809              	.LBB440:
 498:/mnt/c/Users/31740/Documents/codes/newcore-rp2350/lib/fdt/fdt_rw.c **** 
 499:/mnt/c/Users/31740/Documents/codes/newcore-rp2350/lib/fdt/fdt_rw.c **** 	FDT_RW_PROBE(fdt);
 3810              		.loc 1 499 2 view .LVU1251
 3811              		.loc 1 499 2 view .LVU1252
 3812 0006 FFF7FEFF 		bl	fdt_rw_probe_
 3813              	.LVL355:
 3814              		.loc 1 499 2 is_stmt 0 discriminator 1 view .LVU1253
 3815 000a 0546     		mov	r5, r0
 3816 000c 10B1     		cbz	r0, .L124
 3817              	.LVL356:
 3818              	.L121:
 3819              		.loc 1 499 2 discriminator 1 view .LVU1254
 3820              	.LBE440:
 500:/mnt/c/Users/31740/Documents/codes/newcore-rp2350/lib/fdt/fdt_rw.c **** 
 501:/mnt/c/Users/31740/Documents/codes/newcore-rp2350/lib/fdt/fdt_rw.c **** 	mem_rsv_size = (fdt_num_mem_rsv(fdt)+1)
ARM GAS  /tmp/ccyijaMA.s 			page 108


 502:/mnt/c/Users/31740/Documents/codes/newcore-rp2350/lib/fdt/fdt_rw.c **** 		* sizeof(struct fdt_reserve_entry);
 503:/mnt/c/Users/31740/Documents/codes/newcore-rp2350/lib/fdt/fdt_rw.c **** 	fdt_packblocks_(fdt, fdt, mem_rsv_size, fdt_size_dt_struct(fdt),
 504:/mnt/c/Users/31740/Documents/codes/newcore-rp2350/lib/fdt/fdt_rw.c **** 			fdt_size_dt_strings(fdt));
 505:/mnt/c/Users/31740/Documents/codes/newcore-rp2350/lib/fdt/fdt_rw.c **** 	fdt_set_totalsize(fdt, fdt_data_size_(fdt));
 506:/mnt/c/Users/31740/Documents/codes/newcore-rp2350/lib/fdt/fdt_rw.c **** 
 507:/mnt/c/Users/31740/Documents/codes/newcore-rp2350/lib/fdt/fdt_rw.c **** 	return 0;
 508:/mnt/c/Users/31740/Documents/codes/newcore-rp2350/lib/fdt/fdt_rw.c **** }
 3821              		.loc 1 508 1 view .LVU1255
 3822 000e 2846     		mov	r0, r5
 3823 0010 03B0     		add	sp, sp, #12
 3824              	.LCFI55:
 3825              		.cfi_remember_state
 3826              		.cfi_def_cfa_offset 12
 3827              		@ sp needed
 3828 0012 30BD     		pop	{r4, r5, pc}
 3829              	.LVL357:
 3830              	.L124:
 3831              	.LCFI56:
 3832              		.cfi_restore_state
 499:/mnt/c/Users/31740/Documents/codes/newcore-rp2350/lib/fdt/fdt_rw.c **** 
 3833              		.loc 1 499 19 is_stmt 1 discriminator 2 view .LVU1256
 501:/mnt/c/Users/31740/Documents/codes/newcore-rp2350/lib/fdt/fdt_rw.c **** 		* sizeof(struct fdt_reserve_entry);
 3834              		.loc 1 501 2 view .LVU1257
 501:/mnt/c/Users/31740/Documents/codes/newcore-rp2350/lib/fdt/fdt_rw.c **** 		* sizeof(struct fdt_reserve_entry);
 3835              		.loc 1 501 18 is_stmt 0 view .LVU1258
 3836 0014 2046     		mov	r0, r4
 3837              	.LVL358:
 501:/mnt/c/Users/31740/Documents/codes/newcore-rp2350/lib/fdt/fdt_rw.c **** 		* sizeof(struct fdt_reserve_entry);
 3838              		.loc 1 501 18 view .LVU1259
 3839 0016 FFF7FEFF 		bl	fdt_num_mem_rsv
 3840              	.LVL359:
 501:/mnt/c/Users/31740/Documents/codes/newcore-rp2350/lib/fdt/fdt_rw.c **** 		* sizeof(struct fdt_reserve_entry);
 3841              		.loc 1 501 38 discriminator 1 view .LVU1260
 3842 001a 421C     		adds	r2, r0, #1
 3843              	.LVL360:
 503:/mnt/c/Users/31740/Documents/codes/newcore-rp2350/lib/fdt/fdt_rw.c **** 			fdt_size_dt_strings(fdt));
 3844              		.loc 1 503 2 is_stmt 1 view .LVU1261
 3845              	.LBB441:
 3846              	.LBI441:
 145:/mnt/c/Users/31740/Documents/codes/newcore-rp2350/include/linux/libfdt.h **** {
 3847              		.loc 3 145 24 view .LVU1262
 3848              	.LBB442:
 147:/mnt/c/Users/31740/Documents/codes/newcore-rp2350/include/linux/libfdt.h **** 
 3849              		.loc 3 147 2 view .LVU1263
 149:/mnt/c/Users/31740/Documents/codes/newcore-rp2350/include/linux/libfdt.h **** 		| ((uint32_t)bp[1] << 16)
 3850              		.loc 3 149 2 view .LVU1264
 149:/mnt/c/Users/31740/Documents/codes/newcore-rp2350/include/linux/libfdt.h **** 		| ((uint32_t)bp[1] << 16)
 3851              		.loc 3 149 22 is_stmt 0 view .LVU1265
 3852 001c 94F82410 		ldrb	r1, [r4, #36]	@ zero_extendqisi2
 150:/mnt/c/Users/31740/Documents/codes/newcore-rp2350/include/linux/libfdt.h **** 		| ((uint32_t)bp[2] << 8)
 3853              		.loc 3 150 18 view .LVU1266
 3854 0020 94F82530 		ldrb	r3, [r4, #37]	@ zero_extendqisi2
 150:/mnt/c/Users/31740/Documents/codes/newcore-rp2350/include/linux/libfdt.h **** 		| ((uint32_t)bp[2] << 8)
 3855              		.loc 3 150 22 view .LVU1267
 3856 0024 1B04     		lsls	r3, r3, #16
 150:/mnt/c/Users/31740/Documents/codes/newcore-rp2350/include/linux/libfdt.h **** 		| ((uint32_t)bp[2] << 8)
 3857              		.loc 3 150 3 view .LVU1268
ARM GAS  /tmp/ccyijaMA.s 			page 109


 3858 0026 43EA0163 		orr	r3, r3, r1, lsl #24
 151:/mnt/c/Users/31740/Documents/codes/newcore-rp2350/include/linux/libfdt.h **** 		| bp[3];
 3859              		.loc 3 151 18 view .LVU1269
 3860 002a 94F82610 		ldrb	r1, [r4, #38]	@ zero_extendqisi2
 151:/mnt/c/Users/31740/Documents/codes/newcore-rp2350/include/linux/libfdt.h **** 		| bp[3];
 3861              		.loc 3 151 3 view .LVU1270
 3862 002e 43EA0123 		orr	r3, r3, r1, lsl #8
 152:/mnt/c/Users/31740/Documents/codes/newcore-rp2350/include/linux/libfdt.h **** }
 3863              		.loc 3 152 7 view .LVU1271
 3864 0032 94F82700 		ldrb	r0, [r4, #39]	@ zero_extendqisi2
 3865              	.LVL361:
 152:/mnt/c/Users/31740/Documents/codes/newcore-rp2350/include/linux/libfdt.h **** }
 3866              		.loc 3 152 7 view .LVU1272
 3867              	.LBE442:
 3868              	.LBE441:
 3869              	.LBB443:
 3870              	.LBI443:
 145:/mnt/c/Users/31740/Documents/codes/newcore-rp2350/include/linux/libfdt.h **** {
 3871              		.loc 3 145 24 is_stmt 1 view .LVU1273
 3872              	.LBB444:
 147:/mnt/c/Users/31740/Documents/codes/newcore-rp2350/include/linux/libfdt.h **** 
 3873              		.loc 3 147 2 view .LVU1274
 149:/mnt/c/Users/31740/Documents/codes/newcore-rp2350/include/linux/libfdt.h **** 		| ((uint32_t)bp[1] << 16)
 3874              		.loc 3 149 2 view .LVU1275
 149:/mnt/c/Users/31740/Documents/codes/newcore-rp2350/include/linux/libfdt.h **** 		| ((uint32_t)bp[1] << 16)
 3875              		.loc 3 149 22 is_stmt 0 view .LVU1276
 3876 0036 94F820C0 		ldrb	ip, [r4, #32]	@ zero_extendqisi2
 150:/mnt/c/Users/31740/Documents/codes/newcore-rp2350/include/linux/libfdt.h **** 		| ((uint32_t)bp[2] << 8)
 3877              		.loc 3 150 18 view .LVU1277
 3878 003a 94F82110 		ldrb	r1, [r4, #33]	@ zero_extendqisi2
 150:/mnt/c/Users/31740/Documents/codes/newcore-rp2350/include/linux/libfdt.h **** 		| ((uint32_t)bp[2] << 8)
 3879              		.loc 3 150 22 view .LVU1278
 3880 003e 0904     		lsls	r1, r1, #16
 150:/mnt/c/Users/31740/Documents/codes/newcore-rp2350/include/linux/libfdt.h **** 		| ((uint32_t)bp[2] << 8)
 3881              		.loc 3 150 3 view .LVU1279
 3882 0040 41EA0C61 		orr	r1, r1, ip, lsl #24
 151:/mnt/c/Users/31740/Documents/codes/newcore-rp2350/include/linux/libfdt.h **** 		| bp[3];
 3883              		.loc 3 151 18 view .LVU1280
 3884 0044 94F822C0 		ldrb	ip, [r4, #34]	@ zero_extendqisi2
 151:/mnt/c/Users/31740/Documents/codes/newcore-rp2350/include/linux/libfdt.h **** 		| bp[3];
 3885              		.loc 3 151 3 view .LVU1281
 3886 0048 41EA0C21 		orr	r1, r1, ip, lsl #8
 152:/mnt/c/Users/31740/Documents/codes/newcore-rp2350/include/linux/libfdt.h **** }
 3887              		.loc 3 152 7 view .LVU1282
 3888 004c 94F823C0 		ldrb	ip, [r4, #35]	@ zero_extendqisi2
 152:/mnt/c/Users/31740/Documents/codes/newcore-rp2350/include/linux/libfdt.h **** }
 3889              		.loc 3 152 3 view .LVU1283
 3890 0050 41EA0C01 		orr	r1, r1, ip
 3891              	.LVL362:
 152:/mnt/c/Users/31740/Documents/codes/newcore-rp2350/include/linux/libfdt.h **** }
 3892              		.loc 3 152 3 view .LVU1284
 3893              	.LBE444:
 3894              	.LBE443:
 503:/mnt/c/Users/31740/Documents/codes/newcore-rp2350/lib/fdt/fdt_rw.c **** 			fdt_size_dt_strings(fdt));
 3895              		.loc 1 503 2 view .LVU1285
 3896 0054 0091     		str	r1, [sp]
 3897 0056 0343     		orrs	r3, r3, r0
ARM GAS  /tmp/ccyijaMA.s 			page 110


 3898 0058 D200     		lsls	r2, r2, #3
 3899              	.LVL363:
 503:/mnt/c/Users/31740/Documents/codes/newcore-rp2350/lib/fdt/fdt_rw.c **** 			fdt_size_dt_strings(fdt));
 3900              		.loc 1 503 2 view .LVU1286
 3901 005a 2146     		mov	r1, r4
 3902 005c 2046     		mov	r0, r4
 3903 005e FFF7FEFF 		bl	fdt_packblocks_
 3904              	.LVL364:
 505:/mnt/c/Users/31740/Documents/codes/newcore-rp2350/lib/fdt/fdt_rw.c **** 
 3905              		.loc 1 505 2 is_stmt 1 view .LVU1287
 3906 0062 2046     		mov	r0, r4
 3907 0064 FFF7FEFF 		bl	fdt_data_size_
 3908              	.LVL365:
 3909              	.LBB445:
 3910              	.LBI445:
 271:/mnt/c/Users/31740/Documents/codes/newcore-rp2350/include/linux/libfdt.h **** fdt_set_hdr_(off_dt_struct)
 3911              		.loc 3 271 1 view .LVU1288
 3912              	.LBB446:
 271:/mnt/c/Users/31740/Documents/codes/newcore-rp2350/include/linux/libfdt.h **** fdt_set_hdr_(off_dt_struct)
 3913              		.loc 3 271 1 view .LVU1289
 271:/mnt/c/Users/31740/Documents/codes/newcore-rp2350/include/linux/libfdt.h **** fdt_set_hdr_(off_dt_struct)
 3914              		.loc 3 271 1 view .LVU1290
 3915              	.LBB447:
 3916              	.LBI447:
  57:/mnt/c/Users/31740/Documents/codes/newcore-rp2350/include/linux/libfdt_env.h **** {
 3917              		.loc 4 57 23 view .LVU1291
 3918              	.LBB448:
  59:/mnt/c/Users/31740/Documents/codes/newcore-rp2350/include/linux/libfdt_env.h **** }
 3919              		.loc 4 59 2 view .LVU1292
  59:/mnt/c/Users/31740/Documents/codes/newcore-rp2350/include/linux/libfdt_env.h **** }
 3920              		.loc 4 59 28 is_stmt 0 view .LVU1293
 3921 0068 C0F30723 		ubfx	r3, r0, #8, #8
 3922 006c 1B04     		lsls	r3, r3, #16
 3923 006e 43EA0063 		orr	r3, r3, r0, lsl #24
 3924 0072 C0F30742 		ubfx	r2, r0, #16, #8
 3925 0076 43EA0223 		orr	r3, r3, r2, lsl #8
  59:/mnt/c/Users/31740/Documents/codes/newcore-rp2350/include/linux/libfdt_env.h **** }
 3926              		.loc 4 59 9 view .LVU1294
 3927 007a 43EA1060 		orr	r0, r3, r0, lsr #24
 3928              	.LVL366:
  59:/mnt/c/Users/31740/Documents/codes/newcore-rp2350/include/linux/libfdt_env.h **** }
 3929              		.loc 4 59 9 view .LVU1295
 3930              	.LBE448:
 3931              	.LBE447:
 271:/mnt/c/Users/31740/Documents/codes/newcore-rp2350/include/linux/libfdt.h **** fdt_set_hdr_(off_dt_struct)
 3932              		.loc 3 271 1 discriminator 1 view .LVU1296
 3933 007e 6060     		str	r0, [r4, #4]
 3934              	.LVL367:
 271:/mnt/c/Users/31740/Documents/codes/newcore-rp2350/include/linux/libfdt.h **** fdt_set_hdr_(off_dt_struct)
 3935              		.loc 3 271 1 discriminator 1 view .LVU1297
 3936              	.LBE446:
 3937              	.LBE445:
 507:/mnt/c/Users/31740/Documents/codes/newcore-rp2350/lib/fdt/fdt_rw.c **** }
 3938              		.loc 1 507 2 is_stmt 1 view .LVU1298
 507:/mnt/c/Users/31740/Documents/codes/newcore-rp2350/lib/fdt/fdt_rw.c **** }
 3939              		.loc 1 507 9 is_stmt 0 view .LVU1299
 3940 0080 C5E7     		b	.L121
ARM GAS  /tmp/ccyijaMA.s 			page 111


 3941              		.cfi_endproc
 3942              	.LFE98:
 3944              		.text
 3945              	.Letext0:
 3946              		.file 5 "/mnt/c/Users/31740/Documents/codes/newcore-rp2350/include/asm-generic/int-l64.h"
 3947              		.file 6 "/mnt/c/Users/31740/Documents/codes/newcore-rp2350/include/asm-generic/posix_types.h"
 3948              		.file 7 "/mnt/c/Users/31740/Documents/codes/newcore-rp2350/include/linux/types.h"
 3949              		.file 8 "/mnt/c/Users/31740/Documents/codes/newcore-rp2350/include/linux/fdt.h"
 3950              		.file 9 "/mnt/c/Users/31740/Documents/codes/newcore-rp2350/arch/arm_m/include/asm/string.h"
 3951              		.file 10 "<built-in>"
ARM GAS  /tmp/ccyijaMA.s 			page 112


DEFINED SYMBOLS
                            *ABS*:00000000 fdt_rw.c
     /tmp/ccyijaMA.s:22     .text.fdt_mem_rsv_:00000000 $t
     /tmp/ccyijaMA.s:27     .text.fdt_mem_rsv_:00000000 fdt_mem_rsv_
     /tmp/ccyijaMA.s:77     .text.fdt_blocks_misordered_:00000000 $t
     /tmp/ccyijaMA.s:82     .text.fdt_blocks_misordered_:00000000 fdt_blocks_misordered_
     /tmp/ccyijaMA.s:290    .text.fdt_data_size_:00000000 $t
     /tmp/ccyijaMA.s:295    .text.fdt_data_size_:00000000 fdt_data_size_
     /tmp/ccyijaMA.s:363    .text.fdt_rw_probe_:00000000 $t
     /tmp/ccyijaMA.s:368    .text.fdt_rw_probe_:00000000 fdt_rw_probe_
     /tmp/ccyijaMA.s:502    .text.fdt_splice_:00000000 $t
     /tmp/ccyijaMA.s:507    .text.fdt_splice_:00000000 fdt_splice_
     /tmp/ccyijaMA.s:659    .text.fdt_splice_mem_rsv_:00000000 $t
     /tmp/ccyijaMA.s:664    .text.fdt_splice_mem_rsv_:00000000 fdt_splice_mem_rsv_
     /tmp/ccyijaMA.s:832    .text.fdt_splice_struct_:00000000 $t
     /tmp/ccyijaMA.s:837    .text.fdt_splice_struct_:00000000 fdt_splice_struct_
     /tmp/ccyijaMA.s:996    .text.fdt_splice_string_:00000000 $t
     /tmp/ccyijaMA.s:1001   .text.fdt_splice_string_:00000000 fdt_splice_string_
     /tmp/ccyijaMA.s:1160   .text.fdt_packblocks_:00000000 $t
     /tmp/ccyijaMA.s:1165   .text.fdt_packblocks_:00000000 fdt_packblocks_
     /tmp/ccyijaMA.s:1457   .text.fdt_del_last_string_:00000000 $t
     /tmp/ccyijaMA.s:1462   .text.fdt_del_last_string_:00000000 fdt_del_last_string_
     /tmp/ccyijaMA.s:1552   .text.fdt_resize_property_:00000000 $t
     /tmp/ccyijaMA.s:1557   .text.fdt_resize_property_:00000000 fdt_resize_property_
     /tmp/ccyijaMA.s:1663   .text.fdt_find_add_string_:00000000 $t
     /tmp/ccyijaMA.s:1668   .text.fdt_find_add_string_:00000000 fdt_find_add_string_
     /tmp/ccyijaMA.s:1846   .text.fdt_add_property_:00000000 $t
     /tmp/ccyijaMA.s:1851   .text.fdt_add_property_:00000000 fdt_add_property_
     /tmp/ccyijaMA.s:2062   .text.fdt_add_mem_rsv:00000000 $t
     /tmp/ccyijaMA.s:2068   .text.fdt_add_mem_rsv:00000000 fdt_add_mem_rsv
     /tmp/ccyijaMA.s:2214   .text.fdt_del_mem_rsv:00000000 $t
     /tmp/ccyijaMA.s:2220   .text.fdt_del_mem_rsv:00000000 fdt_del_mem_rsv
     /tmp/ccyijaMA.s:2295   .text.fdt_set_name:00000000 $t
     /tmp/ccyijaMA.s:2301   .text.fdt_set_name:00000000 fdt_set_name
     /tmp/ccyijaMA.s:2419   .text.fdt_setprop_placeholder_namelen:00000000 $t
     /tmp/ccyijaMA.s:2425   .text.fdt_setprop_placeholder_namelen:00000000 fdt_setprop_placeholder_namelen
     /tmp/ccyijaMA.s:2524   .text.fdt_setprop_namelen:00000000 $t
     /tmp/ccyijaMA.s:2530   .text.fdt_setprop_namelen:00000000 fdt_setprop_namelen
     /tmp/ccyijaMA.s:2591   .text.fdt_appendprop:00000000 $t
     /tmp/ccyijaMA.s:2597   .text.fdt_appendprop:00000000 fdt_appendprop
     /tmp/ccyijaMA.s:2772   .text.fdt_delprop:00000000 $t
     /tmp/ccyijaMA.s:2778   .text.fdt_delprop:00000000 fdt_delprop
     /tmp/ccyijaMA.s:2875   .text.fdt_add_subnode_namelen:00000000 $t
     /tmp/ccyijaMA.s:2881   .text.fdt_add_subnode_namelen:00000000 fdt_add_subnode_namelen
     /tmp/ccyijaMA.s:3104   .text.fdt_add_subnode:00000000 $t
     /tmp/ccyijaMA.s:3110   .text.fdt_add_subnode:00000000 fdt_add_subnode
     /tmp/ccyijaMA.s:3150   .text.fdt_del_node:00000000 $t
     /tmp/ccyijaMA.s:3156   .text.fdt_del_node:00000000 fdt_del_node
     /tmp/ccyijaMA.s:3258   .text.fdt_open_into:00000000 $t
     /tmp/ccyijaMA.s:3264   .text.fdt_open_into:00000000 fdt_open_into
     /tmp/ccyijaMA.s:3779   .text.fdt_open_into:0000019c $d
     /tmp/ccyijaMA.s:3784   .text.fdt_pack:00000000 $t
     /tmp/ccyijaMA.s:3790   .text.fdt_pack:00000000 fdt_pack

UNDEFINED SYMBOLS
fdt_ro_probe_
memmove
ARM GAS  /tmp/ccyijaMA.s 			page 113


strlen
fdt_get_property_namelen
fdt_find_string_len_
memcpy
fdt_check_node_offset_
fdt_num_mem_rsv
fdt_get_name
fdt_get_property
fdt_subnode_offset_namelen
fdt_next_tag
memset
fdt_node_end_offset_
fdt_move
