ARM GAS  /tmp/ccEdcDDR.s 			page 1


   1              		.cpu cortex-m4
   2              		.arch armv7e-m
   3              		.fpu fpv4-sp-d16
   4              		.eabi_attribute 27, 1
   5              		.eabi_attribute 28, 1
   6              		.eabi_attribute 20, 1
   7              		.eabi_attribute 21, 1
   8              		.eabi_attribute 23, 3
   9              		.eabi_attribute 24, 1
  10              		.eabi_attribute 25, 1
  11              		.eabi_attribute 26, 1
  12              		.eabi_attribute 30, 1
  13              		.eabi_attribute 34, 1
  14              		.eabi_attribute 18, 4
  15              		.file	"file_system_type.c"
  16              		.text
  17              	.Ltext0:
  18              		.cfi_sections	.debug_frame
  19              		.file 1 "/mnt/c/Users/31740/Desktop/newcore/fs/file_system_type.c"
  20              		.section	.text.unregister_filesystem,"ax",%progbits
  21              		.align	1
  22              		.global	unregister_filesystem
  23              		.syntax unified
  24              		.thumb
  25              		.thumb_func
  27              	unregister_filesystem:
  28              	.LVL0:
  29              	.LFB1034:
   1:/mnt/c/Users/31740/Desktop/newcore/fs/file_system_type.c **** #include<linux/kernel.h>
   2:/mnt/c/Users/31740/Desktop/newcore/fs/file_system_type.c **** #include <linux/list.h>
   3:/mnt/c/Users/31740/Desktop/newcore/fs/file_system_type.c **** #include <linux/fs.h>
   4:/mnt/c/Users/31740/Desktop/newcore/fs/file_system_type.c **** #include <linux/string.h>
   5:/mnt/c/Users/31740/Desktop/newcore/fs/file_system_type.c **** 
   6:/mnt/c/Users/31740/Desktop/newcore/fs/file_system_type.c **** 
   7:/mnt/c/Users/31740/Desktop/newcore/fs/file_system_type.c **** struct file_system_type *fs_t = NULL;
   8:/mnt/c/Users/31740/Desktop/newcore/fs/file_system_type.c **** 
   9:/mnt/c/Users/31740/Desktop/newcore/fs/file_system_type.c **** int register_filesystem(struct file_system_type *ft)
  10:/mnt/c/Users/31740/Desktop/newcore/fs/file_system_type.c **** {
  11:/mnt/c/Users/31740/Desktop/newcore/fs/file_system_type.c ****     if(ft == NULL) return -1;
  12:/mnt/c/Users/31740/Desktop/newcore/fs/file_system_type.c ****     pr_info("register file system: %s\n",ft->name);
  13:/mnt/c/Users/31740/Desktop/newcore/fs/file_system_type.c ****     struct file_system_type **p;
  14:/mnt/c/Users/31740/Desktop/newcore/fs/file_system_type.c ****     for (p = &fs_t; *p; p = &(*p)->next) {
  15:/mnt/c/Users/31740/Desktop/newcore/fs/file_system_type.c ****         if (strcmp((*p)->name, ft->name) == 0)
  16:/mnt/c/Users/31740/Desktop/newcore/fs/file_system_type.c ****             return -EEXIST; 
  17:/mnt/c/Users/31740/Desktop/newcore/fs/file_system_type.c ****     }
  18:/mnt/c/Users/31740/Desktop/newcore/fs/file_system_type.c ****     ft->next = fs_t;
  19:/mnt/c/Users/31740/Desktop/newcore/fs/file_system_type.c ****     fs_t = ft;
  20:/mnt/c/Users/31740/Desktop/newcore/fs/file_system_type.c ****     return 0;
  21:/mnt/c/Users/31740/Desktop/newcore/fs/file_system_type.c **** }
  22:/mnt/c/Users/31740/Desktop/newcore/fs/file_system_type.c **** EXPORT_SYMBOL(register_filesystem);
  23:/mnt/c/Users/31740/Desktop/newcore/fs/file_system_type.c **** 
  24:/mnt/c/Users/31740/Desktop/newcore/fs/file_system_type.c **** int unregister_filesystem(struct file_system_type *ft)
  25:/mnt/c/Users/31740/Desktop/newcore/fs/file_system_type.c **** {
  30              		.loc 1 25 1 view -0
  31              		.cfi_startproc
  32              		@ args = 0, pretend = 0, frame = 0
  33              		@ frame_needed = 0, uses_anonymous_args = 0
ARM GAS  /tmp/ccEdcDDR.s 			page 2


  34              		@ link register save eliminated.
  26:/mnt/c/Users/31740/Desktop/newcore/fs/file_system_type.c ****     struct file_system_type **p;
  35              		.loc 1 26 5 view .LVU1
  27:/mnt/c/Users/31740/Desktop/newcore/fs/file_system_type.c ****     for (p = &fs_t; *p; p = &(*p)->next) {
  36              		.loc 1 27 5 view .LVU2
  37              		.loc 1 27 12 is_stmt 0 view .LVU3
  38 0000 074A     		ldr	r2, .L7
  39              		.loc 1 27 5 view .LVU4
  40 0002 01E0     		b	.L2
  41              	.LVL1:
  42              	.L3:
  43              		.loc 1 27 27 is_stmt 1 discriminator 2 view .LVU5
  44 0004 03F11C02 		add	r2, r3, #28
  45              	.LVL2:
  46              	.L2:
  47              		.loc 1 27 21 discriminator 1 view .LVU6
  48 0008 1368     		ldr	r3, [r2]
  49 000a 2BB1     		cbz	r3, .L6
  28:/mnt/c/Users/31740/Desktop/newcore/fs/file_system_type.c ****         if (*p == ft) {
  50              		.loc 1 28 9 view .LVU7
  51              		.loc 1 28 12 is_stmt 0 view .LVU8
  52 000c 8342     		cmp	r3, r0
  53 000e F9D1     		bne	.L3
  29:/mnt/c/Users/31740/Desktop/newcore/fs/file_system_type.c ****             *p = ft->next; 
  54              		.loc 1 29 13 is_stmt 1 view .LVU9
  55              		.loc 1 29 20 is_stmt 0 view .LVU10
  56 0010 C369     		ldr	r3, [r0, #28]
  57              		.loc 1 29 16 view .LVU11
  58 0012 1360     		str	r3, [r2]
  30:/mnt/c/Users/31740/Desktop/newcore/fs/file_system_type.c ****             return 0;
  59              		.loc 1 30 13 is_stmt 1 view .LVU12
  60              		.loc 1 30 20 is_stmt 0 view .LVU13
  61 0014 0020     		movs	r0, #0
  62              	.LVL3:
  63              		.loc 1 30 20 view .LVU14
  64 0016 7047     		bx	lr
  65              	.LVL4:
  66              	.L6:
  31:/mnt/c/Users/31740/Desktop/newcore/fs/file_system_type.c ****         }
  32:/mnt/c/Users/31740/Desktop/newcore/fs/file_system_type.c ****     }
  33:/mnt/c/Users/31740/Desktop/newcore/fs/file_system_type.c ****     return -EINVAL;
  67              		.loc 1 33 12 view .LVU15
  68 0018 6FF01500 		mvn	r0, #21
  69              	.LVL5:
  34:/mnt/c/Users/31740/Desktop/newcore/fs/file_system_type.c **** }
  70              		.loc 1 34 1 view .LVU16
  71 001c 7047     		bx	lr
  72              	.L8:
  73 001e 00BF     		.align	2
  74              	.L7:
  75 0020 00000000 		.word	fs_t
  76              		.cfi_endproc
  77              	.LFE1034:
  79              		.section	.rodata.register_filesystem.str1.4,"aMS",%progbits,1
  80              		.align	2
  81              	.LC0:
  82 0000 72656769 		.ascii	"register file system: %s\012\000"
ARM GAS  /tmp/ccEdcDDR.s 			page 3


  82      73746572 
  82      2066696C 
  82      65207379 
  82      7374656D 
  83              		.section	.text.register_filesystem,"ax",%progbits
  84              		.align	1
  85              		.global	register_filesystem
  86              		.syntax unified
  87              		.thumb
  88              		.thumb_func
  90              	register_filesystem:
  91              	.LVL6:
  92              	.LFB1033:
  10:/mnt/c/Users/31740/Desktop/newcore/fs/file_system_type.c ****     if(ft == NULL) return -1;
  93              		.loc 1 10 1 is_stmt 1 view -0
  94              		.cfi_startproc
  95              		@ args = 0, pretend = 0, frame = 0
  96              		@ frame_needed = 0, uses_anonymous_args = 0
  11:/mnt/c/Users/31740/Desktop/newcore/fs/file_system_type.c ****     pr_info("register file system: %s\n",ft->name);
  97              		.loc 1 11 5 view .LVU18
  11:/mnt/c/Users/31740/Desktop/newcore/fs/file_system_type.c ****     pr_info("register file system: %s\n",ft->name);
  98              		.loc 1 11 7 is_stmt 0 view .LVU19
  99 0000 D0B1     		cbz	r0, .L13
  10:/mnt/c/Users/31740/Desktop/newcore/fs/file_system_type.c ****     if(ft == NULL) return -1;
 100              		.loc 1 10 1 view .LVU20
 101 0002 38B5     		push	{r3, r4, r5, lr}
 102              	.LCFI0:
 103              		.cfi_def_cfa_offset 16
 104              		.cfi_offset 3, -16
 105              		.cfi_offset 4, -12
 106              		.cfi_offset 5, -8
 107              		.cfi_offset 14, -4
 108 0004 0546     		mov	r5, r0
  12:/mnt/c/Users/31740/Desktop/newcore/fs/file_system_type.c ****     struct file_system_type **p;
 109              		.loc 1 12 5 is_stmt 1 view .LVU21
 110 0006 0268     		ldr	r2, [r0]
 111 0008 0D49     		ldr	r1, .L21
 112 000a 0620     		movs	r0, #6
 113              	.LVL7:
  12:/mnt/c/Users/31740/Desktop/newcore/fs/file_system_type.c ****     struct file_system_type **p;
 114              		.loc 1 12 5 is_stmt 0 view .LVU22
 115 000c FFF7FEFF 		bl	printk
 116              	.LVL8:
  13:/mnt/c/Users/31740/Desktop/newcore/fs/file_system_type.c ****     for (p = &fs_t; *p; p = &(*p)->next) {
 117              		.loc 1 13 5 is_stmt 1 view .LVU23
  14:/mnt/c/Users/31740/Desktop/newcore/fs/file_system_type.c ****         if (strcmp((*p)->name, ft->name) == 0)
 118              		.loc 1 14 5 view .LVU24
  14:/mnt/c/Users/31740/Desktop/newcore/fs/file_system_type.c ****         if (strcmp((*p)->name, ft->name) == 0)
 119              		.loc 1 14 12 is_stmt 0 view .LVU25
 120 0010 0C4C     		ldr	r4, .L21+4
  14:/mnt/c/Users/31740/Desktop/newcore/fs/file_system_type.c ****         if (strcmp((*p)->name, ft->name) == 0)
 121              		.loc 1 14 5 view .LVU26
 122 0012 00E0     		b	.L11
 123              	.LVL9:
 124              	.L20:
  14:/mnt/c/Users/31740/Desktop/newcore/fs/file_system_type.c ****         if (strcmp((*p)->name, ft->name) == 0)
 125              		.loc 1 14 27 is_stmt 1 discriminator 2 view .LVU27
ARM GAS  /tmp/ccEdcDDR.s 			page 4


 126 0014 1C34     		adds	r4, r4, #28
 127              	.LVL10:
 128              	.L11:
  14:/mnt/c/Users/31740/Desktop/newcore/fs/file_system_type.c ****         if (strcmp((*p)->name, ft->name) == 0)
 129              		.loc 1 14 21 discriminator 1 view .LVU28
 130 0016 2468     		ldr	r4, [r4]
 131              	.LVL11:
  14:/mnt/c/Users/31740/Desktop/newcore/fs/file_system_type.c ****         if (strcmp((*p)->name, ft->name) == 0)
 132              		.loc 1 14 21 is_stmt 0 discriminator 1 view .LVU29
 133 0018 44B1     		cbz	r4, .L19
  15:/mnt/c/Users/31740/Desktop/newcore/fs/file_system_type.c ****             return -EEXIST; 
 134              		.loc 1 15 9 is_stmt 1 view .LVU30
  15:/mnt/c/Users/31740/Desktop/newcore/fs/file_system_type.c ****             return -EEXIST; 
 135              		.loc 1 15 13 is_stmt 0 view .LVU31
 136 001a 2968     		ldr	r1, [r5]
 137 001c 2068     		ldr	r0, [r4]
 138 001e FFF7FEFF 		bl	strcmp
 139              	.LVL12:
  15:/mnt/c/Users/31740/Desktop/newcore/fs/file_system_type.c ****             return -EEXIST; 
 140              		.loc 1 15 12 discriminator 1 view .LVU32
 141 0022 0028     		cmp	r0, #0
 142 0024 F6D1     		bne	.L20
  16:/mnt/c/Users/31740/Desktop/newcore/fs/file_system_type.c ****     }
 143              		.loc 1 16 20 view .LVU33
 144 0026 6FF01000 		mvn	r0, #16
 145 002a 04E0     		b	.L9
 146              	.L19:
  18:/mnt/c/Users/31740/Desktop/newcore/fs/file_system_type.c ****     fs_t = ft;
 147              		.loc 1 18 5 is_stmt 1 view .LVU34
  18:/mnt/c/Users/31740/Desktop/newcore/fs/file_system_type.c ****     fs_t = ft;
 148              		.loc 1 18 14 is_stmt 0 view .LVU35
 149 002c 054B     		ldr	r3, .L21+4
 150 002e 1A68     		ldr	r2, [r3]
 151 0030 EA61     		str	r2, [r5, #28]
  19:/mnt/c/Users/31740/Desktop/newcore/fs/file_system_type.c ****     return 0;
 152              		.loc 1 19 5 is_stmt 1 view .LVU36
  19:/mnt/c/Users/31740/Desktop/newcore/fs/file_system_type.c ****     return 0;
 153              		.loc 1 19 10 is_stmt 0 view .LVU37
 154 0032 1D60     		str	r5, [r3]
  20:/mnt/c/Users/31740/Desktop/newcore/fs/file_system_type.c **** }
 155              		.loc 1 20 5 is_stmt 1 view .LVU38
  20:/mnt/c/Users/31740/Desktop/newcore/fs/file_system_type.c **** }
 156              		.loc 1 20 12 is_stmt 0 view .LVU39
 157 0034 0020     		movs	r0, #0
 158              	.L9:
  21:/mnt/c/Users/31740/Desktop/newcore/fs/file_system_type.c **** EXPORT_SYMBOL(register_filesystem);
 159              		.loc 1 21 1 view .LVU40
 160 0036 38BD     		pop	{r3, r4, r5, pc}
 161              	.LVL13:
 162              	.L13:
 163              	.LCFI1:
 164              		.cfi_def_cfa_offset 0
 165              		.cfi_restore 3
 166              		.cfi_restore 4
 167              		.cfi_restore 5
 168              		.cfi_restore 14
  11:/mnt/c/Users/31740/Desktop/newcore/fs/file_system_type.c ****     pr_info("register file system: %s\n",ft->name);
ARM GAS  /tmp/ccEdcDDR.s 			page 5


 169              		.loc 1 11 27 discriminator 1 view .LVU41
 170 0038 4FF0FF30 		mov	r0, #-1
 171              	.LVL14:
  21:/mnt/c/Users/31740/Desktop/newcore/fs/file_system_type.c **** EXPORT_SYMBOL(register_filesystem);
 172              		.loc 1 21 1 view .LVU42
 173 003c 7047     		bx	lr
 174              	.L22:
 175 003e 00BF     		.align	2
 176              	.L21:
 177 0040 00000000 		.word	.LC0
 178 0044 00000000 		.word	fs_t
 179              		.cfi_endproc
 180              	.LFE1033:
 182              		.section	.text.lookup_fs_type,"ax",%progbits
 183              		.align	1
 184              		.global	lookup_fs_type
 185              		.syntax unified
 186              		.thumb
 187              		.thumb_func
 189              	lookup_fs_type:
 190              	.LVL15:
 191              	.LFB1035:
  35:/mnt/c/Users/31740/Desktop/newcore/fs/file_system_type.c **** EXPORT_SYMBOL(unregister_filesystem);
  36:/mnt/c/Users/31740/Desktop/newcore/fs/file_system_type.c **** 
  37:/mnt/c/Users/31740/Desktop/newcore/fs/file_system_type.c **** struct file_system_type *lookup_fs_type(const char *name)
  38:/mnt/c/Users/31740/Desktop/newcore/fs/file_system_type.c **** {
 192              		.loc 1 38 1 is_stmt 1 view -0
 193              		.cfi_startproc
 194              		@ args = 0, pretend = 0, frame = 0
 195              		@ frame_needed = 0, uses_anonymous_args = 0
 196              		.loc 1 38 1 is_stmt 0 view .LVU44
 197 0000 38B5     		push	{r3, r4, r5, lr}
 198              	.LCFI2:
 199              		.cfi_def_cfa_offset 16
 200              		.cfi_offset 3, -16
 201              		.cfi_offset 4, -12
 202              		.cfi_offset 5, -8
 203              		.cfi_offset 14, -4
 204 0002 0546     		mov	r5, r0
  39:/mnt/c/Users/31740/Desktop/newcore/fs/file_system_type.c ****     struct file_system_type *p;
 205              		.loc 1 39 5 is_stmt 1 view .LVU45
  40:/mnt/c/Users/31740/Desktop/newcore/fs/file_system_type.c ****     
  41:/mnt/c/Users/31740/Desktop/newcore/fs/file_system_type.c ****     for (p = fs_t; p; p = p->next) {
 206              		.loc 1 41 5 view .LVU46
 207              		.loc 1 41 12 is_stmt 0 view .LVU47
 208 0004 064B     		ldr	r3, .L29
 209 0006 1C68     		ldr	r4, [r3]
 210              	.LVL16:
 211              		.loc 1 41 5 view .LVU48
 212 0008 00E0     		b	.L24
 213              	.LVL17:
 214              	.L28:
 215              		.loc 1 41 25 is_stmt 1 discriminator 2 view .LVU49
 216 000a E469     		ldr	r4, [r4, #28]
 217              	.LVL18:
 218              	.L24:
 219              		.loc 1 41 20 discriminator 1 view .LVU50
ARM GAS  /tmp/ccEdcDDR.s 			page 6


 220 000c 2CB1     		cbz	r4, .L23
  42:/mnt/c/Users/31740/Desktop/newcore/fs/file_system_type.c ****         if (strcmp(p->name, name) == 0)
 221              		.loc 1 42 9 view .LVU51
 222              		.loc 1 42 13 is_stmt 0 view .LVU52
 223 000e 2946     		mov	r1, r5
 224 0010 2068     		ldr	r0, [r4]
 225 0012 FFF7FEFF 		bl	strcmp
 226              	.LVL19:
 227              		.loc 1 42 12 discriminator 1 view .LVU53
 228 0016 0028     		cmp	r0, #0
 229 0018 F7D1     		bne	.L28
 230              	.L23:
  43:/mnt/c/Users/31740/Desktop/newcore/fs/file_system_type.c ****             return p;
  44:/mnt/c/Users/31740/Desktop/newcore/fs/file_system_type.c ****     }
  45:/mnt/c/Users/31740/Desktop/newcore/fs/file_system_type.c ****     return NULL;
  46:/mnt/c/Users/31740/Desktop/newcore/fs/file_system_type.c **** }
 231              		.loc 1 46 1 view .LVU54
 232 001a 2046     		mov	r0, r4
 233 001c 38BD     		pop	{r3, r4, r5, pc}
 234              	.LVL20:
 235              	.L30:
 236              		.loc 1 46 1 view .LVU55
 237 001e 00BF     		.align	2
 238              	.L29:
 239 0020 00000000 		.word	fs_t
 240              		.cfi_endproc
 241              	.LFE1035:
 243              		.section	.rodata.str1.4,"aMS",%progbits,1
 244              		.align	2
 245              	.LC1:
 246 0000 6C6F6F6B 		.ascii	"lookup_fs_type\000"
 246      75705F66 
 246      735F7479 
 246      706500
 247 000f 00       		.align	2
 248              	.LC2:
 249 0010 00       		.ascii	"\000"
 250              		.section	.export_table,"aw"
 251              		.align	2
 254              	lookup_fs_type_export_struct:
 255 0000 00000000 		.word	.LC1
 256 0004 10000000 		.word	.LC2
 257 0008 00000000 		.word	lookup_fs_type
 258              		.section	.rodata.str1.4
 259 0011 000000   		.align	2
 260              	.LC3:
 261 0014 756E7265 		.ascii	"unregister_filesystem\000"
 261      67697374 
 261      65725F66 
 261      696C6573 
 261      79737465 
 262              		.section	.export_table
 263              		.align	2
 266              	unregister_filesystem_export_struct:
 267 000c 14000000 		.word	.LC3
 268 0010 10000000 		.word	.LC2
 269 0014 00000000 		.word	unregister_filesystem
ARM GAS  /tmp/ccEdcDDR.s 			page 7


 270              		.section	.rodata.str1.4
 271 002a 0000     		.align	2
 272              	.LC4:
 273 002c 72656769 		.ascii	"register_filesystem\000"
 273      73746572 
 273      5F66696C 
 273      65737973 
 273      74656D00 
 274              		.section	.export_table
 275              		.align	2
 278              	register_filesystem_export_struct:
 279 0018 2C000000 		.word	.LC4
 280 001c 10000000 		.word	.LC2
 281 0020 00000000 		.word	register_filesystem
 282              		.global	fs_t
 283              		.section	.bss.fs_t,"aw",%nobits
 284              		.align	2
 287              	fs_t:
 288 0000 00000000 		.space	4
 289              		.text
 290              	.Letext0:
 291              		.file 2 "/mnt/c/Users/31740/Desktop/newcore/include/asm-generic/int-l64.h"
 292              		.file 3 "/mnt/c/Users/31740/Desktop/newcore/include/asm-generic/posix_types.h"
 293              		.file 4 "/mnt/c/Users/31740/Desktop/newcore/include/uapi/linux/types.h"
 294              		.file 5 "/mnt/c/Users/31740/Desktop/newcore/include/linux/types.h"
 295              		.file 6 "/mnt/c/Users/31740/Desktop/newcore/include/linux/export.h"
 296              		.file 7 "/mnt/c/Users/31740/Desktop/newcore/include/linux/errseq.h"
 297              		.file 8 "/mnt/c/Users/31740/Desktop/newcore/include/linux/time64.h"
 298              		.file 9 "/mnt/c/Users/31740/Desktop/newcore/arch/arm_m/include/asm/spinlock.h"
 299              		.file 10 "/mnt/c/Users/31740/Desktop/newcore/include/linux/lockdep_types.h"
 300              		.file 11 "/mnt/c/Users/31740/Desktop/newcore/include/linux/spinlock_types_raw.h"
 301              		.file 12 "/mnt/c/Users/31740/Desktop/newcore/include/linux/spinlock_types.h"
 302              		.file 13 "/mnt/c/Users/31740/Desktop/newcore/include/linux/rbtree_types.h"
 303              		.file 14 "/mnt/c/Users/31740/Desktop/newcore/include/linux/uidgid_types.h"
 304              		.file 15 "/mnt/c/Users/31740/Desktop/newcore/include/linux/projid.h"
 305              		.file 16 "/mnt/c/Users/31740/Desktop/newcore/include/linux/fs.h"
 306              		.file 17 "/mnt/c/Users/31740/Desktop/newcore/include/linux/mnt_idmapping.h"
 307              		.file 18 "/mnt/c/Users/31740/Desktop/newcore/include/linux/mutex.h"
 308              		.file 19 "/mnt/c/Users/31740/Desktop/newcore/include/linux/uio.h"
 309              		.file 20 "/mnt/c/Users/31740/Desktop/newcore/include/linux/wait.h"
 310              		.file 21 "/mnt/c/Users/31740/Desktop/newcore/include/linux/xarray.h"
 311              		.file 22 "/mnt/c/Users/31740/Desktop/newcore/include/linux/migrate_mode.h"
 312              		.file 23 "/mnt/c/Users/31740/Desktop/newcore/include/linux/rw_hint.h"
 313              		.file 24 "/mnt/c/Users/31740/Desktop/newcore/include/linux/reciprocal_div.h"
 314              		.file 25 "/mnt/c/Users/31740/Desktop/newcore/include/linux/slab.h"
 315              		.file 26 "/mnt/c/Users/31740/Desktop/newcore/include/linux/mm_type.h"
 316              		.file 27 "/mnt/c/Users/31740/Desktop/newcore/include/linux/bvec.h"
 317              		.file 28 "/mnt/c/Users/31740/Desktop/newcore/include/linux/blk_types.h"
 318              		.file 29 "/mnt/c/Users/31740/Desktop/newcore/include/linux/blkdev.h"
 319              		.file 30 "/mnt/c/Users/31740/Desktop/newcore/include/linux/bio.h"
 320              		.file 31 "/mnt/c/Users/31740/Desktop/newcore/include/linux/mempool_super_haper.h"
 321              		.file 32 "/mnt/c/Users/31740/Desktop/newcore/include/linux/mempool.h"
 322              		.file 33 "/mnt/c/Users/31740/Desktop/newcore/include/linux/workqueue_types.h"
 323              		.file 34 "/mnt/c/Users/31740/Desktop/newcore/include/linux/blk-mq.h"
 324              		.file 35 "/mnt/c/Users/31740/Desktop/newcore/include/linux/dcache.h"
 325              		.file 36 "/mnt/c/Users/31740/Desktop/newcore/include/uapi/linux/pr.h"
 326              		.file 37 "/mnt/c/Users/31740/Desktop/newcore/include/linux/pr.h"
ARM GAS  /tmp/ccEdcDDR.s 			page 8


 327              		.file 38 "/mnt/c/Users/31740/Desktop/newcore/include/linux/hdreg.h"
 328              		.file 39 "/mnt/c/Users/31740/Desktop/newcore/include/linux/lockref.h"
 329              		.file 40 "/mnt/c/Users/31740/Desktop/newcore/include/linux/path.h"
 330              		.file 41 "/mnt/c/Users/31740/Desktop/newcore/include/linux/statfs.h"
 331              		.file 42 "/mnt/c/Users/31740/Desktop/newcore/include/linux/stat.h"
 332              		.file 43 "/mnt/c/Users/31740/Desktop/newcore/arch/arm_m/include/asm/string.h"
 333              		.file 44 "/mnt/c/Users/31740/Desktop/newcore/include/linux/printk.h"
ARM GAS  /tmp/ccEdcDDR.s 			page 9


DEFINED SYMBOLS
                            *ABS*:00000000 file_system_type.c
     /tmp/ccEdcDDR.s:21     .text.unregister_filesystem:00000000 $t
     /tmp/ccEdcDDR.s:27     .text.unregister_filesystem:00000000 unregister_filesystem
     /tmp/ccEdcDDR.s:75     .text.unregister_filesystem:00000020 $d
     /tmp/ccEdcDDR.s:287    .bss.fs_t:00000000 fs_t
     /tmp/ccEdcDDR.s:80     .rodata.register_filesystem.str1.4:00000000 $d
     /tmp/ccEdcDDR.s:84     .text.register_filesystem:00000000 $t
     /tmp/ccEdcDDR.s:90     .text.register_filesystem:00000000 register_filesystem
     /tmp/ccEdcDDR.s:177    .text.register_filesystem:00000040 $d
     /tmp/ccEdcDDR.s:183    .text.lookup_fs_type:00000000 $t
     /tmp/ccEdcDDR.s:189    .text.lookup_fs_type:00000000 lookup_fs_type
     /tmp/ccEdcDDR.s:239    .text.lookup_fs_type:00000020 $d
     /tmp/ccEdcDDR.s:244    .rodata.str1.4:00000000 $d
     /tmp/ccEdcDDR.s:251    .export_table:00000000 $d
     /tmp/ccEdcDDR.s:254    .export_table:00000000 lookup_fs_type_export_struct
     /tmp/ccEdcDDR.s:266    .export_table:0000000c unregister_filesystem_export_struct
     /tmp/ccEdcDDR.s:278    .export_table:00000018 register_filesystem_export_struct
     /tmp/ccEdcDDR.s:284    .bss.fs_t:00000000 $d

UNDEFINED SYMBOLS
printk
strcmp
