ARM GAS  /tmp/ccgc8Kw9.s 			page 1


   1              		.cpu cortex-m4
   2              		.arch armv7e-m
   3              		.fpu fpv4-sp-d16
   4              		.eabi_attribute 27, 1
   5              		.eabi_attribute 28, 1
   6              		.eabi_attribute 20, 1
   7              		.eabi_attribute 21, 1
   8              		.eabi_attribute 23, 3
   9              		.eabi_attribute 24, 1
  10              		.eabi_attribute 25, 1
  11              		.eabi_attribute 26, 1
  12              		.eabi_attribute 30, 1
  13              		.eabi_attribute 34, 1
  14              		.eabi_attribute 18, 4
  15              		.file	"gpio_test.c"
  16              		.text
  17              	.Ltext0:
  18              		.cfi_sections	.debug_frame
  19              		.file 1 "/mnt/c/Users/31740/Desktop/newcore/init/gpio_test.c"
  20              		.section	.text.msleep,"ax",%progbits
  21              		.align	1
  22              		.syntax unified
  23              		.thumb
  24              		.thumb_func
  26              	msleep:
  27              	.LVL0:
  28              	.LFB1033:
  29              		.file 2 "/mnt/c/Users/31740/Desktop/newcore/include/linux/delay.h"
   1:/mnt/c/Users/31740/Desktop/newcore/include/linux/delay.h **** #ifndef __DELAY_H_
   2:/mnt/c/Users/31740/Desktop/newcore/include/linux/delay.h **** #define __DELAY_H_
   3:/mnt/c/Users/31740/Desktop/newcore/include/linux/delay.h **** 
   4:/mnt/c/Users/31740/Desktop/newcore/include/linux/delay.h **** #include <linux/time.h>
   5:/mnt/c/Users/31740/Desktop/newcore/include/linux/delay.h **** #include <linux/sched.h>
   6:/mnt/c/Users/31740/Desktop/newcore/include/linux/delay.h **** 
   7:/mnt/c/Users/31740/Desktop/newcore/include/linux/delay.h **** static void msleep(uint32_t time){
  30              		.loc 2 7 34 view -0
  31              		.cfi_startproc
  32              		@ args = 0, pretend = 0, frame = 0
  33              		@ frame_needed = 0, uses_anonymous_args = 0
  34              		.loc 2 7 34 is_stmt 0 view .LVU1
  35 0000 08B5     		push	{r3, lr}
  36              	.LCFI0:
  37              		.cfi_def_cfa_offset 8
  38              		.cfi_offset 3, -8
  39              		.cfi_offset 14, -4
   8:/mnt/c/Users/31740/Desktop/newcore/include/linux/delay.h ****     __delay(time*HZ/1000);
  40              		.loc 2 8 5 is_stmt 1 view .LVU2
  41              		.loc 2 8 17 is_stmt 0 view .LVU3
  42 0002 054B     		ldr	r3, .L3
  43 0004 1B68     		ldr	r3, [r3]
  44 0006 03FB00F0 		mul	r0, r3, r0
  45              	.LVL1:
  46              		.loc 2 8 5 view .LVU4
  47 000a 044B     		ldr	r3, .L3+4
  48 000c A3FB0030 		umull	r3, r0, r3, r0
  49 0010 8009     		lsrs	r0, r0, #6
  50 0012 FFF7FEFF 		bl	__delay
ARM GAS  /tmp/ccgc8Kw9.s 			page 2


  51              	.LVL2:
   9:/mnt/c/Users/31740/Desktop/newcore/include/linux/delay.h **** }
  52              		.loc 2 9 1 view .LVU5
  53 0016 08BD     		pop	{r3, pc}
  54              	.L4:
  55              		.align	2
  56              	.L3:
  57 0018 00000000 		.word	HZ
  58 001c D34D6210 		.word	274877907
  59              		.cfi_endproc
  60              	.LFE1033:
  62              		.section	.rodata.gpio_test.str1.4,"aMS",%progbits,1
  63              		.align	2
  64              	.LC0:
  65 0000 4750494F 		.ascii	"GPIO test\012\015\000"
  65      20746573 
  65      740A0D00 
  66              		.align	2
  67              	.LC1:
  68 000c 2F646576 		.ascii	"/dev/gpios\000"
  68      2F677069 
  68      6F7300
  69 0017 00       		.align	2
  70              	.LC2:
  71 0018 6F70656E 		.ascii	"open file failed\012\015\000"
  71      2066696C 
  71      65206661 
  71      696C6564 
  71      0A0D00
  72 002b 00       		.align	2
  73              	.LC3:
  74 002c 73657420 		.ascii	"set pin number failed\012\015\000"
  74      70696E20 
  74      6E756D62 
  74      65722066 
  74      61696C65 
  75              		.align	2
  76              	.LC4:
  77 0044 3100     		.ascii	"1\000"
  78 0046 0000     		.align	2
  79              	.LC5:
  80 0048 3000     		.ascii	"0\000"
  81              		.section	.text.gpio_test,"ax",%progbits
  82              		.align	1
  83              		.global	gpio_test
  84              		.syntax unified
  85              		.thumb
  86              		.thumb_func
  88              	gpio_test:
  89              	.LFB1035:
   1:/mnt/c/Users/31740/Desktop/newcore/init/gpio_test.c **** #include <linux/kernel.h>
   2:/mnt/c/Users/31740/Desktop/newcore/init/gpio_test.c **** #include <linux/fs.h>
   3:/mnt/c/Users/31740/Desktop/newcore/init/gpio_test.c **** #include <linux/gpio/gpio.h>
   4:/mnt/c/Users/31740/Desktop/newcore/init/gpio_test.c **** #include <linux/init.h>
   5:/mnt/c/Users/31740/Desktop/newcore/init/gpio_test.c **** #include <linux/delay.h>
   6:/mnt/c/Users/31740/Desktop/newcore/init/gpio_test.c **** #include <linux/kthread.h>
   7:/mnt/c/Users/31740/Desktop/newcore/init/gpio_test.c **** 
ARM GAS  /tmp/ccgc8Kw9.s 			page 3


   8:/mnt/c/Users/31740/Desktop/newcore/init/gpio_test.c **** void gpio_test( )
   9:/mnt/c/Users/31740/Desktop/newcore/init/gpio_test.c **** {
  90              		.loc 1 9 1 is_stmt 1 view -0
  91              		.cfi_startproc
  92              		@ args = 0, pretend = 0, frame = 0
  93              		@ frame_needed = 0, uses_anonymous_args = 0
  94 0000 10B5     		push	{r4, lr}
  95              	.LCFI1:
  96              		.cfi_def_cfa_offset 8
  97              		.cfi_offset 4, -8
  98              		.cfi_offset 14, -4
  10:/mnt/c/Users/31740/Desktop/newcore/init/gpio_test.c ****     pr_info("GPIO test\n\r");
  99              		.loc 1 10 5 view .LVU7
 100 0002 1B49     		ldr	r1, .L13
 101 0004 0620     		movs	r0, #6
 102 0006 FFF7FEFF 		bl	printk
 103              	.LVL3:
  11:/mnt/c/Users/31740/Desktop/newcore/init/gpio_test.c ****     struct file *fp = filp_open("/dev/gpios", O_RDWR, 0);
 104              		.loc 1 11 5 view .LVU8
 105              		.loc 1 11 23 is_stmt 0 view .LVU9
 106 000a 0022     		movs	r2, #0
 107 000c 0221     		movs	r1, #2
 108 000e 1948     		ldr	r0, .L13+4
 109 0010 FFF7FEFF 		bl	filp_open
 110              	.LVL4:
  12:/mnt/c/Users/31740/Desktop/newcore/init/gpio_test.c ****     if(IS_ERR(fp))
 111              		.loc 1 12 5 is_stmt 1 view .LVU10
 112              	.LBB4:
 113              	.LBI4:
 114              		.file 3 "/mnt/c/Users/31740/Desktop/newcore/include/linux/err.h"
   1:/mnt/c/Users/31740/Desktop/newcore/include/linux/err.h **** /* SPDX-License-Identifier: GPL-2.0 */
   2:/mnt/c/Users/31740/Desktop/newcore/include/linux/err.h **** #ifndef _LINUX_ERR_H
   3:/mnt/c/Users/31740/Desktop/newcore/include/linux/err.h **** #define _LINUX_ERR_H
   4:/mnt/c/Users/31740/Desktop/newcore/include/linux/err.h **** 
   5:/mnt/c/Users/31740/Desktop/newcore/include/linux/err.h **** #include <linux/compiler_attributes.h>
   6:/mnt/c/Users/31740/Desktop/newcore/include/linux/err.h **** #include <linux/compiler.h>
   7:/mnt/c/Users/31740/Desktop/newcore/include/linux/err.h **** #include <linux/types.h>
   8:/mnt/c/Users/31740/Desktop/newcore/include/linux/err.h **** 
   9:/mnt/c/Users/31740/Desktop/newcore/include/linux/err.h **** #include <asm/errno.h>
  10:/mnt/c/Users/31740/Desktop/newcore/include/linux/err.h **** 
  11:/mnt/c/Users/31740/Desktop/newcore/include/linux/err.h **** /*
  12:/mnt/c/Users/31740/Desktop/newcore/include/linux/err.h ****  * Kernel pointers have redundant information, so we can use a
  13:/mnt/c/Users/31740/Desktop/newcore/include/linux/err.h ****  * scheme where we can return either an error code or a normal
  14:/mnt/c/Users/31740/Desktop/newcore/include/linux/err.h ****  * pointer with the same return value.
  15:/mnt/c/Users/31740/Desktop/newcore/include/linux/err.h ****  *
  16:/mnt/c/Users/31740/Desktop/newcore/include/linux/err.h ****  * This should be a per-architecture thing, to allow different
  17:/mnt/c/Users/31740/Desktop/newcore/include/linux/err.h ****  * error and pointer decisions.
  18:/mnt/c/Users/31740/Desktop/newcore/include/linux/err.h ****  */
  19:/mnt/c/Users/31740/Desktop/newcore/include/linux/err.h **** #define MAX_ERRNO	4095
  20:/mnt/c/Users/31740/Desktop/newcore/include/linux/err.h **** 
  21:/mnt/c/Users/31740/Desktop/newcore/include/linux/err.h **** #ifndef __ASSEMBLY__
  22:/mnt/c/Users/31740/Desktop/newcore/include/linux/err.h **** 
  23:/mnt/c/Users/31740/Desktop/newcore/include/linux/err.h **** /**
  24:/mnt/c/Users/31740/Desktop/newcore/include/linux/err.h ****  * IS_ERR_VALUE - Detect an error pointer.
  25:/mnt/c/Users/31740/Desktop/newcore/include/linux/err.h ****  * @x: The pointer to check.
  26:/mnt/c/Users/31740/Desktop/newcore/include/linux/err.h ****  *
  27:/mnt/c/Users/31740/Desktop/newcore/include/linux/err.h ****  * Like IS_ERR(), but does not generate a compiler warning if result is unused.
ARM GAS  /tmp/ccgc8Kw9.s 			page 4


  28:/mnt/c/Users/31740/Desktop/newcore/include/linux/err.h ****  */
  29:/mnt/c/Users/31740/Desktop/newcore/include/linux/err.h **** 
  30:/mnt/c/Users/31740/Desktop/newcore/include/linux/err.h **** #ifndef unlikely
  31:/mnt/c/Users/31740/Desktop/newcore/include/linux/err.h **** #  define unlikely(x) __builtin_expect(!!(x), 0)
  32:/mnt/c/Users/31740/Desktop/newcore/include/linux/err.h **** #endif
  33:/mnt/c/Users/31740/Desktop/newcore/include/linux/err.h **** 
  34:/mnt/c/Users/31740/Desktop/newcore/include/linux/err.h **** #ifndef likely
  35:/mnt/c/Users/31740/Desktop/newcore/include/linux/err.h **** #  define likely(x) __builtin_expect(!!(x), 1)
  36:/mnt/c/Users/31740/Desktop/newcore/include/linux/err.h **** #endif
  37:/mnt/c/Users/31740/Desktop/newcore/include/linux/err.h **** 
  38:/mnt/c/Users/31740/Desktop/newcore/include/linux/err.h **** #define IS_ERR_VALUE(x) unlikely((unsigned long)(void *)(x) >= (unsigned long)-MAX_ERRNO)
  39:/mnt/c/Users/31740/Desktop/newcore/include/linux/err.h **** 
  40:/mnt/c/Users/31740/Desktop/newcore/include/linux/err.h **** /**
  41:/mnt/c/Users/31740/Desktop/newcore/include/linux/err.h ****  * ERR_PTR - Create an error pointer.
  42:/mnt/c/Users/31740/Desktop/newcore/include/linux/err.h ****  * @error: A negative error code.
  43:/mnt/c/Users/31740/Desktop/newcore/include/linux/err.h ****  *
  44:/mnt/c/Users/31740/Desktop/newcore/include/linux/err.h ****  * Encodes @error into a pointer value. Users should consider the result
  45:/mnt/c/Users/31740/Desktop/newcore/include/linux/err.h ****  * opaque and not assume anything about how the error is encoded.
  46:/mnt/c/Users/31740/Desktop/newcore/include/linux/err.h ****  *
  47:/mnt/c/Users/31740/Desktop/newcore/include/linux/err.h ****  * Return: A pointer with @error encoded within its value.
  48:/mnt/c/Users/31740/Desktop/newcore/include/linux/err.h ****  */
  49:/mnt/c/Users/31740/Desktop/newcore/include/linux/err.h **** static inline void * __must_check ERR_PTR(long error)
  50:/mnt/c/Users/31740/Desktop/newcore/include/linux/err.h **** {
  51:/mnt/c/Users/31740/Desktop/newcore/include/linux/err.h **** 	return (void *) error;
  52:/mnt/c/Users/31740/Desktop/newcore/include/linux/err.h **** }
  53:/mnt/c/Users/31740/Desktop/newcore/include/linux/err.h **** 
  54:/mnt/c/Users/31740/Desktop/newcore/include/linux/err.h **** /* Return the pointer in the percpu address space. */
  55:/mnt/c/Users/31740/Desktop/newcore/include/linux/err.h **** #define ERR_PTR_PCPU(error) ((void __percpu *)(unsigned long)ERR_PTR(error))
  56:/mnt/c/Users/31740/Desktop/newcore/include/linux/err.h **** 
  57:/mnt/c/Users/31740/Desktop/newcore/include/linux/err.h **** /**
  58:/mnt/c/Users/31740/Desktop/newcore/include/linux/err.h ****  * PTR_ERR - Extract the error code from an error pointer.
  59:/mnt/c/Users/31740/Desktop/newcore/include/linux/err.h ****  * @ptr: An error pointer.
  60:/mnt/c/Users/31740/Desktop/newcore/include/linux/err.h ****  * Return: The error code within @ptr.
  61:/mnt/c/Users/31740/Desktop/newcore/include/linux/err.h ****  */
  62:/mnt/c/Users/31740/Desktop/newcore/include/linux/err.h **** static inline long __must_check PTR_ERR(__force const void *ptr)
  63:/mnt/c/Users/31740/Desktop/newcore/include/linux/err.h **** {
  64:/mnt/c/Users/31740/Desktop/newcore/include/linux/err.h **** 	return (long) ptr;
  65:/mnt/c/Users/31740/Desktop/newcore/include/linux/err.h **** }
  66:/mnt/c/Users/31740/Desktop/newcore/include/linux/err.h **** 
  67:/mnt/c/Users/31740/Desktop/newcore/include/linux/err.h **** /* Read an error pointer from the percpu address space. */
  68:/mnt/c/Users/31740/Desktop/newcore/include/linux/err.h **** #define PTR_ERR_PCPU(ptr) (PTR_ERR((const void *)(__force const unsigned long)(ptr)))
  69:/mnt/c/Users/31740/Desktop/newcore/include/linux/err.h **** 
  70:/mnt/c/Users/31740/Desktop/newcore/include/linux/err.h **** /**
  71:/mnt/c/Users/31740/Desktop/newcore/include/linux/err.h ****  * IS_ERR - Detect an error pointer.
  72:/mnt/c/Users/31740/Desktop/newcore/include/linux/err.h ****  * @ptr: The pointer to check.
  73:/mnt/c/Users/31740/Desktop/newcore/include/linux/err.h ****  * Return: true if @ptr is an error pointer, false otherwise.
  74:/mnt/c/Users/31740/Desktop/newcore/include/linux/err.h ****  */
  75:/mnt/c/Users/31740/Desktop/newcore/include/linux/err.h **** static inline bool __must_check IS_ERR(__force const void *ptr)
 115              		.loc 3 75 33 view .LVU11
 116              	.LBB5:
  76:/mnt/c/Users/31740/Desktop/newcore/include/linux/err.h **** {
  77:/mnt/c/Users/31740/Desktop/newcore/include/linux/err.h **** 	return IS_ERR_VALUE((unsigned long)ptr);
 117              		.loc 3 77 2 view .LVU12
 118              		.loc 3 77 2 is_stmt 0 view .LVU13
 119              	.LBE5:
 120              	.LBE4:
 121              		.loc 1 12 7 discriminator 1 view .LVU14
ARM GAS  /tmp/ccgc8Kw9.s 			page 5


 122 0014 10F5805F 		cmn	r0, #4096
 123 0018 1FD8     		bhi	.L11
 124 001a 0446     		mov	r4, r0
  13:/mnt/c/Users/31740/Desktop/newcore/init/gpio_test.c ****     {
  14:/mnt/c/Users/31740/Desktop/newcore/init/gpio_test.c ****         pr_info("open file failed\n\r");
  15:/mnt/c/Users/31740/Desktop/newcore/init/gpio_test.c ****         return;
  16:/mnt/c/Users/31740/Desktop/newcore/init/gpio_test.c ****     }
  17:/mnt/c/Users/31740/Desktop/newcore/init/gpio_test.c ****     int i = vfs_ioctl(fp,GPIO_SET_PIN_NUMBER,18);
 125              		.loc 1 17 5 is_stmt 1 view .LVU15
 126              		.loc 1 17 13 is_stmt 0 view .LVU16
 127 001c 1222     		movs	r2, #18
 128 001e 4021     		movs	r1, #64
 129 0020 FFF7FEFF 		bl	vfs_ioctl
 130              	.LVL5:
  18:/mnt/c/Users/31740/Desktop/newcore/init/gpio_test.c ****     if(i < 0){
 131              		.loc 1 18 5 is_stmt 1 view .LVU17
 132              		.loc 1 18 7 is_stmt 0 view .LVU18
 133 0024 0028     		cmp	r0, #0
 134 0026 1DDB     		blt	.L12
  19:/mnt/c/Users/31740/Desktop/newcore/init/gpio_test.c ****         pr_info("set pin number failed\n\r");
  20:/mnt/c/Users/31740/Desktop/newcore/init/gpio_test.c ****         return;
  21:/mnt/c/Users/31740/Desktop/newcore/init/gpio_test.c ****     }
  22:/mnt/c/Users/31740/Desktop/newcore/init/gpio_test.c ****     vfs_ioctl(fp,GPIO_OUTPUT,0);
 135              		.loc 1 22 5 is_stmt 1 view .LVU19
 136 0028 0022     		movs	r2, #0
 137 002a 0221     		movs	r1, #2
 138 002c 2046     		mov	r0, r4
 139              	.LVL6:
 140              		.loc 1 22 5 is_stmt 0 view .LVU20
 141 002e FFF7FEFF 		bl	vfs_ioctl
 142              	.LVL7:
 143              	.L9:
  23:/mnt/c/Users/31740/Desktop/newcore/init/gpio_test.c ****     while(1)
 144              		.loc 1 23 5 is_stmt 1 view .LVU21
  24:/mnt/c/Users/31740/Desktop/newcore/init/gpio_test.c ****    {
  25:/mnt/c/Users/31740/Desktop/newcore/init/gpio_test.c ****         kernel_write(fp, "1", 1, 0);
 145              		.loc 1 25 9 view .LVU22
 146 0032 0023     		movs	r3, #0
 147 0034 0122     		movs	r2, #1
 148 0036 1049     		ldr	r1, .L13+8
 149 0038 2046     		mov	r0, r4
 150 003a FFF7FEFF 		bl	kernel_write
 151              	.LVL8:
  26:/mnt/c/Users/31740/Desktop/newcore/init/gpio_test.c ****         msleep(100);     
 152              		.loc 1 26 9 view .LVU23
 153 003e 6420     		movs	r0, #100
 154 0040 FFF7FEFF 		bl	msleep
 155              	.LVL9:
  27:/mnt/c/Users/31740/Desktop/newcore/init/gpio_test.c ****         kernel_write(fp, "0", 1, 0);        
 156              		.loc 1 27 9 view .LVU24
 157 0044 0023     		movs	r3, #0
 158 0046 0122     		movs	r2, #1
 159 0048 0C49     		ldr	r1, .L13+12
 160 004a 2046     		mov	r0, r4
 161 004c FFF7FEFF 		bl	kernel_write
 162              	.LVL10:
  28:/mnt/c/Users/31740/Desktop/newcore/init/gpio_test.c ****         msleep(900);
ARM GAS  /tmp/ccgc8Kw9.s 			page 6


 163              		.loc 1 28 9 discriminator 1 view .LVU25
 164 0050 4FF46170 		mov	r0, #900
 165 0054 FFF7FEFF 		bl	msleep
 166              	.LVL11:
  23:/mnt/c/Users/31740/Desktop/newcore/init/gpio_test.c ****    {
 167              		.loc 1 23 10 view .LVU26
 168 0058 EBE7     		b	.L9
 169              	.LVL12:
 170              	.L11:
  14:/mnt/c/Users/31740/Desktop/newcore/init/gpio_test.c ****         return;
 171              		.loc 1 14 9 view .LVU27
 172 005a 0949     		ldr	r1, .L13+16
 173 005c 0620     		movs	r0, #6
 174              	.LVL13:
  14:/mnt/c/Users/31740/Desktop/newcore/init/gpio_test.c ****         return;
 175              		.loc 1 14 9 is_stmt 0 view .LVU28
 176 005e FFF7FEFF 		bl	printk
 177              	.LVL14:
  15:/mnt/c/Users/31740/Desktop/newcore/init/gpio_test.c ****     }
 178              		.loc 1 15 9 is_stmt 1 view .LVU29
 179 0062 03E0     		b	.L5
 180              	.LVL15:
 181              	.L12:
  19:/mnt/c/Users/31740/Desktop/newcore/init/gpio_test.c ****         return;
 182              		.loc 1 19 9 view .LVU30
 183 0064 0749     		ldr	r1, .L13+20
 184 0066 0620     		movs	r0, #6
 185              	.LVL16:
  19:/mnt/c/Users/31740/Desktop/newcore/init/gpio_test.c ****         return;
 186              		.loc 1 19 9 is_stmt 0 view .LVU31
 187 0068 FFF7FEFF 		bl	printk
 188              	.LVL17:
  20:/mnt/c/Users/31740/Desktop/newcore/init/gpio_test.c ****     }
 189              		.loc 1 20 9 is_stmt 1 view .LVU32
 190              	.L5:
  29:/mnt/c/Users/31740/Desktop/newcore/init/gpio_test.c ****     }
  30:/mnt/c/Users/31740/Desktop/newcore/init/gpio_test.c **** }
 191              		.loc 1 30 1 is_stmt 0 view .LVU33
 192 006c 10BD     		pop	{r4, pc}
 193              	.L14:
 194 006e 00BF     		.align	2
 195              	.L13:
 196 0070 00000000 		.word	.LC0
 197 0074 0C000000 		.word	.LC1
 198 0078 44000000 		.word	.LC4
 199 007c 48000000 		.word	.LC5
 200 0080 18000000 		.word	.LC2
 201 0084 2C000000 		.word	.LC3
 202              		.cfi_endproc
 203              	.LFE1035:
 205              		.section	.text.kthread_run,"ax",%progbits
 206              		.align	1
 207              		.syntax unified
 208              		.thumb
 209              		.thumb_func
 211              	kthread_run:
 212              	.LVL18:
ARM GAS  /tmp/ccgc8Kw9.s 			page 7


 213              	.LFB1034:
 214              		.file 4 "/mnt/c/Users/31740/Desktop/newcore/include/linux/kthread.h"
   1:/mnt/c/Users/31740/Desktop/newcore/include/linux/kthread.h **** #ifndef _KTHREADS_H_
   2:/mnt/c/Users/31740/Desktop/newcore/include/linux/kthread.h **** #define _KTHREADS_H_
   3:/mnt/c/Users/31740/Desktop/newcore/include/linux/kthread.h **** 
   4:/mnt/c/Users/31740/Desktop/newcore/include/linux/kthread.h **** #include <linux/sched.h>
   5:/mnt/c/Users/31740/Desktop/newcore/include/linux/kthread.h **** #include <linux/sprintf.h>
   6:/mnt/c/Users/31740/Desktop/newcore/include/linux/kthread.h **** #include <linux/stdarg.h>
   7:/mnt/c/Users/31740/Desktop/newcore/include/linux/kthread.h **** #include <generated/autoconf.h>
   8:/mnt/c/Users/31740/Desktop/newcore/include/linux/kthread.h **** 
   9:/mnt/c/Users/31740/Desktop/newcore/include/linux/kthread.h **** #define KTHREAD_DEFAULT_PRIORITY CONFIG_KTHREAD_DEFAULT_PRIORITY
  10:/mnt/c/Users/31740/Desktop/newcore/include/linux/kthread.h **** #define KTHREAD_DEFAULT_STACK_SIZE 1024*CONFIG_KTHREAD_DEFAULT_STACK_SIZE
  11:/mnt/c/Users/31740/Desktop/newcore/include/linux/kthread.h **** #define default_core_number CONFIG_KTHREAD_DEFAULT_USE_CPU_CORE
  12:/mnt/c/Users/31740/Desktop/newcore/include/linux/kthread.h **** 
  13:/mnt/c/Users/31740/Desktop/newcore/include/linux/kthread.h **** static struct task_struct *kthread_run(
  14:/mnt/c/Users/31740/Desktop/newcore/include/linux/kthread.h ****     int (*threadfn)(void *data), void *data, const char namefmt[],...)
  15:/mnt/c/Users/31740/Desktop/newcore/include/linux/kthread.h **** {
 215              		.loc 4 15 1 is_stmt 1 view -0
 216              		.cfi_startproc
 217              		@ args = 4, pretend = 8, frame = 136
 218              		@ frame_needed = 0, uses_anonymous_args = 1
 219              		.loc 4 15 1 is_stmt 0 view .LVU35
 220 0000 0CB4     		push	{r2, r3}
 221              	.LCFI2:
 222              		.cfi_def_cfa_offset 8
 223              		.cfi_offset 2, -8
 224              		.cfi_offset 3, -4
 225 0002 2DE9F041 		push	{r4, r5, r6, r7, r8, lr}
 226              	.LCFI3:
 227              		.cfi_def_cfa_offset 32
 228              		.cfi_offset 4, -32
 229              		.cfi_offset 5, -28
 230              		.cfi_offset 6, -24
 231              		.cfi_offset 7, -20
 232              		.cfi_offset 8, -16
 233              		.cfi_offset 14, -12
 234 0006 A6B0     		sub	sp, sp, #152
 235              	.LCFI4:
 236              		.cfi_def_cfa_offset 184
 237 0008 0646     		mov	r6, r0
 238 000a 0F46     		mov	r7, r1
 239 000c 2CAC     		add	r4, sp, #176
 240 000e 54F8045B 		ldr	r5, [r4], #4
  16:/mnt/c/Users/31740/Desktop/newcore/include/linux/kthread.h ****     block_scheduler(NULL);
 241              		.loc 4 16 5 is_stmt 1 view .LVU36
 242 0012 0020     		movs	r0, #0
 243              	.LVL19:
 244              		.loc 4 16 5 is_stmt 0 view .LVU37
 245 0014 FFF7FEFF 		bl	block_scheduler
 246              	.LVL20:
  17:/mnt/c/Users/31740/Desktop/newcore/include/linux/kthread.h ****     char name[128];
 247              		.loc 4 17 5 is_stmt 1 view .LVU38
  18:/mnt/c/Users/31740/Desktop/newcore/include/linux/kthread.h ****     va_list args;
 248              		.loc 4 18 5 view .LVU39
  19:/mnt/c/Users/31740/Desktop/newcore/include/linux/kthread.h ****     va_start(args, namefmt);
 249              		.loc 4 19 5 view .LVU40
 250 0018 0594     		str	r4, [sp, #20]
ARM GAS  /tmp/ccgc8Kw9.s 			page 8


  20:/mnt/c/Users/31740/Desktop/newcore/include/linux/kthread.h ****     vsnprintf(name, sizeof(name), namefmt, args);
 251              		.loc 4 20 5 view .LVU41
 252 001a 0DF11808 		add	r8, sp, #24
 253 001e 2346     		mov	r3, r4
 254 0020 2A46     		mov	r2, r5
 255 0022 8021     		movs	r1, #128
 256 0024 4046     		mov	r0, r8
 257 0026 FFF7FEFF 		bl	vsnprintf
 258              	.LVL21:
  21:/mnt/c/Users/31740/Desktop/newcore/include/linux/kthread.h ****     va_end(args);
 259              		.loc 4 21 5 view .LVU42
  22:/mnt/c/Users/31740/Desktop/newcore/include/linux/kthread.h ****     struct task_struct *t = task_run(
 260              		.loc 4 22 5 view .LVU43
 261              		.loc 4 22 29 is_stmt 0 view .LVU44
 262 002a 0025     		movs	r5, #0
 263 002c 0295     		str	r5, [sp, #8]
 264 002e 0195     		str	r5, [sp, #4]
 265 0030 CDF80080 		str	r8, [sp]
 266 0034 0823     		movs	r3, #8
 267 0036 3A46     		mov	r2, r7
 268 0038 4FF48051 		mov	r1, #4096
 269 003c 3046     		mov	r0, r6
 270 003e FFF7FEFF 		bl	task_run
 271              	.LVL22:
 272 0042 0446     		mov	r4, r0
 273              	.LVL23:
  23:/mnt/c/Users/31740/Desktop/newcore/include/linux/kthread.h ****     threadfn,KTHREAD_DEFAULT_STACK_SIZE,data,KTHREAD_DEFAULT_PRIORITY,name,default_core_number,0);
  24:/mnt/c/Users/31740/Desktop/newcore/include/linux/kthread.h ****     run_scheduler(NULL);
 274              		.loc 4 24 5 is_stmt 1 view .LVU45
 275 0044 2846     		mov	r0, r5
 276              	.LVL24:
 277              		.loc 4 24 5 is_stmt 0 view .LVU46
 278 0046 FFF7FEFF 		bl	run_scheduler
 279              	.LVL25:
  25:/mnt/c/Users/31740/Desktop/newcore/include/linux/kthread.h ****     return t;
 280              		.loc 4 25 5 is_stmt 1 view .LVU47
  26:/mnt/c/Users/31740/Desktop/newcore/include/linux/kthread.h **** }
 281              		.loc 4 26 1 is_stmt 0 view .LVU48
 282 004a 2046     		mov	r0, r4
 283 004c 26B0     		add	sp, sp, #152
 284              	.LCFI5:
 285              		.cfi_def_cfa_offset 32
 286              		@ sp needed
 287 004e BDE8F041 		pop	{r4, r5, r6, r7, r8, lr}
 288              	.LCFI6:
 289              		.cfi_restore 14
 290              		.cfi_restore 8
 291              		.cfi_restore 7
 292              		.cfi_restore 6
 293              		.cfi_restore 5
 294              		.cfi_restore 4
 295              		.cfi_def_cfa_offset 8
 296              	.LVL26:
 297              		.loc 4 26 1 view .LVU49
 298 0052 02B0     		add	sp, sp, #8
 299              	.LCFI7:
 300              		.cfi_restore 3
ARM GAS  /tmp/ccgc8Kw9.s 			page 9


 301              		.cfi_restore 2
 302              		.cfi_def_cfa_offset 0
 303 0054 7047     		bx	lr
 304              		.cfi_endproc
 305              	.LFE1034:
 307              		.section	.rodata.gpio_task.str1.4,"aMS",%progbits,1
 308              		.align	2
 309              	.LC6:
 310 0000 6770696F 		.ascii	"gpio_tset\000"
 310      5F747365 
 310      7400
 311              		.section	.text.gpio_task,"ax",%progbits
 312              		.align	1
 313              		.syntax unified
 314              		.thumb
 315              		.thumb_func
 317              	gpio_task:
 318              	.LFB1036:
  31:/mnt/c/Users/31740/Desktop/newcore/init/gpio_test.c **** static void gpio_task()
  32:/mnt/c/Users/31740/Desktop/newcore/init/gpio_test.c **** {
 319              		.loc 1 32 1 is_stmt 1 view -0
 320              		.cfi_startproc
 321              		@ args = 0, pretend = 0, frame = 0
 322              		@ frame_needed = 0, uses_anonymous_args = 0
 323 0000 08B5     		push	{r3, lr}
 324              	.LCFI8:
 325              		.cfi_def_cfa_offset 8
 326              		.cfi_offset 3, -8
 327              		.cfi_offset 14, -4
  33:/mnt/c/Users/31740/Desktop/newcore/init/gpio_test.c ****     kthread_run(gpio_test,NULL,"gpio_tset");
 328              		.loc 1 33 5 view .LVU51
 329 0002 034A     		ldr	r2, .L19
 330 0004 0021     		movs	r1, #0
 331 0006 0348     		ldr	r0, .L19+4
 332 0008 FFF7FEFF 		bl	kthread_run
 333              	.LVL27:
  34:/mnt/c/Users/31740/Desktop/newcore/init/gpio_test.c **** }
 334              		.loc 1 34 1 is_stmt 0 view .LVU52
 335 000c 08BD     		pop	{r3, pc}
 336              	.L20:
 337 000e 00BF     		.align	2
 338              	.L19:
 339 0010 00000000 		.word	.LC6
 340 0014 00000000 		.word	gpio_test
 341              		.cfi_endproc
 342              	.LFE1036:
 344              		.section	.lateinitcall,"aw"
 345              		.align	2
 348              	_initcall_gpio_task:
 349 0000 00000000 		.word	gpio_task
 350              		.text
 351              	.Letext0:
 352              		.file 5 "/mnt/c/Users/31740/Desktop/newcore/include/linux/stdarg.h"
 353              		.file 6 "/mnt/c/Users/31740/Desktop/newcore/include/asm-generic/int-l64.h"
 354              		.file 7 "/mnt/c/Users/31740/Desktop/newcore/include/asm-generic/posix_types.h"
 355              		.file 8 "/mnt/c/Users/31740/Desktop/newcore/include/uapi/linux/types.h"
 356              		.file 9 "/mnt/c/Users/31740/Desktop/newcore/include/linux/types.h"
ARM GAS  /tmp/ccgc8Kw9.s 			page 10


 357              		.file 10 "/mnt/c/Users/31740/Desktop/newcore/include/linux/init.h"
 358              		.file 11 "/mnt/c/Users/31740/Desktop/newcore/include/linux/errseq.h"
 359              		.file 12 "/mnt/c/Users/31740/Desktop/newcore/include/linux/time64.h"
 360              		.file 13 "/mnt/c/Users/31740/Desktop/newcore/arch/arm_m/include/asm/sched.h"
 361              		.file 14 "/mnt/c/Users/31740/Desktop/newcore/include/linux/sched.h"
 362              		.file 15 "/mnt/c/Users/31740/Desktop/newcore/arch/arm_m/include/asm/spinlock.h"
 363              		.file 16 "/mnt/c/Users/31740/Desktop/newcore/include/linux/spinlock_types_raw.h"
 364              		.file 17 "/mnt/c/Users/31740/Desktop/newcore/include/linux/spinlock_types.h"
 365              		.file 18 "/mnt/c/Users/31740/Desktop/newcore/include/linux/rbtree_types.h"
 366              		.file 19 "/mnt/c/Users/31740/Desktop/newcore/include/linux/uidgid_types.h"
 367              		.file 20 "/mnt/c/Users/31740/Desktop/newcore/include/linux/projid.h"
 368              		.file 21 "/mnt/c/Users/31740/Desktop/newcore/include/linux/fs.h"
 369              		.file 22 "/mnt/c/Users/31740/Desktop/newcore/include/linux/mnt_idmapping.h"
 370              		.file 23 "/mnt/c/Users/31740/Desktop/newcore/include/linux/mutex.h"
 371              		.file 24 "/mnt/c/Users/31740/Desktop/newcore/include/linux/uio.h"
 372              		.file 25 "/mnt/c/Users/31740/Desktop/newcore/include/linux/migrate_mode.h"
 373              		.file 26 "/mnt/c/Users/31740/Desktop/newcore/include/linux/wait.h"
 374              		.file 27 "/mnt/c/Users/31740/Desktop/newcore/include/linux/xarray.h"
 375              		.file 28 "/mnt/c/Users/31740/Desktop/newcore/include/linux/rw_hint.h"
 376              		.file 29 "/mnt/c/Users/31740/Desktop/newcore/include/linux/reciprocal_div.h"
 377              		.file 30 "/mnt/c/Users/31740/Desktop/newcore/include/linux/slab.h"
 378              		.file 31 "/mnt/c/Users/31740/Desktop/newcore/include/linux/mm_type.h"
 379              		.file 32 "/mnt/c/Users/31740/Desktop/newcore/include/linux/bvec.h"
 380              		.file 33 "/mnt/c/Users/31740/Desktop/newcore/include/linux/blk_types.h"
 381              		.file 34 "/mnt/c/Users/31740/Desktop/newcore/include/linux/blkdev.h"
 382              		.file 35 "/mnt/c/Users/31740/Desktop/newcore/include/linux/bio.h"
 383              		.file 36 "/mnt/c/Users/31740/Desktop/newcore/include/linux/mempool_super_haper.h"
 384              		.file 37 "/mnt/c/Users/31740/Desktop/newcore/include/linux/mempool.h"
 385              		.file 38 "/mnt/c/Users/31740/Desktop/newcore/include/linux/lockdep_types.h"
 386              		.file 39 "/mnt/c/Users/31740/Desktop/newcore/include/linux/workqueue_types.h"
 387              		.file 40 "/mnt/c/Users/31740/Desktop/newcore/include/linux/blk-mq.h"
 388              		.file 41 "/mnt/c/Users/31740/Desktop/newcore/include/linux/dcache.h"
 389              		.file 42 "/mnt/c/Users/31740/Desktop/newcore/include/uapi/linux/pr.h"
 390              		.file 43 "/mnt/c/Users/31740/Desktop/newcore/include/linux/pr.h"
 391              		.file 44 "/mnt/c/Users/31740/Desktop/newcore/include/linux/hdreg.h"
 392              		.file 45 "/mnt/c/Users/31740/Desktop/newcore/include/linux/lockref.h"
 393              		.file 46 "/mnt/c/Users/31740/Desktop/newcore/include/linux/path.h"
 394              		.file 47 "/mnt/c/Users/31740/Desktop/newcore/include/linux/statfs.h"
 395              		.file 48 "/mnt/c/Users/31740/Desktop/newcore/include/linux/stat.h"
 396              		.file 49 "/mnt/c/Users/31740/Desktop/newcore/include/linux/sprintf.h"
 397              		.file 50 "/mnt/c/Users/31740/Desktop/newcore/include/linux/printk.h"
 398              		.file 51 "/mnt/c/Users/31740/Desktop/newcore/include/linux/time.h"
 399              		.file 52 "<built-in>"
ARM GAS  /tmp/ccgc8Kw9.s 			page 11

