ARM GAS  /tmp/cczxpjuQ.s 			page 1


   1              		.cpu cortex-m4
   2              		.arch armv7e-m
   3              		.fpu fpv4-sp-d16
   4              		.eabi_attribute 27, 1
   5              		.eabi_attribute 28, 1
   6              		.eabi_attribute 20, 1
   7              		.eabi_attribute 21, 1
   8              		.eabi_attribute 23, 3
   9              		.eabi_attribute 24, 1
  10              		.eabi_attribute 25, 1
  11              		.eabi_attribute 26, 1
  12              		.eabi_attribute 30, 1
  13              		.eabi_attribute 34, 1
  14              		.eabi_attribute 18, 4
  15              		.file	"initramfs.c"
  16              		.text
  17              	.Ltext0:
  18              		.cfi_sections	.debug_frame
  19              		.file 1 "/mnt/c/Users/31740/Desktop/newcore/fs/initramfs/initramfs.c"
  20              		.section	.text.__spin_init,"ax",%progbits
  21              		.align	1
  22              		.syntax unified
  23              		.thumb
  24              		.thumb_func
  26              	__spin_init:
  27              	.LVL0:
  28              	.LFB850:
  29              		.file 2 "/mnt/c/Users/31740/Desktop/newcore/arch/arm_m/include/asm/spinlock.h"
   1:/mnt/c/Users/31740/Desktop/newcore/arch/arm_m/include/asm/spinlock.h **** #ifndef __SPIN_LOCK_H_
   2:/mnt/c/Users/31740/Desktop/newcore/arch/arm_m/include/asm/spinlock.h **** #define __SPIN_LOCK_H_
   3:/mnt/c/Users/31740/Desktop/newcore/arch/arm_m/include/asm/spinlock.h **** 
   4:/mnt/c/Users/31740/Desktop/newcore/arch/arm_m/include/asm/spinlock.h **** #include <linux/sched.h>
   5:/mnt/c/Users/31740/Desktop/newcore/arch/arm_m/include/asm/spinlock.h **** 
   6:/mnt/c/Users/31740/Desktop/newcore/arch/arm_m/include/asm/spinlock.h **** typedef struct { 
   7:/mnt/c/Users/31740/Desktop/newcore/arch/arm_m/include/asm/spinlock.h ****      int flag; 
   8:/mnt/c/Users/31740/Desktop/newcore/arch/arm_m/include/asm/spinlock.h **** } arch_spinlock_t;
   9:/mnt/c/Users/31740/Desktop/newcore/arch/arm_m/include/asm/spinlock.h **** 
  10:/mnt/c/Users/31740/Desktop/newcore/arch/arm_m/include/asm/spinlock.h **** static int __spin_init(arch_spinlock_t *lock) 
  11:/mnt/c/Users/31740/Desktop/newcore/arch/arm_m/include/asm/spinlock.h **** {
  30              		.loc 2 11 1 view -0
  31              		.cfi_startproc
  32              		@ args = 0, pretend = 0, frame = 0
  33              		@ frame_needed = 0, uses_anonymous_args = 0
  34              		@ link register save eliminated.
  12:/mnt/c/Users/31740/Desktop/newcore/arch/arm_m/include/asm/spinlock.h ****     lock->flag = 0;
  35              		.loc 2 12 5 view .LVU1
  36              		.loc 2 12 16 is_stmt 0 view .LVU2
  37 0000 0023     		movs	r3, #0
  38 0002 0360     		str	r3, [r0]
  39              	.LVL1:
  13:/mnt/c/Users/31740/Desktop/newcore/arch/arm_m/include/asm/spinlock.h **** }
  40              		.loc 2 13 1 view .LVU3
  41 0004 7047     		bx	lr
  42              		.cfi_endproc
  43              	.LFE850:
  45              		.section	.text.__spin_unlock,"ax",%progbits
  46              		.align	1
ARM GAS  /tmp/cczxpjuQ.s 			page 2


  47              		.syntax unified
  48              		.thumb
  49              		.thumb_func
  51              	__spin_unlock:
  52              	.LVL2:
  53              	.LFB852:
  14:/mnt/c/Users/31740/Desktop/newcore/arch/arm_m/include/asm/spinlock.h **** 
  15:/mnt/c/Users/31740/Desktop/newcore/arch/arm_m/include/asm/spinlock.h **** static int __spin_lock(arch_spinlock_t *lock) {
  16:/mnt/c/Users/31740/Desktop/newcore/arch/arm_m/include/asm/spinlock.h **** 
  17:/mnt/c/Users/31740/Desktop/newcore/arch/arm_m/include/asm/spinlock.h ****     stop_all_scheduler();
  18:/mnt/c/Users/31740/Desktop/newcore/arch/arm_m/include/asm/spinlock.h ****     if(lock->flag == 0){
  19:/mnt/c/Users/31740/Desktop/newcore/arch/arm_m/include/asm/spinlock.h ****           lock->flag = 1;  
  20:/mnt/c/Users/31740/Desktop/newcore/arch/arm_m/include/asm/spinlock.h ****           start_all_scheduler();
  21:/mnt/c/Users/31740/Desktop/newcore/arch/arm_m/include/asm/spinlock.h ****         return 1;
  22:/mnt/c/Users/31740/Desktop/newcore/arch/arm_m/include/asm/spinlock.h ****     }
  23:/mnt/c/Users/31740/Desktop/newcore/arch/arm_m/include/asm/spinlock.h ****     else
  24:/mnt/c/Users/31740/Desktop/newcore/arch/arm_m/include/asm/spinlock.h ****     {
  25:/mnt/c/Users/31740/Desktop/newcore/arch/arm_m/include/asm/spinlock.h ****         start_all_scheduler();
  26:/mnt/c/Users/31740/Desktop/newcore/arch/arm_m/include/asm/spinlock.h ****         return 0;
  27:/mnt/c/Users/31740/Desktop/newcore/arch/arm_m/include/asm/spinlock.h ****     }
  28:/mnt/c/Users/31740/Desktop/newcore/arch/arm_m/include/asm/spinlock.h **** }
  29:/mnt/c/Users/31740/Desktop/newcore/arch/arm_m/include/asm/spinlock.h **** 
  30:/mnt/c/Users/31740/Desktop/newcore/arch/arm_m/include/asm/spinlock.h **** static void  __spin_unlock( arch_spinlock_t *lock ){
  54              		.loc 2 30 52 is_stmt 1 view -0
  55              		.cfi_startproc
  56              		@ args = 0, pretend = 0, frame = 0
  57              		@ frame_needed = 0, uses_anonymous_args = 0
  58              		@ link register save eliminated.
  31:/mnt/c/Users/31740/Desktop/newcore/arch/arm_m/include/asm/spinlock.h ****     lock->flag = 0;
  59              		.loc 2 31 5 view .LVU5
  60              		.loc 2 31 16 is_stmt 0 view .LVU6
  61 0000 0023     		movs	r3, #0
  62 0002 0360     		str	r3, [r0]
  32:/mnt/c/Users/31740/Desktop/newcore/arch/arm_m/include/asm/spinlock.h **** }
  63              		.loc 2 32 1 view .LVU7
  64 0004 7047     		bx	lr
  65              		.cfi_endproc
  66              	.LFE852:
  68              		.section	.text.spin_lock_init,"ax",%progbits
  69              		.align	1
  70              		.syntax unified
  71              		.thumb
  72              		.thumb_func
  74              	spin_lock_init:
  75              	.LVL3:
  76              	.LFB853:
  77              		.file 3 "/mnt/c/Users/31740/Desktop/newcore/include/linux/spinlock.h"
   1:/mnt/c/Users/31740/Desktop/newcore/include/linux/spinlock.h **** #ifndef __SPINLOCK_H__
   2:/mnt/c/Users/31740/Desktop/newcore/include/linux/spinlock.h **** #define __SPINLOCK_H__
   3:/mnt/c/Users/31740/Desktop/newcore/include/linux/spinlock.h **** 
   4:/mnt/c/Users/31740/Desktop/newcore/include/linux/spinlock.h **** #include <linux/types.h>
   5:/mnt/c/Users/31740/Desktop/newcore/include/linux/spinlock.h **** #include <linux/spinlock_types.h>
   6:/mnt/c/Users/31740/Desktop/newcore/include/linux/spinlock.h **** #include <linux/sched.h>
   7:/mnt/c/Users/31740/Desktop/newcore/include/linux/spinlock.h **** 
   8:/mnt/c/Users/31740/Desktop/newcore/include/linux/spinlock.h **** 
   9:/mnt/c/Users/31740/Desktop/newcore/include/linux/spinlock.h **** 
  10:/mnt/c/Users/31740/Desktop/newcore/include/linux/spinlock.h **** static void spin_lock_init(spinlock_t* lock){
ARM GAS  /tmp/cczxpjuQ.s 			page 3


  78              		.loc 3 10 45 is_stmt 1 view -0
  79              		.cfi_startproc
  80              		@ args = 0, pretend = 0, frame = 0
  81              		@ frame_needed = 0, uses_anonymous_args = 0
  82              		.loc 3 10 45 is_stmt 0 view .LVU9
  83 0000 08B5     		push	{r3, lr}
  84              	.LCFI0:
  85              		.cfi_def_cfa_offset 8
  86              		.cfi_offset 3, -8
  87              		.cfi_offset 14, -4
  11:/mnt/c/Users/31740/Desktop/newcore/include/linux/spinlock.h ****     __spin_init(&lock->rlock.raw_lock);
  88              		.loc 3 11 5 is_stmt 1 view .LVU10
  89 0002 FFF7FEFF 		bl	__spin_init
  90              	.LVL4:
  12:/mnt/c/Users/31740/Desktop/newcore/include/linux/spinlock.h **** }
  91              		.loc 3 12 1 is_stmt 0 view .LVU11
  92 0006 08BD     		pop	{r3, pc}
  93              		.cfi_endproc
  94              	.LFE853:
  96              		.section	.text.spin_unlock,"ax",%progbits
  97              		.align	1
  98              		.syntax unified
  99              		.thumb
 100              		.thumb_func
 102              	spin_unlock:
 103              	.LVL5:
 104              	.LFB855:
  13:/mnt/c/Users/31740/Desktop/newcore/include/linux/spinlock.h **** 
  14:/mnt/c/Users/31740/Desktop/newcore/include/linux/spinlock.h **** static void spin_lock(spinlock_t* lock)
  15:/mnt/c/Users/31740/Desktop/newcore/include/linux/spinlock.h **** {  
  16:/mnt/c/Users/31740/Desktop/newcore/include/linux/spinlock.h ****     while (1)
  17:/mnt/c/Users/31740/Desktop/newcore/include/linux/spinlock.h ****     {
  18:/mnt/c/Users/31740/Desktop/newcore/include/linux/spinlock.h ****         if(__spin_lock(&lock->rlock.raw_lock) == 1){
  19:/mnt/c/Users/31740/Desktop/newcore/include/linux/spinlock.h ****             lock->owner = get_current_task();
  20:/mnt/c/Users/31740/Desktop/newcore/include/linux/spinlock.h ****             break;
  21:/mnt/c/Users/31740/Desktop/newcore/include/linux/spinlock.h ****         }
  22:/mnt/c/Users/31740/Desktop/newcore/include/linux/spinlock.h ****         else  if(lock->owner == get_current_task()){  //å¦‚æžœå·²ç»è¢«é”ä½ä½†æ˜¯é”æ˜¯è‡ªå·±çš„ï
  23:/mnt/c/Users/31740/Desktop/newcore/include/linux/spinlock.h ****             return;   
  24:/mnt/c/Users/31740/Desktop/newcore/include/linux/spinlock.h ****         }
  25:/mnt/c/Users/31740/Desktop/newcore/include/linux/spinlock.h ****         else{
  26:/mnt/c/Users/31740/Desktop/newcore/include/linux/spinlock.h ****             __delay(5); //ä¸»åŠ¨è®©å‡ºæ—¶é—´ç‰‡
  27:/mnt/c/Users/31740/Desktop/newcore/include/linux/spinlock.h ****         }
  28:/mnt/c/Users/31740/Desktop/newcore/include/linux/spinlock.h ****     }
  29:/mnt/c/Users/31740/Desktop/newcore/include/linux/spinlock.h **** }
  30:/mnt/c/Users/31740/Desktop/newcore/include/linux/spinlock.h **** 
  31:/mnt/c/Users/31740/Desktop/newcore/include/linux/spinlock.h **** static void spin_unlock(spinlock_t* lock)
  32:/mnt/c/Users/31740/Desktop/newcore/include/linux/spinlock.h **** {
 105              		.loc 3 32 1 is_stmt 1 view -0
 106              		.cfi_startproc
 107              		@ args = 0, pretend = 0, frame = 0
 108              		@ frame_needed = 0, uses_anonymous_args = 0
 109              		.loc 3 32 1 is_stmt 0 view .LVU13
 110 0000 08B5     		push	{r3, lr}
 111              	.LCFI1:
 112              		.cfi_def_cfa_offset 8
 113              		.cfi_offset 3, -8
 114              		.cfi_offset 14, -4
ARM GAS  /tmp/cczxpjuQ.s 			page 4


  33:/mnt/c/Users/31740/Desktop/newcore/include/linux/spinlock.h ****     __spin_unlock(&lock->rlock.raw_lock);
 115              		.loc 3 33 5 is_stmt 1 view .LVU14
 116 0002 FFF7FEFF 		bl	__spin_unlock
 117              	.LVL6:
  34:/mnt/c/Users/31740/Desktop/newcore/include/linux/spinlock.h **** }
 118              		.loc 3 34 1 is_stmt 0 view .LVU15
 119 0006 08BD     		pop	{r3, pc}
 120              		.cfi_endproc
 121              	.LFE855:
 123              		.section	.text.__kmap,"ax",%progbits
 124              		.align	1
 125              		.syntax unified
 126              		.thumb
 127              		.thumb_func
 129              	__kmap:
 130              	.LVL7:
 131              	.LFB920:
 132              		.file 4 "/mnt/c/Users/31740/Desktop/newcore/include/linux/mm_type.h"
   1:/mnt/c/Users/31740/Desktop/newcore/include/linux/mm_type.h **** /* SPDX-License-Identifier: GPL-2.0 */
   2:/mnt/c/Users/31740/Desktop/newcore/include/linux/mm_type.h **** #ifndef _LINUX_MM_TYPES_H
   3:/mnt/c/Users/31740/Desktop/newcore/include/linux/mm_type.h **** #define _LINUX_MM_TYPES_H
   4:/mnt/c/Users/31740/Desktop/newcore/include/linux/mm_type.h **** 
   5:/mnt/c/Users/31740/Desktop/newcore/include/linux/mm_type.h **** #include <linux/list.h>
   6:/mnt/c/Users/31740/Desktop/newcore/include/linux/mm_type.h **** #include <linux/spinlock.h>
   7:/mnt/c/Users/31740/Desktop/newcore/include/linux/mm_type.h **** #include <linux/slab.h>
   8:/mnt/c/Users/31740/Desktop/newcore/include/linux/mm_type.h **** #include <linux/atomic.h>
   9:/mnt/c/Users/31740/Desktop/newcore/include/linux/mm_type.h **** #include <linux/errno.h>
  10:/mnt/c/Users/31740/Desktop/newcore/include/linux/mm_type.h **** 
  11:/mnt/c/Users/31740/Desktop/newcore/include/linux/mm_type.h **** 
  12:/mnt/c/Users/31740/Desktop/newcore/include/linux/mm_type.h **** 
  13:/mnt/c/Users/31740/Desktop/newcore/include/linux/mm_type.h **** struct page {
  14:/mnt/c/Users/31740/Desktop/newcore/include/linux/mm_type.h **** 	unsigned long flags;		/* Atomic flags, some possibly
  15:/mnt/c/Users/31740/Desktop/newcore/include/linux/mm_type.h **** 					 * updated asynchronously */
  16:/mnt/c/Users/31740/Desktop/newcore/include/linux/mm_type.h **** 	/*
  17:/mnt/c/Users/31740/Desktop/newcore/include/linux/mm_type.h **** 	 * Five words (20/40 bytes) are available in this union.
  18:/mnt/c/Users/31740/Desktop/newcore/include/linux/mm_type.h **** 	 * WARNING: bit 0 of the first word is used for PageTail(). That
  19:/mnt/c/Users/31740/Desktop/newcore/include/linux/mm_type.h **** 	 * means the other users of this union MUST NOT use the bit to
  20:/mnt/c/Users/31740/Desktop/newcore/include/linux/mm_type.h **** 	 * avoid collision and false-positive PageTail().
  21:/mnt/c/Users/31740/Desktop/newcore/include/linux/mm_type.h **** 	 */
  22:/mnt/c/Users/31740/Desktop/newcore/include/linux/mm_type.h **** 	union {
  23:/mnt/c/Users/31740/Desktop/newcore/include/linux/mm_type.h **** 		struct {	/* Page cache and anonymous pages */
  24:/mnt/c/Users/31740/Desktop/newcore/include/linux/mm_type.h **** 			/**
  25:/mnt/c/Users/31740/Desktop/newcore/include/linux/mm_type.h **** 			 * @lru: Pageout list, eg. active_list protected by
  26:/mnt/c/Users/31740/Desktop/newcore/include/linux/mm_type.h **** 			 * lruvec->lru_lock.  Sometimes used as a generic list
  27:/mnt/c/Users/31740/Desktop/newcore/include/linux/mm_type.h **** 			 * by the page owner.
  28:/mnt/c/Users/31740/Desktop/newcore/include/linux/mm_type.h **** 			 */
  29:/mnt/c/Users/31740/Desktop/newcore/include/linux/mm_type.h **** 			union {
  30:/mnt/c/Users/31740/Desktop/newcore/include/linux/mm_type.h **** 				struct list_head lru;
  31:/mnt/c/Users/31740/Desktop/newcore/include/linux/mm_type.h **** 
  32:/mnt/c/Users/31740/Desktop/newcore/include/linux/mm_type.h **** 				/* Or, for the Unevictable "LRU list" slot */
  33:/mnt/c/Users/31740/Desktop/newcore/include/linux/mm_type.h **** 				struct {
  34:/mnt/c/Users/31740/Desktop/newcore/include/linux/mm_type.h **** 					/* Always even, to negate PageTail */
  35:/mnt/c/Users/31740/Desktop/newcore/include/linux/mm_type.h **** 					void *__filler;
  36:/mnt/c/Users/31740/Desktop/newcore/include/linux/mm_type.h **** 					/* Count page's or folio's mlocks */
  37:/mnt/c/Users/31740/Desktop/newcore/include/linux/mm_type.h **** 					unsigned int mlock_count;
  38:/mnt/c/Users/31740/Desktop/newcore/include/linux/mm_type.h **** 				};
  39:/mnt/c/Users/31740/Desktop/newcore/include/linux/mm_type.h **** 
ARM GAS  /tmp/cczxpjuQ.s 			page 5


  40:/mnt/c/Users/31740/Desktop/newcore/include/linux/mm_type.h **** 				/* Or, free page */
  41:/mnt/c/Users/31740/Desktop/newcore/include/linux/mm_type.h **** 				struct list_head buddy_list;
  42:/mnt/c/Users/31740/Desktop/newcore/include/linux/mm_type.h **** 				struct list_head pcp_list;
  43:/mnt/c/Users/31740/Desktop/newcore/include/linux/mm_type.h **** 			};
  44:/mnt/c/Users/31740/Desktop/newcore/include/linux/mm_type.h **** 			/* See page-flags.h for PAGE_MAPPING_FLAGS */
  45:/mnt/c/Users/31740/Desktop/newcore/include/linux/mm_type.h **** 			struct address_space *mapping;
  46:/mnt/c/Users/31740/Desktop/newcore/include/linux/mm_type.h **** 			union {
  47:/mnt/c/Users/31740/Desktop/newcore/include/linux/mm_type.h **** 				pgoff_t index;		/* Our offset within mapping. */
  48:/mnt/c/Users/31740/Desktop/newcore/include/linux/mm_type.h **** 				unsigned long share;	/* share count for fsdax */
  49:/mnt/c/Users/31740/Desktop/newcore/include/linux/mm_type.h **** 			};
  50:/mnt/c/Users/31740/Desktop/newcore/include/linux/mm_type.h **** 			/**
  51:/mnt/c/Users/31740/Desktop/newcore/include/linux/mm_type.h **** 			 * @private: Mapping-private opaque data.
  52:/mnt/c/Users/31740/Desktop/newcore/include/linux/mm_type.h **** 			 * Usually used for buffer_heads if PagePrivate.
  53:/mnt/c/Users/31740/Desktop/newcore/include/linux/mm_type.h **** 			 * Used for swp_entry_t if swapcache flag set.
  54:/mnt/c/Users/31740/Desktop/newcore/include/linux/mm_type.h **** 			 * Indicates order in the buddy system if PageBuddy.
  55:/mnt/c/Users/31740/Desktop/newcore/include/linux/mm_type.h **** 			 */
  56:/mnt/c/Users/31740/Desktop/newcore/include/linux/mm_type.h **** 			unsigned long private;
  57:/mnt/c/Users/31740/Desktop/newcore/include/linux/mm_type.h **** 		};
  58:/mnt/c/Users/31740/Desktop/newcore/include/linux/mm_type.h **** 		struct {	/* page_pool used by netstack */
  59:/mnt/c/Users/31740/Desktop/newcore/include/linux/mm_type.h **** 			/**
  60:/mnt/c/Users/31740/Desktop/newcore/include/linux/mm_type.h **** 			 * @pp_magic: magic value to avoid recycling non
  61:/mnt/c/Users/31740/Desktop/newcore/include/linux/mm_type.h **** 			 * page_pool allocated pages.
  62:/mnt/c/Users/31740/Desktop/newcore/include/linux/mm_type.h **** 			 */
  63:/mnt/c/Users/31740/Desktop/newcore/include/linux/mm_type.h **** 			unsigned long pp_magic;
  64:/mnt/c/Users/31740/Desktop/newcore/include/linux/mm_type.h **** 		//	struct page_pool *pp; 
  65:/mnt/c/Users/31740/Desktop/newcore/include/linux/mm_type.h **** 			unsigned long _pp_mapping_pad;
  66:/mnt/c/Users/31740/Desktop/newcore/include/linux/mm_type.h **** 			unsigned long dma_addr;
  67:/mnt/c/Users/31740/Desktop/newcore/include/linux/mm_type.h **** 		//	atomic_long_t pp_ref_count;
  68:/mnt/c/Users/31740/Desktop/newcore/include/linux/mm_type.h **** 		};
  69:/mnt/c/Users/31740/Desktop/newcore/include/linux/mm_type.h **** 		struct {	/* Tail pages of compound page */
  70:/mnt/c/Users/31740/Desktop/newcore/include/linux/mm_type.h **** 			unsigned long compound_head;	/* Bit zero is set */
  71:/mnt/c/Users/31740/Desktop/newcore/include/linux/mm_type.h **** 		};
  72:/mnt/c/Users/31740/Desktop/newcore/include/linux/mm_type.h **** 		struct {	/* ZONE_DEVICE pages */
  73:/mnt/c/Users/31740/Desktop/newcore/include/linux/mm_type.h **** 			/** @pgmap: Points to the hosting device page map. */
  74:/mnt/c/Users/31740/Desktop/newcore/include/linux/mm_type.h **** 			// struct dev_pagemap *pgmap;
  75:/mnt/c/Users/31740/Desktop/newcore/include/linux/mm_type.h **** 			void *zone_device_data;
  76:/mnt/c/Users/31740/Desktop/newcore/include/linux/mm_type.h **** 			/*
  77:/mnt/c/Users/31740/Desktop/newcore/include/linux/mm_type.h **** 			 * ZONE_DEVICE private pages are counted as being
  78:/mnt/c/Users/31740/Desktop/newcore/include/linux/mm_type.h **** 			 * mapped so the next 3 words hold the mapping, index,
  79:/mnt/c/Users/31740/Desktop/newcore/include/linux/mm_type.h **** 			 * and private fields from the source anonymous or
  80:/mnt/c/Users/31740/Desktop/newcore/include/linux/mm_type.h **** 			 * page cache page while the page is migrated to device
  81:/mnt/c/Users/31740/Desktop/newcore/include/linux/mm_type.h **** 			 * private memory.
  82:/mnt/c/Users/31740/Desktop/newcore/include/linux/mm_type.h **** 			 * ZONE_DEVICE MEMORY_DEVICE_FS_DAX pages also
  83:/mnt/c/Users/31740/Desktop/newcore/include/linux/mm_type.h **** 			 * use the mapping, index, and private fields when
  84:/mnt/c/Users/31740/Desktop/newcore/include/linux/mm_type.h **** 			 * pmem backed DAX files are mapped.
  85:/mnt/c/Users/31740/Desktop/newcore/include/linux/mm_type.h **** 			 */
  86:/mnt/c/Users/31740/Desktop/newcore/include/linux/mm_type.h **** 		};
  87:/mnt/c/Users/31740/Desktop/newcore/include/linux/mm_type.h **** 
  88:/mnt/c/Users/31740/Desktop/newcore/include/linux/mm_type.h **** 		/** @rcu_head: You can use this to free a page by RCU. */
  89:/mnt/c/Users/31740/Desktop/newcore/include/linux/mm_type.h **** 		struct rcu_head rcu_head;
  90:/mnt/c/Users/31740/Desktop/newcore/include/linux/mm_type.h **** 	};
  91:/mnt/c/Users/31740/Desktop/newcore/include/linux/mm_type.h **** 
  92:/mnt/c/Users/31740/Desktop/newcore/include/linux/mm_type.h **** 	union {		/* This union is 4 bytes in size. */
  93:/mnt/c/Users/31740/Desktop/newcore/include/linux/mm_type.h **** 		/*
  94:/mnt/c/Users/31740/Desktop/newcore/include/linux/mm_type.h **** 		 * For head pages of typed folios, the value stored here
  95:/mnt/c/Users/31740/Desktop/newcore/include/linux/mm_type.h **** 		 * allows for determining what this page is used for. The
  96:/mnt/c/Users/31740/Desktop/newcore/include/linux/mm_type.h **** 		 * tail pages of typed folios will not store a type
ARM GAS  /tmp/cczxpjuQ.s 			page 6


  97:/mnt/c/Users/31740/Desktop/newcore/include/linux/mm_type.h **** 		 * (page_type == _mapcount == -1).
  98:/mnt/c/Users/31740/Desktop/newcore/include/linux/mm_type.h **** 		 *
  99:/mnt/c/Users/31740/Desktop/newcore/include/linux/mm_type.h **** 		 * See page-flags.h for a list of page types which are currently
 100:/mnt/c/Users/31740/Desktop/newcore/include/linux/mm_type.h **** 		 * stored here.
 101:/mnt/c/Users/31740/Desktop/newcore/include/linux/mm_type.h **** 		 *
 102:/mnt/c/Users/31740/Desktop/newcore/include/linux/mm_type.h **** 		 * Owners of typed folios may reuse the lower 16 bit of the
 103:/mnt/c/Users/31740/Desktop/newcore/include/linux/mm_type.h **** 		 * head page page_type field after setting the page type,
 104:/mnt/c/Users/31740/Desktop/newcore/include/linux/mm_type.h **** 		 * but must reset these 16 bit to -1 before clearing the
 105:/mnt/c/Users/31740/Desktop/newcore/include/linux/mm_type.h **** 		 * page type.
 106:/mnt/c/Users/31740/Desktop/newcore/include/linux/mm_type.h **** 		 */
 107:/mnt/c/Users/31740/Desktop/newcore/include/linux/mm_type.h **** 		unsigned int page_type;
 108:/mnt/c/Users/31740/Desktop/newcore/include/linux/mm_type.h **** 
 109:/mnt/c/Users/31740/Desktop/newcore/include/linux/mm_type.h **** 		/*
 110:/mnt/c/Users/31740/Desktop/newcore/include/linux/mm_type.h **** 		 * For pages that are part of non-typed folios for which mappings
 111:/mnt/c/Users/31740/Desktop/newcore/include/linux/mm_type.h **** 		 * are tracked via the RMAP, encodes the number of times this page
 112:/mnt/c/Users/31740/Desktop/newcore/include/linux/mm_type.h **** 		 * is directly referenced by a page table.
 113:/mnt/c/Users/31740/Desktop/newcore/include/linux/mm_type.h **** 		 *
 114:/mnt/c/Users/31740/Desktop/newcore/include/linux/mm_type.h **** 		 * Note that the mapcount is always initialized to -1, so that
 115:/mnt/c/Users/31740/Desktop/newcore/include/linux/mm_type.h **** 		 * transitions both from it and to it can be tracked, using
 116:/mnt/c/Users/31740/Desktop/newcore/include/linux/mm_type.h **** 		 * atomic_inc_and_test() and atomic_add_negative(-1).
 117:/mnt/c/Users/31740/Desktop/newcore/include/linux/mm_type.h **** 		 */
 118:/mnt/c/Users/31740/Desktop/newcore/include/linux/mm_type.h **** 		atomic_t _mapcount;
 119:/mnt/c/Users/31740/Desktop/newcore/include/linux/mm_type.h **** 	};
 120:/mnt/c/Users/31740/Desktop/newcore/include/linux/mm_type.h **** 
 121:/mnt/c/Users/31740/Desktop/newcore/include/linux/mm_type.h **** 	/* Usage count. *DO NOT USE DIRECTLY*. See page_ref.h */
 122:/mnt/c/Users/31740/Desktop/newcore/include/linux/mm_type.h **** 	atomic_t _refcount;
 123:/mnt/c/Users/31740/Desktop/newcore/include/linux/mm_type.h **** 
 124:/mnt/c/Users/31740/Desktop/newcore/include/linux/mm_type.h **** #ifdef CONFIG_MEMCG
 125:/mnt/c/Users/31740/Desktop/newcore/include/linux/mm_type.h **** 	unsigned long memcg_data;
 126:/mnt/c/Users/31740/Desktop/newcore/include/linux/mm_type.h **** #elif defined(CONFIG_SLAB_OBJ_EXT)
 127:/mnt/c/Users/31740/Desktop/newcore/include/linux/mm_type.h **** 	unsigned long _unused_slab_obj_exts;
 128:/mnt/c/Users/31740/Desktop/newcore/include/linux/mm_type.h **** #endif
 129:/mnt/c/Users/31740/Desktop/newcore/include/linux/mm_type.h **** 
 130:/mnt/c/Users/31740/Desktop/newcore/include/linux/mm_type.h **** 	/*
 131:/mnt/c/Users/31740/Desktop/newcore/include/linux/mm_type.h **** 	 * On machines where all RAM is mapped into kernel address space,
 132:/mnt/c/Users/31740/Desktop/newcore/include/linux/mm_type.h **** 	 * we can simply calculate the virtual address. On machines with
 133:/mnt/c/Users/31740/Desktop/newcore/include/linux/mm_type.h **** 	 * highmem some memory is mapped into kernel virtual memory
 134:/mnt/c/Users/31740/Desktop/newcore/include/linux/mm_type.h **** 	 * dynamically, so we need a place to store that address.
 135:/mnt/c/Users/31740/Desktop/newcore/include/linux/mm_type.h **** 	 * Note that this field could be 16 bits on x86 ... ;)
 136:/mnt/c/Users/31740/Desktop/newcore/include/linux/mm_type.h **** 	 *
 137:/mnt/c/Users/31740/Desktop/newcore/include/linux/mm_type.h **** 	 * Architectures with slow multiplication can define
 138:/mnt/c/Users/31740/Desktop/newcore/include/linux/mm_type.h **** 	 * WANT_PAGE_VIRTUAL in asm/page.h
 139:/mnt/c/Users/31740/Desktop/newcore/include/linux/mm_type.h **** 	 */
 140:/mnt/c/Users/31740/Desktop/newcore/include/linux/mm_type.h **** #if defined(WANT_PAGE_VIRTUAL)
 141:/mnt/c/Users/31740/Desktop/newcore/include/linux/mm_type.h **** 	void *virtual;			/* Kernel virtual address (NULL if
 142:/mnt/c/Users/31740/Desktop/newcore/include/linux/mm_type.h **** 					   not kmapped, ie. highmem) */
 143:/mnt/c/Users/31740/Desktop/newcore/include/linux/mm_type.h **** #endif /* WANT_PAGE_VIRTUAL */
 144:/mnt/c/Users/31740/Desktop/newcore/include/linux/mm_type.h **** 
 145:/mnt/c/Users/31740/Desktop/newcore/include/linux/mm_type.h **** #ifdef LAST_CPUPID_NOT_IN_PAGE_FLAGS
 146:/mnt/c/Users/31740/Desktop/newcore/include/linux/mm_type.h **** 	int _last_cpupid;
 147:/mnt/c/Users/31740/Desktop/newcore/include/linux/mm_type.h **** #endif
 148:/mnt/c/Users/31740/Desktop/newcore/include/linux/mm_type.h **** 
 149:/mnt/c/Users/31740/Desktop/newcore/include/linux/mm_type.h **** #ifdef CONFIG_KMSAN
 150:/mnt/c/Users/31740/Desktop/newcore/include/linux/mm_type.h **** 	/*
 151:/mnt/c/Users/31740/Desktop/newcore/include/linux/mm_type.h **** 	 * KMSAN metadata for this page:
 152:/mnt/c/Users/31740/Desktop/newcore/include/linux/mm_type.h **** 	 *  - shadow page: every bit indicates whether the corresponding
 153:/mnt/c/Users/31740/Desktop/newcore/include/linux/mm_type.h **** 	 *    bit of the original page is initialized (0) or not (1);
ARM GAS  /tmp/cczxpjuQ.s 			page 7


 154:/mnt/c/Users/31740/Desktop/newcore/include/linux/mm_type.h **** 	 *  - origin page: every 4 bytes contain an id of the stack trace
 155:/mnt/c/Users/31740/Desktop/newcore/include/linux/mm_type.h **** 	 *    where the uninitialized value was created.
 156:/mnt/c/Users/31740/Desktop/newcore/include/linux/mm_type.h **** 	 */
 157:/mnt/c/Users/31740/Desktop/newcore/include/linux/mm_type.h **** 	struct page *kmsan_shadow;
 158:/mnt/c/Users/31740/Desktop/newcore/include/linux/mm_type.h **** 	struct page *kmsan_origin;
 159:/mnt/c/Users/31740/Desktop/newcore/include/linux/mm_type.h **** #endif
 160:/mnt/c/Users/31740/Desktop/newcore/include/linux/mm_type.h **** };
 161:/mnt/c/Users/31740/Desktop/newcore/include/linux/mm_type.h **** 
 162:/mnt/c/Users/31740/Desktop/newcore/include/linux/mm_type.h **** #if CONFIG_MMU 
 163:/mnt/c/Users/31740/Desktop/newcore/include/linux/mm_type.h ****   #include <mm_page.h>
 164:/mnt/c/Users/31740/Desktop/newcore/include/linux/mm_type.h **** 
 165:/mnt/c/Users/31740/Desktop/newcore/include/linux/mm_type.h **** #else
 166:/mnt/c/Users/31740/Desktop/newcore/include/linux/mm_type.h **** 
 167:/mnt/c/Users/31740/Desktop/newcore/include/linux/mm_type.h **** 
 168:/mnt/c/Users/31740/Desktop/newcore/include/linux/mm_type.h **** 
 169:/mnt/c/Users/31740/Desktop/newcore/include/linux/mm_type.h **** 
 170:/mnt/c/Users/31740/Desktop/newcore/include/linux/mm_type.h **** #define PG_locked       (1 << 0)
 171:/mnt/c/Users/31740/Desktop/newcore/include/linux/mm_type.h **** #define PG_referenced   (1 << 1)
 172:/mnt/c/Users/31740/Desktop/newcore/include/linux/mm_type.h **** #define PG_uptodate     (1 << 2)
 173:/mnt/c/Users/31740/Desktop/newcore/include/linux/mm_type.h **** #define PG_dirty        (1 << 11)
 174:/mnt/c/Users/31740/Desktop/newcore/include/linux/mm_type.h **** #define PG_active       (1 << 12)
 175:/mnt/c/Users/31740/Desktop/newcore/include/linux/mm_type.h **** 
 176:/mnt/c/Users/31740/Desktop/newcore/include/linux/mm_type.h **** static inline void __set_page_flag(struct page *page, unsigned long flag){
 177:/mnt/c/Users/31740/Desktop/newcore/include/linux/mm_type.h ****     if (page)
 178:/mnt/c/Users/31740/Desktop/newcore/include/linux/mm_type.h ****         page->flags |= flag;
 179:/mnt/c/Users/31740/Desktop/newcore/include/linux/mm_type.h **** }
 180:/mnt/c/Users/31740/Desktop/newcore/include/linux/mm_type.h **** static inline void __clear_page_flag(struct page *page, unsigned long flag){
 181:/mnt/c/Users/31740/Desktop/newcore/include/linux/mm_type.h ****     if (page)
 182:/mnt/c/Users/31740/Desktop/newcore/include/linux/mm_type.h ****         page->flags &= ~flag;
 183:/mnt/c/Users/31740/Desktop/newcore/include/linux/mm_type.h **** }
 184:/mnt/c/Users/31740/Desktop/newcore/include/linux/mm_type.h **** 
 185:/mnt/c/Users/31740/Desktop/newcore/include/linux/mm_type.h **** static inline int __test_page_flag(struct page *page, unsigned long flag){
 186:/mnt/c/Users/31740/Desktop/newcore/include/linux/mm_type.h ****     return (page && (page->flags & flag)) ? 1 : 0;
 187:/mnt/c/Users/31740/Desktop/newcore/include/linux/mm_type.h **** }
 188:/mnt/c/Users/31740/Desktop/newcore/include/linux/mm_type.h **** 
 189:/mnt/c/Users/31740/Desktop/newcore/include/linux/mm_type.h **** static inline struct page *__page_create(gfp_t flags ){
 190:/mnt/c/Users/31740/Desktop/newcore/include/linux/mm_type.h ****     struct page *page = (struct page *)kmalloc(sizeof(struct page), flags);
 191:/mnt/c/Users/31740/Desktop/newcore/include/linux/mm_type.h ****     if (page == NULL)
 192:/mnt/c/Users/31740/Desktop/newcore/include/linux/mm_type.h ****         return NULL;
 193:/mnt/c/Users/31740/Desktop/newcore/include/linux/mm_type.h ****     page->flags = 0;
 194:/mnt/c/Users/31740/Desktop/newcore/include/linux/mm_type.h ****     atomic_set(&page->_mapcount, 0);
 195:/mnt/c/Users/31740/Desktop/newcore/include/linux/mm_type.h ****     atomic_set(&page->_refcount, 0); 
 196:/mnt/c/Users/31740/Desktop/newcore/include/linux/mm_type.h ****     page->zone_device_data = NULL;
 197:/mnt/c/Users/31740/Desktop/newcore/include/linux/mm_type.h ****     return page;
 198:/mnt/c/Users/31740/Desktop/newcore/include/linux/mm_type.h **** }
 199:/mnt/c/Users/31740/Desktop/newcore/include/linux/mm_type.h **** static inline void __page_destroy(struct page *page){
 200:/mnt/c/Users/31740/Desktop/newcore/include/linux/mm_type.h ****     if (page) 
 201:/mnt/c/Users/31740/Desktop/newcore/include/linux/mm_type.h **** 	{
 202:/mnt/c/Users/31740/Desktop/newcore/include/linux/mm_type.h ****         kfree(page);
 203:/mnt/c/Users/31740/Desktop/newcore/include/linux/mm_type.h **** 		page = NULL;
 204:/mnt/c/Users/31740/Desktop/newcore/include/linux/mm_type.h ****     }
 205:/mnt/c/Users/31740/Desktop/newcore/include/linux/mm_type.h **** }
 206:/mnt/c/Users/31740/Desktop/newcore/include/linux/mm_type.h **** 
 207:/mnt/c/Users/31740/Desktop/newcore/include/linux/mm_type.h **** 
 208:/mnt/c/Users/31740/Desktop/newcore/include/linux/mm_type.h **** static inline void *__page_address(struct page *page){
 209:/mnt/c/Users/31740/Desktop/newcore/include/linux/mm_type.h ****     return page ? page->zone_device_data : NULL; 
 210:/mnt/c/Users/31740/Desktop/newcore/include/linux/mm_type.h **** }
ARM GAS  /tmp/cczxpjuQ.s 			page 8


 211:/mnt/c/Users/31740/Desktop/newcore/include/linux/mm_type.h **** static inline void __set_page_dirty(struct page *page){
 212:/mnt/c/Users/31740/Desktop/newcore/include/linux/mm_type.h ****     if (page)
 213:/mnt/c/Users/31740/Desktop/newcore/include/linux/mm_type.h **** 	__set_page_flag(page, PG_dirty);
 214:/mnt/c/Users/31740/Desktop/newcore/include/linux/mm_type.h **** }
 215:/mnt/c/Users/31740/Desktop/newcore/include/linux/mm_type.h **** 
 216:/mnt/c/Users/31740/Desktop/newcore/include/linux/mm_type.h **** static inline void __clear_page_dirty(struct page *page){
 217:/mnt/c/Users/31740/Desktop/newcore/include/linux/mm_type.h ****     if (page)
 218:/mnt/c/Users/31740/Desktop/newcore/include/linux/mm_type.h **** 	__clear_page_flag(page, PG_dirty);
 219:/mnt/c/Users/31740/Desktop/newcore/include/linux/mm_type.h **** }
 220:/mnt/c/Users/31740/Desktop/newcore/include/linux/mm_type.h **** 
 221:/mnt/c/Users/31740/Desktop/newcore/include/linux/mm_type.h **** static inline struct page *__alloc_pages( gfp_t flags , unsigned int order ){
 222:/mnt/c/Users/31740/Desktop/newcore/include/linux/mm_type.h **** 	struct page *page = __page_create(flags);
 223:/mnt/c/Users/31740/Desktop/newcore/include/linux/mm_type.h **** 	if(page == NULL)
 224:/mnt/c/Users/31740/Desktop/newcore/include/linux/mm_type.h **** 		return -ENOMEM ;
 225:/mnt/c/Users/31740/Desktop/newcore/include/linux/mm_type.h **** 	void *data = (void *)kmalloc(PAGE_SIZE, flags);
 226:/mnt/c/Users/31740/Desktop/newcore/include/linux/mm_type.h **** 	if(data == NULL){
 227:/mnt/c/Users/31740/Desktop/newcore/include/linux/mm_type.h **** 		__page_destroy(page);
 228:/mnt/c/Users/31740/Desktop/newcore/include/linux/mm_type.h **** 		return -ENOMEM ;
 229:/mnt/c/Users/31740/Desktop/newcore/include/linux/mm_type.h **** 	}
 230:/mnt/c/Users/31740/Desktop/newcore/include/linux/mm_type.h **** 	page->page_type = 1234;
 231:/mnt/c/Users/31740/Desktop/newcore/include/linux/mm_type.h **** 	page->zone_device_data = data;
 232:/mnt/c/Users/31740/Desktop/newcore/include/linux/mm_type.h **** 	return page;
 233:/mnt/c/Users/31740/Desktop/newcore/include/linux/mm_type.h **** }
 234:/mnt/c/Users/31740/Desktop/newcore/include/linux/mm_type.h **** 
 235:/mnt/c/Users/31740/Desktop/newcore/include/linux/mm_type.h **** static inline void __free_pages(struct page *page, unsigned int order){
 236:/mnt/c/Users/31740/Desktop/newcore/include/linux/mm_type.h ****     if (page) {
 237:/mnt/c/Users/31740/Desktop/newcore/include/linux/mm_type.h **** 		if(page->page_type == 1234)
 238:/mnt/c/Users/31740/Desktop/newcore/include/linux/mm_type.h **** 		kfree(page->zone_device_data);
 239:/mnt/c/Users/31740/Desktop/newcore/include/linux/mm_type.h ****         __page_destroy(page);
 240:/mnt/c/Users/31740/Desktop/newcore/include/linux/mm_type.h ****     }
 241:/mnt/c/Users/31740/Desktop/newcore/include/linux/mm_type.h **** }
 242:/mnt/c/Users/31740/Desktop/newcore/include/linux/mm_type.h **** 
 243:/mnt/c/Users/31740/Desktop/newcore/include/linux/mm_type.h **** static inline struct page *__pfn_to_page(unsigned long pfn){
 244:/mnt/c/Users/31740/Desktop/newcore/include/linux/mm_type.h **** 	struct page *page = __page_create(GFP_KERNEL);
 245:/mnt/c/Users/31740/Desktop/newcore/include/linux/mm_type.h **** 	if(page == NULL)
 246:/mnt/c/Users/31740/Desktop/newcore/include/linux/mm_type.h **** 		return -ENOMEM ;
 247:/mnt/c/Users/31740/Desktop/newcore/include/linux/mm_type.h **** 	page->zone_device_data = (void *)(pfn << 0 );
 248:/mnt/c/Users/31740/Desktop/newcore/include/linux/mm_type.h **** 	return page;
 249:/mnt/c/Users/31740/Desktop/newcore/include/linux/mm_type.h **** }
 250:/mnt/c/Users/31740/Desktop/newcore/include/linux/mm_type.h **** 
 251:/mnt/c/Users/31740/Desktop/newcore/include/linux/mm_type.h **** 
 252:/mnt/c/Users/31740/Desktop/newcore/include/linux/mm_type.h **** static inline void __get_page(struct page *page){
 253:/mnt/c/Users/31740/Desktop/newcore/include/linux/mm_type.h ****     if (page)
 254:/mnt/c/Users/31740/Desktop/newcore/include/linux/mm_type.h ****         atomic_inc(&page->_refcount);
 255:/mnt/c/Users/31740/Desktop/newcore/include/linux/mm_type.h **** }
 256:/mnt/c/Users/31740/Desktop/newcore/include/linux/mm_type.h **** 
 257:/mnt/c/Users/31740/Desktop/newcore/include/linux/mm_type.h **** 
 258:/mnt/c/Users/31740/Desktop/newcore/include/linux/mm_type.h **** static inline void __put_page(struct page *page){
 259:/mnt/c/Users/31740/Desktop/newcore/include/linux/mm_type.h ****     if (page && atomic_dec_and_test(&page->_refcount) ) {
 260:/mnt/c/Users/31740/Desktop/newcore/include/linux/mm_type.h ****         __free_pages(page, 0);
 261:/mnt/c/Users/31740/Desktop/newcore/include/linux/mm_type.h ****     }
 262:/mnt/c/Users/31740/Desktop/newcore/include/linux/mm_type.h **** 	else if(page->_refcount.counter < 0) {
 263:/mnt/c/Users/31740/Desktop/newcore/include/linux/mm_type.h **** 		__free_pages(page, 0);
 264:/mnt/c/Users/31740/Desktop/newcore/include/linux/mm_type.h **** 	}
 265:/mnt/c/Users/31740/Desktop/newcore/include/linux/mm_type.h **** }
 266:/mnt/c/Users/31740/Desktop/newcore/include/linux/mm_type.h **** 
 267:/mnt/c/Users/31740/Desktop/newcore/include/linux/mm_type.h **** static void* __kmap(struct page *page){
ARM GAS  /tmp/cczxpjuQ.s 			page 9


 133              		.loc 4 267 39 is_stmt 1 view -0
 134              		.cfi_startproc
 135              		@ args = 0, pretend = 0, frame = 0
 136              		@ frame_needed = 0, uses_anonymous_args = 0
 137              		@ link register save eliminated.
 268:/mnt/c/Users/31740/Desktop/newcore/include/linux/mm_type.h **** 	if (!page)
 138              		.loc 4 268 2 view .LVU17
 139              		.loc 4 268 5 is_stmt 0 view .LVU18
 140 0000 08B1     		cbz	r0, .L9
 269:/mnt/c/Users/31740/Desktop/newcore/include/linux/mm_type.h **** 		return NULL;
 270:/mnt/c/Users/31740/Desktop/newcore/include/linux/mm_type.h **** 	//__get_page(page);
 271:/mnt/c/Users/31740/Desktop/newcore/include/linux/mm_type.h **** 	return page->zone_device_data;
 141              		.loc 4 271 2 is_stmt 1 view .LVU19
 142              		.loc 4 271 13 is_stmt 0 view .LVU20
 143 0002 4068     		ldr	r0, [r0, #4]
 144              	.LVL8:
 145              		.loc 4 271 13 view .LVU21
 146 0004 7047     		bx	lr
 147              	.LVL9:
 148              	.L9:
 272:/mnt/c/Users/31740/Desktop/newcore/include/linux/mm_type.h **** }
 149              		.loc 4 272 1 view .LVU22
 150 0006 7047     		bx	lr
 151              		.cfi_endproc
 152              	.LFE920:
 154              		.section	.text.initramfs_open,"ax",%progbits
 155              		.align	1
 156              		.syntax unified
 157              		.thumb
 158              		.thumb_func
 160              	initramfs_open:
 161              	.LVL10:
 162              	.LFB1036:
   1:/mnt/c/Users/31740/Desktop/newcore/fs/initramfs/initramfs.c **** #include <linux/kernel.h>
   2:/mnt/c/Users/31740/Desktop/newcore/fs/initramfs/initramfs.c **** #include <linux/uaccess.h>
   3:/mnt/c/Users/31740/Desktop/newcore/fs/initramfs/initramfs.c **** #include <linux/atomic.h>
   4:/mnt/c/Users/31740/Desktop/newcore/fs/initramfs/initramfs.c **** #include <linux/types.h>
   5:/mnt/c/Users/31740/Desktop/newcore/fs/initramfs/initramfs.c **** #include <linux/module.h>
   6:/mnt/c/Users/31740/Desktop/newcore/fs/initramfs/initramfs.c **** #include <linux/string.h>
   7:/mnt/c/Users/31740/Desktop/newcore/fs/initramfs/initramfs.c **** #include <linux/fs.h>
   8:/mnt/c/Users/31740/Desktop/newcore/fs/initramfs/initramfs.c **** #include <linux/slab.h>
   9:/mnt/c/Users/31740/Desktop/newcore/fs/initramfs/initramfs.c **** #include <linux/init.h>
  10:/mnt/c/Users/31740/Desktop/newcore/fs/initramfs/initramfs.c **** #include <linux/mm_type.h>
  11:/mnt/c/Users/31740/Desktop/newcore/fs/initramfs/initramfs.c **** #include <linux/initramfs.h>
  12:/mnt/c/Users/31740/Desktop/newcore/fs/initramfs/initramfs.c **** 
  13:/mnt/c/Users/31740/Desktop/newcore/fs/initramfs/initramfs.c **** 
  14:/mnt/c/Users/31740/Desktop/newcore/fs/initramfs/initramfs.c **** 
  15:/mnt/c/Users/31740/Desktop/newcore/fs/initramfs/initramfs.c **** 
  16:/mnt/c/Users/31740/Desktop/newcore/fs/initramfs/initramfs.c **** 
  17:/mnt/c/Users/31740/Desktop/newcore/fs/initramfs/initramfs.c **** #define MAGIC 12345678
  18:/mnt/c/Users/31740/Desktop/newcore/fs/initramfs/initramfs.c **** struct initramfs_inode {
  19:/mnt/c/Users/31740/Desktop/newcore/fs/initramfs/initramfs.c ****     int                     magic;
  20:/mnt/c/Users/31740/Desktop/newcore/fs/initramfs/initramfs.c ****     uint32_t                i_mode;
  21:/mnt/c/Users/31740/Desktop/newcore/fs/initramfs/initramfs.c ****     uint32_t                major;
  22:/mnt/c/Users/31740/Desktop/newcore/fs/initramfs/initramfs.c ****     atomic_t                dentry_count;          //å¼•ç”¨è®¡æ•°
  23:/mnt/c/Users/31740/Desktop/newcore/fs/initramfs/initramfs.c ****     struct file_operations *i_fop;                
  24:/mnt/c/Users/31740/Desktop/newcore/fs/initramfs/initramfs.c ****     struct list_head        list_node;             // æŒ‚åœ¨superblockçš„inodeé“¾è¡¨
ARM GAS  /tmp/cczxpjuQ.s 			page 10


  25:/mnt/c/Users/31740/Desktop/newcore/fs/initramfs/initramfs.c ****     struct list_head        dentry_list_head;      // å¦‚æžœè¿™æ˜¯ç›®å½•é¡¹ï¼Œè¿™é‡Œå­˜å‚¨inodeä¸‹ç
  26:/mnt/c/Users/31740/Desktop/newcore/fs/initramfs/initramfs.c ****     spinlock_t              lock;
  27:/mnt/c/Users/31740/Desktop/newcore/fs/initramfs/initramfs.c ****     uint8_t                 mode;
  28:/mnt/c/Users/31740/Desktop/newcore/fs/initramfs/initramfs.c ****     struct block_initramice *binitram;
  29:/mnt/c/Users/31740/Desktop/newcore/fs/initramfs/initramfs.c ****     struct initramfs_superblock *sb;
  30:/mnt/c/Users/31740/Desktop/newcore/fs/initramfs/initramfs.c ****     struct page *i_page;
  31:/mnt/c/Users/31740/Desktop/newcore/fs/initramfs/initramfs.c ****     uint32_t                size;
  32:/mnt/c/Users/31740/Desktop/newcore/fs/initramfs/initramfs.c **** };
  33:/mnt/c/Users/31740/Desktop/newcore/fs/initramfs/initramfs.c **** 
  34:/mnt/c/Users/31740/Desktop/newcore/fs/initramfs/initramfs.c **** struct initramfs_dentry {
  35:/mnt/c/Users/31740/Desktop/newcore/fs/initramfs/initramfs.c ****     int                    magic;
  36:/mnt/c/Users/31740/Desktop/newcore/fs/initramfs/initramfs.c ****     char *name;                             // åå­—
  37:/mnt/c/Users/31740/Desktop/newcore/fs/initramfs/initramfs.c ****     struct initramfs_inode *target_inode;       // è¯¥dentryæŒ‡å‘çš„ç›®æ ‡inode
  38:/mnt/c/Users/31740/Desktop/newcore/fs/initramfs/initramfs.c ****     struct list_head list_node;             // æŒ‚è½½åˆ°çˆ¶ç›®å½•inodeä¸­çš„listheadä¸­
  39:/mnt/c/Users/31740/Desktop/newcore/fs/initramfs/initramfs.c **** };
  40:/mnt/c/Users/31740/Desktop/newcore/fs/initramfs/initramfs.c **** struct initramfs_superblock {
  41:/mnt/c/Users/31740/Desktop/newcore/fs/initramfs/initramfs.c ****     int                    magic;
  42:/mnt/c/Users/31740/Desktop/newcore/fs/initramfs/initramfs.c ****     spinlock_t             lock;
  43:/mnt/c/Users/31740/Desktop/newcore/fs/initramfs/initramfs.c ****     struct initramfs_inode *rootinode;
  44:/mnt/c/Users/31740/Desktop/newcore/fs/initramfs/initramfs.c ****     struct list_head inode_list_head;       // è¯¥superblockä¸‹çš„inodeé“¾è¡¨å¤´
  45:/mnt/c/Users/31740/Desktop/newcore/fs/initramfs/initramfs.c **** };
  46:/mnt/c/Users/31740/Desktop/newcore/fs/initramfs/initramfs.c **** 
  47:/mnt/c/Users/31740/Desktop/newcore/fs/initramfs/initramfs.c **** 
  48:/mnt/c/Users/31740/Desktop/newcore/fs/initramfs/initramfs.c **** 
  49:/mnt/c/Users/31740/Desktop/newcore/fs/initramfs/initramfs.c **** 
  50:/mnt/c/Users/31740/Desktop/newcore/fs/initramfs/initramfs.c **** void initram_fs_mount_file(struct inode *inode,__file_data *filedata)
  51:/mnt/c/Users/31740/Desktop/newcore/fs/initramfs/initramfs.c **** {
  52:/mnt/c/Users/31740/Desktop/newcore/fs/initramfs/initramfs.c ****     struct initramfs_inode *init_ram_fs_inode = inode->i_private;
  53:/mnt/c/Users/31740/Desktop/newcore/fs/initramfs/initramfs.c ****     if(init_ram_fs_inode->i_page != NULL){
  54:/mnt/c/Users/31740/Desktop/newcore/fs/initramfs/initramfs.c ****         pr_info("can not mount file:%s file is using\n",filedata->path);
  55:/mnt/c/Users/31740/Desktop/newcore/fs/initramfs/initramfs.c ****         return;
  56:/mnt/c/Users/31740/Desktop/newcore/fs/initramfs/initramfs.c ****     }
  57:/mnt/c/Users/31740/Desktop/newcore/fs/initramfs/initramfs.c ****     struct page* file_data_page = virt_to_page(filedata->data);
  58:/mnt/c/Users/31740/Desktop/newcore/fs/initramfs/initramfs.c ****     if(file_data_page == NULL){
  59:/mnt/c/Users/31740/Desktop/newcore/fs/initramfs/initramfs.c ****         pr_info("can not mount file:%s no memory\n",filedata->path);
  60:/mnt/c/Users/31740/Desktop/newcore/fs/initramfs/initramfs.c ****         return;
  61:/mnt/c/Users/31740/Desktop/newcore/fs/initramfs/initramfs.c ****     }
  62:/mnt/c/Users/31740/Desktop/newcore/fs/initramfs/initramfs.c ****     get_page(file_data_page);
  63:/mnt/c/Users/31740/Desktop/newcore/fs/initramfs/initramfs.c ****     struct initramfs_inode *p_inode = inode->i_private;
  64:/mnt/c/Users/31740/Desktop/newcore/fs/initramfs/initramfs.c ****     p_inode->i_page = file_data_page;
  65:/mnt/c/Users/31740/Desktop/newcore/fs/initramfs/initramfs.c ****     p_inode->size   = filedata->length;
  66:/mnt/c/Users/31740/Desktop/newcore/fs/initramfs/initramfs.c ****     p_inode->mode   = READONLY;
  67:/mnt/c/Users/31740/Desktop/newcore/fs/initramfs/initramfs.c ****     inode->i_size   = filedata->length;
  68:/mnt/c/Users/31740/Desktop/newcore/fs/initramfs/initramfs.c **** }
  69:/mnt/c/Users/31740/Desktop/newcore/fs/initramfs/initramfs.c **** 
  70:/mnt/c/Users/31740/Desktop/newcore/fs/initramfs/initramfs.c **** 
  71:/mnt/c/Users/31740/Desktop/newcore/fs/initramfs/initramfs.c **** static int initramfs_open(struct inode *inode, struct file *file){
 163              		.loc 1 71 66 is_stmt 1 view -0
 164              		.cfi_startproc
 165              		@ args = 0, pretend = 0, frame = 0
 166              		@ frame_needed = 0, uses_anonymous_args = 0
 167              		@ link register save eliminated.
  72:/mnt/c/Users/31740/Desktop/newcore/fs/initramfs/initramfs.c ****     return 0;
 168              		.loc 1 72 5 view .LVU24
  73:/mnt/c/Users/31740/Desktop/newcore/fs/initramfs/initramfs.c **** }
 169              		.loc 1 73 1 is_stmt 0 view .LVU25
 170 0000 0020     		movs	r0, #0
ARM GAS  /tmp/cczxpjuQ.s 			page 11


 171              	.LVL11:
 172              		.loc 1 73 1 view .LVU26
 173 0002 7047     		bx	lr
 174              		.cfi_endproc
 175              	.LFE1036:
 177              		.section	.text.initramfs_release,"ax",%progbits
 178              		.align	1
 179              		.syntax unified
 180              		.thumb
 181              		.thumb_func
 183              	initramfs_release:
 184              	.LVL12:
 185              	.LFB1037:
  74:/mnt/c/Users/31740/Desktop/newcore/fs/initramfs/initramfs.c **** static int initramfs_release(struct inode *inode, struct file *file){
 186              		.loc 1 74 69 is_stmt 1 view -0
 187              		.cfi_startproc
 188              		@ args = 0, pretend = 0, frame = 0
 189              		@ frame_needed = 0, uses_anonymous_args = 0
 190              		@ link register save eliminated.
  75:/mnt/c/Users/31740/Desktop/newcore/fs/initramfs/initramfs.c ****     return 0;
 191              		.loc 1 75 5 view .LVU28
  76:/mnt/c/Users/31740/Desktop/newcore/fs/initramfs/initramfs.c **** }
 192              		.loc 1 76 1 is_stmt 0 view .LVU29
 193 0000 0020     		movs	r0, #0
 194              	.LVL13:
 195              		.loc 1 76 1 view .LVU30
 196 0002 7047     		bx	lr
 197              		.cfi_endproc
 198              	.LFE1037:
 200              		.section	.text.initramfs_statfs,"ax",%progbits
 201              		.align	1
 202              		.syntax unified
 203              		.thumb
 204              		.thumb_func
 206              	initramfs_statfs:
 207              	.LVL14:
 208              	.LFB1058:
  77:/mnt/c/Users/31740/Desktop/newcore/fs/initramfs/initramfs.c **** static int initramfs_read(struct file *file, char __user * data, size_t size, loff_t *offset){
  78:/mnt/c/Users/31740/Desktop/newcore/fs/initramfs/initramfs.c ****     struct initramfs_inode *p_inode = file->f_inode->i_private;
  79:/mnt/c/Users/31740/Desktop/newcore/fs/initramfs/initramfs.c ****     if(p_inode->i_page == NULL) 
  80:/mnt/c/Users/31740/Desktop/newcore/fs/initramfs/initramfs.c ****     return 0;
  81:/mnt/c/Users/31740/Desktop/newcore/fs/initramfs/initramfs.c ****     if(((loff_t)*offset + size) > p_inode->size) 
  82:/mnt/c/Users/31740/Desktop/newcore/fs/initramfs/initramfs.c ****     {
  83:/mnt/c/Users/31740/Desktop/newcore/fs/initramfs/initramfs.c ****         pr_info("read to many fata\n");
  84:/mnt/c/Users/31740/Desktop/newcore/fs/initramfs/initramfs.c ****         return 0;
  85:/mnt/c/Users/31740/Desktop/newcore/fs/initramfs/initramfs.c ****     }
  86:/mnt/c/Users/31740/Desktop/newcore/fs/initramfs/initramfs.c ****     char* page_data = kmap(p_inode->i_page);
  87:/mnt/c/Users/31740/Desktop/newcore/fs/initramfs/initramfs.c ****     if (!page_data)
  88:/mnt/c/Users/31740/Desktop/newcore/fs/initramfs/initramfs.c ****         return -ENOMEM;
  89:/mnt/c/Users/31740/Desktop/newcore/fs/initramfs/initramfs.c ****     int ret = copy_to_user(data,page_data + (loff_t)*offset,size);
  90:/mnt/c/Users/31740/Desktop/newcore/fs/initramfs/initramfs.c ****     if (ret)
  91:/mnt/c/Users/31740/Desktop/newcore/fs/initramfs/initramfs.c ****         return -EFAULT;
  92:/mnt/c/Users/31740/Desktop/newcore/fs/initramfs/initramfs.c ****     *offset += size;
  93:/mnt/c/Users/31740/Desktop/newcore/fs/initramfs/initramfs.c ****     return size;
  94:/mnt/c/Users/31740/Desktop/newcore/fs/initramfs/initramfs.c **** }
  95:/mnt/c/Users/31740/Desktop/newcore/fs/initramfs/initramfs.c **** 
  96:/mnt/c/Users/31740/Desktop/newcore/fs/initramfs/initramfs.c **** static int initramfs_write(struct file *file, char __user * data, size_t size, loff_t *offset)
ARM GAS  /tmp/cczxpjuQ.s 			page 12


  97:/mnt/c/Users/31740/Desktop/newcore/fs/initramfs/initramfs.c **** {
  98:/mnt/c/Users/31740/Desktop/newcore/fs/initramfs/initramfs.c ****     struct initramfs_inode *p_inode = file->f_inode->i_private;
  99:/mnt/c/Users/31740/Desktop/newcore/fs/initramfs/initramfs.c ****     if(p_inode->mode = READONLY){
 100:/mnt/c/Users/31740/Desktop/newcore/fs/initramfs/initramfs.c ****         pr_err("this file is read only\n");
 101:/mnt/c/Users/31740/Desktop/newcore/fs/initramfs/initramfs.c ****         return 0;
 102:/mnt/c/Users/31740/Desktop/newcore/fs/initramfs/initramfs.c ****     }
 103:/mnt/c/Users/31740/Desktop/newcore/fs/initramfs/initramfs.c ****     if(p_inode->i_page == NULL){
 104:/mnt/c/Users/31740/Desktop/newcore/fs/initramfs/initramfs.c ****         p_inode->i_page = alloc_page(GFP_KERNEL);
 105:/mnt/c/Users/31740/Desktop/newcore/fs/initramfs/initramfs.c ****         if(IS_ERR(p_inode->i_page)){
 106:/mnt/c/Users/31740/Desktop/newcore/fs/initramfs/initramfs.c ****             p_inode->i_page = NULL;
 107:/mnt/c/Users/31740/Desktop/newcore/fs/initramfs/initramfs.c ****             return -ENOMEM;
 108:/mnt/c/Users/31740/Desktop/newcore/fs/initramfs/initramfs.c ****         }      
 109:/mnt/c/Users/31740/Desktop/newcore/fs/initramfs/initramfs.c ****         p_inode->size = PAGE_SIZE;
 110:/mnt/c/Users/31740/Desktop/newcore/fs/initramfs/initramfs.c ****         file->f_inode->i_bytes = PAGE_SIZE;
 111:/mnt/c/Users/31740/Desktop/newcore/fs/initramfs/initramfs.c ****         get_page(p_inode->i_page);
 112:/mnt/c/Users/31740/Desktop/newcore/fs/initramfs/initramfs.c ****     }
 113:/mnt/c/Users/31740/Desktop/newcore/fs/initramfs/initramfs.c ****     if(((loff_t)*offset + size) > PAGE_SIZE){
 114:/mnt/c/Users/31740/Desktop/newcore/fs/initramfs/initramfs.c ****         return 0;
 115:/mnt/c/Users/31740/Desktop/newcore/fs/initramfs/initramfs.c ****     }
 116:/mnt/c/Users/31740/Desktop/newcore/fs/initramfs/initramfs.c ****     char* page_data = kmap(p_inode->i_page);
 117:/mnt/c/Users/31740/Desktop/newcore/fs/initramfs/initramfs.c ****     int ret = copy_from_user(page_data + (loff_t)*offset ,data,size);
 118:/mnt/c/Users/31740/Desktop/newcore/fs/initramfs/initramfs.c ****     kunmap(p_inode->i_page);
 119:/mnt/c/Users/31740/Desktop/newcore/fs/initramfs/initramfs.c ****     if (ret)
 120:/mnt/c/Users/31740/Desktop/newcore/fs/initramfs/initramfs.c ****     return -EFAULT;
 121:/mnt/c/Users/31740/Desktop/newcore/fs/initramfs/initramfs.c ****     *offset += size;
 122:/mnt/c/Users/31740/Desktop/newcore/fs/initramfs/initramfs.c ****     return size;
 123:/mnt/c/Users/31740/Desktop/newcore/fs/initramfs/initramfs.c **** }
 124:/mnt/c/Users/31740/Desktop/newcore/fs/initramfs/initramfs.c **** 
 125:/mnt/c/Users/31740/Desktop/newcore/fs/initramfs/initramfs.c **** 
 126:/mnt/c/Users/31740/Desktop/newcore/fs/initramfs/initramfs.c **** static int initramfs_iterate(struct file *file, struct dir_context *ctx)
 127:/mnt/c/Users/31740/Desktop/newcore/fs/initramfs/initramfs.c **** {
 128:/mnt/c/Users/31740/Desktop/newcore/fs/initramfs/initramfs.c ****     struct initramfs_inode *inode = file->private_data;
 129:/mnt/c/Users/31740/Desktop/newcore/fs/initramfs/initramfs.c ****     struct initramfs_dentry *pos;
 130:/mnt/c/Users/31740/Desktop/newcore/fs/initramfs/initramfs.c ****     loff_t curr = 0;
 131:/mnt/c/Users/31740/Desktop/newcore/fs/initramfs/initramfs.c ****     if ((inode->i_mode & S_IFMT) != S_IFDIR)
 132:/mnt/c/Users/31740/Desktop/newcore/fs/initramfs/initramfs.c ****         return -ENOTDIR;
 133:/mnt/c/Users/31740/Desktop/newcore/fs/initramfs/initramfs.c **** 
 134:/mnt/c/Users/31740/Desktop/newcore/fs/initramfs/initramfs.c ****     spin_lock(&inode->lock);
 135:/mnt/c/Users/31740/Desktop/newcore/fs/initramfs/initramfs.c ****     list_for_each_entry(pos, &inode->dentry_list_head, list_node) {
 136:/mnt/c/Users/31740/Desktop/newcore/fs/initramfs/initramfs.c ****         if (curr++ < ctx->pos)
 137:/mnt/c/Users/31740/Desktop/newcore/fs/initramfs/initramfs.c ****             continue;
 138:/mnt/c/Users/31740/Desktop/newcore/fs/initramfs/initramfs.c **** 
 139:/mnt/c/Users/31740/Desktop/newcore/fs/initramfs/initramfs.c ****         if (!dir_emit(ctx, pos->name, strlen(pos->name),
 140:/mnt/c/Users/31740/Desktop/newcore/fs/initramfs/initramfs.c ****                       curr,  // inode number å¯ä¸º 0 æˆ– pos->target_inode->major
 141:/mnt/c/Users/31740/Desktop/newcore/fs/initramfs/initramfs.c ****                       (pos->target_inode->i_mode & S_IFDIR) ? DT_DIR : DT_REG)) {
 142:/mnt/c/Users/31740/Desktop/newcore/fs/initramfs/initramfs.c ****             break;  // ç¼“å†²åŒºæ»¡äº†
 143:/mnt/c/Users/31740/Desktop/newcore/fs/initramfs/initramfs.c ****         }
 144:/mnt/c/Users/31740/Desktop/newcore/fs/initramfs/initramfs.c ****         ctx->pos++;
 145:/mnt/c/Users/31740/Desktop/newcore/fs/initramfs/initramfs.c ****     }
 146:/mnt/c/Users/31740/Desktop/newcore/fs/initramfs/initramfs.c ****     spin_unlock(&inode->lock);
 147:/mnt/c/Users/31740/Desktop/newcore/fs/initramfs/initramfs.c ****     return 0;
 148:/mnt/c/Users/31740/Desktop/newcore/fs/initramfs/initramfs.c **** }
 149:/mnt/c/Users/31740/Desktop/newcore/fs/initramfs/initramfs.c **** 
 150:/mnt/c/Users/31740/Desktop/newcore/fs/initramfs/initramfs.c **** 
 151:/mnt/c/Users/31740/Desktop/newcore/fs/initramfs/initramfs.c **** static struct file_operations initramfs_file_fops = {
 152:/mnt/c/Users/31740/Desktop/newcore/fs/initramfs/initramfs.c ****     .owner = THIS_MODULE,
 153:/mnt/c/Users/31740/Desktop/newcore/fs/initramfs/initramfs.c ****     .open = initramfs_open,
ARM GAS  /tmp/cczxpjuQ.s 			page 13


 154:/mnt/c/Users/31740/Desktop/newcore/fs/initramfs/initramfs.c ****     .release = initramfs_release,
 155:/mnt/c/Users/31740/Desktop/newcore/fs/initramfs/initramfs.c ****     .read  = initramfs_read,
 156:/mnt/c/Users/31740/Desktop/newcore/fs/initramfs/initramfs.c ****     .write = initramfs_write,
 157:/mnt/c/Users/31740/Desktop/newcore/fs/initramfs/initramfs.c ****     .iterate_shared = initramfs_iterate
 158:/mnt/c/Users/31740/Desktop/newcore/fs/initramfs/initramfs.c **** };
 159:/mnt/c/Users/31740/Desktop/newcore/fs/initramfs/initramfs.c **** 
 160:/mnt/c/Users/31740/Desktop/newcore/fs/initramfs/initramfs.c **** static struct initramfs_inode *initramfs_create_empty_inode(struct initramfs_superblock *sb,struct 
 161:/mnt/c/Users/31740/Desktop/newcore/fs/initramfs/initramfs.c **** {
 162:/mnt/c/Users/31740/Desktop/newcore/fs/initramfs/initramfs.c ****     if(fop == NULL) return NULL;
 163:/mnt/c/Users/31740/Desktop/newcore/fs/initramfs/initramfs.c ****     struct initramfs_inode *initram_inode = kmalloc(sizeof(struct initramfs_inode),GFP_KERNEL);
 164:/mnt/c/Users/31740/Desktop/newcore/fs/initramfs/initramfs.c ****     if(initram_inode == NULL) return NULL;
 165:/mnt/c/Users/31740/Desktop/newcore/fs/initramfs/initramfs.c ****     initram_inode->magic = MAGIC;
 166:/mnt/c/Users/31740/Desktop/newcore/fs/initramfs/initramfs.c ****     initram_inode->major = major;
 167:/mnt/c/Users/31740/Desktop/newcore/fs/initramfs/initramfs.c ****     initram_inode->i_fop = fop;
 168:/mnt/c/Users/31740/Desktop/newcore/fs/initramfs/initramfs.c ****     initram_inode->sb    = sb;
 169:/mnt/c/Users/31740/Desktop/newcore/fs/initramfs/initramfs.c ****     initram_inode->i_mode = S_IFREG | 0755;
 170:/mnt/c/Users/31740/Desktop/newcore/fs/initramfs/initramfs.c ****     initram_inode->i_page = NULL;
 171:/mnt/c/Users/31740/Desktop/newcore/fs/initramfs/initramfs.c ****     atomic_set(&initram_inode->dentry_count,0);
 172:/mnt/c/Users/31740/Desktop/newcore/fs/initramfs/initramfs.c ****     spin_lock_init(&initram_inode->lock);
 173:/mnt/c/Users/31740/Desktop/newcore/fs/initramfs/initramfs.c ****     INIT_LIST_HEAD(&initram_inode->list_node);
 174:/mnt/c/Users/31740/Desktop/newcore/fs/initramfs/initramfs.c ****     INIT_LIST_HEAD(&initram_inode->dentry_list_head);
 175:/mnt/c/Users/31740/Desktop/newcore/fs/initramfs/initramfs.c ****     initram_inode->mode = READABLE; //é»˜è®¤ä¸ºå¯å†™ï¼Œå¦‚æžœè¦æ”¹ä¸ºåªè¯»ï¼Œè¯·åŽæœŸä¿®æ”¹
 176:/mnt/c/Users/31740/Desktop/newcore/fs/initramfs/initramfs.c ****     spin_lock(&sb->lock);
 177:/mnt/c/Users/31740/Desktop/newcore/fs/initramfs/initramfs.c ****     list_add(&initram_inode->list_node,&sb->inode_list_head);
 178:/mnt/c/Users/31740/Desktop/newcore/fs/initramfs/initramfs.c ****     spin_unlock(&sb->lock);
 179:/mnt/c/Users/31740/Desktop/newcore/fs/initramfs/initramfs.c ****     return initram_inode;
 180:/mnt/c/Users/31740/Desktop/newcore/fs/initramfs/initramfs.c **** }
 181:/mnt/c/Users/31740/Desktop/newcore/fs/initramfs/initramfs.c **** 
 182:/mnt/c/Users/31740/Desktop/newcore/fs/initramfs/initramfs.c **** static void initramfs_inode_put(struct initramfs_inode *node){
 183:/mnt/c/Users/31740/Desktop/newcore/fs/initramfs/initramfs.c ****     if(node != NULL){
 184:/mnt/c/Users/31740/Desktop/newcore/fs/initramfs/initramfs.c ****         if (node->i_page != NULL){
 185:/mnt/c/Users/31740/Desktop/newcore/fs/initramfs/initramfs.c ****             put_page(node->i_page);
 186:/mnt/c/Users/31740/Desktop/newcore/fs/initramfs/initramfs.c ****         }
 187:/mnt/c/Users/31740/Desktop/newcore/fs/initramfs/initramfs.c ****         kfree(node);
 188:/mnt/c/Users/31740/Desktop/newcore/fs/initramfs/initramfs.c ****     }
 189:/mnt/c/Users/31740/Desktop/newcore/fs/initramfs/initramfs.c **** }
 190:/mnt/c/Users/31740/Desktop/newcore/fs/initramfs/initramfs.c **** static struct initramfs_dentry* initramfs_create_dentry(struct initramfs_inode* parent_dentry_inode
 191:/mnt/c/Users/31740/Desktop/newcore/fs/initramfs/initramfs.c **** {
 192:/mnt/c/Users/31740/Desktop/newcore/fs/initramfs/initramfs.c ****     if(parent_dentry_inode == NULL || name == NULL || target_inode == NULL) return NULL;
 193:/mnt/c/Users/31740/Desktop/newcore/fs/initramfs/initramfs.c **** 
 194:/mnt/c/Users/31740/Desktop/newcore/fs/initramfs/initramfs.c ****     struct initramfs_dentry* new_dentry =  kmalloc(sizeof(struct initramfs_dentry),GFP_KERNEL);
 195:/mnt/c/Users/31740/Desktop/newcore/fs/initramfs/initramfs.c ****     if(new_dentry == NULL)return NULL;
 196:/mnt/c/Users/31740/Desktop/newcore/fs/initramfs/initramfs.c ****     new_dentry->magic = MAGIC;
 197:/mnt/c/Users/31740/Desktop/newcore/fs/initramfs/initramfs.c ****     new_dentry->name = NULL;
 198:/mnt/c/Users/31740/Desktop/newcore/fs/initramfs/initramfs.c ****     new_dentry->name = kmalloc(strlen(name) + 1,GFP_KERNEL);
 199:/mnt/c/Users/31740/Desktop/newcore/fs/initramfs/initramfs.c ****     if(new_dentry->name  == NULL) {
 200:/mnt/c/Users/31740/Desktop/newcore/fs/initramfs/initramfs.c ****         kfree(new_dentry);
 201:/mnt/c/Users/31740/Desktop/newcore/fs/initramfs/initramfs.c ****         return NULL;
 202:/mnt/c/Users/31740/Desktop/newcore/fs/initramfs/initramfs.c ****     }
 203:/mnt/c/Users/31740/Desktop/newcore/fs/initramfs/initramfs.c ****     strcpy(new_dentry->name,name);
 204:/mnt/c/Users/31740/Desktop/newcore/fs/initramfs/initramfs.c ****     new_dentry->target_inode = target_inode;
 205:/mnt/c/Users/31740/Desktop/newcore/fs/initramfs/initramfs.c ****     INIT_LIST_HEAD(&new_dentry->list_node);
 206:/mnt/c/Users/31740/Desktop/newcore/fs/initramfs/initramfs.c ****     
 207:/mnt/c/Users/31740/Desktop/newcore/fs/initramfs/initramfs.c ****     atomic_inc (&target_inode->dentry_count);      //å¢žåŠ å¼•ç”¨è®¡æ•°
 208:/mnt/c/Users/31740/Desktop/newcore/fs/initramfs/initramfs.c ****     
 209:/mnt/c/Users/31740/Desktop/newcore/fs/initramfs/initramfs.c ****     spin_lock   (&parent_dentry_inode->lock);
 210:/mnt/c/Users/31740/Desktop/newcore/fs/initramfs/initramfs.c ****     list_add    (&new_dentry->list_node,&parent_dentry_inode->dentry_list_head);
ARM GAS  /tmp/cczxpjuQ.s 			page 14


 211:/mnt/c/Users/31740/Desktop/newcore/fs/initramfs/initramfs.c ****     spin_unlock(&parent_dentry_inode->lock);
 212:/mnt/c/Users/31740/Desktop/newcore/fs/initramfs/initramfs.c ****     return new_dentry;
 213:/mnt/c/Users/31740/Desktop/newcore/fs/initramfs/initramfs.c **** }
 214:/mnt/c/Users/31740/Desktop/newcore/fs/initramfs/initramfs.c **** static struct initramfs_dentry* initramfs_create_inode( struct initramfs_superblock *sb,struct init
 215:/mnt/c/Users/31740/Desktop/newcore/fs/initramfs/initramfs.c **** {
 216:/mnt/c/Users/31740/Desktop/newcore/fs/initramfs/initramfs.c ****     struct initramfs_inode * new_inode = initramfs_create_empty_inode(sb,fop,major);
 217:/mnt/c/Users/31740/Desktop/newcore/fs/initramfs/initramfs.c ****     if(new_inode == NULL){
 218:/mnt/c/Users/31740/Desktop/newcore/fs/initramfs/initramfs.c ****         return NULL;
 219:/mnt/c/Users/31740/Desktop/newcore/fs/initramfs/initramfs.c ****     }   
 220:/mnt/c/Users/31740/Desktop/newcore/fs/initramfs/initramfs.c ****     struct initramfs_dentry* new_dentry = initramfs_create_dentry(parent_dentry_inode,new_inode,nam
 221:/mnt/c/Users/31740/Desktop/newcore/fs/initramfs/initramfs.c ****     if(new_dentry == NULL){
 222:/mnt/c/Users/31740/Desktop/newcore/fs/initramfs/initramfs.c ****         spin_lock(&sb->lock);
 223:/mnt/c/Users/31740/Desktop/newcore/fs/initramfs/initramfs.c ****         list_del(&new_inode->list_node);
 224:/mnt/c/Users/31740/Desktop/newcore/fs/initramfs/initramfs.c ****         spin_unlock(&sb->lock);
 225:/mnt/c/Users/31740/Desktop/newcore/fs/initramfs/initramfs.c ****         initramfs_inode_put(new_inode);
 226:/mnt/c/Users/31740/Desktop/newcore/fs/initramfs/initramfs.c ****         return NULL;
 227:/mnt/c/Users/31740/Desktop/newcore/fs/initramfs/initramfs.c ****     }
 228:/mnt/c/Users/31740/Desktop/newcore/fs/initramfs/initramfs.c ****     return new_dentry;
 229:/mnt/c/Users/31740/Desktop/newcore/fs/initramfs/initramfs.c **** }
 230:/mnt/c/Users/31740/Desktop/newcore/fs/initramfs/initramfs.c **** static struct initramfs_dentry* initramfs_create_file(struct initramfs_superblock *sb,struct initra
 231:/mnt/c/Users/31740/Desktop/newcore/fs/initramfs/initramfs.c **** {
 232:/mnt/c/Users/31740/Desktop/newcore/fs/initramfs/initramfs.c ****     return initramfs_create_inode(sb,parent_dentry_inode,fop,major,name);
 233:/mnt/c/Users/31740/Desktop/newcore/fs/initramfs/initramfs.c **** }
 234:/mnt/c/Users/31740/Desktop/newcore/fs/initramfs/initramfs.c **** 
 235:/mnt/c/Users/31740/Desktop/newcore/fs/initramfs/initramfs.c **** static struct initramfs_dentry* initramfs_create_dir(struct initramfs_superblock *sb,struct initram
 236:/mnt/c/Users/31740/Desktop/newcore/fs/initramfs/initramfs.c **** {
 237:/mnt/c/Users/31740/Desktop/newcore/fs/initramfs/initramfs.c ****     struct initramfs_dentry* dentry =  initramfs_create_inode(sb,parent_dentry_inode,&initramfs_fil
 238:/mnt/c/Users/31740/Desktop/newcore/fs/initramfs/initramfs.c ****     if(dentry == NULL) return NULL;
 239:/mnt/c/Users/31740/Desktop/newcore/fs/initramfs/initramfs.c ****     dentry->target_inode->i_mode = S_IFDIR | 0755;
 240:/mnt/c/Users/31740/Desktop/newcore/fs/initramfs/initramfs.c ****     return dentry;
 241:/mnt/c/Users/31740/Desktop/newcore/fs/initramfs/initramfs.c **** }
 242:/mnt/c/Users/31740/Desktop/newcore/fs/initramfs/initramfs.c **** static void dentry_put(struct initramfs_superblock *sb,struct initramfs_dentry* dentry)
 243:/mnt/c/Users/31740/Desktop/newcore/fs/initramfs/initramfs.c **** {
 244:/mnt/c/Users/31740/Desktop/newcore/fs/initramfs/initramfs.c ****     if(dentry == NULL) return;
 245:/mnt/c/Users/31740/Desktop/newcore/fs/initramfs/initramfs.c ****     if(dentry->target_inode != NULL)
 246:/mnt/c/Users/31740/Desktop/newcore/fs/initramfs/initramfs.c ****     {
 247:/mnt/c/Users/31740/Desktop/newcore/fs/initramfs/initramfs.c ****         spin_lock(&sb->lock);
 248:/mnt/c/Users/31740/Desktop/newcore/fs/initramfs/initramfs.c ****         if (atomic_dec_and_test(&dentry->target_inode->dentry_count)) //æ£€æµ‹inodeå¼•ç”¨è®¡æ•°æ˜¯å
 249:/mnt/c/Users/31740/Desktop/newcore/fs/initramfs/initramfs.c ****         {
 250:/mnt/c/Users/31740/Desktop/newcore/fs/initramfs/initramfs.c ****             list_del(&dentry->target_inode->list_node);    
 251:/mnt/c/Users/31740/Desktop/newcore/fs/initramfs/initramfs.c ****             initramfs_inode_put(dentry->target_inode);
 252:/mnt/c/Users/31740/Desktop/newcore/fs/initramfs/initramfs.c ****         }
 253:/mnt/c/Users/31740/Desktop/newcore/fs/initramfs/initramfs.c ****         spin_unlock(&sb->lock);
 254:/mnt/c/Users/31740/Desktop/newcore/fs/initramfs/initramfs.c ****     }
 255:/mnt/c/Users/31740/Desktop/newcore/fs/initramfs/initramfs.c ****     kfree(dentry->name);
 256:/mnt/c/Users/31740/Desktop/newcore/fs/initramfs/initramfs.c ****     kfree(dentry);
 257:/mnt/c/Users/31740/Desktop/newcore/fs/initramfs/initramfs.c **** }
 258:/mnt/c/Users/31740/Desktop/newcore/fs/initramfs/initramfs.c **** static void initramfs_delete_dentry(struct initramfs_superblock *sb,struct initramfs_inode* parent_
 259:/mnt/c/Users/31740/Desktop/newcore/fs/initramfs/initramfs.c ****     if(parent_dentry_inode != NULL) spin_lock(&parent_dentry_inode->lock);
 260:/mnt/c/Users/31740/Desktop/newcore/fs/initramfs/initramfs.c ****     
 261:/mnt/c/Users/31740/Desktop/newcore/fs/initramfs/initramfs.c ****     if ((delete_dentry->target_inode->i_mode & S_IFMT) == S_IFDIR ){         //å¦‚æžœæ˜¯ç›®å½•é¡¹éœ
 262:/mnt/c/Users/31740/Desktop/newcore/fs/initramfs/initramfs.c ****         if(!list_empty(&delete_dentry->target_inode->dentry_list_head)){      //å¦‚æžœç›®å½•ä¸‹çš„i
 263:/mnt/c/Users/31740/Desktop/newcore/fs/initramfs/initramfs.c ****             if(parent_dentry_inode != NULL) 
 264:/mnt/c/Users/31740/Desktop/newcore/fs/initramfs/initramfs.c ****                 spin_unlock(&parent_dentry_inode->lock);
 265:/mnt/c/Users/31740/Desktop/newcore/fs/initramfs/initramfs.c ****             return;
 266:/mnt/c/Users/31740/Desktop/newcore/fs/initramfs/initramfs.c ****         }
 267:/mnt/c/Users/31740/Desktop/newcore/fs/initramfs/initramfs.c ****     }
ARM GAS  /tmp/cczxpjuQ.s 			page 15


 268:/mnt/c/Users/31740/Desktop/newcore/fs/initramfs/initramfs.c ****     list_del(&delete_dentry->list_node);                                     //å°†dentryä»Žçˆ¶ç›®å½
 269:/mnt/c/Users/31740/Desktop/newcore/fs/initramfs/initramfs.c ****     if(parent_dentry_inode != NULL) spin_unlock(&parent_dentry_inode->lock);
 270:/mnt/c/Users/31740/Desktop/newcore/fs/initramfs/initramfs.c ****     dentry_put(sb,delete_dentry);
 271:/mnt/c/Users/31740/Desktop/newcore/fs/initramfs/initramfs.c **** }
 272:/mnt/c/Users/31740/Desktop/newcore/fs/initramfs/initramfs.c **** static struct initramfs_superblock* initramfs_superblock_create(void) //åˆ›å»ºsuperblock
 273:/mnt/c/Users/31740/Desktop/newcore/fs/initramfs/initramfs.c **** {
 274:/mnt/c/Users/31740/Desktop/newcore/fs/initramfs/initramfs.c ****     struct initramfs_superblock*d_sb = kmalloc(sizeof(struct initramfs_superblock),GFP_KERNEL);
 275:/mnt/c/Users/31740/Desktop/newcore/fs/initramfs/initramfs.c ****     if(d_sb == NULL){
 276:/mnt/c/Users/31740/Desktop/newcore/fs/initramfs/initramfs.c ****         return NULL;        
 277:/mnt/c/Users/31740/Desktop/newcore/fs/initramfs/initramfs.c ****     }
 278:/mnt/c/Users/31740/Desktop/newcore/fs/initramfs/initramfs.c ****     d_sb->magic = MAGIC;
 279:/mnt/c/Users/31740/Desktop/newcore/fs/initramfs/initramfs.c ****     spin_lock_init(&d_sb->lock);
 280:/mnt/c/Users/31740/Desktop/newcore/fs/initramfs/initramfs.c ****     INIT_LIST_HEAD(&d_sb->inode_list_head);
 281:/mnt/c/Users/31740/Desktop/newcore/fs/initramfs/initramfs.c ****     struct initramfs_inode* root_inode = initramfs_create_empty_inode(d_sb ,&initramfs_file_fops,0)
 282:/mnt/c/Users/31740/Desktop/newcore/fs/initramfs/initramfs.c ****     if(root_inode == NULL){
 283:/mnt/c/Users/31740/Desktop/newcore/fs/initramfs/initramfs.c ****         kfree(d_sb);
 284:/mnt/c/Users/31740/Desktop/newcore/fs/initramfs/initramfs.c ****         return NULL;
 285:/mnt/c/Users/31740/Desktop/newcore/fs/initramfs/initramfs.c ****     }
 286:/mnt/c/Users/31740/Desktop/newcore/fs/initramfs/initramfs.c ****     root_inode->i_mode = S_IFDIR | 0755;
 287:/mnt/c/Users/31740/Desktop/newcore/fs/initramfs/initramfs.c ****     d_sb->rootinode = root_inode;
 288:/mnt/c/Users/31740/Desktop/newcore/fs/initramfs/initramfs.c ****     root_inode->i_fop = &initramfs_file_fops;
 289:/mnt/c/Users/31740/Desktop/newcore/fs/initramfs/initramfs.c ****     atomic_inc (&root_inode->dentry_count); 
 290:/mnt/c/Users/31740/Desktop/newcore/fs/initramfs/initramfs.c ****     INIT_LIST_HEAD(&root_inode->dentry_list_head);
 291:/mnt/c/Users/31740/Desktop/newcore/fs/initramfs/initramfs.c ****     return d_sb;
 292:/mnt/c/Users/31740/Desktop/newcore/fs/initramfs/initramfs.c **** } 
 293:/mnt/c/Users/31740/Desktop/newcore/fs/initramfs/initramfs.c **** static void initramfs_superblock_destory(struct initramfs_superblock* sb){
 294:/mnt/c/Users/31740/Desktop/newcore/fs/initramfs/initramfs.c ****     if(sb!= NULL) {
 295:/mnt/c/Users/31740/Desktop/newcore/fs/initramfs/initramfs.c ****         struct initramfs_inode * root_inode = sb->rootinode;
 296:/mnt/c/Users/31740/Desktop/newcore/fs/initramfs/initramfs.c ****         if(!root_inode){
 297:/mnt/c/Users/31740/Desktop/newcore/fs/initramfs/initramfs.c ****             kfree(root_inode);
 298:/mnt/c/Users/31740/Desktop/newcore/fs/initramfs/initramfs.c ****         }
 299:/mnt/c/Users/31740/Desktop/newcore/fs/initramfs/initramfs.c ****         kfree(sb);
 300:/mnt/c/Users/31740/Desktop/newcore/fs/initramfs/initramfs.c ****     }
 301:/mnt/c/Users/31740/Desktop/newcore/fs/initramfs/initramfs.c **** }
 302:/mnt/c/Users/31740/Desktop/newcore/fs/initramfs/initramfs.c **** 
 303:/mnt/c/Users/31740/Desktop/newcore/fs/initramfs/initramfs.c **** static struct initramfs_dentry* initramfs_lookup(struct initramfs_inode* dentry_inode,char *name)
 304:/mnt/c/Users/31740/Desktop/newcore/fs/initramfs/initramfs.c **** {
 305:/mnt/c/Users/31740/Desktop/newcore/fs/initramfs/initramfs.c ****     if(dentry_inode == NULL) return NULL;
 306:/mnt/c/Users/31740/Desktop/newcore/fs/initramfs/initramfs.c ****     if ( (dentry_inode->i_mode & S_IFMT) != S_IFDIR ) return NULL;
 307:/mnt/c/Users/31740/Desktop/newcore/fs/initramfs/initramfs.c ****     struct initramfs_dentry* pos;
 308:/mnt/c/Users/31740/Desktop/newcore/fs/initramfs/initramfs.c ****     spin_lock(&dentry_inode->lock);
 309:/mnt/c/Users/31740/Desktop/newcore/fs/initramfs/initramfs.c ****     list_for_each_entry(pos, &dentry_inode->dentry_list_head,list_node ) {
 310:/mnt/c/Users/31740/Desktop/newcore/fs/initramfs/initramfs.c ****         if (strcmp(pos->name, name) == 0) {
 311:/mnt/c/Users/31740/Desktop/newcore/fs/initramfs/initramfs.c ****             spin_unlock(&dentry_inode->lock);
 312:/mnt/c/Users/31740/Desktop/newcore/fs/initramfs/initramfs.c ****             return pos;
 313:/mnt/c/Users/31740/Desktop/newcore/fs/initramfs/initramfs.c ****         }
 314:/mnt/c/Users/31740/Desktop/newcore/fs/initramfs/initramfs.c ****     }
 315:/mnt/c/Users/31740/Desktop/newcore/fs/initramfs/initramfs.c ****     spin_unlock(&dentry_inode->lock);
 316:/mnt/c/Users/31740/Desktop/newcore/fs/initramfs/initramfs.c ****     return NULL;
 317:/mnt/c/Users/31740/Desktop/newcore/fs/initramfs/initramfs.c **** }
 318:/mnt/c/Users/31740/Desktop/newcore/fs/initramfs/initramfs.c **** 
 319:/mnt/c/Users/31740/Desktop/newcore/fs/initramfs/initramfs.c **** 
 320:/mnt/c/Users/31740/Desktop/newcore/fs/initramfs/initramfs.c **** 
 321:/mnt/c/Users/31740/Desktop/newcore/fs/initramfs/initramfs.c **** static struct super_operations initramfs_super_operation;
 322:/mnt/c/Users/31740/Desktop/newcore/fs/initramfs/initramfs.c **** static struct dentry_operations initramfs_dentry_operation;
 323:/mnt/c/Users/31740/Desktop/newcore/fs/initramfs/initramfs.c **** static struct inode_operations initramfs_inode_operation;
 324:/mnt/c/Users/31740/Desktop/newcore/fs/initramfs/initramfs.c **** 
ARM GAS  /tmp/cczxpjuQ.s 			page 16


 325:/mnt/c/Users/31740/Desktop/newcore/fs/initramfs/initramfs.c **** static void initramfs_kill_sb (struct super_block * sb);
 326:/mnt/c/Users/31740/Desktop/newcore/fs/initramfs/initramfs.c **** static struct inode *initramfs_alloc_inode(struct super_block *sb);
 327:/mnt/c/Users/31740/Desktop/newcore/fs/initramfs/initramfs.c **** static void  initramfs_destroy_inode(struct inode * node); //æ’¤é”€initramfs_alloc_inodeæ‰€åšçš„ä¸
 328:/mnt/c/Users/31740/Desktop/newcore/fs/initramfs/initramfs.c **** static int initramfs_statfs (struct dentry * dentry, struct kstatfs *star);
 329:/mnt/c/Users/31740/Desktop/newcore/fs/initramfs/initramfs.c **** static struct dentry * initramfs_get_dentry(struct dentry * vdentry, struct initramfs_dentry *dentr
 330:/mnt/c/Users/31740/Desktop/newcore/fs/initramfs/initramfs.c **** static struct super_block *initramfs_get_vfs_superblock(struct initramfs_superblock *sb);
 331:/mnt/c/Users/31740/Desktop/newcore/fs/initramfs/initramfs.c **** static struct inode *  initramfs_get_inode(struct initramfs_inode *,struct super_block*);
 332:/mnt/c/Users/31740/Desktop/newcore/fs/initramfs/initramfs.c **** static struct dentry *initramfs_mount(struct file_system_type *fs_type,
 333:/mnt/c/Users/31740/Desktop/newcore/fs/initramfs/initramfs.c ****     int flags,
 334:/mnt/c/Users/31740/Desktop/newcore/fs/initramfs/initramfs.c ****     const char *initram_name,
 335:/mnt/c/Users/31740/Desktop/newcore/fs/initramfs/initramfs.c ****     void *data);
 336:/mnt/c/Users/31740/Desktop/newcore/fs/initramfs/initramfs.c **** 
 337:/mnt/c/Users/31740/Desktop/newcore/fs/initramfs/initramfs.c **** static struct file_system_type fs_type = {
 338:/mnt/c/Users/31740/Desktop/newcore/fs/initramfs/initramfs.c ****     .name     = "initramfs",
 339:/mnt/c/Users/31740/Desktop/newcore/fs/initramfs/initramfs.c ****     .fs_flags = 0,
 340:/mnt/c/Users/31740/Desktop/newcore/fs/initramfs/initramfs.c ****     .init_fs_context = NULL,
 341:/mnt/c/Users/31740/Desktop/newcore/fs/initramfs/initramfs.c ****     .kill_sb  = initramfs_kill_sb,
 342:/mnt/c/Users/31740/Desktop/newcore/fs/initramfs/initramfs.c ****     .mount    = initramfs_mount,
 343:/mnt/c/Users/31740/Desktop/newcore/fs/initramfs/initramfs.c ****     .owner    = THIS_MODULE,
 344:/mnt/c/Users/31740/Desktop/newcore/fs/initramfs/initramfs.c **** };
 345:/mnt/c/Users/31740/Desktop/newcore/fs/initramfs/initramfs.c **** 
 346:/mnt/c/Users/31740/Desktop/newcore/fs/initramfs/initramfs.c **** static struct dentry *initramfs_mount(struct file_system_type *fs_type,
 347:/mnt/c/Users/31740/Desktop/newcore/fs/initramfs/initramfs.c ****     int flags,
 348:/mnt/c/Users/31740/Desktop/newcore/fs/initramfs/initramfs.c ****     const char *initram_name,
 349:/mnt/c/Users/31740/Desktop/newcore/fs/initramfs/initramfs.c ****     void *data)
 350:/mnt/c/Users/31740/Desktop/newcore/fs/initramfs/initramfs.c **** {
 351:/mnt/c/Users/31740/Desktop/newcore/fs/initramfs/initramfs.c ****     struct initramfs_superblock *fs_superblock= initramfs_superblock_create();
 352:/mnt/c/Users/31740/Desktop/newcore/fs/initramfs/initramfs.c ****     if (fs_superblock == NULL){
 353:/mnt/c/Users/31740/Desktop/newcore/fs/initramfs/initramfs.c ****         return ERR_PTR(-ENOMEM);        
 354:/mnt/c/Users/31740/Desktop/newcore/fs/initramfs/initramfs.c ****     }
 355:/mnt/c/Users/31740/Desktop/newcore/fs/initramfs/initramfs.c ****     struct dentry * root = __d_alloc(NULL,"root");
 356:/mnt/c/Users/31740/Desktop/newcore/fs/initramfs/initramfs.c ****     if(root == NULL){
 357:/mnt/c/Users/31740/Desktop/newcore/fs/initramfs/initramfs.c ****          initramfs_superblock_destory(fs_superblock);
 358:/mnt/c/Users/31740/Desktop/newcore/fs/initramfs/initramfs.c ****         return ERR_PTR(-ENOMEM);   
 359:/mnt/c/Users/31740/Desktop/newcore/fs/initramfs/initramfs.c ****     }
 360:/mnt/c/Users/31740/Desktop/newcore/fs/initramfs/initramfs.c **** 
 361:/mnt/c/Users/31740/Desktop/newcore/fs/initramfs/initramfs.c **** 
 362:/mnt/c/Users/31740/Desktop/newcore/fs/initramfs/initramfs.c ****     struct initramfs_dentry* dentry = kmalloc(sizeof(struct initramfs_dentry),GFP_KERNEL);
 363:/mnt/c/Users/31740/Desktop/newcore/fs/initramfs/initramfs.c ****     if(dentry == NULL){
 364:/mnt/c/Users/31740/Desktop/newcore/fs/initramfs/initramfs.c ****        
 365:/mnt/c/Users/31740/Desktop/newcore/fs/initramfs/initramfs.c ****         kfree(root);
 366:/mnt/c/Users/31740/Desktop/newcore/fs/initramfs/initramfs.c ****         return ERR_PTR(-ENOMEM);        
 367:/mnt/c/Users/31740/Desktop/newcore/fs/initramfs/initramfs.c ****     }
 368:/mnt/c/Users/31740/Desktop/newcore/fs/initramfs/initramfs.c ****     dentry->name = NULL;
 369:/mnt/c/Users/31740/Desktop/newcore/fs/initramfs/initramfs.c ****     dentry->target_inode = fs_superblock->rootinode;
 370:/mnt/c/Users/31740/Desktop/newcore/fs/initramfs/initramfs.c ****     dentry->magic =MAGIC;
 371:/mnt/c/Users/31740/Desktop/newcore/fs/initramfs/initramfs.c ****     root->d_fsdata = dentry;
 372:/mnt/c/Users/31740/Desktop/newcore/fs/initramfs/initramfs.c ****     struct inode * root_inode = initramfs_get_inode(dentry->target_inode,NULL);
 373:/mnt/c/Users/31740/Desktop/newcore/fs/initramfs/initramfs.c ****     if(root_inode == NULL){
 374:/mnt/c/Users/31740/Desktop/newcore/fs/initramfs/initramfs.c ****         kfree(dentry);
 375:/mnt/c/Users/31740/Desktop/newcore/fs/initramfs/initramfs.c ****         initramfs_superblock_destory(fs_superblock);
 376:/mnt/c/Users/31740/Desktop/newcore/fs/initramfs/initramfs.c ****         kfree(root);
 377:/mnt/c/Users/31740/Desktop/newcore/fs/initramfs/initramfs.c ****         return ERR_PTR(-ENOMEM);        
 378:/mnt/c/Users/31740/Desktop/newcore/fs/initramfs/initramfs.c ****     } 
 379:/mnt/c/Users/31740/Desktop/newcore/fs/initramfs/initramfs.c ****     root->d_inode = root_inode;
 380:/mnt/c/Users/31740/Desktop/newcore/fs/initramfs/initramfs.c **** 
 381:/mnt/c/Users/31740/Desktop/newcore/fs/initramfs/initramfs.c ****     struct super_block *sb =initramfs_get_vfs_superblock(fs_superblock);
ARM GAS  /tmp/cczxpjuQ.s 			page 17


 382:/mnt/c/Users/31740/Desktop/newcore/fs/initramfs/initramfs.c ****     if(sb == NULL){
 383:/mnt/c/Users/31740/Desktop/newcore/fs/initramfs/initramfs.c ****         kfree(root);
 384:/mnt/c/Users/31740/Desktop/newcore/fs/initramfs/initramfs.c ****         kfree(dentry);
 385:/mnt/c/Users/31740/Desktop/newcore/fs/initramfs/initramfs.c ****         inode_put(root_inode);
 386:/mnt/c/Users/31740/Desktop/newcore/fs/initramfs/initramfs.c ****         initramfs_superblock_destory(fs_superblock);
 387:/mnt/c/Users/31740/Desktop/newcore/fs/initramfs/initramfs.c ****         return ERR_PTR(-ENOMEM);       
 388:/mnt/c/Users/31740/Desktop/newcore/fs/initramfs/initramfs.c ****     }
 389:/mnt/c/Users/31740/Desktop/newcore/fs/initramfs/initramfs.c ****     sb->s_root = root;
 390:/mnt/c/Users/31740/Desktop/newcore/fs/initramfs/initramfs.c ****     root->d_sb = sb;
 391:/mnt/c/Users/31740/Desktop/newcore/fs/initramfs/initramfs.c **** 
 392:/mnt/c/Users/31740/Desktop/newcore/fs/initramfs/initramfs.c ****     return root;
 393:/mnt/c/Users/31740/Desktop/newcore/fs/initramfs/initramfs.c **** }
 394:/mnt/c/Users/31740/Desktop/newcore/fs/initramfs/initramfs.c **** 
 395:/mnt/c/Users/31740/Desktop/newcore/fs/initramfs/initramfs.c **** 
 396:/mnt/c/Users/31740/Desktop/newcore/fs/initramfs/initramfs.c **** 
 397:/mnt/c/Users/31740/Desktop/newcore/fs/initramfs/initramfs.c **** static struct super_operations initramfs_super_operation = {
 398:/mnt/c/Users/31740/Desktop/newcore/fs/initramfs/initramfs.c ****     .alloc_inode   = initramfs_alloc_inode,
 399:/mnt/c/Users/31740/Desktop/newcore/fs/initramfs/initramfs.c ****     .destroy_inode = initramfs_destroy_inode, 
 400:/mnt/c/Users/31740/Desktop/newcore/fs/initramfs/initramfs.c ****     .free_inode    = NULL,         
 401:/mnt/c/Users/31740/Desktop/newcore/fs/initramfs/initramfs.c ****     .dirty_inode   = NULL,
 402:/mnt/c/Users/31740/Desktop/newcore/fs/initramfs/initramfs.c ****     .write_inode   = NULL,
 403:/mnt/c/Users/31740/Desktop/newcore/fs/initramfs/initramfs.c ****     .drop_inode    = NULL,
 404:/mnt/c/Users/31740/Desktop/newcore/fs/initramfs/initramfs.c ****     .put_super     = initramfs_kill_sb,
 405:/mnt/c/Users/31740/Desktop/newcore/fs/initramfs/initramfs.c ****     .sync_fs       = NULL,
 406:/mnt/c/Users/31740/Desktop/newcore/fs/initramfs/initramfs.c ****     .statfs        = initramfs_statfs,
 407:/mnt/c/Users/31740/Desktop/newcore/fs/initramfs/initramfs.c **** };
 408:/mnt/c/Users/31740/Desktop/newcore/fs/initramfs/initramfs.c **** 
 409:/mnt/c/Users/31740/Desktop/newcore/fs/initramfs/initramfs.c **** static struct super_block *initramfs_get_vfs_superblock(struct initramfs_superblock *sb) //å°†æ–‡ä»
 410:/mnt/c/Users/31740/Desktop/newcore/fs/initramfs/initramfs.c **** {
 411:/mnt/c/Users/31740/Desktop/newcore/fs/initramfs/initramfs.c ****     if(sb == NULL) return NULL;
 412:/mnt/c/Users/31740/Desktop/newcore/fs/initramfs/initramfs.c ****     struct super_block * vsb  = alloc_super(NULL);                        //åˆ†é…äº†ä¸€ä¸ªsuperblo
 413:/mnt/c/Users/31740/Desktop/newcore/fs/initramfs/initramfs.c ****     if(vsb == NULL) return NULL;
 414:/mnt/c/Users/31740/Desktop/newcore/fs/initramfs/initramfs.c ****     vsb->s_fs_info =   sb;
 415:/mnt/c/Users/31740/Desktop/newcore/fs/initramfs/initramfs.c ****     vsb->s_d_op    =  &initramfs_dentry_operation;
 416:/mnt/c/Users/31740/Desktop/newcore/fs/initramfs/initramfs.c ****     vsb->s_op      =  &initramfs_super_operation;    
 417:/mnt/c/Users/31740/Desktop/newcore/fs/initramfs/initramfs.c ****     return vsb;
 418:/mnt/c/Users/31740/Desktop/newcore/fs/initramfs/initramfs.c **** }
 419:/mnt/c/Users/31740/Desktop/newcore/fs/initramfs/initramfs.c **** 
 420:/mnt/c/Users/31740/Desktop/newcore/fs/initramfs/initramfs.c **** 
 421:/mnt/c/Users/31740/Desktop/newcore/fs/initramfs/initramfs.c **** static void initramfs_kill_sb (struct super_block * sb){                          //é‡Šæ”¾æ–‡ä»¶ç³»
 422:/mnt/c/Users/31740/Desktop/newcore/fs/initramfs/initramfs.c ****     put_super(sb);
 423:/mnt/c/Users/31740/Desktop/newcore/fs/initramfs/initramfs.c **** }
 424:/mnt/c/Users/31740/Desktop/newcore/fs/initramfs/initramfs.c **** 
 425:/mnt/c/Users/31740/Desktop/newcore/fs/initramfs/initramfs.c **** static struct inode *  initramfs_get_inode(struct initramfs_inode * initram_node,struct super_block
 426:/mnt/c/Users/31740/Desktop/newcore/fs/initramfs/initramfs.c **** {
 427:/mnt/c/Users/31740/Desktop/newcore/fs/initramfs/initramfs.c ****     if(initram_node == NULL) return NULL;
 428:/mnt/c/Users/31740/Desktop/newcore/fs/initramfs/initramfs.c ****     struct inode*inode  =  new_inode(sb); //æ­¤å¤„åŠ¨æ€åˆ›å»ºäº†ä¸€ä¸ªinode,éœ€è¦åŽç»­é‡Šæ”¾
 429:/mnt/c/Users/31740/Desktop/newcore/fs/initramfs/initramfs.c ****     if(inode == NULL) return NULL;  
 430:/mnt/c/Users/31740/Desktop/newcore/fs/initramfs/initramfs.c ****     inode->i_mode    = initram_node->i_mode;
 431:/mnt/c/Users/31740/Desktop/newcore/fs/initramfs/initramfs.c ****     inode->i_fop     = initram_node->i_fop;
 432:/mnt/c/Users/31740/Desktop/newcore/fs/initramfs/initramfs.c ****     inode->i_op      = &initramfs_inode_operation;
 433:/mnt/c/Users/31740/Desktop/newcore/fs/initramfs/initramfs.c ****     inode->i_private = initram_node;
 434:/mnt/c/Users/31740/Desktop/newcore/fs/initramfs/initramfs.c ****     inode->i_size    = initram_node->size;
 435:/mnt/c/Users/31740/Desktop/newcore/fs/initramfs/initramfs.c ****     return inode;
 436:/mnt/c/Users/31740/Desktop/newcore/fs/initramfs/initramfs.c **** }
 437:/mnt/c/Users/31740/Desktop/newcore/fs/initramfs/initramfs.c **** 
 438:/mnt/c/Users/31740/Desktop/newcore/fs/initramfs/initramfs.c **** static struct inode *initramfs_alloc_inode(struct super_block *sb) //åˆ›å»ºä¸€ä¸ªinodeï¼ŒåŒæ—¶åˆ›å
ARM GAS  /tmp/cczxpjuQ.s 			page 18


 439:/mnt/c/Users/31740/Desktop/newcore/fs/initramfs/initramfs.c **** {
 440:/mnt/c/Users/31740/Desktop/newcore/fs/initramfs/initramfs.c ****     struct initramfs_superblock *supb = sb->s_fs_info;
 441:/mnt/c/Users/31740/Desktop/newcore/fs/initramfs/initramfs.c ****     if(supb->magic != MAGIC) return NULL;
 442:/mnt/c/Users/31740/Desktop/newcore/fs/initramfs/initramfs.c ****      struct initramfs_inode * inode = initramfs_create_empty_inode(supb,&initramfs_file_fops,10); /
 443:/mnt/c/Users/31740/Desktop/newcore/fs/initramfs/initramfs.c ****      if(inode == NULL) return NULL;
 444:/mnt/c/Users/31740/Desktop/newcore/fs/initramfs/initramfs.c ****      struct inode *out_inode = initramfs_get_inode(inode,sb);
 445:/mnt/c/Users/31740/Desktop/newcore/fs/initramfs/initramfs.c ****      if(out_inode == NULL){
 446:/mnt/c/Users/31740/Desktop/newcore/fs/initramfs/initramfs.c ****         kfree(inode);
 447:/mnt/c/Users/31740/Desktop/newcore/fs/initramfs/initramfs.c ****         return NULL;
 448:/mnt/c/Users/31740/Desktop/newcore/fs/initramfs/initramfs.c ****      }
 449:/mnt/c/Users/31740/Desktop/newcore/fs/initramfs/initramfs.c ****      return out_inode;
 450:/mnt/c/Users/31740/Desktop/newcore/fs/initramfs/initramfs.c **** }
 451:/mnt/c/Users/31740/Desktop/newcore/fs/initramfs/initramfs.c **** 
 452:/mnt/c/Users/31740/Desktop/newcore/fs/initramfs/initramfs.c **** 
 453:/mnt/c/Users/31740/Desktop/newcore/fs/initramfs/initramfs.c **** 
 454:/mnt/c/Users/31740/Desktop/newcore/fs/initramfs/initramfs.c **** static void  initramfs_destroy_inode(struct inode * node) //æ’¤é”€initramfs_alloc_inodeæ‰€åšçš„ä¸€
 455:/mnt/c/Users/31740/Desktop/newcore/fs/initramfs/initramfs.c **** {
 456:/mnt/c/Users/31740/Desktop/newcore/fs/initramfs/initramfs.c ****     if(node == NULL) return;
 457:/mnt/c/Users/31740/Desktop/newcore/fs/initramfs/initramfs.c ****     if(node->i_private != NULL) {
 458:/mnt/c/Users/31740/Desktop/newcore/fs/initramfs/initramfs.c ****         struct initramfs_inode * initram_node = node->i_private;
 459:/mnt/c/Users/31740/Desktop/newcore/fs/initramfs/initramfs.c ****         list_del(&initram_node->list_node);
 460:/mnt/c/Users/31740/Desktop/newcore/fs/initramfs/initramfs.c ****         kfree(initram_node);        
 461:/mnt/c/Users/31740/Desktop/newcore/fs/initramfs/initramfs.c ****     }
 462:/mnt/c/Users/31740/Desktop/newcore/fs/initramfs/initramfs.c **** }
 463:/mnt/c/Users/31740/Desktop/newcore/fs/initramfs/initramfs.c **** 
 464:/mnt/c/Users/31740/Desktop/newcore/fs/initramfs/initramfs.c **** static int initramfs_statfs (struct dentry * dentry, struct kstatfs *star){
 209              		.loc 1 464 75 is_stmt 1 view -0
 210              		.cfi_startproc
 211              		@ args = 0, pretend = 0, frame = 0
 212              		@ frame_needed = 0, uses_anonymous_args = 0
 213              		@ link register save eliminated.
 465:/mnt/c/Users/31740/Desktop/newcore/fs/initramfs/initramfs.c ****     struct initramfs_dentry * initramfs_dentry = dentry->d_fsdata;
 214              		.loc 1 465 5 view .LVU32
 466:/mnt/c/Users/31740/Desktop/newcore/fs/initramfs/initramfs.c ****     struct initramfs_inode * initramfs_node = initramfs_dentry->target_inode;
 215              		.loc 1 466 5 view .LVU33
 467:/mnt/c/Users/31740/Desktop/newcore/fs/initramfs/initramfs.c ****     star->f_type = MAGIC;
 216              		.loc 1 467 5 view .LVU34
 217              		.loc 1 467 18 is_stmt 0 view .LVU35
 218 0000 064B     		ldr	r3, .L13
 219 0002 0B60     		str	r3, [r1]
 220              	.LVL15:
 468:/mnt/c/Users/31740/Desktop/newcore/fs/initramfs/initramfs.c ****     star->f_bsize  = 0;
 221              		.loc 1 468 5 is_stmt 1 view .LVU36
 222              		.loc 1 468 20 is_stmt 0 view .LVU37
 223 0004 0020     		movs	r0, #0
 224              	.LVL16:
 225              		.loc 1 468 20 view .LVU38
 226 0006 4860     		str	r0, [r1, #4]
 469:/mnt/c/Users/31740/Desktop/newcore/fs/initramfs/initramfs.c ****     star->f_blocks = 1;
 227              		.loc 1 469 5 is_stmt 1 view .LVU39
 228              		.loc 1 469 20 is_stmt 0 view .LVU40
 229 0008 0123     		movs	r3, #1
 230 000a 8B60     		str	r3, [r1, #8]
 470:/mnt/c/Users/31740/Desktop/newcore/fs/initramfs/initramfs.c ****     star->f_bfree  = 0;
 231              		.loc 1 470 5 is_stmt 1 view .LVU41
 232              		.loc 1 470 20 is_stmt 0 view .LVU42
 233 000c C860     		str	r0, [r1, #12]
ARM GAS  /tmp/cczxpjuQ.s 			page 19


 471:/mnt/c/Users/31740/Desktop/newcore/fs/initramfs/initramfs.c ****     star->f_bavail = 0;
 234              		.loc 1 471 5 is_stmt 1 view .LVU43
 235              		.loc 1 471 20 is_stmt 0 view .LVU44
 236 000e 0861     		str	r0, [r1, #16]
 472:/mnt/c/Users/31740/Desktop/newcore/fs/initramfs/initramfs.c ****     star->f_files  = 128;
 237              		.loc 1 472 5 is_stmt 1 view .LVU45
 238              		.loc 1 472 20 is_stmt 0 view .LVU46
 239 0010 8023     		movs	r3, #128
 240 0012 4B61     		str	r3, [r1, #20]
 473:/mnt/c/Users/31740/Desktop/newcore/fs/initramfs/initramfs.c ****     star->f_ffree  = 127;
 241              		.loc 1 473 5 is_stmt 1 view .LVU47
 242              		.loc 1 473 20 is_stmt 0 view .LVU48
 243 0014 7F23     		movs	r3, #127
 244 0016 8B61     		str	r3, [r1, #24]
 474:/mnt/c/Users/31740/Desktop/newcore/fs/initramfs/initramfs.c ****     return 0;
 245              		.loc 1 474 5 is_stmt 1 view .LVU49
 475:/mnt/c/Users/31740/Desktop/newcore/fs/initramfs/initramfs.c **** }
 246              		.loc 1 475 1 is_stmt 0 view .LVU50
 247 0018 7047     		bx	lr
 248              	.L14:
 249 001a 00BF     		.align	2
 250              	.L13:
 251 001c 4E61BC00 		.word	12345678
 252              		.cfi_endproc
 253              	.LFE1058:
 255              		.section	.text.initramfs_get_dentry,"ax",%progbits
 256              		.align	1
 257              		.syntax unified
 258              		.thumb
 259              		.thumb_func
 261              	initramfs_get_dentry:
 262              	.LVL17:
 263              	.LFB1059:
 476:/mnt/c/Users/31740/Desktop/newcore/fs/initramfs/initramfs.c **** 
 477:/mnt/c/Users/31740/Desktop/newcore/fs/initramfs/initramfs.c **** 
 478:/mnt/c/Users/31740/Desktop/newcore/fs/initramfs/initramfs.c **** 
 479:/mnt/c/Users/31740/Desktop/newcore/fs/initramfs/initramfs.c **** static int initramfs_create(struct mnt_idmap * map, struct inode * dir,struct dentry * dentry,umode
 480:/mnt/c/Users/31740/Desktop/newcore/fs/initramfs/initramfs.c **** static struct dentry *initramfs_vfs_lookup(struct inode *dir, struct dentry *dentry, unsigned int f
 481:/mnt/c/Users/31740/Desktop/newcore/fs/initramfs/initramfs.c **** static int initramfs_link(struct dentry *old_dentry, struct inode *dir, struct dentry *dentry);
 482:/mnt/c/Users/31740/Desktop/newcore/fs/initramfs/initramfs.c **** static int initramfs_unlink(struct inode *dir, struct dentry *dentry);
 483:/mnt/c/Users/31740/Desktop/newcore/fs/initramfs/initramfs.c **** static int initramfs_mkdir(struct mnt_idmap *mnt, struct inode *dir, struct dentry *dentry, umode_t
 484:/mnt/c/Users/31740/Desktop/newcore/fs/initramfs/initramfs.c **** static int initramfs_setattr(struct mnt_idmap *map, struct dentry *dentry, struct iattr *iattr);
 485:/mnt/c/Users/31740/Desktop/newcore/fs/initramfs/initramfs.c **** static int  initramfs_getattr (struct mnt_idmap *dmp, const struct path * path,struct kstat *stat, 
 486:/mnt/c/Users/31740/Desktop/newcore/fs/initramfs/initramfs.c **** static int initramfs_rmdir(struct inode *	inode  ,struct dentry *dentry);
 487:/mnt/c/Users/31740/Desktop/newcore/fs/initramfs/initramfs.c **** 
 488:/mnt/c/Users/31740/Desktop/newcore/fs/initramfs/initramfs.c **** static struct inode_operations initramfs_inode_operation = {
 489:/mnt/c/Users/31740/Desktop/newcore/fs/initramfs/initramfs.c ****     .create = initramfs_create,
 490:/mnt/c/Users/31740/Desktop/newcore/fs/initramfs/initramfs.c ****     .lookup = initramfs_vfs_lookup,
 491:/mnt/c/Users/31740/Desktop/newcore/fs/initramfs/initramfs.c ****     .link   = initramfs_link,
 492:/mnt/c/Users/31740/Desktop/newcore/fs/initramfs/initramfs.c ****     .unlink = initramfs_unlink,
 493:/mnt/c/Users/31740/Desktop/newcore/fs/initramfs/initramfs.c ****     .mkdir  = initramfs_mkdir,
 494:/mnt/c/Users/31740/Desktop/newcore/fs/initramfs/initramfs.c ****     .rmdir  = initramfs_rmdir,
 495:/mnt/c/Users/31740/Desktop/newcore/fs/initramfs/initramfs.c ****     .setattr = initramfs_setattr,
 496:/mnt/c/Users/31740/Desktop/newcore/fs/initramfs/initramfs.c ****     .getattr = initramfs_getattr
 497:/mnt/c/Users/31740/Desktop/newcore/fs/initramfs/initramfs.c **** };
 498:/mnt/c/Users/31740/Desktop/newcore/fs/initramfs/initramfs.c **** 
 499:/mnt/c/Users/31740/Desktop/newcore/fs/initramfs/initramfs.c **** static struct dentry * initramfs_get_dentry(struct dentry * vdentry, struct initramfs_dentry *dentr
ARM GAS  /tmp/cczxpjuQ.s 			page 20


 500:/mnt/c/Users/31740/Desktop/newcore/fs/initramfs/initramfs.c **** {
 264              		.loc 1 500 1 is_stmt 1 view -0
 265              		.cfi_startproc
 266              		@ args = 0, pretend = 0, frame = 0
 267              		@ frame_needed = 0, uses_anonymous_args = 0
 268              		@ link register save eliminated.
 501:/mnt/c/Users/31740/Desktop/newcore/fs/initramfs/initramfs.c ****     if(dentry == NULL || vdentry == NULL) return NULL;
 269              		.loc 1 501 5 view .LVU52
 270              		.loc 1 501 7 is_stmt 0 view .LVU53
 271 0000 11B1     		cbz	r1, .L17
 272              		.loc 1 501 23 discriminator 2 view .LVU54
 273 0002 10B1     		cbz	r0, .L15
 502:/mnt/c/Users/31740/Desktop/newcore/fs/initramfs/initramfs.c ****     vdentry->d_fsdata = dentry;
 274              		.loc 1 502 5 is_stmt 1 view .LVU55
 275              		.loc 1 502 23 is_stmt 0 view .LVU56
 276 0004 4165     		str	r1, [r0, #84]
 503:/mnt/c/Users/31740/Desktop/newcore/fs/initramfs/initramfs.c ****     return vdentry;
 277              		.loc 1 503 5 is_stmt 1 view .LVU57
 278              		.loc 1 503 12 is_stmt 0 view .LVU58
 279 0006 7047     		bx	lr
 280              	.L17:
 501:/mnt/c/Users/31740/Desktop/newcore/fs/initramfs/initramfs.c ****     if(dentry == NULL || vdentry == NULL) return NULL;
 281              		.loc 1 501 50 discriminator 3 view .LVU59
 282 0008 0846     		mov	r0, r1
 283              	.LVL18:
 284              	.L15:
 504:/mnt/c/Users/31740/Desktop/newcore/fs/initramfs/initramfs.c **** }
 285              		.loc 1 504 1 view .LVU60
 286 000a 7047     		bx	lr
 287              		.cfi_endproc
 288              	.LFE1059:
 290              		.section	.text.initramfs_setattr,"ax",%progbits
 291              		.align	1
 292              		.syntax unified
 293              		.thumb
 294              		.thumb_func
 296              	initramfs_setattr:
 297              	.LVL19:
 298              	.LFB1067:
 505:/mnt/c/Users/31740/Desktop/newcore/fs/initramfs/initramfs.c **** 
 506:/mnt/c/Users/31740/Desktop/newcore/fs/initramfs/initramfs.c **** 
 507:/mnt/c/Users/31740/Desktop/newcore/fs/initramfs/initramfs.c **** static int initramfs_create(struct mnt_idmap * map, struct inode * dir,struct dentry * dentry,umode
 508:/mnt/c/Users/31740/Desktop/newcore/fs/initramfs/initramfs.c **** {
 509:/mnt/c/Users/31740/Desktop/newcore/fs/initramfs/initramfs.c ****     char *file_name = d_getname(dentry);
 510:/mnt/c/Users/31740/Desktop/newcore/fs/initramfs/initramfs.c ****     struct initramfs_inode *dinode = dir->i_private;
 511:/mnt/c/Users/31740/Desktop/newcore/fs/initramfs/initramfs.c ****     struct initramfs_dentry* file = initramfs_lookup(dinode,file_name);
 512:/mnt/c/Users/31740/Desktop/newcore/fs/initramfs/initramfs.c ****     if(file == NULL){
 513:/mnt/c/Users/31740/Desktop/newcore/fs/initramfs/initramfs.c ****         file =  initramfs_create_file(dinode->sb,dinode,&initramfs_file_fops,10,file_name);
 514:/mnt/c/Users/31740/Desktop/newcore/fs/initramfs/initramfs.c ****     }
 515:/mnt/c/Users/31740/Desktop/newcore/fs/initramfs/initramfs.c ****     if (file == NULL){                               //ç¡®å®šæ–‡ä»¶æ˜¯å¦è¢«åˆ›å»º
 516:/mnt/c/Users/31740/Desktop/newcore/fs/initramfs/initramfs.c ****         return -1;
 517:/mnt/c/Users/31740/Desktop/newcore/fs/initramfs/initramfs.c ****     }
 518:/mnt/c/Users/31740/Desktop/newcore/fs/initramfs/initramfs.c ****     file->target_inode->i_mode = mode;
 519:/mnt/c/Users/31740/Desktop/newcore/fs/initramfs/initramfs.c ****     if( initramfs_get_dentry(dentry,file) == NULL){     //æž„å»ºdentry    
 520:/mnt/c/Users/31740/Desktop/newcore/fs/initramfs/initramfs.c ****      return -1;
 521:/mnt/c/Users/31740/Desktop/newcore/fs/initramfs/initramfs.c ****     }    
 522:/mnt/c/Users/31740/Desktop/newcore/fs/initramfs/initramfs.c ****     struct inode * new_file_inode = initramfs_get_inode(file->target_inode,dir->i_sb);
ARM GAS  /tmp/cczxpjuQ.s 			page 21


 523:/mnt/c/Users/31740/Desktop/newcore/fs/initramfs/initramfs.c ****     if(new_file_inode == NULL)
 524:/mnt/c/Users/31740/Desktop/newcore/fs/initramfs/initramfs.c ****         return -1;
 525:/mnt/c/Users/31740/Desktop/newcore/fs/initramfs/initramfs.c ****     
 526:/mnt/c/Users/31740/Desktop/newcore/fs/initramfs/initramfs.c ****     d_add(dentry,new_file_inode); //é€šçŸ¥æ–‡ä»¶ç³»ç»ŸåŠ å…¥ç¼“å­˜ï¼Œå¹¶è¿›è¡Œèµ„æºç»‘å®š
 527:/mnt/c/Users/31740/Desktop/newcore/fs/initramfs/initramfs.c ****     return 0;
 528:/mnt/c/Users/31740/Desktop/newcore/fs/initramfs/initramfs.c **** } 
 529:/mnt/c/Users/31740/Desktop/newcore/fs/initramfs/initramfs.c **** 
 530:/mnt/c/Users/31740/Desktop/newcore/fs/initramfs/initramfs.c **** static struct dentry *initramfs_vfs_lookup(struct inode *dir, struct dentry *dentry, unsigned int f
 531:/mnt/c/Users/31740/Desktop/newcore/fs/initramfs/initramfs.c ****     
 532:/mnt/c/Users/31740/Desktop/newcore/fs/initramfs/initramfs.c ****     struct initramfs_inode *dir_inode = (struct initramfs_inode *)dir->i_private; //èŽ·å–æ–‡ä»¶ç³»
 533:/mnt/c/Users/31740/Desktop/newcore/fs/initramfs/initramfs.c ****     char *name = dentry->d_name.name;                           
 534:/mnt/c/Users/31740/Desktop/newcore/fs/initramfs/initramfs.c ****     struct initramfs_dentry *pos;    
 535:/mnt/c/Users/31740/Desktop/newcore/fs/initramfs/initramfs.c ****     pos = initramfs_lookup(dir_inode,name);       //æŸ¥è¯¢èŽ·å¾—dentry
 536:/mnt/c/Users/31740/Desktop/newcore/fs/initramfs/initramfs.c ****     if(pos == NULL) return NULL;
 537:/mnt/c/Users/31740/Desktop/newcore/fs/initramfs/initramfs.c **** 
 538:/mnt/c/Users/31740/Desktop/newcore/fs/initramfs/initramfs.c ****     if( initramfs_get_dentry(dentry,pos) == NULL)
 539:/mnt/c/Users/31740/Desktop/newcore/fs/initramfs/initramfs.c ****         return NULL;
 540:/mnt/c/Users/31740/Desktop/newcore/fs/initramfs/initramfs.c **** 
 541:/mnt/c/Users/31740/Desktop/newcore/fs/initramfs/initramfs.c ****     struct inode * find_inode = initramfs_get_inode(pos->target_inode,dir->i_sb);
 542:/mnt/c/Users/31740/Desktop/newcore/fs/initramfs/initramfs.c ****     if(find_inode == NULL)
 543:/mnt/c/Users/31740/Desktop/newcore/fs/initramfs/initramfs.c ****         return NULL;
 544:/mnt/c/Users/31740/Desktop/newcore/fs/initramfs/initramfs.c ****     
 545:/mnt/c/Users/31740/Desktop/newcore/fs/initramfs/initramfs.c ****     return d_add(dentry,find_inode);
 546:/mnt/c/Users/31740/Desktop/newcore/fs/initramfs/initramfs.c ****     return NULL;
 547:/mnt/c/Users/31740/Desktop/newcore/fs/initramfs/initramfs.c **** }
 548:/mnt/c/Users/31740/Desktop/newcore/fs/initramfs/initramfs.c **** 
 549:/mnt/c/Users/31740/Desktop/newcore/fs/initramfs/initramfs.c **** 
 550:/mnt/c/Users/31740/Desktop/newcore/fs/initramfs/initramfs.c **** static int initramfs_link(struct dentry *old_dentry, struct inode *dir, struct dentry *dentry)
 551:/mnt/c/Users/31740/Desktop/newcore/fs/initramfs/initramfs.c **** {
 552:/mnt/c/Users/31740/Desktop/newcore/fs/initramfs/initramfs.c ****     struct initramfs_inode *old_inode = (struct initramfs_inode *)old_dentry->d_inode->i_private;
 553:/mnt/c/Users/31740/Desktop/newcore/fs/initramfs/initramfs.c ****     struct initramfs_inode *dir_inode = (struct initramfs_inode *)dir->i_private;
 554:/mnt/c/Users/31740/Desktop/newcore/fs/initramfs/initramfs.c ****     struct initramfs_dentry *new_dentry = initramfs_create_dentry(dir_inode, old_inode, dentry->d_n
 555:/mnt/c/Users/31740/Desktop/newcore/fs/initramfs/initramfs.c ****     if (new_dentry == NULL) {
 556:/mnt/c/Users/31740/Desktop/newcore/fs/initramfs/initramfs.c ****         return -ENOMEM;
 557:/mnt/c/Users/31740/Desktop/newcore/fs/initramfs/initramfs.c ****     }
 558:/mnt/c/Users/31740/Desktop/newcore/fs/initramfs/initramfs.c ****     initramfs_get_dentry(dentry,new_dentry);
 559:/mnt/c/Users/31740/Desktop/newcore/fs/initramfs/initramfs.c ****     dentry->d_sb = dir->i_sb;
 560:/mnt/c/Users/31740/Desktop/newcore/fs/initramfs/initramfs.c ****     d_add(dentry,dentry->d_inode);
 561:/mnt/c/Users/31740/Desktop/newcore/fs/initramfs/initramfs.c ****     return 0;
 562:/mnt/c/Users/31740/Desktop/newcore/fs/initramfs/initramfs.c **** }
 563:/mnt/c/Users/31740/Desktop/newcore/fs/initramfs/initramfs.c **** 
 564:/mnt/c/Users/31740/Desktop/newcore/fs/initramfs/initramfs.c **** static int initramfs_unlink(struct inode *dir, struct dentry *dentry)
 565:/mnt/c/Users/31740/Desktop/newcore/fs/initramfs/initramfs.c **** {
 566:/mnt/c/Users/31740/Desktop/newcore/fs/initramfs/initramfs.c ****     struct initramfs_inode *parent_inode = (struct initramfs_inode *)dir->i_private;
 567:/mnt/c/Users/31740/Desktop/newcore/fs/initramfs/initramfs.c ****     struct initramfs_dentry *delete_dentry = (struct initramfs_dentry *)dentry->d_fsdata;
 568:/mnt/c/Users/31740/Desktop/newcore/fs/initramfs/initramfs.c ****     initramfs_delete_dentry(parent_inode->sb, parent_inode, delete_dentry);
 569:/mnt/c/Users/31740/Desktop/newcore/fs/initramfs/initramfs.c ****     return 0;
 570:/mnt/c/Users/31740/Desktop/newcore/fs/initramfs/initramfs.c **** }
 571:/mnt/c/Users/31740/Desktop/newcore/fs/initramfs/initramfs.c **** 
 572:/mnt/c/Users/31740/Desktop/newcore/fs/initramfs/initramfs.c **** static int initramfs_mkdir(struct mnt_idmap *mnt, struct inode *dir, struct dentry *dentry, umode_t
 573:/mnt/c/Users/31740/Desktop/newcore/fs/initramfs/initramfs.c **** {
 574:/mnt/c/Users/31740/Desktop/newcore/fs/initramfs/initramfs.c ****     char *file_name = d_getname(dentry);
 575:/mnt/c/Users/31740/Desktop/newcore/fs/initramfs/initramfs.c ****     struct initramfs_inode *dinode = dir->i_private;
 576:/mnt/c/Users/31740/Desktop/newcore/fs/initramfs/initramfs.c ****     struct initramfs_dentry* file = initramfs_lookup(dinode,file_name);
 577:/mnt/c/Users/31740/Desktop/newcore/fs/initramfs/initramfs.c ****     if(file == NULL){
 578:/mnt/c/Users/31740/Desktop/newcore/fs/initramfs/initramfs.c ****         file =  initramfs_create_dir(dinode->sb,dinode,file_name);
 579:/mnt/c/Users/31740/Desktop/newcore/fs/initramfs/initramfs.c ****     }
ARM GAS  /tmp/cczxpjuQ.s 			page 22


 580:/mnt/c/Users/31740/Desktop/newcore/fs/initramfs/initramfs.c ****     if (file == NULL){                               //ç¡®å®šæ–‡ä»¶æ˜¯å¦è¢«åˆ›å»º
 581:/mnt/c/Users/31740/Desktop/newcore/fs/initramfs/initramfs.c ****         return -1;
 582:/mnt/c/Users/31740/Desktop/newcore/fs/initramfs/initramfs.c ****     }
 583:/mnt/c/Users/31740/Desktop/newcore/fs/initramfs/initramfs.c ****     file->target_inode->i_mode = S_IFREG | (mode & 0777);
 584:/mnt/c/Users/31740/Desktop/newcore/fs/initramfs/initramfs.c ****     
 585:/mnt/c/Users/31740/Desktop/newcore/fs/initramfs/initramfs.c ****     if( initramfs_get_dentry(dentry,file) == NULL){     //æž„å»ºdentry    
 586:/mnt/c/Users/31740/Desktop/newcore/fs/initramfs/initramfs.c ****      return -1;
 587:/mnt/c/Users/31740/Desktop/newcore/fs/initramfs/initramfs.c ****     }  
 588:/mnt/c/Users/31740/Desktop/newcore/fs/initramfs/initramfs.c ****     struct inode * new_file_inode = initramfs_get_inode(dinode,dir->i_sb);
 589:/mnt/c/Users/31740/Desktop/newcore/fs/initramfs/initramfs.c ****     if(new_file_inode == NULL)
 590:/mnt/c/Users/31740/Desktop/newcore/fs/initramfs/initramfs.c ****         return -1;
 591:/mnt/c/Users/31740/Desktop/newcore/fs/initramfs/initramfs.c **** 
 592:/mnt/c/Users/31740/Desktop/newcore/fs/initramfs/initramfs.c ****     d_add(dentry,new_file_inode); //é€šçŸ¥æ–‡ä»¶ç³»ç»ŸåŠ å…¥ç¼“å­˜ï¼Œå¹¶è¿›è¡Œèµ„æºç»‘å®š
 593:/mnt/c/Users/31740/Desktop/newcore/fs/initramfs/initramfs.c ****    return 0;
 594:/mnt/c/Users/31740/Desktop/newcore/fs/initramfs/initramfs.c **** }
 595:/mnt/c/Users/31740/Desktop/newcore/fs/initramfs/initramfs.c **** 
 596:/mnt/c/Users/31740/Desktop/newcore/fs/initramfs/initramfs.c **** 
 597:/mnt/c/Users/31740/Desktop/newcore/fs/initramfs/initramfs.c **** static int initramfs_release_dentry(struct dentry *dentry){
 598:/mnt/c/Users/31740/Desktop/newcore/fs/initramfs/initramfs.c ****     struct initramfs_dentry *fs_dentry = dentry->d_fsdata;
 599:/mnt/c/Users/31740/Desktop/newcore/fs/initramfs/initramfs.c ****     dentry_put(fs_dentry->target_inode->sb, fs_dentry);
 600:/mnt/c/Users/31740/Desktop/newcore/fs/initramfs/initramfs.c **** }
 601:/mnt/c/Users/31740/Desktop/newcore/fs/initramfs/initramfs.c **** static int initramfs_rmdir(struct inode *	dir  ,struct dentry *dentry){
 602:/mnt/c/Users/31740/Desktop/newcore/fs/initramfs/initramfs.c ****     initramfs_release_dentry(dentry);
 603:/mnt/c/Users/31740/Desktop/newcore/fs/initramfs/initramfs.c ****     return simple_unlink(dir,dentry);
 604:/mnt/c/Users/31740/Desktop/newcore/fs/initramfs/initramfs.c **** }
 605:/mnt/c/Users/31740/Desktop/newcore/fs/initramfs/initramfs.c **** 
 606:/mnt/c/Users/31740/Desktop/newcore/fs/initramfs/initramfs.c **** static int initramfs_setattr(struct mnt_idmap *map, struct dentry *dentry, struct iattr *iattr)
 607:/mnt/c/Users/31740/Desktop/newcore/fs/initramfs/initramfs.c **** {
 299              		.loc 1 607 1 is_stmt 1 view -0
 300              		.cfi_startproc
 301              		@ args = 0, pretend = 0, frame = 0
 302              		@ frame_needed = 0, uses_anonymous_args = 0
 303              		@ link register save eliminated.
 608:/mnt/c/Users/31740/Desktop/newcore/fs/initramfs/initramfs.c ****     struct initramfs_dentry* file = dentry->d_fsdata;
 304              		.loc 1 608 5 view .LVU62
 305              		.loc 1 608 30 is_stmt 0 view .LVU63
 306 0000 4B6D     		ldr	r3, [r1, #84]
 307              	.LVL20:
 609:/mnt/c/Users/31740/Desktop/newcore/fs/initramfs/initramfs.c ****     file->target_inode->i_mode = (iattr->ia_mode & S_IFMT) | iattr->ia_mode;
 308              		.loc 1 609 5 is_stmt 1 view .LVU64
 309              		.loc 1 609 40 is_stmt 0 view .LVU65
 310 0002 9288     		ldrh	r2, [r2, #4]
 311              	.LVL21:
 312              		.loc 1 609 9 view .LVU66
 313 0004 9B68     		ldr	r3, [r3, #8]
 314              	.LVL22:
 315              		.loc 1 609 32 view .LVU67
 316 0006 5A60     		str	r2, [r3, #4]
 317              	.LVL23:
 610:/mnt/c/Users/31740/Desktop/newcore/fs/initramfs/initramfs.c ****     return 0;
 318              		.loc 1 610 5 is_stmt 1 view .LVU68
 611:/mnt/c/Users/31740/Desktop/newcore/fs/initramfs/initramfs.c **** }
 319              		.loc 1 611 1 is_stmt 0 view .LVU69
 320 0008 0020     		movs	r0, #0
 321              	.LVL24:
 322              		.loc 1 611 1 view .LVU70
 323 000a 7047     		bx	lr
ARM GAS  /tmp/cczxpjuQ.s 			page 23


 324              		.cfi_endproc
 325              	.LFE1067:
 327              		.section	.text.__page_create,"ax",%progbits
 328              		.align	1
 329              		.syntax unified
 330              		.thumb
 331              		.thumb_func
 333              	__page_create:
 334              	.LVL25:
 335              	.LFB910:
 189:/mnt/c/Users/31740/Desktop/newcore/include/linux/mm_type.h ****     struct page *page = (struct page *)kmalloc(sizeof(struct page), flags);
 336              		.loc 4 189 55 is_stmt 1 view -0
 337              		.cfi_startproc
 338              		@ args = 0, pretend = 0, frame = 0
 339              		@ frame_needed = 0, uses_anonymous_args = 0
 189:/mnt/c/Users/31740/Desktop/newcore/include/linux/mm_type.h ****     struct page *page = (struct page *)kmalloc(sizeof(struct page), flags);
 340              		.loc 4 189 55 is_stmt 0 view .LVU72
 341 0000 08B5     		push	{r3, lr}
 342              	.LCFI2:
 343              		.cfi_def_cfa_offset 8
 344              		.cfi_offset 3, -8
 345              		.cfi_offset 14, -4
 346 0002 0146     		mov	r1, r0
 190:/mnt/c/Users/31740/Desktop/newcore/include/linux/mm_type.h ****     if (page == NULL)
 347              		.loc 4 190 5 is_stmt 1 view .LVU73
 348              	.LVL26:
 349              	.LBB321:
 350              	.LBI321:
 351              		.file 5 "/mnt/c/Users/31740/Desktop/newcore/include/linux/slab.h"
   1:/mnt/c/Users/31740/Desktop/newcore/include/linux/slab.h **** /* SPDX-License-Identifier: GPL-2.0 */
   2:/mnt/c/Users/31740/Desktop/newcore/include/linux/slab.h **** /*
   3:/mnt/c/Users/31740/Desktop/newcore/include/linux/slab.h ****  * Written by Mark Hemment, 1996 (markhe@nextd.demon.co.uk).
   4:/mnt/c/Users/31740/Desktop/newcore/include/linux/slab.h ****  *
   5:/mnt/c/Users/31740/Desktop/newcore/include/linux/slab.h ****  * (C) SGI 2006, Christoph Lameter
   6:/mnt/c/Users/31740/Desktop/newcore/include/linux/slab.h ****  * 	Cleaned up and restructured to ease the addition of alternative
   7:/mnt/c/Users/31740/Desktop/newcore/include/linux/slab.h ****  * 	implementations of SLAB allocators.
   8:/mnt/c/Users/31740/Desktop/newcore/include/linux/slab.h ****  * (C) Linux Foundation 2008-2013
   9:/mnt/c/Users/31740/Desktop/newcore/include/linux/slab.h ****  *      Unified interface for all slab allocators
  10:/mnt/c/Users/31740/Desktop/newcore/include/linux/slab.h ****  */
  11:/mnt/c/Users/31740/Desktop/newcore/include/linux/slab.h **** 
  12:/mnt/c/Users/31740/Desktop/newcore/include/linux/slab.h **** #ifndef _LINUX_SLAB_H
  13:/mnt/c/Users/31740/Desktop/newcore/include/linux/slab.h **** #define	_LINUX_SLAB_H
  14:/mnt/c/Users/31740/Desktop/newcore/include/linux/slab.h **** 
  15:/mnt/c/Users/31740/Desktop/newcore/include/linux/slab.h **** #include <linux/cache.h>
  16:/mnt/c/Users/31740/Desktop/newcore/include/linux/slab.h **** #include <linux/overflow.h>
  17:/mnt/c/Users/31740/Desktop/newcore/include/linux/slab.h **** #include <linux/types.h>
  18:/mnt/c/Users/31740/Desktop/newcore/include/linux/slab.h **** #include <linux/raid/pq.h>
  19:/mnt/c/Users/31740/Desktop/newcore/include/linux/slab.h **** #include <linux/gfp_types.h>
  20:/mnt/c/Users/31740/Desktop/newcore/include/linux/slab.h **** #include <linux/numa.h>
  21:/mnt/c/Users/31740/Desktop/newcore/include/linux/slab.h **** #include <linux/reciprocal_div.h>
  22:/mnt/c/Users/31740/Desktop/newcore/include/linux/slab.h **** #include <linux/spinlock.h>
  23:/mnt/c/Users/31740/Desktop/newcore/include/linux/slab.h **** 
  24:/mnt/c/Users/31740/Desktop/newcore/include/linux/slab.h **** enum _slab_flag_bits {
  25:/mnt/c/Users/31740/Desktop/newcore/include/linux/slab.h **** 	_SLAB_CONSISTENCY_CHECKS,
  26:/mnt/c/Users/31740/Desktop/newcore/include/linux/slab.h **** 	_SLAB_RED_ZONE,
  27:/mnt/c/Users/31740/Desktop/newcore/include/linux/slab.h **** 	_SLAB_POISON,
  28:/mnt/c/Users/31740/Desktop/newcore/include/linux/slab.h **** 	_SLAB_KMALLOC,
ARM GAS  /tmp/cczxpjuQ.s 			page 24


  29:/mnt/c/Users/31740/Desktop/newcore/include/linux/slab.h **** 	_SLAB_HWCACHE_ALIGN,
  30:/mnt/c/Users/31740/Desktop/newcore/include/linux/slab.h **** 	_SLAB_CACHE_DMA,
  31:/mnt/c/Users/31740/Desktop/newcore/include/linux/slab.h **** 	_SLAB_CACHE_DMA32,
  32:/mnt/c/Users/31740/Desktop/newcore/include/linux/slab.h **** 	_SLAB_STORE_USER,
  33:/mnt/c/Users/31740/Desktop/newcore/include/linux/slab.h **** 	_SLAB_PANIC,
  34:/mnt/c/Users/31740/Desktop/newcore/include/linux/slab.h **** 	_SLAB_TYPESAFE_BY_RCU,
  35:/mnt/c/Users/31740/Desktop/newcore/include/linux/slab.h **** 	_SLAB_TRACE,
  36:/mnt/c/Users/31740/Desktop/newcore/include/linux/slab.h **** #ifdef CONFIG_DEBUG_OBJECTS
  37:/mnt/c/Users/31740/Desktop/newcore/include/linux/slab.h **** 	_SLAB_DEBUG_OBJECTS,
  38:/mnt/c/Users/31740/Desktop/newcore/include/linux/slab.h **** #endif
  39:/mnt/c/Users/31740/Desktop/newcore/include/linux/slab.h **** 	_SLAB_NOLEAKTRACE,
  40:/mnt/c/Users/31740/Desktop/newcore/include/linux/slab.h **** 	_SLAB_NO_MERGE,
  41:/mnt/c/Users/31740/Desktop/newcore/include/linux/slab.h **** #ifdef CONFIG_FAILSLAB
  42:/mnt/c/Users/31740/Desktop/newcore/include/linux/slab.h **** 	_SLAB_FAILSLAB,
  43:/mnt/c/Users/31740/Desktop/newcore/include/linux/slab.h **** #endif
  44:/mnt/c/Users/31740/Desktop/newcore/include/linux/slab.h **** #ifdef CONFIG_MEMCG
  45:/mnt/c/Users/31740/Desktop/newcore/include/linux/slab.h **** 	_SLAB_ACCOUNT,
  46:/mnt/c/Users/31740/Desktop/newcore/include/linux/slab.h **** #endif
  47:/mnt/c/Users/31740/Desktop/newcore/include/linux/slab.h **** #ifdef CONFIG_KASAN_GENERIC
  48:/mnt/c/Users/31740/Desktop/newcore/include/linux/slab.h **** 	_SLAB_KASAN,
  49:/mnt/c/Users/31740/Desktop/newcore/include/linux/slab.h **** #endif
  50:/mnt/c/Users/31740/Desktop/newcore/include/linux/slab.h **** 	_SLAB_NO_USER_FLAGS,
  51:/mnt/c/Users/31740/Desktop/newcore/include/linux/slab.h **** #ifdef CONFIG_KFENCE
  52:/mnt/c/Users/31740/Desktop/newcore/include/linux/slab.h **** 	_SLAB_SKIP_KFENCE,
  53:/mnt/c/Users/31740/Desktop/newcore/include/linux/slab.h **** #endif
  54:/mnt/c/Users/31740/Desktop/newcore/include/linux/slab.h **** #ifndef CONFIG_SLUB_TINY
  55:/mnt/c/Users/31740/Desktop/newcore/include/linux/slab.h **** 	_SLAB_RECLAIM_ACCOUNT,
  56:/mnt/c/Users/31740/Desktop/newcore/include/linux/slab.h **** #endif
  57:/mnt/c/Users/31740/Desktop/newcore/include/linux/slab.h **** 	_SLAB_OBJECT_POISON,
  58:/mnt/c/Users/31740/Desktop/newcore/include/linux/slab.h **** 	_SLAB_CMPXCHG_DOUBLE,
  59:/mnt/c/Users/31740/Desktop/newcore/include/linux/slab.h **** #ifdef CONFIG_SLAB_OBJ_EXT
  60:/mnt/c/Users/31740/Desktop/newcore/include/linux/slab.h **** 	_SLAB_NO_OBJ_EXT,
  61:/mnt/c/Users/31740/Desktop/newcore/include/linux/slab.h **** #endif
  62:/mnt/c/Users/31740/Desktop/newcore/include/linux/slab.h **** 	_SLAB_FLAGS_LAST_BIT
  63:/mnt/c/Users/31740/Desktop/newcore/include/linux/slab.h **** };
  64:/mnt/c/Users/31740/Desktop/newcore/include/linux/slab.h **** 
  65:/mnt/c/Users/31740/Desktop/newcore/include/linux/slab.h **** 
  66:/mnt/c/Users/31740/Desktop/newcore/include/linux/slab.h **** 
  67:/mnt/c/Users/31740/Desktop/newcore/include/linux/slab.h **** #define __SLAB_FLAG_BIT(nr)	((slab_flags_t __force)(1U << (nr)))
  68:/mnt/c/Users/31740/Desktop/newcore/include/linux/slab.h **** #define __SLAB_FLAG_UNUSED	((slab_flags_t __force)(0U))
  69:/mnt/c/Users/31740/Desktop/newcore/include/linux/slab.h **** 
  70:/mnt/c/Users/31740/Desktop/newcore/include/linux/slab.h **** /*
  71:/mnt/c/Users/31740/Desktop/newcore/include/linux/slab.h ****  * Flags to pass to kmem_cache_create().
  72:/mnt/c/Users/31740/Desktop/newcore/include/linux/slab.h ****  * The ones marked DEBUG need CONFIG_SLUB_DEBUG enabled, otherwise are no-op
  73:/mnt/c/Users/31740/Desktop/newcore/include/linux/slab.h ****  */
  74:/mnt/c/Users/31740/Desktop/newcore/include/linux/slab.h **** /* DEBUG: Perform (expensive) checks on alloc/free */
  75:/mnt/c/Users/31740/Desktop/newcore/include/linux/slab.h **** #define SLAB_CONSISTENCY_CHECKS	__SLAB_FLAG_BIT(_SLAB_CONSISTENCY_CHECKS)
  76:/mnt/c/Users/31740/Desktop/newcore/include/linux/slab.h **** /* DEBUG: Red zone objs in a cache */
  77:/mnt/c/Users/31740/Desktop/newcore/include/linux/slab.h **** #define SLAB_RED_ZONE		__SLAB_FLAG_BIT(_SLAB_RED_ZONE)
  78:/mnt/c/Users/31740/Desktop/newcore/include/linux/slab.h **** /* DEBUG: Poison objects */
  79:/mnt/c/Users/31740/Desktop/newcore/include/linux/slab.h **** #define SLAB_POISON		__SLAB_FLAG_BIT(_SLAB_POISON)
  80:/mnt/c/Users/31740/Desktop/newcore/include/linux/slab.h **** /* Indicate a kmalloc slab */
  81:/mnt/c/Users/31740/Desktop/newcore/include/linux/slab.h **** #define SLAB_KMALLOC		__SLAB_FLAG_BIT(_SLAB_KMALLOC)
  82:/mnt/c/Users/31740/Desktop/newcore/include/linux/slab.h **** /**
  83:/mnt/c/Users/31740/Desktop/newcore/include/linux/slab.h ****  * define SLAB_HWCACHE_ALIGN - Align objects on cache line boundaries.
  84:/mnt/c/Users/31740/Desktop/newcore/include/linux/slab.h ****  *
  85:/mnt/c/Users/31740/Desktop/newcore/include/linux/slab.h ****  * Sufficiently large objects are aligned on cache line boundary. For object
ARM GAS  /tmp/cczxpjuQ.s 			page 25


  86:/mnt/c/Users/31740/Desktop/newcore/include/linux/slab.h ****  * size smaller than a half of cache line size, the alignment is on the half of
  87:/mnt/c/Users/31740/Desktop/newcore/include/linux/slab.h ****  * cache line size. In general, if object size is smaller than 1/2^n of cache
  88:/mnt/c/Users/31740/Desktop/newcore/include/linux/slab.h ****  * line size, the alignment is adjusted to 1/2^n.
  89:/mnt/c/Users/31740/Desktop/newcore/include/linux/slab.h ****  *
  90:/mnt/c/Users/31740/Desktop/newcore/include/linux/slab.h ****  * If explicit alignment is also requested by the respective
  91:/mnt/c/Users/31740/Desktop/newcore/include/linux/slab.h ****  * &struct kmem_cache_args field, the greater of both is alignments is applied.
  92:/mnt/c/Users/31740/Desktop/newcore/include/linux/slab.h ****  */
  93:/mnt/c/Users/31740/Desktop/newcore/include/linux/slab.h **** #define SLAB_HWCACHE_ALIGN	__SLAB_FLAG_BIT(_SLAB_HWCACHE_ALIGN)
  94:/mnt/c/Users/31740/Desktop/newcore/include/linux/slab.h **** /* Use GFP_DMA memory */
  95:/mnt/c/Users/31740/Desktop/newcore/include/linux/slab.h **** #define SLAB_CACHE_DMA		__SLAB_FLAG_BIT(_SLAB_CACHE_DMA)
  96:/mnt/c/Users/31740/Desktop/newcore/include/linux/slab.h **** /* Use GFP_DMA32 memory */
  97:/mnt/c/Users/31740/Desktop/newcore/include/linux/slab.h **** #define SLAB_CACHE_DMA32	__SLAB_FLAG_BIT(_SLAB_CACHE_DMA32)
  98:/mnt/c/Users/31740/Desktop/newcore/include/linux/slab.h **** /* DEBUG: Store the last owner for bug hunting */
  99:/mnt/c/Users/31740/Desktop/newcore/include/linux/slab.h **** #define SLAB_STORE_USER		__SLAB_FLAG_BIT(_SLAB_STORE_USER)
 100:/mnt/c/Users/31740/Desktop/newcore/include/linux/slab.h **** /* Panic if kmem_cache_create() fails */
 101:/mnt/c/Users/31740/Desktop/newcore/include/linux/slab.h **** #define SLAB_PANIC		__SLAB_FLAG_BIT(_SLAB_PANIC)
 102:/mnt/c/Users/31740/Desktop/newcore/include/linux/slab.h **** /**
 103:/mnt/c/Users/31740/Desktop/newcore/include/linux/slab.h ****  * define SLAB_TYPESAFE_BY_RCU - **WARNING** READ THIS!
 104:/mnt/c/Users/31740/Desktop/newcore/include/linux/slab.h ****  *
 105:/mnt/c/Users/31740/Desktop/newcore/include/linux/slab.h ****  * This delays freeing the SLAB page by a grace period, it does _NOT_
 106:/mnt/c/Users/31740/Desktop/newcore/include/linux/slab.h ****  * delay object freeing. This means that if you do kmem_cache_free()
 107:/mnt/c/Users/31740/Desktop/newcore/include/linux/slab.h ****  * that memory location is free to be reused at any time. Thus it may
 108:/mnt/c/Users/31740/Desktop/newcore/include/linux/slab.h ****  * be possible to see another object there in the same RCU grace period.
 109:/mnt/c/Users/31740/Desktop/newcore/include/linux/slab.h ****  *
 110:/mnt/c/Users/31740/Desktop/newcore/include/linux/slab.h ****  * This feature only ensures the memory location backing the object
 111:/mnt/c/Users/31740/Desktop/newcore/include/linux/slab.h ****  * stays valid, the trick to using this is relying on an independent
 112:/mnt/c/Users/31740/Desktop/newcore/include/linux/slab.h ****  * object validation pass. Something like:
 113:/mnt/c/Users/31740/Desktop/newcore/include/linux/slab.h ****  *
 114:/mnt/c/Users/31740/Desktop/newcore/include/linux/slab.h ****  * ::
 115:/mnt/c/Users/31740/Desktop/newcore/include/linux/slab.h ****  *
 116:/mnt/c/Users/31740/Desktop/newcore/include/linux/slab.h ****  *  begin:
 117:/mnt/c/Users/31740/Desktop/newcore/include/linux/slab.h ****  *   rcu_read_lock();
 118:/mnt/c/Users/31740/Desktop/newcore/include/linux/slab.h ****  *   obj = lockless_lookup(key);
 119:/mnt/c/Users/31740/Desktop/newcore/include/linux/slab.h ****  *   if (obj) {
 120:/mnt/c/Users/31740/Desktop/newcore/include/linux/slab.h ****  *     if (!try_get_ref(obj)) // might fail for free objects
 121:/mnt/c/Users/31740/Desktop/newcore/include/linux/slab.h ****  *       rcu_read_unlock();
 122:/mnt/c/Users/31740/Desktop/newcore/include/linux/slab.h ****  *       goto begin;
 123:/mnt/c/Users/31740/Desktop/newcore/include/linux/slab.h ****  *
 124:/mnt/c/Users/31740/Desktop/newcore/include/linux/slab.h ****  *     if (obj->key != key) { // not the object we expected
 125:/mnt/c/Users/31740/Desktop/newcore/include/linux/slab.h ****  *       put_ref(obj);
 126:/mnt/c/Users/31740/Desktop/newcore/include/linux/slab.h ****  *       rcu_read_unlock();
 127:/mnt/c/Users/31740/Desktop/newcore/include/linux/slab.h ****  *       goto begin;
 128:/mnt/c/Users/31740/Desktop/newcore/include/linux/slab.h ****  *     }
 129:/mnt/c/Users/31740/Desktop/newcore/include/linux/slab.h ****  *   }
 130:/mnt/c/Users/31740/Desktop/newcore/include/linux/slab.h ****  *  rcu_read_unlock();
 131:/mnt/c/Users/31740/Desktop/newcore/include/linux/slab.h ****  *
 132:/mnt/c/Users/31740/Desktop/newcore/include/linux/slab.h ****  * This is useful if we need to approach a kernel structure obliquely,
 133:/mnt/c/Users/31740/Desktop/newcore/include/linux/slab.h ****  * from its address obtained without the usual locking. We can lock
 134:/mnt/c/Users/31740/Desktop/newcore/include/linux/slab.h ****  * the structure to stabilize it and check it's still at the given address,
 135:/mnt/c/Users/31740/Desktop/newcore/include/linux/slab.h ****  * only if we can be sure that the memory has not been meanwhile reused
 136:/mnt/c/Users/31740/Desktop/newcore/include/linux/slab.h ****  * for some other kind of object (which our subsystem's lock might corrupt).
 137:/mnt/c/Users/31740/Desktop/newcore/include/linux/slab.h ****  *
 138:/mnt/c/Users/31740/Desktop/newcore/include/linux/slab.h ****  * rcu_read_lock before reading the address, then rcu_read_unlock after
 139:/mnt/c/Users/31740/Desktop/newcore/include/linux/slab.h ****  * taking the spinlock within the structure expected at that address.
 140:/mnt/c/Users/31740/Desktop/newcore/include/linux/slab.h ****  *
 141:/mnt/c/Users/31740/Desktop/newcore/include/linux/slab.h ****  * Note that it is not possible to acquire a lock within a structure
 142:/mnt/c/Users/31740/Desktop/newcore/include/linux/slab.h ****  * allocated with SLAB_TYPESAFE_BY_RCU without first acquiring a reference
ARM GAS  /tmp/cczxpjuQ.s 			page 26


 143:/mnt/c/Users/31740/Desktop/newcore/include/linux/slab.h ****  * as described above.  The reason is that SLAB_TYPESAFE_BY_RCU pages
 144:/mnt/c/Users/31740/Desktop/newcore/include/linux/slab.h ****  * are not zeroed before being given to the slab, which means that any
 145:/mnt/c/Users/31740/Desktop/newcore/include/linux/slab.h ****  * locks must be initialized after each and every kmem_struct_alloc().
 146:/mnt/c/Users/31740/Desktop/newcore/include/linux/slab.h ****  * Alternatively, make the ctor passed to kmem_cache_create() initialize
 147:/mnt/c/Users/31740/Desktop/newcore/include/linux/slab.h ****  * the locks at page-allocation time, as is done in __i915_request_ctor(),
 148:/mnt/c/Users/31740/Desktop/newcore/include/linux/slab.h ****  * sighand_ctor(), and anon_vma_ctor().  Such a ctor permits readers
 149:/mnt/c/Users/31740/Desktop/newcore/include/linux/slab.h ****  * to safely acquire those ctor-initialized locks under rcu_read_lock()
 150:/mnt/c/Users/31740/Desktop/newcore/include/linux/slab.h ****  * protection.
 151:/mnt/c/Users/31740/Desktop/newcore/include/linux/slab.h ****  *
 152:/mnt/c/Users/31740/Desktop/newcore/include/linux/slab.h ****  * Note that SLAB_TYPESAFE_BY_RCU was originally named SLAB_DESTROY_BY_RCU.
 153:/mnt/c/Users/31740/Desktop/newcore/include/linux/slab.h ****  */
 154:/mnt/c/Users/31740/Desktop/newcore/include/linux/slab.h **** #define SLAB_TYPESAFE_BY_RCU	__SLAB_FLAG_BIT(_SLAB_TYPESAFE_BY_RCU)
 155:/mnt/c/Users/31740/Desktop/newcore/include/linux/slab.h **** /* Trace allocations and frees */
 156:/mnt/c/Users/31740/Desktop/newcore/include/linux/slab.h **** #define SLAB_TRACE		__SLAB_FLAG_BIT(_SLAB_TRACE)
 157:/mnt/c/Users/31740/Desktop/newcore/include/linux/slab.h **** 
 158:/mnt/c/Users/31740/Desktop/newcore/include/linux/slab.h **** /* Flag to prevent checks on free */
 159:/mnt/c/Users/31740/Desktop/newcore/include/linux/slab.h **** #ifdef CONFIG_DEBUG_OBJECTS
 160:/mnt/c/Users/31740/Desktop/newcore/include/linux/slab.h **** # define SLAB_DEBUG_OBJECTS	__SLAB_FLAG_BIT(_SLAB_DEBUG_OBJECTS)
 161:/mnt/c/Users/31740/Desktop/newcore/include/linux/slab.h **** #else
 162:/mnt/c/Users/31740/Desktop/newcore/include/linux/slab.h **** # define SLAB_DEBUG_OBJECTS	__SLAB_FLAG_UNUSED
 163:/mnt/c/Users/31740/Desktop/newcore/include/linux/slab.h **** #endif
 164:/mnt/c/Users/31740/Desktop/newcore/include/linux/slab.h **** 
 165:/mnt/c/Users/31740/Desktop/newcore/include/linux/slab.h **** /* Avoid kmemleak tracing */
 166:/mnt/c/Users/31740/Desktop/newcore/include/linux/slab.h **** #define SLAB_NOLEAKTRACE	__SLAB_FLAG_BIT(_SLAB_NOLEAKTRACE)
 167:/mnt/c/Users/31740/Desktop/newcore/include/linux/slab.h **** 
 168:/mnt/c/Users/31740/Desktop/newcore/include/linux/slab.h **** /*
 169:/mnt/c/Users/31740/Desktop/newcore/include/linux/slab.h ****  * Prevent merging with compatible kmem caches. This flag should be used
 170:/mnt/c/Users/31740/Desktop/newcore/include/linux/slab.h ****  * cautiously. Valid use cases:
 171:/mnt/c/Users/31740/Desktop/newcore/include/linux/slab.h ****  *
 172:/mnt/c/Users/31740/Desktop/newcore/include/linux/slab.h ****  * - caches created for self-tests (e.g. kunit)
 173:/mnt/c/Users/31740/Desktop/newcore/include/linux/slab.h ****  * - general caches created and used by a subsystem, only when a
 174:/mnt/c/Users/31740/Desktop/newcore/include/linux/slab.h ****  *   (subsystem-specific) debug option is enabled
 175:/mnt/c/Users/31740/Desktop/newcore/include/linux/slab.h ****  * - performance critical caches, should be very rare and consulted with slab
 176:/mnt/c/Users/31740/Desktop/newcore/include/linux/slab.h ****  *   maintainers, and not used together with CONFIG_SLUB_TINY
 177:/mnt/c/Users/31740/Desktop/newcore/include/linux/slab.h ****  */
 178:/mnt/c/Users/31740/Desktop/newcore/include/linux/slab.h **** #define SLAB_NO_MERGE		__SLAB_FLAG_BIT(_SLAB_NO_MERGE)
 179:/mnt/c/Users/31740/Desktop/newcore/include/linux/slab.h **** 
 180:/mnt/c/Users/31740/Desktop/newcore/include/linux/slab.h **** /* Fault injection mark */
 181:/mnt/c/Users/31740/Desktop/newcore/include/linux/slab.h **** #ifdef CONFIG_FAILSLAB
 182:/mnt/c/Users/31740/Desktop/newcore/include/linux/slab.h **** # define SLAB_FAILSLAB		__SLAB_FLAG_BIT(_SLAB_FAILSLAB)
 183:/mnt/c/Users/31740/Desktop/newcore/include/linux/slab.h **** #else
 184:/mnt/c/Users/31740/Desktop/newcore/include/linux/slab.h **** # define SLAB_FAILSLAB		__SLAB_FLAG_UNUSED
 185:/mnt/c/Users/31740/Desktop/newcore/include/linux/slab.h **** #endif
 186:/mnt/c/Users/31740/Desktop/newcore/include/linux/slab.h **** /**
 187:/mnt/c/Users/31740/Desktop/newcore/include/linux/slab.h ****  * define SLAB_ACCOUNT - Account allocations to memcg.
 188:/mnt/c/Users/31740/Desktop/newcore/include/linux/slab.h ****  *
 189:/mnt/c/Users/31740/Desktop/newcore/include/linux/slab.h ****  * All object allocations from this cache will be memcg accounted, regardless of
 190:/mnt/c/Users/31740/Desktop/newcore/include/linux/slab.h ****  * __GFP_ACCOUNT being or not being passed to individual allocations.
 191:/mnt/c/Users/31740/Desktop/newcore/include/linux/slab.h ****  */
 192:/mnt/c/Users/31740/Desktop/newcore/include/linux/slab.h **** #ifdef CONFIG_MEMCG
 193:/mnt/c/Users/31740/Desktop/newcore/include/linux/slab.h **** # define SLAB_ACCOUNT		__SLAB_FLAG_BIT(_SLAB_ACCOUNT)
 194:/mnt/c/Users/31740/Desktop/newcore/include/linux/slab.h **** #else
 195:/mnt/c/Users/31740/Desktop/newcore/include/linux/slab.h **** # define SLAB_ACCOUNT		__SLAB_FLAG_UNUSED
 196:/mnt/c/Users/31740/Desktop/newcore/include/linux/slab.h **** #endif
 197:/mnt/c/Users/31740/Desktop/newcore/include/linux/slab.h **** 
 198:/mnt/c/Users/31740/Desktop/newcore/include/linux/slab.h **** #ifdef CONFIG_KASAN_GENERIC
 199:/mnt/c/Users/31740/Desktop/newcore/include/linux/slab.h **** #define SLAB_KASAN		__SLAB_FLAG_BIT(_SLAB_KASAN)
ARM GAS  /tmp/cczxpjuQ.s 			page 27


 200:/mnt/c/Users/31740/Desktop/newcore/include/linux/slab.h **** #else
 201:/mnt/c/Users/31740/Desktop/newcore/include/linux/slab.h **** #define SLAB_KASAN		__SLAB_FLAG_UNUSED
 202:/mnt/c/Users/31740/Desktop/newcore/include/linux/slab.h **** #endif
 203:/mnt/c/Users/31740/Desktop/newcore/include/linux/slab.h **** 
 204:/mnt/c/Users/31740/Desktop/newcore/include/linux/slab.h **** /*
 205:/mnt/c/Users/31740/Desktop/newcore/include/linux/slab.h ****  * Ignore user specified debugging flags.
 206:/mnt/c/Users/31740/Desktop/newcore/include/linux/slab.h ****  * Intended for caches created for self-tests so they have only flags
 207:/mnt/c/Users/31740/Desktop/newcore/include/linux/slab.h ****  * specified in the code and other flags are ignored.
 208:/mnt/c/Users/31740/Desktop/newcore/include/linux/slab.h ****  */
 209:/mnt/c/Users/31740/Desktop/newcore/include/linux/slab.h **** #define SLAB_NO_USER_FLAGS	__SLAB_FLAG_BIT(_SLAB_NO_USER_FLAGS)
 210:/mnt/c/Users/31740/Desktop/newcore/include/linux/slab.h **** 
 211:/mnt/c/Users/31740/Desktop/newcore/include/linux/slab.h **** #ifdef CONFIG_KFENCE
 212:/mnt/c/Users/31740/Desktop/newcore/include/linux/slab.h **** #define SLAB_SKIP_KFENCE	__SLAB_FLAG_BIT(_SLAB_SKIP_KFENCE)
 213:/mnt/c/Users/31740/Desktop/newcore/include/linux/slab.h **** #else
 214:/mnt/c/Users/31740/Desktop/newcore/include/linux/slab.h **** #define SLAB_SKIP_KFENCE	__SLAB_FLAG_UNUSED
 215:/mnt/c/Users/31740/Desktop/newcore/include/linux/slab.h **** #endif
 216:/mnt/c/Users/31740/Desktop/newcore/include/linux/slab.h **** 
 217:/mnt/c/Users/31740/Desktop/newcore/include/linux/slab.h **** /* The following flags affect the page allocator grouping pages by mobility */
 218:/mnt/c/Users/31740/Desktop/newcore/include/linux/slab.h **** /**
 219:/mnt/c/Users/31740/Desktop/newcore/include/linux/slab.h ****  * define SLAB_RECLAIM_ACCOUNT - Objects are reclaimable.
 220:/mnt/c/Users/31740/Desktop/newcore/include/linux/slab.h ****  *
 221:/mnt/c/Users/31740/Desktop/newcore/include/linux/slab.h ****  * Use this flag for caches that have an associated shrinker. As a result, slab
 222:/mnt/c/Users/31740/Desktop/newcore/include/linux/slab.h ****  * pages are allocated with __GFP_RECLAIMABLE, which affects grouping pages by
 223:/mnt/c/Users/31740/Desktop/newcore/include/linux/slab.h ****  * mobility, and are accounted in SReclaimable counter in /proc/meminfo
 224:/mnt/c/Users/31740/Desktop/newcore/include/linux/slab.h ****  */
 225:/mnt/c/Users/31740/Desktop/newcore/include/linux/slab.h **** #ifndef CONFIG_SLUB_TINY
 226:/mnt/c/Users/31740/Desktop/newcore/include/linux/slab.h **** #define SLAB_RECLAIM_ACCOUNT	__SLAB_FLAG_BIT(_SLAB_RECLAIM_ACCOUNT)
 227:/mnt/c/Users/31740/Desktop/newcore/include/linux/slab.h **** #else
 228:/mnt/c/Users/31740/Desktop/newcore/include/linux/slab.h **** #define SLAB_RECLAIM_ACCOUNT	__SLAB_FLAG_UNUSED
 229:/mnt/c/Users/31740/Desktop/newcore/include/linux/slab.h **** #endif
 230:/mnt/c/Users/31740/Desktop/newcore/include/linux/slab.h **** #define SLAB_TEMPORARY		SLAB_RECLAIM_ACCOUNT	/* Objects are short-lived */
 231:/mnt/c/Users/31740/Desktop/newcore/include/linux/slab.h **** 
 232:/mnt/c/Users/31740/Desktop/newcore/include/linux/slab.h **** /* Slab created using create_boot_cache */
 233:/mnt/c/Users/31740/Desktop/newcore/include/linux/slab.h **** #ifdef CONFIG_SLAB_OBJ_EXT
 234:/mnt/c/Users/31740/Desktop/newcore/include/linux/slab.h **** #define SLAB_NO_OBJ_EXT		__SLAB_FLAG_BIT(_SLAB_NO_OBJ_EXT)
 235:/mnt/c/Users/31740/Desktop/newcore/include/linux/slab.h **** #else
 236:/mnt/c/Users/31740/Desktop/newcore/include/linux/slab.h **** #define SLAB_NO_OBJ_EXT		__SLAB_FLAG_UNUSED
 237:/mnt/c/Users/31740/Desktop/newcore/include/linux/slab.h **** #endif
 238:/mnt/c/Users/31740/Desktop/newcore/include/linux/slab.h **** 
 239:/mnt/c/Users/31740/Desktop/newcore/include/linux/slab.h **** /*
 240:/mnt/c/Users/31740/Desktop/newcore/include/linux/slab.h ****  * freeptr_t represents a SLUB freelist pointer, which might be encoded
 241:/mnt/c/Users/31740/Desktop/newcore/include/linux/slab.h ****  * and not dereferenceable if CONFIG_SLAB_FREELIST_HARDENED is enabled.
 242:/mnt/c/Users/31740/Desktop/newcore/include/linux/slab.h ****  */
 243:/mnt/c/Users/31740/Desktop/newcore/include/linux/slab.h **** typedef struct { unsigned long v; } freeptr_t;
 244:/mnt/c/Users/31740/Desktop/newcore/include/linux/slab.h **** 
 245:/mnt/c/Users/31740/Desktop/newcore/include/linux/slab.h **** /*
 246:/mnt/c/Users/31740/Desktop/newcore/include/linux/slab.h ****  * ZERO_SIZE_PTR will be returned for zero sized kmalloc requests.
 247:/mnt/c/Users/31740/Desktop/newcore/include/linux/slab.h ****  *
 248:/mnt/c/Users/31740/Desktop/newcore/include/linux/slab.h ****  * Dereferencing ZERO_SIZE_PTR will lead to a distinct access fault.
 249:/mnt/c/Users/31740/Desktop/newcore/include/linux/slab.h ****  *
 250:/mnt/c/Users/31740/Desktop/newcore/include/linux/slab.h ****  * ZERO_SIZE_PTR can be passed to kfree though in the same way that NULL can.
 251:/mnt/c/Users/31740/Desktop/newcore/include/linux/slab.h ****  * Both make kfree a no-op.
 252:/mnt/c/Users/31740/Desktop/newcore/include/linux/slab.h ****  */
 253:/mnt/c/Users/31740/Desktop/newcore/include/linux/slab.h **** #define ZERO_SIZE_PTR ((void *)16)
 254:/mnt/c/Users/31740/Desktop/newcore/include/linux/slab.h **** 
 255:/mnt/c/Users/31740/Desktop/newcore/include/linux/slab.h **** #define ZERO_OR_NULL_PTR(x) ((unsigned long)(x) <= \
 256:/mnt/c/Users/31740/Desktop/newcore/include/linux/slab.h **** 				(unsigned long)ZERO_SIZE_PTR)
ARM GAS  /tmp/cczxpjuQ.s 			page 28


 257:/mnt/c/Users/31740/Desktop/newcore/include/linux/slab.h **** 
 258:/mnt/c/Users/31740/Desktop/newcore/include/linux/slab.h **** 
 259:/mnt/c/Users/31740/Desktop/newcore/include/linux/slab.h **** 
 260:/mnt/c/Users/31740/Desktop/newcore/include/linux/slab.h **** 
 261:/mnt/c/Users/31740/Desktop/newcore/include/linux/slab.h **** 
 262:/mnt/c/Users/31740/Desktop/newcore/include/linux/slab.h **** #ifdef CONFIG_SLUB_CPU_PARTIAL
 263:/mnt/c/Users/31740/Desktop/newcore/include/linux/slab.h **** #define slub_percpu_partial(c)			((c)->partial)
 264:/mnt/c/Users/31740/Desktop/newcore/include/linux/slab.h **** 
 265:/mnt/c/Users/31740/Desktop/newcore/include/linux/slab.h **** #define slub_set_percpu_partial(c, p)		\
 266:/mnt/c/Users/31740/Desktop/newcore/include/linux/slab.h **** ({						\
 267:/mnt/c/Users/31740/Desktop/newcore/include/linux/slab.h **** 	slub_percpu_partial(c) = (p)->next;	\
 268:/mnt/c/Users/31740/Desktop/newcore/include/linux/slab.h **** })
 269:/mnt/c/Users/31740/Desktop/newcore/include/linux/slab.h **** 
 270:/mnt/c/Users/31740/Desktop/newcore/include/linux/slab.h **** #define slub_percpu_partial_read_once(c)	READ_ONCE(slub_percpu_partial(c))
 271:/mnt/c/Users/31740/Desktop/newcore/include/linux/slab.h **** #else
 272:/mnt/c/Users/31740/Desktop/newcore/include/linux/slab.h **** #define slub_percpu_partial(c)			NULL
 273:/mnt/c/Users/31740/Desktop/newcore/include/linux/slab.h **** 
 274:/mnt/c/Users/31740/Desktop/newcore/include/linux/slab.h **** #define slub_set_percpu_partial(c, p)
 275:/mnt/c/Users/31740/Desktop/newcore/include/linux/slab.h **** 
 276:/mnt/c/Users/31740/Desktop/newcore/include/linux/slab.h **** #define slub_percpu_partial_read_once(c)	NULL
 277:/mnt/c/Users/31740/Desktop/newcore/include/linux/slab.h **** 
 278:/mnt/c/Users/31740/Desktop/newcore/include/linux/slab.h **** 
 279:/mnt/c/Users/31740/Desktop/newcore/include/linux/slab.h **** #endif // CONFIG_SLUB_CPU_PARTIAL
 280:/mnt/c/Users/31740/Desktop/newcore/include/linux/slab.h **** 
 281:/mnt/c/Users/31740/Desktop/newcore/include/linux/slab.h **** /*
 282:/mnt/c/Users/31740/Desktop/newcore/include/linux/slab.h **** 	* Word size structure that can be atomically updated or read and that
 283:/mnt/c/Users/31740/Desktop/newcore/include/linux/slab.h **** 	* contains both the order and the number of objects that a slab of the
 284:/mnt/c/Users/31740/Desktop/newcore/include/linux/slab.h **** 	* given order would contain.
 285:/mnt/c/Users/31740/Desktop/newcore/include/linux/slab.h **** 	*/				
 286:/mnt/c/Users/31740/Desktop/newcore/include/linux/slab.h **** struct kmem_cache_order_objects {
 287:/mnt/c/Users/31740/Desktop/newcore/include/linux/slab.h **** 	unsigned int x;
 288:/mnt/c/Users/31740/Desktop/newcore/include/linux/slab.h **** };
 289:/mnt/c/Users/31740/Desktop/newcore/include/linux/slab.h **** 
 290:/mnt/c/Users/31740/Desktop/newcore/include/linux/slab.h **** struct kmem_cache_node {
 291:/mnt/c/Users/31740/Desktop/newcore/include/linux/slab.h **** 	spinlock_t list_lock;
 292:/mnt/c/Users/31740/Desktop/newcore/include/linux/slab.h **** 	unsigned long nr_partial;
 293:/mnt/c/Users/31740/Desktop/newcore/include/linux/slab.h **** 	struct list_head partial;
 294:/mnt/c/Users/31740/Desktop/newcore/include/linux/slab.h **** #ifdef CONFIG_SLUB_DEBUG
 295:/mnt/c/Users/31740/Desktop/newcore/include/linux/slab.h **** 	atomic_long_t nr_slabs;
 296:/mnt/c/Users/31740/Desktop/newcore/include/linux/slab.h **** 	atomic_long_t total_objects;
 297:/mnt/c/Users/31740/Desktop/newcore/include/linux/slab.h **** 	struct list_head full;
 298:/mnt/c/Users/31740/Desktop/newcore/include/linux/slab.h **** #endif
 299:/mnt/c/Users/31740/Desktop/newcore/include/linux/slab.h **** };
 300:/mnt/c/Users/31740/Desktop/newcore/include/linux/slab.h **** 
 301:/mnt/c/Users/31740/Desktop/newcore/include/linux/slab.h **** struct kmem_cache {
 302:/mnt/c/Users/31740/Desktop/newcore/include/linux/slab.h **** 	#ifndef CONFIG_SLUB_TINY
 303:/mnt/c/Users/31740/Desktop/newcore/include/linux/slab.h **** 	//	struct kmem_cache_cpu __percpu *cpu_slab;
 304:/mnt/c/Users/31740/Desktop/newcore/include/linux/slab.h **** 	#endif
 305:/mnt/c/Users/31740/Desktop/newcore/include/linux/slab.h **** 		/* Used for retrieving partial slabs, etc. */
 306:/mnt/c/Users/31740/Desktop/newcore/include/linux/slab.h **** 		slab_flags_t flags;
 307:/mnt/c/Users/31740/Desktop/newcore/include/linux/slab.h **** 		unsigned long min_partial;
 308:/mnt/c/Users/31740/Desktop/newcore/include/linux/slab.h **** 		unsigned int size;		/* Object size including metadata */
 309:/mnt/c/Users/31740/Desktop/newcore/include/linux/slab.h **** 		unsigned int object_size;	/* Object size without metadata */
 310:/mnt/c/Users/31740/Desktop/newcore/include/linux/slab.h **** 		struct reciprocal_value reciprocal_size;
 311:/mnt/c/Users/31740/Desktop/newcore/include/linux/slab.h **** 		unsigned int offset;		/* Free pointer offset */
 312:/mnt/c/Users/31740/Desktop/newcore/include/linux/slab.h **** 	#ifdef CONFIG_SLUB_CPU_PARTIAL
 313:/mnt/c/Users/31740/Desktop/newcore/include/linux/slab.h **** 		/* Number of per cpu partial objects to keep around */
ARM GAS  /tmp/cczxpjuQ.s 			page 29


 314:/mnt/c/Users/31740/Desktop/newcore/include/linux/slab.h **** 		unsigned int cpu_partial;
 315:/mnt/c/Users/31740/Desktop/newcore/include/linux/slab.h **** 		/* Number of per cpu partial slabs to keep around */
 316:/mnt/c/Users/31740/Desktop/newcore/include/linux/slab.h **** 		unsigned int cpu_partial_slabs;
 317:/mnt/c/Users/31740/Desktop/newcore/include/linux/slab.h **** 	#endif
 318:/mnt/c/Users/31740/Desktop/newcore/include/linux/slab.h **** 		struct kmem_cache_order_objects oo;
 319:/mnt/c/Users/31740/Desktop/newcore/include/linux/slab.h **** 	
 320:/mnt/c/Users/31740/Desktop/newcore/include/linux/slab.h **** 		/* Allocation and freeing of slabs */
 321:/mnt/c/Users/31740/Desktop/newcore/include/linux/slab.h **** 		struct kmem_cache_order_objects min;
 322:/mnt/c/Users/31740/Desktop/newcore/include/linux/slab.h **** 		gfp_t allocflags;		/* gfp flags to use on each alloc */
 323:/mnt/c/Users/31740/Desktop/newcore/include/linux/slab.h **** 		int refcount;			/* Refcount for slab cache destroy */
 324:/mnt/c/Users/31740/Desktop/newcore/include/linux/slab.h **** 		void (*ctor)(void *object);	/* Object constructor */
 325:/mnt/c/Users/31740/Desktop/newcore/include/linux/slab.h **** 		unsigned int inuse;		/* Offset to metadata */
 326:/mnt/c/Users/31740/Desktop/newcore/include/linux/slab.h **** 		unsigned int align;		/* Alignment */
 327:/mnt/c/Users/31740/Desktop/newcore/include/linux/slab.h **** 		unsigned int red_left_pad;	/* Left redzone padding size */
 328:/mnt/c/Users/31740/Desktop/newcore/include/linux/slab.h **** 		const char *name;		/* Name (only for display!) */
 329:/mnt/c/Users/31740/Desktop/newcore/include/linux/slab.h **** 		struct list_head list;		/* List of slab caches */
 330:/mnt/c/Users/31740/Desktop/newcore/include/linux/slab.h **** 	#ifdef CONFIG_SYSFS
 331:/mnt/c/Users/31740/Desktop/newcore/include/linux/slab.h **** 		struct kobject kobj;		/* For sysfs */
 332:/mnt/c/Users/31740/Desktop/newcore/include/linux/slab.h **** 	#endif
 333:/mnt/c/Users/31740/Desktop/newcore/include/linux/slab.h **** 	#ifdef CONFIG_SLAB_FREELIST_HARDENED
 334:/mnt/c/Users/31740/Desktop/newcore/include/linux/slab.h **** 		unsigned long random;
 335:/mnt/c/Users/31740/Desktop/newcore/include/linux/slab.h **** 	#endif
 336:/mnt/c/Users/31740/Desktop/newcore/include/linux/slab.h **** 	
 337:/mnt/c/Users/31740/Desktop/newcore/include/linux/slab.h **** 	#ifdef CONFIG_NUMA
 338:/mnt/c/Users/31740/Desktop/newcore/include/linux/slab.h **** 		/*
 339:/mnt/c/Users/31740/Desktop/newcore/include/linux/slab.h **** 			* Defragmentation by allocating from a remote node.
 340:/mnt/c/Users/31740/Desktop/newcore/include/linux/slab.h **** 			*/
 341:/mnt/c/Users/31740/Desktop/newcore/include/linux/slab.h **** 		unsigned int remote_node_defrag_ratio;
 342:/mnt/c/Users/31740/Desktop/newcore/include/linux/slab.h **** 	#endif
 343:/mnt/c/Users/31740/Desktop/newcore/include/linux/slab.h **** 	
 344:/mnt/c/Users/31740/Desktop/newcore/include/linux/slab.h **** 	#ifdef CONFIG_SLAB_FREELIST_RANDOM
 345:/mnt/c/Users/31740/Desktop/newcore/include/linux/slab.h **** 		unsigned int *random_seq;
 346:/mnt/c/Users/31740/Desktop/newcore/include/linux/slab.h **** 	#endif
 347:/mnt/c/Users/31740/Desktop/newcore/include/linux/slab.h **** 	
 348:/mnt/c/Users/31740/Desktop/newcore/include/linux/slab.h **** 	#ifdef CONFIG_KASAN_GENERIC
 349:/mnt/c/Users/31740/Desktop/newcore/include/linux/slab.h **** 		struct kasan_cache kasan_info;
 350:/mnt/c/Users/31740/Desktop/newcore/include/linux/slab.h **** 	#endif
 351:/mnt/c/Users/31740/Desktop/newcore/include/linux/slab.h **** 	
 352:/mnt/c/Users/31740/Desktop/newcore/include/linux/slab.h **** 	#ifdef CONFIG_HARDENED_USERCOPY
 353:/mnt/c/Users/31740/Desktop/newcore/include/linux/slab.h **** 		unsigned int useroffset;	/* Usercopy region offset */
 354:/mnt/c/Users/31740/Desktop/newcore/include/linux/slab.h **** 		unsigned int usersize;		/* Usercopy region size */
 355:/mnt/c/Users/31740/Desktop/newcore/include/linux/slab.h **** 	#endif
 356:/mnt/c/Users/31740/Desktop/newcore/include/linux/slab.h **** 	
 357:/mnt/c/Users/31740/Desktop/newcore/include/linux/slab.h **** 		struct kmem_cache_node *node[MAX_NUMNODES];
 358:/mnt/c/Users/31740/Desktop/newcore/include/linux/slab.h **** 	};
 359:/mnt/c/Users/31740/Desktop/newcore/include/linux/slab.h **** 					
 360:/mnt/c/Users/31740/Desktop/newcore/include/linux/slab.h **** 
 361:/mnt/c/Users/31740/Desktop/newcore/include/linux/slab.h **** 
 362:/mnt/c/Users/31740/Desktop/newcore/include/linux/slab.h **** 
 363:/mnt/c/Users/31740/Desktop/newcore/include/linux/slab.h **** 
 364:/mnt/c/Users/31740/Desktop/newcore/include/linux/slab.h **** #define KMALLOC_WAIT 1
 365:/mnt/c/Users/31740/Desktop/newcore/include/linux/slab.h **** 
 366:/mnt/c/Users/31740/Desktop/newcore/include/linux/slab.h **** 
 367:/mnt/c/Users/31740/Desktop/newcore/include/linux/slab.h **** extern void* __smalloc__(u32 size, gfp_t flags);
 368:/mnt/c/Users/31740/Desktop/newcore/include/linux/slab.h **** extern void  __sfree__(void* addr);
 369:/mnt/c/Users/31740/Desktop/newcore/include/linux/slab.h **** 
 370:/mnt/c/Users/31740/Desktop/newcore/include/linux/slab.h **** 
ARM GAS  /tmp/cczxpjuQ.s 			page 30


 371:/mnt/c/Users/31740/Desktop/newcore/include/linux/slab.h **** static void inline *vmalloc(unsigned long size){
 372:/mnt/c/Users/31740/Desktop/newcore/include/linux/slab.h **** 	return __smalloc__(size,GFP_TRANSHUGE_LIGHT);
 373:/mnt/c/Users/31740/Desktop/newcore/include/linux/slab.h **** }
 374:/mnt/c/Users/31740/Desktop/newcore/include/linux/slab.h **** 
 375:/mnt/c/Users/31740/Desktop/newcore/include/linux/slab.h **** static void inline vfree(void *addr){
 376:/mnt/c/Users/31740/Desktop/newcore/include/linux/slab.h **** 	__sfree__(addr);
 377:/mnt/c/Users/31740/Desktop/newcore/include/linux/slab.h **** }
 378:/mnt/c/Users/31740/Desktop/newcore/include/linux/slab.h **** 
 379:/mnt/c/Users/31740/Desktop/newcore/include/linux/slab.h **** static void inline *kmalloc(size_t size, gfp_t flags){
 352              		.loc 5 379 21 view .LVU74
 353              	.LBB322:
 380:/mnt/c/Users/31740/Desktop/newcore/include/linux/slab.h **** 	return __smalloc__((u32)size,flags);
 354              		.loc 5 380 2 view .LVU75
 355              		.loc 5 380 9 is_stmt 0 view .LVU76
 356 0004 2020     		movs	r0, #32
 357              	.LVL27:
 358              		.loc 5 380 9 view .LVU77
 359 0006 FFF7FEFF 		bl	__smalloc__
 360              	.LVL28:
 361              		.loc 5 380 9 view .LVU78
 362              	.LBE322:
 363              	.LBE321:
 191:/mnt/c/Users/31740/Desktop/newcore/include/linux/mm_type.h ****         return NULL;
 364              		.loc 4 191 5 is_stmt 1 view .LVU79
 191:/mnt/c/Users/31740/Desktop/newcore/include/linux/mm_type.h ****         return NULL;
 365              		.loc 4 191 8 is_stmt 0 view .LVU80
 366 000a 0346     		mov	r3, r0
 367 000c 20B1     		cbz	r0, .L20
 193:/mnt/c/Users/31740/Desktop/newcore/include/linux/mm_type.h ****     atomic_set(&page->_mapcount, 0);
 368              		.loc 4 193 5 is_stmt 1 view .LVU81
 193:/mnt/c/Users/31740/Desktop/newcore/include/linux/mm_type.h ****     atomic_set(&page->_mapcount, 0);
 369              		.loc 4 193 17 is_stmt 0 view .LVU82
 370 000e 0022     		movs	r2, #0
 371 0010 0260     		str	r2, [r0]
 194:/mnt/c/Users/31740/Desktop/newcore/include/linux/mm_type.h ****     atomic_set(&page->_refcount, 0); 
 372              		.loc 4 194 5 is_stmt 1 view .LVU83
 373              	.LVL29:
 374              	.LBB323:
 375              	.LBI323:
 376              		.file 6 "/mnt/c/Users/31740/Desktop/newcore/include/linux/atomic/atomic-instrumented.h"
   1:/mnt/c/Users/31740/Desktop/newcore/include/linux/atomic/atomic-instrumented.h **** // SPDX-License-Identifier: GPL-2.0
   2:/mnt/c/Users/31740/Desktop/newcore/include/linux/atomic/atomic-instrumented.h **** 
   3:/mnt/c/Users/31740/Desktop/newcore/include/linux/atomic/atomic-instrumented.h **** // Generated by scripts/atomic/gen-atomic-instrumented.sh 
   4:/mnt/c/Users/31740/Desktop/newcore/include/linux/atomic/atomic-instrumented.h **** // DO NOT MODIFY THIS FILE DIRECTLY
   5:/mnt/c/Users/31740/Desktop/newcore/include/linux/atomic/atomic-instrumented.h **** 
   6:/mnt/c/Users/31740/Desktop/newcore/include/linux/atomic/atomic-instrumented.h **** /*
   7:/mnt/c/Users/31740/Desktop/newcore/include/linux/atomic/atomic-instrumented.h ****  * This file provoides atomic operations with explicit instrumentation (e.g.
   8:/mnt/c/Users/31740/Desktop/newcore/include/linux/atomic/atomic-instrumented.h ****  * KASAN, KCSAN), which should be used unless it is necessary to avoid
   9:/mnt/c/Users/31740/Desktop/newcore/include/linux/atomic/atomic-instrumented.h ****  * instrumentation. Where it is necessary to aovid instrumenation, the
  10:/mnt/c/Users/31740/Desktop/newcore/include/linux/atomic/atomic-instrumented.h ****  * raw_atomic*() operations should be used.
  11:/mnt/c/Users/31740/Desktop/newcore/include/linux/atomic/atomic-instrumented.h ****  */
  12:/mnt/c/Users/31740/Desktop/newcore/include/linux/atomic/atomic-instrumented.h **** #ifndef _LINUX_ATOMIC_INSTRUMENTED_H
  13:/mnt/c/Users/31740/Desktop/newcore/include/linux/atomic/atomic-instrumented.h **** #define _LINUX_ATOMIC_INSTRUMENTED_H
  14:/mnt/c/Users/31740/Desktop/newcore/include/linux/atomic/atomic-instrumented.h **** 
  15:/mnt/c/Users/31740/Desktop/newcore/include/linux/atomic/atomic-instrumented.h **** #include <linux/build_bug.h>
  16:/mnt/c/Users/31740/Desktop/newcore/include/linux/atomic/atomic-instrumented.h **** #include <linux/compiler.h>
  17:/mnt/c/Users/31740/Desktop/newcore/include/linux/atomic/atomic-instrumented.h **** #include <linux/instrumented.h>
ARM GAS  /tmp/cczxpjuQ.s 			page 31


  18:/mnt/c/Users/31740/Desktop/newcore/include/linux/atomic/atomic-instrumented.h **** 
  19:/mnt/c/Users/31740/Desktop/newcore/include/linux/atomic/atomic-instrumented.h **** /**
  20:/mnt/c/Users/31740/Desktop/newcore/include/linux/atomic/atomic-instrumented.h ****  * atomic_read() - atomic load with relaxed ordering
  21:/mnt/c/Users/31740/Desktop/newcore/include/linux/atomic/atomic-instrumented.h ****  * @v: pointer to atomic_t
  22:/mnt/c/Users/31740/Desktop/newcore/include/linux/atomic/atomic-instrumented.h ****  *
  23:/mnt/c/Users/31740/Desktop/newcore/include/linux/atomic/atomic-instrumented.h ****  * Atomically loads the value of @v with relaxed ordering.
  24:/mnt/c/Users/31740/Desktop/newcore/include/linux/atomic/atomic-instrumented.h ****  *
  25:/mnt/c/Users/31740/Desktop/newcore/include/linux/atomic/atomic-instrumented.h ****  * Unsafe to use in noinstr code; use raw_atomic_read() there.
  26:/mnt/c/Users/31740/Desktop/newcore/include/linux/atomic/atomic-instrumented.h ****  *
  27:/mnt/c/Users/31740/Desktop/newcore/include/linux/atomic/atomic-instrumented.h ****  * Return: The value loaded from @v.
  28:/mnt/c/Users/31740/Desktop/newcore/include/linux/atomic/atomic-instrumented.h ****  */
  29:/mnt/c/Users/31740/Desktop/newcore/include/linux/atomic/atomic-instrumented.h **** static __always_inline int
  30:/mnt/c/Users/31740/Desktop/newcore/include/linux/atomic/atomic-instrumented.h **** atomic_read(const atomic_t *v)
  31:/mnt/c/Users/31740/Desktop/newcore/include/linux/atomic/atomic-instrumented.h **** {
  32:/mnt/c/Users/31740/Desktop/newcore/include/linux/atomic/atomic-instrumented.h **** 	instrument_atomic_read(v, sizeof(*v));
  33:/mnt/c/Users/31740/Desktop/newcore/include/linux/atomic/atomic-instrumented.h **** 	return raw_atomic_read(v);
  34:/mnt/c/Users/31740/Desktop/newcore/include/linux/atomic/atomic-instrumented.h **** }
  35:/mnt/c/Users/31740/Desktop/newcore/include/linux/atomic/atomic-instrumented.h **** 
  36:/mnt/c/Users/31740/Desktop/newcore/include/linux/atomic/atomic-instrumented.h **** /**
  37:/mnt/c/Users/31740/Desktop/newcore/include/linux/atomic/atomic-instrumented.h ****  * atomic_read_acquire() - atomic load with acquire ordering
  38:/mnt/c/Users/31740/Desktop/newcore/include/linux/atomic/atomic-instrumented.h ****  * @v: pointer to atomic_t
  39:/mnt/c/Users/31740/Desktop/newcore/include/linux/atomic/atomic-instrumented.h ****  *
  40:/mnt/c/Users/31740/Desktop/newcore/include/linux/atomic/atomic-instrumented.h ****  * Atomically loads the value of @v with acquire ordering.
  41:/mnt/c/Users/31740/Desktop/newcore/include/linux/atomic/atomic-instrumented.h ****  *
  42:/mnt/c/Users/31740/Desktop/newcore/include/linux/atomic/atomic-instrumented.h ****  * Unsafe to use in noinstr code; use raw_atomic_read_acquire() there.
  43:/mnt/c/Users/31740/Desktop/newcore/include/linux/atomic/atomic-instrumented.h ****  *
  44:/mnt/c/Users/31740/Desktop/newcore/include/linux/atomic/atomic-instrumented.h ****  * Return: The value loaded from @v.
  45:/mnt/c/Users/31740/Desktop/newcore/include/linux/atomic/atomic-instrumented.h ****  */
  46:/mnt/c/Users/31740/Desktop/newcore/include/linux/atomic/atomic-instrumented.h **** static __always_inline int
  47:/mnt/c/Users/31740/Desktop/newcore/include/linux/atomic/atomic-instrumented.h **** atomic_read_acquire(const atomic_t *v)
  48:/mnt/c/Users/31740/Desktop/newcore/include/linux/atomic/atomic-instrumented.h **** {
  49:/mnt/c/Users/31740/Desktop/newcore/include/linux/atomic/atomic-instrumented.h **** 	instrument_atomic_read(v, sizeof(*v));
  50:/mnt/c/Users/31740/Desktop/newcore/include/linux/atomic/atomic-instrumented.h **** 	return raw_atomic_read_acquire(v);
  51:/mnt/c/Users/31740/Desktop/newcore/include/linux/atomic/atomic-instrumented.h **** }
  52:/mnt/c/Users/31740/Desktop/newcore/include/linux/atomic/atomic-instrumented.h **** 
  53:/mnt/c/Users/31740/Desktop/newcore/include/linux/atomic/atomic-instrumented.h **** /**
  54:/mnt/c/Users/31740/Desktop/newcore/include/linux/atomic/atomic-instrumented.h ****  * atomic_set() - atomic set with relaxed ordering
  55:/mnt/c/Users/31740/Desktop/newcore/include/linux/atomic/atomic-instrumented.h ****  * @v: pointer to atomic_t
  56:/mnt/c/Users/31740/Desktop/newcore/include/linux/atomic/atomic-instrumented.h ****  * @i: int value to assign
  57:/mnt/c/Users/31740/Desktop/newcore/include/linux/atomic/atomic-instrumented.h ****  *
  58:/mnt/c/Users/31740/Desktop/newcore/include/linux/atomic/atomic-instrumented.h ****  * Atomically sets @v to @i with relaxed ordering.
  59:/mnt/c/Users/31740/Desktop/newcore/include/linux/atomic/atomic-instrumented.h ****  *
  60:/mnt/c/Users/31740/Desktop/newcore/include/linux/atomic/atomic-instrumented.h ****  * Unsafe to use in noinstr code; use raw_atomic_set() there.
  61:/mnt/c/Users/31740/Desktop/newcore/include/linux/atomic/atomic-instrumented.h ****  *
  62:/mnt/c/Users/31740/Desktop/newcore/include/linux/atomic/atomic-instrumented.h ****  * Return: Nothing.
  63:/mnt/c/Users/31740/Desktop/newcore/include/linux/atomic/atomic-instrumented.h ****  */
  64:/mnt/c/Users/31740/Desktop/newcore/include/linux/atomic/atomic-instrumented.h **** static __always_inline void
  65:/mnt/c/Users/31740/Desktop/newcore/include/linux/atomic/atomic-instrumented.h **** atomic_set(atomic_t *v, int i)
 377              		.loc 6 65 1 view .LVU84
  66:/mnt/c/Users/31740/Desktop/newcore/include/linux/atomic/atomic-instrumented.h **** {
  67:/mnt/c/Users/31740/Desktop/newcore/include/linux/atomic/atomic-instrumented.h **** 	instrument_atomic_write(v, sizeof(*v));
 378              		.loc 6 67 2 view .LVU85
  68:/mnt/c/Users/31740/Desktop/newcore/include/linux/atomic/atomic-instrumented.h **** 	raw_atomic_set(v, i);
 379              		.loc 6 68 2 view .LVU86
 380              	.LBB324:
 381              	.LBI324:
 382              		.file 7 "/mnt/c/Users/31740/Desktop/newcore/include/linux/atomic/atomic-arch-fallback.h"
ARM GAS  /tmp/cczxpjuQ.s 			page 32


   1:/mnt/c/Users/31740/Desktop/newcore/include/linux/atomic/atomic-arch-fallback.h **** // SPDX-License-Identifier: GPL-2.0
   2:/mnt/c/Users/31740/Desktop/newcore/include/linux/atomic/atomic-arch-fallback.h **** 
   3:/mnt/c/Users/31740/Desktop/newcore/include/linux/atomic/atomic-arch-fallback.h **** // Generated by scripts/atomic/gen-atomic-fallback.sh
   4:/mnt/c/Users/31740/Desktop/newcore/include/linux/atomic/atomic-arch-fallback.h **** // DO NOT MODIFY THIS FILE DIRECTLY
   5:/mnt/c/Users/31740/Desktop/newcore/include/linux/atomic/atomic-arch-fallback.h **** 
   6:/mnt/c/Users/31740/Desktop/newcore/include/linux/atomic/atomic-arch-fallback.h **** #ifndef _LINUX_ATOMIC_FALLBACK_H
   7:/mnt/c/Users/31740/Desktop/newcore/include/linux/atomic/atomic-arch-fallback.h **** #define _LINUX_ATOMIC_FALLBACK_H
   8:/mnt/c/Users/31740/Desktop/newcore/include/linux/atomic/atomic-arch-fallback.h **** 
   9:/mnt/c/Users/31740/Desktop/newcore/include/linux/atomic/atomic-arch-fallback.h **** #include <linux/compiler.h>
  10:/mnt/c/Users/31740/Desktop/newcore/include/linux/atomic/atomic-arch-fallback.h **** 
  11:/mnt/c/Users/31740/Desktop/newcore/include/linux/atomic/atomic-arch-fallback.h **** #if defined(arch_xchg)
  12:/mnt/c/Users/31740/Desktop/newcore/include/linux/atomic/atomic-arch-fallback.h **** #define raw_xchg arch_xchg
  13:/mnt/c/Users/31740/Desktop/newcore/include/linux/atomic/atomic-arch-fallback.h **** #elif defined(arch_xchg_relaxed)
  14:/mnt/c/Users/31740/Desktop/newcore/include/linux/atomic/atomic-arch-fallback.h **** #define raw_xchg(...) \
  15:/mnt/c/Users/31740/Desktop/newcore/include/linux/atomic/atomic-arch-fallback.h **** 	__atomic_op_fence(arch_xchg, __VA_ARGS__)
  16:/mnt/c/Users/31740/Desktop/newcore/include/linux/atomic/atomic-arch-fallback.h **** #else
  17:/mnt/c/Users/31740/Desktop/newcore/include/linux/atomic/atomic-arch-fallback.h **** extern void raw_xchg_not_implemented(void);
  18:/mnt/c/Users/31740/Desktop/newcore/include/linux/atomic/atomic-arch-fallback.h **** #define raw_xchg(...) raw_xchg_not_implemented()
  19:/mnt/c/Users/31740/Desktop/newcore/include/linux/atomic/atomic-arch-fallback.h **** #endif
  20:/mnt/c/Users/31740/Desktop/newcore/include/linux/atomic/atomic-arch-fallback.h **** 
  21:/mnt/c/Users/31740/Desktop/newcore/include/linux/atomic/atomic-arch-fallback.h **** #if defined(arch_xchg_acquire)
  22:/mnt/c/Users/31740/Desktop/newcore/include/linux/atomic/atomic-arch-fallback.h **** #define raw_xchg_acquire arch_xchg_acquire
  23:/mnt/c/Users/31740/Desktop/newcore/include/linux/atomic/atomic-arch-fallback.h **** #elif defined(arch_xchg_relaxed)
  24:/mnt/c/Users/31740/Desktop/newcore/include/linux/atomic/atomic-arch-fallback.h **** #define raw_xchg_acquire(...) \
  25:/mnt/c/Users/31740/Desktop/newcore/include/linux/atomic/atomic-arch-fallback.h **** 	__atomic_op_acquire(arch_xchg, __VA_ARGS__)
  26:/mnt/c/Users/31740/Desktop/newcore/include/linux/atomic/atomic-arch-fallback.h **** #elif defined(arch_xchg)
  27:/mnt/c/Users/31740/Desktop/newcore/include/linux/atomic/atomic-arch-fallback.h **** #define raw_xchg_acquire arch_xchg
  28:/mnt/c/Users/31740/Desktop/newcore/include/linux/atomic/atomic-arch-fallback.h **** #else
  29:/mnt/c/Users/31740/Desktop/newcore/include/linux/atomic/atomic-arch-fallback.h **** extern void raw_xchg_acquire_not_implemented(void);
  30:/mnt/c/Users/31740/Desktop/newcore/include/linux/atomic/atomic-arch-fallback.h **** #define raw_xchg_acquire(...) raw_xchg_acquire_not_implemented()
  31:/mnt/c/Users/31740/Desktop/newcore/include/linux/atomic/atomic-arch-fallback.h **** #endif
  32:/mnt/c/Users/31740/Desktop/newcore/include/linux/atomic/atomic-arch-fallback.h **** 
  33:/mnt/c/Users/31740/Desktop/newcore/include/linux/atomic/atomic-arch-fallback.h **** #if defined(arch_xchg_release)
  34:/mnt/c/Users/31740/Desktop/newcore/include/linux/atomic/atomic-arch-fallback.h **** #define raw_xchg_release arch_xchg_release
  35:/mnt/c/Users/31740/Desktop/newcore/include/linux/atomic/atomic-arch-fallback.h **** #elif defined(arch_xchg_relaxed)
  36:/mnt/c/Users/31740/Desktop/newcore/include/linux/atomic/atomic-arch-fallback.h **** #define raw_xchg_release(...) \
  37:/mnt/c/Users/31740/Desktop/newcore/include/linux/atomic/atomic-arch-fallback.h **** 	__atomic_op_release(arch_xchg, __VA_ARGS__)
  38:/mnt/c/Users/31740/Desktop/newcore/include/linux/atomic/atomic-arch-fallback.h **** #elif defined(arch_xchg)
  39:/mnt/c/Users/31740/Desktop/newcore/include/linux/atomic/atomic-arch-fallback.h **** #define raw_xchg_release arch_xchg
  40:/mnt/c/Users/31740/Desktop/newcore/include/linux/atomic/atomic-arch-fallback.h **** #else
  41:/mnt/c/Users/31740/Desktop/newcore/include/linux/atomic/atomic-arch-fallback.h **** extern void raw_xchg_release_not_implemented(void);
  42:/mnt/c/Users/31740/Desktop/newcore/include/linux/atomic/atomic-arch-fallback.h **** #define raw_xchg_release(...) raw_xchg_release_not_implemented()
  43:/mnt/c/Users/31740/Desktop/newcore/include/linux/atomic/atomic-arch-fallback.h **** #endif
  44:/mnt/c/Users/31740/Desktop/newcore/include/linux/atomic/atomic-arch-fallback.h **** 
  45:/mnt/c/Users/31740/Desktop/newcore/include/linux/atomic/atomic-arch-fallback.h **** #if defined(arch_xchg_relaxed)
  46:/mnt/c/Users/31740/Desktop/newcore/include/linux/atomic/atomic-arch-fallback.h **** #define raw_xchg_relaxed arch_xchg_relaxed
  47:/mnt/c/Users/31740/Desktop/newcore/include/linux/atomic/atomic-arch-fallback.h **** #elif defined(arch_xchg)
  48:/mnt/c/Users/31740/Desktop/newcore/include/linux/atomic/atomic-arch-fallback.h **** #define raw_xchg_relaxed arch_xchg
  49:/mnt/c/Users/31740/Desktop/newcore/include/linux/atomic/atomic-arch-fallback.h **** #else
  50:/mnt/c/Users/31740/Desktop/newcore/include/linux/atomic/atomic-arch-fallback.h **** extern void raw_xchg_relaxed_not_implemented(void);
  51:/mnt/c/Users/31740/Desktop/newcore/include/linux/atomic/atomic-arch-fallback.h **** #define raw_xchg_relaxed(...) raw_xchg_relaxed_not_implemented()
  52:/mnt/c/Users/31740/Desktop/newcore/include/linux/atomic/atomic-arch-fallback.h **** #endif
  53:/mnt/c/Users/31740/Desktop/newcore/include/linux/atomic/atomic-arch-fallback.h **** 
  54:/mnt/c/Users/31740/Desktop/newcore/include/linux/atomic/atomic-arch-fallback.h **** #if defined(arch_cmpxchg)
  55:/mnt/c/Users/31740/Desktop/newcore/include/linux/atomic/atomic-arch-fallback.h **** #define raw_cmpxchg arch_cmpxchg
  56:/mnt/c/Users/31740/Desktop/newcore/include/linux/atomic/atomic-arch-fallback.h **** #elif defined(arch_cmpxchg_relaxed)
  57:/mnt/c/Users/31740/Desktop/newcore/include/linux/atomic/atomic-arch-fallback.h **** #define raw_cmpxchg(...) \
ARM GAS  /tmp/cczxpjuQ.s 			page 33


  58:/mnt/c/Users/31740/Desktop/newcore/include/linux/atomic/atomic-arch-fallback.h **** 	__atomic_op_fence(arch_cmpxchg, __VA_ARGS__)
  59:/mnt/c/Users/31740/Desktop/newcore/include/linux/atomic/atomic-arch-fallback.h **** #else
  60:/mnt/c/Users/31740/Desktop/newcore/include/linux/atomic/atomic-arch-fallback.h **** extern void raw_cmpxchg_not_implemented(void);
  61:/mnt/c/Users/31740/Desktop/newcore/include/linux/atomic/atomic-arch-fallback.h **** #define raw_cmpxchg(...) raw_cmpxchg_not_implemented()
  62:/mnt/c/Users/31740/Desktop/newcore/include/linux/atomic/atomic-arch-fallback.h **** #endif
  63:/mnt/c/Users/31740/Desktop/newcore/include/linux/atomic/atomic-arch-fallback.h **** 
  64:/mnt/c/Users/31740/Desktop/newcore/include/linux/atomic/atomic-arch-fallback.h **** #if defined(arch_cmpxchg_acquire)
  65:/mnt/c/Users/31740/Desktop/newcore/include/linux/atomic/atomic-arch-fallback.h **** #define raw_cmpxchg_acquire arch_cmpxchg_acquire
  66:/mnt/c/Users/31740/Desktop/newcore/include/linux/atomic/atomic-arch-fallback.h **** #elif defined(arch_cmpxchg_relaxed)
  67:/mnt/c/Users/31740/Desktop/newcore/include/linux/atomic/atomic-arch-fallback.h **** #define raw_cmpxchg_acquire(...) \
  68:/mnt/c/Users/31740/Desktop/newcore/include/linux/atomic/atomic-arch-fallback.h **** 	__atomic_op_acquire(arch_cmpxchg, __VA_ARGS__)
  69:/mnt/c/Users/31740/Desktop/newcore/include/linux/atomic/atomic-arch-fallback.h **** #elif defined(arch_cmpxchg)
  70:/mnt/c/Users/31740/Desktop/newcore/include/linux/atomic/atomic-arch-fallback.h **** #define raw_cmpxchg_acquire arch_cmpxchg
  71:/mnt/c/Users/31740/Desktop/newcore/include/linux/atomic/atomic-arch-fallback.h **** #else
  72:/mnt/c/Users/31740/Desktop/newcore/include/linux/atomic/atomic-arch-fallback.h **** extern void raw_cmpxchg_acquire_not_implemented(void);
  73:/mnt/c/Users/31740/Desktop/newcore/include/linux/atomic/atomic-arch-fallback.h **** #define raw_cmpxchg_acquire(...) raw_cmpxchg_acquire_not_implemented()
  74:/mnt/c/Users/31740/Desktop/newcore/include/linux/atomic/atomic-arch-fallback.h **** #endif
  75:/mnt/c/Users/31740/Desktop/newcore/include/linux/atomic/atomic-arch-fallback.h **** 
  76:/mnt/c/Users/31740/Desktop/newcore/include/linux/atomic/atomic-arch-fallback.h **** #if defined(arch_cmpxchg_release)
  77:/mnt/c/Users/31740/Desktop/newcore/include/linux/atomic/atomic-arch-fallback.h **** #define raw_cmpxchg_release arch_cmpxchg_release
  78:/mnt/c/Users/31740/Desktop/newcore/include/linux/atomic/atomic-arch-fallback.h **** #elif defined(arch_cmpxchg_relaxed)
  79:/mnt/c/Users/31740/Desktop/newcore/include/linux/atomic/atomic-arch-fallback.h **** #define raw_cmpxchg_release(...) \
  80:/mnt/c/Users/31740/Desktop/newcore/include/linux/atomic/atomic-arch-fallback.h **** 	__atomic_op_release(arch_cmpxchg, __VA_ARGS__)
  81:/mnt/c/Users/31740/Desktop/newcore/include/linux/atomic/atomic-arch-fallback.h **** #elif defined(arch_cmpxchg)
  82:/mnt/c/Users/31740/Desktop/newcore/include/linux/atomic/atomic-arch-fallback.h **** #define raw_cmpxchg_release arch_cmpxchg
  83:/mnt/c/Users/31740/Desktop/newcore/include/linux/atomic/atomic-arch-fallback.h **** #else
  84:/mnt/c/Users/31740/Desktop/newcore/include/linux/atomic/atomic-arch-fallback.h **** extern void raw_cmpxchg_release_not_implemented(void);
  85:/mnt/c/Users/31740/Desktop/newcore/include/linux/atomic/atomic-arch-fallback.h **** #define raw_cmpxchg_release(...) raw_cmpxchg_release_not_implemented()
  86:/mnt/c/Users/31740/Desktop/newcore/include/linux/atomic/atomic-arch-fallback.h **** #endif
  87:/mnt/c/Users/31740/Desktop/newcore/include/linux/atomic/atomic-arch-fallback.h **** 
  88:/mnt/c/Users/31740/Desktop/newcore/include/linux/atomic/atomic-arch-fallback.h **** #if defined(arch_cmpxchg_relaxed)
  89:/mnt/c/Users/31740/Desktop/newcore/include/linux/atomic/atomic-arch-fallback.h **** #define raw_cmpxchg_relaxed arch_cmpxchg_relaxed
  90:/mnt/c/Users/31740/Desktop/newcore/include/linux/atomic/atomic-arch-fallback.h **** #elif defined(arch_cmpxchg)
  91:/mnt/c/Users/31740/Desktop/newcore/include/linux/atomic/atomic-arch-fallback.h **** #define raw_cmpxchg_relaxed arch_cmpxchg
  92:/mnt/c/Users/31740/Desktop/newcore/include/linux/atomic/atomic-arch-fallback.h **** #else
  93:/mnt/c/Users/31740/Desktop/newcore/include/linux/atomic/atomic-arch-fallback.h **** extern void raw_cmpxchg_relaxed_not_implemented(void);
  94:/mnt/c/Users/31740/Desktop/newcore/include/linux/atomic/atomic-arch-fallback.h **** #define raw_cmpxchg_relaxed(...) raw_cmpxchg_relaxed_not_implemented()
  95:/mnt/c/Users/31740/Desktop/newcore/include/linux/atomic/atomic-arch-fallback.h **** #endif
  96:/mnt/c/Users/31740/Desktop/newcore/include/linux/atomic/atomic-arch-fallback.h **** 
  97:/mnt/c/Users/31740/Desktop/newcore/include/linux/atomic/atomic-arch-fallback.h **** #if defined(arch_cmpxchg64)
  98:/mnt/c/Users/31740/Desktop/newcore/include/linux/atomic/atomic-arch-fallback.h **** #define raw_cmpxchg64 arch_cmpxchg64
  99:/mnt/c/Users/31740/Desktop/newcore/include/linux/atomic/atomic-arch-fallback.h **** #elif defined(arch_cmpxchg64_relaxed)
 100:/mnt/c/Users/31740/Desktop/newcore/include/linux/atomic/atomic-arch-fallback.h **** #define raw_cmpxchg64(...) \
 101:/mnt/c/Users/31740/Desktop/newcore/include/linux/atomic/atomic-arch-fallback.h **** 	__atomic_op_fence(arch_cmpxchg64, __VA_ARGS__)
 102:/mnt/c/Users/31740/Desktop/newcore/include/linux/atomic/atomic-arch-fallback.h **** #else
 103:/mnt/c/Users/31740/Desktop/newcore/include/linux/atomic/atomic-arch-fallback.h **** extern void raw_cmpxchg64_not_implemented(void);
 104:/mnt/c/Users/31740/Desktop/newcore/include/linux/atomic/atomic-arch-fallback.h **** #define raw_cmpxchg64(...) raw_cmpxchg64_not_implemented()
 105:/mnt/c/Users/31740/Desktop/newcore/include/linux/atomic/atomic-arch-fallback.h **** #endif
 106:/mnt/c/Users/31740/Desktop/newcore/include/linux/atomic/atomic-arch-fallback.h **** 
 107:/mnt/c/Users/31740/Desktop/newcore/include/linux/atomic/atomic-arch-fallback.h **** #if defined(arch_cmpxchg64_acquire)
 108:/mnt/c/Users/31740/Desktop/newcore/include/linux/atomic/atomic-arch-fallback.h **** #define raw_cmpxchg64_acquire arch_cmpxchg64_acquire
 109:/mnt/c/Users/31740/Desktop/newcore/include/linux/atomic/atomic-arch-fallback.h **** #elif defined(arch_cmpxchg64_relaxed)
 110:/mnt/c/Users/31740/Desktop/newcore/include/linux/atomic/atomic-arch-fallback.h **** #define raw_cmpxchg64_acquire(...) \
 111:/mnt/c/Users/31740/Desktop/newcore/include/linux/atomic/atomic-arch-fallback.h **** 	__atomic_op_acquire(arch_cmpxchg64, __VA_ARGS__)
 112:/mnt/c/Users/31740/Desktop/newcore/include/linux/atomic/atomic-arch-fallback.h **** #elif defined(arch_cmpxchg64)
 113:/mnt/c/Users/31740/Desktop/newcore/include/linux/atomic/atomic-arch-fallback.h **** #define raw_cmpxchg64_acquire arch_cmpxchg64
 114:/mnt/c/Users/31740/Desktop/newcore/include/linux/atomic/atomic-arch-fallback.h **** #else
ARM GAS  /tmp/cczxpjuQ.s 			page 34


 115:/mnt/c/Users/31740/Desktop/newcore/include/linux/atomic/atomic-arch-fallback.h **** extern void raw_cmpxchg64_acquire_not_implemented(void);
 116:/mnt/c/Users/31740/Desktop/newcore/include/linux/atomic/atomic-arch-fallback.h **** #define raw_cmpxchg64_acquire(...) raw_cmpxchg64_acquire_not_implemented()
 117:/mnt/c/Users/31740/Desktop/newcore/include/linux/atomic/atomic-arch-fallback.h **** #endif
 118:/mnt/c/Users/31740/Desktop/newcore/include/linux/atomic/atomic-arch-fallback.h **** 
 119:/mnt/c/Users/31740/Desktop/newcore/include/linux/atomic/atomic-arch-fallback.h **** #if defined(arch_cmpxchg64_release)
 120:/mnt/c/Users/31740/Desktop/newcore/include/linux/atomic/atomic-arch-fallback.h **** #define raw_cmpxchg64_release arch_cmpxchg64_release
 121:/mnt/c/Users/31740/Desktop/newcore/include/linux/atomic/atomic-arch-fallback.h **** #elif defined(arch_cmpxchg64_relaxed)
 122:/mnt/c/Users/31740/Desktop/newcore/include/linux/atomic/atomic-arch-fallback.h **** #define raw_cmpxchg64_release(...) \
 123:/mnt/c/Users/31740/Desktop/newcore/include/linux/atomic/atomic-arch-fallback.h **** 	__atomic_op_release(arch_cmpxchg64, __VA_ARGS__)
 124:/mnt/c/Users/31740/Desktop/newcore/include/linux/atomic/atomic-arch-fallback.h **** #elif defined(arch_cmpxchg64)
 125:/mnt/c/Users/31740/Desktop/newcore/include/linux/atomic/atomic-arch-fallback.h **** #define raw_cmpxchg64_release arch_cmpxchg64
 126:/mnt/c/Users/31740/Desktop/newcore/include/linux/atomic/atomic-arch-fallback.h **** #else
 127:/mnt/c/Users/31740/Desktop/newcore/include/linux/atomic/atomic-arch-fallback.h **** extern void raw_cmpxchg64_release_not_implemented(void);
 128:/mnt/c/Users/31740/Desktop/newcore/include/linux/atomic/atomic-arch-fallback.h **** #define raw_cmpxchg64_release(...) raw_cmpxchg64_release_not_implemented()
 129:/mnt/c/Users/31740/Desktop/newcore/include/linux/atomic/atomic-arch-fallback.h **** #endif
 130:/mnt/c/Users/31740/Desktop/newcore/include/linux/atomic/atomic-arch-fallback.h **** 
 131:/mnt/c/Users/31740/Desktop/newcore/include/linux/atomic/atomic-arch-fallback.h **** #if defined(arch_cmpxchg64_relaxed)
 132:/mnt/c/Users/31740/Desktop/newcore/include/linux/atomic/atomic-arch-fallback.h **** #define raw_cmpxchg64_relaxed arch_cmpxchg64_relaxed
 133:/mnt/c/Users/31740/Desktop/newcore/include/linux/atomic/atomic-arch-fallback.h **** #elif defined(arch_cmpxchg64)
 134:/mnt/c/Users/31740/Desktop/newcore/include/linux/atomic/atomic-arch-fallback.h **** #define raw_cmpxchg64_relaxed arch_cmpxchg64
 135:/mnt/c/Users/31740/Desktop/newcore/include/linux/atomic/atomic-arch-fallback.h **** #else
 136:/mnt/c/Users/31740/Desktop/newcore/include/linux/atomic/atomic-arch-fallback.h **** extern void raw_cmpxchg64_relaxed_not_implemented(void);
 137:/mnt/c/Users/31740/Desktop/newcore/include/linux/atomic/atomic-arch-fallback.h **** #define raw_cmpxchg64_relaxed(...) raw_cmpxchg64_relaxed_not_implemented()
 138:/mnt/c/Users/31740/Desktop/newcore/include/linux/atomic/atomic-arch-fallback.h **** #endif
 139:/mnt/c/Users/31740/Desktop/newcore/include/linux/atomic/atomic-arch-fallback.h **** 
 140:/mnt/c/Users/31740/Desktop/newcore/include/linux/atomic/atomic-arch-fallback.h **** #if defined(arch_cmpxchg128)
 141:/mnt/c/Users/31740/Desktop/newcore/include/linux/atomic/atomic-arch-fallback.h **** #define raw_cmpxchg128 arch_cmpxchg128
 142:/mnt/c/Users/31740/Desktop/newcore/include/linux/atomic/atomic-arch-fallback.h **** #elif defined(arch_cmpxchg128_relaxed)
 143:/mnt/c/Users/31740/Desktop/newcore/include/linux/atomic/atomic-arch-fallback.h **** #define raw_cmpxchg128(...) \
 144:/mnt/c/Users/31740/Desktop/newcore/include/linux/atomic/atomic-arch-fallback.h **** 	__atomic_op_fence(arch_cmpxchg128, __VA_ARGS__)
 145:/mnt/c/Users/31740/Desktop/newcore/include/linux/atomic/atomic-arch-fallback.h **** #else
 146:/mnt/c/Users/31740/Desktop/newcore/include/linux/atomic/atomic-arch-fallback.h **** extern void raw_cmpxchg128_not_implemented(void);
 147:/mnt/c/Users/31740/Desktop/newcore/include/linux/atomic/atomic-arch-fallback.h **** #define raw_cmpxchg128(...) raw_cmpxchg128_not_implemented()
 148:/mnt/c/Users/31740/Desktop/newcore/include/linux/atomic/atomic-arch-fallback.h **** #endif
 149:/mnt/c/Users/31740/Desktop/newcore/include/linux/atomic/atomic-arch-fallback.h **** 
 150:/mnt/c/Users/31740/Desktop/newcore/include/linux/atomic/atomic-arch-fallback.h **** #if defined(arch_cmpxchg128_acquire)
 151:/mnt/c/Users/31740/Desktop/newcore/include/linux/atomic/atomic-arch-fallback.h **** #define raw_cmpxchg128_acquire arch_cmpxchg128_acquire
 152:/mnt/c/Users/31740/Desktop/newcore/include/linux/atomic/atomic-arch-fallback.h **** #elif defined(arch_cmpxchg128_relaxed)
 153:/mnt/c/Users/31740/Desktop/newcore/include/linux/atomic/atomic-arch-fallback.h **** #define raw_cmpxchg128_acquire(...) \
 154:/mnt/c/Users/31740/Desktop/newcore/include/linux/atomic/atomic-arch-fallback.h **** 	__atomic_op_acquire(arch_cmpxchg128, __VA_ARGS__)
 155:/mnt/c/Users/31740/Desktop/newcore/include/linux/atomic/atomic-arch-fallback.h **** #elif defined(arch_cmpxchg128)
 156:/mnt/c/Users/31740/Desktop/newcore/include/linux/atomic/atomic-arch-fallback.h **** #define raw_cmpxchg128_acquire arch_cmpxchg128
 157:/mnt/c/Users/31740/Desktop/newcore/include/linux/atomic/atomic-arch-fallback.h **** #else
 158:/mnt/c/Users/31740/Desktop/newcore/include/linux/atomic/atomic-arch-fallback.h **** extern void raw_cmpxchg128_acquire_not_implemented(void);
 159:/mnt/c/Users/31740/Desktop/newcore/include/linux/atomic/atomic-arch-fallback.h **** #define raw_cmpxchg128_acquire(...) raw_cmpxchg128_acquire_not_implemented()
 160:/mnt/c/Users/31740/Desktop/newcore/include/linux/atomic/atomic-arch-fallback.h **** #endif
 161:/mnt/c/Users/31740/Desktop/newcore/include/linux/atomic/atomic-arch-fallback.h **** 
 162:/mnt/c/Users/31740/Desktop/newcore/include/linux/atomic/atomic-arch-fallback.h **** #if defined(arch_cmpxchg128_release)
 163:/mnt/c/Users/31740/Desktop/newcore/include/linux/atomic/atomic-arch-fallback.h **** #define raw_cmpxchg128_release arch_cmpxchg128_release
 164:/mnt/c/Users/31740/Desktop/newcore/include/linux/atomic/atomic-arch-fallback.h **** #elif defined(arch_cmpxchg128_relaxed)
 165:/mnt/c/Users/31740/Desktop/newcore/include/linux/atomic/atomic-arch-fallback.h **** #define raw_cmpxchg128_release(...) \
 166:/mnt/c/Users/31740/Desktop/newcore/include/linux/atomic/atomic-arch-fallback.h **** 	__atomic_op_release(arch_cmpxchg128, __VA_ARGS__)
 167:/mnt/c/Users/31740/Desktop/newcore/include/linux/atomic/atomic-arch-fallback.h **** #elif defined(arch_cmpxchg128)
 168:/mnt/c/Users/31740/Desktop/newcore/include/linux/atomic/atomic-arch-fallback.h **** #define raw_cmpxchg128_release arch_cmpxchg128
 169:/mnt/c/Users/31740/Desktop/newcore/include/linux/atomic/atomic-arch-fallback.h **** #else
 170:/mnt/c/Users/31740/Desktop/newcore/include/linux/atomic/atomic-arch-fallback.h **** extern void raw_cmpxchg128_release_not_implemented(void);
 171:/mnt/c/Users/31740/Desktop/newcore/include/linux/atomic/atomic-arch-fallback.h **** #define raw_cmpxchg128_release(...) raw_cmpxchg128_release_not_implemented()
ARM GAS  /tmp/cczxpjuQ.s 			page 35


 172:/mnt/c/Users/31740/Desktop/newcore/include/linux/atomic/atomic-arch-fallback.h **** #endif
 173:/mnt/c/Users/31740/Desktop/newcore/include/linux/atomic/atomic-arch-fallback.h **** 
 174:/mnt/c/Users/31740/Desktop/newcore/include/linux/atomic/atomic-arch-fallback.h **** #if defined(arch_cmpxchg128_relaxed)
 175:/mnt/c/Users/31740/Desktop/newcore/include/linux/atomic/atomic-arch-fallback.h **** #define raw_cmpxchg128_relaxed arch_cmpxchg128_relaxed
 176:/mnt/c/Users/31740/Desktop/newcore/include/linux/atomic/atomic-arch-fallback.h **** #elif defined(arch_cmpxchg128)
 177:/mnt/c/Users/31740/Desktop/newcore/include/linux/atomic/atomic-arch-fallback.h **** #define raw_cmpxchg128_relaxed arch_cmpxchg128
 178:/mnt/c/Users/31740/Desktop/newcore/include/linux/atomic/atomic-arch-fallback.h **** #else
 179:/mnt/c/Users/31740/Desktop/newcore/include/linux/atomic/atomic-arch-fallback.h **** extern void raw_cmpxchg128_relaxed_not_implemented(void);
 180:/mnt/c/Users/31740/Desktop/newcore/include/linux/atomic/atomic-arch-fallback.h **** #define raw_cmpxchg128_relaxed(...) raw_cmpxchg128_relaxed_not_implemented()
 181:/mnt/c/Users/31740/Desktop/newcore/include/linux/atomic/atomic-arch-fallback.h **** #endif
 182:/mnt/c/Users/31740/Desktop/newcore/include/linux/atomic/atomic-arch-fallback.h **** 
 183:/mnt/c/Users/31740/Desktop/newcore/include/linux/atomic/atomic-arch-fallback.h **** 
 184:/mnt/c/Users/31740/Desktop/newcore/include/linux/atomic/atomic-arch-fallback.h **** 
 185:/mnt/c/Users/31740/Desktop/newcore/include/linux/atomic/atomic-arch-fallback.h **** 
 186:/mnt/c/Users/31740/Desktop/newcore/include/linux/atomic/atomic-arch-fallback.h **** 
 187:/mnt/c/Users/31740/Desktop/newcore/include/linux/atomic/atomic-arch-fallback.h **** 
 188:/mnt/c/Users/31740/Desktop/newcore/include/linux/atomic/atomic-arch-fallback.h **** 
 189:/mnt/c/Users/31740/Desktop/newcore/include/linux/atomic/atomic-arch-fallback.h **** #if defined(arch_try_cmpxchg)
 190:/mnt/c/Users/31740/Desktop/newcore/include/linux/atomic/atomic-arch-fallback.h **** #define raw_try_cmpxchg arch_try_cmpxchg
 191:/mnt/c/Users/31740/Desktop/newcore/include/linux/atomic/atomic-arch-fallback.h **** #elif defined(arch_try_cmpxchg_relaxed)
 192:/mnt/c/Users/31740/Desktop/newcore/include/linux/atomic/atomic-arch-fallback.h **** #define raw_try_cmpxchg(...) \
 193:/mnt/c/Users/31740/Desktop/newcore/include/linux/atomic/atomic-arch-fallback.h **** 	__atomic_op_fence(arch_try_cmpxchg, __VA_ARGS__)
 194:/mnt/c/Users/31740/Desktop/newcore/include/linux/atomic/atomic-arch-fallback.h **** #else
 195:/mnt/c/Users/31740/Desktop/newcore/include/linux/atomic/atomic-arch-fallback.h **** #define raw_try_cmpxchg(_ptr, _oldp, _new) \
 196:/mnt/c/Users/31740/Desktop/newcore/include/linux/atomic/atomic-arch-fallback.h **** ({ \
 197:/mnt/c/Users/31740/Desktop/newcore/include/linux/atomic/atomic-arch-fallback.h **** 	typeof(*(_ptr)) *___op = (_oldp), ___o = *___op, ___r; \
 198:/mnt/c/Users/31740/Desktop/newcore/include/linux/atomic/atomic-arch-fallback.h **** 	___r = raw_cmpxchg((_ptr), ___o, (_new)); \
 199:/mnt/c/Users/31740/Desktop/newcore/include/linux/atomic/atomic-arch-fallback.h **** 	if (unlikely(___r != ___o)) \
 200:/mnt/c/Users/31740/Desktop/newcore/include/linux/atomic/atomic-arch-fallback.h **** 		*___op = ___r; \
 201:/mnt/c/Users/31740/Desktop/newcore/include/linux/atomic/atomic-arch-fallback.h **** 	likely(___r == ___o); \
 202:/mnt/c/Users/31740/Desktop/newcore/include/linux/atomic/atomic-arch-fallback.h **** })
 203:/mnt/c/Users/31740/Desktop/newcore/include/linux/atomic/atomic-arch-fallback.h **** #endif
 204:/mnt/c/Users/31740/Desktop/newcore/include/linux/atomic/atomic-arch-fallback.h **** 
 205:/mnt/c/Users/31740/Desktop/newcore/include/linux/atomic/atomic-arch-fallback.h **** #if defined(arch_try_cmpxchg_acquire)
 206:/mnt/c/Users/31740/Desktop/newcore/include/linux/atomic/atomic-arch-fallback.h **** #define raw_try_cmpxchg_acquire arch_try_cmpxchg_acquire
 207:/mnt/c/Users/31740/Desktop/newcore/include/linux/atomic/atomic-arch-fallback.h **** #elif defined(arch_try_cmpxchg_relaxed)
 208:/mnt/c/Users/31740/Desktop/newcore/include/linux/atomic/atomic-arch-fallback.h **** #define raw_try_cmpxchg_acquire(...) \
 209:/mnt/c/Users/31740/Desktop/newcore/include/linux/atomic/atomic-arch-fallback.h **** 	__atomic_op_acquire(arch_try_cmpxchg, __VA_ARGS__)
 210:/mnt/c/Users/31740/Desktop/newcore/include/linux/atomic/atomic-arch-fallback.h **** #elif defined(arch_try_cmpxchg)
 211:/mnt/c/Users/31740/Desktop/newcore/include/linux/atomic/atomic-arch-fallback.h **** #define raw_try_cmpxchg_acquire arch_try_cmpxchg
 212:/mnt/c/Users/31740/Desktop/newcore/include/linux/atomic/atomic-arch-fallback.h **** #else
 213:/mnt/c/Users/31740/Desktop/newcore/include/linux/atomic/atomic-arch-fallback.h **** #define raw_try_cmpxchg_acquire(_ptr, _oldp, _new) \
 214:/mnt/c/Users/31740/Desktop/newcore/include/linux/atomic/atomic-arch-fallback.h **** ({ \
 215:/mnt/c/Users/31740/Desktop/newcore/include/linux/atomic/atomic-arch-fallback.h **** 	typeof(*(_ptr)) *___op = (_oldp), ___o = *___op, ___r; \
 216:/mnt/c/Users/31740/Desktop/newcore/include/linux/atomic/atomic-arch-fallback.h **** 	___r = raw_cmpxchg_acquire((_ptr), ___o, (_new)); \
 217:/mnt/c/Users/31740/Desktop/newcore/include/linux/atomic/atomic-arch-fallback.h **** 	if (unlikely(___r != ___o)) \
 218:/mnt/c/Users/31740/Desktop/newcore/include/linux/atomic/atomic-arch-fallback.h **** 		*___op = ___r; \
 219:/mnt/c/Users/31740/Desktop/newcore/include/linux/atomic/atomic-arch-fallback.h **** 	likely(___r == ___o); \
 220:/mnt/c/Users/31740/Desktop/newcore/include/linux/atomic/atomic-arch-fallback.h **** })
 221:/mnt/c/Users/31740/Desktop/newcore/include/linux/atomic/atomic-arch-fallback.h **** #endif
 222:/mnt/c/Users/31740/Desktop/newcore/include/linux/atomic/atomic-arch-fallback.h **** 
 223:/mnt/c/Users/31740/Desktop/newcore/include/linux/atomic/atomic-arch-fallback.h **** #if defined(arch_try_cmpxchg_release)
 224:/mnt/c/Users/31740/Desktop/newcore/include/linux/atomic/atomic-arch-fallback.h **** #define raw_try_cmpxchg_release arch_try_cmpxchg_release
 225:/mnt/c/Users/31740/Desktop/newcore/include/linux/atomic/atomic-arch-fallback.h **** #elif defined(arch_try_cmpxchg_relaxed)
 226:/mnt/c/Users/31740/Desktop/newcore/include/linux/atomic/atomic-arch-fallback.h **** #define raw_try_cmpxchg_release(...) \
 227:/mnt/c/Users/31740/Desktop/newcore/include/linux/atomic/atomic-arch-fallback.h **** 	__atomic_op_release(arch_try_cmpxchg, __VA_ARGS__)
 228:/mnt/c/Users/31740/Desktop/newcore/include/linux/atomic/atomic-arch-fallback.h **** #elif defined(arch_try_cmpxchg)
ARM GAS  /tmp/cczxpjuQ.s 			page 36


 229:/mnt/c/Users/31740/Desktop/newcore/include/linux/atomic/atomic-arch-fallback.h **** #define raw_try_cmpxchg_release arch_try_cmpxchg
 230:/mnt/c/Users/31740/Desktop/newcore/include/linux/atomic/atomic-arch-fallback.h **** #else
 231:/mnt/c/Users/31740/Desktop/newcore/include/linux/atomic/atomic-arch-fallback.h **** #define raw_try_cmpxchg_release(_ptr, _oldp, _new) \
 232:/mnt/c/Users/31740/Desktop/newcore/include/linux/atomic/atomic-arch-fallback.h **** ({ \
 233:/mnt/c/Users/31740/Desktop/newcore/include/linux/atomic/atomic-arch-fallback.h **** 	typeof(*(_ptr)) *___op = (_oldp), ___o = *___op, ___r; \
 234:/mnt/c/Users/31740/Desktop/newcore/include/linux/atomic/atomic-arch-fallback.h **** 	___r = raw_cmpxchg_release((_ptr), ___o, (_new)); \
 235:/mnt/c/Users/31740/Desktop/newcore/include/linux/atomic/atomic-arch-fallback.h **** 	if (unlikely(___r != ___o)) \
 236:/mnt/c/Users/31740/Desktop/newcore/include/linux/atomic/atomic-arch-fallback.h **** 		*___op = ___r; \
 237:/mnt/c/Users/31740/Desktop/newcore/include/linux/atomic/atomic-arch-fallback.h **** 	likely(___r == ___o); \
 238:/mnt/c/Users/31740/Desktop/newcore/include/linux/atomic/atomic-arch-fallback.h **** })
 239:/mnt/c/Users/31740/Desktop/newcore/include/linux/atomic/atomic-arch-fallback.h **** #endif
 240:/mnt/c/Users/31740/Desktop/newcore/include/linux/atomic/atomic-arch-fallback.h **** 
 241:/mnt/c/Users/31740/Desktop/newcore/include/linux/atomic/atomic-arch-fallback.h **** #if defined(arch_try_cmpxchg_relaxed)
 242:/mnt/c/Users/31740/Desktop/newcore/include/linux/atomic/atomic-arch-fallback.h **** #define raw_try_cmpxchg_relaxed arch_try_cmpxchg_relaxed
 243:/mnt/c/Users/31740/Desktop/newcore/include/linux/atomic/atomic-arch-fallback.h **** #elif defined(arch_try_cmpxchg)
 244:/mnt/c/Users/31740/Desktop/newcore/include/linux/atomic/atomic-arch-fallback.h **** #define raw_try_cmpxchg_relaxed arch_try_cmpxchg
 245:/mnt/c/Users/31740/Desktop/newcore/include/linux/atomic/atomic-arch-fallback.h **** #else
 246:/mnt/c/Users/31740/Desktop/newcore/include/linux/atomic/atomic-arch-fallback.h **** #define raw_try_cmpxchg_relaxed(_ptr, _oldp, _new) \
 247:/mnt/c/Users/31740/Desktop/newcore/include/linux/atomic/atomic-arch-fallback.h **** ({ \
 248:/mnt/c/Users/31740/Desktop/newcore/include/linux/atomic/atomic-arch-fallback.h **** 	typeof(*(_ptr)) *___op = (_oldp), ___o = *___op, ___r; \
 249:/mnt/c/Users/31740/Desktop/newcore/include/linux/atomic/atomic-arch-fallback.h **** 	___r = raw_cmpxchg_relaxed((_ptr), ___o, (_new)); \
 250:/mnt/c/Users/31740/Desktop/newcore/include/linux/atomic/atomic-arch-fallback.h **** 	if (unlikely(___r != ___o)) \
 251:/mnt/c/Users/31740/Desktop/newcore/include/linux/atomic/atomic-arch-fallback.h **** 		*___op = ___r; \
 252:/mnt/c/Users/31740/Desktop/newcore/include/linux/atomic/atomic-arch-fallback.h **** 	likely(___r == ___o); \
 253:/mnt/c/Users/31740/Desktop/newcore/include/linux/atomic/atomic-arch-fallback.h **** })
 254:/mnt/c/Users/31740/Desktop/newcore/include/linux/atomic/atomic-arch-fallback.h **** #endif
 255:/mnt/c/Users/31740/Desktop/newcore/include/linux/atomic/atomic-arch-fallback.h **** 
 256:/mnt/c/Users/31740/Desktop/newcore/include/linux/atomic/atomic-arch-fallback.h **** #if defined(arch_try_cmpxchg64)
 257:/mnt/c/Users/31740/Desktop/newcore/include/linux/atomic/atomic-arch-fallback.h **** #define raw_try_cmpxchg64 arch_try_cmpxchg64
 258:/mnt/c/Users/31740/Desktop/newcore/include/linux/atomic/atomic-arch-fallback.h **** #elif defined(arch_try_cmpxchg64_relaxed)
 259:/mnt/c/Users/31740/Desktop/newcore/include/linux/atomic/atomic-arch-fallback.h **** #define raw_try_cmpxchg64(...) \
 260:/mnt/c/Users/31740/Desktop/newcore/include/linux/atomic/atomic-arch-fallback.h **** 	__atomic_op_fence(arch_try_cmpxchg64, __VA_ARGS__)
 261:/mnt/c/Users/31740/Desktop/newcore/include/linux/atomic/atomic-arch-fallback.h **** #else
 262:/mnt/c/Users/31740/Desktop/newcore/include/linux/atomic/atomic-arch-fallback.h **** #define raw_try_cmpxchg64(_ptr, _oldp, _new) \
 263:/mnt/c/Users/31740/Desktop/newcore/include/linux/atomic/atomic-arch-fallback.h **** ({ \
 264:/mnt/c/Users/31740/Desktop/newcore/include/linux/atomic/atomic-arch-fallback.h **** 	typeof(*(_ptr)) *___op = (_oldp), ___o = *___op, ___r; \
 265:/mnt/c/Users/31740/Desktop/newcore/include/linux/atomic/atomic-arch-fallback.h **** 	___r = raw_cmpxchg64((_ptr), ___o, (_new)); \
 266:/mnt/c/Users/31740/Desktop/newcore/include/linux/atomic/atomic-arch-fallback.h **** 	if (unlikely(___r != ___o)) \
 267:/mnt/c/Users/31740/Desktop/newcore/include/linux/atomic/atomic-arch-fallback.h **** 		*___op = ___r; \
 268:/mnt/c/Users/31740/Desktop/newcore/include/linux/atomic/atomic-arch-fallback.h **** 	likely(___r == ___o); \
 269:/mnt/c/Users/31740/Desktop/newcore/include/linux/atomic/atomic-arch-fallback.h **** })
 270:/mnt/c/Users/31740/Desktop/newcore/include/linux/atomic/atomic-arch-fallback.h **** #endif
 271:/mnt/c/Users/31740/Desktop/newcore/include/linux/atomic/atomic-arch-fallback.h **** 
 272:/mnt/c/Users/31740/Desktop/newcore/include/linux/atomic/atomic-arch-fallback.h **** #if defined(arch_try_cmpxchg64_acquire)
 273:/mnt/c/Users/31740/Desktop/newcore/include/linux/atomic/atomic-arch-fallback.h **** #define raw_try_cmpxchg64_acquire arch_try_cmpxchg64_acquire
 274:/mnt/c/Users/31740/Desktop/newcore/include/linux/atomic/atomic-arch-fallback.h **** #elif defined(arch_try_cmpxchg64_relaxed)
 275:/mnt/c/Users/31740/Desktop/newcore/include/linux/atomic/atomic-arch-fallback.h **** #define raw_try_cmpxchg64_acquire(...) \
 276:/mnt/c/Users/31740/Desktop/newcore/include/linux/atomic/atomic-arch-fallback.h **** 	__atomic_op_acquire(arch_try_cmpxchg64, __VA_ARGS__)
 277:/mnt/c/Users/31740/Desktop/newcore/include/linux/atomic/atomic-arch-fallback.h **** #elif defined(arch_try_cmpxchg64)
 278:/mnt/c/Users/31740/Desktop/newcore/include/linux/atomic/atomic-arch-fallback.h **** #define raw_try_cmpxchg64_acquire arch_try_cmpxchg64
 279:/mnt/c/Users/31740/Desktop/newcore/include/linux/atomic/atomic-arch-fallback.h **** #else
 280:/mnt/c/Users/31740/Desktop/newcore/include/linux/atomic/atomic-arch-fallback.h **** #define raw_try_cmpxchg64_acquire(_ptr, _oldp, _new) \
 281:/mnt/c/Users/31740/Desktop/newcore/include/linux/atomic/atomic-arch-fallback.h **** ({ \
 282:/mnt/c/Users/31740/Desktop/newcore/include/linux/atomic/atomic-arch-fallback.h **** 	typeof(*(_ptr)) *___op = (_oldp), ___o = *___op, ___r; \
 283:/mnt/c/Users/31740/Desktop/newcore/include/linux/atomic/atomic-arch-fallback.h **** 	___r = raw_cmpxchg64_acquire((_ptr), ___o, (_new)); \
 284:/mnt/c/Users/31740/Desktop/newcore/include/linux/atomic/atomic-arch-fallback.h **** 	if (unlikely(___r != ___o)) \
 285:/mnt/c/Users/31740/Desktop/newcore/include/linux/atomic/atomic-arch-fallback.h **** 		*___op = ___r; \
ARM GAS  /tmp/cczxpjuQ.s 			page 37


 286:/mnt/c/Users/31740/Desktop/newcore/include/linux/atomic/atomic-arch-fallback.h **** 	likely(___r == ___o); \
 287:/mnt/c/Users/31740/Desktop/newcore/include/linux/atomic/atomic-arch-fallback.h **** })
 288:/mnt/c/Users/31740/Desktop/newcore/include/linux/atomic/atomic-arch-fallback.h **** #endif
 289:/mnt/c/Users/31740/Desktop/newcore/include/linux/atomic/atomic-arch-fallback.h **** 
 290:/mnt/c/Users/31740/Desktop/newcore/include/linux/atomic/atomic-arch-fallback.h **** #if defined(arch_try_cmpxchg64_release)
 291:/mnt/c/Users/31740/Desktop/newcore/include/linux/atomic/atomic-arch-fallback.h **** #define raw_try_cmpxchg64_release arch_try_cmpxchg64_release
 292:/mnt/c/Users/31740/Desktop/newcore/include/linux/atomic/atomic-arch-fallback.h **** #elif defined(arch_try_cmpxchg64_relaxed)
 293:/mnt/c/Users/31740/Desktop/newcore/include/linux/atomic/atomic-arch-fallback.h **** #define raw_try_cmpxchg64_release(...) \
 294:/mnt/c/Users/31740/Desktop/newcore/include/linux/atomic/atomic-arch-fallback.h **** 	__atomic_op_release(arch_try_cmpxchg64, __VA_ARGS__)
 295:/mnt/c/Users/31740/Desktop/newcore/include/linux/atomic/atomic-arch-fallback.h **** #elif defined(arch_try_cmpxchg64)
 296:/mnt/c/Users/31740/Desktop/newcore/include/linux/atomic/atomic-arch-fallback.h **** #define raw_try_cmpxchg64_release arch_try_cmpxchg64
 297:/mnt/c/Users/31740/Desktop/newcore/include/linux/atomic/atomic-arch-fallback.h **** #else
 298:/mnt/c/Users/31740/Desktop/newcore/include/linux/atomic/atomic-arch-fallback.h **** #define raw_try_cmpxchg64_release(_ptr, _oldp, _new) \
 299:/mnt/c/Users/31740/Desktop/newcore/include/linux/atomic/atomic-arch-fallback.h **** ({ \
 300:/mnt/c/Users/31740/Desktop/newcore/include/linux/atomic/atomic-arch-fallback.h **** 	typeof(*(_ptr)) *___op = (_oldp), ___o = *___op, ___r; \
 301:/mnt/c/Users/31740/Desktop/newcore/include/linux/atomic/atomic-arch-fallback.h **** 	___r = raw_cmpxchg64_release((_ptr), ___o, (_new)); \
 302:/mnt/c/Users/31740/Desktop/newcore/include/linux/atomic/atomic-arch-fallback.h **** 	if (unlikely(___r != ___o)) \
 303:/mnt/c/Users/31740/Desktop/newcore/include/linux/atomic/atomic-arch-fallback.h **** 		*___op = ___r; \
 304:/mnt/c/Users/31740/Desktop/newcore/include/linux/atomic/atomic-arch-fallback.h **** 	likely(___r == ___o); \
 305:/mnt/c/Users/31740/Desktop/newcore/include/linux/atomic/atomic-arch-fallback.h **** })
 306:/mnt/c/Users/31740/Desktop/newcore/include/linux/atomic/atomic-arch-fallback.h **** #endif
 307:/mnt/c/Users/31740/Desktop/newcore/include/linux/atomic/atomic-arch-fallback.h **** 
 308:/mnt/c/Users/31740/Desktop/newcore/include/linux/atomic/atomic-arch-fallback.h **** #if defined(arch_try_cmpxchg64_relaxed)
 309:/mnt/c/Users/31740/Desktop/newcore/include/linux/atomic/atomic-arch-fallback.h **** #define raw_try_cmpxchg64_relaxed arch_try_cmpxchg64_relaxed
 310:/mnt/c/Users/31740/Desktop/newcore/include/linux/atomic/atomic-arch-fallback.h **** #elif defined(arch_try_cmpxchg64)
 311:/mnt/c/Users/31740/Desktop/newcore/include/linux/atomic/atomic-arch-fallback.h **** #define raw_try_cmpxchg64_relaxed arch_try_cmpxchg64
 312:/mnt/c/Users/31740/Desktop/newcore/include/linux/atomic/atomic-arch-fallback.h **** #else
 313:/mnt/c/Users/31740/Desktop/newcore/include/linux/atomic/atomic-arch-fallback.h **** #define raw_try_cmpxchg64_relaxed(_ptr, _oldp, _new) \
 314:/mnt/c/Users/31740/Desktop/newcore/include/linux/atomic/atomic-arch-fallback.h **** ({ \
 315:/mnt/c/Users/31740/Desktop/newcore/include/linux/atomic/atomic-arch-fallback.h **** 	typeof(*(_ptr)) *___op = (_oldp), ___o = *___op, ___r; \
 316:/mnt/c/Users/31740/Desktop/newcore/include/linux/atomic/atomic-arch-fallback.h **** 	___r = raw_cmpxchg64_relaxed((_ptr), ___o, (_new)); \
 317:/mnt/c/Users/31740/Desktop/newcore/include/linux/atomic/atomic-arch-fallback.h **** 	if (unlikely(___r != ___o)) \
 318:/mnt/c/Users/31740/Desktop/newcore/include/linux/atomic/atomic-arch-fallback.h **** 		*___op = ___r; \
 319:/mnt/c/Users/31740/Desktop/newcore/include/linux/atomic/atomic-arch-fallback.h **** 	likely(___r == ___o); \
 320:/mnt/c/Users/31740/Desktop/newcore/include/linux/atomic/atomic-arch-fallback.h **** })
 321:/mnt/c/Users/31740/Desktop/newcore/include/linux/atomic/atomic-arch-fallback.h **** #endif
 322:/mnt/c/Users/31740/Desktop/newcore/include/linux/atomic/atomic-arch-fallback.h **** 
 323:/mnt/c/Users/31740/Desktop/newcore/include/linux/atomic/atomic-arch-fallback.h **** #if defined(arch_try_cmpxchg128)
 324:/mnt/c/Users/31740/Desktop/newcore/include/linux/atomic/atomic-arch-fallback.h **** #define raw_try_cmpxchg128 arch_try_cmpxchg128
 325:/mnt/c/Users/31740/Desktop/newcore/include/linux/atomic/atomic-arch-fallback.h **** #elif defined(arch_try_cmpxchg128_relaxed)
 326:/mnt/c/Users/31740/Desktop/newcore/include/linux/atomic/atomic-arch-fallback.h **** #define raw_try_cmpxchg128(...) \
 327:/mnt/c/Users/31740/Desktop/newcore/include/linux/atomic/atomic-arch-fallback.h **** 	__atomic_op_fence(arch_try_cmpxchg128, __VA_ARGS__)
 328:/mnt/c/Users/31740/Desktop/newcore/include/linux/atomic/atomic-arch-fallback.h **** #else
 329:/mnt/c/Users/31740/Desktop/newcore/include/linux/atomic/atomic-arch-fallback.h **** #define raw_try_cmpxchg128(_ptr, _oldp, _new) \
 330:/mnt/c/Users/31740/Desktop/newcore/include/linux/atomic/atomic-arch-fallback.h **** ({ \
 331:/mnt/c/Users/31740/Desktop/newcore/include/linux/atomic/atomic-arch-fallback.h **** 	typeof(*(_ptr)) *___op = (_oldp), ___o = *___op, ___r; \
 332:/mnt/c/Users/31740/Desktop/newcore/include/linux/atomic/atomic-arch-fallback.h **** 	___r = raw_cmpxchg128((_ptr), ___o, (_new)); \
 333:/mnt/c/Users/31740/Desktop/newcore/include/linux/atomic/atomic-arch-fallback.h **** 	if (unlikely(___r != ___o)) \
 334:/mnt/c/Users/31740/Desktop/newcore/include/linux/atomic/atomic-arch-fallback.h **** 		*___op = ___r; \
 335:/mnt/c/Users/31740/Desktop/newcore/include/linux/atomic/atomic-arch-fallback.h **** 	likely(___r == ___o); \
 336:/mnt/c/Users/31740/Desktop/newcore/include/linux/atomic/atomic-arch-fallback.h **** })
 337:/mnt/c/Users/31740/Desktop/newcore/include/linux/atomic/atomic-arch-fallback.h **** #endif
 338:/mnt/c/Users/31740/Desktop/newcore/include/linux/atomic/atomic-arch-fallback.h **** 
 339:/mnt/c/Users/31740/Desktop/newcore/include/linux/atomic/atomic-arch-fallback.h **** #if defined(arch_try_cmpxchg128_acquire)
 340:/mnt/c/Users/31740/Desktop/newcore/include/linux/atomic/atomic-arch-fallback.h **** #define raw_try_cmpxchg128_acquire arch_try_cmpxchg128_acquire
 341:/mnt/c/Users/31740/Desktop/newcore/include/linux/atomic/atomic-arch-fallback.h **** #elif defined(arch_try_cmpxchg128_relaxed)
 342:/mnt/c/Users/31740/Desktop/newcore/include/linux/atomic/atomic-arch-fallback.h **** #define raw_try_cmpxchg128_acquire(...) \
ARM GAS  /tmp/cczxpjuQ.s 			page 38


 343:/mnt/c/Users/31740/Desktop/newcore/include/linux/atomic/atomic-arch-fallback.h **** 	__atomic_op_acquire(arch_try_cmpxchg128, __VA_ARGS__)
 344:/mnt/c/Users/31740/Desktop/newcore/include/linux/atomic/atomic-arch-fallback.h **** #elif defined(arch_try_cmpxchg128)
 345:/mnt/c/Users/31740/Desktop/newcore/include/linux/atomic/atomic-arch-fallback.h **** #define raw_try_cmpxchg128_acquire arch_try_cmpxchg128
 346:/mnt/c/Users/31740/Desktop/newcore/include/linux/atomic/atomic-arch-fallback.h **** #else
 347:/mnt/c/Users/31740/Desktop/newcore/include/linux/atomic/atomic-arch-fallback.h **** #define raw_try_cmpxchg128_acquire(_ptr, _oldp, _new) \
 348:/mnt/c/Users/31740/Desktop/newcore/include/linux/atomic/atomic-arch-fallback.h **** ({ \
 349:/mnt/c/Users/31740/Desktop/newcore/include/linux/atomic/atomic-arch-fallback.h **** 	typeof(*(_ptr)) *___op = (_oldp), ___o = *___op, ___r; \
 350:/mnt/c/Users/31740/Desktop/newcore/include/linux/atomic/atomic-arch-fallback.h **** 	___r = raw_cmpxchg128_acquire((_ptr), ___o, (_new)); \
 351:/mnt/c/Users/31740/Desktop/newcore/include/linux/atomic/atomic-arch-fallback.h **** 	if (unlikely(___r != ___o)) \
 352:/mnt/c/Users/31740/Desktop/newcore/include/linux/atomic/atomic-arch-fallback.h **** 		*___op = ___r; \
 353:/mnt/c/Users/31740/Desktop/newcore/include/linux/atomic/atomic-arch-fallback.h **** 	likely(___r == ___o); \
 354:/mnt/c/Users/31740/Desktop/newcore/include/linux/atomic/atomic-arch-fallback.h **** })
 355:/mnt/c/Users/31740/Desktop/newcore/include/linux/atomic/atomic-arch-fallback.h **** #endif
 356:/mnt/c/Users/31740/Desktop/newcore/include/linux/atomic/atomic-arch-fallback.h **** 
 357:/mnt/c/Users/31740/Desktop/newcore/include/linux/atomic/atomic-arch-fallback.h **** #if defined(arch_try_cmpxchg128_release)
 358:/mnt/c/Users/31740/Desktop/newcore/include/linux/atomic/atomic-arch-fallback.h **** #define raw_try_cmpxchg128_release arch_try_cmpxchg128_release
 359:/mnt/c/Users/31740/Desktop/newcore/include/linux/atomic/atomic-arch-fallback.h **** #elif defined(arch_try_cmpxchg128_relaxed)
 360:/mnt/c/Users/31740/Desktop/newcore/include/linux/atomic/atomic-arch-fallback.h **** #define raw_try_cmpxchg128_release(...) \
 361:/mnt/c/Users/31740/Desktop/newcore/include/linux/atomic/atomic-arch-fallback.h **** 	__atomic_op_release(arch_try_cmpxchg128, __VA_ARGS__)
 362:/mnt/c/Users/31740/Desktop/newcore/include/linux/atomic/atomic-arch-fallback.h **** #elif defined(arch_try_cmpxchg128)
 363:/mnt/c/Users/31740/Desktop/newcore/include/linux/atomic/atomic-arch-fallback.h **** #define raw_try_cmpxchg128_release arch_try_cmpxchg128
 364:/mnt/c/Users/31740/Desktop/newcore/include/linux/atomic/atomic-arch-fallback.h **** #else
 365:/mnt/c/Users/31740/Desktop/newcore/include/linux/atomic/atomic-arch-fallback.h **** #define raw_try_cmpxchg128_release(_ptr, _oldp, _new) \
 366:/mnt/c/Users/31740/Desktop/newcore/include/linux/atomic/atomic-arch-fallback.h **** ({ \
 367:/mnt/c/Users/31740/Desktop/newcore/include/linux/atomic/atomic-arch-fallback.h **** 	typeof(*(_ptr)) *___op = (_oldp), ___o = *___op, ___r; \
 368:/mnt/c/Users/31740/Desktop/newcore/include/linux/atomic/atomic-arch-fallback.h **** 	___r = raw_cmpxchg128_release((_ptr), ___o, (_new)); \
 369:/mnt/c/Users/31740/Desktop/newcore/include/linux/atomic/atomic-arch-fallback.h **** 	if (unlikely(___r != ___o)) \
 370:/mnt/c/Users/31740/Desktop/newcore/include/linux/atomic/atomic-arch-fallback.h **** 		*___op = ___r; \
 371:/mnt/c/Users/31740/Desktop/newcore/include/linux/atomic/atomic-arch-fallback.h **** 	likely(___r == ___o); \
 372:/mnt/c/Users/31740/Desktop/newcore/include/linux/atomic/atomic-arch-fallback.h **** })
 373:/mnt/c/Users/31740/Desktop/newcore/include/linux/atomic/atomic-arch-fallback.h **** #endif
 374:/mnt/c/Users/31740/Desktop/newcore/include/linux/atomic/atomic-arch-fallback.h **** 
 375:/mnt/c/Users/31740/Desktop/newcore/include/linux/atomic/atomic-arch-fallback.h **** #if defined(arch_try_cmpxchg128_relaxed)
 376:/mnt/c/Users/31740/Desktop/newcore/include/linux/atomic/atomic-arch-fallback.h **** #define raw_try_cmpxchg128_relaxed arch_try_cmpxchg128_relaxed
 377:/mnt/c/Users/31740/Desktop/newcore/include/linux/atomic/atomic-arch-fallback.h **** #elif defined(arch_try_cmpxchg128)
 378:/mnt/c/Users/31740/Desktop/newcore/include/linux/atomic/atomic-arch-fallback.h **** #define raw_try_cmpxchg128_relaxed arch_try_cmpxchg128
 379:/mnt/c/Users/31740/Desktop/newcore/include/linux/atomic/atomic-arch-fallback.h **** #else
 380:/mnt/c/Users/31740/Desktop/newcore/include/linux/atomic/atomic-arch-fallback.h **** #define raw_try_cmpxchg128_relaxed(_ptr, _oldp, _new) \
 381:/mnt/c/Users/31740/Desktop/newcore/include/linux/atomic/atomic-arch-fallback.h **** ({ \
 382:/mnt/c/Users/31740/Desktop/newcore/include/linux/atomic/atomic-arch-fallback.h **** 	typeof(*(_ptr)) *___op = (_oldp), ___o = *___op, ___r; \
 383:/mnt/c/Users/31740/Desktop/newcore/include/linux/atomic/atomic-arch-fallback.h **** 	___r = raw_cmpxchg128_relaxed((_ptr), ___o, (_new)); \
 384:/mnt/c/Users/31740/Desktop/newcore/include/linux/atomic/atomic-arch-fallback.h **** 	if (unlikely(___r != ___o)) \
 385:/mnt/c/Users/31740/Desktop/newcore/include/linux/atomic/atomic-arch-fallback.h **** 		*___op = ___r; \
 386:/mnt/c/Users/31740/Desktop/newcore/include/linux/atomic/atomic-arch-fallback.h **** 	likely(___r == ___o); \
 387:/mnt/c/Users/31740/Desktop/newcore/include/linux/atomic/atomic-arch-fallback.h **** })
 388:/mnt/c/Users/31740/Desktop/newcore/include/linux/atomic/atomic-arch-fallback.h **** #endif
 389:/mnt/c/Users/31740/Desktop/newcore/include/linux/atomic/atomic-arch-fallback.h **** 
 390:/mnt/c/Users/31740/Desktop/newcore/include/linux/atomic/atomic-arch-fallback.h **** #define raw_cmpxchg_local arch_cmpxchg_local
 391:/mnt/c/Users/31740/Desktop/newcore/include/linux/atomic/atomic-arch-fallback.h **** 
 392:/mnt/c/Users/31740/Desktop/newcore/include/linux/atomic/atomic-arch-fallback.h **** #ifdef arch_try_cmpxchg_local
 393:/mnt/c/Users/31740/Desktop/newcore/include/linux/atomic/atomic-arch-fallback.h **** #define raw_try_cmpxchg_local arch_try_cmpxchg_local
 394:/mnt/c/Users/31740/Desktop/newcore/include/linux/atomic/atomic-arch-fallback.h **** #else
 395:/mnt/c/Users/31740/Desktop/newcore/include/linux/atomic/atomic-arch-fallback.h **** #define raw_try_cmpxchg_local(_ptr, _oldp, _new) \
 396:/mnt/c/Users/31740/Desktop/newcore/include/linux/atomic/atomic-arch-fallback.h **** ({ \
 397:/mnt/c/Users/31740/Desktop/newcore/include/linux/atomic/atomic-arch-fallback.h **** 	typeof(*(_ptr)) *___op = (_oldp), ___o = *___op, ___r; \
 398:/mnt/c/Users/31740/Desktop/newcore/include/linux/atomic/atomic-arch-fallback.h **** 	___r = raw_cmpxchg_local((_ptr), ___o, (_new)); \
 399:/mnt/c/Users/31740/Desktop/newcore/include/linux/atomic/atomic-arch-fallback.h **** 	if (unlikely(___r != ___o)) \
ARM GAS  /tmp/cczxpjuQ.s 			page 39


 400:/mnt/c/Users/31740/Desktop/newcore/include/linux/atomic/atomic-arch-fallback.h **** 		*___op = ___r; \
 401:/mnt/c/Users/31740/Desktop/newcore/include/linux/atomic/atomic-arch-fallback.h **** 	likely(___r == ___o); \
 402:/mnt/c/Users/31740/Desktop/newcore/include/linux/atomic/atomic-arch-fallback.h **** })
 403:/mnt/c/Users/31740/Desktop/newcore/include/linux/atomic/atomic-arch-fallback.h **** #endif
 404:/mnt/c/Users/31740/Desktop/newcore/include/linux/atomic/atomic-arch-fallback.h **** 
 405:/mnt/c/Users/31740/Desktop/newcore/include/linux/atomic/atomic-arch-fallback.h **** #define raw_cmpxchg64_local arch_cmpxchg64_local
 406:/mnt/c/Users/31740/Desktop/newcore/include/linux/atomic/atomic-arch-fallback.h **** 
 407:/mnt/c/Users/31740/Desktop/newcore/include/linux/atomic/atomic-arch-fallback.h **** #ifdef arch_try_cmpxchg64_local
 408:/mnt/c/Users/31740/Desktop/newcore/include/linux/atomic/atomic-arch-fallback.h **** #define raw_try_cmpxchg64_local arch_try_cmpxchg64_local
 409:/mnt/c/Users/31740/Desktop/newcore/include/linux/atomic/atomic-arch-fallback.h **** #else
 410:/mnt/c/Users/31740/Desktop/newcore/include/linux/atomic/atomic-arch-fallback.h **** #define raw_try_cmpxchg64_local(_ptr, _oldp, _new) \
 411:/mnt/c/Users/31740/Desktop/newcore/include/linux/atomic/atomic-arch-fallback.h **** ({ \
 412:/mnt/c/Users/31740/Desktop/newcore/include/linux/atomic/atomic-arch-fallback.h **** 	typeof(*(_ptr)) *___op = (_oldp), ___o = *___op, ___r; \
 413:/mnt/c/Users/31740/Desktop/newcore/include/linux/atomic/atomic-arch-fallback.h **** 	___r = raw_cmpxchg64_local((_ptr), ___o, (_new)); \
 414:/mnt/c/Users/31740/Desktop/newcore/include/linux/atomic/atomic-arch-fallback.h **** 	if (unlikely(___r != ___o)) \
 415:/mnt/c/Users/31740/Desktop/newcore/include/linux/atomic/atomic-arch-fallback.h **** 		*___op = ___r; \
 416:/mnt/c/Users/31740/Desktop/newcore/include/linux/atomic/atomic-arch-fallback.h **** 	likely(___r == ___o); \
 417:/mnt/c/Users/31740/Desktop/newcore/include/linux/atomic/atomic-arch-fallback.h **** })
 418:/mnt/c/Users/31740/Desktop/newcore/include/linux/atomic/atomic-arch-fallback.h **** #endif
 419:/mnt/c/Users/31740/Desktop/newcore/include/linux/atomic/atomic-arch-fallback.h **** 
 420:/mnt/c/Users/31740/Desktop/newcore/include/linux/atomic/atomic-arch-fallback.h **** #define raw_cmpxchg128_local arch_cmpxchg128_local
 421:/mnt/c/Users/31740/Desktop/newcore/include/linux/atomic/atomic-arch-fallback.h **** 
 422:/mnt/c/Users/31740/Desktop/newcore/include/linux/atomic/atomic-arch-fallback.h **** #ifdef arch_try_cmpxchg128_local
 423:/mnt/c/Users/31740/Desktop/newcore/include/linux/atomic/atomic-arch-fallback.h **** #define raw_try_cmpxchg128_local arch_try_cmpxchg128_local
 424:/mnt/c/Users/31740/Desktop/newcore/include/linux/atomic/atomic-arch-fallback.h **** #else
 425:/mnt/c/Users/31740/Desktop/newcore/include/linux/atomic/atomic-arch-fallback.h **** #define raw_try_cmpxchg128_local(_ptr, _oldp, _new) \
 426:/mnt/c/Users/31740/Desktop/newcore/include/linux/atomic/atomic-arch-fallback.h **** ({ \
 427:/mnt/c/Users/31740/Desktop/newcore/include/linux/atomic/atomic-arch-fallback.h **** 	typeof(*(_ptr)) *___op = (_oldp), ___o = *___op, ___r; \
 428:/mnt/c/Users/31740/Desktop/newcore/include/linux/atomic/atomic-arch-fallback.h **** 	___r = raw_cmpxchg128_local((_ptr), ___o, (_new)); \
 429:/mnt/c/Users/31740/Desktop/newcore/include/linux/atomic/atomic-arch-fallback.h **** 	if (unlikely(___r != ___o)) \
 430:/mnt/c/Users/31740/Desktop/newcore/include/linux/atomic/atomic-arch-fallback.h **** 		*___op = ___r; \
 431:/mnt/c/Users/31740/Desktop/newcore/include/linux/atomic/atomic-arch-fallback.h **** 	likely(___r == ___o); \
 432:/mnt/c/Users/31740/Desktop/newcore/include/linux/atomic/atomic-arch-fallback.h **** })
 433:/mnt/c/Users/31740/Desktop/newcore/include/linux/atomic/atomic-arch-fallback.h **** #endif
 434:/mnt/c/Users/31740/Desktop/newcore/include/linux/atomic/atomic-arch-fallback.h **** 
 435:/mnt/c/Users/31740/Desktop/newcore/include/linux/atomic/atomic-arch-fallback.h **** #define raw_sync_cmpxchg arch_sync_cmpxchg
 436:/mnt/c/Users/31740/Desktop/newcore/include/linux/atomic/atomic-arch-fallback.h **** 
 437:/mnt/c/Users/31740/Desktop/newcore/include/linux/atomic/atomic-arch-fallback.h **** #ifdef arch_sync_try_cmpxchg
 438:/mnt/c/Users/31740/Desktop/newcore/include/linux/atomic/atomic-arch-fallback.h **** #define raw_sync_try_cmpxchg arch_sync_try_cmpxchg
 439:/mnt/c/Users/31740/Desktop/newcore/include/linux/atomic/atomic-arch-fallback.h **** #else
 440:/mnt/c/Users/31740/Desktop/newcore/include/linux/atomic/atomic-arch-fallback.h **** #define raw_sync_try_cmpxchg(_ptr, _oldp, _new) \
 441:/mnt/c/Users/31740/Desktop/newcore/include/linux/atomic/atomic-arch-fallback.h **** ({ \
 442:/mnt/c/Users/31740/Desktop/newcore/include/linux/atomic/atomic-arch-fallback.h **** 	typeof(*(_ptr)) *___op = (_oldp), ___o = *___op, ___r; \
 443:/mnt/c/Users/31740/Desktop/newcore/include/linux/atomic/atomic-arch-fallback.h **** 	___r = raw_sync_cmpxchg((_ptr), ___o, (_new)); \
 444:/mnt/c/Users/31740/Desktop/newcore/include/linux/atomic/atomic-arch-fallback.h **** 	if (unlikely(___r != ___o)) \
 445:/mnt/c/Users/31740/Desktop/newcore/include/linux/atomic/atomic-arch-fallback.h **** 		*___op = ___r; \
 446:/mnt/c/Users/31740/Desktop/newcore/include/linux/atomic/atomic-arch-fallback.h **** 	likely(___r == ___o); \
 447:/mnt/c/Users/31740/Desktop/newcore/include/linux/atomic/atomic-arch-fallback.h **** })
 448:/mnt/c/Users/31740/Desktop/newcore/include/linux/atomic/atomic-arch-fallback.h **** #endif
 449:/mnt/c/Users/31740/Desktop/newcore/include/linux/atomic/atomic-arch-fallback.h **** 
 450:/mnt/c/Users/31740/Desktop/newcore/include/linux/atomic/atomic-arch-fallback.h **** /**
 451:/mnt/c/Users/31740/Desktop/newcore/include/linux/atomic/atomic-arch-fallback.h ****  * raw_atomic_read() - atomic load with relaxed ordering
 452:/mnt/c/Users/31740/Desktop/newcore/include/linux/atomic/atomic-arch-fallback.h ****  * @v: pointer to atomic_t
 453:/mnt/c/Users/31740/Desktop/newcore/include/linux/atomic/atomic-arch-fallback.h ****  *
 454:/mnt/c/Users/31740/Desktop/newcore/include/linux/atomic/atomic-arch-fallback.h ****  * Atomically loads the value of @v with relaxed ordering.
 455:/mnt/c/Users/31740/Desktop/newcore/include/linux/atomic/atomic-arch-fallback.h ****  *
 456:/mnt/c/Users/31740/Desktop/newcore/include/linux/atomic/atomic-arch-fallback.h ****  * Safe to use in noinstr code; prefer atomic_read() elsewhere.
ARM GAS  /tmp/cczxpjuQ.s 			page 40


 457:/mnt/c/Users/31740/Desktop/newcore/include/linux/atomic/atomic-arch-fallback.h ****  *
 458:/mnt/c/Users/31740/Desktop/newcore/include/linux/atomic/atomic-arch-fallback.h ****  * Return: The value loaded from @v.
 459:/mnt/c/Users/31740/Desktop/newcore/include/linux/atomic/atomic-arch-fallback.h ****  */
 460:/mnt/c/Users/31740/Desktop/newcore/include/linux/atomic/atomic-arch-fallback.h **** static __always_inline int
 461:/mnt/c/Users/31740/Desktop/newcore/include/linux/atomic/atomic-arch-fallback.h **** raw_atomic_read(const atomic_t *v)
 462:/mnt/c/Users/31740/Desktop/newcore/include/linux/atomic/atomic-arch-fallback.h **** {
 463:/mnt/c/Users/31740/Desktop/newcore/include/linux/atomic/atomic-arch-fallback.h **** 	return arch_atomic_read(v);
 464:/mnt/c/Users/31740/Desktop/newcore/include/linux/atomic/atomic-arch-fallback.h **** }
 465:/mnt/c/Users/31740/Desktop/newcore/include/linux/atomic/atomic-arch-fallback.h **** 
 466:/mnt/c/Users/31740/Desktop/newcore/include/linux/atomic/atomic-arch-fallback.h **** /**
 467:/mnt/c/Users/31740/Desktop/newcore/include/linux/atomic/atomic-arch-fallback.h ****  * raw_atomic_read_acquire() - atomic load with acquire ordering
 468:/mnt/c/Users/31740/Desktop/newcore/include/linux/atomic/atomic-arch-fallback.h ****  * @v: pointer to atomic_t
 469:/mnt/c/Users/31740/Desktop/newcore/include/linux/atomic/atomic-arch-fallback.h ****  *
 470:/mnt/c/Users/31740/Desktop/newcore/include/linux/atomic/atomic-arch-fallback.h ****  * Atomically loads the value of @v with acquire ordering.
 471:/mnt/c/Users/31740/Desktop/newcore/include/linux/atomic/atomic-arch-fallback.h ****  *
 472:/mnt/c/Users/31740/Desktop/newcore/include/linux/atomic/atomic-arch-fallback.h ****  * Safe to use in noinstr code; prefer atomic_read_acquire() elsewhere.
 473:/mnt/c/Users/31740/Desktop/newcore/include/linux/atomic/atomic-arch-fallback.h ****  *
 474:/mnt/c/Users/31740/Desktop/newcore/include/linux/atomic/atomic-arch-fallback.h ****  * Return: The value loaded from @v.
 475:/mnt/c/Users/31740/Desktop/newcore/include/linux/atomic/atomic-arch-fallback.h ****  */
 476:/mnt/c/Users/31740/Desktop/newcore/include/linux/atomic/atomic-arch-fallback.h **** static __always_inline int
 477:/mnt/c/Users/31740/Desktop/newcore/include/linux/atomic/atomic-arch-fallback.h **** raw_atomic_read_acquire(const atomic_t *v)
 478:/mnt/c/Users/31740/Desktop/newcore/include/linux/atomic/atomic-arch-fallback.h **** {
 479:/mnt/c/Users/31740/Desktop/newcore/include/linux/atomic/atomic-arch-fallback.h **** #if defined(arch_atomic_read_acquire)
 480:/mnt/c/Users/31740/Desktop/newcore/include/linux/atomic/atomic-arch-fallback.h **** 	return arch_atomic_read_acquire(v);
 481:/mnt/c/Users/31740/Desktop/newcore/include/linux/atomic/atomic-arch-fallback.h **** #else
 482:/mnt/c/Users/31740/Desktop/newcore/include/linux/atomic/atomic-arch-fallback.h **** 	int ret;
 483:/mnt/c/Users/31740/Desktop/newcore/include/linux/atomic/atomic-arch-fallback.h **** 
 484:/mnt/c/Users/31740/Desktop/newcore/include/linux/atomic/atomic-arch-fallback.h **** 	if (__native_word(atomic_t)) {
 485:/mnt/c/Users/31740/Desktop/newcore/include/linux/atomic/atomic-arch-fallback.h **** 		ret = smp_load_acquire(&(v)->counter);
 486:/mnt/c/Users/31740/Desktop/newcore/include/linux/atomic/atomic-arch-fallback.h **** 	} else {
 487:/mnt/c/Users/31740/Desktop/newcore/include/linux/atomic/atomic-arch-fallback.h **** 		ret = raw_atomic_read(v);
 488:/mnt/c/Users/31740/Desktop/newcore/include/linux/atomic/atomic-arch-fallback.h **** 		__atomic_acquire_fence();
 489:/mnt/c/Users/31740/Desktop/newcore/include/linux/atomic/atomic-arch-fallback.h **** 	}
 490:/mnt/c/Users/31740/Desktop/newcore/include/linux/atomic/atomic-arch-fallback.h **** 
 491:/mnt/c/Users/31740/Desktop/newcore/include/linux/atomic/atomic-arch-fallback.h **** 	return ret;
 492:/mnt/c/Users/31740/Desktop/newcore/include/linux/atomic/atomic-arch-fallback.h **** #endif
 493:/mnt/c/Users/31740/Desktop/newcore/include/linux/atomic/atomic-arch-fallback.h **** }
 494:/mnt/c/Users/31740/Desktop/newcore/include/linux/atomic/atomic-arch-fallback.h **** 
 495:/mnt/c/Users/31740/Desktop/newcore/include/linux/atomic/atomic-arch-fallback.h **** /**
 496:/mnt/c/Users/31740/Desktop/newcore/include/linux/atomic/atomic-arch-fallback.h ****  * raw_atomic_set() - atomic set with relaxed ordering
 497:/mnt/c/Users/31740/Desktop/newcore/include/linux/atomic/atomic-arch-fallback.h ****  * @v: pointer to atomic_t
 498:/mnt/c/Users/31740/Desktop/newcore/include/linux/atomic/atomic-arch-fallback.h ****  * @i: int value to assign
 499:/mnt/c/Users/31740/Desktop/newcore/include/linux/atomic/atomic-arch-fallback.h ****  *
 500:/mnt/c/Users/31740/Desktop/newcore/include/linux/atomic/atomic-arch-fallback.h ****  * Atomically sets @v to @i with relaxed ordering.
 501:/mnt/c/Users/31740/Desktop/newcore/include/linux/atomic/atomic-arch-fallback.h ****  *
 502:/mnt/c/Users/31740/Desktop/newcore/include/linux/atomic/atomic-arch-fallback.h ****  * Safe to use in noinstr code; prefer atomic_set() elsewhere.
 503:/mnt/c/Users/31740/Desktop/newcore/include/linux/atomic/atomic-arch-fallback.h ****  *
 504:/mnt/c/Users/31740/Desktop/newcore/include/linux/atomic/atomic-arch-fallback.h ****  * Return: Nothing.
 505:/mnt/c/Users/31740/Desktop/newcore/include/linux/atomic/atomic-arch-fallback.h ****  */
 506:/mnt/c/Users/31740/Desktop/newcore/include/linux/atomic/atomic-arch-fallback.h **** static __always_inline void
 507:/mnt/c/Users/31740/Desktop/newcore/include/linux/atomic/atomic-arch-fallback.h **** raw_atomic_set(atomic_t *v, int i)
 383              		.loc 7 507 1 view .LVU87
 384              	.LBB325:
 508:/mnt/c/Users/31740/Desktop/newcore/include/linux/atomic/atomic-arch-fallback.h **** {
 509:/mnt/c/Users/31740/Desktop/newcore/include/linux/atomic/atomic-arch-fallback.h **** 	arch_atomic_set(v, i);
 385              		.loc 7 509 2 view .LVU88
 386              		.loc 7 509 2 view .LVU89
ARM GAS  /tmp/cczxpjuQ.s 			page 41


 387              	.LBB326:
 388              		.loc 7 509 2 view .LVU90
 389              		.loc 7 509 2 view .LVU91
 390              	.LBE326:
 391              		.loc 7 509 2 discriminator 2 view .LVU92
 392              		.loc 7 509 2 discriminator 2 view .LVU93
 393              		.loc 7 509 2 discriminator 2 view .LVU94
 394 0012 8261     		str	r2, [r0, #24]
 395              		.loc 7 509 2 discriminator 2 view .LVU95
 396              		.loc 7 509 2 discriminator 2 view .LVU96
 397              	.LVL30:
 398              		.loc 7 509 2 is_stmt 0 discriminator 2 view .LVU97
 399              	.LBE325:
 400              	.LBE324:
 401              	.LBE323:
 195:/mnt/c/Users/31740/Desktop/newcore/include/linux/mm_type.h ****     page->zone_device_data = NULL;
 402              		.loc 4 195 5 is_stmt 1 view .LVU98
 403              	.LBB327:
 404              	.LBI327:
  65:/mnt/c/Users/31740/Desktop/newcore/include/linux/atomic/atomic-instrumented.h **** {
 405              		.loc 6 65 1 view .LVU99
  67:/mnt/c/Users/31740/Desktop/newcore/include/linux/atomic/atomic-instrumented.h **** 	raw_atomic_set(v, i);
 406              		.loc 6 67 2 view .LVU100
 407              		.loc 6 68 2 view .LVU101
 408              	.LBB328:
 409              	.LBI328:
 507:/mnt/c/Users/31740/Desktop/newcore/include/linux/atomic/atomic-arch-fallback.h **** {
 410              		.loc 7 507 1 view .LVU102
 411              	.LBB329:
 412              		.loc 7 509 2 view .LVU103
 413              		.loc 7 509 2 view .LVU104
 414              	.LBB330:
 415              		.loc 7 509 2 view .LVU105
 416              		.loc 7 509 2 view .LVU106
 417              	.LBE330:
 418              		.loc 7 509 2 discriminator 2 view .LVU107
 419              		.loc 7 509 2 discriminator 2 view .LVU108
 420              		.loc 7 509 2 discriminator 2 view .LVU109
 421 0014 C261     		str	r2, [r0, #28]
 422              		.loc 7 509 2 discriminator 2 view .LVU110
 423              		.loc 7 509 2 discriminator 2 view .LVU111
 424              	.LVL31:
 425              		.loc 7 509 2 is_stmt 0 discriminator 2 view .LVU112
 426              	.LBE329:
 427              	.LBE328:
 428              	.LBE327:
 196:/mnt/c/Users/31740/Desktop/newcore/include/linux/mm_type.h ****     return page;
 429              		.loc 4 196 5 is_stmt 1 view .LVU113
 196:/mnt/c/Users/31740/Desktop/newcore/include/linux/mm_type.h ****     return page;
 430              		.loc 4 196 28 is_stmt 0 view .LVU114
 431 0016 4260     		str	r2, [r0, #4]
 197:/mnt/c/Users/31740/Desktop/newcore/include/linux/mm_type.h **** }
 432              		.loc 4 197 5 is_stmt 1 view .LVU115
 433              	.L20:
 198:/mnt/c/Users/31740/Desktop/newcore/include/linux/mm_type.h **** static inline void __page_destroy(struct page *page){
 434              		.loc 4 198 1 is_stmt 0 view .LVU116
 435 0018 1846     		mov	r0, r3
ARM GAS  /tmp/cczxpjuQ.s 			page 42


 436              	.LVL32:
 198:/mnt/c/Users/31740/Desktop/newcore/include/linux/mm_type.h **** static inline void __page_destroy(struct page *page){
 437              		.loc 4 198 1 view .LVU117
 438 001a 08BD     		pop	{r3, pc}
 198:/mnt/c/Users/31740/Desktop/newcore/include/linux/mm_type.h **** static inline void __page_destroy(struct page *page){
 439              		.loc 4 198 1 view .LVU118
 440              		.cfi_endproc
 441              	.LFE910:
 443              		.section	.init.text,"ax",%progbits
 444              		.align	1
 445              		.syntax unified
 446              		.thumb
 447              		.thumb_func
 449              	initramfs_ops_init:
 450              	.LFB1069:
 612:/mnt/c/Users/31740/Desktop/newcore/fs/initramfs/initramfs.c **** static int  initramfs_getattr (struct mnt_idmap *dmp, const struct path * path,struct kstat *stat, 
 613:/mnt/c/Users/31740/Desktop/newcore/fs/initramfs/initramfs.c **** {
 614:/mnt/c/Users/31740/Desktop/newcore/fs/initramfs/initramfs.c ****     struct dentry *d = path->dentry;
 615:/mnt/c/Users/31740/Desktop/newcore/fs/initramfs/initramfs.c ****     struct initramfs_dentry* file = d->d_fsdata;
 616:/mnt/c/Users/31740/Desktop/newcore/fs/initramfs/initramfs.c ****     struct initramfs_inode *inode;
 617:/mnt/c/Users/31740/Desktop/newcore/fs/initramfs/initramfs.c **** 
 618:/mnt/c/Users/31740/Desktop/newcore/fs/initramfs/initramfs.c ****     if (!file || !(inode = file->target_inode))
 619:/mnt/c/Users/31740/Desktop/newcore/fs/initramfs/initramfs.c ****     return -ENOENT;
 620:/mnt/c/Users/31740/Desktop/newcore/fs/initramfs/initramfs.c ****     stat->mode = inode->i_mode;
 621:/mnt/c/Users/31740/Desktop/newcore/fs/initramfs/initramfs.c ****     stat->dev  = MKDEV(inode->major, 0);
 622:/mnt/c/Users/31740/Desktop/newcore/fs/initramfs/initramfs.c ****     stat->ino  = (unsigned long)inode;  
 623:/mnt/c/Users/31740/Desktop/newcore/fs/initramfs/initramfs.c ****     stat->nlink = atomic_read(&inode->dentry_count);
 624:/mnt/c/Users/31740/Desktop/newcore/fs/initramfs/initramfs.c ****     stat->size  = 0; 
 625:/mnt/c/Users/31740/Desktop/newcore/fs/initramfs/initramfs.c ****     stat->atime.tv_nsec = jiffies/HZ;
 626:/mnt/c/Users/31740/Desktop/newcore/fs/initramfs/initramfs.c ****     stat->atime.tv_sec  = jiffies%HZ;
 627:/mnt/c/Users/31740/Desktop/newcore/fs/initramfs/initramfs.c ****     stat->mtime = stat->atime;
 628:/mnt/c/Users/31740/Desktop/newcore/fs/initramfs/initramfs.c ****     stat->ctime = stat->atime;
 629:/mnt/c/Users/31740/Desktop/newcore/fs/initramfs/initramfs.c ****     stat->blksize = PAGE_SIZE;
 630:/mnt/c/Users/31740/Desktop/newcore/fs/initramfs/initramfs.c ****     stat->blocks  = 0;
 631:/mnt/c/Users/31740/Desktop/newcore/fs/initramfs/initramfs.c ****     return 0;
 632:/mnt/c/Users/31740/Desktop/newcore/fs/initramfs/initramfs.c **** }
 633:/mnt/c/Users/31740/Desktop/newcore/fs/initramfs/initramfs.c **** 
 634:/mnt/c/Users/31740/Desktop/newcore/fs/initramfs/initramfs.c **** static struct dentry_operations initramfs_dentry_operation = {
 635:/mnt/c/Users/31740/Desktop/newcore/fs/initramfs/initramfs.c ****     .d_release = initramfs_release_dentry,
 636:/mnt/c/Users/31740/Desktop/newcore/fs/initramfs/initramfs.c **** };
 637:/mnt/c/Users/31740/Desktop/newcore/fs/initramfs/initramfs.c **** \
 638:/mnt/c/Users/31740/Desktop/newcore/fs/initramfs/initramfs.c **** 
 639:/mnt/c/Users/31740/Desktop/newcore/fs/initramfs/initramfs.c **** 
 640:/mnt/c/Users/31740/Desktop/newcore/fs/initramfs/initramfs.c **** 
 641:/mnt/c/Users/31740/Desktop/newcore/fs/initramfs/initramfs.c **** 
 642:/mnt/c/Users/31740/Desktop/newcore/fs/initramfs/initramfs.c **** static int __init initramfs_ops_init(void){
 451              		.loc 1 642 43 is_stmt 1 view -0
 452              		.cfi_startproc
 453              		@ args = 0, pretend = 0, frame = 0
 454              		@ frame_needed = 0, uses_anonymous_args = 0
 455 0000 08B5     		push	{r3, lr}
 456              	.LCFI3:
 457              		.cfi_def_cfa_offset 8
 458              		.cfi_offset 3, -8
 459              		.cfi_offset 14, -4
 643:/mnt/c/Users/31740/Desktop/newcore/fs/initramfs/initramfs.c ****     register_filesystem(&fs_type);
 460              		.loc 1 643 5 view .LVU120
ARM GAS  /tmp/cczxpjuQ.s 			page 43


 461 0002 0248     		ldr	r0, .L25
 462 0004 FFF7FEFF 		bl	register_filesystem
 463              	.LVL33:
 644:/mnt/c/Users/31740/Desktop/newcore/fs/initramfs/initramfs.c ****     return 0;
 464              		.loc 1 644 5 view .LVU121
 645:/mnt/c/Users/31740/Desktop/newcore/fs/initramfs/initramfs.c **** }
 465              		.loc 1 645 1 is_stmt 0 view .LVU122
 466 0008 0020     		movs	r0, #0
 467 000a 08BD     		pop	{r3, pc}
 468              	.L26:
 469              		.align	2
 470              	.L25:
 471 000c 00000000 		.word	fs_type
 472              		.cfi_endproc
 473              	.LFE1069:
 475              		.section	.text.initramfs_kill_sb,"ax",%progbits
 476              		.align	1
 477              		.syntax unified
 478              		.thumb
 479              		.thumb_func
 481              	initramfs_kill_sb:
 482              	.LVL34:
 483              	.LFB1054:
 421:/mnt/c/Users/31740/Desktop/newcore/fs/initramfs/initramfs.c ****     put_super(sb);
 484              		.loc 1 421 56 is_stmt 1 view -0
 485              		.cfi_startproc
 486              		@ args = 0, pretend = 0, frame = 0
 487              		@ frame_needed = 0, uses_anonymous_args = 0
 421:/mnt/c/Users/31740/Desktop/newcore/fs/initramfs/initramfs.c ****     put_super(sb);
 488              		.loc 1 421 56 is_stmt 0 view .LVU124
 489 0000 08B5     		push	{r3, lr}
 490              	.LCFI4:
 491              		.cfi_def_cfa_offset 8
 492              		.cfi_offset 3, -8
 493              		.cfi_offset 14, -4
 422:/mnt/c/Users/31740/Desktop/newcore/fs/initramfs/initramfs.c **** }
 494              		.loc 1 422 5 is_stmt 1 view .LVU125
 495 0002 FFF7FEFF 		bl	put_super
 496              	.LVL35:
 423:/mnt/c/Users/31740/Desktop/newcore/fs/initramfs/initramfs.c **** 
 497              		.loc 1 423 1 is_stmt 0 view .LVU126
 498 0006 08BD     		pop	{r3, pc}
 499              		.cfi_endproc
 500              	.LFE1054:
 502              		.section	.text.__spin_lock,"ax",%progbits
 503              		.align	1
 504              		.syntax unified
 505              		.thumb
 506              		.thumb_func
 508              	__spin_lock:
 509              	.LVL36:
 510              	.LFB851:
  15:/mnt/c/Users/31740/Desktop/newcore/arch/arm_m/include/asm/spinlock.h **** 
 511              		.loc 2 15 47 is_stmt 1 view -0
 512              		.cfi_startproc
 513              		@ args = 0, pretend = 0, frame = 0
 514              		@ frame_needed = 0, uses_anonymous_args = 0
ARM GAS  /tmp/cczxpjuQ.s 			page 44


  15:/mnt/c/Users/31740/Desktop/newcore/arch/arm_m/include/asm/spinlock.h **** 
 515              		.loc 2 15 47 is_stmt 0 view .LVU128
 516 0000 38B5     		push	{r3, r4, r5, lr}
 517              	.LCFI5:
 518              		.cfi_def_cfa_offset 16
 519              		.cfi_offset 3, -16
 520              		.cfi_offset 4, -12
 521              		.cfi_offset 5, -8
 522              		.cfi_offset 14, -4
 523 0002 0446     		mov	r4, r0
  17:/mnt/c/Users/31740/Desktop/newcore/arch/arm_m/include/asm/spinlock.h ****     if(lock->flag == 0){
 524              		.loc 2 17 5 is_stmt 1 view .LVU129
 525 0004 FFF7FEFF 		bl	stop_all_scheduler
 526              	.LVL37:
  18:/mnt/c/Users/31740/Desktop/newcore/arch/arm_m/include/asm/spinlock.h ****           lock->flag = 1;  
 527              		.loc 2 18 5 view .LVU130
  18:/mnt/c/Users/31740/Desktop/newcore/arch/arm_m/include/asm/spinlock.h ****           lock->flag = 1;  
 528              		.loc 2 18 12 is_stmt 0 view .LVU131
 529 0008 2368     		ldr	r3, [r4]
  18:/mnt/c/Users/31740/Desktop/newcore/arch/arm_m/include/asm/spinlock.h ****           lock->flag = 1;  
 530              		.loc 2 18 7 view .LVU132
 531 000a 2BB9     		cbnz	r3, .L30
  19:/mnt/c/Users/31740/Desktop/newcore/arch/arm_m/include/asm/spinlock.h ****           start_all_scheduler();
 532              		.loc 2 19 11 is_stmt 1 view .LVU133
  19:/mnt/c/Users/31740/Desktop/newcore/arch/arm_m/include/asm/spinlock.h ****           start_all_scheduler();
 533              		.loc 2 19 22 is_stmt 0 view .LVU134
 534 000c 0125     		movs	r5, #1
 535 000e 2560     		str	r5, [r4]
  20:/mnt/c/Users/31740/Desktop/newcore/arch/arm_m/include/asm/spinlock.h ****         return 1;
 536              		.loc 2 20 11 is_stmt 1 view .LVU135
 537 0010 FFF7FEFF 		bl	start_all_scheduler
 538              	.LVL38:
  21:/mnt/c/Users/31740/Desktop/newcore/arch/arm_m/include/asm/spinlock.h ****     }
 539              		.loc 2 21 9 view .LVU136
  21:/mnt/c/Users/31740/Desktop/newcore/arch/arm_m/include/asm/spinlock.h ****     }
 540              		.loc 2 21 16 is_stmt 0 view .LVU137
 541 0014 2846     		mov	r0, r5
 542              	.L29:
  28:/mnt/c/Users/31740/Desktop/newcore/arch/arm_m/include/asm/spinlock.h **** 
 543              		.loc 2 28 1 view .LVU138
 544 0016 38BD     		pop	{r3, r4, r5, pc}
 545              	.LVL39:
 546              	.L30:
  25:/mnt/c/Users/31740/Desktop/newcore/arch/arm_m/include/asm/spinlock.h ****         return 0;
 547              		.loc 2 25 9 is_stmt 1 view .LVU139
 548 0018 FFF7FEFF 		bl	start_all_scheduler
 549              	.LVL40:
  26:/mnt/c/Users/31740/Desktop/newcore/arch/arm_m/include/asm/spinlock.h ****     }
 550              		.loc 2 26 9 view .LVU140
  26:/mnt/c/Users/31740/Desktop/newcore/arch/arm_m/include/asm/spinlock.h ****     }
 551              		.loc 2 26 16 is_stmt 0 view .LVU141
 552 001c 0020     		movs	r0, #0
 553 001e FAE7     		b	.L29
 554              		.cfi_endproc
 555              	.LFE851:
 557              		.section	.text.spin_lock,"ax",%progbits
 558              		.align	1
ARM GAS  /tmp/cczxpjuQ.s 			page 45


 559              		.syntax unified
 560              		.thumb
 561              		.thumb_func
 563              	spin_lock:
 564              	.LVL41:
 565              	.LFB854:
  15:/mnt/c/Users/31740/Desktop/newcore/include/linux/spinlock.h ****     while (1)
 566              		.loc 3 15 1 is_stmt 1 view -0
 567              		.cfi_startproc
 568              		@ args = 0, pretend = 0, frame = 0
 569              		@ frame_needed = 0, uses_anonymous_args = 0
  15:/mnt/c/Users/31740/Desktop/newcore/include/linux/spinlock.h ****     while (1)
 570              		.loc 3 15 1 is_stmt 0 view .LVU143
 571 0000 38B5     		push	{r3, r4, r5, lr}
 572              	.LCFI6:
 573              		.cfi_def_cfa_offset 16
 574              		.cfi_offset 3, -16
 575              		.cfi_offset 4, -12
 576              		.cfi_offset 5, -8
 577              		.cfi_offset 14, -4
 578 0002 0446     		mov	r4, r0
 579 0004 06E0     		b	.L36
 580              	.LVL42:
 581              	.L38:
  19:/mnt/c/Users/31740/Desktop/newcore/include/linux/spinlock.h ****             break;
 582              		.loc 3 19 13 is_stmt 1 view .LVU144
  19:/mnt/c/Users/31740/Desktop/newcore/include/linux/spinlock.h ****             break;
 583              		.loc 3 19 27 is_stmt 0 view .LVU145
 584 0006 FFF7FEFF 		bl	get_current_task
 585              	.LVL43:
  19:/mnt/c/Users/31740/Desktop/newcore/include/linux/spinlock.h ****             break;
 586              		.loc 3 19 25 discriminator 1 view .LVU146
 587 000a 2060     		str	r0, [r4]
  20:/mnt/c/Users/31740/Desktop/newcore/include/linux/spinlock.h ****         }
 588              		.loc 3 20 13 is_stmt 1 view .LVU147
 589              	.L33:
  29:/mnt/c/Users/31740/Desktop/newcore/include/linux/spinlock.h **** 
 590              		.loc 3 29 1 is_stmt 0 view .LVU148
 591 000c 38BD     		pop	{r3, r4, r5, pc}
 592              	.LVL44:
 593              	.L39:
  26:/mnt/c/Users/31740/Desktop/newcore/include/linux/spinlock.h ****         }
 594              		.loc 3 26 13 is_stmt 1 view .LVU149
 595 000e 0520     		movs	r0, #5
 596 0010 FFF7FEFF 		bl	__delay
 597              	.LVL45:
  16:/mnt/c/Users/31740/Desktop/newcore/include/linux/spinlock.h ****     {
 598              		.loc 3 16 11 view .LVU150
 599              	.L36:
  16:/mnt/c/Users/31740/Desktop/newcore/include/linux/spinlock.h ****     {
 600              		.loc 3 16 5 view .LVU151
  18:/mnt/c/Users/31740/Desktop/newcore/include/linux/spinlock.h ****             lock->owner = get_current_task();
 601              		.loc 3 18 9 view .LVU152
  18:/mnt/c/Users/31740/Desktop/newcore/include/linux/spinlock.h ****             lock->owner = get_current_task();
 602              		.loc 3 18 12 is_stmt 0 view .LVU153
 603 0014 2046     		mov	r0, r4
 604 0016 FFF7FEFF 		bl	__spin_lock
ARM GAS  /tmp/cczxpjuQ.s 			page 46


 605              	.LVL46:
  18:/mnt/c/Users/31740/Desktop/newcore/include/linux/spinlock.h ****             lock->owner = get_current_task();
 606              		.loc 3 18 11 discriminator 1 view .LVU154
 607 001a 0128     		cmp	r0, #1
 608 001c F3D0     		beq	.L38
  22:/mnt/c/Users/31740/Desktop/newcore/include/linux/spinlock.h ****             return;   
 609              		.loc 3 22 15 is_stmt 1 view .LVU155
  22:/mnt/c/Users/31740/Desktop/newcore/include/linux/spinlock.h ****             return;   
 610              		.loc 3 22 22 is_stmt 0 view .LVU156
 611 001e 2568     		ldr	r5, [r4]
  22:/mnt/c/Users/31740/Desktop/newcore/include/linux/spinlock.h ****             return;   
 612              		.loc 3 22 33 view .LVU157
 613 0020 FFF7FEFF 		bl	get_current_task
 614              	.LVL47:
  22:/mnt/c/Users/31740/Desktop/newcore/include/linux/spinlock.h ****             return;   
 615              		.loc 3 22 17 discriminator 1 view .LVU158
 616 0024 8542     		cmp	r5, r0
 617 0026 F2D1     		bne	.L39
 618 0028 F0E7     		b	.L33
 619              		.cfi_endproc
 620              	.LFE854:
 622              		.section	.text.initramfs_iterate,"ax",%progbits
 623              		.align	1
 624              		.syntax unified
 625              		.thumb
 626              		.thumb_func
 628              	initramfs_iterate:
 629              	.LVL48:
 630              	.LFB1040:
 127:/mnt/c/Users/31740/Desktop/newcore/fs/initramfs/initramfs.c ****     struct initramfs_inode *inode = file->private_data;
 631              		.loc 1 127 1 is_stmt 1 view -0
 632              		.cfi_startproc
 633              		@ args = 0, pretend = 0, frame = 8
 634              		@ frame_needed = 0, uses_anonymous_args = 0
 127:/mnt/c/Users/31740/Desktop/newcore/fs/initramfs/initramfs.c ****     struct initramfs_inode *inode = file->private_data;
 635              		.loc 1 127 1 is_stmt 0 view .LVU160
 636 0000 2DE9F04F 		push	{r4, r5, r6, r7, r8, r9, r10, fp, lr}
 637              	.LCFI7:
 638              		.cfi_def_cfa_offset 36
 639              		.cfi_offset 4, -36
 640              		.cfi_offset 5, -32
 641              		.cfi_offset 6, -28
 642              		.cfi_offset 7, -24
 643              		.cfi_offset 8, -20
 644              		.cfi_offset 9, -16
 645              		.cfi_offset 10, -12
 646              		.cfi_offset 11, -8
 647              		.cfi_offset 14, -4
 648 0004 87B0     		sub	sp, sp, #28
 649              	.LCFI8:
 650              		.cfi_def_cfa_offset 64
 128:/mnt/c/Users/31740/Desktop/newcore/fs/initramfs/initramfs.c ****     struct initramfs_dentry *pos;
 651              		.loc 1 128 5 is_stmt 1 view .LVU161
 128:/mnt/c/Users/31740/Desktop/newcore/fs/initramfs/initramfs.c ****     struct initramfs_dentry *pos;
 652              		.loc 1 128 29 is_stmt 0 view .LVU162
 653 0006 D0F828B0 		ldr	fp, [r0, #40]
 654              	.LVL49:
ARM GAS  /tmp/cczxpjuQ.s 			page 47


 129:/mnt/c/Users/31740/Desktop/newcore/fs/initramfs/initramfs.c ****     loff_t curr = 0;
 655              		.loc 1 129 5 is_stmt 1 view .LVU163
 130:/mnt/c/Users/31740/Desktop/newcore/fs/initramfs/initramfs.c ****     if ((inode->i_mode & S_IFMT) != S_IFDIR)
 656              		.loc 1 130 5 view .LVU164
 131:/mnt/c/Users/31740/Desktop/newcore/fs/initramfs/initramfs.c ****         return -ENOTDIR;
 657              		.loc 1 131 5 view .LVU165
 131:/mnt/c/Users/31740/Desktop/newcore/fs/initramfs/initramfs.c ****         return -ENOTDIR;
 658              		.loc 1 131 15 is_stmt 0 view .LVU166
 659 000a DBF80430 		ldr	r3, [fp, #4]
 131:/mnt/c/Users/31740/Desktop/newcore/fs/initramfs/initramfs.c ****         return -ENOTDIR;
 660              		.loc 1 131 24 view .LVU167
 661 000e 03F47043 		and	r3, r3, #61440
 131:/mnt/c/Users/31740/Desktop/newcore/fs/initramfs/initramfs.c ****         return -ENOTDIR;
 662              		.loc 1 131 8 view .LVU168
 663 0012 B3F5804F 		cmp	r3, #16384
 664 0016 45D1     		bne	.L47
 665 0018 0D46     		mov	r5, r1
 134:/mnt/c/Users/31740/Desktop/newcore/fs/initramfs/initramfs.c ****     list_for_each_entry(pos, &inode->dentry_list_head, list_node) {
 666              		.loc 1 134 5 is_stmt 1 view .LVU169
 667 001a 0BF12403 		add	r3, fp, #36
 668 001e 0593     		str	r3, [sp, #20]
 669 0020 1846     		mov	r0, r3
 670              	.LVL50:
 134:/mnt/c/Users/31740/Desktop/newcore/fs/initramfs/initramfs.c ****     list_for_each_entry(pos, &inode->dentry_list_head, list_node) {
 671              		.loc 1 134 5 is_stmt 0 view .LVU170
 672 0022 FFF7FEFF 		bl	spin_lock
 673              	.LVL51:
 135:/mnt/c/Users/31740/Desktop/newcore/fs/initramfs/initramfs.c ****         if (curr++ < ctx->pos)
 674              		.loc 1 135 5 is_stmt 1 view .LVU171
 675              	.LBB331:
 135:/mnt/c/Users/31740/Desktop/newcore/fs/initramfs/initramfs.c ****         if (curr++ < ctx->pos)
 676              		.loc 1 135 5 view .LVU172
 677 0026 DBF81C40 		ldr	r4, [fp, #28]
 678              	.LVL52:
 135:/mnt/c/Users/31740/Desktop/newcore/fs/initramfs/initramfs.c ****         if (curr++ < ctx->pos)
 679              		.loc 1 135 5 view .LVU173
 135:/mnt/c/Users/31740/Desktop/newcore/fs/initramfs/initramfs.c ****         if (curr++ < ctx->pos)
 680              		.loc 1 135 5 view .LVU174
 681 002a 0C3C     		subs	r4, r4, #12
 682              	.LVL53:
 135:/mnt/c/Users/31740/Desktop/newcore/fs/initramfs/initramfs.c ****         if (curr++ < ctx->pos)
 683              		.loc 1 135 5 is_stmt 0 view .LVU175
 684              	.LBE331:
 130:/mnt/c/Users/31740/Desktop/newcore/fs/initramfs/initramfs.c ****     if ((inode->i_mode & S_IFMT) != S_IFDIR)
 685              		.loc 1 130 12 view .LVU176
 686 002c 0023     		movs	r3, #0
 687 002e 1946     		mov	r1, r3
 135:/mnt/c/Users/31740/Desktop/newcore/fs/initramfs/initramfs.c ****         if (curr++ < ctx->pos)
 688              		.loc 1 135 5 view .LVU177
 689 0030 15E0     		b	.L42
 690              	.LVL54:
 691              	.L48:
 139:/mnt/c/Users/31740/Desktop/newcore/fs/initramfs/initramfs.c ****                       curr,  // inode number å¯ä¸º 0 æˆ– pos->target_inode->major
 692              		.loc 1 139 14 discriminator 2 view .LVU178
 693 0032 0821     		movs	r1, #8
 694              	.L44:
 695              	.LVL55:
ARM GAS  /tmp/cczxpjuQ.s 			page 48


 696              	.LBB332:
 697              	.LBI332:
 698              		.file 8 "/mnt/c/Users/31740/Desktop/newcore/include/linux/fs.h"
   1:/mnt/c/Users/31740/Desktop/newcore/include/linux/fs.h **** /* SPDX-License-Identifier: GPL-2.0 */
   2:/mnt/c/Users/31740/Desktop/newcore/include/linux/fs.h **** #ifndef _LINUX_FS_H
   3:/mnt/c/Users/31740/Desktop/newcore/include/linux/fs.h **** #define _LINUX_FS_H
   4:/mnt/c/Users/31740/Desktop/newcore/include/linux/fs.h **** 
   5:/mnt/c/Users/31740/Desktop/newcore/include/linux/fs.h **** #include <linux/types.h>
   6:/mnt/c/Users/31740/Desktop/newcore/include/linux/fs.h **** #include <linux/errseq.h> 
   7:/mnt/c/Users/31740/Desktop/newcore/include/linux/fs.h **** #include <linux/spinlock.h> 
   8:/mnt/c/Users/31740/Desktop/newcore/include/linux/fs.h **** #include <linux/list.h>
   9:/mnt/c/Users/31740/Desktop/newcore/include/linux/fs.h **** #include <linux/rbtree_types.h>  
  10:/mnt/c/Users/31740/Desktop/newcore/include/linux/fs.h **** #include <linux/uuid.h>  
  11:/mnt/c/Users/31740/Desktop/newcore/include/linux/fs.h **** #include <linux/uidgid_types.h>   
  12:/mnt/c/Users/31740/Desktop/newcore/include/linux/fs.h **** #include <linux/projid.h>       
  13:/mnt/c/Users/31740/Desktop/newcore/include/linux/fs.h **** #include <linux/time64.h> 
  14:/mnt/c/Users/31740/Desktop/newcore/include/linux/fs.h **** #include <linux/mnt_idmapping.h>  
  15:/mnt/c/Users/31740/Desktop/newcore/include/linux/fs.h **** #include <linux/mutex.h>         
  16:/mnt/c/Users/31740/Desktop/newcore/include/linux/fs.h **** #include <linux/uio.h>              
  17:/mnt/c/Users/31740/Desktop/newcore/include/linux/fs.h **** #include <linux/migrate_mode.h>  
  18:/mnt/c/Users/31740/Desktop/newcore/include/linux/fs.h **** #include <linux/raid/pq.h> 
  19:/mnt/c/Users/31740/Desktop/newcore/include/linux/fs.h **** #include <linux/lockdep_types.h>
  20:/mnt/c/Users/31740/Desktop/newcore/include/linux/fs.h **** #include <linux/wait.h>				
  21:/mnt/c/Users/31740/Desktop/newcore/include/linux/fs.h **** #include <linux/pipe_fs_i.h>
  22:/mnt/c/Users/31740/Desktop/newcore/include/linux/fs.h **** #include <linux/fcntl.h>
  23:/mnt/c/Users/31740/Desktop/newcore/include/linux/fs.h **** #include <linux/xarray.h>
  24:/mnt/c/Users/31740/Desktop/newcore/include/linux/fs.h **** #include <linux/blkdev.h>
  25:/mnt/c/Users/31740/Desktop/newcore/include/linux/fs.h **** #include <linux/dcache.h>
  26:/mnt/c/Users/31740/Desktop/newcore/include/linux/fs.h **** #include <linux/mm_type.h>
  27:/mnt/c/Users/31740/Desktop/newcore/include/linux/fs.h **** #include <linux/statfs.h>
  28:/mnt/c/Users/31740/Desktop/newcore/include/linux/fs.h **** #include <linux/stat.h>
  29:/mnt/c/Users/31740/Desktop/newcore/include/linux/fs.h **** #include <linux/path.h>
  30:/mnt/c/Users/31740/Desktop/newcore/include/linux/fs.h **** #include <linux/fs_types.h>
  31:/mnt/c/Users/31740/Desktop/newcore/include/linux/fs.h **** 
  32:/mnt/c/Users/31740/Desktop/newcore/include/linux/fs.h **** struct dentry;
  33:/mnt/c/Users/31740/Desktop/newcore/include/linux/fs.h **** struct file;
  34:/mnt/c/Users/31740/Desktop/newcore/include/linux/fs.h **** struct inode;
  35:/mnt/c/Users/31740/Desktop/newcore/include/linux/fs.h **** struct kiocb;
  36:/mnt/c/Users/31740/Desktop/newcore/include/linux/fs.h **** struct file_operations;
  37:/mnt/c/Users/31740/Desktop/newcore/include/linux/fs.h **** struct inode_operations  ;
  38:/mnt/c/Users/31740/Desktop/newcore/include/linux/fs.h **** struct dentry_operations ;
  39:/mnt/c/Users/31740/Desktop/newcore/include/linux/fs.h **** struct writeback_control ;
  40:/mnt/c/Users/31740/Desktop/newcore/include/linux/fs.h **** struct address_space;
  41:/mnt/c/Users/31740/Desktop/newcore/include/linux/fs.h **** struct seq_file ;
  42:/mnt/c/Users/31740/Desktop/newcore/include/linux/fs.h **** struct shrink_control;
  43:/mnt/c/Users/31740/Desktop/newcore/include/linux/fs.h **** struct file_system_type;
  44:/mnt/c/Users/31740/Desktop/newcore/include/linux/fs.h **** struct buffer_head;
  45:/mnt/c/Users/31740/Desktop/newcore/include/linux/fs.h **** struct readahead_control;
  46:/mnt/c/Users/31740/Desktop/newcore/include/linux/fs.h **** 
  47:/mnt/c/Users/31740/Desktop/newcore/include/linux/fs.h **** #define MAY_EXEC		0x00000001
  48:/mnt/c/Users/31740/Desktop/newcore/include/linux/fs.h **** #define MAY_WRITE		0x00000002
  49:/mnt/c/Users/31740/Desktop/newcore/include/linux/fs.h **** #define MAY_READ		0x00000004
  50:/mnt/c/Users/31740/Desktop/newcore/include/linux/fs.h **** #define MAY_APPEND		0x00000008
  51:/mnt/c/Users/31740/Desktop/newcore/include/linux/fs.h **** #define MAY_ACCESS		0x00000010
  52:/mnt/c/Users/31740/Desktop/newcore/include/linux/fs.h **** #define MAY_OPEN		0x00000020
  53:/mnt/c/Users/31740/Desktop/newcore/include/linux/fs.h **** #define MAY_CHDIR		0x00000040
  54:/mnt/c/Users/31740/Desktop/newcore/include/linux/fs.h **** /* called from RCU mode, don't block */
ARM GAS  /tmp/cczxpjuQ.s 			page 49


  55:/mnt/c/Users/31740/Desktop/newcore/include/linux/fs.h **** #define MAY_NOT_BLOCK		0x00000080
  56:/mnt/c/Users/31740/Desktop/newcore/include/linux/fs.h **** 
  57:/mnt/c/Users/31740/Desktop/newcore/include/linux/fs.h **** /*
  58:/mnt/c/Users/31740/Desktop/newcore/include/linux/fs.h ****  * flags in file.f_mode.  Note that FMODE_READ and FMODE_WRITE must correspond
  59:/mnt/c/Users/31740/Desktop/newcore/include/linux/fs.h ****  * to O_WRONLY and O_RDWR via the strange trick in do_dentry_open()
  60:/mnt/c/Users/31740/Desktop/newcore/include/linux/fs.h ****  */
  61:/mnt/c/Users/31740/Desktop/newcore/include/linux/fs.h **** 
  62:/mnt/c/Users/31740/Desktop/newcore/include/linux/fs.h **** /* file is open for reading */
  63:/mnt/c/Users/31740/Desktop/newcore/include/linux/fs.h **** #define FMODE_READ		((__force fmode_t)(1 << 0))
  64:/mnt/c/Users/31740/Desktop/newcore/include/linux/fs.h **** /* file is open for writing */
  65:/mnt/c/Users/31740/Desktop/newcore/include/linux/fs.h **** #define FMODE_WRITE		((__force fmode_t)(1 << 1))
  66:/mnt/c/Users/31740/Desktop/newcore/include/linux/fs.h **** /* file is seekable */
  67:/mnt/c/Users/31740/Desktop/newcore/include/linux/fs.h **** #define FMODE_LSEEK		((__force fmode_t)(1 << 2))
  68:/mnt/c/Users/31740/Desktop/newcore/include/linux/fs.h **** /* file can be accessed using pread */
  69:/mnt/c/Users/31740/Desktop/newcore/include/linux/fs.h **** #define FMODE_PREAD		((__force fmode_t)(1 << 3))
  70:/mnt/c/Users/31740/Desktop/newcore/include/linux/fs.h **** /* file can be accessed using pwrite */
  71:/mnt/c/Users/31740/Desktop/newcore/include/linux/fs.h **** #define FMODE_PWRITE		((__force fmode_t)(1 << 4))
  72:/mnt/c/Users/31740/Desktop/newcore/include/linux/fs.h **** /* File is opened for execution with sys_execve / sys_uselib */
  73:/mnt/c/Users/31740/Desktop/newcore/include/linux/fs.h **** #define FMODE_EXEC		((__force fmode_t)(1 << 5))
  74:/mnt/c/Users/31740/Desktop/newcore/include/linux/fs.h **** /* File writes are restricted (block device specific) */
  75:/mnt/c/Users/31740/Desktop/newcore/include/linux/fs.h **** #define FMODE_WRITE_RESTRICTED	((__force fmode_t)(1 << 6))
  76:/mnt/c/Users/31740/Desktop/newcore/include/linux/fs.h **** /* File supports atomic writes */
  77:/mnt/c/Users/31740/Desktop/newcore/include/linux/fs.h **** #define FMODE_CAN_ATOMIC_WRITE	((__force fmode_t)(1 << 7))
  78:/mnt/c/Users/31740/Desktop/newcore/include/linux/fs.h **** 
  79:/mnt/c/Users/31740/Desktop/newcore/include/linux/fs.h **** /* FMODE_* bit 8 */
  80:/mnt/c/Users/31740/Desktop/newcore/include/linux/fs.h **** 
  81:/mnt/c/Users/31740/Desktop/newcore/include/linux/fs.h **** /* 32bit hashes as llseek() offset (for directories) */
  82:/mnt/c/Users/31740/Desktop/newcore/include/linux/fs.h **** #define FMODE_32BITHASH         ((__force fmode_t)(1 << 9))
  83:/mnt/c/Users/31740/Desktop/newcore/include/linux/fs.h **** /* 64bit hashes as llseek() offset (for directories) */
  84:/mnt/c/Users/31740/Desktop/newcore/include/linux/fs.h **** #define FMODE_64BITHASH         ((__force fmode_t)(1 << 10))
  85:/mnt/c/Users/31740/Desktop/newcore/include/linux/fs.h **** 
  86:/mnt/c/Users/31740/Desktop/newcore/include/linux/fs.h **** /*
  87:/mnt/c/Users/31740/Desktop/newcore/include/linux/fs.h ****  * Don't update ctime and mtime.
  88:/mnt/c/Users/31740/Desktop/newcore/include/linux/fs.h ****  *
  89:/mnt/c/Users/31740/Desktop/newcore/include/linux/fs.h ****  * Currently a special hack for the XFS open_by_handle ioctl, but we'll
  90:/mnt/c/Users/31740/Desktop/newcore/include/linux/fs.h ****  * hopefully graduate it to a proper O_CMTIME flag supported by open(2) soon.
  91:/mnt/c/Users/31740/Desktop/newcore/include/linux/fs.h ****  */
  92:/mnt/c/Users/31740/Desktop/newcore/include/linux/fs.h **** #define FMODE_NOCMTIME		((__force fmode_t)(1 << 11))
  93:/mnt/c/Users/31740/Desktop/newcore/include/linux/fs.h **** 
  94:/mnt/c/Users/31740/Desktop/newcore/include/linux/fs.h **** /* Expect random access pattern */
  95:/mnt/c/Users/31740/Desktop/newcore/include/linux/fs.h **** #define FMODE_RANDOM		((__force fmode_t)(1 << 12))
  96:/mnt/c/Users/31740/Desktop/newcore/include/linux/fs.h **** 
  97:/mnt/c/Users/31740/Desktop/newcore/include/linux/fs.h **** /* FMODE_* bit 13 */
  98:/mnt/c/Users/31740/Desktop/newcore/include/linux/fs.h **** 
  99:/mnt/c/Users/31740/Desktop/newcore/include/linux/fs.h **** /* File is opened with O_PATH; almost nothing can be done with it */
 100:/mnt/c/Users/31740/Desktop/newcore/include/linux/fs.h **** #define FMODE_PATH		((__force fmode_t)(1 << 14))
 101:/mnt/c/Users/31740/Desktop/newcore/include/linux/fs.h **** 
