ARM GAS  /tmp/ccx7BnH6.s 			page 1


   1              		.cpu cortex-m4
   2              		.arch armv7e-m
   3              		.fpu fpv4-sp-d16
   4              		.eabi_attribute 27, 1
   5              		.eabi_attribute 28, 1
   6              		.eabi_attribute 20, 1
   7              		.eabi_attribute 21, 1
   8              		.eabi_attribute 23, 3
   9              		.eabi_attribute 24, 1
  10              		.eabi_attribute 25, 1
  11              		.eabi_attribute 26, 1
  12              		.eabi_attribute 30, 1
  13              		.eabi_attribute 34, 1
  14              		.eabi_attribute 18, 4
  15              		.file	"lockref.c"
  16              		.text
  17              	.Ltext0:
  18              		.cfi_sections	.debug_frame
  19              		.file 1 "/mnt/c/Users/31740/Desktop/newcore/lib/lockref.c"
  20              		.section	.text.__spin_unlock,"ax",%progbits
  21              		.align	1
  22              		.syntax unified
  23              		.thumb
  24              		.thumb_func
  26              	__spin_unlock:
  27              	.LVL0:
  28              	.LFB111:
  29              		.file 2 "/mnt/c/Users/31740/Desktop/newcore/arch/arm_m/include/asm/spinlock.h"
   1:/mnt/c/Users/31740/Desktop/newcore/arch/arm_m/include/asm/spinlock.h **** #ifndef __SPIN_LOCK_H_
   2:/mnt/c/Users/31740/Desktop/newcore/arch/arm_m/include/asm/spinlock.h **** #define __SPIN_LOCK_H_
   3:/mnt/c/Users/31740/Desktop/newcore/arch/arm_m/include/asm/spinlock.h **** 
   4:/mnt/c/Users/31740/Desktop/newcore/arch/arm_m/include/asm/spinlock.h **** #include <linux/sched.h>
   5:/mnt/c/Users/31740/Desktop/newcore/arch/arm_m/include/asm/spinlock.h **** 
   6:/mnt/c/Users/31740/Desktop/newcore/arch/arm_m/include/asm/spinlock.h **** typedef struct { 
   7:/mnt/c/Users/31740/Desktop/newcore/arch/arm_m/include/asm/spinlock.h ****      int flag; 
   8:/mnt/c/Users/31740/Desktop/newcore/arch/arm_m/include/asm/spinlock.h **** } arch_spinlock_t;
   9:/mnt/c/Users/31740/Desktop/newcore/arch/arm_m/include/asm/spinlock.h **** 
  10:/mnt/c/Users/31740/Desktop/newcore/arch/arm_m/include/asm/spinlock.h **** static int __spin_init(arch_spinlock_t *lock) 
  11:/mnt/c/Users/31740/Desktop/newcore/arch/arm_m/include/asm/spinlock.h **** {
  12:/mnt/c/Users/31740/Desktop/newcore/arch/arm_m/include/asm/spinlock.h ****     lock->flag = 0;
  13:/mnt/c/Users/31740/Desktop/newcore/arch/arm_m/include/asm/spinlock.h **** }
  14:/mnt/c/Users/31740/Desktop/newcore/arch/arm_m/include/asm/spinlock.h **** 
  15:/mnt/c/Users/31740/Desktop/newcore/arch/arm_m/include/asm/spinlock.h **** static int __spin_lock(arch_spinlock_t *lock) {
  16:/mnt/c/Users/31740/Desktop/newcore/arch/arm_m/include/asm/spinlock.h **** 
  17:/mnt/c/Users/31740/Desktop/newcore/arch/arm_m/include/asm/spinlock.h ****     stop_all_scheduler();
  18:/mnt/c/Users/31740/Desktop/newcore/arch/arm_m/include/asm/spinlock.h ****     if(lock->flag == 0){
  19:/mnt/c/Users/31740/Desktop/newcore/arch/arm_m/include/asm/spinlock.h ****           lock->flag = 1;  
  20:/mnt/c/Users/31740/Desktop/newcore/arch/arm_m/include/asm/spinlock.h ****           start_all_scheduler();
  21:/mnt/c/Users/31740/Desktop/newcore/arch/arm_m/include/asm/spinlock.h ****         return 1;
  22:/mnt/c/Users/31740/Desktop/newcore/arch/arm_m/include/asm/spinlock.h ****     }
  23:/mnt/c/Users/31740/Desktop/newcore/arch/arm_m/include/asm/spinlock.h ****     else
  24:/mnt/c/Users/31740/Desktop/newcore/arch/arm_m/include/asm/spinlock.h ****     {
  25:/mnt/c/Users/31740/Desktop/newcore/arch/arm_m/include/asm/spinlock.h ****         start_all_scheduler();
  26:/mnt/c/Users/31740/Desktop/newcore/arch/arm_m/include/asm/spinlock.h ****         return 0;
  27:/mnt/c/Users/31740/Desktop/newcore/arch/arm_m/include/asm/spinlock.h ****     }
  28:/mnt/c/Users/31740/Desktop/newcore/arch/arm_m/include/asm/spinlock.h **** }
  29:/mnt/c/Users/31740/Desktop/newcore/arch/arm_m/include/asm/spinlock.h **** 
ARM GAS  /tmp/ccx7BnH6.s 			page 2


  30:/mnt/c/Users/31740/Desktop/newcore/arch/arm_m/include/asm/spinlock.h **** static void  __spin_unlock( arch_spinlock_t *lock ){
  30              		.loc 2 30 52 view -0
  31              		.cfi_startproc
  32              		@ args = 0, pretend = 0, frame = 0
  33              		@ frame_needed = 0, uses_anonymous_args = 0
  34              		@ link register save eliminated.
  31:/mnt/c/Users/31740/Desktop/newcore/arch/arm_m/include/asm/spinlock.h ****     lock->flag = 0;
  35              		.loc 2 31 5 view .LVU1
  36              		.loc 2 31 16 is_stmt 0 view .LVU2
  37 0000 0023     		movs	r3, #0
  38 0002 0360     		str	r3, [r0]
  32:/mnt/c/Users/31740/Desktop/newcore/arch/arm_m/include/asm/spinlock.h **** }
  39              		.loc 2 32 1 view .LVU3
  40 0004 7047     		bx	lr
  41              		.cfi_endproc
  42              	.LFE111:
  44              		.section	.text.spin_unlock,"ax",%progbits
  45              		.align	1
  46              		.syntax unified
  47              		.thumb
  48              		.thumb_func
  50              	spin_unlock:
  51              	.LVL1:
  52              	.LFB114:
  53              		.file 3 "/mnt/c/Users/31740/Desktop/newcore/include/linux/spinlock.h"
   1:/mnt/c/Users/31740/Desktop/newcore/include/linux/spinlock.h **** #ifndef __SPINLOCK_H__
   2:/mnt/c/Users/31740/Desktop/newcore/include/linux/spinlock.h **** #define __SPINLOCK_H__
   3:/mnt/c/Users/31740/Desktop/newcore/include/linux/spinlock.h **** 
   4:/mnt/c/Users/31740/Desktop/newcore/include/linux/spinlock.h **** #include <linux/types.h>
   5:/mnt/c/Users/31740/Desktop/newcore/include/linux/spinlock.h **** #include <linux/spinlock_types.h>
   6:/mnt/c/Users/31740/Desktop/newcore/include/linux/spinlock.h **** #include <linux/sched.h>
   7:/mnt/c/Users/31740/Desktop/newcore/include/linux/spinlock.h **** 
   8:/mnt/c/Users/31740/Desktop/newcore/include/linux/spinlock.h **** 
   9:/mnt/c/Users/31740/Desktop/newcore/include/linux/spinlock.h **** 
  10:/mnt/c/Users/31740/Desktop/newcore/include/linux/spinlock.h **** static void spin_lock_init(spinlock_t* lock){
  11:/mnt/c/Users/31740/Desktop/newcore/include/linux/spinlock.h ****     __spin_init(&lock->rlock.raw_lock);
  12:/mnt/c/Users/31740/Desktop/newcore/include/linux/spinlock.h **** }
  13:/mnt/c/Users/31740/Desktop/newcore/include/linux/spinlock.h **** 
  14:/mnt/c/Users/31740/Desktop/newcore/include/linux/spinlock.h **** static void spin_lock(spinlock_t* lock)
  15:/mnt/c/Users/31740/Desktop/newcore/include/linux/spinlock.h **** {  
  16:/mnt/c/Users/31740/Desktop/newcore/include/linux/spinlock.h ****     while (1)
  17:/mnt/c/Users/31740/Desktop/newcore/include/linux/spinlock.h ****     {
  18:/mnt/c/Users/31740/Desktop/newcore/include/linux/spinlock.h ****         if(__spin_lock(&lock->rlock.raw_lock) == 1){
  19:/mnt/c/Users/31740/Desktop/newcore/include/linux/spinlock.h ****             lock->owner = get_current_task();
  20:/mnt/c/Users/31740/Desktop/newcore/include/linux/spinlock.h ****             break;
  21:/mnt/c/Users/31740/Desktop/newcore/include/linux/spinlock.h ****         }
  22:/mnt/c/Users/31740/Desktop/newcore/include/linux/spinlock.h ****         else  if(lock->owner == get_current_task()){  //å¦‚æžœå·²ç»è¢«é”ä½ä½†æ˜¯é”æ˜¯è‡ªå·±çš„ï
  23:/mnt/c/Users/31740/Desktop/newcore/include/linux/spinlock.h ****             return;   
  24:/mnt/c/Users/31740/Desktop/newcore/include/linux/spinlock.h ****         }
  25:/mnt/c/Users/31740/Desktop/newcore/include/linux/spinlock.h ****         else{
  26:/mnt/c/Users/31740/Desktop/newcore/include/linux/spinlock.h ****             __delay(5); //ä¸»åŠ¨è®©å‡ºæ—¶é—´ç‰‡
  27:/mnt/c/Users/31740/Desktop/newcore/include/linux/spinlock.h ****         }
  28:/mnt/c/Users/31740/Desktop/newcore/include/linux/spinlock.h ****     }
  29:/mnt/c/Users/31740/Desktop/newcore/include/linux/spinlock.h **** }
  30:/mnt/c/Users/31740/Desktop/newcore/include/linux/spinlock.h **** 
  31:/mnt/c/Users/31740/Desktop/newcore/include/linux/spinlock.h **** static void spin_unlock(spinlock_t* lock)
  32:/mnt/c/Users/31740/Desktop/newcore/include/linux/spinlock.h **** {
ARM GAS  /tmp/ccx7BnH6.s 			page 3


  54              		.loc 3 32 1 is_stmt 1 view -0
  55              		.cfi_startproc
  56              		@ args = 0, pretend = 0, frame = 0
  57              		@ frame_needed = 0, uses_anonymous_args = 0
  58              		.loc 3 32 1 is_stmt 0 view .LVU5
  59 0000 08B5     		push	{r3, lr}
  60              	.LCFI0:
  61              		.cfi_def_cfa_offset 8
  62              		.cfi_offset 3, -8
  63              		.cfi_offset 14, -4
  33:/mnt/c/Users/31740/Desktop/newcore/include/linux/spinlock.h ****     __spin_unlock(&lock->rlock.raw_lock);
  64              		.loc 3 33 5 is_stmt 1 view .LVU6
  65 0002 FFF7FEFF 		bl	__spin_unlock
  66              	.LVL2:
  34:/mnt/c/Users/31740/Desktop/newcore/include/linux/spinlock.h **** }
  67              		.loc 3 34 1 is_stmt 0 view .LVU7
  68 0006 08BD     		pop	{r3, pc}
  69              		.cfi_endproc
  70              	.LFE114:
  72              		.section	.text.__spin_lock,"ax",%progbits
  73              		.align	1
  74              		.syntax unified
  75              		.thumb
  76              		.thumb_func
  78              	__spin_lock:
  79              	.LVL3:
  80              	.LFB110:
  15:/mnt/c/Users/31740/Desktop/newcore/arch/arm_m/include/asm/spinlock.h **** 
  81              		.loc 2 15 47 is_stmt 1 view -0
  82              		.cfi_startproc
  83              		@ args = 0, pretend = 0, frame = 0
  84              		@ frame_needed = 0, uses_anonymous_args = 0
  15:/mnt/c/Users/31740/Desktop/newcore/arch/arm_m/include/asm/spinlock.h **** 
  85              		.loc 2 15 47 is_stmt 0 view .LVU9
  86 0000 38B5     		push	{r3, r4, r5, lr}
  87              	.LCFI1:
  88              		.cfi_def_cfa_offset 16
  89              		.cfi_offset 3, -16
  90              		.cfi_offset 4, -12
  91              		.cfi_offset 5, -8
  92              		.cfi_offset 14, -4
  93 0002 0446     		mov	r4, r0
  17:/mnt/c/Users/31740/Desktop/newcore/arch/arm_m/include/asm/spinlock.h ****     if(lock->flag == 0){
  94              		.loc 2 17 5 is_stmt 1 view .LVU10
  95 0004 FFF7FEFF 		bl	stop_all_scheduler
  96              	.LVL4:
  18:/mnt/c/Users/31740/Desktop/newcore/arch/arm_m/include/asm/spinlock.h ****           lock->flag = 1;  
  97              		.loc 2 18 5 view .LVU11
  18:/mnt/c/Users/31740/Desktop/newcore/arch/arm_m/include/asm/spinlock.h ****           lock->flag = 1;  
  98              		.loc 2 18 12 is_stmt 0 view .LVU12
  99 0008 2368     		ldr	r3, [r4]
  18:/mnt/c/Users/31740/Desktop/newcore/arch/arm_m/include/asm/spinlock.h ****           lock->flag = 1;  
 100              		.loc 2 18 7 view .LVU13
 101 000a 2BB9     		cbnz	r3, .L5
  19:/mnt/c/Users/31740/Desktop/newcore/arch/arm_m/include/asm/spinlock.h ****           start_all_scheduler();
 102              		.loc 2 19 11 is_stmt 1 view .LVU14
  19:/mnt/c/Users/31740/Desktop/newcore/arch/arm_m/include/asm/spinlock.h ****           start_all_scheduler();
ARM GAS  /tmp/ccx7BnH6.s 			page 4


 103              		.loc 2 19 22 is_stmt 0 view .LVU15
 104 000c 0125     		movs	r5, #1
 105 000e 2560     		str	r5, [r4]
  20:/mnt/c/Users/31740/Desktop/newcore/arch/arm_m/include/asm/spinlock.h ****         return 1;
 106              		.loc 2 20 11 is_stmt 1 view .LVU16
 107 0010 FFF7FEFF 		bl	start_all_scheduler
 108              	.LVL5:
  21:/mnt/c/Users/31740/Desktop/newcore/arch/arm_m/include/asm/spinlock.h ****     }
 109              		.loc 2 21 9 view .LVU17
  21:/mnt/c/Users/31740/Desktop/newcore/arch/arm_m/include/asm/spinlock.h ****     }
 110              		.loc 2 21 16 is_stmt 0 view .LVU18
 111 0014 2846     		mov	r0, r5
 112              	.L4:
  28:/mnt/c/Users/31740/Desktop/newcore/arch/arm_m/include/asm/spinlock.h **** 
 113              		.loc 2 28 1 view .LVU19
 114 0016 38BD     		pop	{r3, r4, r5, pc}
 115              	.LVL6:
 116              	.L5:
  25:/mnt/c/Users/31740/Desktop/newcore/arch/arm_m/include/asm/spinlock.h ****         return 0;
 117              		.loc 2 25 9 is_stmt 1 view .LVU20
 118 0018 FFF7FEFF 		bl	start_all_scheduler
 119              	.LVL7:
  26:/mnt/c/Users/31740/Desktop/newcore/arch/arm_m/include/asm/spinlock.h ****     }
 120              		.loc 2 26 9 view .LVU21
  26:/mnt/c/Users/31740/Desktop/newcore/arch/arm_m/include/asm/spinlock.h ****     }
 121              		.loc 2 26 16 is_stmt 0 view .LVU22
 122 001c 0020     		movs	r0, #0
 123 001e FAE7     		b	.L4
 124              		.cfi_endproc
 125              	.LFE110:
 127              		.section	.text.spin_lock,"ax",%progbits
 128              		.align	1
 129              		.syntax unified
 130              		.thumb
 131              		.thumb_func
 133              	spin_lock:
 134              	.LVL8:
 135              	.LFB113:
  15:/mnt/c/Users/31740/Desktop/newcore/include/linux/spinlock.h ****     while (1)
 136              		.loc 3 15 1 is_stmt 1 view -0
 137              		.cfi_startproc
 138              		@ args = 0, pretend = 0, frame = 0
 139              		@ frame_needed = 0, uses_anonymous_args = 0
  15:/mnt/c/Users/31740/Desktop/newcore/include/linux/spinlock.h ****     while (1)
 140              		.loc 3 15 1 is_stmt 0 view .LVU24
 141 0000 38B5     		push	{r3, r4, r5, lr}
 142              	.LCFI2:
 143              		.cfi_def_cfa_offset 16
 144              		.cfi_offset 3, -16
 145              		.cfi_offset 4, -12
 146              		.cfi_offset 5, -8
 147              		.cfi_offset 14, -4
 148 0002 0446     		mov	r4, r0
 149 0004 06E0     		b	.L11
 150              	.LVL9:
 151              	.L13:
  19:/mnt/c/Users/31740/Desktop/newcore/include/linux/spinlock.h ****             break;
ARM GAS  /tmp/ccx7BnH6.s 			page 5


 152              		.loc 3 19 13 is_stmt 1 view .LVU25
  19:/mnt/c/Users/31740/Desktop/newcore/include/linux/spinlock.h ****             break;
 153              		.loc 3 19 27 is_stmt 0 view .LVU26
 154 0006 FFF7FEFF 		bl	get_current_task
 155              	.LVL10:
  19:/mnt/c/Users/31740/Desktop/newcore/include/linux/spinlock.h ****             break;
 156              		.loc 3 19 25 discriminator 1 view .LVU27
 157 000a 2060     		str	r0, [r4]
  20:/mnt/c/Users/31740/Desktop/newcore/include/linux/spinlock.h ****         }
 158              		.loc 3 20 13 is_stmt 1 view .LVU28
 159              	.L8:
  29:/mnt/c/Users/31740/Desktop/newcore/include/linux/spinlock.h **** 
 160              		.loc 3 29 1 is_stmt 0 view .LVU29
 161 000c 38BD     		pop	{r3, r4, r5, pc}
 162              	.LVL11:
 163              	.L14:
  26:/mnt/c/Users/31740/Desktop/newcore/include/linux/spinlock.h ****         }
 164              		.loc 3 26 13 is_stmt 1 view .LVU30
 165 000e 0520     		movs	r0, #5
 166 0010 FFF7FEFF 		bl	__delay
 167              	.LVL12:
  16:/mnt/c/Users/31740/Desktop/newcore/include/linux/spinlock.h ****     {
 168              		.loc 3 16 11 view .LVU31
 169              	.L11:
  16:/mnt/c/Users/31740/Desktop/newcore/include/linux/spinlock.h ****     {
 170              		.loc 3 16 5 view .LVU32
  18:/mnt/c/Users/31740/Desktop/newcore/include/linux/spinlock.h ****             lock->owner = get_current_task();
 171              		.loc 3 18 9 view .LVU33
  18:/mnt/c/Users/31740/Desktop/newcore/include/linux/spinlock.h ****             lock->owner = get_current_task();
 172              		.loc 3 18 12 is_stmt 0 view .LVU34
 173 0014 2046     		mov	r0, r4
 174 0016 FFF7FEFF 		bl	__spin_lock
 175              	.LVL13:
  18:/mnt/c/Users/31740/Desktop/newcore/include/linux/spinlock.h ****             lock->owner = get_current_task();
 176              		.loc 3 18 11 discriminator 1 view .LVU35
 177 001a 0128     		cmp	r0, #1
 178 001c F3D0     		beq	.L13
  22:/mnt/c/Users/31740/Desktop/newcore/include/linux/spinlock.h ****             return;   
 179              		.loc 3 22 15 is_stmt 1 view .LVU36
  22:/mnt/c/Users/31740/Desktop/newcore/include/linux/spinlock.h ****             return;   
 180              		.loc 3 22 22 is_stmt 0 view .LVU37
 181 001e 2568     		ldr	r5, [r4]
  22:/mnt/c/Users/31740/Desktop/newcore/include/linux/spinlock.h ****             return;   
 182              		.loc 3 22 33 view .LVU38
 183 0020 FFF7FEFF 		bl	get_current_task
 184              	.LVL14:
  22:/mnt/c/Users/31740/Desktop/newcore/include/linux/spinlock.h ****             return;   
 185              		.loc 3 22 17 discriminator 1 view .LVU39
 186 0024 8542     		cmp	r5, r0
 187 0026 F2D1     		bne	.L14
 188 0028 F0E7     		b	.L8
 189              		.cfi_endproc
 190              	.LFE113:
 192              		.section	.text.lockref_get,"ax",%progbits
 193              		.align	1
 194              		.global	lockref_get
 195              		.syntax unified
ARM GAS  /tmp/ccx7BnH6.s 			page 6


 196              		.thumb
 197              		.thumb_func
 199              	lockref_get:
 200              	.LVL15:
 201              	.LFB233:
   1:/mnt/c/Users/31740/Desktop/newcore/lib/lockref.c **** // SPDX-License-Identifier: GPL-2.0
   2:/mnt/c/Users/31740/Desktop/newcore/lib/lockref.c **** #include <linux/lockref.h>
   3:/mnt/c/Users/31740/Desktop/newcore/lib/lockref.c **** #include <linux/kernel.h>
   4:/mnt/c/Users/31740/Desktop/newcore/lib/lockref.c **** #include <linux/spinlock.h>
   5:/mnt/c/Users/31740/Desktop/newcore/lib/lockref.c **** 
   6:/mnt/c/Users/31740/Desktop/newcore/lib/lockref.c **** /*
   7:/mnt/c/Users/31740/Desktop/newcore/lib/lockref.c ****  * é€’å¢žå¼•ç”¨è®¡æ•°
   8:/mnt/c/Users/31740/Desktop/newcore/lib/lockref.c ****  */
   9:/mnt/c/Users/31740/Desktop/newcore/lib/lockref.c **** void lockref_get(struct lockref *lr)
  10:/mnt/c/Users/31740/Desktop/newcore/lib/lockref.c **** {
 202              		.loc 1 10 1 is_stmt 1 view -0
 203              		.cfi_startproc
 204              		@ args = 0, pretend = 0, frame = 0
 205              		@ frame_needed = 0, uses_anonymous_args = 0
 206              		.loc 1 10 1 is_stmt 0 view .LVU41
 207 0000 10B5     		push	{r4, lr}
 208              	.LCFI3:
 209              		.cfi_def_cfa_offset 8
 210              		.cfi_offset 4, -8
 211              		.cfi_offset 14, -4
 212 0002 0446     		mov	r4, r0
  11:/mnt/c/Users/31740/Desktop/newcore/lib/lockref.c ****     spin_lock(&lr->lock);
 213              		.loc 1 11 5 is_stmt 1 view .LVU42
 214 0004 FFF7FEFF 		bl	spin_lock
 215              	.LVL16:
  12:/mnt/c/Users/31740/Desktop/newcore/lib/lockref.c ****     lr->count++;
 216              		.loc 1 12 5 view .LVU43
 217              		.loc 1 12 7 is_stmt 0 view .LVU44
 218 0008 2369     		ldr	r3, [r4, #16]
 219              		.loc 1 12 14 view .LVU45
 220 000a 0133     		adds	r3, r3, #1
 221 000c 2361     		str	r3, [r4, #16]
  13:/mnt/c/Users/31740/Desktop/newcore/lib/lockref.c ****     spin_unlock(&lr->lock);
 222              		.loc 1 13 5 is_stmt 1 view .LVU46
 223 000e 2046     		mov	r0, r4
 224 0010 FFF7FEFF 		bl	spin_unlock
 225              	.LVL17:
  14:/mnt/c/Users/31740/Desktop/newcore/lib/lockref.c **** }
 226              		.loc 1 14 1 is_stmt 0 view .LVU47
 227 0014 10BD     		pop	{r4, pc}
 228              		.loc 1 14 1 view .LVU48
 229              		.cfi_endproc
 230              	.LFE233:
 232              		.section	.text.lockref_put_return,"ax",%progbits
 233              		.align	1
 234              		.global	lockref_put_return
 235              		.syntax unified
 236              		.thumb
 237              		.thumb_func
 239              	lockref_put_return:
 240              	.LVL18:
 241              	.LFB234:
ARM GAS  /tmp/ccx7BnH6.s 			page 7


  15:/mnt/c/Users/31740/Desktop/newcore/lib/lockref.c **** 
  16:/mnt/c/Users/31740/Desktop/newcore/lib/lockref.c **** /*
  17:/mnt/c/Users/31740/Desktop/newcore/lib/lockref.c ****  * é€’å‡å¼•ç”¨è®¡æ•°ï¼Œè¿”å›žæ–°å€¼
  18:/mnt/c/Users/31740/Desktop/newcore/lib/lockref.c ****  */
  19:/mnt/c/Users/31740/Desktop/newcore/lib/lockref.c **** int lockref_put_return(struct lockref *lr)
  20:/mnt/c/Users/31740/Desktop/newcore/lib/lockref.c **** {
 242              		.loc 1 20 1 is_stmt 1 view -0
 243              		.cfi_startproc
 244              		@ args = 0, pretend = 0, frame = 0
 245              		@ frame_needed = 0, uses_anonymous_args = 0
 246              		.loc 1 20 1 is_stmt 0 view .LVU50
 247 0000 38B5     		push	{r3, r4, r5, lr}
 248              	.LCFI4:
 249              		.cfi_def_cfa_offset 16
 250              		.cfi_offset 3, -16
 251              		.cfi_offset 4, -12
 252              		.cfi_offset 5, -8
 253              		.cfi_offset 14, -4
 254 0002 0446     		mov	r4, r0
  21:/mnt/c/Users/31740/Desktop/newcore/lib/lockref.c ****     int ret;
 255              		.loc 1 21 5 is_stmt 1 view .LVU51
  22:/mnt/c/Users/31740/Desktop/newcore/lib/lockref.c ****     spin_lock(&lr->lock);
 256              		.loc 1 22 5 view .LVU52
 257 0004 FFF7FEFF 		bl	spin_lock
 258              	.LVL19:
  23:/mnt/c/Users/31740/Desktop/newcore/lib/lockref.c ****     lr->count--;
 259              		.loc 1 23 5 view .LVU53
 260              		.loc 1 23 7 is_stmt 0 view .LVU54
 261 0008 2569     		ldr	r5, [r4, #16]
 262              		.loc 1 23 14 view .LVU55
 263 000a 013D     		subs	r5, r5, #1
 264 000c 2561     		str	r5, [r4, #16]
  24:/mnt/c/Users/31740/Desktop/newcore/lib/lockref.c ****     ret = lr->count;
 265              		.loc 1 24 5 is_stmt 1 view .LVU56
 266              	.LVL20:
  25:/mnt/c/Users/31740/Desktop/newcore/lib/lockref.c ****     spin_unlock(&lr->lock);
 267              		.loc 1 25 5 view .LVU57
 268 000e 2046     		mov	r0, r4
 269 0010 FFF7FEFF 		bl	spin_unlock
 270              	.LVL21:
  26:/mnt/c/Users/31740/Desktop/newcore/lib/lockref.c ****     return ret;
 271              		.loc 1 26 5 view .LVU58
  27:/mnt/c/Users/31740/Desktop/newcore/lib/lockref.c **** }
 272              		.loc 1 27 1 is_stmt 0 view .LVU59
 273 0014 2846     		mov	r0, r5
 274 0016 38BD     		pop	{r3, r4, r5, pc}
 275              		.loc 1 27 1 view .LVU60
 276              		.cfi_endproc
 277              	.LFE234:
 279              		.section	.text.lockref_get_not_zero,"ax",%progbits
 280              		.align	1
 281              		.global	lockref_get_not_zero
 282              		.syntax unified
 283              		.thumb
 284              		.thumb_func
 286              	lockref_get_not_zero:
 287              	.LVL22:
ARM GAS  /tmp/ccx7BnH6.s 			page 8


 288              	.LFB235:
  28:/mnt/c/Users/31740/Desktop/newcore/lib/lockref.c **** 
  29:/mnt/c/Users/31740/Desktop/newcore/lib/lockref.c **** /*
  30:/mnt/c/Users/31740/Desktop/newcore/lib/lockref.c ****  * å¦‚æžœ count != 0ï¼Œåˆ™é€’å¢žï¼Œè¿”å›ž1ï¼Œå¦åˆ™è¿”å›ž0
  31:/mnt/c/Users/31740/Desktop/newcore/lib/lockref.c ****  */
  32:/mnt/c/Users/31740/Desktop/newcore/lib/lockref.c **** int lockref_get_not_zero(struct lockref *lr)
  33:/mnt/c/Users/31740/Desktop/newcore/lib/lockref.c **** {
 289              		.loc 1 33 1 is_stmt 1 view -0
 290              		.cfi_startproc
 291              		@ args = 0, pretend = 0, frame = 0
 292              		@ frame_needed = 0, uses_anonymous_args = 0
 293              		.loc 1 33 1 is_stmt 0 view .LVU62
 294 0000 38B5     		push	{r3, r4, r5, lr}
 295              	.LCFI5:
 296              		.cfi_def_cfa_offset 16
 297              		.cfi_offset 3, -16
 298              		.cfi_offset 4, -12
 299              		.cfi_offset 5, -8
 300              		.cfi_offset 14, -4
 301 0002 0446     		mov	r4, r0
  34:/mnt/c/Users/31740/Desktop/newcore/lib/lockref.c ****     int ret = 0;
 302              		.loc 1 34 5 is_stmt 1 view .LVU63
 303              	.LVL23:
  35:/mnt/c/Users/31740/Desktop/newcore/lib/lockref.c ****     spin_lock(&lr->lock);
 304              		.loc 1 35 5 view .LVU64
 305 0004 FFF7FEFF 		bl	spin_lock
 306              	.LVL24:
  36:/mnt/c/Users/31740/Desktop/newcore/lib/lockref.c ****     if (lr->count != 0) {
 307              		.loc 1 36 5 view .LVU65
 308              		.loc 1 36 11 is_stmt 0 view .LVU66
 309 0008 2569     		ldr	r5, [r4, #16]
 310              		.loc 1 36 8 view .LVU67
 311 000a 15B1     		cbz	r5, .L20
  37:/mnt/c/Users/31740/Desktop/newcore/lib/lockref.c ****         lr->count++;
 312              		.loc 1 37 9 is_stmt 1 view .LVU68
 313              		.loc 1 37 18 is_stmt 0 view .LVU69
 314 000c 0135     		adds	r5, r5, #1
 315 000e 2561     		str	r5, [r4, #16]
  38:/mnt/c/Users/31740/Desktop/newcore/lib/lockref.c ****         ret = 1;
 316              		.loc 1 38 9 is_stmt 1 view .LVU70
 317              	.LVL25:
 318              		.loc 1 38 13 is_stmt 0 view .LVU71
 319 0010 0125     		movs	r5, #1
 320              	.LVL26:
 321              	.L20:
  39:/mnt/c/Users/31740/Desktop/newcore/lib/lockref.c ****     }
  40:/mnt/c/Users/31740/Desktop/newcore/lib/lockref.c ****     spin_unlock(&lr->lock);
 322              		.loc 1 40 5 is_stmt 1 view .LVU72
 323 0012 2046     		mov	r0, r4
 324 0014 FFF7FEFF 		bl	spin_unlock
 325              	.LVL27:
  41:/mnt/c/Users/31740/Desktop/newcore/lib/lockref.c ****     return ret;
 326              		.loc 1 41 5 view .LVU73
  42:/mnt/c/Users/31740/Desktop/newcore/lib/lockref.c **** }
 327              		.loc 1 42 1 is_stmt 0 view .LVU74
 328 0018 2846     		mov	r0, r5
 329 001a 38BD     		pop	{r3, r4, r5, pc}
ARM GAS  /tmp/ccx7BnH6.s 			page 9


 330              		.loc 1 42 1 view .LVU75
 331              		.cfi_endproc
 332              	.LFE235:
 334              		.section	.text.lockref_put_not_zero,"ax",%progbits
 335              		.align	1
 336              		.global	lockref_put_not_zero
 337              		.syntax unified
 338              		.thumb
 339              		.thumb_func
 341              	lockref_put_not_zero:
 342              	.LVL28:
 343              	.LFB236:
  43:/mnt/c/Users/31740/Desktop/newcore/lib/lockref.c **** 
  44:/mnt/c/Users/31740/Desktop/newcore/lib/lockref.c **** /*
  45:/mnt/c/Users/31740/Desktop/newcore/lib/lockref.c ****  * å¦‚æžœ count != 0ï¼Œé€’å‡ï¼Œè¿”å›ž1ï¼Œå¦åˆ™è¿”å›ž0
  46:/mnt/c/Users/31740/Desktop/newcore/lib/lockref.c ****  */
  47:/mnt/c/Users/31740/Desktop/newcore/lib/lockref.c **** int lockref_put_not_zero(struct lockref *lr)
  48:/mnt/c/Users/31740/Desktop/newcore/lib/lockref.c **** {
 344              		.loc 1 48 1 is_stmt 1 view -0
 345              		.cfi_startproc
 346              		@ args = 0, pretend = 0, frame = 0
 347              		@ frame_needed = 0, uses_anonymous_args = 0
 348              		.loc 1 48 1 is_stmt 0 view .LVU77
 349 0000 38B5     		push	{r3, r4, r5, lr}
 350              	.LCFI6:
 351              		.cfi_def_cfa_offset 16
 352              		.cfi_offset 3, -16
 353              		.cfi_offset 4, -12
 354              		.cfi_offset 5, -8
 355              		.cfi_offset 14, -4
 356 0002 0446     		mov	r4, r0
  49:/mnt/c/Users/31740/Desktop/newcore/lib/lockref.c ****     int ret = 0;
 357              		.loc 1 49 5 is_stmt 1 view .LVU78
 358              	.LVL29:
  50:/mnt/c/Users/31740/Desktop/newcore/lib/lockref.c ****     spin_lock(&lr->lock);
 359              		.loc 1 50 5 view .LVU79
 360 0004 FFF7FEFF 		bl	spin_lock
 361              	.LVL30:
  51:/mnt/c/Users/31740/Desktop/newcore/lib/lockref.c ****     if (lr->count != 0) {
 362              		.loc 1 51 5 view .LVU80
 363              		.loc 1 51 11 is_stmt 0 view .LVU81
 364 0008 2569     		ldr	r5, [r4, #16]
 365              		.loc 1 51 8 view .LVU82
 366 000a 15B1     		cbz	r5, .L23
  52:/mnt/c/Users/31740/Desktop/newcore/lib/lockref.c ****         lr->count--;
 367              		.loc 1 52 9 is_stmt 1 view .LVU83
 368              		.loc 1 52 18 is_stmt 0 view .LVU84
 369 000c 013D     		subs	r5, r5, #1
 370 000e 2561     		str	r5, [r4, #16]
  53:/mnt/c/Users/31740/Desktop/newcore/lib/lockref.c ****         ret = 1;
 371              		.loc 1 53 9 is_stmt 1 view .LVU85
 372              	.LVL31:
 373              		.loc 1 53 13 is_stmt 0 view .LVU86
 374 0010 0125     		movs	r5, #1
 375              	.LVL32:
 376              	.L23:
  54:/mnt/c/Users/31740/Desktop/newcore/lib/lockref.c ****     }
ARM GAS  /tmp/ccx7BnH6.s 			page 10


  55:/mnt/c/Users/31740/Desktop/newcore/lib/lockref.c ****     spin_unlock(&lr->lock);
 377              		.loc 1 55 5 is_stmt 1 view .LVU87
 378 0012 2046     		mov	r0, r4
 379 0014 FFF7FEFF 		bl	spin_unlock
 380              	.LVL33:
  56:/mnt/c/Users/31740/Desktop/newcore/lib/lockref.c ****     return ret;
 381              		.loc 1 56 5 view .LVU88
  57:/mnt/c/Users/31740/Desktop/newcore/lib/lockref.c **** }
 382              		.loc 1 57 1 is_stmt 0 view .LVU89
 383 0018 2846     		mov	r0, r5
 384 001a 38BD     		pop	{r3, r4, r5, pc}
 385              		.loc 1 57 1 view .LVU90
 386              		.cfi_endproc
 387              	.LFE236:
 389              		.section	.text.lockref_put_or_lock,"ax",%progbits
 390              		.align	1
 391              		.global	lockref_put_or_lock
 392              		.syntax unified
 393              		.thumb
 394              		.thumb_func
 396              	lockref_put_or_lock:
 397              	.LVL34:
 398              	.LFB237:
  58:/mnt/c/Users/31740/Desktop/newcore/lib/lockref.c **** 
  59:/mnt/c/Users/31740/Desktop/newcore/lib/lockref.c **** /*
  60:/mnt/c/Users/31740/Desktop/newcore/lib/lockref.c ****  * å¦‚æžœé€’å‡åŽä¸º0ï¼Œä¿æŒé”å®šè¿”å›ž1ï¼Œå¦åˆ™è§£é”è¿”å›ž0
  61:/mnt/c/Users/31740/Desktop/newcore/lib/lockref.c ****  */
  62:/mnt/c/Users/31740/Desktop/newcore/lib/lockref.c **** int lockref_put_or_lock(struct lockref *lr)
  63:/mnt/c/Users/31740/Desktop/newcore/lib/lockref.c **** {
 399              		.loc 1 63 1 is_stmt 1 view -0
 400              		.cfi_startproc
 401              		@ args = 0, pretend = 0, frame = 0
 402              		@ frame_needed = 0, uses_anonymous_args = 0
 403              		.loc 1 63 1 is_stmt 0 view .LVU92
 404 0000 10B5     		push	{r4, lr}
 405              	.LCFI7:
 406              		.cfi_def_cfa_offset 8
 407              		.cfi_offset 4, -8
 408              		.cfi_offset 14, -4
 409 0002 0446     		mov	r4, r0
  64:/mnt/c/Users/31740/Desktop/newcore/lib/lockref.c ****     int ret = 0;
 410              		.loc 1 64 5 is_stmt 1 view .LVU93
 411              	.LVL35:
  65:/mnt/c/Users/31740/Desktop/newcore/lib/lockref.c ****     spin_lock(&lr->lock);
 412              		.loc 1 65 5 view .LVU94
 413 0004 FFF7FEFF 		bl	spin_lock
 414              	.LVL36:
  66:/mnt/c/Users/31740/Desktop/newcore/lib/lockref.c ****     lr->count--;
 415              		.loc 1 66 5 view .LVU95
 416              		.loc 1 66 7 is_stmt 0 view .LVU96
 417 0008 2369     		ldr	r3, [r4, #16]
 418              		.loc 1 66 14 view .LVU97
 419 000a 013B     		subs	r3, r3, #1
 420 000c 2361     		str	r3, [r4, #16]
  67:/mnt/c/Users/31740/Desktop/newcore/lib/lockref.c ****     if (lr->count == 0) {
 421              		.loc 1 67 5 is_stmt 1 view .LVU98
 422              		.loc 1 67 8 is_stmt 0 view .LVU99
ARM GAS  /tmp/ccx7BnH6.s 			page 11


 423 000e 0BB9     		cbnz	r3, .L29
  68:/mnt/c/Users/31740/Desktop/newcore/lib/lockref.c ****         ret = 1;  // ä¸è§£é”ï¼Œè°ƒç”¨è€…è´Ÿè´£é‡Šæ”¾
 424              		.loc 1 68 13 view .LVU100
 425 0010 0120     		movs	r0, #1
 426              	.LVL37:
  69:/mnt/c/Users/31740/Desktop/newcore/lib/lockref.c ****     } else {
  70:/mnt/c/Users/31740/Desktop/newcore/lib/lockref.c ****         spin_unlock(&lr->lock);
  71:/mnt/c/Users/31740/Desktop/newcore/lib/lockref.c ****     }
  72:/mnt/c/Users/31740/Desktop/newcore/lib/lockref.c ****     return ret;
 427              		.loc 1 72 5 is_stmt 1 view .LVU101
 428              	.L25:
  73:/mnt/c/Users/31740/Desktop/newcore/lib/lockref.c **** }
 429              		.loc 1 73 1 is_stmt 0 view .LVU102
 430 0012 10BD     		pop	{r4, pc}
 431              	.LVL38:
 432              	.L29:
  70:/mnt/c/Users/31740/Desktop/newcore/lib/lockref.c ****     }
 433              		.loc 1 70 9 is_stmt 1 view .LVU103
 434 0014 2046     		mov	r0, r4
 435 0016 FFF7FEFF 		bl	spin_unlock
 436              	.LVL39:
  64:/mnt/c/Users/31740/Desktop/newcore/lib/lockref.c ****     spin_lock(&lr->lock);
 437              		.loc 1 64 9 is_stmt 0 view .LVU104
 438 001a 0020     		movs	r0, #0
 439 001c F9E7     		b	.L25
 440              		.cfi_endproc
 441              	.LFE237:
 443              		.section	.text.lockref_mark_dead,"ax",%progbits
 444              		.align	1
 445              		.global	lockref_mark_dead
 446              		.syntax unified
 447              		.thumb
 448              		.thumb_func
 450              	lockref_mark_dead:
 451              	.LVL40:
 452              	.LFB238:
  74:/mnt/c/Users/31740/Desktop/newcore/lib/lockref.c **** 
  75:/mnt/c/Users/31740/Desktop/newcore/lib/lockref.c **** /*
  76:/mnt/c/Users/31740/Desktop/newcore/lib/lockref.c ****  * æ ‡è®°å¯¹è±¡æ­»äº¡ï¼ˆcount < 0ï¼‰
  77:/mnt/c/Users/31740/Desktop/newcore/lib/lockref.c ****  */
  78:/mnt/c/Users/31740/Desktop/newcore/lib/lockref.c **** void lockref_mark_dead(struct lockref *lr)
  79:/mnt/c/Users/31740/Desktop/newcore/lib/lockref.c **** {
 453              		.loc 1 79 1 is_stmt 1 view -0
 454              		.cfi_startproc
 455              		@ args = 0, pretend = 0, frame = 0
 456              		@ frame_needed = 0, uses_anonymous_args = 0
 457              		.loc 1 79 1 is_stmt 0 view .LVU106
 458 0000 10B5     		push	{r4, lr}
 459              	.LCFI8:
 460              		.cfi_def_cfa_offset 8
 461              		.cfi_offset 4, -8
 462              		.cfi_offset 14, -4
 463 0002 0446     		mov	r4, r0
  80:/mnt/c/Users/31740/Desktop/newcore/lib/lockref.c ****     spin_lock(&lr->lock);
 464              		.loc 1 80 5 is_stmt 1 view .LVU107
 465 0004 FFF7FEFF 		bl	spin_lock
 466              	.LVL41:
ARM GAS  /tmp/ccx7BnH6.s 			page 12


  81:/mnt/c/Users/31740/Desktop/newcore/lib/lockref.c ****     lr->count = -1;
 467              		.loc 1 81 5 view .LVU108
 468              		.loc 1 81 15 is_stmt 0 view .LVU109
 469 0008 4FF0FF33 		mov	r3, #-1
 470 000c 2361     		str	r3, [r4, #16]
  82:/mnt/c/Users/31740/Desktop/newcore/lib/lockref.c ****     spin_unlock(&lr->lock);
 471              		.loc 1 82 5 is_stmt 1 view .LVU110
 472 000e 2046     		mov	r0, r4
 473 0010 FFF7FEFF 		bl	spin_unlock
 474              	.LVL42:
  83:/mnt/c/Users/31740/Desktop/newcore/lib/lockref.c **** }
 475              		.loc 1 83 1 is_stmt 0 view .LVU111
 476 0014 10BD     		pop	{r4, pc}
 477              		.loc 1 83 1 view .LVU112
 478              		.cfi_endproc
 479              	.LFE238:
 481              		.section	.text.lockref_get_not_dead,"ax",%progbits
 482              		.align	1
 483              		.global	lockref_get_not_dead
 484              		.syntax unified
 485              		.thumb
 486              		.thumb_func
 488              	lockref_get_not_dead:
 489              	.LVL43:
 490              	.LFB239:
  84:/mnt/c/Users/31740/Desktop/newcore/lib/lockref.c **** 
  85:/mnt/c/Users/31740/Desktop/newcore/lib/lockref.c **** /*
  86:/mnt/c/Users/31740/Desktop/newcore/lib/lockref.c ****  * å¦‚æžœ count >= 0ï¼Œé€’å¢žè¿”å›ž1ï¼Œå¦åˆ™è¿”å›ž0
  87:/mnt/c/Users/31740/Desktop/newcore/lib/lockref.c ****  */
  88:/mnt/c/Users/31740/Desktop/newcore/lib/lockref.c **** int lockref_get_not_dead(struct lockref *lr)
  89:/mnt/c/Users/31740/Desktop/newcore/lib/lockref.c **** {
 491              		.loc 1 89 1 is_stmt 1 view -0
 492              		.cfi_startproc
 493              		@ args = 0, pretend = 0, frame = 0
 494              		@ frame_needed = 0, uses_anonymous_args = 0
 495              		.loc 1 89 1 is_stmt 0 view .LVU114
 496 0000 38B5     		push	{r3, r4, r5, lr}
 497              	.LCFI9:
 498              		.cfi_def_cfa_offset 16
 499              		.cfi_offset 3, -16
 500              		.cfi_offset 4, -12
 501              		.cfi_offset 5, -8
 502              		.cfi_offset 14, -4
 503 0002 0446     		mov	r4, r0
  90:/mnt/c/Users/31740/Desktop/newcore/lib/lockref.c ****     int ret = 0;
 504              		.loc 1 90 5 is_stmt 1 view .LVU115
 505              	.LVL44:
  91:/mnt/c/Users/31740/Desktop/newcore/lib/lockref.c ****     spin_lock(&lr->lock);
 506              		.loc 1 91 5 view .LVU116
 507 0004 FFF7FEFF 		bl	spin_lock
 508              	.LVL45:
  92:/mnt/c/Users/31740/Desktop/newcore/lib/lockref.c ****     if (lr->count >= 0) {
 509              		.loc 1 92 5 view .LVU117
 510              		.loc 1 92 11 is_stmt 0 view .LVU118
 511 0008 2369     		ldr	r3, [r4, #16]
 512              		.loc 1 92 8 view .LVU119
 513 000a 002B     		cmp	r3, #0
ARM GAS  /tmp/ccx7BnH6.s 			page 13


 514 000c 07DB     		blt	.L34
  93:/mnt/c/Users/31740/Desktop/newcore/lib/lockref.c ****         lr->count++;
 515              		.loc 1 93 9 is_stmt 1 view .LVU120
 516              		.loc 1 93 18 is_stmt 0 view .LVU121
 517 000e 0133     		adds	r3, r3, #1
 518 0010 2361     		str	r3, [r4, #16]
  94:/mnt/c/Users/31740/Desktop/newcore/lib/lockref.c ****         ret = 1;
 519              		.loc 1 94 9 is_stmt 1 view .LVU122
 520              	.LVL46:
 521              		.loc 1 94 13 is_stmt 0 view .LVU123
 522 0012 0125     		movs	r5, #1
 523              	.LVL47:
 524              	.L33:
  95:/mnt/c/Users/31740/Desktop/newcore/lib/lockref.c ****     }
  96:/mnt/c/Users/31740/Desktop/newcore/lib/lockref.c ****     spin_unlock(&lr->lock);
 525              		.loc 1 96 5 is_stmt 1 view .LVU124
 526 0014 2046     		mov	r0, r4
 527 0016 FFF7FEFF 		bl	spin_unlock
 528              	.LVL48:
  97:/mnt/c/Users/31740/Desktop/newcore/lib/lockref.c ****     return ret;
 529              		.loc 1 97 5 view .LVU125
  98:/mnt/c/Users/31740/Desktop/newcore/lib/lockref.c **** }
 530              		.loc 1 98 1 is_stmt 0 view .LVU126
 531 001a 2846     		mov	r0, r5
 532 001c 38BD     		pop	{r3, r4, r5, pc}
 533              	.LVL49:
 534              	.L34:
  90:/mnt/c/Users/31740/Desktop/newcore/lib/lockref.c ****     spin_lock(&lr->lock);
 535              		.loc 1 90 9 view .LVU127
 536 001e 0025     		movs	r5, #0
 537 0020 F8E7     		b	.L33
 538              		.cfi_endproc
 539              	.LFE239:
 541              		.text
 542              	.Letext0:
 543              		.file 4 "/mnt/c/Users/31740/Desktop/newcore/include/asm-generic/int-l64.h"
 544              		.file 5 "/mnt/c/Users/31740/Desktop/newcore/include/asm-generic/posix_types.h"
 545              		.file 6 "/mnt/c/Users/31740/Desktop/newcore/include/linux/types.h"
 546              		.file 7 "/mnt/c/Users/31740/Desktop/newcore/include/linux/time64.h"
 547              		.file 8 "/mnt/c/Users/31740/Desktop/newcore/arch/arm_m/include/asm/sched.h"
 548              		.file 9 "/mnt/c/Users/31740/Desktop/newcore/include/linux/sched.h"
 549              		.file 10 "/mnt/c/Users/31740/Desktop/newcore/include/linux/spinlock_types_raw.h"
 550              		.file 11 "/mnt/c/Users/31740/Desktop/newcore/include/linux/spinlock_types.h"
 551              		.file 12 "/mnt/c/Users/31740/Desktop/newcore/include/linux/lockref.h"
ARM GAS  /tmp/ccx7BnH6.s 			page 14


DEFINED SYMBOLS
                            *ABS*:00000000 lockref.c
     /tmp/ccx7BnH6.s:21     .text.__spin_unlock:00000000 $t
     /tmp/ccx7BnH6.s:26     .text.__spin_unlock:00000000 __spin_unlock
     /tmp/ccx7BnH6.s:45     .text.spin_unlock:00000000 $t
     /tmp/ccx7BnH6.s:50     .text.spin_unlock:00000000 spin_unlock
     /tmp/ccx7BnH6.s:73     .text.__spin_lock:00000000 $t
     /tmp/ccx7BnH6.s:78     .text.__spin_lock:00000000 __spin_lock
     /tmp/ccx7BnH6.s:128    .text.spin_lock:00000000 $t
     /tmp/ccx7BnH6.s:133    .text.spin_lock:00000000 spin_lock
     /tmp/ccx7BnH6.s:193    .text.lockref_get:00000000 $t
     /tmp/ccx7BnH6.s:199    .text.lockref_get:00000000 lockref_get
     /tmp/ccx7BnH6.s:233    .text.lockref_put_return:00000000 $t
     /tmp/ccx7BnH6.s:239    .text.lockref_put_return:00000000 lockref_put_return
     /tmp/ccx7BnH6.s:280    .text.lockref_get_not_zero:00000000 $t
     /tmp/ccx7BnH6.s:286    .text.lockref_get_not_zero:00000000 lockref_get_not_zero
     /tmp/ccx7BnH6.s:335    .text.lockref_put_not_zero:00000000 $t
     /tmp/ccx7BnH6.s:341    .text.lockref_put_not_zero:00000000 lockref_put_not_zero
     /tmp/ccx7BnH6.s:390    .text.lockref_put_or_lock:00000000 $t
     /tmp/ccx7BnH6.s:396    .text.lockref_put_or_lock:00000000 lockref_put_or_lock
     /tmp/ccx7BnH6.s:444    .text.lockref_mark_dead:00000000 $t
     /tmp/ccx7BnH6.s:450    .text.lockref_mark_dead:00000000 lockref_mark_dead
     /tmp/ccx7BnH6.s:482    .text.lockref_get_not_dead:00000000 $t
     /tmp/ccx7BnH6.s:488    .text.lockref_get_not_dead:00000000 lockref_get_not_dead

UNDEFINED SYMBOLS
stop_all_scheduler
start_all_scheduler
get_current_task
__delay
