ARM GAS  /tmp/cceTHSzr.s 			page 1


   1              		.cpu cortex-m4
   2              		.arch armv7e-m
   3              		.fpu fpv4-sp-d16
   4              		.eabi_attribute 27, 1
   5              		.eabi_attribute 28, 1
   6              		.eabi_attribute 20, 1
   7              		.eabi_attribute 21, 1
   8              		.eabi_attribute 23, 3
   9              		.eabi_attribute 24, 1
  10              		.eabi_attribute 25, 1
  11              		.eabi_attribute 26, 1
  12              		.eabi_attribute 30, 1
  13              		.eabi_attribute 34, 1
  14              		.eabi_attribute 18, 4
  15              		.file	"main.c"
  16              		.text
  17              	.Ltext0:
  18              		.cfi_sections	.debug_frame
  19              		.file 1 "./init/main.c"
  20              		.section	.text.do_initcallearly,"ax",%progbits
  21              		.align	1
  22              		.syntax unified
  23              		.thumb
  24              		.thumb_func
  26              	do_initcallearly:
  27              	.LFB1078:
   1:./init/main.c **** #include <linux/kernel.h>
   2:./init/main.c **** #include <linux/types.h>
   3:./init/main.c **** #include <linux/libfdt.h>
   4:./init/main.c **** #include <linux/init.h>
   5:./init/main.c **** #include <linux/fs.h>
   6:./init/main.c **** #include <linux/gpio/gpio.h>
   7:./init/main.c **** #include <linux/kthread.h>
   8:./init/main.c **** 
   9:./init/main.c **** extern void SystemClock_Config(void);
  10:./init/main.c **** extern int __init devfs_ops_init(void);
  11:./init/main.c **** extern void uart1_device_init_function_from_dtb(void);
  12:./init/main.c **** extern size_t get_global_heap_size(void);
  13:./init/main.c **** extern int printk_service_init(void);
  14:./init/main.c **** extern int __init main_tty_dev_init(void);
  15:./init/main.c **** void base_out_opt_device_init(void);
  16:./init/main.c **** extern int gpio_subsystem_init(void);
  17:./init/main.c **** extern void SysTick_init(void);
  18:./init/main.c **** 
  19:./init/main.c **** 
  20:./init/main.c **** 
  21:./init/main.c **** static void do_initcallearly(void){
  28              		.loc 1 21 35 view -0
  29              		.cfi_startproc
  30              		@ args = 0, pretend = 0, frame = 0
  31              		@ frame_needed = 0, uses_anonymous_args = 0
  32 0000 10B5     		push	{r4, lr}
  33              	.LCFI0:
  34              		.cfi_def_cfa_offset 8
  35              		.cfi_offset 4, -8
  36              		.cfi_offset 14, -4
  22:./init/main.c ****     for (initcall_t *fn = __start_initcallearly; fn != __end_initcallearly; fn++) 
ARM GAS  /tmp/cceTHSzr.s 			page 2


  37              		.loc 1 22 5 view .LVU1
  38              	.LBB4:
  39              		.loc 1 22 10 view .LVU2
  40              	.LVL0:
  41              		.loc 1 22 22 is_stmt 0 view .LVU3
  42 0002 044C     		ldr	r4, .L5
  43              		.loc 1 22 5 view .LVU4
  44 0004 02E0     		b	.L2
  45              	.LVL1:
  46              	.L3:
  23:./init/main.c ****         (*fn)();
  47              		.loc 1 23 9 is_stmt 1 view .LVU5
  48              		.loc 1 23 10 is_stmt 0 view .LVU6
  49 0006 54F8043B 		ldr	r3, [r4], #4
  50              	.LVL2:
  51              		.loc 1 23 10 view .LVU7
  52 000a 9847     		blx	r3
  53              	.LVL3:
  22:./init/main.c ****     for (initcall_t *fn = __start_initcallearly; fn != __end_initcallearly; fn++) 
  54              		.loc 1 22 79 is_stmt 1 discriminator 3 view .LVU8
  55              	.L2:
  22:./init/main.c ****     for (initcall_t *fn = __start_initcallearly; fn != __end_initcallearly; fn++) 
  56              		.loc 1 22 53 discriminator 1 view .LVU9
  57 000c 024B     		ldr	r3, .L5+4
  58 000e 9C42     		cmp	r4, r3
  59 0010 F9D1     		bne	.L3
  60              	.LBE4:
  24:./init/main.c **** }
  61              		.loc 1 24 1 is_stmt 0 view .LVU10
  62 0012 10BD     		pop	{r4, pc}
  63              	.LVL4:
  64              	.L6:
  65              		.loc 1 24 1 view .LVU11
  66              		.align	2
  67              	.L5:
  68 0014 00000000 		.word	__start_initcallearly
  69 0018 00000000 		.word	__end_initcallearly
  70              		.cfi_endproc
  71              	.LFE1078:
  73              		.section	.text.do_pureinitcall,"ax",%progbits
  74              		.align	1
  75              		.syntax unified
  76              		.thumb
  77              		.thumb_func
  79              	do_pureinitcall:
  80              	.LFB1079:
  25:./init/main.c **** static void do_pureinitcall(void){
  81              		.loc 1 25 34 is_stmt 1 view -0
  82              		.cfi_startproc
  83              		@ args = 0, pretend = 0, frame = 0
  84              		@ frame_needed = 0, uses_anonymous_args = 0
  85 0000 10B5     		push	{r4, lr}
  86              	.LCFI1:
  87              		.cfi_def_cfa_offset 8
  88              		.cfi_offset 4, -8
  89              		.cfi_offset 14, -4
  26:./init/main.c ****     for (initcall_t *fn = __start_pureinitcall; fn != __end_pureinitcall; fn++) 
ARM GAS  /tmp/cceTHSzr.s 			page 3


  90              		.loc 1 26 5 view .LVU13
  91              	.LBB5:
  92              		.loc 1 26 10 view .LVU14
  93              	.LVL5:
  94              		.loc 1 26 22 is_stmt 0 view .LVU15
  95 0002 044C     		ldr	r4, .L11
  96              		.loc 1 26 5 view .LVU16
  97 0004 02E0     		b	.L8
  98              	.LVL6:
  99              	.L9:
  27:./init/main.c ****         (*fn)();
 100              		.loc 1 27 9 is_stmt 1 view .LVU17
 101              		.loc 1 27 10 is_stmt 0 view .LVU18
 102 0006 54F8043B 		ldr	r3, [r4], #4
 103              	.LVL7:
 104              		.loc 1 27 10 view .LVU19
 105 000a 9847     		blx	r3
 106              	.LVL8:
  26:./init/main.c ****     for (initcall_t *fn = __start_pureinitcall; fn != __end_pureinitcall; fn++) 
 107              		.loc 1 26 77 is_stmt 1 discriminator 3 view .LVU20
 108              	.L8:
  26:./init/main.c ****     for (initcall_t *fn = __start_pureinitcall; fn != __end_pureinitcall; fn++) 
 109              		.loc 1 26 52 discriminator 1 view .LVU21
 110 000c 024B     		ldr	r3, .L11+4
 111 000e 9C42     		cmp	r4, r3
 112 0010 F9D1     		bne	.L9
 113              	.LBE5:
  28:./init/main.c **** }
 114              		.loc 1 28 1 is_stmt 0 view .LVU22
 115 0012 10BD     		pop	{r4, pc}
 116              	.LVL9:
 117              	.L12:
 118              		.loc 1 28 1 view .LVU23
 119              		.align	2
 120              	.L11:
 121 0014 00000000 		.word	__start_pureinitcall
 122 0018 00000000 		.word	__end_pureinitcall
 123              		.cfi_endproc
 124              	.LFE1079:
 126              		.section	.text.do_coreinitcall,"ax",%progbits
 127              		.align	1
 128              		.syntax unified
 129              		.thumb
 130              		.thumb_func
 132              	do_coreinitcall:
 133              	.LFB1080:
  29:./init/main.c **** static void do_coreinitcall(void){
 134              		.loc 1 29 34 is_stmt 1 view -0
 135              		.cfi_startproc
 136              		@ args = 0, pretend = 0, frame = 0
 137              		@ frame_needed = 0, uses_anonymous_args = 0
 138 0000 10B5     		push	{r4, lr}
 139              	.LCFI2:
 140              		.cfi_def_cfa_offset 8
 141              		.cfi_offset 4, -8
 142              		.cfi_offset 14, -4
  30:./init/main.c ****     for (initcall_t *fn = __start_coreinitcall; fn != __end_coreinitcall; fn++) 
ARM GAS  /tmp/cceTHSzr.s 			page 4


 143              		.loc 1 30 5 view .LVU25
 144              	.LBB6:
 145              		.loc 1 30 10 view .LVU26
 146              	.LVL10:
 147              		.loc 1 30 22 is_stmt 0 view .LVU27
 148 0002 044C     		ldr	r4, .L17
 149              		.loc 1 30 5 view .LVU28
 150 0004 02E0     		b	.L14
 151              	.LVL11:
 152              	.L15:
  31:./init/main.c ****         (*fn)();
 153              		.loc 1 31 9 is_stmt 1 view .LVU29
 154              		.loc 1 31 10 is_stmt 0 view .LVU30
 155 0006 54F8043B 		ldr	r3, [r4], #4
 156              	.LVL12:
 157              		.loc 1 31 10 view .LVU31
 158 000a 9847     		blx	r3
 159              	.LVL13:
  30:./init/main.c ****     for (initcall_t *fn = __start_coreinitcall; fn != __end_coreinitcall; fn++) 
 160              		.loc 1 30 77 is_stmt 1 discriminator 3 view .LVU32
 161              	.L14:
  30:./init/main.c ****     for (initcall_t *fn = __start_coreinitcall; fn != __end_coreinitcall; fn++) 
 162              		.loc 1 30 52 discriminator 1 view .LVU33
 163 000c 024B     		ldr	r3, .L17+4
 164 000e 9C42     		cmp	r4, r3
 165 0010 F9D1     		bne	.L15
 166              	.LBE6:
  32:./init/main.c **** }
 167              		.loc 1 32 1 is_stmt 0 view .LVU34
 168 0012 10BD     		pop	{r4, pc}
 169              	.LVL14:
 170              	.L18:
 171              		.loc 1 32 1 view .LVU35
 172              		.align	2
 173              	.L17:
 174 0014 00000000 		.word	__start_coreinitcall
 175 0018 00000000 		.word	__end_coreinitcall
 176              		.cfi_endproc
 177              	.LFE1080:
 179              		.section	.text.do_core_initcall_sync,"ax",%progbits
 180              		.align	1
 181              		.syntax unified
 182              		.thumb
 183              		.thumb_func
 185              	do_core_initcall_sync:
 186              	.LFB1081:
  33:./init/main.c **** static void do_core_initcall_sync(void){
 187              		.loc 1 33 40 is_stmt 1 view -0
 188              		.cfi_startproc
 189              		@ args = 0, pretend = 0, frame = 0
 190              		@ frame_needed = 0, uses_anonymous_args = 0
 191 0000 10B5     		push	{r4, lr}
 192              	.LCFI3:
 193              		.cfi_def_cfa_offset 8
 194              		.cfi_offset 4, -8
 195              		.cfi_offset 14, -4
  34:./init/main.c ****     for (initcall_t *fn = __start_core_initcall_sync; fn != __end_core_initcall_sync; fn++) 
ARM GAS  /tmp/cceTHSzr.s 			page 5


 196              		.loc 1 34 5 view .LVU37
 197              	.LBB7:
 198              		.loc 1 34 10 view .LVU38
 199              	.LVL15:
 200              		.loc 1 34 22 is_stmt 0 view .LVU39
 201 0002 044C     		ldr	r4, .L23
 202              		.loc 1 34 5 view .LVU40
 203 0004 02E0     		b	.L20
 204              	.LVL16:
 205              	.L21:
  35:./init/main.c ****         (*fn)();
 206              		.loc 1 35 9 is_stmt 1 view .LVU41
 207              		.loc 1 35 10 is_stmt 0 view .LVU42
 208 0006 54F8043B 		ldr	r3, [r4], #4
 209              	.LVL17:
 210              		.loc 1 35 10 view .LVU43
 211 000a 9847     		blx	r3
 212              	.LVL18:
  34:./init/main.c ****     for (initcall_t *fn = __start_core_initcall_sync; fn != __end_core_initcall_sync; fn++) 
 213              		.loc 1 34 89 is_stmt 1 discriminator 3 view .LVU44
 214              	.L20:
  34:./init/main.c ****     for (initcall_t *fn = __start_core_initcall_sync; fn != __end_core_initcall_sync; fn++) 
 215              		.loc 1 34 58 discriminator 1 view .LVU45
 216 000c 024B     		ldr	r3, .L23+4
 217 000e 9C42     		cmp	r4, r3
 218 0010 F9D1     		bne	.L21
 219              	.LBE7:
  36:./init/main.c **** }
 220              		.loc 1 36 1 is_stmt 0 view .LVU46
 221 0012 10BD     		pop	{r4, pc}
 222              	.LVL19:
 223              	.L24:
 224              		.loc 1 36 1 view .LVU47
 225              		.align	2
 226              	.L23:
 227 0014 00000000 		.word	__start_core_initcall_sync
 228 0018 00000000 		.word	__end_core_initcall_sync
 229              		.cfi_endproc
 230              	.LFE1081:
 232              		.section	.text.do_postcoreinitcall,"ax",%progbits
 233              		.align	1
 234              		.syntax unified
 235              		.thumb
 236              		.thumb_func
 238              	do_postcoreinitcall:
 239              	.LFB1082:
  37:./init/main.c **** static void do_postcoreinitcall(void){
 240              		.loc 1 37 38 is_stmt 1 view -0
 241              		.cfi_startproc
 242              		@ args = 0, pretend = 0, frame = 0
 243              		@ frame_needed = 0, uses_anonymous_args = 0
 244 0000 10B5     		push	{r4, lr}
 245              	.LCFI4:
 246              		.cfi_def_cfa_offset 8
 247              		.cfi_offset 4, -8
 248              		.cfi_offset 14, -4
  38:./init/main.c ****     for (initcall_t *fn = __start_postcoreinitcall; fn != __end_postcoreinitcall; fn++) 
ARM GAS  /tmp/cceTHSzr.s 			page 6


 249              		.loc 1 38 5 view .LVU49
 250              	.LBB8:
 251              		.loc 1 38 10 view .LVU50
 252              	.LVL20:
 253              		.loc 1 38 22 is_stmt 0 view .LVU51
 254 0002 044C     		ldr	r4, .L29
 255              		.loc 1 38 5 view .LVU52
 256 0004 02E0     		b	.L26
 257              	.LVL21:
 258              	.L27:
  39:./init/main.c ****         (*fn)();
 259              		.loc 1 39 9 is_stmt 1 view .LVU53
 260              		.loc 1 39 10 is_stmt 0 view .LVU54
 261 0006 54F8043B 		ldr	r3, [r4], #4
 262              	.LVL22:
 263              		.loc 1 39 10 view .LVU55
 264 000a 9847     		blx	r3
 265              	.LVL23:
  38:./init/main.c ****     for (initcall_t *fn = __start_postcoreinitcall; fn != __end_postcoreinitcall; fn++) 
 266              		.loc 1 38 85 is_stmt 1 discriminator 3 view .LVU56
 267              	.L26:
  38:./init/main.c ****     for (initcall_t *fn = __start_postcoreinitcall; fn != __end_postcoreinitcall; fn++) 
 268              		.loc 1 38 56 discriminator 1 view .LVU57
 269 000c 024B     		ldr	r3, .L29+4
 270 000e 9C42     		cmp	r4, r3
 271 0010 F9D1     		bne	.L27
 272              	.LBE8:
  40:./init/main.c **** }
 273              		.loc 1 40 1 is_stmt 0 view .LVU58
 274 0012 10BD     		pop	{r4, pc}
 275              	.LVL24:
 276              	.L30:
 277              		.loc 1 40 1 view .LVU59
 278              		.align	2
 279              	.L29:
 280 0014 00000000 		.word	__start_postcoreinitcall
 281 0018 00000000 		.word	__end_postcoreinitcall
 282              		.cfi_endproc
 283              	.LFE1082:
 285              		.section	.text.do_postcore_initcall_sync,"ax",%progbits
 286              		.align	1
 287              		.syntax unified
 288              		.thumb
 289              		.thumb_func
 291              	do_postcore_initcall_sync:
 292              	.LFB1083:
  41:./init/main.c **** static void do_postcore_initcall_sync(void){
 293              		.loc 1 41 44 is_stmt 1 view -0
 294              		.cfi_startproc
 295              		@ args = 0, pretend = 0, frame = 0
 296              		@ frame_needed = 0, uses_anonymous_args = 0
 297 0000 10B5     		push	{r4, lr}
 298              	.LCFI5:
 299              		.cfi_def_cfa_offset 8
 300              		.cfi_offset 4, -8
 301              		.cfi_offset 14, -4
  42:./init/main.c ****     for (initcall_t *fn = __start_postcore_initcall_sync; fn != __end_postcore_initcall_sync; fn++)
ARM GAS  /tmp/cceTHSzr.s 			page 7


 302              		.loc 1 42 5 view .LVU61
 303              	.LBB9:
 304              		.loc 1 42 10 view .LVU62
 305              	.LVL25:
 306              		.loc 1 42 22 is_stmt 0 view .LVU63
 307 0002 044C     		ldr	r4, .L35
 308              		.loc 1 42 5 view .LVU64
 309 0004 02E0     		b	.L32
 310              	.LVL26:
 311              	.L33:
  43:./init/main.c ****         (*fn)();
 312              		.loc 1 43 9 is_stmt 1 view .LVU65
 313              		.loc 1 43 10 is_stmt 0 view .LVU66
 314 0006 54F8043B 		ldr	r3, [r4], #4
 315              	.LVL27:
 316              		.loc 1 43 10 view .LVU67
 317 000a 9847     		blx	r3
 318              	.LVL28:
  42:./init/main.c ****     for (initcall_t *fn = __start_postcore_initcall_sync; fn != __end_postcore_initcall_sync; fn++)
 319              		.loc 1 42 97 is_stmt 1 discriminator 3 view .LVU68
 320              	.L32:
  42:./init/main.c ****     for (initcall_t *fn = __start_postcore_initcall_sync; fn != __end_postcore_initcall_sync; fn++)
 321              		.loc 1 42 62 discriminator 1 view .LVU69
 322 000c 024B     		ldr	r3, .L35+4
 323 000e 9C42     		cmp	r4, r3
 324 0010 F9D1     		bne	.L33
 325              	.LBE9:
  44:./init/main.c **** }
 326              		.loc 1 44 1 is_stmt 0 view .LVU70
 327 0012 10BD     		pop	{r4, pc}
 328              	.LVL29:
 329              	.L36:
 330              		.loc 1 44 1 view .LVU71
 331              		.align	2
 332              	.L35:
 333 0014 00000000 		.word	__start_postcore_initcall_sync
 334 0018 00000000 		.word	__end_postcore_initcall_sync
 335              		.cfi_endproc
 336              	.LFE1083:
 338              		.section	.text.do_archinitcall,"ax",%progbits
 339              		.align	1
 340              		.syntax unified
 341              		.thumb
 342              		.thumb_func
 344              	do_archinitcall:
 345              	.LFB1084:
  45:./init/main.c **** static void do_archinitcall(void){
 346              		.loc 1 45 34 is_stmt 1 view -0
 347              		.cfi_startproc
 348              		@ args = 0, pretend = 0, frame = 0
 349              		@ frame_needed = 0, uses_anonymous_args = 0
 350 0000 10B5     		push	{r4, lr}
 351              	.LCFI6:
 352              		.cfi_def_cfa_offset 8
 353              		.cfi_offset 4, -8
 354              		.cfi_offset 14, -4
  46:./init/main.c ****     for (initcall_t *fn = __start_archinitcall; fn != __end_archinitcall; fn++) 
ARM GAS  /tmp/cceTHSzr.s 			page 8


 355              		.loc 1 46 5 view .LVU73
 356              	.LBB10:
 357              		.loc 1 46 10 view .LVU74
 358              	.LVL30:
 359              		.loc 1 46 22 is_stmt 0 view .LVU75
 360 0002 044C     		ldr	r4, .L41
 361              		.loc 1 46 5 view .LVU76
 362 0004 02E0     		b	.L38
 363              	.LVL31:
 364              	.L39:
  47:./init/main.c ****         (*fn)();
 365              		.loc 1 47 9 is_stmt 1 view .LVU77
 366              		.loc 1 47 10 is_stmt 0 view .LVU78
 367 0006 54F8043B 		ldr	r3, [r4], #4
 368              	.LVL32:
 369              		.loc 1 47 10 view .LVU79
 370 000a 9847     		blx	r3
 371              	.LVL33:
  46:./init/main.c ****     for (initcall_t *fn = __start_archinitcall; fn != __end_archinitcall; fn++) 
 372              		.loc 1 46 77 is_stmt 1 discriminator 3 view .LVU80
 373              	.L38:
  46:./init/main.c ****     for (initcall_t *fn = __start_archinitcall; fn != __end_archinitcall; fn++) 
 374              		.loc 1 46 52 discriminator 1 view .LVU81
 375 000c 024B     		ldr	r3, .L41+4
 376 000e 9C42     		cmp	r4, r3
 377 0010 F9D1     		bne	.L39
 378              	.LBE10:
  48:./init/main.c **** }
 379              		.loc 1 48 1 is_stmt 0 view .LVU82
 380 0012 10BD     		pop	{r4, pc}
 381              	.LVL34:
 382              	.L42:
 383              		.loc 1 48 1 view .LVU83
 384              		.align	2
 385              	.L41:
 386 0014 00000000 		.word	__start_archinitcall
 387 0018 00000000 		.word	__end_archinitcall
 388              		.cfi_endproc
 389              	.LFE1084:
 391              		.section	.text.do_arch_initcall_sync,"ax",%progbits
 392              		.align	1
 393              		.syntax unified
 394              		.thumb
 395              		.thumb_func
 397              	do_arch_initcall_sync:
 398              	.LFB1085:
  49:./init/main.c **** static void do_arch_initcall_sync(void){
 399              		.loc 1 49 40 is_stmt 1 view -0
 400              		.cfi_startproc
 401              		@ args = 0, pretend = 0, frame = 0
 402              		@ frame_needed = 0, uses_anonymous_args = 0
 403 0000 10B5     		push	{r4, lr}
 404              	.LCFI7:
 405              		.cfi_def_cfa_offset 8
 406              		.cfi_offset 4, -8
 407              		.cfi_offset 14, -4
  50:./init/main.c ****     for (initcall_t *fn = __start_arch_initcall_sync; fn != __end_arch_initcall_sync; fn++) 
ARM GAS  /tmp/cceTHSzr.s 			page 9


 408              		.loc 1 50 5 view .LVU85
 409              	.LBB11:
 410              		.loc 1 50 10 view .LVU86
 411              	.LVL35:
 412              		.loc 1 50 22 is_stmt 0 view .LVU87
 413 0002 044C     		ldr	r4, .L47
 414              		.loc 1 50 5 view .LVU88
 415 0004 02E0     		b	.L44
 416              	.LVL36:
 417              	.L45:
  51:./init/main.c ****         (*fn)();
 418              		.loc 1 51 9 is_stmt 1 view .LVU89
 419              		.loc 1 51 10 is_stmt 0 view .LVU90
 420 0006 54F8043B 		ldr	r3, [r4], #4
 421              	.LVL37:
 422              		.loc 1 51 10 view .LVU91
 423 000a 9847     		blx	r3
 424              	.LVL38:
  50:./init/main.c ****     for (initcall_t *fn = __start_arch_initcall_sync; fn != __end_arch_initcall_sync; fn++) 
 425              		.loc 1 50 89 is_stmt 1 discriminator 3 view .LVU92
 426              	.L44:
  50:./init/main.c ****     for (initcall_t *fn = __start_arch_initcall_sync; fn != __end_arch_initcall_sync; fn++) 
 427              		.loc 1 50 58 discriminator 1 view .LVU93
 428 000c 024B     		ldr	r3, .L47+4
 429 000e 9C42     		cmp	r4, r3
 430 0010 F9D1     		bne	.L45
 431              	.LBE11:
  52:./init/main.c **** }
 432              		.loc 1 52 1 is_stmt 0 view .LVU94
 433 0012 10BD     		pop	{r4, pc}
 434              	.LVL39:
 435              	.L48:
 436              		.loc 1 52 1 view .LVU95
 437              		.align	2
 438              	.L47:
 439 0014 00000000 		.word	__start_arch_initcall_sync
 440 0018 00000000 		.word	__end_arch_initcall_sync
 441              		.cfi_endproc
 442              	.LFE1085:
 444              		.section	.text.do_subsysinitcall,"ax",%progbits
 445              		.align	1
 446              		.syntax unified
 447              		.thumb
 448              		.thumb_func
 450              	do_subsysinitcall:
 451              	.LFB1086:
  53:./init/main.c **** static void do_subsysinitcall(void){
 452              		.loc 1 53 36 is_stmt 1 view -0
 453              		.cfi_startproc
 454              		@ args = 0, pretend = 0, frame = 0
 455              		@ frame_needed = 0, uses_anonymous_args = 0
 456 0000 10B5     		push	{r4, lr}
 457              	.LCFI8:
 458              		.cfi_def_cfa_offset 8
 459              		.cfi_offset 4, -8
 460              		.cfi_offset 14, -4
  54:./init/main.c ****     for (initcall_t *fn = __start_subsysinitcall; fn != __end_subsysinitcall; fn++)
ARM GAS  /tmp/cceTHSzr.s 			page 10


 461              		.loc 1 54 5 view .LVU97
 462              	.LBB12:
 463              		.loc 1 54 10 view .LVU98
 464              	.LVL40:
 465              		.loc 1 54 22 is_stmt 0 view .LVU99
 466 0002 044C     		ldr	r4, .L53
 467              		.loc 1 54 5 view .LVU100
 468 0004 02E0     		b	.L50
 469              	.LVL41:
 470              	.L51:
  55:./init/main.c ****         (*fn)();
 471              		.loc 1 55 9 is_stmt 1 view .LVU101
 472              		.loc 1 55 10 is_stmt 0 view .LVU102
 473 0006 54F8043B 		ldr	r3, [r4], #4
 474              	.LVL42:
 475              		.loc 1 55 10 view .LVU103
 476 000a 9847     		blx	r3
 477              	.LVL43:
  54:./init/main.c ****     for (initcall_t *fn = __start_subsysinitcall; fn != __end_subsysinitcall; fn++)
 478              		.loc 1 54 81 is_stmt 1 discriminator 3 view .LVU104
 479              	.L50:
  54:./init/main.c ****     for (initcall_t *fn = __start_subsysinitcall; fn != __end_subsysinitcall; fn++)
 480              		.loc 1 54 54 discriminator 1 view .LVU105
 481 000c 024B     		ldr	r3, .L53+4
 482 000e 9C42     		cmp	r4, r3
 483 0010 F9D1     		bne	.L51
 484              	.LBE12:
  56:./init/main.c **** }
 485              		.loc 1 56 1 is_stmt 0 view .LVU106
 486 0012 10BD     		pop	{r4, pc}
 487              	.LVL44:
 488              	.L54:
 489              		.loc 1 56 1 view .LVU107
 490              		.align	2
 491              	.L53:
 492 0014 00000000 		.word	__start_subsysinitcall
 493 0018 00000000 		.word	__end_subsysinitcall
 494              		.cfi_endproc
 495              	.LFE1086:
 497              		.section	.text.do_subsys_initcall_sync,"ax",%progbits
 498              		.align	1
 499              		.syntax unified
 500              		.thumb
 501              		.thumb_func
 503              	do_subsys_initcall_sync:
 504              	.LFB1087:
  57:./init/main.c **** static void do_subsys_initcall_sync(void){
 505              		.loc 1 57 42 is_stmt 1 view -0
 506              		.cfi_startproc
 507              		@ args = 0, pretend = 0, frame = 0
 508              		@ frame_needed = 0, uses_anonymous_args = 0
 509 0000 10B5     		push	{r4, lr}
 510              	.LCFI9:
 511              		.cfi_def_cfa_offset 8
 512              		.cfi_offset 4, -8
 513              		.cfi_offset 14, -4
  58:./init/main.c ****     for (initcall_t *fn = __start_subsys_initcall_sync; fn != __end_subsys_initcall_sync; fn++) 
ARM GAS  /tmp/cceTHSzr.s 			page 11


 514              		.loc 1 58 5 view .LVU109
 515              	.LBB13:
 516              		.loc 1 58 10 view .LVU110
 517              	.LVL45:
 518              		.loc 1 58 22 is_stmt 0 view .LVU111
 519 0002 044C     		ldr	r4, .L59
 520              		.loc 1 58 5 view .LVU112
 521 0004 02E0     		b	.L56
 522              	.LVL46:
 523              	.L57:
  59:./init/main.c ****         (*fn)();
 524              		.loc 1 59 9 is_stmt 1 view .LVU113
 525              		.loc 1 59 10 is_stmt 0 view .LVU114
 526 0006 54F8043B 		ldr	r3, [r4], #4
 527              	.LVL47:
 528              		.loc 1 59 10 view .LVU115
 529 000a 9847     		blx	r3
 530              	.LVL48:
  58:./init/main.c ****     for (initcall_t *fn = __start_subsys_initcall_sync; fn != __end_subsys_initcall_sync; fn++) 
 531              		.loc 1 58 93 is_stmt 1 discriminator 3 view .LVU116
 532              	.L56:
  58:./init/main.c ****     for (initcall_t *fn = __start_subsys_initcall_sync; fn != __end_subsys_initcall_sync; fn++) 
 533              		.loc 1 58 60 discriminator 1 view .LVU117
 534 000c 024B     		ldr	r3, .L59+4
 535 000e 9C42     		cmp	r4, r3
 536 0010 F9D1     		bne	.L57
 537              	.LBE13:
  60:./init/main.c **** }
 538              		.loc 1 60 1 is_stmt 0 view .LVU118
 539 0012 10BD     		pop	{r4, pc}
 540              	.LVL49:
 541              	.L60:
 542              		.loc 1 60 1 view .LVU119
 543              		.align	2
 544              	.L59:
 545 0014 00000000 		.word	__start_subsys_initcall_sync
 546 0018 00000000 		.word	__end_subsys_initcall_sync
 547              		.cfi_endproc
 548              	.LFE1087:
 550              		.section	.text.do_fsinitcall,"ax",%progbits
 551              		.align	1
 552              		.syntax unified
 553              		.thumb
 554              		.thumb_func
 556              	do_fsinitcall:
 557              	.LFB1088:
  61:./init/main.c **** static void do_fsinitcall(void){
 558              		.loc 1 61 32 is_stmt 1 view -0
 559              		.cfi_startproc
 560              		@ args = 0, pretend = 0, frame = 0
 561              		@ frame_needed = 0, uses_anonymous_args = 0
 562 0000 10B5     		push	{r4, lr}
 563              	.LCFI10:
 564              		.cfi_def_cfa_offset 8
 565              		.cfi_offset 4, -8
 566              		.cfi_offset 14, -4
  62:./init/main.c ****     for (initcall_t *fn = __start_fsinitcall; fn != __end_fsinitcall; fn++) 
ARM GAS  /tmp/cceTHSzr.s 			page 12


 567              		.loc 1 62 5 view .LVU121
 568              	.LBB14:
 569              		.loc 1 62 10 view .LVU122
 570              	.LVL50:
 571              		.loc 1 62 22 is_stmt 0 view .LVU123
 572 0002 044C     		ldr	r4, .L65
 573              		.loc 1 62 5 view .LVU124
 574 0004 02E0     		b	.L62
 575              	.LVL51:
 576              	.L63:
  63:./init/main.c ****         (*fn)();
 577              		.loc 1 63 9 is_stmt 1 view .LVU125
 578              		.loc 1 63 10 is_stmt 0 view .LVU126
 579 0006 54F8043B 		ldr	r3, [r4], #4
 580              	.LVL52:
 581              		.loc 1 63 10 view .LVU127
 582 000a 9847     		blx	r3
 583              	.LVL53:
  62:./init/main.c ****     for (initcall_t *fn = __start_fsinitcall; fn != __end_fsinitcall; fn++) 
 584              		.loc 1 62 73 is_stmt 1 discriminator 3 view .LVU128
 585              	.L62:
  62:./init/main.c ****     for (initcall_t *fn = __start_fsinitcall; fn != __end_fsinitcall; fn++) 
 586              		.loc 1 62 50 discriminator 1 view .LVU129
 587 000c 024B     		ldr	r3, .L65+4
 588 000e 9C42     		cmp	r4, r3
 589 0010 F9D1     		bne	.L63
 590              	.LBE14:
  64:./init/main.c **** }
 591              		.loc 1 64 1 is_stmt 0 view .LVU130
 592 0012 10BD     		pop	{r4, pc}
 593              	.LVL54:
 594              	.L66:
 595              		.loc 1 64 1 view .LVU131
 596              		.align	2
 597              	.L65:
 598 0014 00000000 		.word	__start_fsinitcall
 599 0018 00000000 		.word	__end_fsinitcall
 600              		.cfi_endproc
 601              	.LFE1088:
 603              		.section	.text.do_fs_initcall_sync,"ax",%progbits
 604              		.align	1
 605              		.syntax unified
 606              		.thumb
 607              		.thumb_func
 609              	do_fs_initcall_sync:
 610              	.LFB1089:
  65:./init/main.c **** static void do_fs_initcall_sync(void){
 611              		.loc 1 65 38 is_stmt 1 view -0
 612              		.cfi_startproc
 613              		@ args = 0, pretend = 0, frame = 0
 614              		@ frame_needed = 0, uses_anonymous_args = 0
 615 0000 10B5     		push	{r4, lr}
 616              	.LCFI11:
 617              		.cfi_def_cfa_offset 8
 618              		.cfi_offset 4, -8
 619              		.cfi_offset 14, -4
  66:./init/main.c ****     for (initcall_t *fn = __start_fs_initcall_sync; fn != __end_fs_initcall_sync; fn++) 
ARM GAS  /tmp/cceTHSzr.s 			page 13


 620              		.loc 1 66 5 view .LVU133
 621              	.LBB15:
 622              		.loc 1 66 10 view .LVU134
 623              	.LVL55:
 624              		.loc 1 66 22 is_stmt 0 view .LVU135
 625 0002 044C     		ldr	r4, .L71
 626              		.loc 1 66 5 view .LVU136
 627 0004 02E0     		b	.L68
 628              	.LVL56:
 629              	.L69:
  67:./init/main.c ****         (*fn)();
 630              		.loc 1 67 9 is_stmt 1 view .LVU137
 631              		.loc 1 67 10 is_stmt 0 view .LVU138
 632 0006 54F8043B 		ldr	r3, [r4], #4
 633              	.LVL57:
 634              		.loc 1 67 10 view .LVU139
 635 000a 9847     		blx	r3
 636              	.LVL58:
  66:./init/main.c ****     for (initcall_t *fn = __start_fs_initcall_sync; fn != __end_fs_initcall_sync; fn++) 
 637              		.loc 1 66 85 is_stmt 1 discriminator 3 view .LVU140
 638              	.L68:
  66:./init/main.c ****     for (initcall_t *fn = __start_fs_initcall_sync; fn != __end_fs_initcall_sync; fn++) 
 639              		.loc 1 66 56 discriminator 1 view .LVU141
 640 000c 024B     		ldr	r3, .L71+4
 641 000e 9C42     		cmp	r4, r3
 642 0010 F9D1     		bne	.L69
 643              	.LBE15:
  68:./init/main.c **** }
 644              		.loc 1 68 1 is_stmt 0 view .LVU142
 645 0012 10BD     		pop	{r4, pc}
 646              	.LVL59:
 647              	.L72:
 648              		.loc 1 68 1 view .LVU143
 649              		.align	2
 650              	.L71:
 651 0014 00000000 		.word	__start_fs_initcall_sync
 652 0018 00000000 		.word	__end_fs_initcall_sync
 653              		.cfi_endproc
 654              	.LFE1089:
 656              		.section	.text.rootfs_init,"ax",%progbits
 657              		.align	1
 658              		.syntax unified
 659              		.thumb
 660              		.thumb_func
 662              	rootfs_init:
 663              	.LFB1090:
  69:./init/main.c **** static void rootfs_init(void){
 664              		.loc 1 69 30 is_stmt 1 view -0
 665              		.cfi_startproc
 666              		@ args = 0, pretend = 0, frame = 0
 667              		@ frame_needed = 0, uses_anonymous_args = 0
 668 0000 10B5     		push	{r4, lr}
 669              	.LCFI12:
 670              		.cfi_def_cfa_offset 8
 671              		.cfi_offset 4, -8
 672              		.cfi_offset 14, -4
  70:./init/main.c ****     for (initcall_t *fn = __start_rootfsinitcall; fn != __end_rootfsinitcall; fn++) 
ARM GAS  /tmp/cceTHSzr.s 			page 14


 673              		.loc 1 70 5 view .LVU145
 674              	.LBB16:
 675              		.loc 1 70 10 view .LVU146
 676              	.LVL60:
 677              		.loc 1 70 22 is_stmt 0 view .LVU147
 678 0002 044C     		ldr	r4, .L77
 679              		.loc 1 70 5 view .LVU148
 680 0004 02E0     		b	.L74
 681              	.LVL61:
 682              	.L75:
  71:./init/main.c ****         (*fn)();
 683              		.loc 1 71 9 is_stmt 1 view .LVU149
 684              		.loc 1 71 10 is_stmt 0 view .LVU150
 685 0006 54F8043B 		ldr	r3, [r4], #4
 686              	.LVL62:
 687              		.loc 1 71 10 view .LVU151
 688 000a 9847     		blx	r3
 689              	.LVL63:
  70:./init/main.c ****     for (initcall_t *fn = __start_rootfsinitcall; fn != __end_rootfsinitcall; fn++) 
 690              		.loc 1 70 81 is_stmt 1 discriminator 3 view .LVU152
 691              	.L74:
  70:./init/main.c ****     for (initcall_t *fn = __start_rootfsinitcall; fn != __end_rootfsinitcall; fn++) 
 692              		.loc 1 70 54 discriminator 1 view .LVU153
 693 000c 024B     		ldr	r3, .L77+4
 694 000e 9C42     		cmp	r4, r3
 695 0010 F9D1     		bne	.L75
 696              	.LBE16:
  72:./init/main.c **** }
 697              		.loc 1 72 1 is_stmt 0 view .LVU154
 698 0012 10BD     		pop	{r4, pc}
 699              	.LVL64:
 700              	.L78:
 701              		.loc 1 72 1 view .LVU155
 702              		.align	2
 703              	.L77:
 704 0014 00000000 		.word	__start_rootfsinitcall
 705 0018 00000000 		.word	__end_rootfsinitcall
 706              		.cfi_endproc
 707              	.LFE1090:
 709              		.section	.text.do_deviceinitcall,"ax",%progbits
 710              		.align	1
 711              		.syntax unified
 712              		.thumb
 713              		.thumb_func
 715              	do_deviceinitcall:
 716              	.LFB1091:
  73:./init/main.c **** initcall_fn(deviceinitcall);
 717              		.loc 1 73 1 is_stmt 1 view -0
 718              		.cfi_startproc
 719              		@ args = 0, pretend = 0, frame = 0
 720              		@ frame_needed = 0, uses_anonymous_args = 0
 721 0000 10B5     		push	{r4, lr}
 722              	.LCFI13:
 723              		.cfi_def_cfa_offset 8
 724              		.cfi_offset 4, -8
 725              		.cfi_offset 14, -4
 726              		.loc 1 73 1 view .LVU157
ARM GAS  /tmp/cceTHSzr.s 			page 15


 727              	.LBB17:
 728              		.loc 1 73 1 view .LVU158
 729              	.LVL65:
 730              		.loc 1 73 1 is_stmt 0 view .LVU159
 731 0002 044C     		ldr	r4, .L83
 732 0004 02E0     		b	.L80
 733              	.LVL66:
 734              	.L81:
 735              		.loc 1 73 1 is_stmt 1 discriminator 3 view .LVU160
 736 0006 54F8043B 		ldr	r3, [r4], #4
 737              	.LVL67:
 738              		.loc 1 73 1 is_stmt 0 discriminator 3 view .LVU161
 739 000a 9847     		blx	r3
 740              	.LVL68:
 741              		.loc 1 73 1 is_stmt 1 discriminator 3 view .LVU162
 742              	.L80:
 743              		.loc 1 73 1 discriminator 2 view .LVU163
 744 000c 024B     		ldr	r3, .L83+4
 745 000e 9C42     		cmp	r4, r3
 746 0010 F9D1     		bne	.L81
 747              	.LBE17:
 748              		.loc 1 73 1 is_stmt 0 view .LVU164
 749 0012 10BD     		pop	{r4, pc}
 750              	.LVL69:
 751              	.L84:
 752              		.loc 1 73 1 view .LVU165
 753              		.align	2
 754              	.L83:
 755 0014 00000000 		.word	__start_deviceinitcall
 756 0018 00000000 		.word	__end_deviceinitcall
 757              		.cfi_endproc
 758              	.LFE1091:
 760              		.section	.text.do_device_initcall_sync,"ax",%progbits
 761              		.align	1
 762              		.syntax unified
 763              		.thumb
 764              		.thumb_func
 766              	do_device_initcall_sync:
 767              	.LFB1092:
  74:./init/main.c **** static void do_device_initcall_sync(void){
 768              		.loc 1 74 42 is_stmt 1 view -0
 769              		.cfi_startproc
 770              		@ args = 0, pretend = 0, frame = 0
 771              		@ frame_needed = 0, uses_anonymous_args = 0
 772 0000 10B5     		push	{r4, lr}
 773              	.LCFI14:
 774              		.cfi_def_cfa_offset 8
 775              		.cfi_offset 4, -8
 776              		.cfi_offset 14, -4
  75:./init/main.c ****     for (initcall_t *fn = __start_device_initcall_sync; fn != __end_device_initcall_sync; fn++) 
 777              		.loc 1 75 5 view .LVU167
 778              	.LBB18:
 779              		.loc 1 75 10 view .LVU168
 780              	.LVL70:
 781              		.loc 1 75 22 is_stmt 0 view .LVU169
 782 0002 044C     		ldr	r4, .L89
 783              		.loc 1 75 5 view .LVU170
ARM GAS  /tmp/cceTHSzr.s 			page 16


 784 0004 02E0     		b	.L86
 785              	.LVL71:
 786              	.L87:
  76:./init/main.c ****         (*fn)();
 787              		.loc 1 76 9 is_stmt 1 view .LVU171
 788              		.loc 1 76 10 is_stmt 0 view .LVU172
 789 0006 54F8043B 		ldr	r3, [r4], #4
 790              	.LVL72:
 791              		.loc 1 76 10 view .LVU173
 792 000a 9847     		blx	r3
 793              	.LVL73:
  75:./init/main.c ****     for (initcall_t *fn = __start_device_initcall_sync; fn != __end_device_initcall_sync; fn++) 
 794              		.loc 1 75 93 is_stmt 1 discriminator 3 view .LVU174
 795              	.L86:
  75:./init/main.c ****     for (initcall_t *fn = __start_device_initcall_sync; fn != __end_device_initcall_sync; fn++) 
 796              		.loc 1 75 60 discriminator 1 view .LVU175
 797 000c 024B     		ldr	r3, .L89+4
 798 000e 9C42     		cmp	r4, r3
 799 0010 F9D1     		bne	.L87
 800              	.LBE18:
  77:./init/main.c **** }
 801              		.loc 1 77 1 is_stmt 0 view .LVU176
 802 0012 10BD     		pop	{r4, pc}
 803              	.LVL74:
 804              	.L90:
 805              		.loc 1 77 1 view .LVU177
 806              		.align	2
 807              	.L89:
 808 0014 00000000 		.word	__start_device_initcall_sync
 809 0018 00000000 		.word	__end_device_initcall_sync
 810              		.cfi_endproc
 811              	.LFE1092:
 813              		.section	.text.do_lateinitcall,"ax",%progbits
 814              		.align	1
 815              		.syntax unified
 816              		.thumb
 817              		.thumb_func
 819              	do_lateinitcall:
 820              	.LFB1093:
  78:./init/main.c **** static void do_lateinitcall(void){
 821              		.loc 1 78 34 is_stmt 1 view -0
 822              		.cfi_startproc
 823              		@ args = 0, pretend = 0, frame = 0
 824              		@ frame_needed = 0, uses_anonymous_args = 0
 825 0000 10B5     		push	{r4, lr}
 826              	.LCFI15:
 827              		.cfi_def_cfa_offset 8
 828              		.cfi_offset 4, -8
 829              		.cfi_offset 14, -4
  79:./init/main.c ****     for (initcall_t *fn = __start_lateinitcall; fn != __end_lateinitcall; fn++) 
 830              		.loc 1 79 5 view .LVU179
 831              	.LBB19:
 832              		.loc 1 79 10 view .LVU180
 833              	.LVL75:
 834              		.loc 1 79 22 is_stmt 0 view .LVU181
 835 0002 044C     		ldr	r4, .L95
 836              		.loc 1 79 5 view .LVU182
ARM GAS  /tmp/cceTHSzr.s 			page 17


 837 0004 02E0     		b	.L92
 838              	.LVL76:
 839              	.L93:
  80:./init/main.c ****         (*fn)();
 840              		.loc 1 80 9 is_stmt 1 view .LVU183
 841              		.loc 1 80 10 is_stmt 0 view .LVU184
 842 0006 54F8043B 		ldr	r3, [r4], #4
 843              	.LVL77:
 844              		.loc 1 80 10 view .LVU185
 845 000a 9847     		blx	r3
 846              	.LVL78:
  79:./init/main.c ****     for (initcall_t *fn = __start_lateinitcall; fn != __end_lateinitcall; fn++) 
 847              		.loc 1 79 77 is_stmt 1 discriminator 3 view .LVU186
 848              	.L92:
  79:./init/main.c ****     for (initcall_t *fn = __start_lateinitcall; fn != __end_lateinitcall; fn++) 
 849              		.loc 1 79 52 discriminator 1 view .LVU187
 850 000c 024B     		ldr	r3, .L95+4
 851 000e 9C42     		cmp	r4, r3
 852 0010 F9D1     		bne	.L93
 853              	.LBE19:
  81:./init/main.c **** }
 854              		.loc 1 81 1 is_stmt 0 view .LVU188
 855 0012 10BD     		pop	{r4, pc}
 856              	.LVL79:
 857              	.L96:
 858              		.loc 1 81 1 view .LVU189
 859              		.align	2
 860              	.L95:
 861 0014 00000000 		.word	__start_lateinitcall
 862 0018 00000000 		.word	__end_lateinitcall
 863              		.cfi_endproc
 864              	.LFE1093:
 866              		.section	.text.do_late_initcall_sync,"ax",%progbits
 867              		.align	1
 868              		.syntax unified
 869              		.thumb
 870              		.thumb_func
 872              	do_late_initcall_sync:
 873              	.LFB1094:
  82:./init/main.c **** static void do_late_initcall_sync(void){
 874              		.loc 1 82 40 is_stmt 1 view -0
 875              		.cfi_startproc
 876              		@ args = 0, pretend = 0, frame = 0
 877              		@ frame_needed = 0, uses_anonymous_args = 0
 878 0000 10B5     		push	{r4, lr}
 879              	.LCFI16:
 880              		.cfi_def_cfa_offset 8
 881              		.cfi_offset 4, -8
 882              		.cfi_offset 14, -4
  83:./init/main.c ****     for (initcall_t *fn = __start_late_initcall_sync; fn != __end_late_initcall_sync; fn++) 
 883              		.loc 1 83 5 view .LVU191
 884              	.LBB20:
 885              		.loc 1 83 10 view .LVU192
 886              	.LVL80:
 887              		.loc 1 83 22 is_stmt 0 view .LVU193
 888 0002 044C     		ldr	r4, .L101
 889              		.loc 1 83 5 view .LVU194
ARM GAS  /tmp/cceTHSzr.s 			page 18


 890 0004 02E0     		b	.L98
 891              	.LVL81:
 892              	.L99:
  84:./init/main.c ****         (*fn)();
 893              		.loc 1 84 9 is_stmt 1 view .LVU195
 894              		.loc 1 84 10 is_stmt 0 view .LVU196
 895 0006 54F8043B 		ldr	r3, [r4], #4
 896              	.LVL82:
 897              		.loc 1 84 10 view .LVU197
 898 000a 9847     		blx	r3
 899              	.LVL83:
  83:./init/main.c ****     for (initcall_t *fn = __start_late_initcall_sync; fn != __end_late_initcall_sync; fn++) 
 900              		.loc 1 83 89 is_stmt 1 discriminator 3 view .LVU198
 901              	.L98:
  83:./init/main.c ****     for (initcall_t *fn = __start_late_initcall_sync; fn != __end_late_initcall_sync; fn++) 
 902              		.loc 1 83 58 discriminator 1 view .LVU199
 903 000c 024B     		ldr	r3, .L101+4
 904 000e 9C42     		cmp	r4, r3
 905 0010 F9D1     		bne	.L99
 906              	.LBE20:
  85:./init/main.c **** }
 907              		.loc 1 85 1 is_stmt 0 view .LVU200
 908 0012 10BD     		pop	{r4, pc}
 909              	.LVL84:
 910              	.L102:
 911              		.loc 1 85 1 view .LVU201
 912              		.align	2
 913              	.L101:
 914 0014 00000000 		.word	__start_late_initcall_sync
 915 0018 00000000 		.word	__end_late_initcall_sync
 916              		.cfi_endproc
 917              	.LFE1094:
 919              		.section	.text.device_tree_init,"ax",%progbits
 920              		.align	1
 921              		.syntax unified
 922              		.thumb
 923              		.thumb_func
 925              	device_tree_init:
 926              	.LFB1096:
  86:./init/main.c **** 
  87:./init/main.c **** 
  88:./init/main.c **** void print_GCC_Message(){
  89:./init/main.c ****     pr_info("\n\rGCC Version: %d.%d.%d   Compiler:%s ", __GNUC__, __GNUC_MINOR__, __GNUC_PATCHLEVEL
  90:./init/main.c ****     #if defined(__x86_64__) || defined(__aarch64__)
  91:./init/main.c ****     pr_info("64-bit target ");
  92:./init/main.c ****     #else
  93:./init/main.c ****     pr_info("32-bit target ");
  94:./init/main.c ****     #endif
  95:./init/main.c **** 	pr_info("Version: protype N/A\r\n");    
  96:./init/main.c **** }
  97:./init/main.c **** 
  98:./init/main.c **** 
  99:./init/main.c **** 
 100:./init/main.c **** 
 101:./init/main.c **** static void device_tree_init(){
 927              		.loc 1 101 31 is_stmt 1 view -0
 928              		.cfi_startproc
ARM GAS  /tmp/cceTHSzr.s 			page 19


 929              		@ args = 0, pretend = 0, frame = 0
 930              		@ frame_needed = 0, uses_anonymous_args = 0
 931 0000 08B5     		push	{r3, lr}
 932              	.LCFI17:
 933              		.cfi_def_cfa_offset 8
 934              		.cfi_offset 3, -8
 935              		.cfi_offset 14, -4
 102:./init/main.c ****     if(__dtb_file_start_address == __dtb_file_end_address || fdt_check_header(__dtb_file_start_addr
 936              		.loc 1 102 5 view .LVU203
 937              		.loc 1 102 7 is_stmt 0 view .LVU204
 938 0002 054A     		ldr	r2, .L107
 939 0004 054B     		ldr	r3, .L107+4
 940 0006 9A42     		cmp	r2, r3
 941 0008 03D0     		beq	.L104
 942              		.loc 1 102 62 discriminator 2 view .LVU205
 943 000a 1046     		mov	r0, r2
 944 000c FFF7FEFF 		bl	fdt_check_header
 945              	.LVL85:
 946              		.loc 1 102 59 discriminator 1 view .LVU206
 947 0010 00B1     		cbz	r0, .L103
 948              	.L104:
 949              		.loc 1 102 110 is_stmt 1 discriminator 3 view .LVU207
 950              		.loc 1 102 119 discriminator 3 view .LVU208
 951              		.loc 1 102 115 discriminator 3 view .LVU209
 952 0012 FEE7     		b	.L104
 953              	.L103:
 103:./init/main.c **** }
 954              		.loc 1 103 1 is_stmt 0 view .LVU210
 955 0014 08BD     		pop	{r3, pc}
 956              	.L108:
 957 0016 00BF     		.align	2
 958              	.L107:
 959 0018 00000000 		.word	__dtb_file_start_address
 960 001c 00000000 		.word	__dtb_file_end_address
 961              		.cfi_endproc
 962              	.LFE1096:
 964              		.section	.text.memory_init,"ax",%progbits
 965              		.align	1
 966              		.syntax unified
 967              		.thumb
 968              		.thumb_func
 970              	memory_init:
 971              	.LFB1097:
 104:./init/main.c **** 
 105:./init/main.c **** static void memory_init(void){
 972              		.loc 1 105 30 is_stmt 1 view -0
 973              		.cfi_startproc
 974              		@ args = 0, pretend = 0, frame = 0
 975              		@ frame_needed = 0, uses_anonymous_args = 0
 976 0000 08B5     		push	{r3, lr}
 977              	.LCFI18:
 978              		.cfi_def_cfa_offset 8
 979              		.cfi_offset 3, -8
 980              		.cfi_offset 14, -4
 106:./init/main.c ****     sys_heap_init();
 981              		.loc 1 106 5 view .LVU212
 982 0002 FFF7FEFF 		bl	sys_heap_init
ARM GAS  /tmp/cceTHSzr.s 			page 20


 983              	.LVL86:
 107:./init/main.c ****     sys_expand_heap_init();
 984              		.loc 1 107 5 view .LVU213
 985 0006 FFF7FEFF 		bl	sys_expand_heap_init
 986              	.LVL87:
 108:./init/main.c **** }
 987              		.loc 1 108 1 is_stmt 0 view .LVU214
 988 000a 08BD     		pop	{r3, pc}
 989              		.cfi_endproc
 990              	.LFE1097:
 992              		.section	.rodata.printk_init.str1.4,"aMS",%progbits,1
 993              		.align	2
 994              	.LC0:
 995 0000 7072696E 		.ascii	"printk init\012\000"
 995      746B2069 
 995      6E69740A 
 995      00
 996              		.section	.text.printk_init,"ax",%progbits
 997              		.align	1
 998              		.syntax unified
 999              		.thumb
 1000              		.thumb_func
 1002              	printk_init:
 1003              	.LFB1098:
 109:./init/main.c **** 
 110:./init/main.c **** static  void printk_init()
 111:./init/main.c **** {
 1004              		.loc 1 111 1 is_stmt 1 view -0
 1005              		.cfi_startproc
 1006              		@ args = 0, pretend = 0, frame = 0
 1007              		@ frame_needed = 0, uses_anonymous_args = 0
 1008 0000 08B5     		push	{r3, lr}
 1009              	.LCFI19:
 1010              		.cfi_def_cfa_offset 8
 1011              		.cfi_offset 3, -8
 1012              		.cfi_offset 14, -4
 112:./init/main.c ****     printk_service_init();
 1013              		.loc 1 112 5 view .LVU216
 1014 0002 FFF7FEFF 		bl	printk_service_init
 1015              	.LVL88:
 113:./init/main.c ****     printk(KERN_INFO "printk init\n");
 1016              		.loc 1 113 5 view .LVU217
 1017 0006 0248     		ldr	r0, .L113
 1018 0008 FFF7FEFF 		bl	printk
 1019              	.LVL89:
 114:./init/main.c **** }
 1020              		.loc 1 114 1 is_stmt 0 view .LVU218
 1021 000c 08BD     		pop	{r3, pc}
 1022              	.L114:
 1023 000e 00BF     		.align	2
 1024              	.L113:
 1025 0010 00000000 		.word	.LC0
 1026              		.cfi_endproc
 1027              	.LFE1098:
 1029              		.section	.text.kthread_run,"ax",%progbits
 1030              		.align	1
 1031              		.syntax unified
ARM GAS  /tmp/cceTHSzr.s 			page 21


 1032              		.thumb
 1033              		.thumb_func
 1035              	kthread_run:
 1036              	.LVL90:
 1037              	.LFB1077:
 1038              		.file 2 "./include/linux/kthread.h"
   1:./include/linux/kthread.h **** #ifndef _KTHREADS_H_
   2:./include/linux/kthread.h **** #define _KTHREADS_H_
   3:./include/linux/kthread.h **** 
   4:./include/linux/kthread.h **** #include <linux/sched.h>
   5:./include/linux/kthread.h **** #include <linux/sprintf.h>
   6:./include/linux/kthread.h **** #include <linux/stdarg.h>
   7:./include/linux/kthread.h **** #include <generated/autoconf.h>
   8:./include/linux/kthread.h **** 
   9:./include/linux/kthread.h **** #define KTHREAD_DEFAULT_PRIORITY CONFIG_KTHREAD_DEFAULT_PRIORITY
  10:./include/linux/kthread.h **** #define KTHREAD_DEFAULT_STACK_SIZE 1024*CONFIG_KTHREAD_DEFAULT_STACK_SIZE
  11:./include/linux/kthread.h **** #define default_core_number CONFIG_KTHREAD_DEFAULT_USE_CPU_CORE
  12:./include/linux/kthread.h **** 
  13:./include/linux/kthread.h **** static struct task_struct *kthread_run(
  14:./include/linux/kthread.h ****     int (*threadfn)(void *data), void *data, const char namefmt[],...)
  15:./include/linux/kthread.h **** {
 1039              		.loc 2 15 1 is_stmt 1 view -0
 1040              		.cfi_startproc
 1041              		@ args = 4, pretend = 8, frame = 136
 1042              		@ frame_needed = 0, uses_anonymous_args = 1
 1043              		.loc 2 15 1 is_stmt 0 view .LVU220
 1044 0000 0CB4     		push	{r2, r3}
 1045              	.LCFI20:
 1046              		.cfi_def_cfa_offset 8
 1047              		.cfi_offset 2, -8
 1048              		.cfi_offset 3, -4
 1049 0002 2DE9F041 		push	{r4, r5, r6, r7, r8, lr}
 1050              	.LCFI21:
 1051              		.cfi_def_cfa_offset 32
 1052              		.cfi_offset 4, -32
 1053              		.cfi_offset 5, -28
 1054              		.cfi_offset 6, -24
 1055              		.cfi_offset 7, -20
 1056              		.cfi_offset 8, -16
 1057              		.cfi_offset 14, -12
 1058 0006 A4B0     		sub	sp, sp, #144
 1059              	.LCFI22:
 1060              		.cfi_def_cfa_offset 176
 1061 0008 0546     		mov	r5, r0
 1062 000a 0E46     		mov	r6, r1
 1063 000c 2AAC     		add	r4, sp, #168
 1064 000e 54F8047B 		ldr	r7, [r4], #4
  16:./include/linux/kthread.h ****     block_scheduler(NULL);
 1065              		.loc 2 16 5 is_stmt 1 view .LVU221
 1066 0012 0020     		movs	r0, #0
 1067              	.LVL91:
 1068              		.loc 2 16 5 is_stmt 0 view .LVU222
 1069 0014 FFF7FEFF 		bl	block_scheduler
 1070              	.LVL92:
  17:./include/linux/kthread.h ****     char name[128];
 1071              		.loc 2 17 5 is_stmt 1 view .LVU223
  18:./include/linux/kthread.h ****     va_list args;
ARM GAS  /tmp/cceTHSzr.s 			page 22


 1072              		.loc 2 18 5 view .LVU224
  19:./include/linux/kthread.h ****     va_start(args, namefmt);
 1073              		.loc 2 19 5 view .LVU225
 1074 0018 0394     		str	r4, [sp, #12]
  20:./include/linux/kthread.h ****     vsnprintf(name, sizeof(name), namefmt, args);
 1075              		.loc 2 20 5 view .LVU226
 1076 001a 0DF11008 		add	r8, sp, #16
 1077 001e 2346     		mov	r3, r4
 1078 0020 3A46     		mov	r2, r7
 1079 0022 8021     		movs	r1, #128
 1080 0024 4046     		mov	r0, r8
 1081 0026 FFF7FEFF 		bl	vsnprintf
 1082              	.LVL93:
  21:./include/linux/kthread.h ****     va_end(args);
 1083              		.loc 2 21 5 view .LVU227
  22:./include/linux/kthread.h ****     struct task_struct *t = task_run(
 1084              		.loc 2 22 5 view .LVU228
 1085              		.loc 2 22 29 is_stmt 0 view .LVU229
 1086 002a 0027     		movs	r7, #0
 1087 002c 0197     		str	r7, [sp, #4]
 1088 002e CDF80080 		str	r8, [sp]
 1089 0032 0823     		movs	r3, #8
 1090 0034 3246     		mov	r2, r6
 1091 0036 4FF40051 		mov	r1, #8192
 1092 003a 2846     		mov	r0, r5
 1093 003c FFF7FEFF 		bl	task_run
 1094              	.LVL94:
 1095 0040 0446     		mov	r4, r0
 1096              	.LVL95:
  23:./include/linux/kthread.h ****     threadfn,KTHREAD_DEFAULT_STACK_SIZE,data,KTHREAD_DEFAULT_PRIORITY,name,default_core_number);
  24:./include/linux/kthread.h ****     run_scheduler(NULL);
 1097              		.loc 2 24 5 is_stmt 1 view .LVU230
 1098 0042 3846     		mov	r0, r7
 1099              	.LVL96:
 1100              		.loc 2 24 5 is_stmt 0 view .LVU231
 1101 0044 FFF7FEFF 		bl	run_scheduler
 1102              	.LVL97:
  25:./include/linux/kthread.h ****     return t;
 1103              		.loc 2 25 5 is_stmt 1 view .LVU232
  26:./include/linux/kthread.h **** }
 1104              		.loc 2 26 1 is_stmt 0 view .LVU233
 1105 0048 2046     		mov	r0, r4
 1106 004a 24B0     		add	sp, sp, #144
 1107              	.LCFI23:
 1108              		.cfi_def_cfa_offset 32
 1109              		@ sp needed
 1110 004c BDE8F041 		pop	{r4, r5, r6, r7, r8, lr}
 1111              	.LCFI24:
 1112              		.cfi_restore 14
 1113              		.cfi_restore 8
 1114              		.cfi_restore 7
 1115              		.cfi_restore 6
 1116              		.cfi_restore 5
 1117              		.cfi_restore 4
 1118              		.cfi_def_cfa_offset 8
 1119              	.LVL98:
 1120              		.loc 2 26 1 view .LVU234
ARM GAS  /tmp/cceTHSzr.s 			page 23


 1121 0050 02B0     		add	sp, sp, #8
 1122              	.LCFI25:
 1123              		.cfi_restore 3
 1124              		.cfi_restore 2
 1125              		.cfi_def_cfa_offset 0
 1126 0052 7047     		bx	lr
 1127              		.cfi_endproc
 1128              	.LFE1077:
 1130              		.section	.rodata.print_GCC_Message.str1.4,"aMS",%progbits,1
 1131              		.align	2
 1132              	.LC1:
 1133 0000 0A0D4743 		.ascii	"\012\015GCC Version: %d.%d.%d   Compiler:%s \000"
 1133      43205665 
 1133      7273696F 
 1133      6E3A2025 
 1133      642E2564 
 1134 0027 00       		.align	2
 1135              	.LC2:
 1136 0028 31332E32 		.ascii	"13.2.1 20231009\000"
 1136      2E312032 
 1136      30323331 
 1136      30303900 
 1137              		.align	2
 1138              	.LC3:
 1139 0038 33322D62 		.ascii	"32-bit target \000"
 1139      69742074 
 1139      61726765 
 1139      742000
 1140 0047 00       		.align	2
 1141              	.LC4:
 1142 0048 56657273 		.ascii	"Version: protype N/A\015\012\000"
 1142      696F6E3A 
 1142      2070726F 
 1142      74797065 
 1142      204E2F41 
 1143              		.section	.text.print_GCC_Message,"ax",%progbits
 1144              		.align	1
 1145              		.global	print_GCC_Message
 1146              		.syntax unified
 1147              		.thumb
 1148              		.thumb_func
 1150              	print_GCC_Message:
 1151              	.LFB1095:
  88:./init/main.c ****     pr_info("\n\rGCC Version: %d.%d.%d   Compiler:%s ", __GNUC__, __GNUC_MINOR__, __GNUC_PATCHLEVEL
 1152              		.loc 1 88 25 is_stmt 1 view -0
 1153              		.cfi_startproc
 1154              		@ args = 0, pretend = 0, frame = 0
 1155              		@ frame_needed = 0, uses_anonymous_args = 0
 1156 0000 00B5     		push	{lr}
 1157              	.LCFI26:
 1158              		.cfi_def_cfa_offset 4
 1159              		.cfi_offset 14, -4
 1160 0002 83B0     		sub	sp, sp, #12
 1161              	.LCFI27:
 1162              		.cfi_def_cfa_offset 16
  89:./init/main.c ****     #if defined(__x86_64__) || defined(__aarch64__)
 1163              		.loc 1 89 5 view .LVU236
ARM GAS  /tmp/cceTHSzr.s 			page 24


 1164 0004 084B     		ldr	r3, .L119
 1165 0006 0093     		str	r3, [sp]
 1166 0008 0123     		movs	r3, #1
 1167 000a 0222     		movs	r2, #2
 1168 000c 0D21     		movs	r1, #13
 1169 000e 0748     		ldr	r0, .L119+4
 1170 0010 FFF7FEFF 		bl	printk
 1171              	.LVL99:
  93:./init/main.c ****     #endif
 1172              		.loc 1 93 5 view .LVU237
 1173 0014 0648     		ldr	r0, .L119+8
 1174 0016 FFF7FEFF 		bl	printk
 1175              	.LVL100:
  95:./init/main.c **** }
 1176              		.loc 1 95 2 view .LVU238
 1177 001a 0648     		ldr	r0, .L119+12
 1178 001c FFF7FEFF 		bl	printk
 1179              	.LVL101:
  96:./init/main.c **** 
 1180              		.loc 1 96 1 is_stmt 0 view .LVU239
 1181 0020 03B0     		add	sp, sp, #12
 1182              	.LCFI28:
 1183              		.cfi_def_cfa_offset 4
 1184              		@ sp needed
 1185 0022 5DF804FB 		ldr	pc, [sp], #4
 1186              	.L120:
 1187 0026 00BF     		.align	2
 1188              	.L119:
 1189 0028 28000000 		.word	.LC2
 1190 002c 00000000 		.word	.LC1
 1191 0030 38000000 		.word	.LC3
 1192 0034 48000000 		.word	.LC4
 1193              		.cfi_endproc
 1194              	.LFE1095:
 1196              		.section	.rodata.gpio_test.str1.4,"aMS",%progbits,1
 1197              		.align	2
 1198              	.LC5:
 1199 0000 4750494F 		.ascii	"GPIO test\012\015\000"
 1199      20746573 
 1199      740A0D00 
 1200              		.align	2
 1201              	.LC6:
 1202 000c 2F646576 		.ascii	"/dev/gpios\000"
 1202      2F677069 
 1202      6F7300
 1203 0017 00       		.align	2
 1204              	.LC7:
 1205 0018 6F70656E 		.ascii	"open file failed\012\015\000"
 1205      2066696C 
 1205      65206661 
 1205      696C6564 
 1205      0A0D00
 1206 002b 00       		.align	2
 1207              	.LC8:
 1208 002c 73657420 		.ascii	"set pin number failed\012\015\000"
 1208      70696E20 
 1208      6E756D62 
ARM GAS  /tmp/cceTHSzr.s 			page 25


 1208      65722066 
 1208      61696C65 
 1209              		.align	2
 1210              	.LC9:
 1211 0044 3100     		.ascii	"1\000"
 1212 0046 0000     		.align	2
 1213              	.LC10:
 1214 0048 3000     		.ascii	"0\000"
 1215              		.section	.text.gpio_test,"ax",%progbits
 1216              		.align	1
 1217              		.global	gpio_test
 1218              		.syntax unified
 1219              		.thumb
 1220              		.thumb_func
 1222              	gpio_test:
 1223              	.LFB1099:
 115:./init/main.c **** 
 116:./init/main.c **** 
 117:./init/main.c **** 
 118:./init/main.c **** void gpio_test(void)
 119:./init/main.c **** {
 1224              		.loc 1 119 1 is_stmt 1 view -0
 1225              		.cfi_startproc
 1226              		@ args = 0, pretend = 0, frame = 0
 1227              		@ frame_needed = 0, uses_anonymous_args = 0
 1228 0000 10B5     		push	{r4, lr}
 1229              	.LCFI29:
 1230              		.cfi_def_cfa_offset 8
 1231              		.cfi_offset 4, -8
 1232              		.cfi_offset 14, -4
 120:./init/main.c ****     printk("GPIO test\n\r");
 1233              		.loc 1 120 5 view .LVU241
 1234 0002 1648     		ldr	r0, .L129
 1235 0004 FFF7FEFF 		bl	printk
 1236              	.LVL102:
 121:./init/main.c ****     struct file *fp = filp_open("/dev/gpios", O_RDWR, 0);
 1237              		.loc 1 121 5 view .LVU242
 1238              		.loc 1 121 23 is_stmt 0 view .LVU243
 1239 0008 0022     		movs	r2, #0
 1240 000a 0221     		movs	r1, #2
 1241 000c 1448     		ldr	r0, .L129+4
 1242 000e FFF7FEFF 		bl	filp_open
 1243              	.LVL103:
 122:./init/main.c ****     if(IS_ERR(fp)){
 1244              		.loc 1 122 5 is_stmt 1 view .LVU244
 1245              	.LBB21:
 1246              	.LBI21:
 1247              		.file 3 "./include/linux/err.h"
   1:./include/linux/err.h **** /* SPDX-License-Identifier: GPL-2.0 */
   2:./include/linux/err.h **** #ifndef _LINUX_ERR_H
   3:./include/linux/err.h **** #define _LINUX_ERR_H
   4:./include/linux/err.h **** 
   5:./include/linux/err.h **** #include <linux/compiler_attributes.h>
   6:./include/linux/err.h **** #include <linux/compiler.h>
   7:./include/linux/err.h **** #include <linux/types.h>
   8:./include/linux/err.h **** 
   9:./include/linux/err.h **** #include <asm/errno.h>
ARM GAS  /tmp/cceTHSzr.s 			page 26


  10:./include/linux/err.h **** 
  11:./include/linux/err.h **** /*
  12:./include/linux/err.h ****  * Kernel pointers have redundant information, so we can use a
  13:./include/linux/err.h ****  * scheme where we can return either an error code or a normal
  14:./include/linux/err.h ****  * pointer with the same return value.
  15:./include/linux/err.h ****  *
  16:./include/linux/err.h ****  * This should be a per-architecture thing, to allow different
  17:./include/linux/err.h ****  * error and pointer decisions.
  18:./include/linux/err.h ****  */
  19:./include/linux/err.h **** #define MAX_ERRNO	4095
  20:./include/linux/err.h **** 
  21:./include/linux/err.h **** #ifndef __ASSEMBLY__
  22:./include/linux/err.h **** 
  23:./include/linux/err.h **** /**
  24:./include/linux/err.h ****  * IS_ERR_VALUE - Detect an error pointer.
  25:./include/linux/err.h ****  * @x: The pointer to check.
  26:./include/linux/err.h ****  *
  27:./include/linux/err.h ****  * Like IS_ERR(), but does not generate a compiler warning if result is unused.
  28:./include/linux/err.h ****  */
  29:./include/linux/err.h **** 
  30:./include/linux/err.h **** #ifndef unlikely
  31:./include/linux/err.h **** #  define unlikely(x) __builtin_expect(!!(x), 0)
  32:./include/linux/err.h **** #endif
  33:./include/linux/err.h **** 
  34:./include/linux/err.h **** #ifndef likely
  35:./include/linux/err.h **** #  define likely(x) __builtin_expect(!!(x), 1)
  36:./include/linux/err.h **** #endif
  37:./include/linux/err.h **** 
  38:./include/linux/err.h **** #define IS_ERR_VALUE(x) unlikely((unsigned long)(void *)(x) >= (unsigned long)-MAX_ERRNO)
  39:./include/linux/err.h **** 
  40:./include/linux/err.h **** /**
  41:./include/linux/err.h ****  * ERR_PTR - Create an error pointer.
  42:./include/linux/err.h ****  * @error: A negative error code.
  43:./include/linux/err.h ****  *
  44:./include/linux/err.h ****  * Encodes @error into a pointer value. Users should consider the result
  45:./include/linux/err.h ****  * opaque and not assume anything about how the error is encoded.
  46:./include/linux/err.h ****  *
  47:./include/linux/err.h ****  * Return: A pointer with @error encoded within its value.
  48:./include/linux/err.h ****  */
  49:./include/linux/err.h **** static inline void * __must_check ERR_PTR(long error)
  50:./include/linux/err.h **** {
  51:./include/linux/err.h **** 	return (void *) error;
  52:./include/linux/err.h **** }
  53:./include/linux/err.h **** 
  54:./include/linux/err.h **** /* Return the pointer in the percpu address space. */
  55:./include/linux/err.h **** #define ERR_PTR_PCPU(error) ((void __percpu *)(unsigned long)ERR_PTR(error))
  56:./include/linux/err.h **** 
  57:./include/linux/err.h **** /**
  58:./include/linux/err.h ****  * PTR_ERR - Extract the error code from an error pointer.
  59:./include/linux/err.h ****  * @ptr: An error pointer.
  60:./include/linux/err.h ****  * Return: The error code within @ptr.
  61:./include/linux/err.h ****  */
  62:./include/linux/err.h **** static inline long __must_check PTR_ERR(__force const void *ptr)
  63:./include/linux/err.h **** {
  64:./include/linux/err.h **** 	return (long) ptr;
  65:./include/linux/err.h **** }
  66:./include/linux/err.h **** 
ARM GAS  /tmp/cceTHSzr.s 			page 27


  67:./include/linux/err.h **** /* Read an error pointer from the percpu address space. */
  68:./include/linux/err.h **** #define PTR_ERR_PCPU(ptr) (PTR_ERR((const void *)(__force const unsigned long)(ptr)))
  69:./include/linux/err.h **** 
  70:./include/linux/err.h **** /**
  71:./include/linux/err.h ****  * IS_ERR - Detect an error pointer.
  72:./include/linux/err.h ****  * @ptr: The pointer to check.
  73:./include/linux/err.h ****  * Return: true if @ptr is an error pointer, false otherwise.
  74:./include/linux/err.h ****  */
  75:./include/linux/err.h **** static inline bool __must_check IS_ERR(__force const void *ptr)
 1248              		.loc 3 75 33 view .LVU245
 1249              	.LBB22:
  76:./include/linux/err.h **** {
  77:./include/linux/err.h **** 	return IS_ERR_VALUE((unsigned long)ptr);
 1250              		.loc 3 77 2 view .LVU246
 1251              		.loc 3 77 2 is_stmt 0 view .LVU247
 1252              	.LBE22:
 1253              	.LBE21:
 1254              		.loc 1 122 7 discriminator 1 view .LVU248
 1255 0012 10F5805F 		cmn	r0, #4096
 1256 0016 18D8     		bhi	.L127
 1257 0018 0446     		mov	r4, r0
 123:./init/main.c ****         printk("open file failed\n\r");
 124:./init/main.c ****         return;
 125:./init/main.c ****     }
 126:./init/main.c ****     int i = vfs_ioctl(fp,GPIO_SET_PIN_NUMBER,18);
 1258              		.loc 1 126 5 is_stmt 1 view .LVU249
 1259              		.loc 1 126 13 is_stmt 0 view .LVU250
 1260 001a 1222     		movs	r2, #18
 1261 001c 4021     		movs	r1, #64
 1262 001e FFF7FEFF 		bl	vfs_ioctl
 1263              	.LVL104:
 127:./init/main.c ****     if(i < 0){
 1264              		.loc 1 127 5 is_stmt 1 view .LVU251
 1265              		.loc 1 127 7 is_stmt 0 view .LVU252
 1266 0022 0028     		cmp	r0, #0
 1267 0024 15DB     		blt	.L128
 128:./init/main.c ****         printk("set pin number failed\n\r");
 129:./init/main.c ****         return;
 130:./init/main.c ****     }
 131:./init/main.c ****     vfs_ioctl(fp,GPIO_OUTPUT,0);
 1268              		.loc 1 131 5 is_stmt 1 view .LVU253
 1269 0026 0022     		movs	r2, #0
 1270 0028 0221     		movs	r1, #2
 1271 002a 2046     		mov	r0, r4
 1272              	.LVL105:
 1273              		.loc 1 131 5 is_stmt 0 view .LVU254
 1274 002c FFF7FEFF 		bl	vfs_ioctl
 1275              	.LVL106:
 1276              	.L125:
 132:./init/main.c ****     while(1){
 1277              		.loc 1 132 5 is_stmt 1 view .LVU255
 133:./init/main.c ****         kernel_write(fp, "1", 1, 0);
 1278              		.loc 1 133 9 view .LVU256
 1279 0030 0023     		movs	r3, #0
 1280 0032 0122     		movs	r2, #1
 1281 0034 0B49     		ldr	r1, .L129+8
 1282 0036 2046     		mov	r0, r4
ARM GAS  /tmp/cceTHSzr.s 			page 28


 1283 0038 FFF7FEFF 		bl	kernel_write
 1284              	.LVL107:
 134:./init/main.c ****         kernel_write(fp, "0", 1, 0);        
 1285              		.loc 1 134 9 discriminator 1 view .LVU257
 1286 003c 0023     		movs	r3, #0
 1287 003e 0122     		movs	r2, #1
 1288 0040 0949     		ldr	r1, .L129+12
 1289 0042 2046     		mov	r0, r4
 1290 0044 FFF7FEFF 		bl	kernel_write
 1291              	.LVL108:
 132:./init/main.c ****     while(1){
 1292              		.loc 1 132 10 view .LVU258
 1293 0048 F2E7     		b	.L125
 1294              	.LVL109:
 1295              	.L127:
 123:./init/main.c ****         return;
 1296              		.loc 1 123 9 view .LVU259
 1297 004a 0848     		ldr	r0, .L129+16
 1298              	.LVL110:
 123:./init/main.c ****         return;
 1299              		.loc 1 123 9 is_stmt 0 view .LVU260
 1300 004c FFF7FEFF 		bl	printk
 1301              	.LVL111:
 124:./init/main.c ****     }
 1302              		.loc 1 124 9 is_stmt 1 view .LVU261
 1303 0050 02E0     		b	.L121
 1304              	.LVL112:
 1305              	.L128:
 128:./init/main.c ****         return;
 1306              		.loc 1 128 9 view .LVU262
 1307 0052 0748     		ldr	r0, .L129+20
 1308              	.LVL113:
 128:./init/main.c ****         return;
 1309              		.loc 1 128 9 is_stmt 0 view .LVU263
 1310 0054 FFF7FEFF 		bl	printk
 1311              	.LVL114:
 129:./init/main.c ****     }
 1312              		.loc 1 129 9 is_stmt 1 view .LVU264
 1313              	.L121:
 135:./init/main.c ****     }
 136:./init/main.c **** }
 1314              		.loc 1 136 1 is_stmt 0 view .LVU265
 1315 0058 10BD     		pop	{r4, pc}
 1316              	.L130:
 1317 005a 00BF     		.align	2
 1318              	.L129:
 1319 005c 00000000 		.word	.LC5
 1320 0060 0C000000 		.word	.LC6
 1321 0064 44000000 		.word	.LC9
 1322 0068 48000000 		.word	.LC10
 1323 006c 18000000 		.word	.LC7
 1324 0070 2C000000 		.word	.LC8
 1325              		.cfi_endproc
 1326              	.LFE1099:
 1328              		.section	.rodata.Kernel_Init.str1.4,"aMS",%progbits,1
 1329              		.align	2
 1330              	.LC11:
ARM GAS  /tmp/cceTHSzr.s 			page 29


 1331 0000 73797374 		.ascii	"system free memory size:%d kb\012\015\000"
 1331      656D2066 
 1331      72656520 
 1331      6D656D6F 
 1331      72792073 
 1332              		.section	.text.Kernel_Init,"ax",%progbits
 1333              		.align	1
 1334              		.global	Kernel_Init
 1335              		.syntax unified
 1336              		.thumb
 1337              		.thumb_func
 1339              	Kernel_Init:
 1340              	.LFB1100:
 137:./init/main.c **** 
 138:./init/main.c **** int Kernel_Init(void)
 139:./init/main.c **** {
 1341              		.loc 1 139 1 is_stmt 1 view -0
 1342              		.cfi_startproc
 1343              		@ args = 0, pretend = 0, frame = 0
 1344              		@ frame_needed = 0, uses_anonymous_args = 0
 1345 0000 08B5     		push	{r3, lr}
 1346              	.LCFI30:
 1347              		.cfi_def_cfa_offset 8
 1348              		.cfi_offset 3, -8
 1349              		.cfi_offset 14, -4
 140:./init/main.c **** 
 141:./init/main.c ****     do_archinitcall();
 1350              		.loc 1 141 5 view .LVU267
 1351 0002 FFF7FEFF 		bl	do_archinitcall
 1352              	.LVL115:
 142:./init/main.c ****     do_arch_initcall_sync();
 1353              		.loc 1 142 5 view .LVU268
 1354 0006 FFF7FEFF 		bl	do_arch_initcall_sync
 1355              	.LVL116:
 143:./init/main.c ****     do_subsysinitcall();
 1356              		.loc 1 143 5 view .LVU269
 1357 000a FFF7FEFF 		bl	do_subsysinitcall
 1358              	.LVL117:
 144:./init/main.c ****     do_subsys_initcall_sync();
 1359              		.loc 1 144 5 view .LVU270
 1360 000e FFF7FEFF 		bl	do_subsys_initcall_sync
 1361              	.LVL118:
 145:./init/main.c ****     
 146:./init/main.c ****     do_deviceinitcall();
 1362              		.loc 1 146 5 view .LVU271
 1363 0012 FFF7FEFF 		bl	do_deviceinitcall
 1364              	.LVL119:
 147:./init/main.c ****     do_device_initcall_sync();
 1365              		.loc 1 147 5 view .LVU272
 1366 0016 FFF7FEFF 		bl	do_device_initcall_sync
 1367              	.LVL120:
 148:./init/main.c ****     do_lateinitcall();
 1368              		.loc 1 148 5 view .LVU273
 1369 001a FFF7FEFF 		bl	do_lateinitcall
 1370              	.LVL121:
 149:./init/main.c ****     do_late_initcall_sync();
 1371              		.loc 1 149 5 view .LVU274
ARM GAS  /tmp/cceTHSzr.s 			page 30


 1372 001e FFF7FEFF 		bl	do_late_initcall_sync
 1373              	.LVL122:
 150:./init/main.c **** 
 151:./init/main.c ****     gpio_test(); 
 1374              		.loc 1 151 5 view .LVU275
 1375 0022 FFF7FEFF 		bl	gpio_test
 1376              	.LVL123:
 152:./init/main.c **** 
 153:./init/main.c ****     pr_info("system free memory size:%d kb\n\r",get_global_heap_size()/1024);  
 1377              		.loc 1 153 5 view .LVU276
 1378 0026 FFF7FEFF 		bl	get_global_heap_size
 1379              	.LVL124:
 1380              		.loc 1 153 5 is_stmt 0 discriminator 1 view .LVU277
 1381 002a 810A     		lsrs	r1, r0, #10
 1382 002c 0148     		ldr	r0, .L133
 1383 002e FFF7FEFF 		bl	printk
 1384              	.LVL125:
 154:./init/main.c **** }
 1385              		.loc 1 154 1 view .LVU278
 1386 0032 08BD     		pop	{r3, pc}
 1387              	.L134:
 1388              		.align	2
 1389              	.L133:
 1390 0034 00000000 		.word	.LC11
 1391              		.cfi_endproc
 1392              	.LFE1100:
 1394              		.section	.rodata.Kernel_Start.str1.4,"aMS",%progbits,1
 1395              		.align	2
 1396              	.LC12:
 1397 0000 6B65726E 		.ascii	"kernel_init\000"
 1397      656C5F69 
 1397      6E697400 
 1398              		.align	2
 1399              	.LC13:
 1400 000c 63726561 		.ascii	"create task kernel_init\012\000"
 1400      74652074 
 1400      61736B20 
 1400      6B65726E 
 1400      656C5F69 
 1401              		.section	.text.Kernel_Start,"ax",%progbits
 1402              		.align	1
 1403              		.global	Kernel_Start
 1404              		.syntax unified
 1405              		.thumb
 1406              		.thumb_func
 1408              	Kernel_Start:
 1409              	.LFB1101:
 155:./init/main.c **** 
 156:./init/main.c **** 
 157:./init/main.c **** 
 158:./init/main.c **** int Kernel_Start(void)     
 159:./init/main.c **** {
 1410              		.loc 1 159 1 is_stmt 1 view -0
 1411              		.cfi_startproc
 1412              		@ Volatile: function does not return.
 1413              		@ args = 0, pretend = 0, frame = 0
 1414              		@ frame_needed = 0, uses_anonymous_args = 0
ARM GAS  /tmp/cceTHSzr.s 			page 31


 1415 0000 08B5     		push	{r3, lr}
 1416              	.LCFI31:
 1417              		.cfi_def_cfa_offset 8
 1418              		.cfi_offset 3, -8
 1419              		.cfi_offset 14, -4
 160:./init/main.c ****     SystemClock_Config();
 1420              		.loc 1 160 5 view .LVU280
 1421 0002 FFF7FEFF 		bl	SystemClock_Config
 1422              	.LVL126:
 161:./init/main.c **** 
 162:./init/main.c ****     do_initcallearly();
 1423              		.loc 1 162 5 view .LVU281
 1424 0006 FFF7FEFF 		bl	do_initcallearly
 1425              	.LVL127:
 163:./init/main.c ****     do_pureinitcall();
 1426              		.loc 1 163 5 view .LVU282
 1427 000a FFF7FEFF 		bl	do_pureinitcall
 1428              	.LVL128:
 164:./init/main.c **** 
 165:./init/main.c ****     device_tree_init();
 1429              		.loc 1 165 5 view .LVU283
 1430 000e FFF7FEFF 		bl	device_tree_init
 1431              	.LVL129:
 166:./init/main.c ****     memory_init();  
 1432              		.loc 1 166 5 view .LVU284
 1433 0012 FFF7FEFF 		bl	memory_init
 1434              	.LVL130:
 167:./init/main.c **** 
 168:./init/main.c ****     base_out_opt_device_init();  
 1435              		.loc 1 168 5 view .LVU285
 1436 0016 FFF7FEFF 		bl	base_out_opt_device_init
 1437              	.LVL131:
 169:./init/main.c ****     print_GCC_Message();
 1438              		.loc 1 169 5 view .LVU286
 1439 001a FFF7FEFF 		bl	print_GCC_Message
 1440              	.LVL132:
 170:./init/main.c ****     
 171:./init/main.c ****     SysTick_init();
 1441              		.loc 1 171 5 view .LVU287
 1442 001e FFF7FEFF 		bl	SysTick_init
 1443              	.LVL133:
 172:./init/main.c ****     pr_info("system free memory size:%d kb\n\r",get_global_heap_size()/1024);  
 1444              		.loc 1 172 5 view .LVU288
 1445 0022 FFF7FEFF 		bl	get_global_heap_size
 1446              	.LVL134:
 1447              		.loc 1 172 5 is_stmt 0 discriminator 1 view .LVU289
 1448 0026 810A     		lsrs	r1, r0, #10
 1449 0028 0E48     		ldr	r0, .L138
 1450 002a FFF7FEFF 		bl	printk
 1451              	.LVL135:
 173:./init/main.c **** 
 174:./init/main.c ****     do_fsinitcall();
 1452              		.loc 1 174 5 is_stmt 1 view .LVU290
 1453 002e FFF7FEFF 		bl	do_fsinitcall
 1454              	.LVL136:
 175:./init/main.c ****     do_fs_initcall_sync();
 1455              		.loc 1 175 5 view .LVU291
ARM GAS  /tmp/cceTHSzr.s 			page 32


 1456 0032 FFF7FEFF 		bl	do_fs_initcall_sync
 1457              	.LVL137:
 176:./init/main.c ****     rootfs_init();
 1458              		.loc 1 176 5 view .LVU292
 1459 0036 FFF7FEFF 		bl	rootfs_init
 1460              	.LVL138:
 177:./init/main.c **** 
 178:./init/main.c ****     main_tty_dev_init(); 
 1461              		.loc 1 178 5 view .LVU293
 1462 003a FFF7FEFF 		bl	main_tty_dev_init
 1463              	.LVL139:
 179:./init/main.c ****     printk_init();    
 1464              		.loc 1 179 5 view .LVU294
 1465 003e FFF7FEFF 		bl	printk_init
 1466              	.LVL140:
 180:./init/main.c **** 
 181:./init/main.c ****     do_coreinitcall();  
 1467              		.loc 1 181 5 view .LVU295
 1468 0042 FFF7FEFF 		bl	do_coreinitcall
 1469              	.LVL141:
 182:./init/main.c ****     do_core_initcall_sync();
 1470              		.loc 1 182 5 view .LVU296
 1471 0046 FFF7FEFF 		bl	do_core_initcall_sync
 1472              	.LVL142:
 183:./init/main.c ****     
 184:./init/main.c ****     kthread_run(Kernel_Init,NULL,"kernel_init");
 1473              		.loc 1 184 5 view .LVU297
 1474 004a 074A     		ldr	r2, .L138+4
 1475 004c 0021     		movs	r1, #0
 1476 004e 0748     		ldr	r0, .L138+8
 1477 0050 FFF7FEFF 		bl	kthread_run
 1478              	.LVL143:
 185:./init/main.c ****     pr_info("create task kernel_init\n");
 1479              		.loc 1 185 5 view .LVU298
 1480 0054 0648     		ldr	r0, .L138+12
 1481 0056 FFF7FEFF 		bl	printk
 1482              	.LVL144:
 186:./init/main.c **** 
 187:./init/main.c ****     do_postcoreinitcall();
 1483              		.loc 1 187 5 view .LVU299
 1484 005a FFF7FEFF 		bl	do_postcoreinitcall
 1485              	.LVL145:
 188:./init/main.c ****     do_postcore_initcall_sync();
 1486              		.loc 1 188 5 view .LVU300
 1487 005e FFF7FEFF 		bl	do_postcore_initcall_sync
 1488              	.LVL146:
 1489              	.L136:
 189:./init/main.c **** 
 190:./init/main.c **** 
 191:./init/main.c ****     while(1){}
 1490              		.loc 1 191 5 view .LVU301
 1491              		.loc 1 191 14 view .LVU302
 1492              		.loc 1 191 10 view .LVU303
 1493 0062 FEE7     		b	.L136
 1494              	.L139:
 1495              		.align	2
 1496              	.L138:
ARM GAS  /tmp/cceTHSzr.s 			page 33


 1497 0064 00000000 		.word	.LC11
 1498 0068 00000000 		.word	.LC12
 1499 006c 00000000 		.word	Kernel_Init
 1500 0070 0C000000 		.word	.LC13
 1501              		.cfi_endproc
 1502              	.LFE1101:
 1504              		.text
 1505              	.Letext0:
 1506              		.file 4 "./include/linux/stdarg.h"
 1507              		.file 5 "./include/asm-generic/int-l64.h"
 1508              		.file 6 "./include/asm-generic/posix_types.h"
 1509              		.file 7 "./include/uapi/linux/types.h"
 1510              		.file 8 "./include/linux/types.h"
 1511              		.file 9 "./include/linux/init.h"
 1512              		.file 10 "./include/linux/libfdt.h"
 1513              		.file 11 "./include/linux/errseq.h"
 1514              		.file 12 "./include/linux/time64.h"
 1515              		.file 13 "./arch/arm_m/include/asm/sched.h"
 1516              		.file 14 "./include/linux/sched.h"
 1517              		.file 15 "./arch/arm_m/include/asm/spinlock.h"
 1518              		.file 16 "./include/linux/spinlock_types_raw.h"
 1519              		.file 17 "./include/linux/spinlock_types.h"
 1520              		.file 18 "./include/linux/rbtree_types.h"
 1521              		.file 19 "./include/linux/uidgid_types.h"
 1522              		.file 20 "./include/linux/projid.h"
 1523              		.file 21 "./include/linux/fs.h"
 1524              		.file 22 "./include/linux/mnt_idmapping.h"
 1525              		.file 23 "./include/linux/mutex.h"
 1526              		.file 24 "./include/linux/uio.h"
 1527              		.file 25 "./include/linux/migrate_mode.h"
 1528              		.file 26 "./include/linux/wait.h"
 1529              		.file 27 "./include/linux/xarray.h"
 1530              		.file 28 "./include/linux/rw_hint.h"
 1531              		.file 29 "./include/linux/reciprocal_div.h"
 1532              		.file 30 "./include/linux/slab.h"
 1533              		.file 31 "./include/linux/mm_type.h"
 1534              		.file 32 "./include/linux/bvec.h"
 1535              		.file 33 "./include/linux/blk_types.h"
 1536              		.file 34 "./include/linux/blkdev.h"
 1537              		.file 35 "./include/linux/bio.h"
 1538              		.file 36 "./include/linux/mempool_super_haper.h"
 1539              		.file 37 "./include/linux/mempool.h"
 1540              		.file 38 "./include/linux/lockdep_types.h"
 1541              		.file 39 "./include/linux/workqueue_types.h"
 1542              		.file 40 "./include/linux/blk-mq.h"
 1543              		.file 41 "./include/linux/dcache.h"
 1544              		.file 42 "./include/uapi/linux/pr.h"
 1545              		.file 43 "./include/linux/pr.h"
 1546              		.file 44 "./include/linux/hdreg.h"
 1547              		.file 45 "./include/linux/lockref.h"
 1548              		.file 46 "./include/linux/path.h"
 1549              		.file 47 "./include/linux/statfs.h"
 1550              		.file 48 "./include/linux/stat.h"
 1551              		.file 49 "./include/linux/sprintf.h"
 1552              		.file 50 "./include/linux/printk.h"
 1553              		.file 51 "<built-in>"
ARM GAS  /tmp/cceTHSzr.s 			page 34


DEFINED SYMBOLS
                            *ABS*:00000000 main.c
     /tmp/cceTHSzr.s:21     .text.do_initcallearly:00000000 $t
     /tmp/cceTHSzr.s:26     .text.do_initcallearly:00000000 do_initcallearly
     /tmp/cceTHSzr.s:68     .text.do_initcallearly:00000014 $d
     /tmp/cceTHSzr.s:74     .text.do_pureinitcall:00000000 $t
     /tmp/cceTHSzr.s:79     .text.do_pureinitcall:00000000 do_pureinitcall
     /tmp/cceTHSzr.s:121    .text.do_pureinitcall:00000014 $d
     /tmp/cceTHSzr.s:127    .text.do_coreinitcall:00000000 $t
     /tmp/cceTHSzr.s:132    .text.do_coreinitcall:00000000 do_coreinitcall
     /tmp/cceTHSzr.s:174    .text.do_coreinitcall:00000014 $d
     /tmp/cceTHSzr.s:180    .text.do_core_initcall_sync:00000000 $t
     /tmp/cceTHSzr.s:185    .text.do_core_initcall_sync:00000000 do_core_initcall_sync
     /tmp/cceTHSzr.s:227    .text.do_core_initcall_sync:00000014 $d
     /tmp/cceTHSzr.s:233    .text.do_postcoreinitcall:00000000 $t
     /tmp/cceTHSzr.s:238    .text.do_postcoreinitcall:00000000 do_postcoreinitcall
     /tmp/cceTHSzr.s:280    .text.do_postcoreinitcall:00000014 $d
     /tmp/cceTHSzr.s:286    .text.do_postcore_initcall_sync:00000000 $t
     /tmp/cceTHSzr.s:291    .text.do_postcore_initcall_sync:00000000 do_postcore_initcall_sync
     /tmp/cceTHSzr.s:333    .text.do_postcore_initcall_sync:00000014 $d
     /tmp/cceTHSzr.s:339    .text.do_archinitcall:00000000 $t
     /tmp/cceTHSzr.s:344    .text.do_archinitcall:00000000 do_archinitcall
     /tmp/cceTHSzr.s:386    .text.do_archinitcall:00000014 $d
     /tmp/cceTHSzr.s:392    .text.do_arch_initcall_sync:00000000 $t
     /tmp/cceTHSzr.s:397    .text.do_arch_initcall_sync:00000000 do_arch_initcall_sync
     /tmp/cceTHSzr.s:439    .text.do_arch_initcall_sync:00000014 $d
     /tmp/cceTHSzr.s:445    .text.do_subsysinitcall:00000000 $t
     /tmp/cceTHSzr.s:450    .text.do_subsysinitcall:00000000 do_subsysinitcall
     /tmp/cceTHSzr.s:492    .text.do_subsysinitcall:00000014 $d
     /tmp/cceTHSzr.s:498    .text.do_subsys_initcall_sync:00000000 $t
     /tmp/cceTHSzr.s:503    .text.do_subsys_initcall_sync:00000000 do_subsys_initcall_sync
     /tmp/cceTHSzr.s:545    .text.do_subsys_initcall_sync:00000014 $d
     /tmp/cceTHSzr.s:551    .text.do_fsinitcall:00000000 $t
     /tmp/cceTHSzr.s:556    .text.do_fsinitcall:00000000 do_fsinitcall
     /tmp/cceTHSzr.s:598    .text.do_fsinitcall:00000014 $d
     /tmp/cceTHSzr.s:604    .text.do_fs_initcall_sync:00000000 $t
     /tmp/cceTHSzr.s:609    .text.do_fs_initcall_sync:00000000 do_fs_initcall_sync
     /tmp/cceTHSzr.s:651    .text.do_fs_initcall_sync:00000014 $d
     /tmp/cceTHSzr.s:657    .text.rootfs_init:00000000 $t
     /tmp/cceTHSzr.s:662    .text.rootfs_init:00000000 rootfs_init
     /tmp/cceTHSzr.s:704    .text.rootfs_init:00000014 $d
     /tmp/cceTHSzr.s:710    .text.do_deviceinitcall:00000000 $t
     /tmp/cceTHSzr.s:715    .text.do_deviceinitcall:00000000 do_deviceinitcall
     /tmp/cceTHSzr.s:755    .text.do_deviceinitcall:00000014 $d
     /tmp/cceTHSzr.s:761    .text.do_device_initcall_sync:00000000 $t
     /tmp/cceTHSzr.s:766    .text.do_device_initcall_sync:00000000 do_device_initcall_sync
     /tmp/cceTHSzr.s:808    .text.do_device_initcall_sync:00000014 $d
     /tmp/cceTHSzr.s:814    .text.do_lateinitcall:00000000 $t
     /tmp/cceTHSzr.s:819    .text.do_lateinitcall:00000000 do_lateinitcall
     /tmp/cceTHSzr.s:861    .text.do_lateinitcall:00000014 $d
     /tmp/cceTHSzr.s:867    .text.do_late_initcall_sync:00000000 $t
     /tmp/cceTHSzr.s:872    .text.do_late_initcall_sync:00000000 do_late_initcall_sync
     /tmp/cceTHSzr.s:914    .text.do_late_initcall_sync:00000014 $d
     /tmp/cceTHSzr.s:920    .text.device_tree_init:00000000 $t
     /tmp/cceTHSzr.s:925    .text.device_tree_init:00000000 device_tree_init
     /tmp/cceTHSzr.s:959    .text.device_tree_init:00000018 $d
     /tmp/cceTHSzr.s:965    .text.memory_init:00000000 $t
ARM GAS  /tmp/cceTHSzr.s 			page 35


     /tmp/cceTHSzr.s:970    .text.memory_init:00000000 memory_init
     /tmp/cceTHSzr.s:993    .rodata.printk_init.str1.4:00000000 $d
     /tmp/cceTHSzr.s:997    .text.printk_init:00000000 $t
     /tmp/cceTHSzr.s:1002   .text.printk_init:00000000 printk_init
     /tmp/cceTHSzr.s:1025   .text.printk_init:00000010 $d
     /tmp/cceTHSzr.s:1030   .text.kthread_run:00000000 $t
     /tmp/cceTHSzr.s:1035   .text.kthread_run:00000000 kthread_run
     /tmp/cceTHSzr.s:1131   .rodata.print_GCC_Message.str1.4:00000000 $d
     /tmp/cceTHSzr.s:1144   .text.print_GCC_Message:00000000 $t
     /tmp/cceTHSzr.s:1150   .text.print_GCC_Message:00000000 print_GCC_Message
     /tmp/cceTHSzr.s:1189   .text.print_GCC_Message:00000028 $d
     /tmp/cceTHSzr.s:1197   .rodata.gpio_test.str1.4:00000000 $d
     /tmp/cceTHSzr.s:1216   .text.gpio_test:00000000 $t
     /tmp/cceTHSzr.s:1222   .text.gpio_test:00000000 gpio_test
     /tmp/cceTHSzr.s:1319   .text.gpio_test:0000005c $d
     /tmp/cceTHSzr.s:1329   .rodata.Kernel_Init.str1.4:00000000 $d
     /tmp/cceTHSzr.s:1333   .text.Kernel_Init:00000000 $t
     /tmp/cceTHSzr.s:1339   .text.Kernel_Init:00000000 Kernel_Init
     /tmp/cceTHSzr.s:1390   .text.Kernel_Init:00000034 $d
     /tmp/cceTHSzr.s:1395   .rodata.Kernel_Start.str1.4:00000000 $d
     /tmp/cceTHSzr.s:1402   .text.Kernel_Start:00000000 $t
     /tmp/cceTHSzr.s:1408   .text.Kernel_Start:00000000 Kernel_Start
     /tmp/cceTHSzr.s:1497   .text.Kernel_Start:00000064 $d

UNDEFINED SYMBOLS
__start_initcallearly
__end_initcallearly
__start_pureinitcall
__end_pureinitcall
__start_coreinitcall
__end_coreinitcall
__start_core_initcall_sync
__end_core_initcall_sync
__start_postcoreinitcall
__end_postcoreinitcall
__start_postcore_initcall_sync
__end_postcore_initcall_sync
__start_archinitcall
__end_archinitcall
__start_arch_initcall_sync
__end_arch_initcall_sync
__start_subsysinitcall
__end_subsysinitcall
__start_subsys_initcall_sync
__end_subsys_initcall_sync
__start_fsinitcall
__end_fsinitcall
__start_fs_initcall_sync
__end_fs_initcall_sync
__start_rootfsinitcall
__end_rootfsinitcall
__start_deviceinitcall
__end_deviceinitcall
__start_device_initcall_sync
__end_device_initcall_sync
__start_lateinitcall
__end_lateinitcall
ARM GAS  /tmp/cceTHSzr.s 			page 36


__start_late_initcall_sync
__end_late_initcall_sync
fdt_check_header
__dtb_file_start_address
__dtb_file_end_address
sys_heap_init
sys_expand_heap_init
printk_service_init
printk
block_scheduler
vsnprintf
task_run
run_scheduler
filp_open
vfs_ioctl
kernel_write
get_global_heap_size
SystemClock_Config
base_out_opt_device_init
SysTick_init
main_tty_dev_init
