ARM GAS  /tmp/ccaNEGuG.s 			page 1


   1              		.cpu cortex-m4
   2              		.arch armv7e-m
   3              		.fpu fpv4-sp-d16
   4              		.eabi_attribute 27, 1
   5              		.eabi_attribute 28, 1
   6              		.eabi_attribute 20, 1
   7              		.eabi_attribute 21, 1
   8              		.eabi_attribute 23, 3
   9              		.eabi_attribute 24, 1
  10              		.eabi_attribute 25, 1
  11              		.eabi_attribute 26, 1
  12              		.eabi_attribute 30, 1
  13              		.eabi_attribute 34, 1
  14              		.eabi_attribute 18, 4
  15              		.file	"misc.c"
  16              		.text
  17              	.Ltext0:
  18              		.cfi_sections	.debug_frame
  19              		.file 1 "./arch/arm_m/boot/compressed/misc.c"
  20              		.section	.text.putstr,"ax",%progbits
  21              		.align	1
  22              		.syntax unified
  23              		.thumb
  24              		.thumb_func
  26              	putstr:
  27              	.LVL0:
  28              	.LFB1:
   1:./arch/arm_m/boot/compressed/misc.c **** // SPDX-License-Identifier: GPL-2.0
   2:./arch/arm_m/boot/compressed/misc.c **** /*
   3:./arch/arm_m/boot/compressed/misc.c ****  * misc.c
   4:./arch/arm_m/boot/compressed/misc.c ****  * 
   5:./arch/arm_m/boot/compressed/misc.c ****  * This is a collection of several routines from gzip-1.0.3 
   6:./arch/arm_m/boot/compressed/misc.c ****  * adapted for Linux.
   7:./arch/arm_m/boot/compressed/misc.c ****  *
   8:./arch/arm_m/boot/compressed/misc.c ****  * malloc by Hannu Savolainen 1993 and Matthias Urlichs 1994
   9:./arch/arm_m/boot/compressed/misc.c ****  *
  10:./arch/arm_m/boot/compressed/misc.c ****  * Modified for ARM Linux by Russell King
  11:./arch/arm_m/boot/compressed/misc.c ****  *
  12:./arch/arm_m/boot/compressed/misc.c ****  * Nicolas Pitre <nico@visuaide.com>  1999/04/14 :
  13:./arch/arm_m/boot/compressed/misc.c ****  *  For this code to run directly from Flash, all constant variables must
  14:./arch/arm_m/boot/compressed/misc.c ****  *  be marked with 'const' and all other variables initialized at run-time 
  15:./arch/arm_m/boot/compressed/misc.c ****  *  only.  This way all non constant variables will end up in the bss segment,
  16:./arch/arm_m/boot/compressed/misc.c ****  *  which should point to addresses in RAM and cleared to 0 on start.
  17:./arch/arm_m/boot/compressed/misc.c ****  *  This allows for a much quicker boot time.
  18:./arch/arm_m/boot/compressed/misc.c ****  */
  19:./arch/arm_m/boot/compressed/misc.c **** 
  20:./arch/arm_m/boot/compressed/misc.c **** unsigned int __machine_arch_type;
  21:./arch/arm_m/boot/compressed/misc.c **** 
  22:./arch/arm_m/boot/compressed/misc.c **** #include <linux/compiler.h>	/* for inline */
  23:./arch/arm_m/boot/compressed/misc.c **** #include <linux/types.h>
  24:./arch/arm_m/boot/compressed/misc.c **** #include <linux/linkage.h>
  25:./arch/arm_m/boot/compressed/misc.c **** #include "misc.h"
  26:./arch/arm_m/boot/compressed/misc.c **** #ifdef CONFIG_ARCH_EP93XX
  27:./arch/arm_m/boot/compressed/misc.c **** #include "misc-ep93xx.h"
  28:./arch/arm_m/boot/compressed/misc.c **** #endif
  29:./arch/arm_m/boot/compressed/misc.c **** 
  30:./arch/arm_m/boot/compressed/misc.c **** static void putstr(const char *ptr);
ARM GAS  /tmp/ccaNEGuG.s 			page 2


  31:./arch/arm_m/boot/compressed/misc.c **** 
  32:./arch/arm_m/boot/compressed/misc.c **** 
  33:./arch/arm_m/boot/compressed/misc.c **** #ifdef CONFIG_DEBUG_ICEDCC
  34:./arch/arm_m/boot/compressed/misc.c **** 
  35:./arch/arm_m/boot/compressed/misc.c **** #if defined(CONFIG_CPU_V6) || defined(CONFIG_CPU_V6K) || defined(CONFIG_CPU_V7)
  36:./arch/arm_m/boot/compressed/misc.c **** 
  37:./arch/arm_m/boot/compressed/misc.c **** static void icedcc_putc(int ch)
  38:./arch/arm_m/boot/compressed/misc.c **** {
  39:./arch/arm_m/boot/compressed/misc.c **** 	int status, i = 0x4000000;
  40:./arch/arm_m/boot/compressed/misc.c **** 
  41:./arch/arm_m/boot/compressed/misc.c **** 	do {
  42:./arch/arm_m/boot/compressed/misc.c **** 		if (--i < 0)
  43:./arch/arm_m/boot/compressed/misc.c **** 			return;
  44:./arch/arm_m/boot/compressed/misc.c **** 
  45:./arch/arm_m/boot/compressed/misc.c **** 		asm volatile ("mrc p14, 0, %0, c0, c1, 0" : "=r" (status));
  46:./arch/arm_m/boot/compressed/misc.c **** 	} while (status & (1 << 29));
  47:./arch/arm_m/boot/compressed/misc.c **** 
  48:./arch/arm_m/boot/compressed/misc.c **** 	asm("mcr p14, 0, %0, c0, c5, 0" : : "r" (ch));
  49:./arch/arm_m/boot/compressed/misc.c **** }
  50:./arch/arm_m/boot/compressed/misc.c **** 
  51:./arch/arm_m/boot/compressed/misc.c **** 
  52:./arch/arm_m/boot/compressed/misc.c **** #elif defined(CONFIG_CPU_XSCALE)
  53:./arch/arm_m/boot/compressed/misc.c **** 
  54:./arch/arm_m/boot/compressed/misc.c **** static void icedcc_putc(int ch)
  55:./arch/arm_m/boot/compressed/misc.c **** {
  56:./arch/arm_m/boot/compressed/misc.c **** 	int status, i = 0x4000000;
  57:./arch/arm_m/boot/compressed/misc.c **** 
  58:./arch/arm_m/boot/compressed/misc.c **** 	do {
  59:./arch/arm_m/boot/compressed/misc.c **** 		if (--i < 0)
  60:./arch/arm_m/boot/compressed/misc.c **** 			return;
  61:./arch/arm_m/boot/compressed/misc.c **** 
  62:./arch/arm_m/boot/compressed/misc.c **** 		asm volatile ("mrc p14, 0, %0, c14, c0, 0" : "=r" (status));
  63:./arch/arm_m/boot/compressed/misc.c **** 	} while (status & (1 << 28));
  64:./arch/arm_m/boot/compressed/misc.c **** 
  65:./arch/arm_m/boot/compressed/misc.c **** 	asm("mcr p14, 0, %0, c8, c0, 0" : : "r" (ch));
  66:./arch/arm_m/boot/compressed/misc.c **** }
  67:./arch/arm_m/boot/compressed/misc.c **** 
  68:./arch/arm_m/boot/compressed/misc.c **** #else
  69:./arch/arm_m/boot/compressed/misc.c **** 
  70:./arch/arm_m/boot/compressed/misc.c **** static void icedcc_putc(int ch)
  71:./arch/arm_m/boot/compressed/misc.c **** {
  72:./arch/arm_m/boot/compressed/misc.c **** 	int status, i = 0x4000000;
  73:./arch/arm_m/boot/compressed/misc.c **** 
  74:./arch/arm_m/boot/compressed/misc.c **** 	do {
  75:./arch/arm_m/boot/compressed/misc.c **** 		if (--i < 0)
  76:./arch/arm_m/boot/compressed/misc.c **** 			return;
  77:./arch/arm_m/boot/compressed/misc.c **** 
  78:./arch/arm_m/boot/compressed/misc.c **** 		asm volatile ("mrc p14, 0, %0, c0, c0, 0" : "=r" (status));
  79:./arch/arm_m/boot/compressed/misc.c **** 	} while (status & 2);
  80:./arch/arm_m/boot/compressed/misc.c **** 
  81:./arch/arm_m/boot/compressed/misc.c **** 	asm("mcr p14, 0, %0, c1, c0, 0" : : "r" (ch));
  82:./arch/arm_m/boot/compressed/misc.c **** }
  83:./arch/arm_m/boot/compressed/misc.c **** 
  84:./arch/arm_m/boot/compressed/misc.c **** #endif
  85:./arch/arm_m/boot/compressed/misc.c **** 
  86:./arch/arm_m/boot/compressed/misc.c **** #define putc(ch)	icedcc_putc(ch)
  87:./arch/arm_m/boot/compressed/misc.c **** #endif
ARM GAS  /tmp/ccaNEGuG.s 			page 3


  88:./arch/arm_m/boot/compressed/misc.c **** 
  89:./arch/arm_m/boot/compressed/misc.c **** static void putstr(const char *ptr)
  90:./arch/arm_m/boot/compressed/misc.c **** {
  29              		.loc 1 90 1 view -0
  30              		.cfi_startproc
  31              		@ args = 0, pretend = 0, frame = 0
  32              		@ frame_needed = 0, uses_anonymous_args = 0
  33              		.loc 1 90 1 is_stmt 0 view .LVU1
  34 0000 38B5     		push	{r3, r4, r5, lr}
  35              	.LCFI0:
  36              		.cfi_def_cfa_offset 16
  37              		.cfi_offset 3, -16
  38              		.cfi_offset 4, -12
  39              		.cfi_offset 5, -8
  40              		.cfi_offset 14, -4
  41 0002 0446     		mov	r4, r0
  91:./arch/arm_m/boot/compressed/misc.c **** 	char c;
  42              		.loc 1 91 2 is_stmt 1 view .LVU2
  92:./arch/arm_m/boot/compressed/misc.c **** 
  93:./arch/arm_m/boot/compressed/misc.c **** 	while ((c = *ptr++) != '\0') {
  43              		.loc 1 93 2 view .LVU3
  44              		.loc 1 93 8 is_stmt 0 view .LVU4
  45 0004 02E0     		b	.L2
  46              	.LVL1:
  47              	.L3:
  48              	.LBB2:
  94:./arch/arm_m/boot/compressed/misc.c **** 		if (c == '\n')
  95:./arch/arm_m/boot/compressed/misc.c **** 			putc('\r');
  96:./arch/arm_m/boot/compressed/misc.c **** 		putc(c);
  49              		.loc 1 96 3 is_stmt 1 view .LVU5
  50 0006 2846     		mov	r0, r5
  51 0008 FFF7FEFF 		bl	putc
  52              	.LVL2:
  53              	.L2:
  54              		.loc 1 96 3 is_stmt 0 view .LVU6
  55              	.LBE2:
  93:./arch/arm_m/boot/compressed/misc.c **** 		if (c == '\n')
  56              		.loc 1 93 22 is_stmt 1 view .LVU7
  93:./arch/arm_m/boot/compressed/misc.c **** 		if (c == '\n')
  57              		.loc 1 93 12 is_stmt 0 view .LVU8
  58 000c 14F8015B 		ldrb	r5, [r4], #1	@ zero_extendqisi2
  59              	.LVL3:
  93:./arch/arm_m/boot/compressed/misc.c **** 		if (c == '\n')
  60              		.loc 1 93 22 view .LVU9
  61 0010 2DB1     		cbz	r5, .L6
  62              	.LBB4:
  94:./arch/arm_m/boot/compressed/misc.c **** 		if (c == '\n')
  63              		.loc 1 94 3 is_stmt 1 view .LVU10
  94:./arch/arm_m/boot/compressed/misc.c **** 		if (c == '\n')
  64              		.loc 1 94 6 is_stmt 0 view .LVU11
  65 0012 0A2D     		cmp	r5, #10
  66 0014 F7D1     		bne	.L3
  67              	.LBB3:
  95:./arch/arm_m/boot/compressed/misc.c **** 		putc(c);
  68              		.loc 1 95 4 is_stmt 1 view .LVU12
  69 0016 0D20     		movs	r0, #13
  70 0018 FFF7FEFF 		bl	putc
ARM GAS  /tmp/ccaNEGuG.s 			page 4


  71              	.LVL4:
  72 001c F3E7     		b	.L3
  73              	.L6:
  74              	.LBE3:
  75              	.LBE4:
  97:./arch/arm_m/boot/compressed/misc.c **** 	}
  98:./arch/arm_m/boot/compressed/misc.c **** 
  99:./arch/arm_m/boot/compressed/misc.c **** 	flush();
  76              		.loc 1 99 2 view .LVU13
  77 001e FFF7FEFF 		bl	flush
  78              	.LVL5:
 100:./arch/arm_m/boot/compressed/misc.c **** }
  79              		.loc 1 100 1 is_stmt 0 view .LVU14
  80 0022 38BD     		pop	{r3, r4, r5, pc}
  81              		.loc 1 100 1 view .LVU15
  82              		.cfi_endproc
  83              	.LFE1:
  85              		.section	.rodata.error.str1.4,"aMS",%progbits,1
  86              		.align	2
  87              	.LC0:
  88 0000 0A0A00   		.ascii	"\012\012\000"
  89 0003 00       		.align	2
  90              	.LC1:
  91 0004 0A0A202D 		.ascii	"\012\012 -- System halted\000"
  91      2D205379 
  91      7374656D 
  91      2068616C 
  91      74656400 
  92              		.section	.text.error,"ax",%progbits
  93              		.align	1
  94              		.global	error
  95              		.syntax unified
  96              		.thumb
  97              		.thumb_func
  99              	error:
 100              	.LVL6:
 101              	.LFB2:
 101:./arch/arm_m/boot/compressed/misc.c **** 
 102:./arch/arm_m/boot/compressed/misc.c **** /*
 103:./arch/arm_m/boot/compressed/misc.c ****  * gzip declarations
 104:./arch/arm_m/boot/compressed/misc.c ****  */
 105:./arch/arm_m/boot/compressed/misc.c **** unsigned char *output_data;
 106:./arch/arm_m/boot/compressed/misc.c **** 
 107:./arch/arm_m/boot/compressed/misc.c **** unsigned long free_mem_ptr;
 108:./arch/arm_m/boot/compressed/misc.c **** unsigned long free_mem_end_ptr;
 109:./arch/arm_m/boot/compressed/misc.c **** 
 110:./arch/arm_m/boot/compressed/misc.c **** #ifndef arch_error
 111:./arch/arm_m/boot/compressed/misc.c **** #define arch_error(x)
 112:./arch/arm_m/boot/compressed/misc.c **** #endif
 113:./arch/arm_m/boot/compressed/misc.c **** 
 114:./arch/arm_m/boot/compressed/misc.c **** void error(char *x)
 115:./arch/arm_m/boot/compressed/misc.c **** {
 102              		.loc 1 115 1 is_stmt 1 view -0
 103              		.cfi_startproc
 104              		@ Volatile: function does not return.
 105              		@ args = 0, pretend = 0, frame = 0
 106              		@ frame_needed = 0, uses_anonymous_args = 0
ARM GAS  /tmp/ccaNEGuG.s 			page 5


 107              		.loc 1 115 1 is_stmt 0 view .LVU17
 108 0000 08B5     		push	{r3, lr}
 109              	.LCFI1:
 110              		.cfi_def_cfa_offset 8
 111              		.cfi_offset 3, -8
 112              		.cfi_offset 14, -4
 113 0002 0446     		mov	r4, r0
 116:./arch/arm_m/boot/compressed/misc.c **** 	arch_error(x);
 114              		.loc 1 116 15 is_stmt 1 view .LVU18
 117:./arch/arm_m/boot/compressed/misc.c **** 
 118:./arch/arm_m/boot/compressed/misc.c **** 	putstr("\n\n");
 115              		.loc 1 118 2 view .LVU19
 116 0004 0448     		ldr	r0, .L10
 117              	.LVL7:
 118              		.loc 1 118 2 is_stmt 0 view .LVU20
 119 0006 FFF7FEFF 		bl	putstr
 120              	.LVL8:
 119:./arch/arm_m/boot/compressed/misc.c **** 	putstr(x);
 121              		.loc 1 119 2 is_stmt 1 view .LVU21
 122 000a 2046     		mov	r0, r4
 123 000c FFF7FEFF 		bl	putstr
 124              	.LVL9:
 120:./arch/arm_m/boot/compressed/misc.c **** 	putstr("\n\n -- System halted");
 125              		.loc 1 120 2 view .LVU22
 126 0010 0248     		ldr	r0, .L10+4
 127 0012 FFF7FEFF 		bl	putstr
 128              	.LVL10:
 129              	.L8:
 121:./arch/arm_m/boot/compressed/misc.c **** 
 122:./arch/arm_m/boot/compressed/misc.c **** 	while(1);	/* Halt */
 130              		.loc 1 122 2 view .LVU23
 131              		.loc 1 122 7 view .LVU24
 132 0016 FEE7     		b	.L8
 133              	.L11:
 134              		.align	2
 135              	.L10:
 136 0018 00000000 		.word	.LC0
 137 001c 04000000 		.word	.LC1
 138              		.cfi_endproc
 139              	.LFE2:
 141              		.section	.rodata.__div0.str1.4,"aMS",%progbits,1
 142              		.align	2
 143              	.LC2:
 144 0000 41747465 		.ascii	"Attempting division by 0!\000"
 144      6D707469 
 144      6E672064 
 144      69766973 
 144      696F6E20 
 145              		.section	.text.__div0,"ax",%progbits
 146              		.align	1
 147              		.global	__div0
 148              		.syntax unified
 149              		.thumb
 150              		.thumb_func
 152              	__div0:
 153              	.LFB3:
 123:./arch/arm_m/boot/compressed/misc.c **** }
ARM GAS  /tmp/ccaNEGuG.s 			page 6


 124:./arch/arm_m/boot/compressed/misc.c **** 
 125:./arch/arm_m/boot/compressed/misc.c **** asmlinkage void __div0(void)
 126:./arch/arm_m/boot/compressed/misc.c **** {
 154              		.loc 1 126 1 view -0
 155              		.cfi_startproc
 156              		@ Volatile: function does not return.
 157              		@ args = 0, pretend = 0, frame = 0
 158              		@ frame_needed = 0, uses_anonymous_args = 0
 159 0000 08B5     		push	{r3, lr}
 160              	.LCFI2:
 161              		.cfi_def_cfa_offset 8
 162              		.cfi_offset 3, -8
 163              		.cfi_offset 14, -4
 127:./arch/arm_m/boot/compressed/misc.c **** 	error("Attempting division by 0!");
 164              		.loc 1 127 2 view .LVU26
 165 0002 0148     		ldr	r0, .L14
 166 0004 FFF7FEFF 		bl	error
 167              	.LVL11:
 168              	.L15:
 169              		.align	2
 170              	.L14:
 171 0008 00000000 		.word	.LC2
 172              		.cfi_endproc
 173              	.LFE3:
 175              		.section	.rodata.decompress_kernel.str1.4,"aMS",%progbits,1
 176              		.align	2
 177              	.LC3:
 178 0000 556E636F 		.ascii	"Uncompressing Linux...\000"
 178      6D707265 
 178      7373696E 
 178      67204C69 
 178      6E75782E 
 179 0017 00       		.align	2
 180              	.LC4:
 181 0018 6465636F 		.ascii	"decompressor returned an error\000"
 181      6D707265 
 181      73736F72 
 181      20726574 
 181      75726E65 
 182 0037 00       		.align	2
 183              	.LC5:
 184 0038 20646F6E 		.ascii	" done, booting the kernel.\012\000"
 184      652C2062 
 184      6F6F7469 
 184      6E672074 
 184      6865206B 
 185              		.section	.text.decompress_kernel,"ax",%progbits
 186              		.align	1
 187              		.global	decompress_kernel
 188              		.syntax unified
 189              		.thumb
 190              		.thumb_func
 192              	decompress_kernel:
 193              	.LVL12:
 194              	.LFB4:
 128:./arch/arm_m/boot/compressed/misc.c **** }
 129:./arch/arm_m/boot/compressed/misc.c **** 
ARM GAS  /tmp/ccaNEGuG.s 			page 7


 130:./arch/arm_m/boot/compressed/misc.c **** void
 131:./arch/arm_m/boot/compressed/misc.c **** decompress_kernel(unsigned long output_start, unsigned long free_mem_ptr_p,
 132:./arch/arm_m/boot/compressed/misc.c **** 		unsigned long free_mem_ptr_end_p,
 133:./arch/arm_m/boot/compressed/misc.c **** 		int arch_id)
 134:./arch/arm_m/boot/compressed/misc.c **** {
 195              		.loc 1 134 1 view -0
 196              		.cfi_startproc
 197              		@ args = 0, pretend = 0, frame = 0
 198              		@ frame_needed = 0, uses_anonymous_args = 0
 199              		.loc 1 134 1 is_stmt 0 view .LVU28
 200 0000 10B5     		push	{r4, lr}
 201              	.LCFI3:
 202              		.cfi_def_cfa_offset 8
 203              		.cfi_offset 4, -8
 204              		.cfi_offset 14, -4
 135:./arch/arm_m/boot/compressed/misc.c **** 	int ret;
 205              		.loc 1 135 2 is_stmt 1 view .LVU29
 136:./arch/arm_m/boot/compressed/misc.c **** 
 137:./arch/arm_m/boot/compressed/misc.c **** 	output_data		= (unsigned char *)output_start;
 206              		.loc 1 137 2 view .LVU30
 207              		.loc 1 137 15 is_stmt 0 view .LVU31
 208 0002 0E4C     		ldr	r4, .L20
 209 0004 2060     		str	r0, [r4]
 138:./arch/arm_m/boot/compressed/misc.c **** 	free_mem_ptr		= free_mem_ptr_p;
 210              		.loc 1 138 2 is_stmt 1 view .LVU32
 211              		.loc 1 138 16 is_stmt 0 view .LVU33
 212 0006 0E48     		ldr	r0, .L20+4
 213              	.LVL13:
 214              		.loc 1 138 16 view .LVU34
 215 0008 0160     		str	r1, [r0]
 139:./arch/arm_m/boot/compressed/misc.c **** 	free_mem_end_ptr	= free_mem_ptr_end_p;
 216              		.loc 1 139 2 is_stmt 1 view .LVU35
 217              		.loc 1 139 19 is_stmt 0 view .LVU36
 218 000a 0E49     		ldr	r1, .L20+8
 219              	.LVL14:
 220              		.loc 1 139 19 view .LVU37
 221 000c 0A60     		str	r2, [r1]
 140:./arch/arm_m/boot/compressed/misc.c **** 	__machine_arch_type	= arch_id;
 222              		.loc 1 140 2 is_stmt 1 view .LVU38
 223              		.loc 1 140 22 is_stmt 0 view .LVU39
 224 000e 0E4A     		ldr	r2, .L20+12
 225              	.LVL15:
 226              		.loc 1 140 22 view .LVU40
 227 0010 1360     		str	r3, [r2]
 141:./arch/arm_m/boot/compressed/misc.c **** 
 142:./arch/arm_m/boot/compressed/misc.c **** #ifdef CONFIG_ARCH_EP93XX
 143:./arch/arm_m/boot/compressed/misc.c **** 	ep93xx_decomp_setup();
 144:./arch/arm_m/boot/compressed/misc.c **** #endif
 145:./arch/arm_m/boot/compressed/misc.c **** 	arch_decomp_setup();
 228              		.loc 1 145 2 is_stmt 1 view .LVU41
 229 0012 FFF7FEFF 		bl	arch_decomp_setup
 230              	.LVL16:
 146:./arch/arm_m/boot/compressed/misc.c **** 
 147:./arch/arm_m/boot/compressed/misc.c **** 	putstr("Uncompressing Linux...");
 231              		.loc 1 147 2 view .LVU42
 232 0016 0D48     		ldr	r0, .L20+16
 233 0018 FFF7FEFF 		bl	putstr
ARM GAS  /tmp/ccaNEGuG.s 			page 8


 234              	.LVL17:
 148:./arch/arm_m/boot/compressed/misc.c **** 	ret = do_decompress(input_data, input_data_end - input_data,
 235              		.loc 1 148 2 view .LVU43
 236              		.loc 1 148 8 is_stmt 0 view .LVU44
 237 001c 0C48     		ldr	r0, .L20+20
 238 001e 0D4B     		ldr	r3, .L20+24
 239 0020 2268     		ldr	r2, [r4]
 240 0022 0D49     		ldr	r1, .L20+28
 241 0024 091A     		subs	r1, r1, r0
 242 0026 FFF7FEFF 		bl	do_decompress
 243              	.LVL18:
 149:./arch/arm_m/boot/compressed/misc.c **** 			    output_data, error);
 150:./arch/arm_m/boot/compressed/misc.c **** 	if (ret)
 244              		.loc 1 150 2 is_stmt 1 view .LVU45
 245              		.loc 1 150 5 is_stmt 0 view .LVU46
 246 002a 18B9     		cbnz	r0, .L19
 151:./arch/arm_m/boot/compressed/misc.c **** 		error("decompressor returned an error");
 152:./arch/arm_m/boot/compressed/misc.c **** 	else
 153:./arch/arm_m/boot/compressed/misc.c **** 		putstr(" done, booting the kernel.\n");
 247              		.loc 1 153 3 is_stmt 1 view .LVU47
 248 002c 0B48     		ldr	r0, .L20+32
 249              	.LVL19:
 250              		.loc 1 153 3 is_stmt 0 view .LVU48
 251 002e FFF7FEFF 		bl	putstr
 252              	.LVL20:
 154:./arch/arm_m/boot/compressed/misc.c **** }
 253              		.loc 1 154 1 view .LVU49
 254 0032 10BD     		pop	{r4, pc}
 255              	.LVL21:
 256              	.L19:
 151:./arch/arm_m/boot/compressed/misc.c **** 		error("decompressor returned an error");
 257              		.loc 1 151 3 is_stmt 1 view .LVU50
 258 0034 0A48     		ldr	r0, .L20+36
 259              	.LVL22:
 151:./arch/arm_m/boot/compressed/misc.c **** 		error("decompressor returned an error");
 260              		.loc 1 151 3 is_stmt 0 view .LVU51
 261 0036 FFF7FEFF 		bl	error
 262              	.LVL23:
 263              	.L21:
 264 003a 00BF     		.align	2
 265              	.L20:
 266 003c 00000000 		.word	output_data
 267 0040 00000000 		.word	free_mem_ptr
 268 0044 00000000 		.word	free_mem_end_ptr
 269 0048 00000000 		.word	__machine_arch_type
 270 004c 00000000 		.word	.LC3
 271 0050 00000000 		.word	input_data
 272 0054 00000000 		.word	error
 273 0058 00000000 		.word	input_data_end
 274 005c 38000000 		.word	.LC5
 275 0060 18000000 		.word	.LC4
 276              		.cfi_endproc
 277              	.LFE4:
 279              		.section	.rodata.__fortify_panic.str1.4,"aMS",%progbits,1
 280              		.align	2
 281              	.LC6:
 282 0000 64657465 		.ascii	"detected buffer overflow\000"
ARM GAS  /tmp/ccaNEGuG.s 			page 9


 282      63746564 
 282      20627566 
 282      66657220 
 282      6F766572 
 283              		.section	.text.__fortify_panic,"ax",%progbits
 284              		.align	1
 285              		.global	__fortify_panic
 286              		.syntax unified
 287              		.thumb
 288              		.thumb_func
 290              	__fortify_panic:
 291              	.LVL24:
 292              	.LFB5:
 155:./arch/arm_m/boot/compressed/misc.c **** 
 156:./arch/arm_m/boot/compressed/misc.c **** void __fortify_panic(const u8 reason, size_t avail, size_t size)
 157:./arch/arm_m/boot/compressed/misc.c **** {
 293              		.loc 1 157 1 is_stmt 1 view -0
 294              		.cfi_startproc
 295              		@ Volatile: function does not return.
 296              		@ args = 0, pretend = 0, frame = 0
 297              		@ frame_needed = 0, uses_anonymous_args = 0
 298              		.loc 1 157 1 is_stmt 0 view .LVU53
 299 0000 08B5     		push	{r3, lr}
 300              	.LCFI4:
 301              		.cfi_def_cfa_offset 8
 302              		.cfi_offset 3, -8
 303              		.cfi_offset 14, -4
 158:./arch/arm_m/boot/compressed/misc.c **** 	error("detected buffer overflow");
 304              		.loc 1 158 2 is_stmt 1 view .LVU54
 305 0002 0148     		ldr	r0, .L24
 306              	.LVL25:
 307              		.loc 1 158 2 is_stmt 0 view .LVU55
 308 0004 FFF7FEFF 		bl	error
 309              	.LVL26:
 310              	.L25:
 311              		.loc 1 158 2 view .LVU56
 312              		.align	2
 313              	.L24:
 314 0008 00000000 		.word	.LC6
 315              		.cfi_endproc
 316              	.LFE5:
 318              		.global	free_mem_end_ptr
 319              		.section	.bss.free_mem_end_ptr,"aw",%nobits
 320              		.align	2
 323              	free_mem_end_ptr:
 324 0000 00000000 		.space	4
 325              		.global	free_mem_ptr
 326              		.section	.bss.free_mem_ptr,"aw",%nobits
 327              		.align	2
 330              	free_mem_ptr:
 331 0000 00000000 		.space	4
 332              		.global	output_data
 333              		.section	.bss.output_data,"aw",%nobits
 334              		.align	2
 337              	output_data:
 338 0000 00000000 		.space	4
 339              		.global	__machine_arch_type
ARM GAS  /tmp/ccaNEGuG.s 			page 10


 340              		.section	.bss.__machine_arch_type,"aw",%nobits
 341              		.align	2
 344              	__machine_arch_type:
 345 0000 00000000 		.space	4
 346              		.text
 347              	.Letext0:
 348              		.file 2 "./include/asm-generic/posix_types.h"
 349              		.file 3 "./include/linux/types.h"
 350              		.file 4 "./arch/arm_m/boot/compressed/misc.h"
 351              		.file 5 "<built-in>"
 352              		.file 6 "./include/asm-generic/int-l64.h"
ARM GAS  /tmp/ccaNEGuG.s 			page 11


DEFINED SYMBOLS
                            *ABS*:00000000 misc.c
     /tmp/ccaNEGuG.s:21     .text.putstr:00000000 $t
     /tmp/ccaNEGuG.s:26     .text.putstr:00000000 putstr
     /tmp/ccaNEGuG.s:86     .rodata.error.str1.4:00000000 $d
     /tmp/ccaNEGuG.s:93     .text.error:00000000 $t
     /tmp/ccaNEGuG.s:99     .text.error:00000000 error
     /tmp/ccaNEGuG.s:136    .text.error:00000018 $d
     /tmp/ccaNEGuG.s:142    .rodata.__div0.str1.4:00000000 $d
     /tmp/ccaNEGuG.s:146    .text.__div0:00000000 $t
     /tmp/ccaNEGuG.s:152    .text.__div0:00000000 __div0
     /tmp/ccaNEGuG.s:171    .text.__div0:00000008 $d
     /tmp/ccaNEGuG.s:176    .rodata.decompress_kernel.str1.4:00000000 $d
     /tmp/ccaNEGuG.s:186    .text.decompress_kernel:00000000 $t
     /tmp/ccaNEGuG.s:192    .text.decompress_kernel:00000000 decompress_kernel
     /tmp/ccaNEGuG.s:266    .text.decompress_kernel:0000003c $d
     /tmp/ccaNEGuG.s:337    .bss.output_data:00000000 output_data
     /tmp/ccaNEGuG.s:330    .bss.free_mem_ptr:00000000 free_mem_ptr
     /tmp/ccaNEGuG.s:323    .bss.free_mem_end_ptr:00000000 free_mem_end_ptr
     /tmp/ccaNEGuG.s:344    .bss.__machine_arch_type:00000000 __machine_arch_type
     /tmp/ccaNEGuG.s:280    .rodata.__fortify_panic.str1.4:00000000 $d
     /tmp/ccaNEGuG.s:284    .text.__fortify_panic:00000000 $t
     /tmp/ccaNEGuG.s:290    .text.__fortify_panic:00000000 __fortify_panic
     /tmp/ccaNEGuG.s:314    .text.__fortify_panic:00000008 $d
     /tmp/ccaNEGuG.s:320    .bss.free_mem_end_ptr:00000000 $d
     /tmp/ccaNEGuG.s:327    .bss.free_mem_ptr:00000000 $d
     /tmp/ccaNEGuG.s:334    .bss.output_data:00000000 $d
     /tmp/ccaNEGuG.s:341    .bss.__machine_arch_type:00000000 $d

UNDEFINED SYMBOLS
putc
flush
arch_decomp_setup
do_decompress
input_data
input_data_end
