ARM GAS  /tmp/ccehv4l2.s 			page 1


   1              		.cpu cortex-m33
   2              		.arch armv8-m.main
   3              		.fpu fpv4-sp-d16
   4              		.arch_extension dsp
   5              		.eabi_attribute 27, 1
   6              		.eabi_attribute 28, 1
   7              		.eabi_attribute 20, 1
   8              		.eabi_attribute 21, 1
   9              		.eabi_attribute 23, 3
  10              		.eabi_attribute 24, 1
  11              		.eabi_attribute 25, 1
  12              		.eabi_attribute 26, 1
  13              		.eabi_attribute 30, 1
  14              		.eabi_attribute 34, 1
  15              		.eabi_attribute 18, 4
  16              		.file	"partition.c"
  17              		.text
  18              	.Ltext0:
  19              		.cfi_sections	.debug_frame
  20              		.file 1 "/mnt/c/Users/31740/Documents/codes/newcore-rp2350/block/partition.c"
  21              		.section	.text.my_end_io,"ax",%progbits
  22              		.align	1
  23              		.syntax unified
  24              		.thumb
  25              		.thumb_func
  27              	my_end_io:
  28              	.LVL0:
  29              	.LFB1032:
   1:/mnt/c/Users/31740/Documents/codes/newcore-rp2350/block/partition.c **** #include <linux/kernel.h>
   2:/mnt/c/Users/31740/Documents/codes/newcore-rp2350/block/partition.c **** #include <linux/slab.h>
   3:/mnt/c/Users/31740/Documents/codes/newcore-rp2350/block/partition.c **** #include <linux/fs.h>
   4:/mnt/c/Users/31740/Documents/codes/newcore-rp2350/block/partition.c **** #include <linux/blkdev.h>
   5:/mnt/c/Users/31740/Documents/codes/newcore-rp2350/block/partition.c **** #include <linux/spinlock.h>
   6:/mnt/c/Users/31740/Documents/codes/newcore-rp2350/block/partition.c **** #include <linux/string.h>
   7:/mnt/c/Users/31740/Documents/codes/newcore-rp2350/block/partition.c **** #include <asm/byteorder.h>
   8:/mnt/c/Users/31740/Documents/codes/newcore-rp2350/block/partition.c **** 
   9:/mnt/c/Users/31740/Documents/codes/newcore-rp2350/block/partition.c **** 
  10:/mnt/c/Users/31740/Documents/codes/newcore-rp2350/block/partition.c **** static void my_end_io(struct bio *bio){
  30              		.loc 1 10 39 view -0
  31              		.cfi_startproc
  32              		@ args = 0, pretend = 0, frame = 0
  33              		@ frame_needed = 0, uses_anonymous_args = 0
  34              		.loc 1 10 39 is_stmt 0 view .LVU1
  35 0000 08B5     		push	{r3, lr}
  36              	.LCFI0:
  37              		.cfi_def_cfa_offset 8
  38              		.cfi_offset 3, -8
  39              		.cfi_offset 14, -4
  11:/mnt/c/Users/31740/Documents/codes/newcore-rp2350/block/partition.c ****     bio_put(bio);
  40              		.loc 1 11 5 is_stmt 1 view .LVU2
  41 0002 FFF7FEFF 		bl	bio_put
  42              	.LVL1:
  12:/mnt/c/Users/31740/Documents/codes/newcore-rp2350/block/partition.c **** }
  43              		.loc 1 12 1 is_stmt 0 view .LVU3
  44 0006 08BD     		pop	{r3, pc}
  45              		.cfi_endproc
  46              	.LFE1032:
ARM GAS  /tmp/ccehv4l2.s 			page 2


  48              		.section	.text.__page_create,"ax",%progbits
  49              		.align	1
  50              		.syntax unified
  51              		.thumb
  52              		.thumb_func
  54              	__page_create:
  55              	.LVL2:
  56              	.LFB907:
  57              		.file 2 "/mnt/c/Users/31740/Documents/codes/newcore-rp2350/include/linux/mm_type.h"
   1:/mnt/c/Users/31740/Documents/codes/newcore-rp2350/include/linux/mm_type.h **** /* SPDX-License-Identifier: GPL-2.0 */
   2:/mnt/c/Users/31740/Documents/codes/newcore-rp2350/include/linux/mm_type.h **** #ifndef _LINUX_MM_TYPES_H
   3:/mnt/c/Users/31740/Documents/codes/newcore-rp2350/include/linux/mm_type.h **** #define _LINUX_MM_TYPES_H
   4:/mnt/c/Users/31740/Documents/codes/newcore-rp2350/include/linux/mm_type.h **** 
   5:/mnt/c/Users/31740/Documents/codes/newcore-rp2350/include/linux/mm_type.h **** #include <linux/list.h>
   6:/mnt/c/Users/31740/Documents/codes/newcore-rp2350/include/linux/mm_type.h **** #include <linux/spinlock.h>
   7:/mnt/c/Users/31740/Documents/codes/newcore-rp2350/include/linux/mm_type.h **** #include <linux/slab.h>
   8:/mnt/c/Users/31740/Documents/codes/newcore-rp2350/include/linux/mm_type.h **** #include <linux/atomic.h>
   9:/mnt/c/Users/31740/Documents/codes/newcore-rp2350/include/linux/mm_type.h **** #include <linux/errno.h>
  10:/mnt/c/Users/31740/Documents/codes/newcore-rp2350/include/linux/mm_type.h **** 
  11:/mnt/c/Users/31740/Documents/codes/newcore-rp2350/include/linux/mm_type.h **** 
  12:/mnt/c/Users/31740/Documents/codes/newcore-rp2350/include/linux/mm_type.h **** 
  13:/mnt/c/Users/31740/Documents/codes/newcore-rp2350/include/linux/mm_type.h **** struct page {
  14:/mnt/c/Users/31740/Documents/codes/newcore-rp2350/include/linux/mm_type.h **** 	unsigned long flags;		/* Atomic flags, some possibly
  15:/mnt/c/Users/31740/Documents/codes/newcore-rp2350/include/linux/mm_type.h **** 					 * updated asynchronously */
  16:/mnt/c/Users/31740/Documents/codes/newcore-rp2350/include/linux/mm_type.h **** 	/*
  17:/mnt/c/Users/31740/Documents/codes/newcore-rp2350/include/linux/mm_type.h **** 	 * Five words (20/40 bytes) are available in this union.
  18:/mnt/c/Users/31740/Documents/codes/newcore-rp2350/include/linux/mm_type.h **** 	 * WARNING: bit 0 of the first word is used for PageTail(). That
  19:/mnt/c/Users/31740/Documents/codes/newcore-rp2350/include/linux/mm_type.h **** 	 * means the other users of this union MUST NOT use the bit to
  20:/mnt/c/Users/31740/Documents/codes/newcore-rp2350/include/linux/mm_type.h **** 	 * avoid collision and false-positive PageTail().
  21:/mnt/c/Users/31740/Documents/codes/newcore-rp2350/include/linux/mm_type.h **** 	 */
  22:/mnt/c/Users/31740/Documents/codes/newcore-rp2350/include/linux/mm_type.h **** 	union {
  23:/mnt/c/Users/31740/Documents/codes/newcore-rp2350/include/linux/mm_type.h **** 		struct {	/* Page cache and anonymous pages */
  24:/mnt/c/Users/31740/Documents/codes/newcore-rp2350/include/linux/mm_type.h **** 			/**
  25:/mnt/c/Users/31740/Documents/codes/newcore-rp2350/include/linux/mm_type.h **** 			 * @lru: Pageout list, eg. active_list protected by
  26:/mnt/c/Users/31740/Documents/codes/newcore-rp2350/include/linux/mm_type.h **** 			 * lruvec->lru_lock.  Sometimes used as a generic list
  27:/mnt/c/Users/31740/Documents/codes/newcore-rp2350/include/linux/mm_type.h **** 			 * by the page owner.
  28:/mnt/c/Users/31740/Documents/codes/newcore-rp2350/include/linux/mm_type.h **** 			 */
  29:/mnt/c/Users/31740/Documents/codes/newcore-rp2350/include/linux/mm_type.h **** 			union {
  30:/mnt/c/Users/31740/Documents/codes/newcore-rp2350/include/linux/mm_type.h **** 				struct list_head lru;
  31:/mnt/c/Users/31740/Documents/codes/newcore-rp2350/include/linux/mm_type.h **** 
  32:/mnt/c/Users/31740/Documents/codes/newcore-rp2350/include/linux/mm_type.h **** 				/* Or, for the Unevictable "LRU list" slot */
  33:/mnt/c/Users/31740/Documents/codes/newcore-rp2350/include/linux/mm_type.h **** 				struct {
  34:/mnt/c/Users/31740/Documents/codes/newcore-rp2350/include/linux/mm_type.h **** 					/* Always even, to negate PageTail */
  35:/mnt/c/Users/31740/Documents/codes/newcore-rp2350/include/linux/mm_type.h **** 					void *__filler;
  36:/mnt/c/Users/31740/Documents/codes/newcore-rp2350/include/linux/mm_type.h **** 					/* Count page's or folio's mlocks */
  37:/mnt/c/Users/31740/Documents/codes/newcore-rp2350/include/linux/mm_type.h **** 					unsigned int mlock_count;
  38:/mnt/c/Users/31740/Documents/codes/newcore-rp2350/include/linux/mm_type.h **** 				};
  39:/mnt/c/Users/31740/Documents/codes/newcore-rp2350/include/linux/mm_type.h **** 
  40:/mnt/c/Users/31740/Documents/codes/newcore-rp2350/include/linux/mm_type.h **** 				/* Or, free page */
  41:/mnt/c/Users/31740/Documents/codes/newcore-rp2350/include/linux/mm_type.h **** 				struct list_head buddy_list;
  42:/mnt/c/Users/31740/Documents/codes/newcore-rp2350/include/linux/mm_type.h **** 				struct list_head pcp_list;
  43:/mnt/c/Users/31740/Documents/codes/newcore-rp2350/include/linux/mm_type.h **** 			};
  44:/mnt/c/Users/31740/Documents/codes/newcore-rp2350/include/linux/mm_type.h **** 			/* See page-flags.h for PAGE_MAPPING_FLAGS */
  45:/mnt/c/Users/31740/Documents/codes/newcore-rp2350/include/linux/mm_type.h **** 			struct address_space *mapping;
  46:/mnt/c/Users/31740/Documents/codes/newcore-rp2350/include/linux/mm_type.h **** 			union {
  47:/mnt/c/Users/31740/Documents/codes/newcore-rp2350/include/linux/mm_type.h **** 				pgoff_t index;		/* Our offset within mapping. */
  48:/mnt/c/Users/31740/Documents/codes/newcore-rp2350/include/linux/mm_type.h **** 				unsigned long share;	/* share count for fsdax */
ARM GAS  /tmp/ccehv4l2.s 			page 3


  49:/mnt/c/Users/31740/Documents/codes/newcore-rp2350/include/linux/mm_type.h **** 			};
  50:/mnt/c/Users/31740/Documents/codes/newcore-rp2350/include/linux/mm_type.h **** 			/**
  51:/mnt/c/Users/31740/Documents/codes/newcore-rp2350/include/linux/mm_type.h **** 			 * @private: Mapping-private opaque data.
  52:/mnt/c/Users/31740/Documents/codes/newcore-rp2350/include/linux/mm_type.h **** 			 * Usually used for buffer_heads if PagePrivate.
  53:/mnt/c/Users/31740/Documents/codes/newcore-rp2350/include/linux/mm_type.h **** 			 * Used for swp_entry_t if swapcache flag set.
  54:/mnt/c/Users/31740/Documents/codes/newcore-rp2350/include/linux/mm_type.h **** 			 * Indicates order in the buddy system if PageBuddy.
  55:/mnt/c/Users/31740/Documents/codes/newcore-rp2350/include/linux/mm_type.h **** 			 */
  56:/mnt/c/Users/31740/Documents/codes/newcore-rp2350/include/linux/mm_type.h **** 			unsigned long private;
  57:/mnt/c/Users/31740/Documents/codes/newcore-rp2350/include/linux/mm_type.h **** 		};
  58:/mnt/c/Users/31740/Documents/codes/newcore-rp2350/include/linux/mm_type.h **** 		struct {	/* page_pool used by netstack */
  59:/mnt/c/Users/31740/Documents/codes/newcore-rp2350/include/linux/mm_type.h **** 			/**
  60:/mnt/c/Users/31740/Documents/codes/newcore-rp2350/include/linux/mm_type.h **** 			 * @pp_magic: magic value to avoid recycling non
  61:/mnt/c/Users/31740/Documents/codes/newcore-rp2350/include/linux/mm_type.h **** 			 * page_pool allocated pages.
  62:/mnt/c/Users/31740/Documents/codes/newcore-rp2350/include/linux/mm_type.h **** 			 */
  63:/mnt/c/Users/31740/Documents/codes/newcore-rp2350/include/linux/mm_type.h **** 			unsigned long pp_magic;
  64:/mnt/c/Users/31740/Documents/codes/newcore-rp2350/include/linux/mm_type.h **** 		//	struct page_pool *pp; 
  65:/mnt/c/Users/31740/Documents/codes/newcore-rp2350/include/linux/mm_type.h **** 			unsigned long _pp_mapping_pad;
  66:/mnt/c/Users/31740/Documents/codes/newcore-rp2350/include/linux/mm_type.h **** 			unsigned long dma_addr;
  67:/mnt/c/Users/31740/Documents/codes/newcore-rp2350/include/linux/mm_type.h **** 		//	atomic_long_t pp_ref_count;
  68:/mnt/c/Users/31740/Documents/codes/newcore-rp2350/include/linux/mm_type.h **** 		};
  69:/mnt/c/Users/31740/Documents/codes/newcore-rp2350/include/linux/mm_type.h **** 		struct {	/* Tail pages of compound page */
  70:/mnt/c/Users/31740/Documents/codes/newcore-rp2350/include/linux/mm_type.h **** 			unsigned long compound_head;	/* Bit zero is set */
  71:/mnt/c/Users/31740/Documents/codes/newcore-rp2350/include/linux/mm_type.h **** 		};
  72:/mnt/c/Users/31740/Documents/codes/newcore-rp2350/include/linux/mm_type.h **** 		struct {	/* ZONE_DEVICE pages */
  73:/mnt/c/Users/31740/Documents/codes/newcore-rp2350/include/linux/mm_type.h **** 			/** @pgmap: Points to the hosting device page map. */
  74:/mnt/c/Users/31740/Documents/codes/newcore-rp2350/include/linux/mm_type.h **** 			// struct dev_pagemap *pgmap;
  75:/mnt/c/Users/31740/Documents/codes/newcore-rp2350/include/linux/mm_type.h **** 			void *zone_device_data;
  76:/mnt/c/Users/31740/Documents/codes/newcore-rp2350/include/linux/mm_type.h **** 			/*
  77:/mnt/c/Users/31740/Documents/codes/newcore-rp2350/include/linux/mm_type.h **** 			 * ZONE_DEVICE private pages are counted as being
  78:/mnt/c/Users/31740/Documents/codes/newcore-rp2350/include/linux/mm_type.h **** 			 * mapped so the next 3 words hold the mapping, index,
  79:/mnt/c/Users/31740/Documents/codes/newcore-rp2350/include/linux/mm_type.h **** 			 * and private fields from the source anonymous or
  80:/mnt/c/Users/31740/Documents/codes/newcore-rp2350/include/linux/mm_type.h **** 			 * page cache page while the page is migrated to device
  81:/mnt/c/Users/31740/Documents/codes/newcore-rp2350/include/linux/mm_type.h **** 			 * private memory.
  82:/mnt/c/Users/31740/Documents/codes/newcore-rp2350/include/linux/mm_type.h **** 			 * ZONE_DEVICE MEMORY_DEVICE_FS_DAX pages also
  83:/mnt/c/Users/31740/Documents/codes/newcore-rp2350/include/linux/mm_type.h **** 			 * use the mapping, index, and private fields when
  84:/mnt/c/Users/31740/Documents/codes/newcore-rp2350/include/linux/mm_type.h **** 			 * pmem backed DAX files are mapped.
  85:/mnt/c/Users/31740/Documents/codes/newcore-rp2350/include/linux/mm_type.h **** 			 */
  86:/mnt/c/Users/31740/Documents/codes/newcore-rp2350/include/linux/mm_type.h **** 		};
  87:/mnt/c/Users/31740/Documents/codes/newcore-rp2350/include/linux/mm_type.h **** 
  88:/mnt/c/Users/31740/Documents/codes/newcore-rp2350/include/linux/mm_type.h **** 		/** @rcu_head: You can use this to free a page by RCU. */
  89:/mnt/c/Users/31740/Documents/codes/newcore-rp2350/include/linux/mm_type.h **** 		struct rcu_head rcu_head;
  90:/mnt/c/Users/31740/Documents/codes/newcore-rp2350/include/linux/mm_type.h **** 	};
  91:/mnt/c/Users/31740/Documents/codes/newcore-rp2350/include/linux/mm_type.h **** 
  92:/mnt/c/Users/31740/Documents/codes/newcore-rp2350/include/linux/mm_type.h **** 	union {		/* This union is 4 bytes in size. */
  93:/mnt/c/Users/31740/Documents/codes/newcore-rp2350/include/linux/mm_type.h **** 		/*
  94:/mnt/c/Users/31740/Documents/codes/newcore-rp2350/include/linux/mm_type.h **** 		 * For head pages of typed folios, the value stored here
  95:/mnt/c/Users/31740/Documents/codes/newcore-rp2350/include/linux/mm_type.h **** 		 * allows for determining what this page is used for. The
  96:/mnt/c/Users/31740/Documents/codes/newcore-rp2350/include/linux/mm_type.h **** 		 * tail pages of typed folios will not store a type
  97:/mnt/c/Users/31740/Documents/codes/newcore-rp2350/include/linux/mm_type.h **** 		 * (page_type == _mapcount == -1).
  98:/mnt/c/Users/31740/Documents/codes/newcore-rp2350/include/linux/mm_type.h **** 		 *
  99:/mnt/c/Users/31740/Documents/codes/newcore-rp2350/include/linux/mm_type.h **** 		 * See page-flags.h for a list of page types which are currently
 100:/mnt/c/Users/31740/Documents/codes/newcore-rp2350/include/linux/mm_type.h **** 		 * stored here.
 101:/mnt/c/Users/31740/Documents/codes/newcore-rp2350/include/linux/mm_type.h **** 		 *
 102:/mnt/c/Users/31740/Documents/codes/newcore-rp2350/include/linux/mm_type.h **** 		 * Owners of typed folios may reuse the lower 16 bit of the
 103:/mnt/c/Users/31740/Documents/codes/newcore-rp2350/include/linux/mm_type.h **** 		 * head page page_type field after setting the page type,
 104:/mnt/c/Users/31740/Documents/codes/newcore-rp2350/include/linux/mm_type.h **** 		 * but must reset these 16 bit to -1 before clearing the
 105:/mnt/c/Users/31740/Documents/codes/newcore-rp2350/include/linux/mm_type.h **** 		 * page type.
ARM GAS  /tmp/ccehv4l2.s 			page 4


 106:/mnt/c/Users/31740/Documents/codes/newcore-rp2350/include/linux/mm_type.h **** 		 */
 107:/mnt/c/Users/31740/Documents/codes/newcore-rp2350/include/linux/mm_type.h **** 		unsigned int page_type;
 108:/mnt/c/Users/31740/Documents/codes/newcore-rp2350/include/linux/mm_type.h **** 
 109:/mnt/c/Users/31740/Documents/codes/newcore-rp2350/include/linux/mm_type.h **** 		/*
 110:/mnt/c/Users/31740/Documents/codes/newcore-rp2350/include/linux/mm_type.h **** 		 * For pages that are part of non-typed folios for which mappings
 111:/mnt/c/Users/31740/Documents/codes/newcore-rp2350/include/linux/mm_type.h **** 		 * are tracked via the RMAP, encodes the number of times this page
 112:/mnt/c/Users/31740/Documents/codes/newcore-rp2350/include/linux/mm_type.h **** 		 * is directly referenced by a page table.
 113:/mnt/c/Users/31740/Documents/codes/newcore-rp2350/include/linux/mm_type.h **** 		 *
 114:/mnt/c/Users/31740/Documents/codes/newcore-rp2350/include/linux/mm_type.h **** 		 * Note that the mapcount is always initialized to -1, so that
 115:/mnt/c/Users/31740/Documents/codes/newcore-rp2350/include/linux/mm_type.h **** 		 * transitions both from it and to it can be tracked, using
 116:/mnt/c/Users/31740/Documents/codes/newcore-rp2350/include/linux/mm_type.h **** 		 * atomic_inc_and_test() and atomic_add_negative(-1).
 117:/mnt/c/Users/31740/Documents/codes/newcore-rp2350/include/linux/mm_type.h **** 		 */
 118:/mnt/c/Users/31740/Documents/codes/newcore-rp2350/include/linux/mm_type.h **** 		atomic_t _mapcount;
 119:/mnt/c/Users/31740/Documents/codes/newcore-rp2350/include/linux/mm_type.h **** 	};
 120:/mnt/c/Users/31740/Documents/codes/newcore-rp2350/include/linux/mm_type.h **** 
 121:/mnt/c/Users/31740/Documents/codes/newcore-rp2350/include/linux/mm_type.h **** 	/* Usage count. *DO NOT USE DIRECTLY*. See page_ref.h */
 122:/mnt/c/Users/31740/Documents/codes/newcore-rp2350/include/linux/mm_type.h **** 	atomic_t _refcount;
 123:/mnt/c/Users/31740/Documents/codes/newcore-rp2350/include/linux/mm_type.h **** 
 124:/mnt/c/Users/31740/Documents/codes/newcore-rp2350/include/linux/mm_type.h **** #ifdef CONFIG_MEMCG
 125:/mnt/c/Users/31740/Documents/codes/newcore-rp2350/include/linux/mm_type.h **** 	unsigned long memcg_data;
 126:/mnt/c/Users/31740/Documents/codes/newcore-rp2350/include/linux/mm_type.h **** #elif defined(CONFIG_SLAB_OBJ_EXT)
 127:/mnt/c/Users/31740/Documents/codes/newcore-rp2350/include/linux/mm_type.h **** 	unsigned long _unused_slab_obj_exts;
 128:/mnt/c/Users/31740/Documents/codes/newcore-rp2350/include/linux/mm_type.h **** #endif
 129:/mnt/c/Users/31740/Documents/codes/newcore-rp2350/include/linux/mm_type.h **** 
 130:/mnt/c/Users/31740/Documents/codes/newcore-rp2350/include/linux/mm_type.h **** 	/*
 131:/mnt/c/Users/31740/Documents/codes/newcore-rp2350/include/linux/mm_type.h **** 	 * On machines where all RAM is mapped into kernel address space,
 132:/mnt/c/Users/31740/Documents/codes/newcore-rp2350/include/linux/mm_type.h **** 	 * we can simply calculate the virtual address. On machines with
 133:/mnt/c/Users/31740/Documents/codes/newcore-rp2350/include/linux/mm_type.h **** 	 * highmem some memory is mapped into kernel virtual memory
 134:/mnt/c/Users/31740/Documents/codes/newcore-rp2350/include/linux/mm_type.h **** 	 * dynamically, so we need a place to store that address.
 135:/mnt/c/Users/31740/Documents/codes/newcore-rp2350/include/linux/mm_type.h **** 	 * Note that this field could be 16 bits on x86 ... ;)
 136:/mnt/c/Users/31740/Documents/codes/newcore-rp2350/include/linux/mm_type.h **** 	 *
 137:/mnt/c/Users/31740/Documents/codes/newcore-rp2350/include/linux/mm_type.h **** 	 * Architectures with slow multiplication can define
 138:/mnt/c/Users/31740/Documents/codes/newcore-rp2350/include/linux/mm_type.h **** 	 * WANT_PAGE_VIRTUAL in asm/page.h
 139:/mnt/c/Users/31740/Documents/codes/newcore-rp2350/include/linux/mm_type.h **** 	 */
 140:/mnt/c/Users/31740/Documents/codes/newcore-rp2350/include/linux/mm_type.h **** #if defined(WANT_PAGE_VIRTUAL)
 141:/mnt/c/Users/31740/Documents/codes/newcore-rp2350/include/linux/mm_type.h **** 	void *virtual;			/* Kernel virtual address (NULL if
 142:/mnt/c/Users/31740/Documents/codes/newcore-rp2350/include/linux/mm_type.h **** 					   not kmapped, ie. highmem) */
 143:/mnt/c/Users/31740/Documents/codes/newcore-rp2350/include/linux/mm_type.h **** #endif /* WANT_PAGE_VIRTUAL */
 144:/mnt/c/Users/31740/Documents/codes/newcore-rp2350/include/linux/mm_type.h **** 
 145:/mnt/c/Users/31740/Documents/codes/newcore-rp2350/include/linux/mm_type.h **** #ifdef LAST_CPUPID_NOT_IN_PAGE_FLAGS
 146:/mnt/c/Users/31740/Documents/codes/newcore-rp2350/include/linux/mm_type.h **** 	int _last_cpupid;
 147:/mnt/c/Users/31740/Documents/codes/newcore-rp2350/include/linux/mm_type.h **** #endif
 148:/mnt/c/Users/31740/Documents/codes/newcore-rp2350/include/linux/mm_type.h **** 
 149:/mnt/c/Users/31740/Documents/codes/newcore-rp2350/include/linux/mm_type.h **** #ifdef CONFIG_KMSAN
 150:/mnt/c/Users/31740/Documents/codes/newcore-rp2350/include/linux/mm_type.h **** 	/*
 151:/mnt/c/Users/31740/Documents/codes/newcore-rp2350/include/linux/mm_type.h **** 	 * KMSAN metadata for this page:
 152:/mnt/c/Users/31740/Documents/codes/newcore-rp2350/include/linux/mm_type.h **** 	 *  - shadow page: every bit indicates whether the corresponding
 153:/mnt/c/Users/31740/Documents/codes/newcore-rp2350/include/linux/mm_type.h **** 	 *    bit of the original page is initialized (0) or not (1);
 154:/mnt/c/Users/31740/Documents/codes/newcore-rp2350/include/linux/mm_type.h **** 	 *  - origin page: every 4 bytes contain an id of the stack trace
 155:/mnt/c/Users/31740/Documents/codes/newcore-rp2350/include/linux/mm_type.h **** 	 *    where the uninitialized value was created.
 156:/mnt/c/Users/31740/Documents/codes/newcore-rp2350/include/linux/mm_type.h **** 	 */
 157:/mnt/c/Users/31740/Documents/codes/newcore-rp2350/include/linux/mm_type.h **** 	struct page *kmsan_shadow;
 158:/mnt/c/Users/31740/Documents/codes/newcore-rp2350/include/linux/mm_type.h **** 	struct page *kmsan_origin;
 159:/mnt/c/Users/31740/Documents/codes/newcore-rp2350/include/linux/mm_type.h **** #endif
 160:/mnt/c/Users/31740/Documents/codes/newcore-rp2350/include/linux/mm_type.h **** };
 161:/mnt/c/Users/31740/Documents/codes/newcore-rp2350/include/linux/mm_type.h **** 
 162:/mnt/c/Users/31740/Documents/codes/newcore-rp2350/include/linux/mm_type.h **** #if CONFIG_MMU 
ARM GAS  /tmp/ccehv4l2.s 			page 5


 163:/mnt/c/Users/31740/Documents/codes/newcore-rp2350/include/linux/mm_type.h ****   #include <mm_page.h>
 164:/mnt/c/Users/31740/Documents/codes/newcore-rp2350/include/linux/mm_type.h **** 
 165:/mnt/c/Users/31740/Documents/codes/newcore-rp2350/include/linux/mm_type.h **** #else
 166:/mnt/c/Users/31740/Documents/codes/newcore-rp2350/include/linux/mm_type.h **** 
 167:/mnt/c/Users/31740/Documents/codes/newcore-rp2350/include/linux/mm_type.h **** 
 168:/mnt/c/Users/31740/Documents/codes/newcore-rp2350/include/linux/mm_type.h **** 
 169:/mnt/c/Users/31740/Documents/codes/newcore-rp2350/include/linux/mm_type.h **** 
 170:/mnt/c/Users/31740/Documents/codes/newcore-rp2350/include/linux/mm_type.h **** #define PG_locked       (1 << 0)
 171:/mnt/c/Users/31740/Documents/codes/newcore-rp2350/include/linux/mm_type.h **** #define PG_referenced   (1 << 1)
 172:/mnt/c/Users/31740/Documents/codes/newcore-rp2350/include/linux/mm_type.h **** #define PG_uptodate     (1 << 2)
 173:/mnt/c/Users/31740/Documents/codes/newcore-rp2350/include/linux/mm_type.h **** #define PG_dirty        (1 << 11)
 174:/mnt/c/Users/31740/Documents/codes/newcore-rp2350/include/linux/mm_type.h **** #define PG_active       (1 << 12)
 175:/mnt/c/Users/31740/Documents/codes/newcore-rp2350/include/linux/mm_type.h **** 
 176:/mnt/c/Users/31740/Documents/codes/newcore-rp2350/include/linux/mm_type.h **** static inline void __set_page_flag(struct page *page, unsigned long flag){
 177:/mnt/c/Users/31740/Documents/codes/newcore-rp2350/include/linux/mm_type.h ****     if (page)
 178:/mnt/c/Users/31740/Documents/codes/newcore-rp2350/include/linux/mm_type.h ****         page->flags |= flag;
 179:/mnt/c/Users/31740/Documents/codes/newcore-rp2350/include/linux/mm_type.h **** }
 180:/mnt/c/Users/31740/Documents/codes/newcore-rp2350/include/linux/mm_type.h **** static inline void __clear_page_flag(struct page *page, unsigned long flag){
 181:/mnt/c/Users/31740/Documents/codes/newcore-rp2350/include/linux/mm_type.h ****     if (page)
 182:/mnt/c/Users/31740/Documents/codes/newcore-rp2350/include/linux/mm_type.h ****         page->flags &= ~flag;
 183:/mnt/c/Users/31740/Documents/codes/newcore-rp2350/include/linux/mm_type.h **** }
 184:/mnt/c/Users/31740/Documents/codes/newcore-rp2350/include/linux/mm_type.h **** 
 185:/mnt/c/Users/31740/Documents/codes/newcore-rp2350/include/linux/mm_type.h **** static inline int __test_page_flag(struct page *page, unsigned long flag){
 186:/mnt/c/Users/31740/Documents/codes/newcore-rp2350/include/linux/mm_type.h ****     return (page && (page->flags & flag)) ? 1 : 0;
 187:/mnt/c/Users/31740/Documents/codes/newcore-rp2350/include/linux/mm_type.h **** }
 188:/mnt/c/Users/31740/Documents/codes/newcore-rp2350/include/linux/mm_type.h **** 
 189:/mnt/c/Users/31740/Documents/codes/newcore-rp2350/include/linux/mm_type.h **** static inline struct page *__page_create(gfp_t flags ){
  58              		.loc 2 189 55 is_stmt 1 view -0
  59              		.cfi_startproc
  60              		@ args = 0, pretend = 0, frame = 0
  61              		@ frame_needed = 0, uses_anonymous_args = 0
  62              		.loc 2 189 55 is_stmt 0 view .LVU5
  63 0000 08B5     		push	{r3, lr}
  64              	.LCFI1:
  65              		.cfi_def_cfa_offset 8
  66              		.cfi_offset 3, -8
  67              		.cfi_offset 14, -4
  68 0002 0146     		mov	r1, r0
 190:/mnt/c/Users/31740/Documents/codes/newcore-rp2350/include/linux/mm_type.h ****     struct page *page = (struct page *)kmalloc(sizeof(struct page), flags);
  69              		.loc 2 190 5 is_stmt 1 view .LVU6
  70              	.LVL3:
  71              	.LBB67:
  72              	.LBI67:
  73              		.file 3 "/mnt/c/Users/31740/Documents/codes/newcore-rp2350/include/linux/slab.h"
   1:/mnt/c/Users/31740/Documents/codes/newcore-rp2350/include/linux/slab.h **** /* SPDX-License-Identifier: GPL-2.0 */
   2:/mnt/c/Users/31740/Documents/codes/newcore-rp2350/include/linux/slab.h **** /*
   3:/mnt/c/Users/31740/Documents/codes/newcore-rp2350/include/linux/slab.h ****  * Written by Mark Hemment, 1996 (markhe@nextd.demon.co.uk).
   4:/mnt/c/Users/31740/Documents/codes/newcore-rp2350/include/linux/slab.h ****  *
   5:/mnt/c/Users/31740/Documents/codes/newcore-rp2350/include/linux/slab.h ****  * (C) SGI 2006, Christoph Lameter
   6:/mnt/c/Users/31740/Documents/codes/newcore-rp2350/include/linux/slab.h ****  * 	Cleaned up and restructured to ease the addition of alternative
   7:/mnt/c/Users/31740/Documents/codes/newcore-rp2350/include/linux/slab.h ****  * 	implementations of SLAB allocators.
   8:/mnt/c/Users/31740/Documents/codes/newcore-rp2350/include/linux/slab.h ****  * (C) Linux Foundation 2008-2013
   9:/mnt/c/Users/31740/Documents/codes/newcore-rp2350/include/linux/slab.h ****  *      Unified interface for all slab allocators
  10:/mnt/c/Users/31740/Documents/codes/newcore-rp2350/include/linux/slab.h ****  */
  11:/mnt/c/Users/31740/Documents/codes/newcore-rp2350/include/linux/slab.h **** 
  12:/mnt/c/Users/31740/Documents/codes/newcore-rp2350/include/linux/slab.h **** #ifndef _LINUX_SLAB_H
  13:/mnt/c/Users/31740/Documents/codes/newcore-rp2350/include/linux/slab.h **** #define	_LINUX_SLAB_H
ARM GAS  /tmp/ccehv4l2.s 			page 6


  14:/mnt/c/Users/31740/Documents/codes/newcore-rp2350/include/linux/slab.h **** 
  15:/mnt/c/Users/31740/Documents/codes/newcore-rp2350/include/linux/slab.h **** #include <linux/cache.h>
  16:/mnt/c/Users/31740/Documents/codes/newcore-rp2350/include/linux/slab.h **** #include <linux/overflow.h>
  17:/mnt/c/Users/31740/Documents/codes/newcore-rp2350/include/linux/slab.h **** #include <linux/types.h>
  18:/mnt/c/Users/31740/Documents/codes/newcore-rp2350/include/linux/slab.h **** #include <linux/raid/pq.h>
  19:/mnt/c/Users/31740/Documents/codes/newcore-rp2350/include/linux/slab.h **** #include <linux/gfp_types.h>
  20:/mnt/c/Users/31740/Documents/codes/newcore-rp2350/include/linux/slab.h **** #include <linux/numa.h>
  21:/mnt/c/Users/31740/Documents/codes/newcore-rp2350/include/linux/slab.h **** #include <linux/reciprocal_div.h>
  22:/mnt/c/Users/31740/Documents/codes/newcore-rp2350/include/linux/slab.h **** #include <linux/spinlock.h>
  23:/mnt/c/Users/31740/Documents/codes/newcore-rp2350/include/linux/slab.h **** 
  24:/mnt/c/Users/31740/Documents/codes/newcore-rp2350/include/linux/slab.h **** enum _slab_flag_bits {
  25:/mnt/c/Users/31740/Documents/codes/newcore-rp2350/include/linux/slab.h **** 	_SLAB_CONSISTENCY_CHECKS,
  26:/mnt/c/Users/31740/Documents/codes/newcore-rp2350/include/linux/slab.h **** 	_SLAB_RED_ZONE,
  27:/mnt/c/Users/31740/Documents/codes/newcore-rp2350/include/linux/slab.h **** 	_SLAB_POISON,
  28:/mnt/c/Users/31740/Documents/codes/newcore-rp2350/include/linux/slab.h **** 	_SLAB_KMALLOC,
  29:/mnt/c/Users/31740/Documents/codes/newcore-rp2350/include/linux/slab.h **** 	_SLAB_HWCACHE_ALIGN,
  30:/mnt/c/Users/31740/Documents/codes/newcore-rp2350/include/linux/slab.h **** 	_SLAB_CACHE_DMA,
  31:/mnt/c/Users/31740/Documents/codes/newcore-rp2350/include/linux/slab.h **** 	_SLAB_CACHE_DMA32,
  32:/mnt/c/Users/31740/Documents/codes/newcore-rp2350/include/linux/slab.h **** 	_SLAB_STORE_USER,
  33:/mnt/c/Users/31740/Documents/codes/newcore-rp2350/include/linux/slab.h **** 	_SLAB_PANIC,
  34:/mnt/c/Users/31740/Documents/codes/newcore-rp2350/include/linux/slab.h **** 	_SLAB_TYPESAFE_BY_RCU,
  35:/mnt/c/Users/31740/Documents/codes/newcore-rp2350/include/linux/slab.h **** 	_SLAB_TRACE,
  36:/mnt/c/Users/31740/Documents/codes/newcore-rp2350/include/linux/slab.h **** #ifdef CONFIG_DEBUG_OBJECTS
  37:/mnt/c/Users/31740/Documents/codes/newcore-rp2350/include/linux/slab.h **** 	_SLAB_DEBUG_OBJECTS,
  38:/mnt/c/Users/31740/Documents/codes/newcore-rp2350/include/linux/slab.h **** #endif
  39:/mnt/c/Users/31740/Documents/codes/newcore-rp2350/include/linux/slab.h **** 	_SLAB_NOLEAKTRACE,
  40:/mnt/c/Users/31740/Documents/codes/newcore-rp2350/include/linux/slab.h **** 	_SLAB_NO_MERGE,
  41:/mnt/c/Users/31740/Documents/codes/newcore-rp2350/include/linux/slab.h **** #ifdef CONFIG_FAILSLAB
  42:/mnt/c/Users/31740/Documents/codes/newcore-rp2350/include/linux/slab.h **** 	_SLAB_FAILSLAB,
  43:/mnt/c/Users/31740/Documents/codes/newcore-rp2350/include/linux/slab.h **** #endif
  44:/mnt/c/Users/31740/Documents/codes/newcore-rp2350/include/linux/slab.h **** #ifdef CONFIG_MEMCG
  45:/mnt/c/Users/31740/Documents/codes/newcore-rp2350/include/linux/slab.h **** 	_SLAB_ACCOUNT,
  46:/mnt/c/Users/31740/Documents/codes/newcore-rp2350/include/linux/slab.h **** #endif
  47:/mnt/c/Users/31740/Documents/codes/newcore-rp2350/include/linux/slab.h **** #ifdef CONFIG_KASAN_GENERIC
  48:/mnt/c/Users/31740/Documents/codes/newcore-rp2350/include/linux/slab.h **** 	_SLAB_KASAN,
  49:/mnt/c/Users/31740/Documents/codes/newcore-rp2350/include/linux/slab.h **** #endif
  50:/mnt/c/Users/31740/Documents/codes/newcore-rp2350/include/linux/slab.h **** 	_SLAB_NO_USER_FLAGS,
  51:/mnt/c/Users/31740/Documents/codes/newcore-rp2350/include/linux/slab.h **** #ifdef CONFIG_KFENCE
  52:/mnt/c/Users/31740/Documents/codes/newcore-rp2350/include/linux/slab.h **** 	_SLAB_SKIP_KFENCE,
  53:/mnt/c/Users/31740/Documents/codes/newcore-rp2350/include/linux/slab.h **** #endif
  54:/mnt/c/Users/31740/Documents/codes/newcore-rp2350/include/linux/slab.h **** #ifndef CONFIG_SLUB_TINY
  55:/mnt/c/Users/31740/Documents/codes/newcore-rp2350/include/linux/slab.h **** 	_SLAB_RECLAIM_ACCOUNT,
  56:/mnt/c/Users/31740/Documents/codes/newcore-rp2350/include/linux/slab.h **** #endif
  57:/mnt/c/Users/31740/Documents/codes/newcore-rp2350/include/linux/slab.h **** 	_SLAB_OBJECT_POISON,
  58:/mnt/c/Users/31740/Documents/codes/newcore-rp2350/include/linux/slab.h **** 	_SLAB_CMPXCHG_DOUBLE,
  59:/mnt/c/Users/31740/Documents/codes/newcore-rp2350/include/linux/slab.h **** #ifdef CONFIG_SLAB_OBJ_EXT
  60:/mnt/c/Users/31740/Documents/codes/newcore-rp2350/include/linux/slab.h **** 	_SLAB_NO_OBJ_EXT,
  61:/mnt/c/Users/31740/Documents/codes/newcore-rp2350/include/linux/slab.h **** #endif
  62:/mnt/c/Users/31740/Documents/codes/newcore-rp2350/include/linux/slab.h **** 	_SLAB_FLAGS_LAST_BIT
  63:/mnt/c/Users/31740/Documents/codes/newcore-rp2350/include/linux/slab.h **** };
  64:/mnt/c/Users/31740/Documents/codes/newcore-rp2350/include/linux/slab.h **** 
  65:/mnt/c/Users/31740/Documents/codes/newcore-rp2350/include/linux/slab.h **** 
  66:/mnt/c/Users/31740/Documents/codes/newcore-rp2350/include/linux/slab.h **** 
  67:/mnt/c/Users/31740/Documents/codes/newcore-rp2350/include/linux/slab.h **** #define __SLAB_FLAG_BIT(nr)	((slab_flags_t __force)(1U << (nr)))
  68:/mnt/c/Users/31740/Documents/codes/newcore-rp2350/include/linux/slab.h **** #define __SLAB_FLAG_UNUSED	((slab_flags_t __force)(0U))
  69:/mnt/c/Users/31740/Documents/codes/newcore-rp2350/include/linux/slab.h **** 
  70:/mnt/c/Users/31740/Documents/codes/newcore-rp2350/include/linux/slab.h **** /*
ARM GAS  /tmp/ccehv4l2.s 			page 7


  71:/mnt/c/Users/31740/Documents/codes/newcore-rp2350/include/linux/slab.h ****  * Flags to pass to kmem_cache_create().
  72:/mnt/c/Users/31740/Documents/codes/newcore-rp2350/include/linux/slab.h ****  * The ones marked DEBUG need CONFIG_SLUB_DEBUG enabled, otherwise are no-op
  73:/mnt/c/Users/31740/Documents/codes/newcore-rp2350/include/linux/slab.h ****  */
  74:/mnt/c/Users/31740/Documents/codes/newcore-rp2350/include/linux/slab.h **** /* DEBUG: Perform (expensive) checks on alloc/free */
  75:/mnt/c/Users/31740/Documents/codes/newcore-rp2350/include/linux/slab.h **** #define SLAB_CONSISTENCY_CHECKS	__SLAB_FLAG_BIT(_SLAB_CONSISTENCY_CHECKS)
  76:/mnt/c/Users/31740/Documents/codes/newcore-rp2350/include/linux/slab.h **** /* DEBUG: Red zone objs in a cache */
  77:/mnt/c/Users/31740/Documents/codes/newcore-rp2350/include/linux/slab.h **** #define SLAB_RED_ZONE		__SLAB_FLAG_BIT(_SLAB_RED_ZONE)
  78:/mnt/c/Users/31740/Documents/codes/newcore-rp2350/include/linux/slab.h **** /* DEBUG: Poison objects */
  79:/mnt/c/Users/31740/Documents/codes/newcore-rp2350/include/linux/slab.h **** #define SLAB_POISON		__SLAB_FLAG_BIT(_SLAB_POISON)
  80:/mnt/c/Users/31740/Documents/codes/newcore-rp2350/include/linux/slab.h **** /* Indicate a kmalloc slab */
  81:/mnt/c/Users/31740/Documents/codes/newcore-rp2350/include/linux/slab.h **** #define SLAB_KMALLOC		__SLAB_FLAG_BIT(_SLAB_KMALLOC)
  82:/mnt/c/Users/31740/Documents/codes/newcore-rp2350/include/linux/slab.h **** /**
  83:/mnt/c/Users/31740/Documents/codes/newcore-rp2350/include/linux/slab.h ****  * define SLAB_HWCACHE_ALIGN - Align objects on cache line boundaries.
  84:/mnt/c/Users/31740/Documents/codes/newcore-rp2350/include/linux/slab.h ****  *
  85:/mnt/c/Users/31740/Documents/codes/newcore-rp2350/include/linux/slab.h ****  * Sufficiently large objects are aligned on cache line boundary. For object
  86:/mnt/c/Users/31740/Documents/codes/newcore-rp2350/include/linux/slab.h ****  * size smaller than a half of cache line size, the alignment is on the half of
  87:/mnt/c/Users/31740/Documents/codes/newcore-rp2350/include/linux/slab.h ****  * cache line size. In general, if object size is smaller than 1/2^n of cache
  88:/mnt/c/Users/31740/Documents/codes/newcore-rp2350/include/linux/slab.h ****  * line size, the alignment is adjusted to 1/2^n.
  89:/mnt/c/Users/31740/Documents/codes/newcore-rp2350/include/linux/slab.h ****  *
  90:/mnt/c/Users/31740/Documents/codes/newcore-rp2350/include/linux/slab.h ****  * If explicit alignment is also requested by the respective
  91:/mnt/c/Users/31740/Documents/codes/newcore-rp2350/include/linux/slab.h ****  * &struct kmem_cache_args field, the greater of both is alignments is applied.
  92:/mnt/c/Users/31740/Documents/codes/newcore-rp2350/include/linux/slab.h ****  */
  93:/mnt/c/Users/31740/Documents/codes/newcore-rp2350/include/linux/slab.h **** #define SLAB_HWCACHE_ALIGN	__SLAB_FLAG_BIT(_SLAB_HWCACHE_ALIGN)
  94:/mnt/c/Users/31740/Documents/codes/newcore-rp2350/include/linux/slab.h **** /* Use GFP_DMA memory */
  95:/mnt/c/Users/31740/Documents/codes/newcore-rp2350/include/linux/slab.h **** #define SLAB_CACHE_DMA		__SLAB_FLAG_BIT(_SLAB_CACHE_DMA)
  96:/mnt/c/Users/31740/Documents/codes/newcore-rp2350/include/linux/slab.h **** /* Use GFP_DMA32 memory */
  97:/mnt/c/Users/31740/Documents/codes/newcore-rp2350/include/linux/slab.h **** #define SLAB_CACHE_DMA32	__SLAB_FLAG_BIT(_SLAB_CACHE_DMA32)
  98:/mnt/c/Users/31740/Documents/codes/newcore-rp2350/include/linux/slab.h **** /* DEBUG: Store the last owner for bug hunting */
  99:/mnt/c/Users/31740/Documents/codes/newcore-rp2350/include/linux/slab.h **** #define SLAB_STORE_USER		__SLAB_FLAG_BIT(_SLAB_STORE_USER)
 100:/mnt/c/Users/31740/Documents/codes/newcore-rp2350/include/linux/slab.h **** /* Panic if kmem_cache_create() fails */
 101:/mnt/c/Users/31740/Documents/codes/newcore-rp2350/include/linux/slab.h **** #define SLAB_PANIC		__SLAB_FLAG_BIT(_SLAB_PANIC)
 102:/mnt/c/Users/31740/Documents/codes/newcore-rp2350/include/linux/slab.h **** /**
 103:/mnt/c/Users/31740/Documents/codes/newcore-rp2350/include/linux/slab.h ****  * define SLAB_TYPESAFE_BY_RCU - **WARNING** READ THIS!
 104:/mnt/c/Users/31740/Documents/codes/newcore-rp2350/include/linux/slab.h ****  *
 105:/mnt/c/Users/31740/Documents/codes/newcore-rp2350/include/linux/slab.h ****  * This delays freeing the SLAB page by a grace period, it does _NOT_
 106:/mnt/c/Users/31740/Documents/codes/newcore-rp2350/include/linux/slab.h ****  * delay object freeing. This means that if you do kmem_cache_free()
 107:/mnt/c/Users/31740/Documents/codes/newcore-rp2350/include/linux/slab.h ****  * that memory location is free to be reused at any time. Thus it may
 108:/mnt/c/Users/31740/Documents/codes/newcore-rp2350/include/linux/slab.h ****  * be possible to see another object there in the same RCU grace period.
 109:/mnt/c/Users/31740/Documents/codes/newcore-rp2350/include/linux/slab.h ****  *
 110:/mnt/c/Users/31740/Documents/codes/newcore-rp2350/include/linux/slab.h ****  * This feature only ensures the memory location backing the object
 111:/mnt/c/Users/31740/Documents/codes/newcore-rp2350/include/linux/slab.h ****  * stays valid, the trick to using this is relying on an independent
 112:/mnt/c/Users/31740/Documents/codes/newcore-rp2350/include/linux/slab.h ****  * object validation pass. Something like:
 113:/mnt/c/Users/31740/Documents/codes/newcore-rp2350/include/linux/slab.h ****  *
 114:/mnt/c/Users/31740/Documents/codes/newcore-rp2350/include/linux/slab.h ****  * ::
 115:/mnt/c/Users/31740/Documents/codes/newcore-rp2350/include/linux/slab.h ****  *
 116:/mnt/c/Users/31740/Documents/codes/newcore-rp2350/include/linux/slab.h ****  *  begin:
 117:/mnt/c/Users/31740/Documents/codes/newcore-rp2350/include/linux/slab.h ****  *   rcu_read_lock();
 118:/mnt/c/Users/31740/Documents/codes/newcore-rp2350/include/linux/slab.h ****  *   obj = lockless_lookup(key);
 119:/mnt/c/Users/31740/Documents/codes/newcore-rp2350/include/linux/slab.h ****  *   if (obj) {
 120:/mnt/c/Users/31740/Documents/codes/newcore-rp2350/include/linux/slab.h ****  *     if (!try_get_ref(obj)) // might fail for free objects
 121:/mnt/c/Users/31740/Documents/codes/newcore-rp2350/include/linux/slab.h ****  *       rcu_read_unlock();
 122:/mnt/c/Users/31740/Documents/codes/newcore-rp2350/include/linux/slab.h ****  *       goto begin;
 123:/mnt/c/Users/31740/Documents/codes/newcore-rp2350/include/linux/slab.h ****  *
 124:/mnt/c/Users/31740/Documents/codes/newcore-rp2350/include/linux/slab.h ****  *     if (obj->key != key) { // not the object we expected
 125:/mnt/c/Users/31740/Documents/codes/newcore-rp2350/include/linux/slab.h ****  *       put_ref(obj);
 126:/mnt/c/Users/31740/Documents/codes/newcore-rp2350/include/linux/slab.h ****  *       rcu_read_unlock();
 127:/mnt/c/Users/31740/Documents/codes/newcore-rp2350/include/linux/slab.h ****  *       goto begin;
ARM GAS  /tmp/ccehv4l2.s 			page 8


 128:/mnt/c/Users/31740/Documents/codes/newcore-rp2350/include/linux/slab.h ****  *     }
 129:/mnt/c/Users/31740/Documents/codes/newcore-rp2350/include/linux/slab.h ****  *   }
 130:/mnt/c/Users/31740/Documents/codes/newcore-rp2350/include/linux/slab.h ****  *  rcu_read_unlock();
 131:/mnt/c/Users/31740/Documents/codes/newcore-rp2350/include/linux/slab.h ****  *
 132:/mnt/c/Users/31740/Documents/codes/newcore-rp2350/include/linux/slab.h ****  * This is useful if we need to approach a kernel structure obliquely,
 133:/mnt/c/Users/31740/Documents/codes/newcore-rp2350/include/linux/slab.h ****  * from its address obtained without the usual locking. We can lock
 134:/mnt/c/Users/31740/Documents/codes/newcore-rp2350/include/linux/slab.h ****  * the structure to stabilize it and check it's still at the given address,
 135:/mnt/c/Users/31740/Documents/codes/newcore-rp2350/include/linux/slab.h ****  * only if we can be sure that the memory has not been meanwhile reused
 136:/mnt/c/Users/31740/Documents/codes/newcore-rp2350/include/linux/slab.h ****  * for some other kind of object (which our subsystem's lock might corrupt).
 137:/mnt/c/Users/31740/Documents/codes/newcore-rp2350/include/linux/slab.h ****  *
 138:/mnt/c/Users/31740/Documents/codes/newcore-rp2350/include/linux/slab.h ****  * rcu_read_lock before reading the address, then rcu_read_unlock after
 139:/mnt/c/Users/31740/Documents/codes/newcore-rp2350/include/linux/slab.h ****  * taking the spinlock within the structure expected at that address.
 140:/mnt/c/Users/31740/Documents/codes/newcore-rp2350/include/linux/slab.h ****  *
 141:/mnt/c/Users/31740/Documents/codes/newcore-rp2350/include/linux/slab.h ****  * Note that it is not possible to acquire a lock within a structure
 142:/mnt/c/Users/31740/Documents/codes/newcore-rp2350/include/linux/slab.h ****  * allocated with SLAB_TYPESAFE_BY_RCU without first acquiring a reference
 143:/mnt/c/Users/31740/Documents/codes/newcore-rp2350/include/linux/slab.h ****  * as described above.  The reason is that SLAB_TYPESAFE_BY_RCU pages
 144:/mnt/c/Users/31740/Documents/codes/newcore-rp2350/include/linux/slab.h ****  * are not zeroed before being given to the slab, which means that any
 145:/mnt/c/Users/31740/Documents/codes/newcore-rp2350/include/linux/slab.h ****  * locks must be initialized after each and every kmem_struct_alloc().
 146:/mnt/c/Users/31740/Documents/codes/newcore-rp2350/include/linux/slab.h ****  * Alternatively, make the ctor passed to kmem_cache_create() initialize
 147:/mnt/c/Users/31740/Documents/codes/newcore-rp2350/include/linux/slab.h ****  * the locks at page-allocation time, as is done in __i915_request_ctor(),
 148:/mnt/c/Users/31740/Documents/codes/newcore-rp2350/include/linux/slab.h ****  * sighand_ctor(), and anon_vma_ctor().  Such a ctor permits readers
 149:/mnt/c/Users/31740/Documents/codes/newcore-rp2350/include/linux/slab.h ****  * to safely acquire those ctor-initialized locks under rcu_read_lock()
 150:/mnt/c/Users/31740/Documents/codes/newcore-rp2350/include/linux/slab.h ****  * protection.
 151:/mnt/c/Users/31740/Documents/codes/newcore-rp2350/include/linux/slab.h ****  *
 152:/mnt/c/Users/31740/Documents/codes/newcore-rp2350/include/linux/slab.h ****  * Note that SLAB_TYPESAFE_BY_RCU was originally named SLAB_DESTROY_BY_RCU.
 153:/mnt/c/Users/31740/Documents/codes/newcore-rp2350/include/linux/slab.h ****  */
 154:/mnt/c/Users/31740/Documents/codes/newcore-rp2350/include/linux/slab.h **** #define SLAB_TYPESAFE_BY_RCU	__SLAB_FLAG_BIT(_SLAB_TYPESAFE_BY_RCU)
 155:/mnt/c/Users/31740/Documents/codes/newcore-rp2350/include/linux/slab.h **** /* Trace allocations and frees */
 156:/mnt/c/Users/31740/Documents/codes/newcore-rp2350/include/linux/slab.h **** #define SLAB_TRACE		__SLAB_FLAG_BIT(_SLAB_TRACE)
 157:/mnt/c/Users/31740/Documents/codes/newcore-rp2350/include/linux/slab.h **** 
 158:/mnt/c/Users/31740/Documents/codes/newcore-rp2350/include/linux/slab.h **** /* Flag to prevent checks on free */
 159:/mnt/c/Users/31740/Documents/codes/newcore-rp2350/include/linux/slab.h **** #ifdef CONFIG_DEBUG_OBJECTS
 160:/mnt/c/Users/31740/Documents/codes/newcore-rp2350/include/linux/slab.h **** # define SLAB_DEBUG_OBJECTS	__SLAB_FLAG_BIT(_SLAB_DEBUG_OBJECTS)
 161:/mnt/c/Users/31740/Documents/codes/newcore-rp2350/include/linux/slab.h **** #else
 162:/mnt/c/Users/31740/Documents/codes/newcore-rp2350/include/linux/slab.h **** # define SLAB_DEBUG_OBJECTS	__SLAB_FLAG_UNUSED
 163:/mnt/c/Users/31740/Documents/codes/newcore-rp2350/include/linux/slab.h **** #endif
 164:/mnt/c/Users/31740/Documents/codes/newcore-rp2350/include/linux/slab.h **** 
 165:/mnt/c/Users/31740/Documents/codes/newcore-rp2350/include/linux/slab.h **** /* Avoid kmemleak tracing */
 166:/mnt/c/Users/31740/Documents/codes/newcore-rp2350/include/linux/slab.h **** #define SLAB_NOLEAKTRACE	__SLAB_FLAG_BIT(_SLAB_NOLEAKTRACE)
 167:/mnt/c/Users/31740/Documents/codes/newcore-rp2350/include/linux/slab.h **** 
 168:/mnt/c/Users/31740/Documents/codes/newcore-rp2350/include/linux/slab.h **** /*
 169:/mnt/c/Users/31740/Documents/codes/newcore-rp2350/include/linux/slab.h ****  * Prevent merging with compatible kmem caches. This flag should be used
 170:/mnt/c/Users/31740/Documents/codes/newcore-rp2350/include/linux/slab.h ****  * cautiously. Valid use cases:
 171:/mnt/c/Users/31740/Documents/codes/newcore-rp2350/include/linux/slab.h ****  *
 172:/mnt/c/Users/31740/Documents/codes/newcore-rp2350/include/linux/slab.h ****  * - caches created for self-tests (e.g. kunit)
 173:/mnt/c/Users/31740/Documents/codes/newcore-rp2350/include/linux/slab.h ****  * - general caches created and used by a subsystem, only when a
 174:/mnt/c/Users/31740/Documents/codes/newcore-rp2350/include/linux/slab.h ****  *   (subsystem-specific) debug option is enabled
 175:/mnt/c/Users/31740/Documents/codes/newcore-rp2350/include/linux/slab.h ****  * - performance critical caches, should be very rare and consulted with slab
 176:/mnt/c/Users/31740/Documents/codes/newcore-rp2350/include/linux/slab.h ****  *   maintainers, and not used together with CONFIG_SLUB_TINY
 177:/mnt/c/Users/31740/Documents/codes/newcore-rp2350/include/linux/slab.h ****  */
 178:/mnt/c/Users/31740/Documents/codes/newcore-rp2350/include/linux/slab.h **** #define SLAB_NO_MERGE		__SLAB_FLAG_BIT(_SLAB_NO_MERGE)
 179:/mnt/c/Users/31740/Documents/codes/newcore-rp2350/include/linux/slab.h **** 
 180:/mnt/c/Users/31740/Documents/codes/newcore-rp2350/include/linux/slab.h **** /* Fault injection mark */
 181:/mnt/c/Users/31740/Documents/codes/newcore-rp2350/include/linux/slab.h **** #ifdef CONFIG_FAILSLAB
 182:/mnt/c/Users/31740/Documents/codes/newcore-rp2350/include/linux/slab.h **** # define SLAB_FAILSLAB		__SLAB_FLAG_BIT(_SLAB_FAILSLAB)
 183:/mnt/c/Users/31740/Documents/codes/newcore-rp2350/include/linux/slab.h **** #else
 184:/mnt/c/Users/31740/Documents/codes/newcore-rp2350/include/linux/slab.h **** # define SLAB_FAILSLAB		__SLAB_FLAG_UNUSED
ARM GAS  /tmp/ccehv4l2.s 			page 9


 185:/mnt/c/Users/31740/Documents/codes/newcore-rp2350/include/linux/slab.h **** #endif
 186:/mnt/c/Users/31740/Documents/codes/newcore-rp2350/include/linux/slab.h **** /**
 187:/mnt/c/Users/31740/Documents/codes/newcore-rp2350/include/linux/slab.h ****  * define SLAB_ACCOUNT - Account allocations to memcg.
 188:/mnt/c/Users/31740/Documents/codes/newcore-rp2350/include/linux/slab.h ****  *
 189:/mnt/c/Users/31740/Documents/codes/newcore-rp2350/include/linux/slab.h ****  * All object allocations from this cache will be memcg accounted, regardless of
 190:/mnt/c/Users/31740/Documents/codes/newcore-rp2350/include/linux/slab.h ****  * __GFP_ACCOUNT being or not being passed to individual allocations.
 191:/mnt/c/Users/31740/Documents/codes/newcore-rp2350/include/linux/slab.h ****  */
 192:/mnt/c/Users/31740/Documents/codes/newcore-rp2350/include/linux/slab.h **** #ifdef CONFIG_MEMCG
 193:/mnt/c/Users/31740/Documents/codes/newcore-rp2350/include/linux/slab.h **** # define SLAB_ACCOUNT		__SLAB_FLAG_BIT(_SLAB_ACCOUNT)
 194:/mnt/c/Users/31740/Documents/codes/newcore-rp2350/include/linux/slab.h **** #else
 195:/mnt/c/Users/31740/Documents/codes/newcore-rp2350/include/linux/slab.h **** # define SLAB_ACCOUNT		__SLAB_FLAG_UNUSED
 196:/mnt/c/Users/31740/Documents/codes/newcore-rp2350/include/linux/slab.h **** #endif
 197:/mnt/c/Users/31740/Documents/codes/newcore-rp2350/include/linux/slab.h **** 
 198:/mnt/c/Users/31740/Documents/codes/newcore-rp2350/include/linux/slab.h **** #ifdef CONFIG_KASAN_GENERIC
 199:/mnt/c/Users/31740/Documents/codes/newcore-rp2350/include/linux/slab.h **** #define SLAB_KASAN		__SLAB_FLAG_BIT(_SLAB_KASAN)
 200:/mnt/c/Users/31740/Documents/codes/newcore-rp2350/include/linux/slab.h **** #else
 201:/mnt/c/Users/31740/Documents/codes/newcore-rp2350/include/linux/slab.h **** #define SLAB_KASAN		__SLAB_FLAG_UNUSED
 202:/mnt/c/Users/31740/Documents/codes/newcore-rp2350/include/linux/slab.h **** #endif
 203:/mnt/c/Users/31740/Documents/codes/newcore-rp2350/include/linux/slab.h **** 
 204:/mnt/c/Users/31740/Documents/codes/newcore-rp2350/include/linux/slab.h **** /*
 205:/mnt/c/Users/31740/Documents/codes/newcore-rp2350/include/linux/slab.h ****  * Ignore user specified debugging flags.
 206:/mnt/c/Users/31740/Documents/codes/newcore-rp2350/include/linux/slab.h ****  * Intended for caches created for self-tests so they have only flags
 207:/mnt/c/Users/31740/Documents/codes/newcore-rp2350/include/linux/slab.h ****  * specified in the code and other flags are ignored.
 208:/mnt/c/Users/31740/Documents/codes/newcore-rp2350/include/linux/slab.h ****  */
 209:/mnt/c/Users/31740/Documents/codes/newcore-rp2350/include/linux/slab.h **** #define SLAB_NO_USER_FLAGS	__SLAB_FLAG_BIT(_SLAB_NO_USER_FLAGS)
 210:/mnt/c/Users/31740/Documents/codes/newcore-rp2350/include/linux/slab.h **** 
 211:/mnt/c/Users/31740/Documents/codes/newcore-rp2350/include/linux/slab.h **** #ifdef CONFIG_KFENCE
 212:/mnt/c/Users/31740/Documents/codes/newcore-rp2350/include/linux/slab.h **** #define SLAB_SKIP_KFENCE	__SLAB_FLAG_BIT(_SLAB_SKIP_KFENCE)
 213:/mnt/c/Users/31740/Documents/codes/newcore-rp2350/include/linux/slab.h **** #else
 214:/mnt/c/Users/31740/Documents/codes/newcore-rp2350/include/linux/slab.h **** #define SLAB_SKIP_KFENCE	__SLAB_FLAG_UNUSED
 215:/mnt/c/Users/31740/Documents/codes/newcore-rp2350/include/linux/slab.h **** #endif
 216:/mnt/c/Users/31740/Documents/codes/newcore-rp2350/include/linux/slab.h **** 
 217:/mnt/c/Users/31740/Documents/codes/newcore-rp2350/include/linux/slab.h **** /* The following flags affect the page allocator grouping pages by mobility */
 218:/mnt/c/Users/31740/Documents/codes/newcore-rp2350/include/linux/slab.h **** /**
 219:/mnt/c/Users/31740/Documents/codes/newcore-rp2350/include/linux/slab.h ****  * define SLAB_RECLAIM_ACCOUNT - Objects are reclaimable.
 220:/mnt/c/Users/31740/Documents/codes/newcore-rp2350/include/linux/slab.h ****  *
 221:/mnt/c/Users/31740/Documents/codes/newcore-rp2350/include/linux/slab.h ****  * Use this flag for caches that have an associated shrinker. As a result, slab
 222:/mnt/c/Users/31740/Documents/codes/newcore-rp2350/include/linux/slab.h ****  * pages are allocated with __GFP_RECLAIMABLE, which affects grouping pages by
 223:/mnt/c/Users/31740/Documents/codes/newcore-rp2350/include/linux/slab.h ****  * mobility, and are accounted in SReclaimable counter in /proc/meminfo
 224:/mnt/c/Users/31740/Documents/codes/newcore-rp2350/include/linux/slab.h ****  */
 225:/mnt/c/Users/31740/Documents/codes/newcore-rp2350/include/linux/slab.h **** #ifndef CONFIG_SLUB_TINY
 226:/mnt/c/Users/31740/Documents/codes/newcore-rp2350/include/linux/slab.h **** #define SLAB_RECLAIM_ACCOUNT	__SLAB_FLAG_BIT(_SLAB_RECLAIM_ACCOUNT)
 227:/mnt/c/Users/31740/Documents/codes/newcore-rp2350/include/linux/slab.h **** #else
 228:/mnt/c/Users/31740/Documents/codes/newcore-rp2350/include/linux/slab.h **** #define SLAB_RECLAIM_ACCOUNT	__SLAB_FLAG_UNUSED
 229:/mnt/c/Users/31740/Documents/codes/newcore-rp2350/include/linux/slab.h **** #endif
 230:/mnt/c/Users/31740/Documents/codes/newcore-rp2350/include/linux/slab.h **** #define SLAB_TEMPORARY		SLAB_RECLAIM_ACCOUNT	/* Objects are short-lived */
 231:/mnt/c/Users/31740/Documents/codes/newcore-rp2350/include/linux/slab.h **** 
 232:/mnt/c/Users/31740/Documents/codes/newcore-rp2350/include/linux/slab.h **** /* Slab created using create_boot_cache */
 233:/mnt/c/Users/31740/Documents/codes/newcore-rp2350/include/linux/slab.h **** #ifdef CONFIG_SLAB_OBJ_EXT
 234:/mnt/c/Users/31740/Documents/codes/newcore-rp2350/include/linux/slab.h **** #define SLAB_NO_OBJ_EXT		__SLAB_FLAG_BIT(_SLAB_NO_OBJ_EXT)
 235:/mnt/c/Users/31740/Documents/codes/newcore-rp2350/include/linux/slab.h **** #else
 236:/mnt/c/Users/31740/Documents/codes/newcore-rp2350/include/linux/slab.h **** #define SLAB_NO_OBJ_EXT		__SLAB_FLAG_UNUSED
 237:/mnt/c/Users/31740/Documents/codes/newcore-rp2350/include/linux/slab.h **** #endif
 238:/mnt/c/Users/31740/Documents/codes/newcore-rp2350/include/linux/slab.h **** 
 239:/mnt/c/Users/31740/Documents/codes/newcore-rp2350/include/linux/slab.h **** /*
 240:/mnt/c/Users/31740/Documents/codes/newcore-rp2350/include/linux/slab.h ****  * freeptr_t represents a SLUB freelist pointer, which might be encoded
 241:/mnt/c/Users/31740/Documents/codes/newcore-rp2350/include/linux/slab.h ****  * and not dereferenceable if CONFIG_SLAB_FREELIST_HARDENED is enabled.
ARM GAS  /tmp/ccehv4l2.s 			page 10


 242:/mnt/c/Users/31740/Documents/codes/newcore-rp2350/include/linux/slab.h ****  */
 243:/mnt/c/Users/31740/Documents/codes/newcore-rp2350/include/linux/slab.h **** typedef struct { unsigned long v; } freeptr_t;
 244:/mnt/c/Users/31740/Documents/codes/newcore-rp2350/include/linux/slab.h **** 
 245:/mnt/c/Users/31740/Documents/codes/newcore-rp2350/include/linux/slab.h **** /*
 246:/mnt/c/Users/31740/Documents/codes/newcore-rp2350/include/linux/slab.h ****  * ZERO_SIZE_PTR will be returned for zero sized kmalloc requests.
 247:/mnt/c/Users/31740/Documents/codes/newcore-rp2350/include/linux/slab.h ****  *
 248:/mnt/c/Users/31740/Documents/codes/newcore-rp2350/include/linux/slab.h ****  * Dereferencing ZERO_SIZE_PTR will lead to a distinct access fault.
 249:/mnt/c/Users/31740/Documents/codes/newcore-rp2350/include/linux/slab.h ****  *
 250:/mnt/c/Users/31740/Documents/codes/newcore-rp2350/include/linux/slab.h ****  * ZERO_SIZE_PTR can be passed to kfree though in the same way that NULL can.
 251:/mnt/c/Users/31740/Documents/codes/newcore-rp2350/include/linux/slab.h ****  * Both make kfree a no-op.
 252:/mnt/c/Users/31740/Documents/codes/newcore-rp2350/include/linux/slab.h ****  */
 253:/mnt/c/Users/31740/Documents/codes/newcore-rp2350/include/linux/slab.h **** #define ZERO_SIZE_PTR ((void *)16)
 254:/mnt/c/Users/31740/Documents/codes/newcore-rp2350/include/linux/slab.h **** 
 255:/mnt/c/Users/31740/Documents/codes/newcore-rp2350/include/linux/slab.h **** #define ZERO_OR_NULL_PTR(x) ((unsigned long)(x) <= \
 256:/mnt/c/Users/31740/Documents/codes/newcore-rp2350/include/linux/slab.h **** 				(unsigned long)ZERO_SIZE_PTR)
 257:/mnt/c/Users/31740/Documents/codes/newcore-rp2350/include/linux/slab.h **** 
 258:/mnt/c/Users/31740/Documents/codes/newcore-rp2350/include/linux/slab.h **** 
 259:/mnt/c/Users/31740/Documents/codes/newcore-rp2350/include/linux/slab.h **** 
 260:/mnt/c/Users/31740/Documents/codes/newcore-rp2350/include/linux/slab.h **** 
 261:/mnt/c/Users/31740/Documents/codes/newcore-rp2350/include/linux/slab.h **** 
 262:/mnt/c/Users/31740/Documents/codes/newcore-rp2350/include/linux/slab.h **** #ifdef CONFIG_SLUB_CPU_PARTIAL
 263:/mnt/c/Users/31740/Documents/codes/newcore-rp2350/include/linux/slab.h **** #define slub_percpu_partial(c)			((c)->partial)
 264:/mnt/c/Users/31740/Documents/codes/newcore-rp2350/include/linux/slab.h **** 
 265:/mnt/c/Users/31740/Documents/codes/newcore-rp2350/include/linux/slab.h **** #define slub_set_percpu_partial(c, p)		\
 266:/mnt/c/Users/31740/Documents/codes/newcore-rp2350/include/linux/slab.h **** ({						\
 267:/mnt/c/Users/31740/Documents/codes/newcore-rp2350/include/linux/slab.h **** 	slub_percpu_partial(c) = (p)->next;	\
 268:/mnt/c/Users/31740/Documents/codes/newcore-rp2350/include/linux/slab.h **** })
 269:/mnt/c/Users/31740/Documents/codes/newcore-rp2350/include/linux/slab.h **** 
 270:/mnt/c/Users/31740/Documents/codes/newcore-rp2350/include/linux/slab.h **** #define slub_percpu_partial_read_once(c)	READ_ONCE(slub_percpu_partial(c))
 271:/mnt/c/Users/31740/Documents/codes/newcore-rp2350/include/linux/slab.h **** #else
 272:/mnt/c/Users/31740/Documents/codes/newcore-rp2350/include/linux/slab.h **** #define slub_percpu_partial(c)			NULL
 273:/mnt/c/Users/31740/Documents/codes/newcore-rp2350/include/linux/slab.h **** 
 274:/mnt/c/Users/31740/Documents/codes/newcore-rp2350/include/linux/slab.h **** #define slub_set_percpu_partial(c, p)
 275:/mnt/c/Users/31740/Documents/codes/newcore-rp2350/include/linux/slab.h **** 
 276:/mnt/c/Users/31740/Documents/codes/newcore-rp2350/include/linux/slab.h **** #define slub_percpu_partial_read_once(c)	NULL
 277:/mnt/c/Users/31740/Documents/codes/newcore-rp2350/include/linux/slab.h **** 
 278:/mnt/c/Users/31740/Documents/codes/newcore-rp2350/include/linux/slab.h **** 
 279:/mnt/c/Users/31740/Documents/codes/newcore-rp2350/include/linux/slab.h **** #endif // CONFIG_SLUB_CPU_PARTIAL
 280:/mnt/c/Users/31740/Documents/codes/newcore-rp2350/include/linux/slab.h **** 
 281:/mnt/c/Users/31740/Documents/codes/newcore-rp2350/include/linux/slab.h **** /*
 282:/mnt/c/Users/31740/Documents/codes/newcore-rp2350/include/linux/slab.h **** 	* Word size structure that can be atomically updated or read and that
 283:/mnt/c/Users/31740/Documents/codes/newcore-rp2350/include/linux/slab.h **** 	* contains both the order and the number of objects that a slab of the
 284:/mnt/c/Users/31740/Documents/codes/newcore-rp2350/include/linux/slab.h **** 	* given order would contain.
 285:/mnt/c/Users/31740/Documents/codes/newcore-rp2350/include/linux/slab.h **** 	*/				
 286:/mnt/c/Users/31740/Documents/codes/newcore-rp2350/include/linux/slab.h **** struct kmem_cache_order_objects {
 287:/mnt/c/Users/31740/Documents/codes/newcore-rp2350/include/linux/slab.h **** 	unsigned int x;
 288:/mnt/c/Users/31740/Documents/codes/newcore-rp2350/include/linux/slab.h **** };
 289:/mnt/c/Users/31740/Documents/codes/newcore-rp2350/include/linux/slab.h **** 
 290:/mnt/c/Users/31740/Documents/codes/newcore-rp2350/include/linux/slab.h **** struct kmem_cache_node {
 291:/mnt/c/Users/31740/Documents/codes/newcore-rp2350/include/linux/slab.h **** 	spinlock_t list_lock;
 292:/mnt/c/Users/31740/Documents/codes/newcore-rp2350/include/linux/slab.h **** 	unsigned long nr_partial;
 293:/mnt/c/Users/31740/Documents/codes/newcore-rp2350/include/linux/slab.h **** 	struct list_head partial;
 294:/mnt/c/Users/31740/Documents/codes/newcore-rp2350/include/linux/slab.h **** #ifdef CONFIG_SLUB_DEBUG
 295:/mnt/c/Users/31740/Documents/codes/newcore-rp2350/include/linux/slab.h **** 	atomic_long_t nr_slabs;
 296:/mnt/c/Users/31740/Documents/codes/newcore-rp2350/include/linux/slab.h **** 	atomic_long_t total_objects;
 297:/mnt/c/Users/31740/Documents/codes/newcore-rp2350/include/linux/slab.h **** 	struct list_head full;
 298:/mnt/c/Users/31740/Documents/codes/newcore-rp2350/include/linux/slab.h **** #endif
ARM GAS  /tmp/ccehv4l2.s 			page 11


 299:/mnt/c/Users/31740/Documents/codes/newcore-rp2350/include/linux/slab.h **** };
 300:/mnt/c/Users/31740/Documents/codes/newcore-rp2350/include/linux/slab.h **** 
 301:/mnt/c/Users/31740/Documents/codes/newcore-rp2350/include/linux/slab.h **** struct kmem_cache {
 302:/mnt/c/Users/31740/Documents/codes/newcore-rp2350/include/linux/slab.h **** 	#ifndef CONFIG_SLUB_TINY
 303:/mnt/c/Users/31740/Documents/codes/newcore-rp2350/include/linux/slab.h **** 	//	struct kmem_cache_cpu __percpu *cpu_slab;
 304:/mnt/c/Users/31740/Documents/codes/newcore-rp2350/include/linux/slab.h **** 	#endif
 305:/mnt/c/Users/31740/Documents/codes/newcore-rp2350/include/linux/slab.h **** 		/* Used for retrieving partial slabs, etc. */
 306:/mnt/c/Users/31740/Documents/codes/newcore-rp2350/include/linux/slab.h **** 		slab_flags_t flags;
 307:/mnt/c/Users/31740/Documents/codes/newcore-rp2350/include/linux/slab.h **** 		unsigned long min_partial;
 308:/mnt/c/Users/31740/Documents/codes/newcore-rp2350/include/linux/slab.h **** 		unsigned int size;		/* Object size including metadata */
 309:/mnt/c/Users/31740/Documents/codes/newcore-rp2350/include/linux/slab.h **** 		unsigned int object_size;	/* Object size without metadata */
 310:/mnt/c/Users/31740/Documents/codes/newcore-rp2350/include/linux/slab.h **** 		struct reciprocal_value reciprocal_size;
 311:/mnt/c/Users/31740/Documents/codes/newcore-rp2350/include/linux/slab.h **** 		unsigned int offset;		/* Free pointer offset */
 312:/mnt/c/Users/31740/Documents/codes/newcore-rp2350/include/linux/slab.h **** 	#ifdef CONFIG_SLUB_CPU_PARTIAL
 313:/mnt/c/Users/31740/Documents/codes/newcore-rp2350/include/linux/slab.h **** 		/* Number of per cpu partial objects to keep around */
 314:/mnt/c/Users/31740/Documents/codes/newcore-rp2350/include/linux/slab.h **** 		unsigned int cpu_partial;
 315:/mnt/c/Users/31740/Documents/codes/newcore-rp2350/include/linux/slab.h **** 		/* Number of per cpu partial slabs to keep around */
 316:/mnt/c/Users/31740/Documents/codes/newcore-rp2350/include/linux/slab.h **** 		unsigned int cpu_partial_slabs;
 317:/mnt/c/Users/31740/Documents/codes/newcore-rp2350/include/linux/slab.h **** 	#endif
 318:/mnt/c/Users/31740/Documents/codes/newcore-rp2350/include/linux/slab.h **** 		struct kmem_cache_order_objects oo;
 319:/mnt/c/Users/31740/Documents/codes/newcore-rp2350/include/linux/slab.h **** 	
 320:/mnt/c/Users/31740/Documents/codes/newcore-rp2350/include/linux/slab.h **** 		/* Allocation and freeing of slabs */
 321:/mnt/c/Users/31740/Documents/codes/newcore-rp2350/include/linux/slab.h **** 		struct kmem_cache_order_objects min;
 322:/mnt/c/Users/31740/Documents/codes/newcore-rp2350/include/linux/slab.h **** 		gfp_t allocflags;		/* gfp flags to use on each alloc */
 323:/mnt/c/Users/31740/Documents/codes/newcore-rp2350/include/linux/slab.h **** 		int refcount;			/* Refcount for slab cache destroy */
 324:/mnt/c/Users/31740/Documents/codes/newcore-rp2350/include/linux/slab.h **** 		void (*ctor)(void *object);	/* Object constructor */
 325:/mnt/c/Users/31740/Documents/codes/newcore-rp2350/include/linux/slab.h **** 		unsigned int inuse;		/* Offset to metadata */
 326:/mnt/c/Users/31740/Documents/codes/newcore-rp2350/include/linux/slab.h **** 		unsigned int align;		/* Alignment */
 327:/mnt/c/Users/31740/Documents/codes/newcore-rp2350/include/linux/slab.h **** 		unsigned int red_left_pad;	/* Left redzone padding size */
 328:/mnt/c/Users/31740/Documents/codes/newcore-rp2350/include/linux/slab.h **** 		const char *name;		/* Name (only for display!) */
 329:/mnt/c/Users/31740/Documents/codes/newcore-rp2350/include/linux/slab.h **** 		struct list_head list;		/* List of slab caches */
 330:/mnt/c/Users/31740/Documents/codes/newcore-rp2350/include/linux/slab.h **** 	#ifdef CONFIG_SYSFS
 331:/mnt/c/Users/31740/Documents/codes/newcore-rp2350/include/linux/slab.h **** 		struct kobject kobj;		/* For sysfs */
 332:/mnt/c/Users/31740/Documents/codes/newcore-rp2350/include/linux/slab.h **** 	#endif
 333:/mnt/c/Users/31740/Documents/codes/newcore-rp2350/include/linux/slab.h **** 	#ifdef CONFIG_SLAB_FREELIST_HARDENED
 334:/mnt/c/Users/31740/Documents/codes/newcore-rp2350/include/linux/slab.h **** 		unsigned long random;
 335:/mnt/c/Users/31740/Documents/codes/newcore-rp2350/include/linux/slab.h **** 	#endif
 336:/mnt/c/Users/31740/Documents/codes/newcore-rp2350/include/linux/slab.h **** 	
 337:/mnt/c/Users/31740/Documents/codes/newcore-rp2350/include/linux/slab.h **** 	#ifdef CONFIG_NUMA
 338:/mnt/c/Users/31740/Documents/codes/newcore-rp2350/include/linux/slab.h **** 		/*
 339:/mnt/c/Users/31740/Documents/codes/newcore-rp2350/include/linux/slab.h **** 			* Defragmentation by allocating from a remote node.
 340:/mnt/c/Users/31740/Documents/codes/newcore-rp2350/include/linux/slab.h **** 			*/
 341:/mnt/c/Users/31740/Documents/codes/newcore-rp2350/include/linux/slab.h **** 		unsigned int remote_node_defrag_ratio;
 342:/mnt/c/Users/31740/Documents/codes/newcore-rp2350/include/linux/slab.h **** 	#endif
 343:/mnt/c/Users/31740/Documents/codes/newcore-rp2350/include/linux/slab.h **** 	
 344:/mnt/c/Users/31740/Documents/codes/newcore-rp2350/include/linux/slab.h **** 	#ifdef CONFIG_SLAB_FREELIST_RANDOM
 345:/mnt/c/Users/31740/Documents/codes/newcore-rp2350/include/linux/slab.h **** 		unsigned int *random_seq;
 346:/mnt/c/Users/31740/Documents/codes/newcore-rp2350/include/linux/slab.h **** 	#endif
 347:/mnt/c/Users/31740/Documents/codes/newcore-rp2350/include/linux/slab.h **** 	
 348:/mnt/c/Users/31740/Documents/codes/newcore-rp2350/include/linux/slab.h **** 	#ifdef CONFIG_KASAN_GENERIC
 349:/mnt/c/Users/31740/Documents/codes/newcore-rp2350/include/linux/slab.h **** 		struct kasan_cache kasan_info;
 350:/mnt/c/Users/31740/Documents/codes/newcore-rp2350/include/linux/slab.h **** 	#endif
 351:/mnt/c/Users/31740/Documents/codes/newcore-rp2350/include/linux/slab.h **** 	
 352:/mnt/c/Users/31740/Documents/codes/newcore-rp2350/include/linux/slab.h **** 	#ifdef CONFIG_HARDENED_USERCOPY
 353:/mnt/c/Users/31740/Documents/codes/newcore-rp2350/include/linux/slab.h **** 		unsigned int useroffset;	/* Usercopy region offset */
 354:/mnt/c/Users/31740/Documents/codes/newcore-rp2350/include/linux/slab.h **** 		unsigned int usersize;		/* Usercopy region size */
 355:/mnt/c/Users/31740/Documents/codes/newcore-rp2350/include/linux/slab.h **** 	#endif
ARM GAS  /tmp/ccehv4l2.s 			page 12


 356:/mnt/c/Users/31740/Documents/codes/newcore-rp2350/include/linux/slab.h **** 	
 357:/mnt/c/Users/31740/Documents/codes/newcore-rp2350/include/linux/slab.h **** 		struct kmem_cache_node *node[MAX_NUMNODES];
 358:/mnt/c/Users/31740/Documents/codes/newcore-rp2350/include/linux/slab.h **** 	};
 359:/mnt/c/Users/31740/Documents/codes/newcore-rp2350/include/linux/slab.h **** 					
 360:/mnt/c/Users/31740/Documents/codes/newcore-rp2350/include/linux/slab.h **** 
 361:/mnt/c/Users/31740/Documents/codes/newcore-rp2350/include/linux/slab.h **** 
 362:/mnt/c/Users/31740/Documents/codes/newcore-rp2350/include/linux/slab.h **** 
 363:/mnt/c/Users/31740/Documents/codes/newcore-rp2350/include/linux/slab.h **** 
 364:/mnt/c/Users/31740/Documents/codes/newcore-rp2350/include/linux/slab.h **** #define KMALLOC_WAIT 1
 365:/mnt/c/Users/31740/Documents/codes/newcore-rp2350/include/linux/slab.h **** 
 366:/mnt/c/Users/31740/Documents/codes/newcore-rp2350/include/linux/slab.h **** 
 367:/mnt/c/Users/31740/Documents/codes/newcore-rp2350/include/linux/slab.h **** extern void* __smalloc__(u32 size, gfp_t flags);
 368:/mnt/c/Users/31740/Documents/codes/newcore-rp2350/include/linux/slab.h **** extern void  __sfree__(void* addr);
 369:/mnt/c/Users/31740/Documents/codes/newcore-rp2350/include/linux/slab.h **** 
 370:/mnt/c/Users/31740/Documents/codes/newcore-rp2350/include/linux/slab.h **** 
 371:/mnt/c/Users/31740/Documents/codes/newcore-rp2350/include/linux/slab.h **** static void inline *vmalloc(unsigned long size){
 372:/mnt/c/Users/31740/Documents/codes/newcore-rp2350/include/linux/slab.h **** 	return __smalloc__(size,GFP_TRANSHUGE_LIGHT);
 373:/mnt/c/Users/31740/Documents/codes/newcore-rp2350/include/linux/slab.h **** }
 374:/mnt/c/Users/31740/Documents/codes/newcore-rp2350/include/linux/slab.h **** 
 375:/mnt/c/Users/31740/Documents/codes/newcore-rp2350/include/linux/slab.h **** static void inline vfree(void *addr){
 376:/mnt/c/Users/31740/Documents/codes/newcore-rp2350/include/linux/slab.h **** 	__sfree__(addr);
 377:/mnt/c/Users/31740/Documents/codes/newcore-rp2350/include/linux/slab.h **** }
 378:/mnt/c/Users/31740/Documents/codes/newcore-rp2350/include/linux/slab.h **** 
 379:/mnt/c/Users/31740/Documents/codes/newcore-rp2350/include/linux/slab.h **** static void inline *kmalloc(size_t size, gfp_t flags){
  74              		.loc 3 379 21 view .LVU7
  75              	.LBB68:
 380:/mnt/c/Users/31740/Documents/codes/newcore-rp2350/include/linux/slab.h **** 	return __smalloc__((u32)size,flags);
  76              		.loc 3 380 2 view .LVU8
  77              		.loc 3 380 9 is_stmt 0 view .LVU9
  78 0004 2020     		movs	r0, #32
  79              	.LVL4:
  80              		.loc 3 380 9 view .LVU10
  81 0006 FFF7FEFF 		bl	__smalloc__
  82              	.LVL5:
  83              		.loc 3 380 9 view .LVU11
  84              	.LBE68:
  85              	.LBE67:
 191:/mnt/c/Users/31740/Documents/codes/newcore-rp2350/include/linux/mm_type.h ****     if (page == NULL)
  86              		.loc 2 191 5 is_stmt 1 view .LVU12
  87              		.loc 2 191 8 is_stmt 0 view .LVU13
  88 000a 0346     		mov	r3, r0
  89 000c 20B1     		cbz	r0, .L3
 192:/mnt/c/Users/31740/Documents/codes/newcore-rp2350/include/linux/mm_type.h ****         return NULL;
 193:/mnt/c/Users/31740/Documents/codes/newcore-rp2350/include/linux/mm_type.h ****     page->flags = 0;
  90              		.loc 2 193 5 is_stmt 1 view .LVU14
  91              		.loc 2 193 17 is_stmt 0 view .LVU15
  92 000e 0022     		movs	r2, #0
  93 0010 0260     		str	r2, [r0]
 194:/mnt/c/Users/31740/Documents/codes/newcore-rp2350/include/linux/mm_type.h ****     atomic_set(&page->_mapcount, 0);
  94              		.loc 2 194 5 is_stmt 1 view .LVU16
  95              	.LVL6:
  96              	.LBB69:
  97              	.LBI69:
  98              		.file 4 "/mnt/c/Users/31740/Documents/codes/newcore-rp2350/include/linux/atomic/atomic-instrumente
   1:/mnt/c/Users/31740/Documents/codes/newcore-rp2350/include/linux/atomic/atomic-instrumented.h **** // SPDX-License-Identifier: GPL-2.0
   2:/mnt/c/Users/31740/Documents/codes/newcore-rp2350/include/linux/atomic/atomic-instrumented.h **** 
   3:/mnt/c/Users/31740/Documents/codes/newcore-rp2350/include/linux/atomic/atomic-instrumented.h **** // Generated by scripts/atomic/gen-atomic-instrumented.sh 
ARM GAS  /tmp/ccehv4l2.s 			page 13


   4:/mnt/c/Users/31740/Documents/codes/newcore-rp2350/include/linux/atomic/atomic-instrumented.h **** // DO NOT MODIFY THIS FILE DIRECTLY
   5:/mnt/c/Users/31740/Documents/codes/newcore-rp2350/include/linux/atomic/atomic-instrumented.h **** 
   6:/mnt/c/Users/31740/Documents/codes/newcore-rp2350/include/linux/atomic/atomic-instrumented.h **** /*
   7:/mnt/c/Users/31740/Documents/codes/newcore-rp2350/include/linux/atomic/atomic-instrumented.h ****  * This file provoides atomic operations with explicit instrumentation (e.g.
   8:/mnt/c/Users/31740/Documents/codes/newcore-rp2350/include/linux/atomic/atomic-instrumented.h ****  * KASAN, KCSAN), which should be used unless it is necessary to avoid
   9:/mnt/c/Users/31740/Documents/codes/newcore-rp2350/include/linux/atomic/atomic-instrumented.h ****  * instrumentation. Where it is necessary to aovid instrumenation, the
  10:/mnt/c/Users/31740/Documents/codes/newcore-rp2350/include/linux/atomic/atomic-instrumented.h ****  * raw_atomic*() operations should be used.
  11:/mnt/c/Users/31740/Documents/codes/newcore-rp2350/include/linux/atomic/atomic-instrumented.h ****  */
  12:/mnt/c/Users/31740/Documents/codes/newcore-rp2350/include/linux/atomic/atomic-instrumented.h **** #ifndef _LINUX_ATOMIC_INSTRUMENTED_H
  13:/mnt/c/Users/31740/Documents/codes/newcore-rp2350/include/linux/atomic/atomic-instrumented.h **** #define _LINUX_ATOMIC_INSTRUMENTED_H
  14:/mnt/c/Users/31740/Documents/codes/newcore-rp2350/include/linux/atomic/atomic-instrumented.h **** 
  15:/mnt/c/Users/31740/Documents/codes/newcore-rp2350/include/linux/atomic/atomic-instrumented.h **** #include <linux/build_bug.h>
  16:/mnt/c/Users/31740/Documents/codes/newcore-rp2350/include/linux/atomic/atomic-instrumented.h **** #include <linux/compiler.h>
  17:/mnt/c/Users/31740/Documents/codes/newcore-rp2350/include/linux/atomic/atomic-instrumented.h **** #include <linux/instrumented.h>
  18:/mnt/c/Users/31740/Documents/codes/newcore-rp2350/include/linux/atomic/atomic-instrumented.h **** 
  19:/mnt/c/Users/31740/Documents/codes/newcore-rp2350/include/linux/atomic/atomic-instrumented.h **** /**
  20:/mnt/c/Users/31740/Documents/codes/newcore-rp2350/include/linux/atomic/atomic-instrumented.h ****  * atomic_read() - atomic load with relaxed ordering
  21:/mnt/c/Users/31740/Documents/codes/newcore-rp2350/include/linux/atomic/atomic-instrumented.h ****  * @v: pointer to atomic_t
  22:/mnt/c/Users/31740/Documents/codes/newcore-rp2350/include/linux/atomic/atomic-instrumented.h ****  *
  23:/mnt/c/Users/31740/Documents/codes/newcore-rp2350/include/linux/atomic/atomic-instrumented.h ****  * Atomically loads the value of @v with relaxed ordering.
  24:/mnt/c/Users/31740/Documents/codes/newcore-rp2350/include/linux/atomic/atomic-instrumented.h ****  *
  25:/mnt/c/Users/31740/Documents/codes/newcore-rp2350/include/linux/atomic/atomic-instrumented.h ****  * Unsafe to use in noinstr code; use raw_atomic_read() there.
  26:/mnt/c/Users/31740/Documents/codes/newcore-rp2350/include/linux/atomic/atomic-instrumented.h ****  *
  27:/mnt/c/Users/31740/Documents/codes/newcore-rp2350/include/linux/atomic/atomic-instrumented.h ****  * Return: The value loaded from @v.
  28:/mnt/c/Users/31740/Documents/codes/newcore-rp2350/include/linux/atomic/atomic-instrumented.h ****  */
  29:/mnt/c/Users/31740/Documents/codes/newcore-rp2350/include/linux/atomic/atomic-instrumented.h **** static __always_inline int
  30:/mnt/c/Users/31740/Documents/codes/newcore-rp2350/include/linux/atomic/atomic-instrumented.h **** atomic_read(const atomic_t *v)
  31:/mnt/c/Users/31740/Documents/codes/newcore-rp2350/include/linux/atomic/atomic-instrumented.h **** {
  32:/mnt/c/Users/31740/Documents/codes/newcore-rp2350/include/linux/atomic/atomic-instrumented.h **** 	instrument_atomic_read(v, sizeof(*v));
  33:/mnt/c/Users/31740/Documents/codes/newcore-rp2350/include/linux/atomic/atomic-instrumented.h **** 	return raw_atomic_read(v);
  34:/mnt/c/Users/31740/Documents/codes/newcore-rp2350/include/linux/atomic/atomic-instrumented.h **** }
  35:/mnt/c/Users/31740/Documents/codes/newcore-rp2350/include/linux/atomic/atomic-instrumented.h **** 
  36:/mnt/c/Users/31740/Documents/codes/newcore-rp2350/include/linux/atomic/atomic-instrumented.h **** /**
  37:/mnt/c/Users/31740/Documents/codes/newcore-rp2350/include/linux/atomic/atomic-instrumented.h ****  * atomic_read_acquire() - atomic load with acquire ordering
  38:/mnt/c/Users/31740/Documents/codes/newcore-rp2350/include/linux/atomic/atomic-instrumented.h ****  * @v: pointer to atomic_t
  39:/mnt/c/Users/31740/Documents/codes/newcore-rp2350/include/linux/atomic/atomic-instrumented.h ****  *
  40:/mnt/c/Users/31740/Documents/codes/newcore-rp2350/include/linux/atomic/atomic-instrumented.h ****  * Atomically loads the value of @v with acquire ordering.
  41:/mnt/c/Users/31740/Documents/codes/newcore-rp2350/include/linux/atomic/atomic-instrumented.h ****  *
  42:/mnt/c/Users/31740/Documents/codes/newcore-rp2350/include/linux/atomic/atomic-instrumented.h ****  * Unsafe to use in noinstr code; use raw_atomic_read_acquire() there.
  43:/mnt/c/Users/31740/Documents/codes/newcore-rp2350/include/linux/atomic/atomic-instrumented.h ****  *
  44:/mnt/c/Users/31740/Documents/codes/newcore-rp2350/include/linux/atomic/atomic-instrumented.h ****  * Return: The value loaded from @v.
  45:/mnt/c/Users/31740/Documents/codes/newcore-rp2350/include/linux/atomic/atomic-instrumented.h ****  */
  46:/mnt/c/Users/31740/Documents/codes/newcore-rp2350/include/linux/atomic/atomic-instrumented.h **** static __always_inline int
  47:/mnt/c/Users/31740/Documents/codes/newcore-rp2350/include/linux/atomic/atomic-instrumented.h **** atomic_read_acquire(const atomic_t *v)
  48:/mnt/c/Users/31740/Documents/codes/newcore-rp2350/include/linux/atomic/atomic-instrumented.h **** {
  49:/mnt/c/Users/31740/Documents/codes/newcore-rp2350/include/linux/atomic/atomic-instrumented.h **** 	instrument_atomic_read(v, sizeof(*v));
  50:/mnt/c/Users/31740/Documents/codes/newcore-rp2350/include/linux/atomic/atomic-instrumented.h **** 	return raw_atomic_read_acquire(v);
  51:/mnt/c/Users/31740/Documents/codes/newcore-rp2350/include/linux/atomic/atomic-instrumented.h **** }
  52:/mnt/c/Users/31740/Documents/codes/newcore-rp2350/include/linux/atomic/atomic-instrumented.h **** 
  53:/mnt/c/Users/31740/Documents/codes/newcore-rp2350/include/linux/atomic/atomic-instrumented.h **** /**
  54:/mnt/c/Users/31740/Documents/codes/newcore-rp2350/include/linux/atomic/atomic-instrumented.h ****  * atomic_set() - atomic set with relaxed ordering
  55:/mnt/c/Users/31740/Documents/codes/newcore-rp2350/include/linux/atomic/atomic-instrumented.h ****  * @v: pointer to atomic_t
  56:/mnt/c/Users/31740/Documents/codes/newcore-rp2350/include/linux/atomic/atomic-instrumented.h ****  * @i: int value to assign
  57:/mnt/c/Users/31740/Documents/codes/newcore-rp2350/include/linux/atomic/atomic-instrumented.h ****  *
  58:/mnt/c/Users/31740/Documents/codes/newcore-rp2350/include/linux/atomic/atomic-instrumented.h ****  * Atomically sets @v to @i with relaxed ordering.
  59:/mnt/c/Users/31740/Documents/codes/newcore-rp2350/include/linux/atomic/atomic-instrumented.h ****  *
  60:/mnt/c/Users/31740/Documents/codes/newcore-rp2350/include/linux/atomic/atomic-instrumented.h ****  * Unsafe to use in noinstr code; use raw_atomic_set() there.
ARM GAS  /tmp/ccehv4l2.s 			page 14


  61:/mnt/c/Users/31740/Documents/codes/newcore-rp2350/include/linux/atomic/atomic-instrumented.h ****  *
  62:/mnt/c/Users/31740/Documents/codes/newcore-rp2350/include/linux/atomic/atomic-instrumented.h ****  * Return: Nothing.
  63:/mnt/c/Users/31740/Documents/codes/newcore-rp2350/include/linux/atomic/atomic-instrumented.h ****  */
  64:/mnt/c/Users/31740/Documents/codes/newcore-rp2350/include/linux/atomic/atomic-instrumented.h **** static __always_inline void
  65:/mnt/c/Users/31740/Documents/codes/newcore-rp2350/include/linux/atomic/atomic-instrumented.h **** atomic_set(atomic_t *v, int i)
  99              		.loc 4 65 1 view .LVU17
  66:/mnt/c/Users/31740/Documents/codes/newcore-rp2350/include/linux/atomic/atomic-instrumented.h **** {
  67:/mnt/c/Users/31740/Documents/codes/newcore-rp2350/include/linux/atomic/atomic-instrumented.h **** 	instrument_atomic_write(v, sizeof(*v));
 100              		.loc 4 67 2 view .LVU18
  68:/mnt/c/Users/31740/Documents/codes/newcore-rp2350/include/linux/atomic/atomic-instrumented.h **** 	raw_atomic_set(v, i);
 101              		.loc 4 68 2 view .LVU19
 102              	.LBB70:
 103              	.LBI70:
 104              		.file 5 "/mnt/c/Users/31740/Documents/codes/newcore-rp2350/include/linux/atomic/atomic-arch-fallba
   1:/mnt/c/Users/31740/Documents/codes/newcore-rp2350/include/linux/atomic/atomic-arch-fallback.h **** // SPDX-License-Identifier: GPL-2.0
   2:/mnt/c/Users/31740/Documents/codes/newcore-rp2350/include/linux/atomic/atomic-arch-fallback.h **** 
   3:/mnt/c/Users/31740/Documents/codes/newcore-rp2350/include/linux/atomic/atomic-arch-fallback.h **** // Generated by scripts/atomic/gen-atomic-fallback.sh
   4:/mnt/c/Users/31740/Documents/codes/newcore-rp2350/include/linux/atomic/atomic-arch-fallback.h **** // DO NOT MODIFY THIS FILE DIRECTLY
   5:/mnt/c/Users/31740/Documents/codes/newcore-rp2350/include/linux/atomic/atomic-arch-fallback.h **** 
   6:/mnt/c/Users/31740/Documents/codes/newcore-rp2350/include/linux/atomic/atomic-arch-fallback.h **** #ifndef _LINUX_ATOMIC_FALLBACK_H
   7:/mnt/c/Users/31740/Documents/codes/newcore-rp2350/include/linux/atomic/atomic-arch-fallback.h **** #define _LINUX_ATOMIC_FALLBACK_H
   8:/mnt/c/Users/31740/Documents/codes/newcore-rp2350/include/linux/atomic/atomic-arch-fallback.h **** 
   9:/mnt/c/Users/31740/Documents/codes/newcore-rp2350/include/linux/atomic/atomic-arch-fallback.h **** #include <linux/compiler.h>
  10:/mnt/c/Users/31740/Documents/codes/newcore-rp2350/include/linux/atomic/atomic-arch-fallback.h **** 
  11:/mnt/c/Users/31740/Documents/codes/newcore-rp2350/include/linux/atomic/atomic-arch-fallback.h **** #if defined(arch_xchg)
  12:/mnt/c/Users/31740/Documents/codes/newcore-rp2350/include/linux/atomic/atomic-arch-fallback.h **** #define raw_xchg arch_xchg
  13:/mnt/c/Users/31740/Documents/codes/newcore-rp2350/include/linux/atomic/atomic-arch-fallback.h **** #elif defined(arch_xchg_relaxed)
  14:/mnt/c/Users/31740/Documents/codes/newcore-rp2350/include/linux/atomic/atomic-arch-fallback.h **** #define raw_xchg(...) \
  15:/mnt/c/Users/31740/Documents/codes/newcore-rp2350/include/linux/atomic/atomic-arch-fallback.h **** 	__atomic_op_fence(arch_xchg, __VA_ARGS__)
  16:/mnt/c/Users/31740/Documents/codes/newcore-rp2350/include/linux/atomic/atomic-arch-fallback.h **** #else
  17:/mnt/c/Users/31740/Documents/codes/newcore-rp2350/include/linux/atomic/atomic-arch-fallback.h **** extern void raw_xchg_not_implemented(void);
  18:/mnt/c/Users/31740/Documents/codes/newcore-rp2350/include/linux/atomic/atomic-arch-fallback.h **** #define raw_xchg(...) raw_xchg_not_implemented()
  19:/mnt/c/Users/31740/Documents/codes/newcore-rp2350/include/linux/atomic/atomic-arch-fallback.h **** #endif
  20:/mnt/c/Users/31740/Documents/codes/newcore-rp2350/include/linux/atomic/atomic-arch-fallback.h **** 
  21:/mnt/c/Users/31740/Documents/codes/newcore-rp2350/include/linux/atomic/atomic-arch-fallback.h **** #if defined(arch_xchg_acquire)
  22:/mnt/c/Users/31740/Documents/codes/newcore-rp2350/include/linux/atomic/atomic-arch-fallback.h **** #define raw_xchg_acquire arch_xchg_acquire
  23:/mnt/c/Users/31740/Documents/codes/newcore-rp2350/include/linux/atomic/atomic-arch-fallback.h **** #elif defined(arch_xchg_relaxed)
  24:/mnt/c/Users/31740/Documents/codes/newcore-rp2350/include/linux/atomic/atomic-arch-fallback.h **** #define raw_xchg_acquire(...) \
  25:/mnt/c/Users/31740/Documents/codes/newcore-rp2350/include/linux/atomic/atomic-arch-fallback.h **** 	__atomic_op_acquire(arch_xchg, __VA_ARGS__)
  26:/mnt/c/Users/31740/Documents/codes/newcore-rp2350/include/linux/atomic/atomic-arch-fallback.h **** #elif defined(arch_xchg)
  27:/mnt/c/Users/31740/Documents/codes/newcore-rp2350/include/linux/atomic/atomic-arch-fallback.h **** #define raw_xchg_acquire arch_xchg
  28:/mnt/c/Users/31740/Documents/codes/newcore-rp2350/include/linux/atomic/atomic-arch-fallback.h **** #else
  29:/mnt/c/Users/31740/Documents/codes/newcore-rp2350/include/linux/atomic/atomic-arch-fallback.h **** extern void raw_xchg_acquire_not_implemented(void);
  30:/mnt/c/Users/31740/Documents/codes/newcore-rp2350/include/linux/atomic/atomic-arch-fallback.h **** #define raw_xchg_acquire(...) raw_xchg_acquire_not_implemented()
  31:/mnt/c/Users/31740/Documents/codes/newcore-rp2350/include/linux/atomic/atomic-arch-fallback.h **** #endif
  32:/mnt/c/Users/31740/Documents/codes/newcore-rp2350/include/linux/atomic/atomic-arch-fallback.h **** 
  33:/mnt/c/Users/31740/Documents/codes/newcore-rp2350/include/linux/atomic/atomic-arch-fallback.h **** #if defined(arch_xchg_release)
  34:/mnt/c/Users/31740/Documents/codes/newcore-rp2350/include/linux/atomic/atomic-arch-fallback.h **** #define raw_xchg_release arch_xchg_release
  35:/mnt/c/Users/31740/Documents/codes/newcore-rp2350/include/linux/atomic/atomic-arch-fallback.h **** #elif defined(arch_xchg_relaxed)
  36:/mnt/c/Users/31740/Documents/codes/newcore-rp2350/include/linux/atomic/atomic-arch-fallback.h **** #define raw_xchg_release(...) \
  37:/mnt/c/Users/31740/Documents/codes/newcore-rp2350/include/linux/atomic/atomic-arch-fallback.h **** 	__atomic_op_release(arch_xchg, __VA_ARGS__)
  38:/mnt/c/Users/31740/Documents/codes/newcore-rp2350/include/linux/atomic/atomic-arch-fallback.h **** #elif defined(arch_xchg)
  39:/mnt/c/Users/31740/Documents/codes/newcore-rp2350/include/linux/atomic/atomic-arch-fallback.h **** #define raw_xchg_release arch_xchg
  40:/mnt/c/Users/31740/Documents/codes/newcore-rp2350/include/linux/atomic/atomic-arch-fallback.h **** #else
  41:/mnt/c/Users/31740/Documents/codes/newcore-rp2350/include/linux/atomic/atomic-arch-fallback.h **** extern void raw_xchg_release_not_implemented(void);
  42:/mnt/c/Users/31740/Documents/codes/newcore-rp2350/include/linux/atomic/atomic-arch-fallback.h **** #define raw_xchg_release(...) raw_xchg_release_not_implemented()
  43:/mnt/c/Users/31740/Documents/codes/newcore-rp2350/include/linux/atomic/atomic-arch-fallback.h **** #endif
ARM GAS  /tmp/ccehv4l2.s 			page 15


  44:/mnt/c/Users/31740/Documents/codes/newcore-rp2350/include/linux/atomic/atomic-arch-fallback.h **** 
  45:/mnt/c/Users/31740/Documents/codes/newcore-rp2350/include/linux/atomic/atomic-arch-fallback.h **** #if defined(arch_xchg_relaxed)
  46:/mnt/c/Users/31740/Documents/codes/newcore-rp2350/include/linux/atomic/atomic-arch-fallback.h **** #define raw_xchg_relaxed arch_xchg_relaxed
  47:/mnt/c/Users/31740/Documents/codes/newcore-rp2350/include/linux/atomic/atomic-arch-fallback.h **** #elif defined(arch_xchg)
  48:/mnt/c/Users/31740/Documents/codes/newcore-rp2350/include/linux/atomic/atomic-arch-fallback.h **** #define raw_xchg_relaxed arch_xchg
  49:/mnt/c/Users/31740/Documents/codes/newcore-rp2350/include/linux/atomic/atomic-arch-fallback.h **** #else
  50:/mnt/c/Users/31740/Documents/codes/newcore-rp2350/include/linux/atomic/atomic-arch-fallback.h **** extern void raw_xchg_relaxed_not_implemented(void);
  51:/mnt/c/Users/31740/Documents/codes/newcore-rp2350/include/linux/atomic/atomic-arch-fallback.h **** #define raw_xchg_relaxed(...) raw_xchg_relaxed_not_implemented()
  52:/mnt/c/Users/31740/Documents/codes/newcore-rp2350/include/linux/atomic/atomic-arch-fallback.h **** #endif
  53:/mnt/c/Users/31740/Documents/codes/newcore-rp2350/include/linux/atomic/atomic-arch-fallback.h **** 
  54:/mnt/c/Users/31740/Documents/codes/newcore-rp2350/include/linux/atomic/atomic-arch-fallback.h **** #if defined(arch_cmpxchg)
  55:/mnt/c/Users/31740/Documents/codes/newcore-rp2350/include/linux/atomic/atomic-arch-fallback.h **** #define raw_cmpxchg arch_cmpxchg
  56:/mnt/c/Users/31740/Documents/codes/newcore-rp2350/include/linux/atomic/atomic-arch-fallback.h **** #elif defined(arch_cmpxchg_relaxed)
  57:/mnt/c/Users/31740/Documents/codes/newcore-rp2350/include/linux/atomic/atomic-arch-fallback.h **** #define raw_cmpxchg(...) \
  58:/mnt/c/Users/31740/Documents/codes/newcore-rp2350/include/linux/atomic/atomic-arch-fallback.h **** 	__atomic_op_fence(arch_cmpxchg, __VA_ARGS__)
  59:/mnt/c/Users/31740/Documents/codes/newcore-rp2350/include/linux/atomic/atomic-arch-fallback.h **** #else
  60:/mnt/c/Users/31740/Documents/codes/newcore-rp2350/include/linux/atomic/atomic-arch-fallback.h **** extern void raw_cmpxchg_not_implemented(void);
  61:/mnt/c/Users/31740/Documents/codes/newcore-rp2350/include/linux/atomic/atomic-arch-fallback.h **** #define raw_cmpxchg(...) raw_cmpxchg_not_implemented()
  62:/mnt/c/Users/31740/Documents/codes/newcore-rp2350/include/linux/atomic/atomic-arch-fallback.h **** #endif
  63:/mnt/c/Users/31740/Documents/codes/newcore-rp2350/include/linux/atomic/atomic-arch-fallback.h **** 
  64:/mnt/c/Users/31740/Documents/codes/newcore-rp2350/include/linux/atomic/atomic-arch-fallback.h **** #if defined(arch_cmpxchg_acquire)
  65:/mnt/c/Users/31740/Documents/codes/newcore-rp2350/include/linux/atomic/atomic-arch-fallback.h **** #define raw_cmpxchg_acquire arch_cmpxchg_acquire
  66:/mnt/c/Users/31740/Documents/codes/newcore-rp2350/include/linux/atomic/atomic-arch-fallback.h **** #elif defined(arch_cmpxchg_relaxed)
  67:/mnt/c/Users/31740/Documents/codes/newcore-rp2350/include/linux/atomic/atomic-arch-fallback.h **** #define raw_cmpxchg_acquire(...) \
  68:/mnt/c/Users/31740/Documents/codes/newcore-rp2350/include/linux/atomic/atomic-arch-fallback.h **** 	__atomic_op_acquire(arch_cmpxchg, __VA_ARGS__)
  69:/mnt/c/Users/31740/Documents/codes/newcore-rp2350/include/linux/atomic/atomic-arch-fallback.h **** #elif defined(arch_cmpxchg)
  70:/mnt/c/Users/31740/Documents/codes/newcore-rp2350/include/linux/atomic/atomic-arch-fallback.h **** #define raw_cmpxchg_acquire arch_cmpxchg
  71:/mnt/c/Users/31740/Documents/codes/newcore-rp2350/include/linux/atomic/atomic-arch-fallback.h **** #else
  72:/mnt/c/Users/31740/Documents/codes/newcore-rp2350/include/linux/atomic/atomic-arch-fallback.h **** extern void raw_cmpxchg_acquire_not_implemented(void);
  73:/mnt/c/Users/31740/Documents/codes/newcore-rp2350/include/linux/atomic/atomic-arch-fallback.h **** #define raw_cmpxchg_acquire(...) raw_cmpxchg_acquire_not_implemented()
  74:/mnt/c/Users/31740/Documents/codes/newcore-rp2350/include/linux/atomic/atomic-arch-fallback.h **** #endif
  75:/mnt/c/Users/31740/Documents/codes/newcore-rp2350/include/linux/atomic/atomic-arch-fallback.h **** 
  76:/mnt/c/Users/31740/Documents/codes/newcore-rp2350/include/linux/atomic/atomic-arch-fallback.h **** #if defined(arch_cmpxchg_release)
  77:/mnt/c/Users/31740/Documents/codes/newcore-rp2350/include/linux/atomic/atomic-arch-fallback.h **** #define raw_cmpxchg_release arch_cmpxchg_release
  78:/mnt/c/Users/31740/Documents/codes/newcore-rp2350/include/linux/atomic/atomic-arch-fallback.h **** #elif defined(arch_cmpxchg_relaxed)
  79:/mnt/c/Users/31740/Documents/codes/newcore-rp2350/include/linux/atomic/atomic-arch-fallback.h **** #define raw_cmpxchg_release(...) \
  80:/mnt/c/Users/31740/Documents/codes/newcore-rp2350/include/linux/atomic/atomic-arch-fallback.h **** 	__atomic_op_release(arch_cmpxchg, __VA_ARGS__)
  81:/mnt/c/Users/31740/Documents/codes/newcore-rp2350/include/linux/atomic/atomic-arch-fallback.h **** #elif defined(arch_cmpxchg)
  82:/mnt/c/Users/31740/Documents/codes/newcore-rp2350/include/linux/atomic/atomic-arch-fallback.h **** #define raw_cmpxchg_release arch_cmpxchg
  83:/mnt/c/Users/31740/Documents/codes/newcore-rp2350/include/linux/atomic/atomic-arch-fallback.h **** #else
  84:/mnt/c/Users/31740/Documents/codes/newcore-rp2350/include/linux/atomic/atomic-arch-fallback.h **** extern void raw_cmpxchg_release_not_implemented(void);
  85:/mnt/c/Users/31740/Documents/codes/newcore-rp2350/include/linux/atomic/atomic-arch-fallback.h **** #define raw_cmpxchg_release(...) raw_cmpxchg_release_not_implemented()
  86:/mnt/c/Users/31740/Documents/codes/newcore-rp2350/include/linux/atomic/atomic-arch-fallback.h **** #endif
  87:/mnt/c/Users/31740/Documents/codes/newcore-rp2350/include/linux/atomic/atomic-arch-fallback.h **** 
  88:/mnt/c/Users/31740/Documents/codes/newcore-rp2350/include/linux/atomic/atomic-arch-fallback.h **** #if defined(arch_cmpxchg_relaxed)
  89:/mnt/c/Users/31740/Documents/codes/newcore-rp2350/include/linux/atomic/atomic-arch-fallback.h **** #define raw_cmpxchg_relaxed arch_cmpxchg_relaxed
  90:/mnt/c/Users/31740/Documents/codes/newcore-rp2350/include/linux/atomic/atomic-arch-fallback.h **** #elif defined(arch_cmpxchg)
  91:/mnt/c/Users/31740/Documents/codes/newcore-rp2350/include/linux/atomic/atomic-arch-fallback.h **** #define raw_cmpxchg_relaxed arch_cmpxchg
  92:/mnt/c/Users/31740/Documents/codes/newcore-rp2350/include/linux/atomic/atomic-arch-fallback.h **** #else
  93:/mnt/c/Users/31740/Documents/codes/newcore-rp2350/include/linux/atomic/atomic-arch-fallback.h **** extern void raw_cmpxchg_relaxed_not_implemented(void);
  94:/mnt/c/Users/31740/Documents/codes/newcore-rp2350/include/linux/atomic/atomic-arch-fallback.h **** #define raw_cmpxchg_relaxed(...) raw_cmpxchg_relaxed_not_implemented()
  95:/mnt/c/Users/31740/Documents/codes/newcore-rp2350/include/linux/atomic/atomic-arch-fallback.h **** #endif
  96:/mnt/c/Users/31740/Documents/codes/newcore-rp2350/include/linux/atomic/atomic-arch-fallback.h **** 
  97:/mnt/c/Users/31740/Documents/codes/newcore-rp2350/include/linux/atomic/atomic-arch-fallback.h **** #if defined(arch_cmpxchg64)
  98:/mnt/c/Users/31740/Documents/codes/newcore-rp2350/include/linux/atomic/atomic-arch-fallback.h **** #define raw_cmpxchg64 arch_cmpxchg64
  99:/mnt/c/Users/31740/Documents/codes/newcore-rp2350/include/linux/atomic/atomic-arch-fallback.h **** #elif defined(arch_cmpxchg64_relaxed)
 100:/mnt/c/Users/31740/Documents/codes/newcore-rp2350/include/linux/atomic/atomic-arch-fallback.h **** #define raw_cmpxchg64(...) \
ARM GAS  /tmp/ccehv4l2.s 			page 16


 101:/mnt/c/Users/31740/Documents/codes/newcore-rp2350/include/linux/atomic/atomic-arch-fallback.h **** 	__atomic_op_fence(arch_cmpxchg64, __VA_ARGS__)
 102:/mnt/c/Users/31740/Documents/codes/newcore-rp2350/include/linux/atomic/atomic-arch-fallback.h **** #else
 103:/mnt/c/Users/31740/Documents/codes/newcore-rp2350/include/linux/atomic/atomic-arch-fallback.h **** extern void raw_cmpxchg64_not_implemented(void);
 104:/mnt/c/Users/31740/Documents/codes/newcore-rp2350/include/linux/atomic/atomic-arch-fallback.h **** #define raw_cmpxchg64(...) raw_cmpxchg64_not_implemented()
 105:/mnt/c/Users/31740/Documents/codes/newcore-rp2350/include/linux/atomic/atomic-arch-fallback.h **** #endif
 106:/mnt/c/Users/31740/Documents/codes/newcore-rp2350/include/linux/atomic/atomic-arch-fallback.h **** 
 107:/mnt/c/Users/31740/Documents/codes/newcore-rp2350/include/linux/atomic/atomic-arch-fallback.h **** #if defined(arch_cmpxchg64_acquire)
 108:/mnt/c/Users/31740/Documents/codes/newcore-rp2350/include/linux/atomic/atomic-arch-fallback.h **** #define raw_cmpxchg64_acquire arch_cmpxchg64_acquire
 109:/mnt/c/Users/31740/Documents/codes/newcore-rp2350/include/linux/atomic/atomic-arch-fallback.h **** #elif defined(arch_cmpxchg64_relaxed)
 110:/mnt/c/Users/31740/Documents/codes/newcore-rp2350/include/linux/atomic/atomic-arch-fallback.h **** #define raw_cmpxchg64_acquire(...) \
 111:/mnt/c/Users/31740/Documents/codes/newcore-rp2350/include/linux/atomic/atomic-arch-fallback.h **** 	__atomic_op_acquire(arch_cmpxchg64, __VA_ARGS__)
 112:/mnt/c/Users/31740/Documents/codes/newcore-rp2350/include/linux/atomic/atomic-arch-fallback.h **** #elif defined(arch_cmpxchg64)
 113:/mnt/c/Users/31740/Documents/codes/newcore-rp2350/include/linux/atomic/atomic-arch-fallback.h **** #define raw_cmpxchg64_acquire arch_cmpxchg64
 114:/mnt/c/Users/31740/Documents/codes/newcore-rp2350/include/linux/atomic/atomic-arch-fallback.h **** #else
 115:/mnt/c/Users/31740/Documents/codes/newcore-rp2350/include/linux/atomic/atomic-arch-fallback.h **** extern void raw_cmpxchg64_acquire_not_implemented(void);
 116:/mnt/c/Users/31740/Documents/codes/newcore-rp2350/include/linux/atomic/atomic-arch-fallback.h **** #define raw_cmpxchg64_acquire(...) raw_cmpxchg64_acquire_not_implemented()
 117:/mnt/c/Users/31740/Documents/codes/newcore-rp2350/include/linux/atomic/atomic-arch-fallback.h **** #endif
 118:/mnt/c/Users/31740/Documents/codes/newcore-rp2350/include/linux/atomic/atomic-arch-fallback.h **** 
 119:/mnt/c/Users/31740/Documents/codes/newcore-rp2350/include/linux/atomic/atomic-arch-fallback.h **** #if defined(arch_cmpxchg64_release)
 120:/mnt/c/Users/31740/Documents/codes/newcore-rp2350/include/linux/atomic/atomic-arch-fallback.h **** #define raw_cmpxchg64_release arch_cmpxchg64_release
 121:/mnt/c/Users/31740/Documents/codes/newcore-rp2350/include/linux/atomic/atomic-arch-fallback.h **** #elif defined(arch_cmpxchg64_relaxed)
 122:/mnt/c/Users/31740/Documents/codes/newcore-rp2350/include/linux/atomic/atomic-arch-fallback.h **** #define raw_cmpxchg64_release(...) \
 123:/mnt/c/Users/31740/Documents/codes/newcore-rp2350/include/linux/atomic/atomic-arch-fallback.h **** 	__atomic_op_release(arch_cmpxchg64, __VA_ARGS__)
 124:/mnt/c/Users/31740/Documents/codes/newcore-rp2350/include/linux/atomic/atomic-arch-fallback.h **** #elif defined(arch_cmpxchg64)
 125:/mnt/c/Users/31740/Documents/codes/newcore-rp2350/include/linux/atomic/atomic-arch-fallback.h **** #define raw_cmpxchg64_release arch_cmpxchg64
 126:/mnt/c/Users/31740/Documents/codes/newcore-rp2350/include/linux/atomic/atomic-arch-fallback.h **** #else
 127:/mnt/c/Users/31740/Documents/codes/newcore-rp2350/include/linux/atomic/atomic-arch-fallback.h **** extern void raw_cmpxchg64_release_not_implemented(void);
 128:/mnt/c/Users/31740/Documents/codes/newcore-rp2350/include/linux/atomic/atomic-arch-fallback.h **** #define raw_cmpxchg64_release(...) raw_cmpxchg64_release_not_implemented()
 129:/mnt/c/Users/31740/Documents/codes/newcore-rp2350/include/linux/atomic/atomic-arch-fallback.h **** #endif
 130:/mnt/c/Users/31740/Documents/codes/newcore-rp2350/include/linux/atomic/atomic-arch-fallback.h **** 
 131:/mnt/c/Users/31740/Documents/codes/newcore-rp2350/include/linux/atomic/atomic-arch-fallback.h **** #if defined(arch_cmpxchg64_relaxed)
 132:/mnt/c/Users/31740/Documents/codes/newcore-rp2350/include/linux/atomic/atomic-arch-fallback.h **** #define raw_cmpxchg64_relaxed arch_cmpxchg64_relaxed
 133:/mnt/c/Users/31740/Documents/codes/newcore-rp2350/include/linux/atomic/atomic-arch-fallback.h **** #elif defined(arch_cmpxchg64)
 134:/mnt/c/Users/31740/Documents/codes/newcore-rp2350/include/linux/atomic/atomic-arch-fallback.h **** #define raw_cmpxchg64_relaxed arch_cmpxchg64
 135:/mnt/c/Users/31740/Documents/codes/newcore-rp2350/include/linux/atomic/atomic-arch-fallback.h **** #else
 136:/mnt/c/Users/31740/Documents/codes/newcore-rp2350/include/linux/atomic/atomic-arch-fallback.h **** extern void raw_cmpxchg64_relaxed_not_implemented(void);
 137:/mnt/c/Users/31740/Documents/codes/newcore-rp2350/include/linux/atomic/atomic-arch-fallback.h **** #define raw_cmpxchg64_relaxed(...) raw_cmpxchg64_relaxed_not_implemented()
 138:/mnt/c/Users/31740/Documents/codes/newcore-rp2350/include/linux/atomic/atomic-arch-fallback.h **** #endif
 139:/mnt/c/Users/31740/Documents/codes/newcore-rp2350/include/linux/atomic/atomic-arch-fallback.h **** 
 140:/mnt/c/Users/31740/Documents/codes/newcore-rp2350/include/linux/atomic/atomic-arch-fallback.h **** #if defined(arch_cmpxchg128)
 141:/mnt/c/Users/31740/Documents/codes/newcore-rp2350/include/linux/atomic/atomic-arch-fallback.h **** #define raw_cmpxchg128 arch_cmpxchg128
 142:/mnt/c/Users/31740/Documents/codes/newcore-rp2350/include/linux/atomic/atomic-arch-fallback.h **** #elif defined(arch_cmpxchg128_relaxed)
 143:/mnt/c/Users/31740/Documents/codes/newcore-rp2350/include/linux/atomic/atomic-arch-fallback.h **** #define raw_cmpxchg128(...) \
 144:/mnt/c/Users/31740/Documents/codes/newcore-rp2350/include/linux/atomic/atomic-arch-fallback.h **** 	__atomic_op_fence(arch_cmpxchg128, __VA_ARGS__)
 145:/mnt/c/Users/31740/Documents/codes/newcore-rp2350/include/linux/atomic/atomic-arch-fallback.h **** #else
 146:/mnt/c/Users/31740/Documents/codes/newcore-rp2350/include/linux/atomic/atomic-arch-fallback.h **** extern void raw_cmpxchg128_not_implemented(void);
 147:/mnt/c/Users/31740/Documents/codes/newcore-rp2350/include/linux/atomic/atomic-arch-fallback.h **** #define raw_cmpxchg128(...) raw_cmpxchg128_not_implemented()
 148:/mnt/c/Users/31740/Documents/codes/newcore-rp2350/include/linux/atomic/atomic-arch-fallback.h **** #endif
 149:/mnt/c/Users/31740/Documents/codes/newcore-rp2350/include/linux/atomic/atomic-arch-fallback.h **** 
 150:/mnt/c/Users/31740/Documents/codes/newcore-rp2350/include/linux/atomic/atomic-arch-fallback.h **** #if defined(arch_cmpxchg128_acquire)
 151:/mnt/c/Users/31740/Documents/codes/newcore-rp2350/include/linux/atomic/atomic-arch-fallback.h **** #define raw_cmpxchg128_acquire arch_cmpxchg128_acquire
 152:/mnt/c/Users/31740/Documents/codes/newcore-rp2350/include/linux/atomic/atomic-arch-fallback.h **** #elif defined(arch_cmpxchg128_relaxed)
 153:/mnt/c/Users/31740/Documents/codes/newcore-rp2350/include/linux/atomic/atomic-arch-fallback.h **** #define raw_cmpxchg128_acquire(...) \
 154:/mnt/c/Users/31740/Documents/codes/newcore-rp2350/include/linux/atomic/atomic-arch-fallback.h **** 	__atomic_op_acquire(arch_cmpxchg128, __VA_ARGS__)
 155:/mnt/c/Users/31740/Documents/codes/newcore-rp2350/include/linux/atomic/atomic-arch-fallback.h **** #elif defined(arch_cmpxchg128)
 156:/mnt/c/Users/31740/Documents/codes/newcore-rp2350/include/linux/atomic/atomic-arch-fallback.h **** #define raw_cmpxchg128_acquire arch_cmpxchg128
 157:/mnt/c/Users/31740/Documents/codes/newcore-rp2350/include/linux/atomic/atomic-arch-fallback.h **** #else
ARM GAS  /tmp/ccehv4l2.s 			page 17


 158:/mnt/c/Users/31740/Documents/codes/newcore-rp2350/include/linux/atomic/atomic-arch-fallback.h **** extern void raw_cmpxchg128_acquire_not_implemented(void);
 159:/mnt/c/Users/31740/Documents/codes/newcore-rp2350/include/linux/atomic/atomic-arch-fallback.h **** #define raw_cmpxchg128_acquire(...) raw_cmpxchg128_acquire_not_implemented()
 160:/mnt/c/Users/31740/Documents/codes/newcore-rp2350/include/linux/atomic/atomic-arch-fallback.h **** #endif
 161:/mnt/c/Users/31740/Documents/codes/newcore-rp2350/include/linux/atomic/atomic-arch-fallback.h **** 
 162:/mnt/c/Users/31740/Documents/codes/newcore-rp2350/include/linux/atomic/atomic-arch-fallback.h **** #if defined(arch_cmpxchg128_release)
 163:/mnt/c/Users/31740/Documents/codes/newcore-rp2350/include/linux/atomic/atomic-arch-fallback.h **** #define raw_cmpxchg128_release arch_cmpxchg128_release
 164:/mnt/c/Users/31740/Documents/codes/newcore-rp2350/include/linux/atomic/atomic-arch-fallback.h **** #elif defined(arch_cmpxchg128_relaxed)
 165:/mnt/c/Users/31740/Documents/codes/newcore-rp2350/include/linux/atomic/atomic-arch-fallback.h **** #define raw_cmpxchg128_release(...) \
 166:/mnt/c/Users/31740/Documents/codes/newcore-rp2350/include/linux/atomic/atomic-arch-fallback.h **** 	__atomic_op_release(arch_cmpxchg128, __VA_ARGS__)
 167:/mnt/c/Users/31740/Documents/codes/newcore-rp2350/include/linux/atomic/atomic-arch-fallback.h **** #elif defined(arch_cmpxchg128)
 168:/mnt/c/Users/31740/Documents/codes/newcore-rp2350/include/linux/atomic/atomic-arch-fallback.h **** #define raw_cmpxchg128_release arch_cmpxchg128
 169:/mnt/c/Users/31740/Documents/codes/newcore-rp2350/include/linux/atomic/atomic-arch-fallback.h **** #else
 170:/mnt/c/Users/31740/Documents/codes/newcore-rp2350/include/linux/atomic/atomic-arch-fallback.h **** extern void raw_cmpxchg128_release_not_implemented(void);
 171:/mnt/c/Users/31740/Documents/codes/newcore-rp2350/include/linux/atomic/atomic-arch-fallback.h **** #define raw_cmpxchg128_release(...) raw_cmpxchg128_release_not_implemented()
 172:/mnt/c/Users/31740/Documents/codes/newcore-rp2350/include/linux/atomic/atomic-arch-fallback.h **** #endif
 173:/mnt/c/Users/31740/Documents/codes/newcore-rp2350/include/linux/atomic/atomic-arch-fallback.h **** 
 174:/mnt/c/Users/31740/Documents/codes/newcore-rp2350/include/linux/atomic/atomic-arch-fallback.h **** #if defined(arch_cmpxchg128_relaxed)
 175:/mnt/c/Users/31740/Documents/codes/newcore-rp2350/include/linux/atomic/atomic-arch-fallback.h **** #define raw_cmpxchg128_relaxed arch_cmpxchg128_relaxed
 176:/mnt/c/Users/31740/Documents/codes/newcore-rp2350/include/linux/atomic/atomic-arch-fallback.h **** #elif defined(arch_cmpxchg128)
 177:/mnt/c/Users/31740/Documents/codes/newcore-rp2350/include/linux/atomic/atomic-arch-fallback.h **** #define raw_cmpxchg128_relaxed arch_cmpxchg128
 178:/mnt/c/Users/31740/Documents/codes/newcore-rp2350/include/linux/atomic/atomic-arch-fallback.h **** #else
 179:/mnt/c/Users/31740/Documents/codes/newcore-rp2350/include/linux/atomic/atomic-arch-fallback.h **** extern void raw_cmpxchg128_relaxed_not_implemented(void);
 180:/mnt/c/Users/31740/Documents/codes/newcore-rp2350/include/linux/atomic/atomic-arch-fallback.h **** #define raw_cmpxchg128_relaxed(...) raw_cmpxchg128_relaxed_not_implemented()
 181:/mnt/c/Users/31740/Documents/codes/newcore-rp2350/include/linux/atomic/atomic-arch-fallback.h **** #endif
 182:/mnt/c/Users/31740/Documents/codes/newcore-rp2350/include/linux/atomic/atomic-arch-fallback.h **** 
 183:/mnt/c/Users/31740/Documents/codes/newcore-rp2350/include/linux/atomic/atomic-arch-fallback.h **** 
 184:/mnt/c/Users/31740/Documents/codes/newcore-rp2350/include/linux/atomic/atomic-arch-fallback.h **** 
 185:/mnt/c/Users/31740/Documents/codes/newcore-rp2350/include/linux/atomic/atomic-arch-fallback.h **** 
 186:/mnt/c/Users/31740/Documents/codes/newcore-rp2350/include/linux/atomic/atomic-arch-fallback.h **** 
 187:/mnt/c/Users/31740/Documents/codes/newcore-rp2350/include/linux/atomic/atomic-arch-fallback.h **** 
 188:/mnt/c/Users/31740/Documents/codes/newcore-rp2350/include/linux/atomic/atomic-arch-fallback.h **** 
 189:/mnt/c/Users/31740/Documents/codes/newcore-rp2350/include/linux/atomic/atomic-arch-fallback.h **** #if defined(arch_try_cmpxchg)
 190:/mnt/c/Users/31740/Documents/codes/newcore-rp2350/include/linux/atomic/atomic-arch-fallback.h **** #define raw_try_cmpxchg arch_try_cmpxchg
 191:/mnt/c/Users/31740/Documents/codes/newcore-rp2350/include/linux/atomic/atomic-arch-fallback.h **** #elif defined(arch_try_cmpxchg_relaxed)
 192:/mnt/c/Users/31740/Documents/codes/newcore-rp2350/include/linux/atomic/atomic-arch-fallback.h **** #define raw_try_cmpxchg(...) \
 193:/mnt/c/Users/31740/Documents/codes/newcore-rp2350/include/linux/atomic/atomic-arch-fallback.h **** 	__atomic_op_fence(arch_try_cmpxchg, __VA_ARGS__)
 194:/mnt/c/Users/31740/Documents/codes/newcore-rp2350/include/linux/atomic/atomic-arch-fallback.h **** #else
 195:/mnt/c/Users/31740/Documents/codes/newcore-rp2350/include/linux/atomic/atomic-arch-fallback.h **** #define raw_try_cmpxchg(_ptr, _oldp, _new) \
 196:/mnt/c/Users/31740/Documents/codes/newcore-rp2350/include/linux/atomic/atomic-arch-fallback.h **** ({ \
 197:/mnt/c/Users/31740/Documents/codes/newcore-rp2350/include/linux/atomic/atomic-arch-fallback.h **** 	typeof(*(_ptr)) *___op = (_oldp), ___o = *___op, ___r; \
 198:/mnt/c/Users/31740/Documents/codes/newcore-rp2350/include/linux/atomic/atomic-arch-fallback.h **** 	___r = raw_cmpxchg((_ptr), ___o, (_new)); \
 199:/mnt/c/Users/31740/Documents/codes/newcore-rp2350/include/linux/atomic/atomic-arch-fallback.h **** 	if (unlikely(___r != ___o)) \
 200:/mnt/c/Users/31740/Documents/codes/newcore-rp2350/include/linux/atomic/atomic-arch-fallback.h **** 		*___op = ___r; \
 201:/mnt/c/Users/31740/Documents/codes/newcore-rp2350/include/linux/atomic/atomic-arch-fallback.h **** 	likely(___r == ___o); \
 202:/mnt/c/Users/31740/Documents/codes/newcore-rp2350/include/linux/atomic/atomic-arch-fallback.h **** })
 203:/mnt/c/Users/31740/Documents/codes/newcore-rp2350/include/linux/atomic/atomic-arch-fallback.h **** #endif
 204:/mnt/c/Users/31740/Documents/codes/newcore-rp2350/include/linux/atomic/atomic-arch-fallback.h **** 
 205:/mnt/c/Users/31740/Documents/codes/newcore-rp2350/include/linux/atomic/atomic-arch-fallback.h **** #if defined(arch_try_cmpxchg_acquire)
 206:/mnt/c/Users/31740/Documents/codes/newcore-rp2350/include/linux/atomic/atomic-arch-fallback.h **** #define raw_try_cmpxchg_acquire arch_try_cmpxchg_acquire
 207:/mnt/c/Users/31740/Documents/codes/newcore-rp2350/include/linux/atomic/atomic-arch-fallback.h **** #elif defined(arch_try_cmpxchg_relaxed)
 208:/mnt/c/Users/31740/Documents/codes/newcore-rp2350/include/linux/atomic/atomic-arch-fallback.h **** #define raw_try_cmpxchg_acquire(...) \
 209:/mnt/c/Users/31740/Documents/codes/newcore-rp2350/include/linux/atomic/atomic-arch-fallback.h **** 	__atomic_op_acquire(arch_try_cmpxchg, __VA_ARGS__)
 210:/mnt/c/Users/31740/Documents/codes/newcore-rp2350/include/linux/atomic/atomic-arch-fallback.h **** #elif defined(arch_try_cmpxchg)
 211:/mnt/c/Users/31740/Documents/codes/newcore-rp2350/include/linux/atomic/atomic-arch-fallback.h **** #define raw_try_cmpxchg_acquire arch_try_cmpxchg
 212:/mnt/c/Users/31740/Documents/codes/newcore-rp2350/include/linux/atomic/atomic-arch-fallback.h **** #else
 213:/mnt/c/Users/31740/Documents/codes/newcore-rp2350/include/linux/atomic/atomic-arch-fallback.h **** #define raw_try_cmpxchg_acquire(_ptr, _oldp, _new) \
 214:/mnt/c/Users/31740/Documents/codes/newcore-rp2350/include/linux/atomic/atomic-arch-fallback.h **** ({ \
ARM GAS  /tmp/ccehv4l2.s 			page 18


 215:/mnt/c/Users/31740/Documents/codes/newcore-rp2350/include/linux/atomic/atomic-arch-fallback.h **** 	typeof(*(_ptr)) *___op = (_oldp), ___o = *___op, ___r; \
 216:/mnt/c/Users/31740/Documents/codes/newcore-rp2350/include/linux/atomic/atomic-arch-fallback.h **** 	___r = raw_cmpxchg_acquire((_ptr), ___o, (_new)); \
 217:/mnt/c/Users/31740/Documents/codes/newcore-rp2350/include/linux/atomic/atomic-arch-fallback.h **** 	if (unlikely(___r != ___o)) \
 218:/mnt/c/Users/31740/Documents/codes/newcore-rp2350/include/linux/atomic/atomic-arch-fallback.h **** 		*___op = ___r; \
 219:/mnt/c/Users/31740/Documents/codes/newcore-rp2350/include/linux/atomic/atomic-arch-fallback.h **** 	likely(___r == ___o); \
 220:/mnt/c/Users/31740/Documents/codes/newcore-rp2350/include/linux/atomic/atomic-arch-fallback.h **** })
 221:/mnt/c/Users/31740/Documents/codes/newcore-rp2350/include/linux/atomic/atomic-arch-fallback.h **** #endif
 222:/mnt/c/Users/31740/Documents/codes/newcore-rp2350/include/linux/atomic/atomic-arch-fallback.h **** 
 223:/mnt/c/Users/31740/Documents/codes/newcore-rp2350/include/linux/atomic/atomic-arch-fallback.h **** #if defined(arch_try_cmpxchg_release)
 224:/mnt/c/Users/31740/Documents/codes/newcore-rp2350/include/linux/atomic/atomic-arch-fallback.h **** #define raw_try_cmpxchg_release arch_try_cmpxchg_release
 225:/mnt/c/Users/31740/Documents/codes/newcore-rp2350/include/linux/atomic/atomic-arch-fallback.h **** #elif defined(arch_try_cmpxchg_relaxed)
 226:/mnt/c/Users/31740/Documents/codes/newcore-rp2350/include/linux/atomic/atomic-arch-fallback.h **** #define raw_try_cmpxchg_release(...) \
 227:/mnt/c/Users/31740/Documents/codes/newcore-rp2350/include/linux/atomic/atomic-arch-fallback.h **** 	__atomic_op_release(arch_try_cmpxchg, __VA_ARGS__)
 228:/mnt/c/Users/31740/Documents/codes/newcore-rp2350/include/linux/atomic/atomic-arch-fallback.h **** #elif defined(arch_try_cmpxchg)
 229:/mnt/c/Users/31740/Documents/codes/newcore-rp2350/include/linux/atomic/atomic-arch-fallback.h **** #define raw_try_cmpxchg_release arch_try_cmpxchg
 230:/mnt/c/Users/31740/Documents/codes/newcore-rp2350/include/linux/atomic/atomic-arch-fallback.h **** #else
 231:/mnt/c/Users/31740/Documents/codes/newcore-rp2350/include/linux/atomic/atomic-arch-fallback.h **** #define raw_try_cmpxchg_release(_ptr, _oldp, _new) \
 232:/mnt/c/Users/31740/Documents/codes/newcore-rp2350/include/linux/atomic/atomic-arch-fallback.h **** ({ \
 233:/mnt/c/Users/31740/Documents/codes/newcore-rp2350/include/linux/atomic/atomic-arch-fallback.h **** 	typeof(*(_ptr)) *___op = (_oldp), ___o = *___op, ___r; \
 234:/mnt/c/Users/31740/Documents/codes/newcore-rp2350/include/linux/atomic/atomic-arch-fallback.h **** 	___r = raw_cmpxchg_release((_ptr), ___o, (_new)); \
 235:/mnt/c/Users/31740/Documents/codes/newcore-rp2350/include/linux/atomic/atomic-arch-fallback.h **** 	if (unlikely(___r != ___o)) \
 236:/mnt/c/Users/31740/Documents/codes/newcore-rp2350/include/linux/atomic/atomic-arch-fallback.h **** 		*___op = ___r; \
 237:/mnt/c/Users/31740/Documents/codes/newcore-rp2350/include/linux/atomic/atomic-arch-fallback.h **** 	likely(___r == ___o); \
 238:/mnt/c/Users/31740/Documents/codes/newcore-rp2350/include/linux/atomic/atomic-arch-fallback.h **** })
 239:/mnt/c/Users/31740/Documents/codes/newcore-rp2350/include/linux/atomic/atomic-arch-fallback.h **** #endif
 240:/mnt/c/Users/31740/Documents/codes/newcore-rp2350/include/linux/atomic/atomic-arch-fallback.h **** 
 241:/mnt/c/Users/31740/Documents/codes/newcore-rp2350/include/linux/atomic/atomic-arch-fallback.h **** #if defined(arch_try_cmpxchg_relaxed)
 242:/mnt/c/Users/31740/Documents/codes/newcore-rp2350/include/linux/atomic/atomic-arch-fallback.h **** #define raw_try_cmpxchg_relaxed arch_try_cmpxchg_relaxed
 243:/mnt/c/Users/31740/Documents/codes/newcore-rp2350/include/linux/atomic/atomic-arch-fallback.h **** #elif defined(arch_try_cmpxchg)
 244:/mnt/c/Users/31740/Documents/codes/newcore-rp2350/include/linux/atomic/atomic-arch-fallback.h **** #define raw_try_cmpxchg_relaxed arch_try_cmpxchg
 245:/mnt/c/Users/31740/Documents/codes/newcore-rp2350/include/linux/atomic/atomic-arch-fallback.h **** #else
 246:/mnt/c/Users/31740/Documents/codes/newcore-rp2350/include/linux/atomic/atomic-arch-fallback.h **** #define raw_try_cmpxchg_relaxed(_ptr, _oldp, _new) \
 247:/mnt/c/Users/31740/Documents/codes/newcore-rp2350/include/linux/atomic/atomic-arch-fallback.h **** ({ \
 248:/mnt/c/Users/31740/Documents/codes/newcore-rp2350/include/linux/atomic/atomic-arch-fallback.h **** 	typeof(*(_ptr)) *___op = (_oldp), ___o = *___op, ___r; \
 249:/mnt/c/Users/31740/Documents/codes/newcore-rp2350/include/linux/atomic/atomic-arch-fallback.h **** 	___r = raw_cmpxchg_relaxed((_ptr), ___o, (_new)); \
 250:/mnt/c/Users/31740/Documents/codes/newcore-rp2350/include/linux/atomic/atomic-arch-fallback.h **** 	if (unlikely(___r != ___o)) \
 251:/mnt/c/Users/31740/Documents/codes/newcore-rp2350/include/linux/atomic/atomic-arch-fallback.h **** 		*___op = ___r; \
 252:/mnt/c/Users/31740/Documents/codes/newcore-rp2350/include/linux/atomic/atomic-arch-fallback.h **** 	likely(___r == ___o); \
 253:/mnt/c/Users/31740/Documents/codes/newcore-rp2350/include/linux/atomic/atomic-arch-fallback.h **** })
 254:/mnt/c/Users/31740/Documents/codes/newcore-rp2350/include/linux/atomic/atomic-arch-fallback.h **** #endif
 255:/mnt/c/Users/31740/Documents/codes/newcore-rp2350/include/linux/atomic/atomic-arch-fallback.h **** 
 256:/mnt/c/Users/31740/Documents/codes/newcore-rp2350/include/linux/atomic/atomic-arch-fallback.h **** #if defined(arch_try_cmpxchg64)
 257:/mnt/c/Users/31740/Documents/codes/newcore-rp2350/include/linux/atomic/atomic-arch-fallback.h **** #define raw_try_cmpxchg64 arch_try_cmpxchg64
 258:/mnt/c/Users/31740/Documents/codes/newcore-rp2350/include/linux/atomic/atomic-arch-fallback.h **** #elif defined(arch_try_cmpxchg64_relaxed)
 259:/mnt/c/Users/31740/Documents/codes/newcore-rp2350/include/linux/atomic/atomic-arch-fallback.h **** #define raw_try_cmpxchg64(...) \
 260:/mnt/c/Users/31740/Documents/codes/newcore-rp2350/include/linux/atomic/atomic-arch-fallback.h **** 	__atomic_op_fence(arch_try_cmpxchg64, __VA_ARGS__)
 261:/mnt/c/Users/31740/Documents/codes/newcore-rp2350/include/linux/atomic/atomic-arch-fallback.h **** #else
 262:/mnt/c/Users/31740/Documents/codes/newcore-rp2350/include/linux/atomic/atomic-arch-fallback.h **** #define raw_try_cmpxchg64(_ptr, _oldp, _new) \
 263:/mnt/c/Users/31740/Documents/codes/newcore-rp2350/include/linux/atomic/atomic-arch-fallback.h **** ({ \
 264:/mnt/c/Users/31740/Documents/codes/newcore-rp2350/include/linux/atomic/atomic-arch-fallback.h **** 	typeof(*(_ptr)) *___op = (_oldp), ___o = *___op, ___r; \
 265:/mnt/c/Users/31740/Documents/codes/newcore-rp2350/include/linux/atomic/atomic-arch-fallback.h **** 	___r = raw_cmpxchg64((_ptr), ___o, (_new)); \
 266:/mnt/c/Users/31740/Documents/codes/newcore-rp2350/include/linux/atomic/atomic-arch-fallback.h **** 	if (unlikely(___r != ___o)) \
 267:/mnt/c/Users/31740/Documents/codes/newcore-rp2350/include/linux/atomic/atomic-arch-fallback.h **** 		*___op = ___r; \
 268:/mnt/c/Users/31740/Documents/codes/newcore-rp2350/include/linux/atomic/atomic-arch-fallback.h **** 	likely(___r == ___o); \
 269:/mnt/c/Users/31740/Documents/codes/newcore-rp2350/include/linux/atomic/atomic-arch-fallback.h **** })
 270:/mnt/c/Users/31740/Documents/codes/newcore-rp2350/include/linux/atomic/atomic-arch-fallback.h **** #endif
 271:/mnt/c/Users/31740/Documents/codes/newcore-rp2350/include/linux/atomic/atomic-arch-fallback.h **** 
ARM GAS  /tmp/ccehv4l2.s 			page 19


 272:/mnt/c/Users/31740/Documents/codes/newcore-rp2350/include/linux/atomic/atomic-arch-fallback.h **** #if defined(arch_try_cmpxchg64_acquire)
 273:/mnt/c/Users/31740/Documents/codes/newcore-rp2350/include/linux/atomic/atomic-arch-fallback.h **** #define raw_try_cmpxchg64_acquire arch_try_cmpxchg64_acquire
 274:/mnt/c/Users/31740/Documents/codes/newcore-rp2350/include/linux/atomic/atomic-arch-fallback.h **** #elif defined(arch_try_cmpxchg64_relaxed)
 275:/mnt/c/Users/31740/Documents/codes/newcore-rp2350/include/linux/atomic/atomic-arch-fallback.h **** #define raw_try_cmpxchg64_acquire(...) \
 276:/mnt/c/Users/31740/Documents/codes/newcore-rp2350/include/linux/atomic/atomic-arch-fallback.h **** 	__atomic_op_acquire(arch_try_cmpxchg64, __VA_ARGS__)
 277:/mnt/c/Users/31740/Documents/codes/newcore-rp2350/include/linux/atomic/atomic-arch-fallback.h **** #elif defined(arch_try_cmpxchg64)
 278:/mnt/c/Users/31740/Documents/codes/newcore-rp2350/include/linux/atomic/atomic-arch-fallback.h **** #define raw_try_cmpxchg64_acquire arch_try_cmpxchg64
 279:/mnt/c/Users/31740/Documents/codes/newcore-rp2350/include/linux/atomic/atomic-arch-fallback.h **** #else
 280:/mnt/c/Users/31740/Documents/codes/newcore-rp2350/include/linux/atomic/atomic-arch-fallback.h **** #define raw_try_cmpxchg64_acquire(_ptr, _oldp, _new) \
 281:/mnt/c/Users/31740/Documents/codes/newcore-rp2350/include/linux/atomic/atomic-arch-fallback.h **** ({ \
 282:/mnt/c/Users/31740/Documents/codes/newcore-rp2350/include/linux/atomic/atomic-arch-fallback.h **** 	typeof(*(_ptr)) *___op = (_oldp), ___o = *___op, ___r; \
 283:/mnt/c/Users/31740/Documents/codes/newcore-rp2350/include/linux/atomic/atomic-arch-fallback.h **** 	___r = raw_cmpxchg64_acquire((_ptr), ___o, (_new)); \
 284:/mnt/c/Users/31740/Documents/codes/newcore-rp2350/include/linux/atomic/atomic-arch-fallback.h **** 	if (unlikely(___r != ___o)) \
 285:/mnt/c/Users/31740/Documents/codes/newcore-rp2350/include/linux/atomic/atomic-arch-fallback.h **** 		*___op = ___r; \
 286:/mnt/c/Users/31740/Documents/codes/newcore-rp2350/include/linux/atomic/atomic-arch-fallback.h **** 	likely(___r == ___o); \
 287:/mnt/c/Users/31740/Documents/codes/newcore-rp2350/include/linux/atomic/atomic-arch-fallback.h **** })
 288:/mnt/c/Users/31740/Documents/codes/newcore-rp2350/include/linux/atomic/atomic-arch-fallback.h **** #endif
 289:/mnt/c/Users/31740/Documents/codes/newcore-rp2350/include/linux/atomic/atomic-arch-fallback.h **** 
 290:/mnt/c/Users/31740/Documents/codes/newcore-rp2350/include/linux/atomic/atomic-arch-fallback.h **** #if defined(arch_try_cmpxchg64_release)
 291:/mnt/c/Users/31740/Documents/codes/newcore-rp2350/include/linux/atomic/atomic-arch-fallback.h **** #define raw_try_cmpxchg64_release arch_try_cmpxchg64_release
 292:/mnt/c/Users/31740/Documents/codes/newcore-rp2350/include/linux/atomic/atomic-arch-fallback.h **** #elif defined(arch_try_cmpxchg64_relaxed)
 293:/mnt/c/Users/31740/Documents/codes/newcore-rp2350/include/linux/atomic/atomic-arch-fallback.h **** #define raw_try_cmpxchg64_release(...) \
 294:/mnt/c/Users/31740/Documents/codes/newcore-rp2350/include/linux/atomic/atomic-arch-fallback.h **** 	__atomic_op_release(arch_try_cmpxchg64, __VA_ARGS__)
 295:/mnt/c/Users/31740/Documents/codes/newcore-rp2350/include/linux/atomic/atomic-arch-fallback.h **** #elif defined(arch_try_cmpxchg64)
 296:/mnt/c/Users/31740/Documents/codes/newcore-rp2350/include/linux/atomic/atomic-arch-fallback.h **** #define raw_try_cmpxchg64_release arch_try_cmpxchg64
 297:/mnt/c/Users/31740/Documents/codes/newcore-rp2350/include/linux/atomic/atomic-arch-fallback.h **** #else
 298:/mnt/c/Users/31740/Documents/codes/newcore-rp2350/include/linux/atomic/atomic-arch-fallback.h **** #define raw_try_cmpxchg64_release(_ptr, _oldp, _new) \
 299:/mnt/c/Users/31740/Documents/codes/newcore-rp2350/include/linux/atomic/atomic-arch-fallback.h **** ({ \
 300:/mnt/c/Users/31740/Documents/codes/newcore-rp2350/include/linux/atomic/atomic-arch-fallback.h **** 	typeof(*(_ptr)) *___op = (_oldp), ___o = *___op, ___r; \
 301:/mnt/c/Users/31740/Documents/codes/newcore-rp2350/include/linux/atomic/atomic-arch-fallback.h **** 	___r = raw_cmpxchg64_release((_ptr), ___o, (_new)); \
 302:/mnt/c/Users/31740/Documents/codes/newcore-rp2350/include/linux/atomic/atomic-arch-fallback.h **** 	if (unlikely(___r != ___o)) \
 303:/mnt/c/Users/31740/Documents/codes/newcore-rp2350/include/linux/atomic/atomic-arch-fallback.h **** 		*___op = ___r; \
 304:/mnt/c/Users/31740/Documents/codes/newcore-rp2350/include/linux/atomic/atomic-arch-fallback.h **** 	likely(___r == ___o); \
 305:/mnt/c/Users/31740/Documents/codes/newcore-rp2350/include/linux/atomic/atomic-arch-fallback.h **** })
 306:/mnt/c/Users/31740/Documents/codes/newcore-rp2350/include/linux/atomic/atomic-arch-fallback.h **** #endif
 307:/mnt/c/Users/31740/Documents/codes/newcore-rp2350/include/linux/atomic/atomic-arch-fallback.h **** 
 308:/mnt/c/Users/31740/Documents/codes/newcore-rp2350/include/linux/atomic/atomic-arch-fallback.h **** #if defined(arch_try_cmpxchg64_relaxed)
 309:/mnt/c/Users/31740/Documents/codes/newcore-rp2350/include/linux/atomic/atomic-arch-fallback.h **** #define raw_try_cmpxchg64_relaxed arch_try_cmpxchg64_relaxed
 310:/mnt/c/Users/31740/Documents/codes/newcore-rp2350/include/linux/atomic/atomic-arch-fallback.h **** #elif defined(arch_try_cmpxchg64)
 311:/mnt/c/Users/31740/Documents/codes/newcore-rp2350/include/linux/atomic/atomic-arch-fallback.h **** #define raw_try_cmpxchg64_relaxed arch_try_cmpxchg64
 312:/mnt/c/Users/31740/Documents/codes/newcore-rp2350/include/linux/atomic/atomic-arch-fallback.h **** #else
 313:/mnt/c/Users/31740/Documents/codes/newcore-rp2350/include/linux/atomic/atomic-arch-fallback.h **** #define raw_try_cmpxchg64_relaxed(_ptr, _oldp, _new) \
 314:/mnt/c/Users/31740/Documents/codes/newcore-rp2350/include/linux/atomic/atomic-arch-fallback.h **** ({ \
 315:/mnt/c/Users/31740/Documents/codes/newcore-rp2350/include/linux/atomic/atomic-arch-fallback.h **** 	typeof(*(_ptr)) *___op = (_oldp), ___o = *___op, ___r; \
 316:/mnt/c/Users/31740/Documents/codes/newcore-rp2350/include/linux/atomic/atomic-arch-fallback.h **** 	___r = raw_cmpxchg64_relaxed((_ptr), ___o, (_new)); \
 317:/mnt/c/Users/31740/Documents/codes/newcore-rp2350/include/linux/atomic/atomic-arch-fallback.h **** 	if (unlikely(___r != ___o)) \
 318:/mnt/c/Users/31740/Documents/codes/newcore-rp2350/include/linux/atomic/atomic-arch-fallback.h **** 		*___op = ___r; \
 319:/mnt/c/Users/31740/Documents/codes/newcore-rp2350/include/linux/atomic/atomic-arch-fallback.h **** 	likely(___r == ___o); \
 320:/mnt/c/Users/31740/Documents/codes/newcore-rp2350/include/linux/atomic/atomic-arch-fallback.h **** })
 321:/mnt/c/Users/31740/Documents/codes/newcore-rp2350/include/linux/atomic/atomic-arch-fallback.h **** #endif
 322:/mnt/c/Users/31740/Documents/codes/newcore-rp2350/include/linux/atomic/atomic-arch-fallback.h **** 
 323:/mnt/c/Users/31740/Documents/codes/newcore-rp2350/include/linux/atomic/atomic-arch-fallback.h **** #if defined(arch_try_cmpxchg128)
 324:/mnt/c/Users/31740/Documents/codes/newcore-rp2350/include/linux/atomic/atomic-arch-fallback.h **** #define raw_try_cmpxchg128 arch_try_cmpxchg128
 325:/mnt/c/Users/31740/Documents/codes/newcore-rp2350/include/linux/atomic/atomic-arch-fallback.h **** #elif defined(arch_try_cmpxchg128_relaxed)
 326:/mnt/c/Users/31740/Documents/codes/newcore-rp2350/include/linux/atomic/atomic-arch-fallback.h **** #define raw_try_cmpxchg128(...) \
 327:/mnt/c/Users/31740/Documents/codes/newcore-rp2350/include/linux/atomic/atomic-arch-fallback.h **** 	__atomic_op_fence(arch_try_cmpxchg128, __VA_ARGS__)
 328:/mnt/c/Users/31740/Documents/codes/newcore-rp2350/include/linux/atomic/atomic-arch-fallback.h **** #else
ARM GAS  /tmp/ccehv4l2.s 			page 20


 329:/mnt/c/Users/31740/Documents/codes/newcore-rp2350/include/linux/atomic/atomic-arch-fallback.h **** #define raw_try_cmpxchg128(_ptr, _oldp, _new) \
 330:/mnt/c/Users/31740/Documents/codes/newcore-rp2350/include/linux/atomic/atomic-arch-fallback.h **** ({ \
 331:/mnt/c/Users/31740/Documents/codes/newcore-rp2350/include/linux/atomic/atomic-arch-fallback.h **** 	typeof(*(_ptr)) *___op = (_oldp), ___o = *___op, ___r; \
 332:/mnt/c/Users/31740/Documents/codes/newcore-rp2350/include/linux/atomic/atomic-arch-fallback.h **** 	___r = raw_cmpxchg128((_ptr), ___o, (_new)); \
 333:/mnt/c/Users/31740/Documents/codes/newcore-rp2350/include/linux/atomic/atomic-arch-fallback.h **** 	if (unlikely(___r != ___o)) \
 334:/mnt/c/Users/31740/Documents/codes/newcore-rp2350/include/linux/atomic/atomic-arch-fallback.h **** 		*___op = ___r; \
 335:/mnt/c/Users/31740/Documents/codes/newcore-rp2350/include/linux/atomic/atomic-arch-fallback.h **** 	likely(___r == ___o); \
 336:/mnt/c/Users/31740/Documents/codes/newcore-rp2350/include/linux/atomic/atomic-arch-fallback.h **** })
 337:/mnt/c/Users/31740/Documents/codes/newcore-rp2350/include/linux/atomic/atomic-arch-fallback.h **** #endif
 338:/mnt/c/Users/31740/Documents/codes/newcore-rp2350/include/linux/atomic/atomic-arch-fallback.h **** 
 339:/mnt/c/Users/31740/Documents/codes/newcore-rp2350/include/linux/atomic/atomic-arch-fallback.h **** #if defined(arch_try_cmpxchg128_acquire)
 340:/mnt/c/Users/31740/Documents/codes/newcore-rp2350/include/linux/atomic/atomic-arch-fallback.h **** #define raw_try_cmpxchg128_acquire arch_try_cmpxchg128_acquire
 341:/mnt/c/Users/31740/Documents/codes/newcore-rp2350/include/linux/atomic/atomic-arch-fallback.h **** #elif defined(arch_try_cmpxchg128_relaxed)
 342:/mnt/c/Users/31740/Documents/codes/newcore-rp2350/include/linux/atomic/atomic-arch-fallback.h **** #define raw_try_cmpxchg128_acquire(...) \
 343:/mnt/c/Users/31740/Documents/codes/newcore-rp2350/include/linux/atomic/atomic-arch-fallback.h **** 	__atomic_op_acquire(arch_try_cmpxchg128, __VA_ARGS__)
 344:/mnt/c/Users/31740/Documents/codes/newcore-rp2350/include/linux/atomic/atomic-arch-fallback.h **** #elif defined(arch_try_cmpxchg128)
 345:/mnt/c/Users/31740/Documents/codes/newcore-rp2350/include/linux/atomic/atomic-arch-fallback.h **** #define raw_try_cmpxchg128_acquire arch_try_cmpxchg128
 346:/mnt/c/Users/31740/Documents/codes/newcore-rp2350/include/linux/atomic/atomic-arch-fallback.h **** #else
 347:/mnt/c/Users/31740/Documents/codes/newcore-rp2350/include/linux/atomic/atomic-arch-fallback.h **** #define raw_try_cmpxchg128_acquire(_ptr, _oldp, _new) \
 348:/mnt/c/Users/31740/Documents/codes/newcore-rp2350/include/linux/atomic/atomic-arch-fallback.h **** ({ \
 349:/mnt/c/Users/31740/Documents/codes/newcore-rp2350/include/linux/atomic/atomic-arch-fallback.h **** 	typeof(*(_ptr)) *___op = (_oldp), ___o = *___op, ___r; \
 350:/mnt/c/Users/31740/Documents/codes/newcore-rp2350/include/linux/atomic/atomic-arch-fallback.h **** 	___r = raw_cmpxchg128_acquire((_ptr), ___o, (_new)); \
 351:/mnt/c/Users/31740/Documents/codes/newcore-rp2350/include/linux/atomic/atomic-arch-fallback.h **** 	if (unlikely(___r != ___o)) \
 352:/mnt/c/Users/31740/Documents/codes/newcore-rp2350/include/linux/atomic/atomic-arch-fallback.h **** 		*___op = ___r; \
 353:/mnt/c/Users/31740/Documents/codes/newcore-rp2350/include/linux/atomic/atomic-arch-fallback.h **** 	likely(___r == ___o); \
 354:/mnt/c/Users/31740/Documents/codes/newcore-rp2350/include/linux/atomic/atomic-arch-fallback.h **** })
 355:/mnt/c/Users/31740/Documents/codes/newcore-rp2350/include/linux/atomic/atomic-arch-fallback.h **** #endif
 356:/mnt/c/Users/31740/Documents/codes/newcore-rp2350/include/linux/atomic/atomic-arch-fallback.h **** 
 357:/mnt/c/Users/31740/Documents/codes/newcore-rp2350/include/linux/atomic/atomic-arch-fallback.h **** #if defined(arch_try_cmpxchg128_release)
 358:/mnt/c/Users/31740/Documents/codes/newcore-rp2350/include/linux/atomic/atomic-arch-fallback.h **** #define raw_try_cmpxchg128_release arch_try_cmpxchg128_release
 359:/mnt/c/Users/31740/Documents/codes/newcore-rp2350/include/linux/atomic/atomic-arch-fallback.h **** #elif defined(arch_try_cmpxchg128_relaxed)
 360:/mnt/c/Users/31740/Documents/codes/newcore-rp2350/include/linux/atomic/atomic-arch-fallback.h **** #define raw_try_cmpxchg128_release(...) \
 361:/mnt/c/Users/31740/Documents/codes/newcore-rp2350/include/linux/atomic/atomic-arch-fallback.h **** 	__atomic_op_release(arch_try_cmpxchg128, __VA_ARGS__)
 362:/mnt/c/Users/31740/Documents/codes/newcore-rp2350/include/linux/atomic/atomic-arch-fallback.h **** #elif defined(arch_try_cmpxchg128)
 363:/mnt/c/Users/31740/Documents/codes/newcore-rp2350/include/linux/atomic/atomic-arch-fallback.h **** #define raw_try_cmpxchg128_release arch_try_cmpxchg128
 364:/mnt/c/Users/31740/Documents/codes/newcore-rp2350/include/linux/atomic/atomic-arch-fallback.h **** #else
 365:/mnt/c/Users/31740/Documents/codes/newcore-rp2350/include/linux/atomic/atomic-arch-fallback.h **** #define raw_try_cmpxchg128_release(_ptr, _oldp, _new) \
 366:/mnt/c/Users/31740/Documents/codes/newcore-rp2350/include/linux/atomic/atomic-arch-fallback.h **** ({ \
 367:/mnt/c/Users/31740/Documents/codes/newcore-rp2350/include/linux/atomic/atomic-arch-fallback.h **** 	typeof(*(_ptr)) *___op = (_oldp), ___o = *___op, ___r; \
 368:/mnt/c/Users/31740/Documents/codes/newcore-rp2350/include/linux/atomic/atomic-arch-fallback.h **** 	___r = raw_cmpxchg128_release((_ptr), ___o, (_new)); \
 369:/mnt/c/Users/31740/Documents/codes/newcore-rp2350/include/linux/atomic/atomic-arch-fallback.h **** 	if (unlikely(___r != ___o)) \
 370:/mnt/c/Users/31740/Documents/codes/newcore-rp2350/include/linux/atomic/atomic-arch-fallback.h **** 		*___op = ___r; \
 371:/mnt/c/Users/31740/Documents/codes/newcore-rp2350/include/linux/atomic/atomic-arch-fallback.h **** 	likely(___r == ___o); \
 372:/mnt/c/Users/31740/Documents/codes/newcore-rp2350/include/linux/atomic/atomic-arch-fallback.h **** })
 373:/mnt/c/Users/31740/Documents/codes/newcore-rp2350/include/linux/atomic/atomic-arch-fallback.h **** #endif
 374:/mnt/c/Users/31740/Documents/codes/newcore-rp2350/include/linux/atomic/atomic-arch-fallback.h **** 
 375:/mnt/c/Users/31740/Documents/codes/newcore-rp2350/include/linux/atomic/atomic-arch-fallback.h **** #if defined(arch_try_cmpxchg128_relaxed)
 376:/mnt/c/Users/31740/Documents/codes/newcore-rp2350/include/linux/atomic/atomic-arch-fallback.h **** #define raw_try_cmpxchg128_relaxed arch_try_cmpxchg128_relaxed
 377:/mnt/c/Users/31740/Documents/codes/newcore-rp2350/include/linux/atomic/atomic-arch-fallback.h **** #elif defined(arch_try_cmpxchg128)
 378:/mnt/c/Users/31740/Documents/codes/newcore-rp2350/include/linux/atomic/atomic-arch-fallback.h **** #define raw_try_cmpxchg128_relaxed arch_try_cmpxchg128
 379:/mnt/c/Users/31740/Documents/codes/newcore-rp2350/include/linux/atomic/atomic-arch-fallback.h **** #else
 380:/mnt/c/Users/31740/Documents/codes/newcore-rp2350/include/linux/atomic/atomic-arch-fallback.h **** #define raw_try_cmpxchg128_relaxed(_ptr, _oldp, _new) \
 381:/mnt/c/Users/31740/Documents/codes/newcore-rp2350/include/linux/atomic/atomic-arch-fallback.h **** ({ \
 382:/mnt/c/Users/31740/Documents/codes/newcore-rp2350/include/linux/atomic/atomic-arch-fallback.h **** 	typeof(*(_ptr)) *___op = (_oldp), ___o = *___op, ___r; \
 383:/mnt/c/Users/31740/Documents/codes/newcore-rp2350/include/linux/atomic/atomic-arch-fallback.h **** 	___r = raw_cmpxchg128_relaxed((_ptr), ___o, (_new)); \
 384:/mnt/c/Users/31740/Documents/codes/newcore-rp2350/include/linux/atomic/atomic-arch-fallback.h **** 	if (unlikely(___r != ___o)) \
 385:/mnt/c/Users/31740/Documents/codes/newcore-rp2350/include/linux/atomic/atomic-arch-fallback.h **** 		*___op = ___r; \
ARM GAS  /tmp/ccehv4l2.s 			page 21


 386:/mnt/c/Users/31740/Documents/codes/newcore-rp2350/include/linux/atomic/atomic-arch-fallback.h **** 	likely(___r == ___o); \
 387:/mnt/c/Users/31740/Documents/codes/newcore-rp2350/include/linux/atomic/atomic-arch-fallback.h **** })
 388:/mnt/c/Users/31740/Documents/codes/newcore-rp2350/include/linux/atomic/atomic-arch-fallback.h **** #endif
 389:/mnt/c/Users/31740/Documents/codes/newcore-rp2350/include/linux/atomic/atomic-arch-fallback.h **** 
 390:/mnt/c/Users/31740/Documents/codes/newcore-rp2350/include/linux/atomic/atomic-arch-fallback.h **** #define raw_cmpxchg_local arch_cmpxchg_local
 391:/mnt/c/Users/31740/Documents/codes/newcore-rp2350/include/linux/atomic/atomic-arch-fallback.h **** 
 392:/mnt/c/Users/31740/Documents/codes/newcore-rp2350/include/linux/atomic/atomic-arch-fallback.h **** #ifdef arch_try_cmpxchg_local
 393:/mnt/c/Users/31740/Documents/codes/newcore-rp2350/include/linux/atomic/atomic-arch-fallback.h **** #define raw_try_cmpxchg_local arch_try_cmpxchg_local
 394:/mnt/c/Users/31740/Documents/codes/newcore-rp2350/include/linux/atomic/atomic-arch-fallback.h **** #else
 395:/mnt/c/Users/31740/Documents/codes/newcore-rp2350/include/linux/atomic/atomic-arch-fallback.h **** #define raw_try_cmpxchg_local(_ptr, _oldp, _new) \
 396:/mnt/c/Users/31740/Documents/codes/newcore-rp2350/include/linux/atomic/atomic-arch-fallback.h **** ({ \
 397:/mnt/c/Users/31740/Documents/codes/newcore-rp2350/include/linux/atomic/atomic-arch-fallback.h **** 	typeof(*(_ptr)) *___op = (_oldp), ___o = *___op, ___r; \
 398:/mnt/c/Users/31740/Documents/codes/newcore-rp2350/include/linux/atomic/atomic-arch-fallback.h **** 	___r = raw_cmpxchg_local((_ptr), ___o, (_new)); \
 399:/mnt/c/Users/31740/Documents/codes/newcore-rp2350/include/linux/atomic/atomic-arch-fallback.h **** 	if (unlikely(___r != ___o)) \
 400:/mnt/c/Users/31740/Documents/codes/newcore-rp2350/include/linux/atomic/atomic-arch-fallback.h **** 		*___op = ___r; \
 401:/mnt/c/Users/31740/Documents/codes/newcore-rp2350/include/linux/atomic/atomic-arch-fallback.h **** 	likely(___r == ___o); \
 402:/mnt/c/Users/31740/Documents/codes/newcore-rp2350/include/linux/atomic/atomic-arch-fallback.h **** })
 403:/mnt/c/Users/31740/Documents/codes/newcore-rp2350/include/linux/atomic/atomic-arch-fallback.h **** #endif
 404:/mnt/c/Users/31740/Documents/codes/newcore-rp2350/include/linux/atomic/atomic-arch-fallback.h **** 
 405:/mnt/c/Users/31740/Documents/codes/newcore-rp2350/include/linux/atomic/atomic-arch-fallback.h **** #define raw_cmpxchg64_local arch_cmpxchg64_local
 406:/mnt/c/Users/31740/Documents/codes/newcore-rp2350/include/linux/atomic/atomic-arch-fallback.h **** 
 407:/mnt/c/Users/31740/Documents/codes/newcore-rp2350/include/linux/atomic/atomic-arch-fallback.h **** #ifdef arch_try_cmpxchg64_local
 408:/mnt/c/Users/31740/Documents/codes/newcore-rp2350/include/linux/atomic/atomic-arch-fallback.h **** #define raw_try_cmpxchg64_local arch_try_cmpxchg64_local
 409:/mnt/c/Users/31740/Documents/codes/newcore-rp2350/include/linux/atomic/atomic-arch-fallback.h **** #else
 410:/mnt/c/Users/31740/Documents/codes/newcore-rp2350/include/linux/atomic/atomic-arch-fallback.h **** #define raw_try_cmpxchg64_local(_ptr, _oldp, _new) \
 411:/mnt/c/Users/31740/Documents/codes/newcore-rp2350/include/linux/atomic/atomic-arch-fallback.h **** ({ \
 412:/mnt/c/Users/31740/Documents/codes/newcore-rp2350/include/linux/atomic/atomic-arch-fallback.h **** 	typeof(*(_ptr)) *___op = (_oldp), ___o = *___op, ___r; \
 413:/mnt/c/Users/31740/Documents/codes/newcore-rp2350/include/linux/atomic/atomic-arch-fallback.h **** 	___r = raw_cmpxchg64_local((_ptr), ___o, (_new)); \
 414:/mnt/c/Users/31740/Documents/codes/newcore-rp2350/include/linux/atomic/atomic-arch-fallback.h **** 	if (unlikely(___r != ___o)) \
 415:/mnt/c/Users/31740/Documents/codes/newcore-rp2350/include/linux/atomic/atomic-arch-fallback.h **** 		*___op = ___r; \
 416:/mnt/c/Users/31740/Documents/codes/newcore-rp2350/include/linux/atomic/atomic-arch-fallback.h **** 	likely(___r == ___o); \
 417:/mnt/c/Users/31740/Documents/codes/newcore-rp2350/include/linux/atomic/atomic-arch-fallback.h **** })
 418:/mnt/c/Users/31740/Documents/codes/newcore-rp2350/include/linux/atomic/atomic-arch-fallback.h **** #endif
 419:/mnt/c/Users/31740/Documents/codes/newcore-rp2350/include/linux/atomic/atomic-arch-fallback.h **** 
 420:/mnt/c/Users/31740/Documents/codes/newcore-rp2350/include/linux/atomic/atomic-arch-fallback.h **** #define raw_cmpxchg128_local arch_cmpxchg128_local
 421:/mnt/c/Users/31740/Documents/codes/newcore-rp2350/include/linux/atomic/atomic-arch-fallback.h **** 
 422:/mnt/c/Users/31740/Documents/codes/newcore-rp2350/include/linux/atomic/atomic-arch-fallback.h **** #ifdef arch_try_cmpxchg128_local
 423:/mnt/c/Users/31740/Documents/codes/newcore-rp2350/include/linux/atomic/atomic-arch-fallback.h **** #define raw_try_cmpxchg128_local arch_try_cmpxchg128_local
 424:/mnt/c/Users/31740/Documents/codes/newcore-rp2350/include/linux/atomic/atomic-arch-fallback.h **** #else
 425:/mnt/c/Users/31740/Documents/codes/newcore-rp2350/include/linux/atomic/atomic-arch-fallback.h **** #define raw_try_cmpxchg128_local(_ptr, _oldp, _new) \
 426:/mnt/c/Users/31740/Documents/codes/newcore-rp2350/include/linux/atomic/atomic-arch-fallback.h **** ({ \
 427:/mnt/c/Users/31740/Documents/codes/newcore-rp2350/include/linux/atomic/atomic-arch-fallback.h **** 	typeof(*(_ptr)) *___op = (_oldp), ___o = *___op, ___r; \
 428:/mnt/c/Users/31740/Documents/codes/newcore-rp2350/include/linux/atomic/atomic-arch-fallback.h **** 	___r = raw_cmpxchg128_local((_ptr), ___o, (_new)); \
 429:/mnt/c/Users/31740/Documents/codes/newcore-rp2350/include/linux/atomic/atomic-arch-fallback.h **** 	if (unlikely(___r != ___o)) \
 430:/mnt/c/Users/31740/Documents/codes/newcore-rp2350/include/linux/atomic/atomic-arch-fallback.h **** 		*___op = ___r; \
 431:/mnt/c/Users/31740/Documents/codes/newcore-rp2350/include/linux/atomic/atomic-arch-fallback.h **** 	likely(___r == ___o); \
 432:/mnt/c/Users/31740/Documents/codes/newcore-rp2350/include/linux/atomic/atomic-arch-fallback.h **** })
 433:/mnt/c/Users/31740/Documents/codes/newcore-rp2350/include/linux/atomic/atomic-arch-fallback.h **** #endif
 434:/mnt/c/Users/31740/Documents/codes/newcore-rp2350/include/linux/atomic/atomic-arch-fallback.h **** 
 435:/mnt/c/Users/31740/Documents/codes/newcore-rp2350/include/linux/atomic/atomic-arch-fallback.h **** #define raw_sync_cmpxchg arch_sync_cmpxchg
 436:/mnt/c/Users/31740/Documents/codes/newcore-rp2350/include/linux/atomic/atomic-arch-fallback.h **** 
 437:/mnt/c/Users/31740/Documents/codes/newcore-rp2350/include/linux/atomic/atomic-arch-fallback.h **** #ifdef arch_sync_try_cmpxchg
 438:/mnt/c/Users/31740/Documents/codes/newcore-rp2350/include/linux/atomic/atomic-arch-fallback.h **** #define raw_sync_try_cmpxchg arch_sync_try_cmpxchg
 439:/mnt/c/Users/31740/Documents/codes/newcore-rp2350/include/linux/atomic/atomic-arch-fallback.h **** #else
 440:/mnt/c/Users/31740/Documents/codes/newcore-rp2350/include/linux/atomic/atomic-arch-fallback.h **** #define raw_sync_try_cmpxchg(_ptr, _oldp, _new) \
 441:/mnt/c/Users/31740/Documents/codes/newcore-rp2350/include/linux/atomic/atomic-arch-fallback.h **** ({ \
 442:/mnt/c/Users/31740/Documents/codes/newcore-rp2350/include/linux/atomic/atomic-arch-fallback.h **** 	typeof(*(_ptr)) *___op = (_oldp), ___o = *___op, ___r; \
ARM GAS  /tmp/ccehv4l2.s 			page 22


 443:/mnt/c/Users/31740/Documents/codes/newcore-rp2350/include/linux/atomic/atomic-arch-fallback.h **** 	___r = raw_sync_cmpxchg((_ptr), ___o, (_new)); \
 444:/mnt/c/Users/31740/Documents/codes/newcore-rp2350/include/linux/atomic/atomic-arch-fallback.h **** 	if (unlikely(___r != ___o)) \
 445:/mnt/c/Users/31740/Documents/codes/newcore-rp2350/include/linux/atomic/atomic-arch-fallback.h **** 		*___op = ___r; \
 446:/mnt/c/Users/31740/Documents/codes/newcore-rp2350/include/linux/atomic/atomic-arch-fallback.h **** 	likely(___r == ___o); \
 447:/mnt/c/Users/31740/Documents/codes/newcore-rp2350/include/linux/atomic/atomic-arch-fallback.h **** })
 448:/mnt/c/Users/31740/Documents/codes/newcore-rp2350/include/linux/atomic/atomic-arch-fallback.h **** #endif
 449:/mnt/c/Users/31740/Documents/codes/newcore-rp2350/include/linux/atomic/atomic-arch-fallback.h **** 
 450:/mnt/c/Users/31740/Documents/codes/newcore-rp2350/include/linux/atomic/atomic-arch-fallback.h **** /**
 451:/mnt/c/Users/31740/Documents/codes/newcore-rp2350/include/linux/atomic/atomic-arch-fallback.h ****  * raw_atomic_read() - atomic load with relaxed ordering
 452:/mnt/c/Users/31740/Documents/codes/newcore-rp2350/include/linux/atomic/atomic-arch-fallback.h ****  * @v: pointer to atomic_t
 453:/mnt/c/Users/31740/Documents/codes/newcore-rp2350/include/linux/atomic/atomic-arch-fallback.h ****  *
 454:/mnt/c/Users/31740/Documents/codes/newcore-rp2350/include/linux/atomic/atomic-arch-fallback.h ****  * Atomically loads the value of @v with relaxed ordering.
 455:/mnt/c/Users/31740/Documents/codes/newcore-rp2350/include/linux/atomic/atomic-arch-fallback.h ****  *
 456:/mnt/c/Users/31740/Documents/codes/newcore-rp2350/include/linux/atomic/atomic-arch-fallback.h ****  * Safe to use in noinstr code; prefer atomic_read() elsewhere.
 457:/mnt/c/Users/31740/Documents/codes/newcore-rp2350/include/linux/atomic/atomic-arch-fallback.h ****  *
 458:/mnt/c/Users/31740/Documents/codes/newcore-rp2350/include/linux/atomic/atomic-arch-fallback.h ****  * Return: The value loaded from @v.
 459:/mnt/c/Users/31740/Documents/codes/newcore-rp2350/include/linux/atomic/atomic-arch-fallback.h ****  */
 460:/mnt/c/Users/31740/Documents/codes/newcore-rp2350/include/linux/atomic/atomic-arch-fallback.h **** static __always_inline int
 461:/mnt/c/Users/31740/Documents/codes/newcore-rp2350/include/linux/atomic/atomic-arch-fallback.h **** raw_atomic_read(const atomic_t *v)
 462:/mnt/c/Users/31740/Documents/codes/newcore-rp2350/include/linux/atomic/atomic-arch-fallback.h **** {
 463:/mnt/c/Users/31740/Documents/codes/newcore-rp2350/include/linux/atomic/atomic-arch-fallback.h **** 	return arch_atomic_read(v);
 464:/mnt/c/Users/31740/Documents/codes/newcore-rp2350/include/linux/atomic/atomic-arch-fallback.h **** }
 465:/mnt/c/Users/31740/Documents/codes/newcore-rp2350/include/linux/atomic/atomic-arch-fallback.h **** 
 466:/mnt/c/Users/31740/Documents/codes/newcore-rp2350/include/linux/atomic/atomic-arch-fallback.h **** /**
 467:/mnt/c/Users/31740/Documents/codes/newcore-rp2350/include/linux/atomic/atomic-arch-fallback.h ****  * raw_atomic_read_acquire() - atomic load with acquire ordering
 468:/mnt/c/Users/31740/Documents/codes/newcore-rp2350/include/linux/atomic/atomic-arch-fallback.h ****  * @v: pointer to atomic_t
 469:/mnt/c/Users/31740/Documents/codes/newcore-rp2350/include/linux/atomic/atomic-arch-fallback.h ****  *
 470:/mnt/c/Users/31740/Documents/codes/newcore-rp2350/include/linux/atomic/atomic-arch-fallback.h ****  * Atomically loads the value of @v with acquire ordering.
 471:/mnt/c/Users/31740/Documents/codes/newcore-rp2350/include/linux/atomic/atomic-arch-fallback.h ****  *
 472:/mnt/c/Users/31740/Documents/codes/newcore-rp2350/include/linux/atomic/atomic-arch-fallback.h ****  * Safe to use in noinstr code; prefer atomic_read_acquire() elsewhere.
 473:/mnt/c/Users/31740/Documents/codes/newcore-rp2350/include/linux/atomic/atomic-arch-fallback.h ****  *
 474:/mnt/c/Users/31740/Documents/codes/newcore-rp2350/include/linux/atomic/atomic-arch-fallback.h ****  * Return: The value loaded from @v.
 475:/mnt/c/Users/31740/Documents/codes/newcore-rp2350/include/linux/atomic/atomic-arch-fallback.h ****  */
 476:/mnt/c/Users/31740/Documents/codes/newcore-rp2350/include/linux/atomic/atomic-arch-fallback.h **** static __always_inline int
 477:/mnt/c/Users/31740/Documents/codes/newcore-rp2350/include/linux/atomic/atomic-arch-fallback.h **** raw_atomic_read_acquire(const atomic_t *v)
 478:/mnt/c/Users/31740/Documents/codes/newcore-rp2350/include/linux/atomic/atomic-arch-fallback.h **** {
 479:/mnt/c/Users/31740/Documents/codes/newcore-rp2350/include/linux/atomic/atomic-arch-fallback.h **** #if defined(arch_atomic_read_acquire)
 480:/mnt/c/Users/31740/Documents/codes/newcore-rp2350/include/linux/atomic/atomic-arch-fallback.h **** 	return arch_atomic_read_acquire(v);
 481:/mnt/c/Users/31740/Documents/codes/newcore-rp2350/include/linux/atomic/atomic-arch-fallback.h **** #else
 482:/mnt/c/Users/31740/Documents/codes/newcore-rp2350/include/linux/atomic/atomic-arch-fallback.h **** 	int ret;
 483:/mnt/c/Users/31740/Documents/codes/newcore-rp2350/include/linux/atomic/atomic-arch-fallback.h **** 
 484:/mnt/c/Users/31740/Documents/codes/newcore-rp2350/include/linux/atomic/atomic-arch-fallback.h **** 	if (__native_word(atomic_t)) {
 485:/mnt/c/Users/31740/Documents/codes/newcore-rp2350/include/linux/atomic/atomic-arch-fallback.h **** 		ret = smp_load_acquire(&(v)->counter);
 486:/mnt/c/Users/31740/Documents/codes/newcore-rp2350/include/linux/atomic/atomic-arch-fallback.h **** 	} else {
 487:/mnt/c/Users/31740/Documents/codes/newcore-rp2350/include/linux/atomic/atomic-arch-fallback.h **** 		ret = raw_atomic_read(v);
 488:/mnt/c/Users/31740/Documents/codes/newcore-rp2350/include/linux/atomic/atomic-arch-fallback.h **** 		__atomic_acquire_fence();
 489:/mnt/c/Users/31740/Documents/codes/newcore-rp2350/include/linux/atomic/atomic-arch-fallback.h **** 	}
 490:/mnt/c/Users/31740/Documents/codes/newcore-rp2350/include/linux/atomic/atomic-arch-fallback.h **** 
 491:/mnt/c/Users/31740/Documents/codes/newcore-rp2350/include/linux/atomic/atomic-arch-fallback.h **** 	return ret;
 492:/mnt/c/Users/31740/Documents/codes/newcore-rp2350/include/linux/atomic/atomic-arch-fallback.h **** #endif
 493:/mnt/c/Users/31740/Documents/codes/newcore-rp2350/include/linux/atomic/atomic-arch-fallback.h **** }
 494:/mnt/c/Users/31740/Documents/codes/newcore-rp2350/include/linux/atomic/atomic-arch-fallback.h **** 
 495:/mnt/c/Users/31740/Documents/codes/newcore-rp2350/include/linux/atomic/atomic-arch-fallback.h **** /**
 496:/mnt/c/Users/31740/Documents/codes/newcore-rp2350/include/linux/atomic/atomic-arch-fallback.h ****  * raw_atomic_set() - atomic set with relaxed ordering
 497:/mnt/c/Users/31740/Documents/codes/newcore-rp2350/include/linux/atomic/atomic-arch-fallback.h ****  * @v: pointer to atomic_t
 498:/mnt/c/Users/31740/Documents/codes/newcore-rp2350/include/linux/atomic/atomic-arch-fallback.h ****  * @i: int value to assign
 499:/mnt/c/Users/31740/Documents/codes/newcore-rp2350/include/linux/atomic/atomic-arch-fallback.h ****  *
ARM GAS  /tmp/ccehv4l2.s 			page 23


 500:/mnt/c/Users/31740/Documents/codes/newcore-rp2350/include/linux/atomic/atomic-arch-fallback.h ****  * Atomically sets @v to @i with relaxed ordering.
 501:/mnt/c/Users/31740/Documents/codes/newcore-rp2350/include/linux/atomic/atomic-arch-fallback.h ****  *
 502:/mnt/c/Users/31740/Documents/codes/newcore-rp2350/include/linux/atomic/atomic-arch-fallback.h ****  * Safe to use in noinstr code; prefer atomic_set() elsewhere.
 503:/mnt/c/Users/31740/Documents/codes/newcore-rp2350/include/linux/atomic/atomic-arch-fallback.h ****  *
 504:/mnt/c/Users/31740/Documents/codes/newcore-rp2350/include/linux/atomic/atomic-arch-fallback.h ****  * Return: Nothing.
 505:/mnt/c/Users/31740/Documents/codes/newcore-rp2350/include/linux/atomic/atomic-arch-fallback.h ****  */
 506:/mnt/c/Users/31740/Documents/codes/newcore-rp2350/include/linux/atomic/atomic-arch-fallback.h **** static __always_inline void
 507:/mnt/c/Users/31740/Documents/codes/newcore-rp2350/include/linux/atomic/atomic-arch-fallback.h **** raw_atomic_set(atomic_t *v, int i)
 105              		.loc 5 507 1 view .LVU20
 106              	.LBB71:
 508:/mnt/c/Users/31740/Documents/codes/newcore-rp2350/include/linux/atomic/atomic-arch-fallback.h **** {
 509:/mnt/c/Users/31740/Documents/codes/newcore-rp2350/include/linux/atomic/atomic-arch-fallback.h **** 	arch_atomic_set(v, i);
 107              		.loc 5 509 2 view .LVU21
 108              		.loc 5 509 2 view .LVU22
 109              	.LBB72:
 110              		.loc 5 509 2 view .LVU23
 111              		.loc 5 509 2 view .LVU24
 112              	.LBE72:
 113              		.loc 5 509 2 discriminator 2 view .LVU25
 114              		.loc 5 509 2 discriminator 2 view .LVU26
 115              		.loc 5 509 2 discriminator 2 view .LVU27
 116 0012 8261     		str	r2, [r0, #24]
 117              		.loc 5 509 2 discriminator 2 view .LVU28
 118              		.loc 5 509 2 discriminator 2 view .LVU29
 119              	.LVL7:
 120              		.loc 5 509 2 is_stmt 0 discriminator 2 view .LVU30
 121              	.LBE71:
 122              	.LBE70:
 123              	.LBE69:
 195:/mnt/c/Users/31740/Documents/codes/newcore-rp2350/include/linux/mm_type.h ****     atomic_set(&page->_refcount, 0); 
 124              		.loc 2 195 5 is_stmt 1 view .LVU31
 125              	.LBB73:
 126              	.LBI73:
  65:/mnt/c/Users/31740/Documents/codes/newcore-rp2350/include/linux/atomic/atomic-instrumented.h **** {
 127              		.loc 4 65 1 view .LVU32
  67:/mnt/c/Users/31740/Documents/codes/newcore-rp2350/include/linux/atomic/atomic-instrumented.h **** 	raw_atomic_set(v, i);
 128              		.loc 4 67 2 view .LVU33
 129              		.loc 4 68 2 view .LVU34
 130              	.LBB74:
 131              	.LBI74:
 507:/mnt/c/Users/31740/Documents/codes/newcore-rp2350/include/linux/atomic/atomic-arch-fallback.h **** {
 132              		.loc 5 507 1 view .LVU35
 133              	.LBB75:
 134              		.loc 5 509 2 view .LVU36
 135              		.loc 5 509 2 view .LVU37
 136              	.LBB76:
 137              		.loc 5 509 2 view .LVU38
 138              		.loc 5 509 2 view .LVU39
 139              	.LBE76:
 140              		.loc 5 509 2 discriminator 2 view .LVU40
 141              		.loc 5 509 2 discriminator 2 view .LVU41
 142              		.loc 5 509 2 discriminator 2 view .LVU42
 143 0014 C261     		str	r2, [r0, #28]
 144              		.loc 5 509 2 discriminator 2 view .LVU43
 145              		.loc 5 509 2 discriminator 2 view .LVU44
 146              	.LVL8:
 147              		.loc 5 509 2 is_stmt 0 discriminator 2 view .LVU45
ARM GAS  /tmp/ccehv4l2.s 			page 24


 148              	.LBE75:
 149              	.LBE74:
 150              	.LBE73:
 196:/mnt/c/Users/31740/Documents/codes/newcore-rp2350/include/linux/mm_type.h ****     page->zone_device_data = NULL;
 151              		.loc 2 196 5 is_stmt 1 view .LVU46
 152              		.loc 2 196 28 is_stmt 0 view .LVU47
 153 0016 4260     		str	r2, [r0, #4]
 197:/mnt/c/Users/31740/Documents/codes/newcore-rp2350/include/linux/mm_type.h ****     return page;
 154              		.loc 2 197 5 is_stmt 1 view .LVU48
 155              	.L3:
 198:/mnt/c/Users/31740/Documents/codes/newcore-rp2350/include/linux/mm_type.h **** }
 156              		.loc 2 198 1 is_stmt 0 view .LVU49
 157 0018 1846     		mov	r0, r3
 158              	.LVL9:
 159              		.loc 2 198 1 view .LVU50
 160 001a 08BD     		pop	{r3, pc}
 161              		.loc 2 198 1 view .LVU51
 162              		.cfi_endproc
 163              	.LFE907:
 165              		.section	.text.trans_data_to_blk_dev,"ax",%progbits
 166              		.align	1
 167              		.syntax unified
 168              		.thumb
 169              		.thumb_func
 171              	trans_data_to_blk_dev:
 172              	.LVL10:
 173              	.LFB1033:
  13:/mnt/c/Users/31740/Documents/codes/newcore-rp2350/block/partition.c **** static char * trans_data_to_blk_dev(struct block_device *bdev, sector_t block, unsigned size, char 
 174              		.loc 1 13 115 is_stmt 1 view -0
 175              		.cfi_startproc
 176              		@ args = 4, pretend = 0, frame = 0
 177              		@ frame_needed = 0, uses_anonymous_args = 0
 178              		.loc 1 13 115 is_stmt 0 view .LVU53
 179 0000 2DE9F043 		push	{r4, r5, r6, r7, r8, r9, lr}
 180              	.LCFI2:
 181              		.cfi_def_cfa_offset 28
 182              		.cfi_offset 4, -28
 183              		.cfi_offset 5, -24
 184              		.cfi_offset 6, -20
 185              		.cfi_offset 7, -16
 186              		.cfi_offset 8, -12
 187              		.cfi_offset 9, -8
 188              		.cfi_offset 14, -4
 189 0004 83B0     		sub	sp, sp, #12
 190              	.LCFI3:
 191              		.cfi_def_cfa_offset 40
 192 0006 0646     		mov	r6, r0
 193 0008 8846     		mov	r8, r1
 194 000a 1746     		mov	r7, r2
 195 000c 1D46     		mov	r5, r3
  14:/mnt/c/Users/31740/Documents/codes/newcore-rp2350/block/partition.c ****     struct page *page = virt_to_page((uint32_t)data);  
 196              		.loc 1 14 5 is_stmt 1 view .LVU54
 197              	.LVL11:
 198              	.LBB77:
 199              	.LBI77:
 199:/mnt/c/Users/31740/Documents/codes/newcore-rp2350/include/linux/mm_type.h **** static inline void __page_destroy(struct page *page){
 200:/mnt/c/Users/31740/Documents/codes/newcore-rp2350/include/linux/mm_type.h ****     if (page) 
ARM GAS  /tmp/ccehv4l2.s 			page 25


 201:/mnt/c/Users/31740/Documents/codes/newcore-rp2350/include/linux/mm_type.h **** 	{
 202:/mnt/c/Users/31740/Documents/codes/newcore-rp2350/include/linux/mm_type.h ****         kfree(page);
 203:/mnt/c/Users/31740/Documents/codes/newcore-rp2350/include/linux/mm_type.h **** 		page = NULL;
 204:/mnt/c/Users/31740/Documents/codes/newcore-rp2350/include/linux/mm_type.h ****     }
 205:/mnt/c/Users/31740/Documents/codes/newcore-rp2350/include/linux/mm_type.h **** }
 206:/mnt/c/Users/31740/Documents/codes/newcore-rp2350/include/linux/mm_type.h **** 
 207:/mnt/c/Users/31740/Documents/codes/newcore-rp2350/include/linux/mm_type.h **** 
 208:/mnt/c/Users/31740/Documents/codes/newcore-rp2350/include/linux/mm_type.h **** static inline void *__page_address(struct page *page){
 209:/mnt/c/Users/31740/Documents/codes/newcore-rp2350/include/linux/mm_type.h ****     return page ? page->zone_device_data : NULL; 
 210:/mnt/c/Users/31740/Documents/codes/newcore-rp2350/include/linux/mm_type.h **** }
 211:/mnt/c/Users/31740/Documents/codes/newcore-rp2350/include/linux/mm_type.h **** static inline void __set_page_dirty(struct page *page){
 212:/mnt/c/Users/31740/Documents/codes/newcore-rp2350/include/linux/mm_type.h ****     if (page)
 213:/mnt/c/Users/31740/Documents/codes/newcore-rp2350/include/linux/mm_type.h **** 	__set_page_flag(page, PG_dirty);
 214:/mnt/c/Users/31740/Documents/codes/newcore-rp2350/include/linux/mm_type.h **** }
 215:/mnt/c/Users/31740/Documents/codes/newcore-rp2350/include/linux/mm_type.h **** 
 216:/mnt/c/Users/31740/Documents/codes/newcore-rp2350/include/linux/mm_type.h **** static inline void __clear_page_dirty(struct page *page){
 217:/mnt/c/Users/31740/Documents/codes/newcore-rp2350/include/linux/mm_type.h ****     if (page)
 218:/mnt/c/Users/31740/Documents/codes/newcore-rp2350/include/linux/mm_type.h **** 	__clear_page_flag(page, PG_dirty);
 219:/mnt/c/Users/31740/Documents/codes/newcore-rp2350/include/linux/mm_type.h **** }
 220:/mnt/c/Users/31740/Documents/codes/newcore-rp2350/include/linux/mm_type.h **** 
 221:/mnt/c/Users/31740/Documents/codes/newcore-rp2350/include/linux/mm_type.h **** static inline struct page *__alloc_pages( gfp_t flags , unsigned int order ){
 222:/mnt/c/Users/31740/Documents/codes/newcore-rp2350/include/linux/mm_type.h **** 	struct page *page = __page_create(flags);
 223:/mnt/c/Users/31740/Documents/codes/newcore-rp2350/include/linux/mm_type.h **** 	if(page == NULL)
 224:/mnt/c/Users/31740/Documents/codes/newcore-rp2350/include/linux/mm_type.h **** 		return -ENOMEM ;
 225:/mnt/c/Users/31740/Documents/codes/newcore-rp2350/include/linux/mm_type.h **** 	void *data = (void *)kmalloc(PAGE_SIZE, flags);
 226:/mnt/c/Users/31740/Documents/codes/newcore-rp2350/include/linux/mm_type.h **** 	if(data == NULL){
 227:/mnt/c/Users/31740/Documents/codes/newcore-rp2350/include/linux/mm_type.h **** 		__page_destroy(page);
 228:/mnt/c/Users/31740/Documents/codes/newcore-rp2350/include/linux/mm_type.h **** 		return -ENOMEM ;
 229:/mnt/c/Users/31740/Documents/codes/newcore-rp2350/include/linux/mm_type.h **** 	}
 230:/mnt/c/Users/31740/Documents/codes/newcore-rp2350/include/linux/mm_type.h **** 	page->page_type = 1234;
 231:/mnt/c/Users/31740/Documents/codes/newcore-rp2350/include/linux/mm_type.h **** 	page->zone_device_data = data;
 232:/mnt/c/Users/31740/Documents/codes/newcore-rp2350/include/linux/mm_type.h **** 	return page;
 233:/mnt/c/Users/31740/Documents/codes/newcore-rp2350/include/linux/mm_type.h **** }
 234:/mnt/c/Users/31740/Documents/codes/newcore-rp2350/include/linux/mm_type.h **** 
 235:/mnt/c/Users/31740/Documents/codes/newcore-rp2350/include/linux/mm_type.h **** static inline void __free_pages(struct page *page, unsigned int order){
 236:/mnt/c/Users/31740/Documents/codes/newcore-rp2350/include/linux/mm_type.h ****     if (page) {
 237:/mnt/c/Users/31740/Documents/codes/newcore-rp2350/include/linux/mm_type.h **** 		if(page->page_type == 1234)
 238:/mnt/c/Users/31740/Documents/codes/newcore-rp2350/include/linux/mm_type.h **** 		kfree(page->zone_device_data);
 239:/mnt/c/Users/31740/Documents/codes/newcore-rp2350/include/linux/mm_type.h ****         __page_destroy(page);
 240:/mnt/c/Users/31740/Documents/codes/newcore-rp2350/include/linux/mm_type.h ****     }
 241:/mnt/c/Users/31740/Documents/codes/newcore-rp2350/include/linux/mm_type.h **** }
 242:/mnt/c/Users/31740/Documents/codes/newcore-rp2350/include/linux/mm_type.h **** 
 243:/mnt/c/Users/31740/Documents/codes/newcore-rp2350/include/linux/mm_type.h **** static inline struct page *__pfn_to_page(unsigned long pfn){
 200              		.loc 2 243 28 view .LVU55
 201              	.LBB78:
 244:/mnt/c/Users/31740/Documents/codes/newcore-rp2350/include/linux/mm_type.h **** 	struct page *page = __page_create(GFP_KERNEL);
 202              		.loc 2 244 2 view .LVU56
 203              		.loc 2 244 22 is_stmt 0 view .LVU57
 204 000e 4FF44C60 		mov	r0, #3264
 205              	.LVL12:
 206              		.loc 2 244 22 view .LVU58
 207 0012 FFF7FEFF 		bl	__page_create
 208              	.LVL13:
 245:/mnt/c/Users/31740/Documents/codes/newcore-rp2350/include/linux/mm_type.h **** 	if(page == NULL)
 209              		.loc 2 245 2 is_stmt 1 view .LVU59
 210              		.loc 2 245 4 is_stmt 0 view .LVU60
 211 0016 48B3     		cbz	r0, .L11
ARM GAS  /tmp/ccehv4l2.s 			page 26


 212 0018 8146     		mov	r9, r0
 246:/mnt/c/Users/31740/Documents/codes/newcore-rp2350/include/linux/mm_type.h **** 		return -ENOMEM ;
 247:/mnt/c/Users/31740/Documents/codes/newcore-rp2350/include/linux/mm_type.h **** 	page->zone_device_data = (void *)(pfn << 0 );
 213              		.loc 2 247 2 is_stmt 1 view .LVU61
 214              		.loc 2 247 25 is_stmt 0 view .LVU62
 215 001a 4560     		str	r5, [r0, #4]
 248:/mnt/c/Users/31740/Documents/codes/newcore-rp2350/include/linux/mm_type.h **** 	return page;
 216              		.loc 2 248 2 is_stmt 1 view .LVU63
 217              	.L7:
 218              	.LVL14:
 219              		.loc 2 248 2 is_stmt 0 view .LVU64
 220              	.LBE78:
 221              	.LBE77:
  15:/mnt/c/Users/31740/Documents/codes/newcore-rp2350/block/partition.c ****     struct bio *bio = bio_alloc(bdev,1,mod,GFP_KERNEL);
 222              		.loc 1 15 5 is_stmt 1 view .LVU65
 223              	.LBB80:
 224              	.LBI80:
 225              		.file 6 "/mnt/c/Users/31740/Documents/codes/newcore-rp2350/include/linux/bio.h"
   1:/mnt/c/Users/31740/Documents/codes/newcore-rp2350/include/linux/bio.h **** #ifndef _LINUX_BIO_H
   2:/mnt/c/Users/31740/Documents/codes/newcore-rp2350/include/linux/bio.h **** #define _LINUX_BIO_H
   3:/mnt/c/Users/31740/Documents/codes/newcore-rp2350/include/linux/bio.h **** 
   4:/mnt/c/Users/31740/Documents/codes/newcore-rp2350/include/linux/bio.h **** #include <linux/blk_types.h>
   5:/mnt/c/Users/31740/Documents/codes/newcore-rp2350/include/linux/bio.h **** #include <linux/slab.h>
   6:/mnt/c/Users/31740/Documents/codes/newcore-rp2350/include/linux/bio.h **** #include <linux/mempool.h>
   7:/mnt/c/Users/31740/Documents/codes/newcore-rp2350/include/linux/bio.h **** #include <linux/workqueue_types.h>
   8:/mnt/c/Users/31740/Documents/codes/newcore-rp2350/include/linux/bio.h **** 
   9:/mnt/c/Users/31740/Documents/codes/newcore-rp2350/include/linux/bio.h **** /* struct bio, bio_vec and BIO_* flags are defined in blk_types.h */
  10:/mnt/c/Users/31740/Documents/codes/newcore-rp2350/include/linux/bio.h **** #include <linux/uio.h>
  11:/mnt/c/Users/31740/Documents/codes/newcore-rp2350/include/linux/bio.h **** #include <linux/bvec.h>
  12:/mnt/c/Users/31740/Documents/codes/newcore-rp2350/include/linux/bio.h **** #include <linux/atomic.h>
  13:/mnt/c/Users/31740/Documents/codes/newcore-rp2350/include/linux/bio.h **** 
  14:/mnt/c/Users/31740/Documents/codes/newcore-rp2350/include/linux/bio.h **** struct bio ;
  15:/mnt/c/Users/31740/Documents/codes/newcore-rp2350/include/linux/bio.h **** 
  16:/mnt/c/Users/31740/Documents/codes/newcore-rp2350/include/linux/bio.h **** #define page_address(x) x
  17:/mnt/c/Users/31740/Documents/codes/newcore-rp2350/include/linux/bio.h **** 
  18:/mnt/c/Users/31740/Documents/codes/newcore-rp2350/include/linux/bio.h **** #define BIO_MAX_VECS		256u
  19:/mnt/c/Users/31740/Documents/codes/newcore-rp2350/include/linux/bio.h **** 
  20:/mnt/c/Users/31740/Documents/codes/newcore-rp2350/include/linux/bio.h **** struct queue_limits;
  21:/mnt/c/Users/31740/Documents/codes/newcore-rp2350/include/linux/bio.h **** 
  22:/mnt/c/Users/31740/Documents/codes/newcore-rp2350/include/linux/bio.h **** static inline unsigned int bio_max_segs(unsigned int nr_segs)
  23:/mnt/c/Users/31740/Documents/codes/newcore-rp2350/include/linux/bio.h **** {
  24:/mnt/c/Users/31740/Documents/codes/newcore-rp2350/include/linux/bio.h **** 	return min(nr_segs, BIO_MAX_VECS);
  25:/mnt/c/Users/31740/Documents/codes/newcore-rp2350/include/linux/bio.h **** }
  26:/mnt/c/Users/31740/Documents/codes/newcore-rp2350/include/linux/bio.h **** 
  27:/mnt/c/Users/31740/Documents/codes/newcore-rp2350/include/linux/bio.h **** #define bio_prio(bio)			(bio)->bi_ioprio
  28:/mnt/c/Users/31740/Documents/codes/newcore-rp2350/include/linux/bio.h **** #define bio_set_prio(bio, prio)		((bio)->bi_ioprio = prio)
  29:/mnt/c/Users/31740/Documents/codes/newcore-rp2350/include/linux/bio.h **** 
  30:/mnt/c/Users/31740/Documents/codes/newcore-rp2350/include/linux/bio.h **** #define bio_iter_iovec(bio, iter)				\
  31:/mnt/c/Users/31740/Documents/codes/newcore-rp2350/include/linux/bio.h **** 	bvec_iter_bvec((bio)->bi_io_vec, (iter))
  32:/mnt/c/Users/31740/Documents/codes/newcore-rp2350/include/linux/bio.h **** 
  33:/mnt/c/Users/31740/Documents/codes/newcore-rp2350/include/linux/bio.h **** #define bio_iter_page(bio, iter)				\
  34:/mnt/c/Users/31740/Documents/codes/newcore-rp2350/include/linux/bio.h **** 	bvec_iter_page((bio)->bi_io_vec, (iter))
  35:/mnt/c/Users/31740/Documents/codes/newcore-rp2350/include/linux/bio.h **** #define bio_iter_len(bio, iter)					\
  36:/mnt/c/Users/31740/Documents/codes/newcore-rp2350/include/linux/bio.h **** 	bvec_iter_len((bio)->bi_io_vec, (iter))
  37:/mnt/c/Users/31740/Documents/codes/newcore-rp2350/include/linux/bio.h **** #define bio_iter_offset(bio, iter)				\
  38:/mnt/c/Users/31740/Documents/codes/newcore-rp2350/include/linux/bio.h **** 	bvec_iter_offset((bio)->bi_io_vec, (iter))
  39:/mnt/c/Users/31740/Documents/codes/newcore-rp2350/include/linux/bio.h **** 
ARM GAS  /tmp/ccehv4l2.s 			page 27


  40:/mnt/c/Users/31740/Documents/codes/newcore-rp2350/include/linux/bio.h **** 
  41:/mnt/c/Users/31740/Documents/codes/newcore-rp2350/include/linux/bio.h **** #define bio_page(bio)		bio_iter_page((bio), (bio)->bi_iter)
  42:/mnt/c/Users/31740/Documents/codes/newcore-rp2350/include/linux/bio.h **** #define bio_offset(bio)		bio_iter_offset((bio), (bio)->bi_iter)
  43:/mnt/c/Users/31740/Documents/codes/newcore-rp2350/include/linux/bio.h **** #define bio_iovec(bio)		bio_iter_iovec((bio), (bio)->bi_iter)
  44:/mnt/c/Users/31740/Documents/codes/newcore-rp2350/include/linux/bio.h **** 
  45:/mnt/c/Users/31740/Documents/codes/newcore-rp2350/include/linux/bio.h **** #define bvec_iter_sectors(iter)	((iter).bi_size >> 9)
  46:/mnt/c/Users/31740/Documents/codes/newcore-rp2350/include/linux/bio.h **** #define bvec_iter_end_sector(iter) ((iter).bi_sector + bvec_iter_sectors((iter)))
  47:/mnt/c/Users/31740/Documents/codes/newcore-rp2350/include/linux/bio.h **** 
  48:/mnt/c/Users/31740/Documents/codes/newcore-rp2350/include/linux/bio.h **** #define bio_sectors(bio)	bvec_iter_sectors((bio)->bi_iter)
  49:/mnt/c/Users/31740/Documents/codes/newcore-rp2350/include/linux/bio.h **** #define bio_end_sector(bio)	bvec_iter_end_sector((bio)->bi_iter)
  50:/mnt/c/Users/31740/Documents/codes/newcore-rp2350/include/linux/bio.h **** 
  51:/mnt/c/Users/31740/Documents/codes/newcore-rp2350/include/linux/bio.h **** /*
  52:/mnt/c/Users/31740/Documents/codes/newcore-rp2350/include/linux/bio.h ****  * Return the data direction, READ or WRITE.
  53:/mnt/c/Users/31740/Documents/codes/newcore-rp2350/include/linux/bio.h ****  */
  54:/mnt/c/Users/31740/Documents/codes/newcore-rp2350/include/linux/bio.h **** #define bio_data_dir(bio) \
  55:/mnt/c/Users/31740/Documents/codes/newcore-rp2350/include/linux/bio.h **** 	(op_is_write(bio_op(bio)) ? WRITE : READ)
  56:/mnt/c/Users/31740/Documents/codes/newcore-rp2350/include/linux/bio.h **** 
  57:/mnt/c/Users/31740/Documents/codes/newcore-rp2350/include/linux/bio.h **** 
  58:/mnt/c/Users/31740/Documents/codes/newcore-rp2350/include/linux/bio.h **** /*
  59:/mnt/c/Users/31740/Documents/codes/newcore-rp2350/include/linux/bio.h ****  * Check whether this bio carries any data or not. A NULL bio is allowed.
  60:/mnt/c/Users/31740/Documents/codes/newcore-rp2350/include/linux/bio.h ****  */
  61:/mnt/c/Users/31740/Documents/codes/newcore-rp2350/include/linux/bio.h **** static inline bool bio_has_data(struct bio *bio)
  62:/mnt/c/Users/31740/Documents/codes/newcore-rp2350/include/linux/bio.h **** {
  63:/mnt/c/Users/31740/Documents/codes/newcore-rp2350/include/linux/bio.h **** 	if (bio &&
  64:/mnt/c/Users/31740/Documents/codes/newcore-rp2350/include/linux/bio.h **** 	    bio->bi_iter.bi_size &&
  65:/mnt/c/Users/31740/Documents/codes/newcore-rp2350/include/linux/bio.h **** 	    bio_op(bio) != REQ_OP_DISCARD &&
  66:/mnt/c/Users/31740/Documents/codes/newcore-rp2350/include/linux/bio.h **** 	    bio_op(bio) != REQ_OP_SECURE_ERASE &&
  67:/mnt/c/Users/31740/Documents/codes/newcore-rp2350/include/linux/bio.h **** 	    bio_op(bio) != REQ_OP_WRITE_ZEROES)
  68:/mnt/c/Users/31740/Documents/codes/newcore-rp2350/include/linux/bio.h **** 		return true;
  69:/mnt/c/Users/31740/Documents/codes/newcore-rp2350/include/linux/bio.h **** 
  70:/mnt/c/Users/31740/Documents/codes/newcore-rp2350/include/linux/bio.h **** 	return false;
  71:/mnt/c/Users/31740/Documents/codes/newcore-rp2350/include/linux/bio.h **** }
  72:/mnt/c/Users/31740/Documents/codes/newcore-rp2350/include/linux/bio.h **** 
  73:/mnt/c/Users/31740/Documents/codes/newcore-rp2350/include/linux/bio.h **** static inline bool bio_no_advance_iter(const struct bio *bio)
  74:/mnt/c/Users/31740/Documents/codes/newcore-rp2350/include/linux/bio.h **** {
  75:/mnt/c/Users/31740/Documents/codes/newcore-rp2350/include/linux/bio.h **** 	return bio_op(bio) == REQ_OP_DISCARD ||
  76:/mnt/c/Users/31740/Documents/codes/newcore-rp2350/include/linux/bio.h **** 	       bio_op(bio) == REQ_OP_SECURE_ERASE ||
  77:/mnt/c/Users/31740/Documents/codes/newcore-rp2350/include/linux/bio.h **** 	       bio_op(bio) == REQ_OP_WRITE_ZEROES;
  78:/mnt/c/Users/31740/Documents/codes/newcore-rp2350/include/linux/bio.h **** }
  79:/mnt/c/Users/31740/Documents/codes/newcore-rp2350/include/linux/bio.h **** 
  80:/mnt/c/Users/31740/Documents/codes/newcore-rp2350/include/linux/bio.h **** 
  81:/mnt/c/Users/31740/Documents/codes/newcore-rp2350/include/linux/bio.h **** static inline void * bio_data(struct bio *bio)
  82:/mnt/c/Users/31740/Documents/codes/newcore-rp2350/include/linux/bio.h **** {
  83:/mnt/c/Users/31740/Documents/codes/newcore-rp2350/include/linux/bio.h **** 	#if (MMU == _ENABLE_)
  84:/mnt/c/Users/31740/Documents/codes/newcore-rp2350/include/linux/bio.h **** 	if (bio_has_data(bio)){
  85:/mnt/c/Users/31740/Documents/codes/newcore-rp2350/include/linux/bio.h **** 		return page_address(bio_page(bio)) + bio_offset(bio);		
  86:/mnt/c/Users/31740/Documents/codes/newcore-rp2350/include/linux/bio.h **** 	}
  87:/mnt/c/Users/31740/Documents/codes/newcore-rp2350/include/linux/bio.h **** 	#else
  88:/mnt/c/Users/31740/Documents/codes/newcore-rp2350/include/linux/bio.h **** 		struct bio_vec *bv = &bio->bi_io_vec[bio->bi_iter.bi_idx];
  89:/mnt/c/Users/31740/Documents/codes/newcore-rp2350/include/linux/bio.h **** 		return kmap(bv->bv_page);
  90:/mnt/c/Users/31740/Documents/codes/newcore-rp2350/include/linux/bio.h **** 	#endif	
  91:/mnt/c/Users/31740/Documents/codes/newcore-rp2350/include/linux/bio.h **** 	return NULL;
  92:/mnt/c/Users/31740/Documents/codes/newcore-rp2350/include/linux/bio.h **** }
  93:/mnt/c/Users/31740/Documents/codes/newcore-rp2350/include/linux/bio.h **** 
  94:/mnt/c/Users/31740/Documents/codes/newcore-rp2350/include/linux/bio.h **** 
  95:/mnt/c/Users/31740/Documents/codes/newcore-rp2350/include/linux/bio.h **** 	
  96:/mnt/c/Users/31740/Documents/codes/newcore-rp2350/include/linux/bio.h **** 
ARM GAS  /tmp/ccehv4l2.s 			page 28


  97:/mnt/c/Users/31740/Documents/codes/newcore-rp2350/include/linux/bio.h **** 
  98:/mnt/c/Users/31740/Documents/codes/newcore-rp2350/include/linux/bio.h **** 
  99:/mnt/c/Users/31740/Documents/codes/newcore-rp2350/include/linux/bio.h **** 
 100:/mnt/c/Users/31740/Documents/codes/newcore-rp2350/include/linux/bio.h **** static inline bool bio_flagged(struct bio *bio, unsigned int bit)
 101:/mnt/c/Users/31740/Documents/codes/newcore-rp2350/include/linux/bio.h **** {
 102:/mnt/c/Users/31740/Documents/codes/newcore-rp2350/include/linux/bio.h **** 	return bio->bi_flags & (1U << bit);
 103:/mnt/c/Users/31740/Documents/codes/newcore-rp2350/include/linux/bio.h **** }
 104:/mnt/c/Users/31740/Documents/codes/newcore-rp2350/include/linux/bio.h **** 
 105:/mnt/c/Users/31740/Documents/codes/newcore-rp2350/include/linux/bio.h **** static inline void bio_set_flag(struct bio *bio, unsigned int bit)
 106:/mnt/c/Users/31740/Documents/codes/newcore-rp2350/include/linux/bio.h **** {
 107:/mnt/c/Users/31740/Documents/codes/newcore-rp2350/include/linux/bio.h **** 	bio->bi_flags |= (1U << bit);
 108:/mnt/c/Users/31740/Documents/codes/newcore-rp2350/include/linux/bio.h **** }
 109:/mnt/c/Users/31740/Documents/codes/newcore-rp2350/include/linux/bio.h **** 
 110:/mnt/c/Users/31740/Documents/codes/newcore-rp2350/include/linux/bio.h **** static inline void bio_clear_flag(struct bio *bio, unsigned int bit)
 111:/mnt/c/Users/31740/Documents/codes/newcore-rp2350/include/linux/bio.h **** {
 112:/mnt/c/Users/31740/Documents/codes/newcore-rp2350/include/linux/bio.h **** 	bio->bi_flags &= ~(1U << bit);
 113:/mnt/c/Users/31740/Documents/codes/newcore-rp2350/include/linux/bio.h **** }
 114:/mnt/c/Users/31740/Documents/codes/newcore-rp2350/include/linux/bio.h **** 
 115:/mnt/c/Users/31740/Documents/codes/newcore-rp2350/include/linux/bio.h **** /**
 116:/mnt/c/Users/31740/Documents/codes/newcore-rp2350/include/linux/bio.h ****  * struct folio_iter - State for iterating all folios in a bio.
 117:/mnt/c/Users/31740/Documents/codes/newcore-rp2350/include/linux/bio.h ****  * @folio: The current folio we're iterating.  NULL after the last folio.
 118:/mnt/c/Users/31740/Documents/codes/newcore-rp2350/include/linux/bio.h ****  * @offset: The byte offset within the current folio.
 119:/mnt/c/Users/31740/Documents/codes/newcore-rp2350/include/linux/bio.h ****  * @length: The number of bytes in this iteration (will not cross folio
 120:/mnt/c/Users/31740/Documents/codes/newcore-rp2350/include/linux/bio.h ****  *	boundary).
 121:/mnt/c/Users/31740/Documents/codes/newcore-rp2350/include/linux/bio.h ****  */
 122:/mnt/c/Users/31740/Documents/codes/newcore-rp2350/include/linux/bio.h **** struct folio_iter {
 123:/mnt/c/Users/31740/Documents/codes/newcore-rp2350/include/linux/bio.h **** 	struct folio *folio;
 124:/mnt/c/Users/31740/Documents/codes/newcore-rp2350/include/linux/bio.h **** 	size_t offset;
 125:/mnt/c/Users/31740/Documents/codes/newcore-rp2350/include/linux/bio.h **** 	size_t length;
 126:/mnt/c/Users/31740/Documents/codes/newcore-rp2350/include/linux/bio.h **** 	/* private: for use by the iterator */
 127:/mnt/c/Users/31740/Documents/codes/newcore-rp2350/include/linux/bio.h **** 	struct folio *_next;
 128:/mnt/c/Users/31740/Documents/codes/newcore-rp2350/include/linux/bio.h **** 	size_t _seg_count;
 129:/mnt/c/Users/31740/Documents/codes/newcore-rp2350/include/linux/bio.h **** 	int _i;
 130:/mnt/c/Users/31740/Documents/codes/newcore-rp2350/include/linux/bio.h **** };
 131:/mnt/c/Users/31740/Documents/codes/newcore-rp2350/include/linux/bio.h **** 
 132:/mnt/c/Users/31740/Documents/codes/newcore-rp2350/include/linux/bio.h **** 
 133:/mnt/c/Users/31740/Documents/codes/newcore-rp2350/include/linux/bio.h **** 
 134:/mnt/c/Users/31740/Documents/codes/newcore-rp2350/include/linux/bio.h **** void submit_bio(struct bio *bio);
 135:/mnt/c/Users/31740/Documents/codes/newcore-rp2350/include/linux/bio.h **** void submit_bio_wait(struct bio *bio);
 136:/mnt/c/Users/31740/Documents/codes/newcore-rp2350/include/linux/bio.h **** 
 137:/mnt/c/Users/31740/Documents/codes/newcore-rp2350/include/linux/bio.h **** int __must_check bio_add_page(struct bio *bio, struct page *page,
 138:/mnt/c/Users/31740/Documents/codes/newcore-rp2350/include/linux/bio.h ****     unsigned int len, unsigned int offset);
 139:/mnt/c/Users/31740/Documents/codes/newcore-rp2350/include/linux/bio.h **** 
 140:/mnt/c/Users/31740/Documents/codes/newcore-rp2350/include/linux/bio.h **** int __bio_add_page(struct bio *bio, struct page *page,
 141:/mnt/c/Users/31740/Documents/codes/newcore-rp2350/include/linux/bio.h ****     unsigned int len, unsigned int off);
 142:/mnt/c/Users/31740/Documents/codes/newcore-rp2350/include/linux/bio.h **** 
 143:/mnt/c/Users/31740/Documents/codes/newcore-rp2350/include/linux/bio.h **** extern struct bio_set fs_bio_set;
 144:/mnt/c/Users/31740/Documents/codes/newcore-rp2350/include/linux/bio.h **** 
 145:/mnt/c/Users/31740/Documents/codes/newcore-rp2350/include/linux/bio.h **** struct bio *bio_alloc_bioset(struct block_device *bdev, unsigned short nr_iovecs,
 146:/mnt/c/Users/31740/Documents/codes/newcore-rp2350/include/linux/bio.h ****     blk_opf_t opf, gfp_t gfp_mask,
 147:/mnt/c/Users/31740/Documents/codes/newcore-rp2350/include/linux/bio.h ****     struct bio_set *bs);
 148:/mnt/c/Users/31740/Documents/codes/newcore-rp2350/include/linux/bio.h **** 
 149:/mnt/c/Users/31740/Documents/codes/newcore-rp2350/include/linux/bio.h **** static inline struct bio *bio_alloc(struct block_device	*bi_bdev,
 226              		.loc 6 149 27 view .LVU66
 227              	.LBB81:
 150:/mnt/c/Users/31740/Documents/codes/newcore-rp2350/include/linux/bio.h **** 		 unsigned short nr_iovecs , blk_opf_t opf, gfp_t gfp_mask)
 151:/mnt/c/Users/31740/Documents/codes/newcore-rp2350/include/linux/bio.h **** {
ARM GAS  /tmp/ccehv4l2.s 			page 29


 152:/mnt/c/Users/31740/Documents/codes/newcore-rp2350/include/linux/bio.h **** 	return bio_alloc_bioset(bi_bdev,nr_iovecs,opf,gfp_mask,&fs_bio_set);
 228              		.loc 6 152 2 view .LVU67
 229              		.loc 6 152 9 is_stmt 0 view .LVU68
 230 001c 174B     		ldr	r3, .L14
 231 001e 0093     		str	r3, [sp]
 232 0020 4FF44C63 		mov	r3, #3264
 233 0024 0A9A     		ldr	r2, [sp, #40]
 234 0026 0121     		movs	r1, #1
 235 0028 3046     		mov	r0, r6
 236 002a FFF7FEFF 		bl	bio_alloc_bioset
 237              	.LVL15:
 238 002e 0446     		mov	r4, r0
 239              	.LVL16:
 240              		.loc 6 152 9 view .LVU69
 241              	.LBE81:
 242              	.LBE80:
  16:/mnt/c/Users/31740/Documents/codes/newcore-rp2350/block/partition.c ****     bio_set_dev(bio,bdev);                                           //
 243              		.loc 1 16 5 is_stmt 1 view .LVU70
 244              	.LBB82:
 245              	.LBI82:
 153:/mnt/c/Users/31740/Documents/codes/newcore-rp2350/include/linux/bio.h **** }
 154:/mnt/c/Users/31740/Documents/codes/newcore-rp2350/include/linux/bio.h **** 
 155:/mnt/c/Users/31740/Documents/codes/newcore-rp2350/include/linux/bio.h **** extern void bio_put(struct bio *);
 156:/mnt/c/Users/31740/Documents/codes/newcore-rp2350/include/linux/bio.h **** 
 157:/mnt/c/Users/31740/Documents/codes/newcore-rp2350/include/linux/bio.h **** 
 158:/mnt/c/Users/31740/Documents/codes/newcore-rp2350/include/linux/bio.h **** 
 159:/mnt/c/Users/31740/Documents/codes/newcore-rp2350/include/linux/bio.h **** static inline void bio_associate_blkg(struct bio *bio) { }
 160:/mnt/c/Users/31740/Documents/codes/newcore-rp2350/include/linux/bio.h **** 
 161:/mnt/c/Users/31740/Documents/codes/newcore-rp2350/include/linux/bio.h **** static inline void bio_set_dev(struct bio *bio, struct block_device *bdev)
 246              		.loc 6 161 20 view .LVU71
 247              	.LBB83:
 162:/mnt/c/Users/31740/Documents/codes/newcore-rp2350/include/linux/bio.h **** {
 163:/mnt/c/Users/31740/Documents/codes/newcore-rp2350/include/linux/bio.h **** 	bio_clear_flag(bio, BIO_REMAPPED);
 248              		.loc 6 163 2 view .LVU72
 249              	.LBB84:
 250              	.LBI84:
 110:/mnt/c/Users/31740/Documents/codes/newcore-rp2350/include/linux/bio.h **** {
 251              		.loc 6 110 20 view .LVU73
 252              	.LBB85:
 112:/mnt/c/Users/31740/Documents/codes/newcore-rp2350/include/linux/bio.h **** }
 253              		.loc 6 112 2 view .LVU74
 112:/mnt/c/Users/31740/Documents/codes/newcore-rp2350/include/linux/bio.h **** }
 254              		.loc 6 112 5 is_stmt 0 view .LVU75
 255 0030 8389     		ldrh	r3, [r0, #12]
 112:/mnt/c/Users/31740/Documents/codes/newcore-rp2350/include/linux/bio.h **** }
 256              		.loc 6 112 16 view .LVU76
 257 0032 23F40062 		bic	r2, r3, #2048
 258 0036 8281     		strh	r2, [r0, #12]	@ movhi
 259              	.LVL17:
 112:/mnt/c/Users/31740/Documents/codes/newcore-rp2350/include/linux/bio.h **** }
 260              		.loc 6 112 16 view .LVU77
 261              	.LBE85:
 262              	.LBE84:
 164:/mnt/c/Users/31740/Documents/codes/newcore-rp2350/include/linux/bio.h **** 	if (bio->bi_bdev != bdev)
 263              		.loc 6 164 2 is_stmt 1 view .LVU78
 264              		.loc 6 164 9 is_stmt 0 view .LVU79
 265 0038 4268     		ldr	r2, [r0, #4]
ARM GAS  /tmp/ccehv4l2.s 			page 30


 266              		.loc 6 164 5 view .LVU80
 267 003a 9642     		cmp	r6, r2
 268 003c 02D0     		beq	.L8
 165:/mnt/c/Users/31740/Documents/codes/newcore-rp2350/include/linux/bio.h **** 		bio_clear_flag(bio, BIO_BPS_THROTTLED);
 269              		.loc 6 165 3 is_stmt 1 view .LVU81
 270              	.LVL18:
 271              	.LBB86:
 272              	.LBI86:
 110:/mnt/c/Users/31740/Documents/codes/newcore-rp2350/include/linux/bio.h **** {
 273              		.loc 6 110 20 view .LVU82
 274              	.LBB87:
 112:/mnt/c/Users/31740/Documents/codes/newcore-rp2350/include/linux/bio.h **** }
 275              		.loc 6 112 2 view .LVU83
 112:/mnt/c/Users/31740/Documents/codes/newcore-rp2350/include/linux/bio.h **** }
 276              		.loc 6 112 16 is_stmt 0 view .LVU84
 277 003e 23F40463 		bic	r3, r3, #2112
 278 0042 8381     		strh	r3, [r0, #12]	@ movhi
 279              	.LVL19:
 280              	.L8:
 112:/mnt/c/Users/31740/Documents/codes/newcore-rp2350/include/linux/bio.h **** }
 281              		.loc 6 112 16 view .LVU85
 282              	.LBE87:
 283              	.LBE86:
 166:/mnt/c/Users/31740/Documents/codes/newcore-rp2350/include/linux/bio.h **** 	bio->bi_bdev = bdev;
 284              		.loc 6 166 2 is_stmt 1 view .LVU86
 285              		.loc 6 166 15 is_stmt 0 view .LVU87
 286 0044 6660     		str	r6, [r4, #4]
 167:/mnt/c/Users/31740/Documents/codes/newcore-rp2350/include/linux/bio.h **** 	bio_associate_blkg(bio);
 287              		.loc 6 167 2 is_stmt 1 view .LVU88
 288              	.LVL20:
 289              		.loc 6 167 2 is_stmt 0 view .LVU89
 290              	.LBE83:
 291              	.LBE82:
  17:/mnt/c/Users/31740/Documents/codes/newcore-rp2350/block/partition.c ****     bio->bi_iter.bi_sector = block;
 292              		.loc 1 17 5 is_stmt 1 view .LVU90
 293              		.loc 1 17 28 is_stmt 0 view .LVU91
 294 0046 C4F81880 		str	r8, [r4, #24]
  18:/mnt/c/Users/31740/Documents/codes/newcore-rp2350/block/partition.c ****     bio->bi_end_io = my_end_io;
 295              		.loc 1 18 5 is_stmt 1 view .LVU92
 296              		.loc 1 18 20 is_stmt 0 view .LVU93
 297 004a 0D4B     		ldr	r3, .L14+4
 298 004c E362     		str	r3, [r4, #44]
  19:/mnt/c/Users/31740/Documents/codes/newcore-rp2350/block/partition.c ****     if(bio_add_page(bio, page, size, offset_in_page(data)) < 0 ){
 299              		.loc 1 19 5 is_stmt 1 view .LVU94
 300              		.loc 1 19 8 is_stmt 0 view .LVU95
 301 004e 0023     		movs	r3, #0
 302 0050 3A46     		mov	r2, r7
 303 0052 4946     		mov	r1, r9
 304 0054 2046     		mov	r0, r4
 305              	.LVL21:
 306              		.loc 1 19 8 view .LVU96
 307 0056 FFF7FEFF 		bl	bio_add_page
 308              	.LVL22:
 309              		.loc 1 19 7 discriminator 1 view .LVU97
 310 005a 0028     		cmp	r0, #0
 311 005c 09DB     		blt	.L13
  20:/mnt/c/Users/31740/Documents/codes/newcore-rp2350/block/partition.c ****         bio_put(bio);
ARM GAS  /tmp/ccehv4l2.s 			page 31


  21:/mnt/c/Users/31740/Documents/codes/newcore-rp2350/block/partition.c ****         return NULL;
  22:/mnt/c/Users/31740/Documents/codes/newcore-rp2350/block/partition.c ****     }
  23:/mnt/c/Users/31740/Documents/codes/newcore-rp2350/block/partition.c ****     submit_bio_wait(bio);
 312              		.loc 1 23 5 is_stmt 1 view .LVU98
 313 005e 2046     		mov	r0, r4
 314 0060 FFF7FEFF 		bl	submit_bio_wait
 315              	.LVL23:
  24:/mnt/c/Users/31740/Documents/codes/newcore-rp2350/block/partition.c ****     return data;
 316              		.loc 1 24 5 view .LVU99
 317              		.loc 1 24 12 is_stmt 0 view .LVU100
 318 0064 2846     		mov	r0, r5
 319              	.L6:
  25:/mnt/c/Users/31740/Documents/codes/newcore-rp2350/block/partition.c **** }
 320              		.loc 1 25 1 view .LVU101
 321 0066 03B0     		add	sp, sp, #12
 322              	.LCFI4:
 323              		.cfi_remember_state
 324              		.cfi_def_cfa_offset 28
 325              		@ sp needed
 326 0068 BDE8F083 		pop	{r4, r5, r6, r7, r8, r9, pc}
 327              	.LVL24:
 328              	.L11:
 329              	.LCFI5:
 330              		.cfi_restore_state
 331              	.LBB88:
 332              	.LBB79:
 246:/mnt/c/Users/31740/Documents/codes/newcore-rp2350/include/linux/mm_type.h **** 	page->zone_device_data = (void *)(pfn << 0 );
 333              		.loc 2 246 10 view .LVU102
 334 006c 6FF00B09 		mvn	r9, #11
 335 0070 D4E7     		b	.L7
 336              	.LVL25:
 337              	.L13:
 246:/mnt/c/Users/31740/Documents/codes/newcore-rp2350/include/linux/mm_type.h **** 	page->zone_device_data = (void *)(pfn << 0 );
 338              		.loc 2 246 10 view .LVU103
 339              	.LBE79:
 340              	.LBE88:
  20:/mnt/c/Users/31740/Documents/codes/newcore-rp2350/block/partition.c ****         return NULL;
 341              		.loc 1 20 9 is_stmt 1 view .LVU104
 342 0072 2046     		mov	r0, r4
 343 0074 FFF7FEFF 		bl	bio_put
 344              	.LVL26:
  21:/mnt/c/Users/31740/Documents/codes/newcore-rp2350/block/partition.c ****     }
 345              		.loc 1 21 9 view .LVU105
  21:/mnt/c/Users/31740/Documents/codes/newcore-rp2350/block/partition.c ****     }
 346              		.loc 1 21 16 is_stmt 0 view .LVU106
 347 0078 0020     		movs	r0, #0
 348 007a F4E7     		b	.L6
 349              	.L15:
 350              		.align	2
 351              	.L14:
 352 007c 00000000 		.word	fs_bio_set
 353 0080 00000000 		.word	my_end_io
 354              		.cfi_endproc
 355              	.LFE1033:
 357              		.section	.text.detect_partition_table,"ax",%progbits
 358              		.align	1
 359              		.syntax unified
ARM GAS  /tmp/ccehv4l2.s 			page 32


 360              		.thumb
 361              		.thumb_func
 363              	detect_partition_table:
 364              	.LVL27:
 365              	.LFB1034:
  26:/mnt/c/Users/31740/Documents/codes/newcore-rp2350/block/partition.c **** 
  27:/mnt/c/Users/31740/Documents/codes/newcore-rp2350/block/partition.c **** 
  28:/mnt/c/Users/31740/Documents/codes/newcore-rp2350/block/partition.c **** 
  29:/mnt/c/Users/31740/Documents/codes/newcore-rp2350/block/partition.c **** 
  30:/mnt/c/Users/31740/Documents/codes/newcore-rp2350/block/partition.c **** static uint8_t gpt_head[8] = {0x45, 0x46, 0x49, 0x20, 0x50, 0x41, 0x52, 0x54};
  31:/mnt/c/Users/31740/Documents/codes/newcore-rp2350/block/partition.c **** 
  32:/mnt/c/Users/31740/Documents/codes/newcore-rp2350/block/partition.c **** /**
  33:/mnt/c/Users/31740/Documents/codes/newcore-rp2350/block/partition.c ****  * detect_partition_table - Detect the partition table of the block device
  34:/mnt/c/Users/31740/Documents/codes/newcore-rp2350/block/partition.c ****  * @device: pointer to the block device to check
  35:/mnt/c/Users/31740/Documents/codes/newcore-rp2350/block/partition.c ****  * @block_buffer: buffer to hold the data read from the block device
  36:/mnt/c/Users/31740/Documents/codes/newcore-rp2350/block/partition.c ****  * @flags: pointer to a variable to store the partition table type flags
  37:/mnt/c/Users/31740/Documents/codes/newcore-rp2350/block/partition.c ****  *
  38:/mnt/c/Users/31740/Documents/codes/newcore-rp2350/block/partition.c ****  * This function attempts to detect the partition table type of a block device
  39:/mnt/c/Users/31740/Documents/codes/newcore-rp2350/block/partition.c ****  * by reading the first two Logical Block Addresses (LBA) and checking for 
  40:/mnt/c/Users/31740/Documents/codes/newcore-rp2350/block/partition.c ****  * signatures that indicate the partitioning scheme.
  41:/mnt/c/Users/31740/Documents/codes/newcore-rp2350/block/partition.c ****  *
  42:/mnt/c/Users/31740/Documents/codes/newcore-rp2350/block/partition.c ****  * Steps:
  43:/mnt/c/Users/31740/Documents/codes/newcore-rp2350/block/partition.c ****  * 1. Initially, the device is marked as uninitialized (`BLOCK_DEVICE_FLAG_NOT_INITIALIZED`).
  44:/mnt/c/Users/31740/Documents/codes/newcore-rp2350/block/partition.c ****  * 2. The first 512 bytes of LBA 0 are read to check for the MBR (Master Boot Record) signature.
  45:/mnt/c/Users/31740/Documents/codes/newcore-rp2350/block/partition.c ****  *    If the signature (`0x55AA` at the end of the sector) is found, the device is flagged as MBR.
  46:/mnt/c/Users/31740/Documents/codes/newcore-rp2350/block/partition.c ****  * 3. The first 512 bytes of LBA 1 are read to check for the GPT (GUID Partition Table) header.
  47:/mnt/c/Users/31740/Documents/codes/newcore-rp2350/block/partition.c ****  *    If the GPT header is found, the partition table type is set to GPT, or if an MBR was detected
  48:/mnt/c/Users/31740/Documents/codes/newcore-rp2350/block/partition.c ****  *    it is marked as a protective MBR.
  49:/mnt/c/Users/31740/Documents/codes/newcore-rp2350/block/partition.c ****  *
  50:/mnt/c/Users/31740/Documents/codes/newcore-rp2350/block/partition.c ****  * 
  51:/mnt/c/Users/31740/Documents/codes/newcore-rp2350/block/partition.c ****  * detect_partition_table - 
  52:/mnt/c/Users/31740/Documents/codes/newcore-rp2350/block/partition.c ****  * @device: 
  53:/mnt/c/Users/31740/Documents/codes/newcore-rp2350/block/partition.c ****  * @block_buffer: 
  54:/mnt/c/Users/31740/Documents/codes/newcore-rp2350/block/partition.c ****  * @flags: 
  55:/mnt/c/Users/31740/Documents/codes/newcore-rp2350/block/partition.c ****  *
  56:/mnt/c/Users/31740/Documents/codes/newcore-rp2350/block/partition.c ****  * LBA
  57:/mnt/c/Users/31740/Documents/codes/newcore-rp2350/block/partition.c ****  * 
  58:/mnt/c/Users/31740/Documents/codes/newcore-rp2350/block/partition.c ****  *
  59:/mnt/c/Users/31740/Documents/codes/newcore-rp2350/block/partition.c ****  * 
  60:/mnt/c/Users/31740/Documents/codes/newcore-rp2350/block/partition.c ****  * 1. `BLOCK_DEVICE_FLAG_NOT_INITIALIZED`
  61:/mnt/c/Users/31740/Documents/codes/newcore-rp2350/block/partition.c ****  * 2.  LBA 0  512  MBR
  62:/mnt/c/Users/31740/Documents/codes/newcore-rp2350/block/partition.c ****  *    LBA  `0x55AA` MBR
  63:/mnt/c/Users/31740/Documents/codes/newcore-rp2350/block/partition.c ****  * 3.  LBA 1  512  GPTGUID 
  64:/mnt/c/Users/31740/Documents/codes/newcore-rp2350/block/partition.c ****  *     GPT  GPT MBR
  65:/mnt/c/Users/31740/Documents/codes/newcore-rp2350/block/partition.c ****  */
  66:/mnt/c/Users/31740/Documents/codes/newcore-rp2350/block/partition.c **** static int detect_partition_table(struct block_device *device,char *block_buffer, enum block_device
  67:/mnt/c/Users/31740/Documents/codes/newcore-rp2350/block/partition.c **** {
 366              		.loc 1 67 1 is_stmt 1 view -0
 367              		.cfi_startproc
 368              		@ args = 0, pretend = 0, frame = 0
 369              		@ frame_needed = 0, uses_anonymous_args = 0
 370              		.loc 1 67 1 is_stmt 0 view .LVU108
 371 0000 70B5     		push	{r4, r5, r6, lr}
 372              	.LCFI6:
 373              		.cfi_def_cfa_offset 16
 374              		.cfi_offset 4, -16
 375              		.cfi_offset 5, -12
ARM GAS  /tmp/ccehv4l2.s 			page 33


 376              		.cfi_offset 6, -8
 377              		.cfi_offset 14, -4
 378 0002 82B0     		sub	sp, sp, #8
 379              	.LCFI7:
 380              		.cfi_def_cfa_offset 24
 381 0004 0646     		mov	r6, r0
 382 0006 0D46     		mov	r5, r1
 383 0008 1446     		mov	r4, r2
  68:/mnt/c/Users/31740/Documents/codes/newcore-rp2350/block/partition.c ****     *flags = BLOCK_DEVICE_FLAG_NOT_INITIALIZED;                           //
 384              		.loc 1 68 5 is_stmt 1 view .LVU109
 385              		.loc 1 68 12 is_stmt 0 view .LVU110
 386 000a 0021     		movs	r1, #0
 387              	.LVL28:
 388              		.loc 1 68 12 view .LVU111
 389 000c 1170     		strb	r1, [r2]
  69:/mnt/c/Users/31740/Documents/codes/newcore-rp2350/block/partition.c ****     char *data =  trans_data_to_blk_dev(device,0,512,block_buffer,REQ_OP_READ);
 390              		.loc 1 69 5 is_stmt 1 view .LVU112
 391              		.loc 1 69 19 is_stmt 0 view .LVU113
 392 000e 0091     		str	r1, [sp]
 393 0010 2B46     		mov	r3, r5
 394 0012 4FF40072 		mov	r2, #512
 395              	.LVL29:
 396              		.loc 1 69 19 view .LVU114
 397 0016 FFF7FEFF 		bl	trans_data_to_blk_dev
 398              	.LVL30:
  70:/mnt/c/Users/31740/Documents/codes/newcore-rp2350/block/partition.c ****     if(data[0x01FE] == 0x55 && data[0x01FF] == 0xAA)
 399              		.loc 1 70 5 is_stmt 1 view .LVU115
 400              		.loc 1 70 12 is_stmt 0 view .LVU116
 401 001a 90F8FE31 		ldrb	r3, [r0, #510]	@ zero_extendqisi2
 402              		.loc 1 70 7 view .LVU117
 403 001e 552B     		cmp	r3, #85
 404 0020 15D0     		beq	.L21
 405              	.L17:
  71:/mnt/c/Users/31740/Documents/codes/newcore-rp2350/block/partition.c ****         *flags = BLOCK_DEVICE_FLAG_MBR;                                    //LBA 0
  72:/mnt/c/Users/31740/Documents/codes/newcore-rp2350/block/partition.c ****     data =  trans_data_to_blk_dev(device,1,512,block_buffer,REQ_OP_READ);//LBA 1
 406              		.loc 1 72 5 is_stmt 1 view .LVU118
 407              		.loc 1 72 13 is_stmt 0 view .LVU119
 408 0022 0023     		movs	r3, #0
 409 0024 0093     		str	r3, [sp]
 410 0026 2B46     		mov	r3, r5
 411 0028 4FF40072 		mov	r2, #512
 412 002c 0121     		movs	r1, #1
 413 002e 3046     		mov	r0, r6
 414              	.LVL31:
 415              		.loc 1 72 13 view .LVU120
 416 0030 FFF7FEFF 		bl	trans_data_to_blk_dev
 417              	.LVL32:
  73:/mnt/c/Users/31740/Documents/codes/newcore-rp2350/block/partition.c ****     if (memcmp(data, gpt_head, 8) == 0)
 418              		.loc 1 73 5 is_stmt 1 view .LVU121
 419              		.loc 1 73 9 is_stmt 0 view .LVU122
 420 0034 0822     		movs	r2, #8
 421 0036 0B49     		ldr	r1, .L23
 422 0038 FFF7FEFF 		bl	memcmp
 423              	.LVL33:
 424              		.loc 1 73 8 discriminator 1 view .LVU123
 425 003c 20B9     		cbnz	r0, .L18
  74:/mnt/c/Users/31740/Documents/codes/newcore-rp2350/block/partition.c ****     {
ARM GAS  /tmp/ccehv4l2.s 			page 34


  75:/mnt/c/Users/31740/Documents/codes/newcore-rp2350/block/partition.c ****         if(*flags == BLOCK_DEVICE_FLAG_MBR)
 426              		.loc 1 75 9 is_stmt 1 view .LVU124
 427              		.loc 1 75 12 is_stmt 0 view .LVU125
 428 003e 2378     		ldrb	r3, [r4]	@ zero_extendqisi2
 429              		.loc 1 75 11 view .LVU126
 430 0040 012B     		cmp	r3, #1
 431 0042 0BD0     		beq	.L22
  76:/mnt/c/Users/31740/Documents/codes/newcore-rp2350/block/partition.c ****             *flags = BLOCK_DEVICE_FLAG_PROTECTIVE_MBR;
  77:/mnt/c/Users/31740/Documents/codes/newcore-rp2350/block/partition.c ****         else
  78:/mnt/c/Users/31740/Documents/codes/newcore-rp2350/block/partition.c ****             *flags = BLOCK_DEVICE_FLAG_GPT;
 432              		.loc 1 78 13 is_stmt 1 view .LVU127
 433              		.loc 1 78 20 is_stmt 0 view .LVU128
 434 0044 0223     		movs	r3, #2
 435 0046 2370     		strb	r3, [r4]
 436              	.L18:
  79:/mnt/c/Users/31740/Documents/codes/newcore-rp2350/block/partition.c ****     }
  80:/mnt/c/Users/31740/Documents/codes/newcore-rp2350/block/partition.c ****     return 0;
 437              		.loc 1 80 5 is_stmt 1 view .LVU129
  81:/mnt/c/Users/31740/Documents/codes/newcore-rp2350/block/partition.c **** }
 438              		.loc 1 81 1 is_stmt 0 view .LVU130
 439 0048 0020     		movs	r0, #0
 440 004a 02B0     		add	sp, sp, #8
 441              	.LCFI8:
 442              		.cfi_remember_state
 443              		.cfi_def_cfa_offset 16
 444              		@ sp needed
 445 004c 70BD     		pop	{r4, r5, r6, pc}
 446              	.LVL34:
 447              	.L21:
 448              	.LCFI9:
 449              		.cfi_restore_state
  70:/mnt/c/Users/31740/Documents/codes/newcore-rp2350/block/partition.c ****         *flags = BLOCK_DEVICE_FLAG_MBR;                                    //LBA 0
 450              		.loc 1 70 36 discriminator 1 view .LVU131
 451 004e 90F8FF31 		ldrb	r3, [r0, #511]	@ zero_extendqisi2
  70:/mnt/c/Users/31740/Documents/codes/newcore-rp2350/block/partition.c ****         *flags = BLOCK_DEVICE_FLAG_MBR;                                    //LBA 0
 452              		.loc 1 70 29 discriminator 1 view .LVU132
 453 0052 AA2B     		cmp	r3, #170
 454 0054 E5D1     		bne	.L17
  71:/mnt/c/Users/31740/Documents/codes/newcore-rp2350/block/partition.c ****     data =  trans_data_to_blk_dev(device,1,512,block_buffer,REQ_OP_READ);//LBA 1
 455              		.loc 1 71 9 is_stmt 1 view .LVU133
  71:/mnt/c/Users/31740/Documents/codes/newcore-rp2350/block/partition.c ****     data =  trans_data_to_blk_dev(device,1,512,block_buffer,REQ_OP_READ);//LBA 1
 456              		.loc 1 71 16 is_stmt 0 view .LVU134
 457 0056 0123     		movs	r3, #1
 458 0058 2370     		strb	r3, [r4]
 459 005a E2E7     		b	.L17
 460              	.LVL35:
 461              	.L22:
  76:/mnt/c/Users/31740/Documents/codes/newcore-rp2350/block/partition.c ****         else
 462              		.loc 1 76 13 is_stmt 1 view .LVU135
  76:/mnt/c/Users/31740/Documents/codes/newcore-rp2350/block/partition.c ****         else
 463              		.loc 1 76 20 is_stmt 0 view .LVU136
 464 005c 0323     		movs	r3, #3
 465 005e 2370     		strb	r3, [r4]
 466 0060 F2E7     		b	.L18
 467              	.L24:
 468 0062 00BF     		.align	2
 469              	.L23:
ARM GAS  /tmp/ccehv4l2.s 			page 35


 470 0064 00000000 		.word	gpt_head
 471              		.cfi_endproc
 472              	.LFE1034:
 474              		.section	.rodata.MBR_partition_table_create.str1.4,"aMS",%progbits,1
 475              		.align	2
 476              	.LC0:
 477 0000 63726561 		.ascii	"creating new mbr partition: boot_ind = %d, start_ad"
 477      74696E67 
 477      206E6577 
 477      206D6272 
 477      20706172 
 478 0033 64726573 		.ascii	"dress = %d, size = %d,sys_ind = %d\012\015\000"
 478      73203D20 
 478      25642C20 
 478      73697A65 
 478      203D2025 
 479              		.section	.text.MBR_partition_table_create,"ax",%progbits
 480              		.align	1
 481              		.syntax unified
 482              		.thumb
 483              		.thumb_func
 485              	MBR_partition_table_create:
 486              	.LVL36:
 487              	.LFB1039:
  82:/mnt/c/Users/31740/Documents/codes/newcore-rp2350/block/partition.c **** EXPORT_SYMBOL(detect_partition_table);
  83:/mnt/c/Users/31740/Documents/codes/newcore-rp2350/block/partition.c **** 
  84:/mnt/c/Users/31740/Documents/codes/newcore-rp2350/block/partition.c **** 
  85:/mnt/c/Users/31740/Documents/codes/newcore-rp2350/block/partition.c **** 
  86:/mnt/c/Users/31740/Documents/codes/newcore-rp2350/block/partition.c **** 
  87:/mnt/c/Users/31740/Documents/codes/newcore-rp2350/block/partition.c **** 
  88:/mnt/c/Users/31740/Documents/codes/newcore-rp2350/block/partition.c **** #define INVALID_PARTITION 0xFFFFFFFF
  89:/mnt/c/Users/31740/Documents/codes/newcore-rp2350/block/partition.c **** 
  90:/mnt/c/Users/31740/Documents/codes/newcore-rp2350/block/partition.c **** static void MBR_partition_table_fix_endian(struct mbr_partition *mbr_header) 
  91:/mnt/c/Users/31740/Documents/codes/newcore-rp2350/block/partition.c **** {
  92:/mnt/c/Users/31740/Documents/codes/newcore-rp2350/block/partition.c ****      #ifndef BIG_ENDIAN
  93:/mnt/c/Users/31740/Documents/codes/newcore-rp2350/block/partition.c ****       mbr_header->start_lba  = le32_to_cpu(mbr_header->start_lba);
  94:/mnt/c/Users/31740/Documents/codes/newcore-rp2350/block/partition.c ****       mbr_header->nr_sectors = le32_to_cpu(mbr_header->nr_sectors);
  95:/mnt/c/Users/31740/Documents/codes/newcore-rp2350/block/partition.c ****      #endif
  96:/mnt/c/Users/31740/Documents/codes/newcore-rp2350/block/partition.c **** }
  97:/mnt/c/Users/31740/Documents/codes/newcore-rp2350/block/partition.c **** 
  98:/mnt/c/Users/31740/Documents/codes/newcore-rp2350/block/partition.c **** 
  99:/mnt/c/Users/31740/Documents/codes/newcore-rp2350/block/partition.c **** int check_empty_MBR_Table(struct partition *partition,int number)
 100:/mnt/c/Users/31740/Documents/codes/newcore-rp2350/block/partition.c **** {
 101:/mnt/c/Users/31740/Documents/codes/newcore-rp2350/block/partition.c ****     struct mbr_partition *mbr_partition = &partition->mbr_partition[number];
 102:/mnt/c/Users/31740/Documents/codes/newcore-rp2350/block/partition.c ****     for(int i =0 ;i < sizeof(struct mbr_partition);i++){
 103:/mnt/c/Users/31740/Documents/codes/newcore-rp2350/block/partition.c ****         if(((char *)mbr_partition)[i] != 0)
 104:/mnt/c/Users/31740/Documents/codes/newcore-rp2350/block/partition.c ****             return 0;
 105:/mnt/c/Users/31740/Documents/codes/newcore-rp2350/block/partition.c ****     }
 106:/mnt/c/Users/31740/Documents/codes/newcore-rp2350/block/partition.c ****     return 1;
 107:/mnt/c/Users/31740/Documents/codes/newcore-rp2350/block/partition.c **** }
 108:/mnt/c/Users/31740/Documents/codes/newcore-rp2350/block/partition.c **** static void clear_MBR_Table(struct partition *partition,int number)
 109:/mnt/c/Users/31740/Documents/codes/newcore-rp2350/block/partition.c **** {
 110:/mnt/c/Users/31740/Documents/codes/newcore-rp2350/block/partition.c ****     struct mbr_partition *mbr_partition = &partition->mbr_partition[number];
 111:/mnt/c/Users/31740/Documents/codes/newcore-rp2350/block/partition.c ****     for(int i =0 ;i < sizeof(struct mbr_partition);i++){
 112:/mnt/c/Users/31740/Documents/codes/newcore-rp2350/block/partition.c ****         ((char *)mbr_partition)[i] = 0x00;
 113:/mnt/c/Users/31740/Documents/codes/newcore-rp2350/block/partition.c ****     }
 114:/mnt/c/Users/31740/Documents/codes/newcore-rp2350/block/partition.c **** }
ARM GAS  /tmp/ccehv4l2.s 			page 36


 115:/mnt/c/Users/31740/Documents/codes/newcore-rp2350/block/partition.c **** static struct mbr_partition * get_empty_MBR_Table(struct partition *partition,int *number) //number
 116:/mnt/c/Users/31740/Documents/codes/newcore-rp2350/block/partition.c **** {
 117:/mnt/c/Users/31740/Documents/codes/newcore-rp2350/block/partition.c ****     for(int i = 0 ; i <4 ; i++){
 118:/mnt/c/Users/31740/Documents/codes/newcore-rp2350/block/partition.c ****         if(check_empty_MBR_Table(partition,i)){
 119:/mnt/c/Users/31740/Documents/codes/newcore-rp2350/block/partition.c ****             number[0] = i;
 120:/mnt/c/Users/31740/Documents/codes/newcore-rp2350/block/partition.c ****             return &partition->mbr_partition[i];
 121:/mnt/c/Users/31740/Documents/codes/newcore-rp2350/block/partition.c ****         }
 122:/mnt/c/Users/31740/Documents/codes/newcore-rp2350/block/partition.c ****     }
 123:/mnt/c/Users/31740/Documents/codes/newcore-rp2350/block/partition.c ****     return NULL;
 124:/mnt/c/Users/31740/Documents/codes/newcore-rp2350/block/partition.c **** }
 125:/mnt/c/Users/31740/Documents/codes/newcore-rp2350/block/partition.c **** 
 126:/mnt/c/Users/31740/Documents/codes/newcore-rp2350/block/partition.c **** 
 127:/mnt/c/Users/31740/Documents/codes/newcore-rp2350/block/partition.c **** static void MBR_partition_table_create(struct mbr_partition * mbr_partition,uint8_t type,uint32_t s
 128:/mnt/c/Users/31740/Documents/codes/newcore-rp2350/block/partition.c **** {
 488              		.loc 1 128 1 is_stmt 1 view -0
 489              		.cfi_startproc
 490              		@ args = 4, pretend = 0, frame = 0
 491              		@ frame_needed = 0, uses_anonymous_args = 0
 492              		.loc 1 128 1 is_stmt 0 view .LVU138
 493 0000 2DE9F041 		push	{r4, r5, r6, r7, r8, lr}
 494              	.LCFI10:
 495              		.cfi_def_cfa_offset 24
 496              		.cfi_offset 4, -24
 497              		.cfi_offset 5, -20
 498              		.cfi_offset 6, -16
 499              		.cfi_offset 7, -12
 500              		.cfi_offset 8, -8
 501              		.cfi_offset 14, -4
 502 0004 82B0     		sub	sp, sp, #8
 503              	.LCFI11:
 504              		.cfi_def_cfa_offset 32
 505 0006 0446     		mov	r4, r0
 506 0008 0F46     		mov	r7, r1
 507 000a 1646     		mov	r6, r2
 508 000c 1D46     		mov	r5, r3
 509 000e 9DF82080 		ldrb	r8, [sp, #32]	@ zero_extendqisi2
 129:/mnt/c/Users/31740/Documents/codes/newcore-rp2350/block/partition.c ****     printk(KERN_INFO "creating new mbr partition: boot_ind = %d, start_address = %d, size = %d,sys_
 510              		.loc 1 129 5 is_stmt 1 view .LVU139
 511 0012 CDF80480 		str	r8, [sp, #4]
 512 0016 0093     		str	r3, [sp]
 513 0018 1346     		mov	r3, r2
 514              	.LVL37:
 515              		.loc 1 129 5 is_stmt 0 view .LVU140
 516 001a 0A46     		mov	r2, r1
 517              	.LVL38:
 518              		.loc 1 129 5 view .LVU141
 519 001c 0B49     		ldr	r1, .L27
 520              	.LVL39:
 521              		.loc 1 129 5 view .LVU142
 522 001e 0620     		movs	r0, #6
 523              	.LVL40:
 524              		.loc 1 129 5 view .LVU143
 525 0020 FFF7FEFF 		bl	printk
 526              	.LVL41:
 130:/mnt/c/Users/31740/Documents/codes/newcore-rp2350/block/partition.c **** 
 131:/mnt/c/Users/31740/Documents/codes/newcore-rp2350/block/partition.c ****     mbr_partition->boot_ind     = type; 
 527              		.loc 1 131 5 is_stmt 1 view .LVU144
ARM GAS  /tmp/ccehv4l2.s 			page 37


 528              		.loc 1 131 33 is_stmt 0 view .LVU145
 529 0024 2770     		strb	r7, [r4]
 132:/mnt/c/Users/31740/Documents/codes/newcore-rp2350/block/partition.c **** 
 133:/mnt/c/Users/31740/Documents/codes/newcore-rp2350/block/partition.c ****     mbr_partition->start_head   = 0x20;     //
 530              		.loc 1 133 5 is_stmt 1 view .LVU146
 531              		.loc 1 133 33 is_stmt 0 view .LVU147
 532 0026 2023     		movs	r3, #32
 533 0028 6370     		strb	r3, [r4, #1]
 134:/mnt/c/Users/31740/Documents/codes/newcore-rp2350/block/partition.c ****     mbr_partition->start_sector = 0X21;
 534              		.loc 1 134 5 is_stmt 1 view .LVU148
 535              		.loc 1 134 33 is_stmt 0 view .LVU149
 536 002a 2123     		movs	r3, #33
 537 002c A370     		strb	r3, [r4, #2]
 135:/mnt/c/Users/31740/Documents/codes/newcore-rp2350/block/partition.c ****     mbr_partition->start_cyl    = 0x00;
 538              		.loc 1 135 5 is_stmt 1 view .LVU150
 539              		.loc 1 135 33 is_stmt 0 view .LVU151
 540 002e 0023     		movs	r3, #0
 541 0030 E370     		strb	r3, [r4, #3]
 136:/mnt/c/Users/31740/Documents/codes/newcore-rp2350/block/partition.c ****     mbr_partition->sys_ind = flag;
 542              		.loc 1 136 5 is_stmt 1 view .LVU152
 543              		.loc 1 136 28 is_stmt 0 view .LVU153
 544 0032 84F80480 		strb	r8, [r4, #4]
 137:/mnt/c/Users/31740/Documents/codes/newcore-rp2350/block/partition.c ****     mbr_partition->end_head     = 0xfe;
 545              		.loc 1 137 5 is_stmt 1 view .LVU154
 546              		.loc 1 137 33 is_stmt 0 view .LVU155
 547 0036 FE23     		movs	r3, #254
 548 0038 6371     		strb	r3, [r4, #5]
 138:/mnt/c/Users/31740/Documents/codes/newcore-rp2350/block/partition.c ****     mbr_partition->end_sector   = 0x3f;
 549              		.loc 1 138 5 is_stmt 1 view .LVU156
 550              		.loc 1 138 33 is_stmt 0 view .LVU157
 551 003a 3F23     		movs	r3, #63
 552 003c A371     		strb	r3, [r4, #6]
 139:/mnt/c/Users/31740/Documents/codes/newcore-rp2350/block/partition.c ****     mbr_partition->end_cyl      = 0x01;
 553              		.loc 1 139 5 is_stmt 1 view .LVU158
 554              		.loc 1 139 33 is_stmt 0 view .LVU159
 555 003e 0123     		movs	r3, #1
 556 0040 E371     		strb	r3, [r4, #7]
 140:/mnt/c/Users/31740/Documents/codes/newcore-rp2350/block/partition.c ****     mbr_partition->start_lba = start_address;
 557              		.loc 1 140 5 is_stmt 1 view .LVU160
 558              		.loc 1 140 30 is_stmt 0 view .LVU161
 559 0042 A660     		str	r6, [r4, #8]	@ unaligned
 141:/mnt/c/Users/31740/Documents/codes/newcore-rp2350/block/partition.c ****     mbr_partition->nr_sectors = size;
 560              		.loc 1 141 5 is_stmt 1 view .LVU162
 561              		.loc 1 141 31 is_stmt 0 view .LVU163
 562 0044 E560     		str	r5, [r4, #12]	@ unaligned
 142:/mnt/c/Users/31740/Documents/codes/newcore-rp2350/block/partition.c **** }
 563              		.loc 1 142 1 view .LVU164
 564 0046 02B0     		add	sp, sp, #8
 565              	.LCFI12:
 566              		.cfi_def_cfa_offset 24
 567              		@ sp needed
 568 0048 BDE8F081 		pop	{r4, r5, r6, r7, r8, pc}
 569              	.LVL42:
 570              	.L28:
 571              		.loc 1 142 1 view .LVU165
 572              		.align	2
 573              	.L27:
ARM GAS  /tmp/ccehv4l2.s 			page 38


 574 004c 00000000 		.word	.LC0
 575              		.cfi_endproc
 576              	.LFE1039:
 578              		.section	.text.move_MBR_Table,"ax",%progbits
 579              		.align	1
 580              		.syntax unified
 581              		.thumb
 582              		.thumb_func
 584              	move_MBR_Table:
 585              	.LVL43:
 586              	.LFB1046:
 143:/mnt/c/Users/31740/Documents/codes/newcore-rp2350/block/partition.c **** 
 144:/mnt/c/Users/31740/Documents/codes/newcore-rp2350/block/partition.c **** static uint32_t get_mbr_partition_size(struct partition *partition,int number){
 145:/mnt/c/Users/31740/Documents/codes/newcore-rp2350/block/partition.c ****     if(number < 0 || number > 3)
 146:/mnt/c/Users/31740/Documents/codes/newcore-rp2350/block/partition.c ****         return INVALID_PARTITION;
 147:/mnt/c/Users/31740/Documents/codes/newcore-rp2350/block/partition.c ****     struct mbr_partition *mbr_partition = &partition->mbr_partition[number];
 148:/mnt/c/Users/31740/Documents/codes/newcore-rp2350/block/partition.c ****     if(check_empty_MBR_Table(partition,number) == 1)
 149:/mnt/c/Users/31740/Documents/codes/newcore-rp2350/block/partition.c ****         return INVALID_PARTITION;
 150:/mnt/c/Users/31740/Documents/codes/newcore-rp2350/block/partition.c ****     return mbr_partition->nr_sectors;
 151:/mnt/c/Users/31740/Documents/codes/newcore-rp2350/block/partition.c **** }
 152:/mnt/c/Users/31740/Documents/codes/newcore-rp2350/block/partition.c **** 
 153:/mnt/c/Users/31740/Documents/codes/newcore-rp2350/block/partition.c **** static uint32_t get_mbr_partition_start_address(struct partition *partition,int number){
 154:/mnt/c/Users/31740/Documents/codes/newcore-rp2350/block/partition.c ****     if(number < 0 || number > 3)
 155:/mnt/c/Users/31740/Documents/codes/newcore-rp2350/block/partition.c ****         return INVALID_PARTITION;
 156:/mnt/c/Users/31740/Documents/codes/newcore-rp2350/block/partition.c ****     
 157:/mnt/c/Users/31740/Documents/codes/newcore-rp2350/block/partition.c ****     struct mbr_partition *mbr_partition = &partition->mbr_partition[number];
 158:/mnt/c/Users/31740/Documents/codes/newcore-rp2350/block/partition.c ****     if(check_empty_MBR_Table(partition,number) == 1){
 159:/mnt/c/Users/31740/Documents/codes/newcore-rp2350/block/partition.c ****          printk(KERN_INFO "This is a empty partition table slot\n\r");
 160:/mnt/c/Users/31740/Documents/codes/newcore-rp2350/block/partition.c ****          return INVALID_PARTITION;
 161:/mnt/c/Users/31740/Documents/codes/newcore-rp2350/block/partition.c ****     }
 162:/mnt/c/Users/31740/Documents/codes/newcore-rp2350/block/partition.c ****     return mbr_partition->start_lba;
 163:/mnt/c/Users/31740/Documents/codes/newcore-rp2350/block/partition.c **** }
 164:/mnt/c/Users/31740/Documents/codes/newcore-rp2350/block/partition.c **** 
 165:/mnt/c/Users/31740/Documents/codes/newcore-rp2350/block/partition.c **** static uint8_t get_mbr_partition_type(struct partition *partition,int number){
 166:/mnt/c/Users/31740/Documents/codes/newcore-rp2350/block/partition.c ****     if(number < 0 || number > 3)
 167:/mnt/c/Users/31740/Documents/codes/newcore-rp2350/block/partition.c ****         return 0xff;
 168:/mnt/c/Users/31740/Documents/codes/newcore-rp2350/block/partition.c ****     struct mbr_partition *mbr_partition = &partition->mbr_partition[number];
 169:/mnt/c/Users/31740/Documents/codes/newcore-rp2350/block/partition.c ****     if(check_empty_MBR_Table(partition,number) == 1)
 170:/mnt/c/Users/31740/Documents/codes/newcore-rp2350/block/partition.c ****         return 0xff;
 171:/mnt/c/Users/31740/Documents/codes/newcore-rp2350/block/partition.c ****     return mbr_partition->sys_ind;
 172:/mnt/c/Users/31740/Documents/codes/newcore-rp2350/block/partition.c **** }
 173:/mnt/c/Users/31740/Documents/codes/newcore-rp2350/block/partition.c **** 
 174:/mnt/c/Users/31740/Documents/codes/newcore-rp2350/block/partition.c **** static int set_mbr_partition_size(struct partition *partition,int number,uint32_t size)
 175:/mnt/c/Users/31740/Documents/codes/newcore-rp2350/block/partition.c **** {
 176:/mnt/c/Users/31740/Documents/codes/newcore-rp2350/block/partition.c ****     if(number < 0 || number > 3)
 177:/mnt/c/Users/31740/Documents/codes/newcore-rp2350/block/partition.c ****         return -1;
 178:/mnt/c/Users/31740/Documents/codes/newcore-rp2350/block/partition.c ****     struct mbr_partition *mbr_partition = &partition->mbr_partition[number];
 179:/mnt/c/Users/31740/Documents/codes/newcore-rp2350/block/partition.c ****     if(check_empty_MBR_Table(partition,number) == 1)
 180:/mnt/c/Users/31740/Documents/codes/newcore-rp2350/block/partition.c ****         return -1;
 181:/mnt/c/Users/31740/Documents/codes/newcore-rp2350/block/partition.c ****     mbr_partition->nr_sectors = size;
 182:/mnt/c/Users/31740/Documents/codes/newcore-rp2350/block/partition.c ****     return 0;
 183:/mnt/c/Users/31740/Documents/codes/newcore-rp2350/block/partition.c **** }
 184:/mnt/c/Users/31740/Documents/codes/newcore-rp2350/block/partition.c **** 
 185:/mnt/c/Users/31740/Documents/codes/newcore-rp2350/block/partition.c **** static int set_mbr_partition_start_address(struct partition *partition,int number,uint32_t start_ad
 186:/mnt/c/Users/31740/Documents/codes/newcore-rp2350/block/partition.c **** {
 187:/mnt/c/Users/31740/Documents/codes/newcore-rp2350/block/partition.c ****     if(number < 0 || number > 3)
 188:/mnt/c/Users/31740/Documents/codes/newcore-rp2350/block/partition.c ****         return -1;
ARM GAS  /tmp/ccehv4l2.s 			page 39


 189:/mnt/c/Users/31740/Documents/codes/newcore-rp2350/block/partition.c ****     struct mbr_partition *mbr_partition = &partition->mbr_partition[number];
 190:/mnt/c/Users/31740/Documents/codes/newcore-rp2350/block/partition.c ****     if(check_empty_MBR_Table(partition,number) == 1)
 191:/mnt/c/Users/31740/Documents/codes/newcore-rp2350/block/partition.c ****         return -1;
 192:/mnt/c/Users/31740/Documents/codes/newcore-rp2350/block/partition.c ****     mbr_partition->start_lba = start_address;
 193:/mnt/c/Users/31740/Documents/codes/newcore-rp2350/block/partition.c ****     return 0;
 194:/mnt/c/Users/31740/Documents/codes/newcore-rp2350/block/partition.c **** }
 195:/mnt/c/Users/31740/Documents/codes/newcore-rp2350/block/partition.c **** 
 196:/mnt/c/Users/31740/Documents/codes/newcore-rp2350/block/partition.c **** static int set_mbr_partition_type(struct partition *partition,int number,uint8_t type)
 197:/mnt/c/Users/31740/Documents/codes/newcore-rp2350/block/partition.c **** {
 198:/mnt/c/Users/31740/Documents/codes/newcore-rp2350/block/partition.c ****     if(number < 0 || number > 3)
 199:/mnt/c/Users/31740/Documents/codes/newcore-rp2350/block/partition.c ****         return -1;
 200:/mnt/c/Users/31740/Documents/codes/newcore-rp2350/block/partition.c ****     struct mbr_partition *mbr_partition = &partition->mbr_partition[number];
 201:/mnt/c/Users/31740/Documents/codes/newcore-rp2350/block/partition.c ****     if(check_empty_MBR_Table(partition,number) == 1)
 202:/mnt/c/Users/31740/Documents/codes/newcore-rp2350/block/partition.c ****         return -1;
 203:/mnt/c/Users/31740/Documents/codes/newcore-rp2350/block/partition.c ****     mbr_partition->sys_ind = type;
 204:/mnt/c/Users/31740/Documents/codes/newcore-rp2350/block/partition.c ****     return 0;
 205:/mnt/c/Users/31740/Documents/codes/newcore-rp2350/block/partition.c **** }
 206:/mnt/c/Users/31740/Documents/codes/newcore-rp2350/block/partition.c **** 
 207:/mnt/c/Users/31740/Documents/codes/newcore-rp2350/block/partition.c **** static void move_MBR_Table(struct mbr_partition *from ,struct mbr_partition *to)
 208:/mnt/c/Users/31740/Documents/codes/newcore-rp2350/block/partition.c **** {
 587              		.loc 1 208 1 is_stmt 1 view -0
 588              		.cfi_startproc
 589              		@ args = 0, pretend = 0, frame = 0
 590              		@ frame_needed = 0, uses_anonymous_args = 0
 591              		.loc 1 208 1 is_stmt 0 view .LVU167
 592 0000 00B5     		push	{lr}
 593              	.LCFI13:
 594              		.cfi_def_cfa_offset 4
 595              		.cfi_offset 14, -4
 209:/mnt/c/Users/31740/Documents/codes/newcore-rp2350/block/partition.c ****     memcpy(to, from, sizeof(struct mbr_partition));
 596              		.loc 1 209 5 is_stmt 1 view .LVU168
 597 0002 D0F800E0 		ldr	lr, [r0]	@ unaligned
 598 0006 D0F804C0 		ldr	ip, [r0, #4]	@ unaligned
 599 000a 8268     		ldr	r2, [r0, #8]	@ unaligned
 600 000c C368     		ldr	r3, [r0, #12]	@ unaligned
 601 000e C1F800E0 		str	lr, [r1]	@ unaligned
 602 0012 C1F804C0 		str	ip, [r1, #4]	@ unaligned
 603 0016 8A60     		str	r2, [r1, #8]	@ unaligned
 604 0018 CB60     		str	r3, [r1, #12]	@ unaligned
 210:/mnt/c/Users/31740/Documents/codes/newcore-rp2350/block/partition.c ****     memset(from, 0x00, sizeof(struct mbr_partition));
 605              		.loc 1 210 5 view .LVU169
 606 001a 0023     		movs	r3, #0
 607 001c 0360     		str	r3, [r0]	@ unaligned
 608 001e 4360     		str	r3, [r0, #4]	@ unaligned
 609 0020 8360     		str	r3, [r0, #8]	@ unaligned
 610 0022 C360     		str	r3, [r0, #12]	@ unaligned
 211:/mnt/c/Users/31740/Documents/codes/newcore-rp2350/block/partition.c **** }
 611              		.loc 1 211 1 is_stmt 0 view .LVU170
 612 0024 5DF804FB 		ldr	pc, [sp], #4
 613              		.cfi_endproc
 614              	.LFE1046:
 616              		.section	.rodata.mbr_partition_table_load.str1.4,"aMS",%progbits,1
 617              		.align	2
 618              	.LC1:
 619 0000 6E6F206D 		.ascii	"no memory,need size %d\012\000"
 619      656D6F72 
 619      792C6E65 
ARM GAS  /tmp/ccehv4l2.s 			page 40


 619      65642073 
 619      697A6520 
 620              		.align	2
 621              	.LC2:
 622 0018 63616E20 		.ascii	"can not get data from disk\012\000"
 622      6E6F7420 
 622      67657420 
 622      64617461 
 622      2066726F 
 623              		.section	.text.mbr_partition_table_load,"ax",%progbits
 624              		.align	1
 625              		.syntax unified
 626              		.thumb
 627              		.thumb_func
 629              	mbr_partition_table_load:
 630              	.LVL44:
 631              	.LFB1048:
 212:/mnt/c/Users/31740/Documents/codes/newcore-rp2350/block/partition.c **** 
 213:/mnt/c/Users/31740/Documents/codes/newcore-rp2350/block/partition.c **** static void tidy_up_MBR_Table(struct partition *partition)
 214:/mnt/c/Users/31740/Documents/codes/newcore-rp2350/block/partition.c **** {
 215:/mnt/c/Users/31740/Documents/codes/newcore-rp2350/block/partition.c ****     uint8_t state[4];
 216:/mnt/c/Users/31740/Documents/codes/newcore-rp2350/block/partition.c ****     for(int i = 0; i < 4; i++)
 217:/mnt/c/Users/31740/Documents/codes/newcore-rp2350/block/partition.c ****         state[i] = 1 - check_empty_MBR_Table(partition,i);
 218:/mnt/c/Users/31740/Documents/codes/newcore-rp2350/block/partition.c **** 
 219:/mnt/c/Users/31740/Documents/codes/newcore-rp2350/block/partition.c ****     for(int j = 0; j < 3; j++){
 220:/mnt/c/Users/31740/Documents/codes/newcore-rp2350/block/partition.c ****         for(int k = 0; k < 3; k++){
 221:/mnt/c/Users/31740/Documents/codes/newcore-rp2350/block/partition.c ****             if(state[k] == 0 && state[k+1] == 1){
 222:/mnt/c/Users/31740/Documents/codes/newcore-rp2350/block/partition.c ****                 move_MBR_Table(&partition->mbr_partition[k+1],&partition->mbr_partition[k]);
 223:/mnt/c/Users/31740/Documents/codes/newcore-rp2350/block/partition.c ****                 state[k]   = 1;
 224:/mnt/c/Users/31740/Documents/codes/newcore-rp2350/block/partition.c ****                 state[k+1] = 0;
 225:/mnt/c/Users/31740/Documents/codes/newcore-rp2350/block/partition.c ****             }
 226:/mnt/c/Users/31740/Documents/codes/newcore-rp2350/block/partition.c ****         }
 227:/mnt/c/Users/31740/Documents/codes/newcore-rp2350/block/partition.c ****     }
 228:/mnt/c/Users/31740/Documents/codes/newcore-rp2350/block/partition.c **** }
 229:/mnt/c/Users/31740/Documents/codes/newcore-rp2350/block/partition.c **** 
 230:/mnt/c/Users/31740/Documents/codes/newcore-rp2350/block/partition.c **** static int mbr_partition_table_load(struct block_device *device,struct partition *partition) 
 231:/mnt/c/Users/31740/Documents/codes/newcore-rp2350/block/partition.c **** {
 632              		.loc 1 231 1 is_stmt 1 view -0
 633              		.cfi_startproc
 634              		@ args = 0, pretend = 0, frame = 0
 635              		@ frame_needed = 0, uses_anonymous_args = 0
 232:/mnt/c/Users/31740/Documents/codes/newcore-rp2350/block/partition.c ****     if (device == NULL || partition == NULL) return -1;
 636              		.loc 1 232 5 view .LVU172
 637              		.loc 1 232 8 is_stmt 0 view .LVU173
 638 0000 0028     		cmp	r0, #0
 639 0002 48D0     		beq	.L38
 231:/mnt/c/Users/31740/Documents/codes/newcore-rp2350/block/partition.c ****     if (device == NULL || partition == NULL) return -1;
 640              		.loc 1 231 1 view .LVU174
 641 0004 70B5     		push	{r4, r5, r6, lr}
 642              	.LCFI14:
 643              		.cfi_def_cfa_offset 16
 644              		.cfi_offset 4, -16
 645              		.cfi_offset 5, -12
 646              		.cfi_offset 6, -8
 647              		.cfi_offset 14, -4
 648 0006 82B0     		sub	sp, sp, #8
 649              	.LCFI15:
ARM GAS  /tmp/ccehv4l2.s 			page 41


 650              		.cfi_def_cfa_offset 24
 651 0008 0C46     		mov	r4, r1
 652 000a 0646     		mov	r6, r0
 653              		.loc 1 232 24 discriminator 2 view .LVU175
 654 000c 0029     		cmp	r1, #0
 655 000e 45D0     		beq	.L39
 233:/mnt/c/Users/31740/Documents/codes/newcore-rp2350/block/partition.c ****     char *data = kmalloc(512,GFP_KERNEL);
 656              		.loc 1 233 5 is_stmt 1 view .LVU176
 657              	.LVL45:
 658              	.LBB89:
 659              	.LBI89:
 379:/mnt/c/Users/31740/Documents/codes/newcore-rp2350/include/linux/slab.h **** 	return __smalloc__((u32)size,flags);
 660              		.loc 3 379 21 view .LVU177
 661              	.LBB90:
 662              		.loc 3 380 2 view .LVU178
 663              		.loc 3 380 9 is_stmt 0 view .LVU179
 664 0010 4FF44C61 		mov	r1, #3264
 665              	.LVL46:
 666              		.loc 3 380 9 view .LVU180
 667 0014 4FF40070 		mov	r0, #512
 668              	.LVL47:
 669              		.loc 3 380 9 view .LVU181
 670 0018 FFF7FEFF 		bl	__smalloc__
 671              	.LVL48:
 672              		.loc 3 380 9 view .LVU182
 673              	.LBE90:
 674              	.LBE89:
 234:/mnt/c/Users/31740/Documents/codes/newcore-rp2350/block/partition.c ****     if(data == NULL){
 675              		.loc 1 234 5 is_stmt 1 view .LVU183
 676              		.loc 1 234 7 is_stmt 0 view .LVU184
 677 001c 0546     		mov	r5, r0
 678 001e F0B1     		cbz	r0, .L44
 235:/mnt/c/Users/31740/Documents/codes/newcore-rp2350/block/partition.c ****         printk(KERN_INFO "no memory,need size %d\n",512);
 236:/mnt/c/Users/31740/Documents/codes/newcore-rp2350/block/partition.c ****          return -1;
 237:/mnt/c/Users/31740/Documents/codes/newcore-rp2350/block/partition.c ****     }
 238:/mnt/c/Users/31740/Documents/codes/newcore-rp2350/block/partition.c ****     if(trans_data_to_blk_dev(device,0,512,data,REQ_OP_READ) == NULL){
 679              		.loc 1 238 5 is_stmt 1 view .LVU185
 680              		.loc 1 238 8 is_stmt 0 view .LVU186
 681 0020 0021     		movs	r1, #0
 682 0022 0091     		str	r1, [sp]
 683 0024 0346     		mov	r3, r0
 684 0026 4FF40072 		mov	r2, #512
 685 002a 3046     		mov	r0, r6
 686              	.LVL49:
 687              		.loc 1 238 8 view .LVU187
 688 002c FFF7FEFF 		bl	trans_data_to_blk_dev
 689              	.LVL50:
 690              		.loc 1 238 7 discriminator 1 view .LVU188
 691 0030 F0B1     		cbz	r0, .L45
 239:/mnt/c/Users/31740/Documents/codes/newcore-rp2350/block/partition.c ****         printk(KERN_INFO "can not get data from disk\n");
 240:/mnt/c/Users/31740/Documents/codes/newcore-rp2350/block/partition.c ****         kfree(data);
 241:/mnt/c/Users/31740/Documents/codes/newcore-rp2350/block/partition.c ****         return -1;
 242:/mnt/c/Users/31740/Documents/codes/newcore-rp2350/block/partition.c ****     }
 243:/mnt/c/Users/31740/Documents/codes/newcore-rp2350/block/partition.c ****     memcpy(&partition->mbr_partition[0] , data + 446, sizeof(struct mbr_partition)*4); // 
 692              		.loc 1 243 5 is_stmt 1 view .LVU189
 693              		.loc 1 243 48 is_stmt 0 view .LVU190
 694 0032 05F5DF73 		add	r3, r5, #446
ARM GAS  /tmp/ccehv4l2.s 			page 42


 695              		.loc 1 243 5 view .LVU191
 696 0036 04F57971 		add	r1, r4, #996
 697 003a 05F5FF7E 		add	lr, r5, #510
 698              	.LVL51:
 699              	.L35:
 700              		.loc 1 243 5 view .LVU192
 701 003e D3F800C0 		ldr	ip, [r3]	@ unaligned
 702 0042 5C68     		ldr	r4, [r3, #4]	@ unaligned
 703 0044 9868     		ldr	r0, [r3, #8]	@ unaligned
 704 0046 DA68     		ldr	r2, [r3, #12]	@ unaligned
 705 0048 C1F800C0 		str	ip, [r1]	@ unaligned
 706 004c 4C60     		str	r4, [r1, #4]	@ unaligned
 707 004e 8860     		str	r0, [r1, #8]	@ unaligned
 708 0050 CA60     		str	r2, [r1, #12]	@ unaligned
 709 0052 1033     		adds	r3, r3, #16
 710 0054 1031     		adds	r1, r1, #16
 711 0056 7345     		cmp	r3, lr
 712 0058 F1D1     		bne	.L35
 244:/mnt/c/Users/31740/Documents/codes/newcore-rp2350/block/partition.c ****     for(int i =0;i<4;i++){
 713              		.loc 1 244 5 is_stmt 1 view .LVU193
 714              	.LBB91:
 715              		.loc 1 244 9 view .LVU194
 716              	.LVL52:
 717              		.loc 1 244 13 is_stmt 0 view .LVU195
 718 005a 0023     		movs	r3, #0
 719              		.loc 1 244 5 view .LVU196
 720 005c 13E0     		b	.L36
 721              	.LVL53:
 722              	.L44:
 723              		.loc 1 244 5 view .LVU197
 724              	.LBE91:
 235:/mnt/c/Users/31740/Documents/codes/newcore-rp2350/block/partition.c ****         printk(KERN_INFO "no memory,need size %d\n",512);
 725              		.loc 1 235 9 is_stmt 1 view .LVU198
 726 005e 4FF40072 		mov	r2, #512
 727 0062 1049     		ldr	r1, .L46
 728 0064 0620     		movs	r0, #6
 729              	.LVL54:
 235:/mnt/c/Users/31740/Documents/codes/newcore-rp2350/block/partition.c ****         printk(KERN_INFO "no memory,need size %d\n",512);
 730              		.loc 1 235 9 is_stmt 0 view .LVU199
 731 0066 FFF7FEFF 		bl	printk
 732              	.LVL55:
 236:/mnt/c/Users/31740/Documents/codes/newcore-rp2350/block/partition.c ****     }
 733              		.loc 1 236 10 is_stmt 1 view .LVU200
 236:/mnt/c/Users/31740/Documents/codes/newcore-rp2350/block/partition.c ****     }
 734              		.loc 1 236 17 is_stmt 0 view .LVU201
 735 006a 4FF0FF30 		mov	r0, #-1
 736 006e 10E0     		b	.L31
 737              	.L45:
 239:/mnt/c/Users/31740/Documents/codes/newcore-rp2350/block/partition.c ****         printk(KERN_INFO "can not get data from disk\n");
 738              		.loc 1 239 9 is_stmt 1 view .LVU202
 739 0070 0D49     		ldr	r1, .L46+4
 740 0072 0620     		movs	r0, #6
 741 0074 FFF7FEFF 		bl	printk
 742              	.LVL56:
 240:/mnt/c/Users/31740/Documents/codes/newcore-rp2350/block/partition.c ****         return -1;
 743              		.loc 1 240 9 view .LVU203
 744              	.LBB92:
ARM GAS  /tmp/ccehv4l2.s 			page 43


 745              	.LBI92:
 381:/mnt/c/Users/31740/Documents/codes/newcore-rp2350/include/linux/slab.h **** }
 382:/mnt/c/Users/31740/Documents/codes/newcore-rp2350/include/linux/slab.h **** 
 383:/mnt/c/Users/31740/Documents/codes/newcore-rp2350/include/linux/slab.h **** static void inline kfree(const void *ptr){
 746              		.loc 3 383 20 view .LVU204
 747              	.LBB93:
 384:/mnt/c/Users/31740/Documents/codes/newcore-rp2350/include/linux/slab.h **** 	__sfree__((void*)ptr);
 748              		.loc 3 384 2 view .LVU205
 749 0078 2846     		mov	r0, r5
 750 007a FFF7FEFF 		bl	__sfree__
 751              	.LVL57:
 752              		.loc 3 384 2 is_stmt 0 view .LVU206
 753              	.LBE93:
 754              	.LBE92:
 241:/mnt/c/Users/31740/Documents/codes/newcore-rp2350/block/partition.c ****     }
 755              		.loc 1 241 9 is_stmt 1 view .LVU207
 241:/mnt/c/Users/31740/Documents/codes/newcore-rp2350/block/partition.c ****     }
 756              		.loc 1 241 16 is_stmt 0 view .LVU208
 757 007e 4FF0FF30 		mov	r0, #-1
 758 0082 06E0     		b	.L31
 759              	.LVL58:
 760              	.L37:
 761              	.LBB94:
 245:/mnt/c/Users/31740/Documents/codes/newcore-rp2350/block/partition.c ****         MBR_partition_table_fix_endian(&partition->mbr_partition[i]);
 762              		.loc 1 245 9 is_stmt 1 view .LVU209
 244:/mnt/c/Users/31740/Documents/codes/newcore-rp2350/block/partition.c ****         MBR_partition_table_fix_endian(&partition->mbr_partition[i]);
 763              		.loc 1 244 23 discriminator 3 view .LVU210
 764 0084 0133     		adds	r3, r3, #1
 765              	.LVL59:
 766              	.L36:
 244:/mnt/c/Users/31740/Documents/codes/newcore-rp2350/block/partition.c ****         MBR_partition_table_fix_endian(&partition->mbr_partition[i]);
 767              		.loc 1 244 19 discriminator 1 view .LVU211
 768 0086 032B     		cmp	r3, #3
 769 0088 FCDD     		ble	.L37
 770              	.LBE94:
 246:/mnt/c/Users/31740/Documents/codes/newcore-rp2350/block/partition.c ****     }
 247:/mnt/c/Users/31740/Documents/codes/newcore-rp2350/block/partition.c ****     kfree(data);
 771              		.loc 1 247 5 view .LVU212
 772              	.LVL60:
 773              	.LBB95:
 774              	.LBI95:
 383:/mnt/c/Users/31740/Documents/codes/newcore-rp2350/include/linux/slab.h **** 	__sfree__((void*)ptr);
 775              		.loc 3 383 20 view .LVU213
 776              	.LBB96:
 777              		.loc 3 384 2 view .LVU214
 778 008a 2846     		mov	r0, r5
 779 008c FFF7FEFF 		bl	__sfree__
 780              	.LVL61:
 781              		.loc 3 384 2 is_stmt 0 view .LVU215
 782              	.LBE96:
 783              	.LBE95:
 248:/mnt/c/Users/31740/Documents/codes/newcore-rp2350/block/partition.c ****     return 0;
 784              		.loc 1 248 5 is_stmt 1 view .LVU216
 785              		.loc 1 248 12 is_stmt 0 view .LVU217
 786 0090 0020     		movs	r0, #0
 787              	.LVL62:
 788              	.L31:
ARM GAS  /tmp/ccehv4l2.s 			page 44


 249:/mnt/c/Users/31740/Documents/codes/newcore-rp2350/block/partition.c **** }
 789              		.loc 1 249 1 view .LVU218
 790 0092 02B0     		add	sp, sp, #8
 791              	.LCFI16:
 792              		.cfi_def_cfa_offset 16
 793              		@ sp needed
 794 0094 70BD     		pop	{r4, r5, r6, pc}
 795              	.LVL63:
 796              	.L38:
 797              	.LCFI17:
 798              		.cfi_def_cfa_offset 0
 799              		.cfi_restore 4
 800              		.cfi_restore 5
 801              		.cfi_restore 6
 802              		.cfi_restore 14
 232:/mnt/c/Users/31740/Documents/codes/newcore-rp2350/block/partition.c ****     char *data = kmalloc(512,GFP_KERNEL);
 803              		.loc 1 232 53 discriminator 3 view .LVU219
 804 0096 4FF0FF30 		mov	r0, #-1
 805              	.LVL64:
 806              		.loc 1 249 1 view .LVU220
 807 009a 7047     		bx	lr
 808              	.LVL65:
 809              	.L39:
 810              	.LCFI18:
 811              		.cfi_def_cfa_offset 24
 812              		.cfi_offset 4, -16
 813              		.cfi_offset 5, -12
 814              		.cfi_offset 6, -8
 815              		.cfi_offset 14, -4
 232:/mnt/c/Users/31740/Documents/codes/newcore-rp2350/block/partition.c ****     char *data = kmalloc(512,GFP_KERNEL);
 816              		.loc 1 232 53 discriminator 3 view .LVU221
 817 009c 4FF0FF30 		mov	r0, #-1
 818              	.LVL66:
 232:/mnt/c/Users/31740/Documents/codes/newcore-rp2350/block/partition.c ****     char *data = kmalloc(512,GFP_KERNEL);
 819              		.loc 1 232 53 discriminator 3 view .LVU222
 820 00a0 F7E7     		b	.L31
 821              	.L47:
 822 00a2 00BF     		.align	2
 823              	.L46:
 824 00a4 00000000 		.word	.LC1
 825 00a8 18000000 		.word	.LC2
 826              		.cfi_endproc
 827              	.LFE1048:
 829              		.section	.text.mbr_partition_table_update,"ax",%progbits
 830              		.align	1
 831              		.syntax unified
 832              		.thumb
 833              		.thumb_func
 835              	mbr_partition_table_update:
 836              	.LVL67:
 837              	.LFB1049:
 250:/mnt/c/Users/31740/Documents/codes/newcore-rp2350/block/partition.c **** 
 251:/mnt/c/Users/31740/Documents/codes/newcore-rp2350/block/partition.c **** static int mbr_partition_table_update(struct block_device *device,struct partition *partition) 
 252:/mnt/c/Users/31740/Documents/codes/newcore-rp2350/block/partition.c **** {
 838              		.loc 1 252 1 is_stmt 1 view -0
 839              		.cfi_startproc
 840              		@ args = 0, pretend = 0, frame = 0
ARM GAS  /tmp/ccehv4l2.s 			page 45


 841              		@ frame_needed = 0, uses_anonymous_args = 0
 253:/mnt/c/Users/31740/Documents/codes/newcore-rp2350/block/partition.c ****     if(device == NULL || partition == NULL) return -1;
 842              		.loc 1 253 5 view .LVU224
 843              		.loc 1 253 7 is_stmt 0 view .LVU225
 844 0000 0028     		cmp	r0, #0
 845 0002 44D0     		beq	.L54
 252:/mnt/c/Users/31740/Documents/codes/newcore-rp2350/block/partition.c ****     if(device == NULL || partition == NULL) return -1;
 846              		.loc 1 252 1 view .LVU226
 847 0004 70B5     		push	{r4, r5, r6, lr}
 848              	.LCFI19:
 849              		.cfi_def_cfa_offset 16
 850              		.cfi_offset 4, -16
 851              		.cfi_offset 5, -12
 852              		.cfi_offset 6, -8
 853              		.cfi_offset 14, -4
 854 0006 82B0     		sub	sp, sp, #8
 855              	.LCFI20:
 856              		.cfi_def_cfa_offset 24
 857 0008 0C46     		mov	r4, r1
 858 000a 0646     		mov	r6, r0
 859              		.loc 1 253 23 discriminator 2 view .LVU227
 860 000c 0029     		cmp	r1, #0
 861 000e 41D0     		beq	.L55
 254:/mnt/c/Users/31740/Documents/codes/newcore-rp2350/block/partition.c ****     char *data = kmalloc(512,GFP_KERNEL);
 862              		.loc 1 254 5 is_stmt 1 view .LVU228
 863              	.LVL68:
 864              	.LBB97:
 865              	.LBI97:
 379:/mnt/c/Users/31740/Documents/codes/newcore-rp2350/include/linux/slab.h **** 	return __smalloc__((u32)size,flags);
 866              		.loc 3 379 21 view .LVU229
 867              	.LBB98:
 380:/mnt/c/Users/31740/Documents/codes/newcore-rp2350/include/linux/slab.h **** }
 868              		.loc 3 380 2 view .LVU230
 380:/mnt/c/Users/31740/Documents/codes/newcore-rp2350/include/linux/slab.h **** }
 869              		.loc 3 380 9 is_stmt 0 view .LVU231
 870 0010 4FF44C61 		mov	r1, #3264
 871              	.LVL69:
 380:/mnt/c/Users/31740/Documents/codes/newcore-rp2350/include/linux/slab.h **** }
 872              		.loc 3 380 9 view .LVU232
 873 0014 4FF40070 		mov	r0, #512
 874              	.LVL70:
 380:/mnt/c/Users/31740/Documents/codes/newcore-rp2350/include/linux/slab.h **** }
 875              		.loc 3 380 9 view .LVU233
 876 0018 FFF7FEFF 		bl	__smalloc__
 877              	.LVL71:
 380:/mnt/c/Users/31740/Documents/codes/newcore-rp2350/include/linux/slab.h **** }
 878              		.loc 3 380 9 view .LVU234
 879              	.LBE98:
 880              	.LBE97:
 255:/mnt/c/Users/31740/Documents/codes/newcore-rp2350/block/partition.c ****     if(data == NULL) return -1;
 881              		.loc 1 255 5 is_stmt 1 view .LVU235
 882              		.loc 1 255 7 is_stmt 0 view .LVU236
 883 001c 0546     		mov	r5, r0
 884 001e E0B3     		cbz	r0, .L56
 885              	.LBB99:
 256:/mnt/c/Users/31740/Documents/codes/newcore-rp2350/block/partition.c ****     for(int i =0;i<4;i++){
 886              		.loc 1 256 13 view .LVU237
ARM GAS  /tmp/ccehv4l2.s 			page 46


 887 0020 0023     		movs	r3, #0
 888 0022 00E0     		b	.L50
 889              	.LVL72:
 890              	.L51:
 257:/mnt/c/Users/31740/Documents/codes/newcore-rp2350/block/partition.c ****         MBR_partition_table_fix_endian(&partition->mbr_partition[i]);
 891              		.loc 1 257 9 is_stmt 1 view .LVU238
 256:/mnt/c/Users/31740/Documents/codes/newcore-rp2350/block/partition.c ****     for(int i =0;i<4;i++){
 892              		.loc 1 256 23 discriminator 3 view .LVU239
 893 0024 0133     		adds	r3, r3, #1
 894              	.LVL73:
 895              	.L50:
 256:/mnt/c/Users/31740/Documents/codes/newcore-rp2350/block/partition.c ****     for(int i =0;i<4;i++){
 896              		.loc 1 256 19 discriminator 1 view .LVU240
 897 0026 032B     		cmp	r3, #3
 898 0028 FCDD     		ble	.L51
 899              	.LBE99:
 258:/mnt/c/Users/31740/Documents/codes/newcore-rp2350/block/partition.c ****     }
 259:/mnt/c/Users/31740/Documents/codes/newcore-rp2350/block/partition.c ****     memcpy(data + 446, &partition->mbr_partition[0], sizeof(struct mbr_partition)*4);
 900              		.loc 1 259 5 view .LVU241
 901              		.loc 1 259 24 is_stmt 0 view .LVU242
 902 002a 04F57973 		add	r3, r4, #996
 903              	.LVL74:
 904              		.loc 1 259 5 view .LVU243
 905 002e 05F5DF72 		add	r2, r5, #446
 906 0032 04F22444 		addw	r4, r4, #1060
 907              	.LVL75:
 908              	.L52:
 909              		.loc 1 259 5 view .LVU244
 910 0036 D3F800E0 		ldr	lr, [r3]	@ unaligned
 911 003a D3F804C0 		ldr	ip, [r3, #4]	@ unaligned
 912 003e 9868     		ldr	r0, [r3, #8]	@ unaligned
 913 0040 D968     		ldr	r1, [r3, #12]	@ unaligned
 914 0042 C2F800E0 		str	lr, [r2]	@ unaligned
 915 0046 C2F804C0 		str	ip, [r2, #4]	@ unaligned
 916 004a 9060     		str	r0, [r2, #8]	@ unaligned
 917 004c D160     		str	r1, [r2, #12]	@ unaligned
 918 004e 1033     		adds	r3, r3, #16
 919 0050 1032     		adds	r2, r2, #16
 920 0052 A342     		cmp	r3, r4
 921 0054 EFD1     		bne	.L52
 260:/mnt/c/Users/31740/Documents/codes/newcore-rp2350/block/partition.c ****     data[0x01FE] = 0x55;
 922              		.loc 1 260 5 is_stmt 1 view .LVU245
 923              		.loc 1 260 18 is_stmt 0 view .LVU246
 924 0056 5523     		movs	r3, #85
 925 0058 85F8FE31 		strb	r3, [r5, #510]
 261:/mnt/c/Users/31740/Documents/codes/newcore-rp2350/block/partition.c ****     data[0x01FF] = 0xAA;                                                                //
 926              		.loc 1 261 5 is_stmt 1 view .LVU247
 927              		.loc 1 261 18 is_stmt 0 view .LVU248
 928 005c AA23     		movs	r3, #170
 929 005e 85F8FF31 		strb	r3, [r5, #511]
 262:/mnt/c/Users/31740/Documents/codes/newcore-rp2350/block/partition.c ****     if(trans_data_to_blk_dev(device,0,512,data,REQ_OP_WRITE) == NULL){
 930              		.loc 1 262 5 is_stmt 1 view .LVU249
 931              		.loc 1 262 8 is_stmt 0 view .LVU250
 932 0062 0123     		movs	r3, #1
 933 0064 0093     		str	r3, [sp]
 934 0066 2B46     		mov	r3, r5
 935 0068 4FF40072 		mov	r2, #512
ARM GAS  /tmp/ccehv4l2.s 			page 47


 936 006c 0021     		movs	r1, #0
 937 006e 3046     		mov	r0, r6
 938 0070 FFF7FEFF 		bl	trans_data_to_blk_dev
 939              	.LVL76:
 940              		.loc 1 262 7 discriminator 1 view .LVU251
 941 0074 28B9     		cbnz	r0, .L53
 263:/mnt/c/Users/31740/Documents/codes/newcore-rp2350/block/partition.c ****         kfree(data);
 942              		.loc 1 263 9 is_stmt 1 view .LVU252
 943              	.LVL77:
 944              	.LBB100:
 945              	.LBI100:
 383:/mnt/c/Users/31740/Documents/codes/newcore-rp2350/include/linux/slab.h **** 	__sfree__((void*)ptr);
 946              		.loc 3 383 20 view .LVU253
 947              	.LBB101:
 948              		.loc 3 384 2 view .LVU254
 949 0076 2846     		mov	r0, r5
 950 0078 FFF7FEFF 		bl	__sfree__
 951              	.LVL78:
 952              		.loc 3 384 2 is_stmt 0 view .LVU255
 953              	.LBE101:
 954              	.LBE100:
 264:/mnt/c/Users/31740/Documents/codes/newcore-rp2350/block/partition.c ****          return 0;
 955              		.loc 1 264 10 is_stmt 1 view .LVU256
 956              		.loc 1 264 17 is_stmt 0 view .LVU257
 957 007c 0020     		movs	r0, #0
 958              	.LVL79:
 959              	.L48:
 265:/mnt/c/Users/31740/Documents/codes/newcore-rp2350/block/partition.c ****     }
 266:/mnt/c/Users/31740/Documents/codes/newcore-rp2350/block/partition.c ****     else{
 267:/mnt/c/Users/31740/Documents/codes/newcore-rp2350/block/partition.c ****         kfree(data);
 268:/mnt/c/Users/31740/Documents/codes/newcore-rp2350/block/partition.c ****         return -1;        
 269:/mnt/c/Users/31740/Documents/codes/newcore-rp2350/block/partition.c ****     }
 270:/mnt/c/Users/31740/Documents/codes/newcore-rp2350/block/partition.c **** }
 960              		.loc 1 270 1 view .LVU258
 961 007e 02B0     		add	sp, sp, #8
 962              	.LCFI21:
 963              		.cfi_remember_state
 964              		.cfi_def_cfa_offset 16
 965              		@ sp needed
 966 0080 70BD     		pop	{r4, r5, r6, pc}
 967              	.LVL80:
 968              	.L53:
 969              	.LCFI22:
 970              		.cfi_restore_state
 267:/mnt/c/Users/31740/Documents/codes/newcore-rp2350/block/partition.c ****         return -1;        
 971              		.loc 1 267 9 is_stmt 1 view .LVU259
 972              	.LBB102:
 973              	.LBI102:
 383:/mnt/c/Users/31740/Documents/codes/newcore-rp2350/include/linux/slab.h **** 	__sfree__((void*)ptr);
 974              		.loc 3 383 20 view .LVU260
 975              	.LBB103:
 976              		.loc 3 384 2 view .LVU261
 977 0082 2846     		mov	r0, r5
 978 0084 FFF7FEFF 		bl	__sfree__
 979              	.LVL81:
 980              		.loc 3 384 2 is_stmt 0 view .LVU262
 981              	.LBE103:
ARM GAS  /tmp/ccehv4l2.s 			page 48


 982              	.LBE102:
 268:/mnt/c/Users/31740/Documents/codes/newcore-rp2350/block/partition.c ****     }
 983              		.loc 1 268 9 is_stmt 1 view .LVU263
 268:/mnt/c/Users/31740/Documents/codes/newcore-rp2350/block/partition.c ****     }
 984              		.loc 1 268 16 is_stmt 0 view .LVU264
 985 0088 4FF0FF30 		mov	r0, #-1
 986 008c F7E7     		b	.L48
 987              	.LVL82:
 988              	.L54:
 989              	.LCFI23:
 990              		.cfi_def_cfa_offset 0
 991              		.cfi_restore 4
 992              		.cfi_restore 5
 993              		.cfi_restore 6
 994              		.cfi_restore 14
 253:/mnt/c/Users/31740/Documents/codes/newcore-rp2350/block/partition.c ****     char *data = kmalloc(512,GFP_KERNEL);
 995              		.loc 1 253 52 discriminator 3 view .LVU265
 996 008e 4FF0FF30 		mov	r0, #-1
 997              	.LVL83:
 998              		.loc 1 270 1 view .LVU266
 999 0092 7047     		bx	lr
 1000              	.LVL84:
 1001              	.L55:
 1002              	.LCFI24:
 1003              		.cfi_def_cfa_offset 24
 1004              		.cfi_offset 4, -16
 1005              		.cfi_offset 5, -12
 1006              		.cfi_offset 6, -8
 1007              		.cfi_offset 14, -4
 253:/mnt/c/Users/31740/Documents/codes/newcore-rp2350/block/partition.c ****     char *data = kmalloc(512,GFP_KERNEL);
 1008              		.loc 1 253 52 discriminator 3 view .LVU267
 1009 0094 4FF0FF30 		mov	r0, #-1
 1010              	.LVL85:
 253:/mnt/c/Users/31740/Documents/codes/newcore-rp2350/block/partition.c ****     char *data = kmalloc(512,GFP_KERNEL);
 1011              		.loc 1 253 52 discriminator 3 view .LVU268
 1012 0098 F1E7     		b	.L48
 1013              	.LVL86:
 1014              	.L56:
 255:/mnt/c/Users/31740/Documents/codes/newcore-rp2350/block/partition.c ****     for(int i =0;i<4;i++){
 1015              		.loc 1 255 29 discriminator 1 view .LVU269
 1016 009a 4FF0FF30 		mov	r0, #-1
 1017              	.LVL87:
 255:/mnt/c/Users/31740/Documents/codes/newcore-rp2350/block/partition.c ****     for(int i =0;i<4;i++){
 1018              		.loc 1 255 29 discriminator 1 view .LVU270
 1019 009e EEE7     		b	.L48
 1020              		.cfi_endproc
 1021              	.LFE1049:
 1023              		.section	.text.get_partition_from_device,"ax",%progbits
 1024              		.align	1
 1025              		.global	get_partition_from_device
 1026              		.syntax unified
 1027              		.thumb
 1028              		.thumb_func
 1030              	get_partition_from_device:
 1031              	.LVL88:
 1032              	.LFB1053:
 271:/mnt/c/Users/31740/Documents/codes/newcore-rp2350/block/partition.c **** 
ARM GAS  /tmp/ccehv4l2.s 			page 49


 272:/mnt/c/Users/31740/Documents/codes/newcore-rp2350/block/partition.c **** /**
 273:/mnt/c/Users/31740/Documents/codes/newcore-rp2350/block/partition.c ****  * mbr_table_delete -  MBR 
 274:/mnt/c/Users/31740/Documents/codes/newcore-rp2350/block/partition.c ****  * @device: 
 275:/mnt/c/Users/31740/Documents/codes/newcore-rp2350/block/partition.c ****  * @partition: 
 276:/mnt/c/Users/31740/Documents/codes/newcore-rp2350/block/partition.c ****  * @number: 0-3
 277:/mnt/c/Users/31740/Documents/codes/newcore-rp2350/block/partition.c ****  * @flags:  MBR  PROTECTIVE_MBR
 278:/mnt/c/Users/31740/Documents/codes/newcore-rp2350/block/partition.c ****  *
 279:/mnt/c/Users/31740/Documents/codes/newcore-rp2350/block/partition.c ****  *  MBR  MBR
 280:/mnt/c/Users/31740/Documents/codes/newcore-rp2350/block/partition.c ****  * 
 281:/mnt/c/Users/31740/Documents/codes/newcore-rp2350/block/partition.c ****  *
 282:/mnt/c/Users/31740/Documents/codes/newcore-rp2350/block/partition.c ****  * 
 283:/mnt/c/Users/31740/Documents/codes/newcore-rp2350/block/partition.c ****  * - 0 -1 
 284:/mnt/c/Users/31740/Documents/codes/newcore-rp2350/block/partition.c ****  *
 285:/mnt/c/Users/31740/Documents/codes/newcore-rp2350/block/partition.c ****  * 
 286:/mnt/c/Users/31740/Documents/codes/newcore-rp2350/block/partition.c ****  * mbr_table_delete -  MBR 
 287:/mnt/c/Users/31740/Documents/codes/newcore-rp2350/block/partition.c ****  * @device: 
 288:/mnt/c/Users/31740/Documents/codes/newcore-rp2350/block/partition.c ****  * @partition: 
 289:/mnt/c/Users/31740/Documents/codes/newcore-rp2350/block/partition.c ****  * @number: 0  3
 290:/mnt/c/Users/31740/Documents/codes/newcore-rp2350/block/partition.c ****  * @flags:  MBR  PROTECTIVE_MBR
 291:/mnt/c/Users/31740/Documents/codes/newcore-rp2350/block/partition.c ****  *
 292:/mnt/c/Users/31740/Documents/codes/newcore-rp2350/block/partition.c ****  *  MBR  MBR 
 293:/mnt/c/Users/31740/Documents/codes/newcore-rp2350/block/partition.c ****  * 
 294:/mnt/c/Users/31740/Documents/codes/newcore-rp2350/block/partition.c ****  *
 295:/mnt/c/Users/31740/Documents/codes/newcore-rp2350/block/partition.c ****  * 
 296:/mnt/c/Users/31740/Documents/codes/newcore-rp2350/block/partition.c ****  * -  0 -1
 297:/mnt/c/Users/31740/Documents/codes/newcore-rp2350/block/partition.c ****  */
 298:/mnt/c/Users/31740/Documents/codes/newcore-rp2350/block/partition.c **** static int mbr_table_delete(struct block_device *device,struct partition *partition,int number,enum
 299:/mnt/c/Users/31740/Documents/codes/newcore-rp2350/block/partition.c **** {
 300:/mnt/c/Users/31740/Documents/codes/newcore-rp2350/block/partition.c ****     if(device == NULL || partition == NULL) {
 301:/mnt/c/Users/31740/Documents/codes/newcore-rp2350/block/partition.c ****         printk(KERN_INFO"This device has not init\n\r");
 302:/mnt/c/Users/31740/Documents/codes/newcore-rp2350/block/partition.c ****         return -1;
 303:/mnt/c/Users/31740/Documents/codes/newcore-rp2350/block/partition.c ****     }
 304:/mnt/c/Users/31740/Documents/codes/newcore-rp2350/block/partition.c ****     if(flags != BLOCK_DEVICE_FLAG_MBR && flags!= BLOCK_DEVICE_FLAG_PROTECTIVE_MBR){
 305:/mnt/c/Users/31740/Documents/codes/newcore-rp2350/block/partition.c ****         printk(KERN_INFO"It's not a mbr device\n\r");
 306:/mnt/c/Users/31740/Documents/codes/newcore-rp2350/block/partition.c ****         return -1;
 307:/mnt/c/Users/31740/Documents/codes/newcore-rp2350/block/partition.c ****     }
 308:/mnt/c/Users/31740/Documents/codes/newcore-rp2350/block/partition.c ****     if(number < 0 || number > 3){
 309:/mnt/c/Users/31740/Documents/codes/newcore-rp2350/block/partition.c ****         printk(KERN_INFO"partition number is out of range\n\r");
 310:/mnt/c/Users/31740/Documents/codes/newcore-rp2350/block/partition.c ****         return -1;
 311:/mnt/c/Users/31740/Documents/codes/newcore-rp2350/block/partition.c ****     }
 312:/mnt/c/Users/31740/Documents/codes/newcore-rp2350/block/partition.c ****     if(mbr_partition_table_load(device,partition) < 0) return -1;           //mbr
 313:/mnt/c/Users/31740/Documents/codes/newcore-rp2350/block/partition.c ****     struct mbr_partition *mbr_partition = &partition->mbr_partition[number];
 314:/mnt/c/Users/31740/Documents/codes/newcore-rp2350/block/partition.c ****     if(check_empty_MBR_Table(partition,number) == 1){
 315:/mnt/c/Users/31740/Documents/codes/newcore-rp2350/block/partition.c ****         printk(KERN_INFO"This is a empty partition table slot\n\r");
 316:/mnt/c/Users/31740/Documents/codes/newcore-rp2350/block/partition.c ****         return -1;
 317:/mnt/c/Users/31740/Documents/codes/newcore-rp2350/block/partition.c ****     }
 318:/mnt/c/Users/31740/Documents/codes/newcore-rp2350/block/partition.c ****     else
 319:/mnt/c/Users/31740/Documents/codes/newcore-rp2350/block/partition.c ****         memset(mbr_partition, 0x00, sizeof(struct mbr_partition));
 320:/mnt/c/Users/31740/Documents/codes/newcore-rp2350/block/partition.c ****     tidy_up_MBR_Table(partition);
 321:/mnt/c/Users/31740/Documents/codes/newcore-rp2350/block/partition.c ****     mbr_partition_table_update(device,partition);
 322:/mnt/c/Users/31740/Documents/codes/newcore-rp2350/block/partition.c ****     return 0;
 323:/mnt/c/Users/31740/Documents/codes/newcore-rp2350/block/partition.c **** }
 324:/mnt/c/Users/31740/Documents/codes/newcore-rp2350/block/partition.c **** EXPORT_SYMBOL(mbr_table_delete);
 325:/mnt/c/Users/31740/Documents/codes/newcore-rp2350/block/partition.c **** 
 326:/mnt/c/Users/31740/Documents/codes/newcore-rp2350/block/partition.c **** 
 327:/mnt/c/Users/31740/Documents/codes/newcore-rp2350/block/partition.c **** /**
 328:/mnt/c/Users/31740/Documents/codes/newcore-rp2350/block/partition.c ****  * mbr_partition_table_format - Format the partition table on the block device using MBR scheme
ARM GAS  /tmp/ccehv4l2.s 			page 50


 329:/mnt/c/Users/31740/Documents/codes/newcore-rp2350/block/partition.c ****  * @device: pointer to the block device
 330:/mnt/c/Users/31740/Documents/codes/newcore-rp2350/block/partition.c ****  * @partition: pointer to the partition data structure
 331:/mnt/c/Users/31740/Documents/codes/newcore-rp2350/block/partition.c ****  * @size: the size of the partition to create (in sectors)
 332:/mnt/c/Users/31740/Documents/codes/newcore-rp2350/block/partition.c ****  * @type: the type of the partition (e.g., primary, logical, etc.)
 333:/mnt/c/Users/31740/Documents/codes/newcore-rp2350/block/partition.c ****  *
