ARM GAS  /tmp/ccDkYPHY.s 			page 1


   1              		.cpu cortex-m33
   2              		.arch armv8-m.main
   3              		.fpu fpv4-sp-d16
   4              		.arch_extension dsp
   5              		.eabi_attribute 27, 1
   6              		.eabi_attribute 28, 1
   7              		.eabi_attribute 20, 1
   8              		.eabi_attribute 21, 1
   9              		.eabi_attribute 23, 3
  10              		.eabi_attribute 24, 1
  11              		.eabi_attribute 25, 1
  12              		.eabi_attribute 26, 1
  13              		.eabi_attribute 30, 1
  14              		.eabi_attribute 34, 1
  15              		.eabi_attribute 18, 4
  16              		.file	"pipefs.c"
  17              		.text
  18              	.Ltext0:
  19              		.cfi_sections	.debug_frame
  20              		.file 1 "/mnt/c/Users/31740/Documents/codes/newcore-rp2350/fs/pipefs/pipefs.c"
  21              		.section	.text.spin_lock_init,"ax",%progbits
  22              		.align	1
  23              		.syntax unified
  24              		.thumb
  25              		.thumb_func
  27              	spin_lock_init:
  28              	.LVL0:
  29              	.LFB852:
  30              		.file 2 "/mnt/c/Users/31740/Documents/codes/newcore-rp2350/include/linux/spinlock.h"
   1:/mnt/c/Users/31740/Documents/codes/newcore-rp2350/include/linux/spinlock.h **** #ifndef __SPINLOCK_H__
   2:/mnt/c/Users/31740/Documents/codes/newcore-rp2350/include/linux/spinlock.h **** #define __SPINLOCK_H__
   3:/mnt/c/Users/31740/Documents/codes/newcore-rp2350/include/linux/spinlock.h **** 
   4:/mnt/c/Users/31740/Documents/codes/newcore-rp2350/include/linux/spinlock.h **** #include <linux/types.h>
   5:/mnt/c/Users/31740/Documents/codes/newcore-rp2350/include/linux/spinlock.h **** #include <linux/spinlock_types.h>
   6:/mnt/c/Users/31740/Documents/codes/newcore-rp2350/include/linux/spinlock.h **** #include <asm/irqflags.h>
   7:/mnt/c/Users/31740/Documents/codes/newcore-rp2350/include/linux/spinlock.h **** 
   8:/mnt/c/Users/31740/Documents/codes/newcore-rp2350/include/linux/spinlock.h **** struct task_struct;
   9:/mnt/c/Users/31740/Documents/codes/newcore-rp2350/include/linux/spinlock.h **** struct task_struct* get_current_task(void);
  10:/mnt/c/Users/31740/Documents/codes/newcore-rp2350/include/linux/spinlock.h **** void __delay(uint32_t time);
  11:/mnt/c/Users/31740/Documents/codes/newcore-rp2350/include/linux/spinlock.h **** 
  12:/mnt/c/Users/31740/Documents/codes/newcore-rp2350/include/linux/spinlock.h **** 
  13:/mnt/c/Users/31740/Documents/codes/newcore-rp2350/include/linux/spinlock.h **** 
  14:/mnt/c/Users/31740/Documents/codes/newcore-rp2350/include/linux/spinlock.h **** void _spin_lock(spinlock_t* lock);
  15:/mnt/c/Users/31740/Documents/codes/newcore-rp2350/include/linux/spinlock.h **** void _spin_unlock(spinlock_t* lock);
  16:/mnt/c/Users/31740/Documents/codes/newcore-rp2350/include/linux/spinlock.h **** 
  17:/mnt/c/Users/31740/Documents/codes/newcore-rp2350/include/linux/spinlock.h **** static void spin_lock_init(spinlock_t* lock){
  31              		.loc 2 17 45 view -0
  32              		.cfi_startproc
  33              		@ args = 0, pretend = 0, frame = 0
  34              		@ frame_needed = 0, uses_anonymous_args = 0
  35              		@ link register save eliminated.
  18:/mnt/c/Users/31740/Documents/codes/newcore-rp2350/include/linux/spinlock.h ****     lock->flag = 0;
  36              		.loc 2 18 5 view .LVU1
  37              		.loc 2 18 16 is_stmt 0 view .LVU2
  38 0000 0023     		movs	r3, #0
  39 0002 0360     		str	r3, [r0]
  19:/mnt/c/Users/31740/Documents/codes/newcore-rp2350/include/linux/spinlock.h **** }
ARM GAS  /tmp/ccDkYPHY.s 			page 2


  40              		.loc 2 19 1 view .LVU3
  41 0004 7047     		bx	lr
  42              		.cfi_endproc
  43              	.LFE852:
  45              		.section	.text.pipefs_statfs,"ax",%progbits
  46              		.align	1
  47              		.syntax unified
  48              		.thumb
  49              		.thumb_func
  51              	pipefs_statfs:
  52              	.LVL1:
  53              	.LFB1057:
   1:/mnt/c/Users/31740/Documents/codes/newcore-rp2350/fs/pipefs/pipefs.c **** #include <linux/kernel.h>
   2:/mnt/c/Users/31740/Documents/codes/newcore-rp2350/fs/pipefs/pipefs.c **** #include <linux/uaccess.h>
   3:/mnt/c/Users/31740/Documents/codes/newcore-rp2350/fs/pipefs/pipefs.c **** #include <linux/atomic.h>
   4:/mnt/c/Users/31740/Documents/codes/newcore-rp2350/fs/pipefs/pipefs.c **** #include <linux/types.h>
   5:/mnt/c/Users/31740/Documents/codes/newcore-rp2350/fs/pipefs/pipefs.c **** #include <linux/module.h>
   6:/mnt/c/Users/31740/Documents/codes/newcore-rp2350/fs/pipefs/pipefs.c **** #include <linux/string.h>
   7:/mnt/c/Users/31740/Documents/codes/newcore-rp2350/fs/pipefs/pipefs.c **** #include <linux/fs.h>
   8:/mnt/c/Users/31740/Documents/codes/newcore-rp2350/fs/pipefs/pipefs.c **** #include <linux/slab.h>
   9:/mnt/c/Users/31740/Documents/codes/newcore-rp2350/fs/pipefs/pipefs.c **** #include <linux/init.h>
  10:/mnt/c/Users/31740/Documents/codes/newcore-rp2350/fs/pipefs/pipefs.c **** #include <linux/sched.h>
  11:/mnt/c/Users/31740/Documents/codes/newcore-rp2350/fs/pipefs/pipefs.c **** 
  12:/mnt/c/Users/31740/Documents/codes/newcore-rp2350/fs/pipefs/pipefs.c **** 
  13:/mnt/c/Users/31740/Documents/codes/newcore-rp2350/fs/pipefs/pipefs.c **** 
  14:/mnt/c/Users/31740/Documents/codes/newcore-rp2350/fs/pipefs/pipefs.c **** 
  15:/mnt/c/Users/31740/Documents/codes/newcore-rp2350/fs/pipefs/pipefs.c **** #define MAGIC 12345678
  16:/mnt/c/Users/31740/Documents/codes/newcore-rp2350/fs/pipefs/pipefs.c **** struct pipefs_dentry {
  17:/mnt/c/Users/31740/Documents/codes/newcore-rp2350/fs/pipefs/pipefs.c ****     int                    magic;
  18:/mnt/c/Users/31740/Documents/codes/newcore-rp2350/fs/pipefs/pipefs.c ****     char *name;                             // ÂêçÂ≠ó
  19:/mnt/c/Users/31740/Documents/codes/newcore-rp2350/fs/pipefs/pipefs.c ****     struct pipefs_inode *target_inode;       // ËØ•dentryÊåáÂêëÁöÑÁõÆÊ†áinode
  20:/mnt/c/Users/31740/Documents/codes/newcore-rp2350/fs/pipefs/pipefs.c ****     struct list_head list_node;             // ÊåÇËΩΩÂà∞Áà∂ÁõÆÂΩïinode‰∏≠ÁöÑlisthead‰∏≠
  21:/mnt/c/Users/31740/Documents/codes/newcore-rp2350/fs/pipefs/pipefs.c **** };
  22:/mnt/c/Users/31740/Documents/codes/newcore-rp2350/fs/pipefs/pipefs.c **** struct pipefs_superblock {
  23:/mnt/c/Users/31740/Documents/codes/newcore-rp2350/fs/pipefs/pipefs.c ****     int                    magic;
  24:/mnt/c/Users/31740/Documents/codes/newcore-rp2350/fs/pipefs/pipefs.c ****     spinlock_t             lock;
  25:/mnt/c/Users/31740/Documents/codes/newcore-rp2350/fs/pipefs/pipefs.c ****     struct pipefs_inode *rootinode;
  26:/mnt/c/Users/31740/Documents/codes/newcore-rp2350/fs/pipefs/pipefs.c ****     struct list_head inode_list_head;       // ËØ•superblock‰∏ãÁöÑinodeÈìæË°®Â§¥
  27:/mnt/c/Users/31740/Documents/codes/newcore-rp2350/fs/pipefs/pipefs.c **** };
  28:/mnt/c/Users/31740/Documents/codes/newcore-rp2350/fs/pipefs/pipefs.c **** 
  29:/mnt/c/Users/31740/Documents/codes/newcore-rp2350/fs/pipefs/pipefs.c **** 
  30:/mnt/c/Users/31740/Documents/codes/newcore-rp2350/fs/pipefs/pipefs.c **** int pipe_buffer_read(struct pipe_buffer *buf, char* data) 
  31:/mnt/c/Users/31740/Documents/codes/newcore-rp2350/fs/pipefs/pipefs.c **** {
  32:/mnt/c/Users/31740/Documents/codes/newcore-rp2350/fs/pipefs/pipefs.c ****     spin_lock(&buf->lock);
  33:/mnt/c/Users/31740/Documents/codes/newcore-rp2350/fs/pipefs/pipefs.c **** 
  34:/mnt/c/Users/31740/Documents/codes/newcore-rp2350/fs/pipefs/pipefs.c ****     if (buf->head == buf->tail) {
  35:/mnt/c/Users/31740/Documents/codes/newcore-rp2350/fs/pipefs/pipefs.c ****         spin_unlock(&buf->lock);
  36:/mnt/c/Users/31740/Documents/codes/newcore-rp2350/fs/pipefs/pipefs.c ****         return -1; // Buffer empty
  37:/mnt/c/Users/31740/Documents/codes/newcore-rp2350/fs/pipefs/pipefs.c ****     }
  38:/mnt/c/Users/31740/Documents/codes/newcore-rp2350/fs/pipefs/pipefs.c **** 
  39:/mnt/c/Users/31740/Documents/codes/newcore-rp2350/fs/pipefs/pipefs.c ****     data[0] = buf->buffer[buf->tail];
  40:/mnt/c/Users/31740/Documents/codes/newcore-rp2350/fs/pipefs/pipefs.c ****     buf->tail = (buf->tail + 1) % buf->size;
  41:/mnt/c/Users/31740/Documents/codes/newcore-rp2350/fs/pipefs/pipefs.c **** 
  42:/mnt/c/Users/31740/Documents/codes/newcore-rp2350/fs/pipefs/pipefs.c ****     spin_unlock(&buf->lock);
  43:/mnt/c/Users/31740/Documents/codes/newcore-rp2350/fs/pipefs/pipefs.c ****     return 0;
  44:/mnt/c/Users/31740/Documents/codes/newcore-rp2350/fs/pipefs/pipefs.c **** }
  45:/mnt/c/Users/31740/Documents/codes/newcore-rp2350/fs/pipefs/pipefs.c **** 
ARM GAS  /tmp/ccDkYPHY.s 			page 3


  46:/mnt/c/Users/31740/Documents/codes/newcore-rp2350/fs/pipefs/pipefs.c **** int pipe_buffer_write(struct pipe_buffer *buf, char data)
  47:/mnt/c/Users/31740/Documents/codes/newcore-rp2350/fs/pipefs/pipefs.c **** {
  48:/mnt/c/Users/31740/Documents/codes/newcore-rp2350/fs/pipefs/pipefs.c ****     spin_lock(&buf->lock);
  49:/mnt/c/Users/31740/Documents/codes/newcore-rp2350/fs/pipefs/pipefs.c **** 
  50:/mnt/c/Users/31740/Documents/codes/newcore-rp2350/fs/pipefs/pipefs.c ****     if ((buf->head + 1) % buf->size == buf->tail) {
  51:/mnt/c/Users/31740/Documents/codes/newcore-rp2350/fs/pipefs/pipefs.c ****         spin_unlock(&buf->lock);
  52:/mnt/c/Users/31740/Documents/codes/newcore-rp2350/fs/pipefs/pipefs.c ****         return -1; // Buffer full
  53:/mnt/c/Users/31740/Documents/codes/newcore-rp2350/fs/pipefs/pipefs.c ****     }
  54:/mnt/c/Users/31740/Documents/codes/newcore-rp2350/fs/pipefs/pipefs.c **** 
  55:/mnt/c/Users/31740/Documents/codes/newcore-rp2350/fs/pipefs/pipefs.c ****     buf->buffer[buf->head] = data;
  56:/mnt/c/Users/31740/Documents/codes/newcore-rp2350/fs/pipefs/pipefs.c ****     buf->head = (buf->head + 1) % buf->size;
  57:/mnt/c/Users/31740/Documents/codes/newcore-rp2350/fs/pipefs/pipefs.c **** 
  58:/mnt/c/Users/31740/Documents/codes/newcore-rp2350/fs/pipefs/pipefs.c ****     spin_unlock(&buf->lock);
  59:/mnt/c/Users/31740/Documents/codes/newcore-rp2350/fs/pipefs/pipefs.c ****     return 0;
  60:/mnt/c/Users/31740/Documents/codes/newcore-rp2350/fs/pipefs/pipefs.c **** }
  61:/mnt/c/Users/31740/Documents/codes/newcore-rp2350/fs/pipefs/pipefs.c **** 
  62:/mnt/c/Users/31740/Documents/codes/newcore-rp2350/fs/pipefs/pipefs.c **** 
  63:/mnt/c/Users/31740/Documents/codes/newcore-rp2350/fs/pipefs/pipefs.c **** static int pipefs_open(struct inode *inode, struct file *file)
  64:/mnt/c/Users/31740/Documents/codes/newcore-rp2350/fs/pipefs/pipefs.c **** {
  65:/mnt/c/Users/31740/Documents/codes/newcore-rp2350/fs/pipefs/pipefs.c ****     struct pipefs_inode *p_inode = inode->i_private;
  66:/mnt/c/Users/31740/Documents/codes/newcore-rp2350/fs/pipefs/pipefs.c ****     if(p_inode->buf == NULL)
  67:/mnt/c/Users/31740/Documents/codes/newcore-rp2350/fs/pipefs/pipefs.c ****     {
  68:/mnt/c/Users/31740/Documents/codes/newcore-rp2350/fs/pipefs/pipefs.c ****         p_inode->buf = kmalloc(sizeof(struct pipe_buffer),GFP_KERNEL);
  69:/mnt/c/Users/31740/Documents/codes/newcore-rp2350/fs/pipefs/pipefs.c ****         if(!p_inode->buf)
  70:/mnt/c/Users/31740/Documents/codes/newcore-rp2350/fs/pipefs/pipefs.c ****            return -1;
  71:/mnt/c/Users/31740/Documents/codes/newcore-rp2350/fs/pipefs/pipefs.c ****     }
  72:/mnt/c/Users/31740/Documents/codes/newcore-rp2350/fs/pipefs/pipefs.c ****     return 0;
  73:/mnt/c/Users/31740/Documents/codes/newcore-rp2350/fs/pipefs/pipefs.c **** }
  74:/mnt/c/Users/31740/Documents/codes/newcore-rp2350/fs/pipefs/pipefs.c **** 
  75:/mnt/c/Users/31740/Documents/codes/newcore-rp2350/fs/pipefs/pipefs.c **** static int pipefs_release(struct inode *inode, struct file *file){
  76:/mnt/c/Users/31740/Documents/codes/newcore-rp2350/fs/pipefs/pipefs.c ****     pr_info("pipefs test close\n");
  77:/mnt/c/Users/31740/Documents/codes/newcore-rp2350/fs/pipefs/pipefs.c ****     return 0;
  78:/mnt/c/Users/31740/Documents/codes/newcore-rp2350/fs/pipefs/pipefs.c **** }
  79:/mnt/c/Users/31740/Documents/codes/newcore-rp2350/fs/pipefs/pipefs.c **** 
  80:/mnt/c/Users/31740/Documents/codes/newcore-rp2350/fs/pipefs/pipefs.c **** static int pipefs_read(struct file *file, char __user * data, size_t size, loff_t *offset)
  81:/mnt/c/Users/31740/Documents/codes/newcore-rp2350/fs/pipefs/pipefs.c **** {    
  82:/mnt/c/Users/31740/Documents/codes/newcore-rp2350/fs/pipefs/pipefs.c ****     for(int i = 0;i < size;i++)
  83:/mnt/c/Users/31740/Documents/codes/newcore-rp2350/fs/pipefs/pipefs.c ****     {
  84:/mnt/c/Users/31740/Documents/codes/newcore-rp2350/fs/pipefs/pipefs.c ****         while (pipe_buffer_read(((struct pipefs_inode*)(file->f_inode->i_private))->buf,&data[i]) <
  85:/mnt/c/Users/31740/Documents/codes/newcore-rp2350/fs/pipefs/pipefs.c ****             __delay(1);
  86:/mnt/c/Users/31740/Documents/codes/newcore-rp2350/fs/pipefs/pipefs.c ****         }
  87:/mnt/c/Users/31740/Documents/codes/newcore-rp2350/fs/pipefs/pipefs.c ****     }
  88:/mnt/c/Users/31740/Documents/codes/newcore-rp2350/fs/pipefs/pipefs.c ****     return 0;
  89:/mnt/c/Users/31740/Documents/codes/newcore-rp2350/fs/pipefs/pipefs.c **** }
  90:/mnt/c/Users/31740/Documents/codes/newcore-rp2350/fs/pipefs/pipefs.c **** 
  91:/mnt/c/Users/31740/Documents/codes/newcore-rp2350/fs/pipefs/pipefs.c **** static int pipefs_write(struct file *file, char __user * data, size_t size, loff_t *offset){
  92:/mnt/c/Users/31740/Documents/codes/newcore-rp2350/fs/pipefs/pipefs.c ****     int i;
  93:/mnt/c/Users/31740/Documents/codes/newcore-rp2350/fs/pipefs/pipefs.c ****     for(i = 0;i < size;i++)
  94:/mnt/c/Users/31740/Documents/codes/newcore-rp2350/fs/pipefs/pipefs.c ****     {
  95:/mnt/c/Users/31740/Documents/codes/newcore-rp2350/fs/pipefs/pipefs.c ****         while (pipe_buffer_write(((struct pipefs_inode*)(file->f_inode->i_private))->buf,data[i]) <
  96:/mnt/c/Users/31740/Documents/codes/newcore-rp2350/fs/pipefs/pipefs.c ****             __delay(1);
  97:/mnt/c/Users/31740/Documents/codes/newcore-rp2350/fs/pipefs/pipefs.c ****         }
  98:/mnt/c/Users/31740/Documents/codes/newcore-rp2350/fs/pipefs/pipefs.c ****     }
  99:/mnt/c/Users/31740/Documents/codes/newcore-rp2350/fs/pipefs/pipefs.c ****     return 0;
 100:/mnt/c/Users/31740/Documents/codes/newcore-rp2350/fs/pipefs/pipefs.c **** }
 101:/mnt/c/Users/31740/Documents/codes/newcore-rp2350/fs/pipefs/pipefs.c **** 
 102:/mnt/c/Users/31740/Documents/codes/newcore-rp2350/fs/pipefs/pipefs.c **** 
ARM GAS  /tmp/ccDkYPHY.s 			page 4


 103:/mnt/c/Users/31740/Documents/codes/newcore-rp2350/fs/pipefs/pipefs.c **** 
 104:/mnt/c/Users/31740/Documents/codes/newcore-rp2350/fs/pipefs/pipefs.c **** 
 105:/mnt/c/Users/31740/Documents/codes/newcore-rp2350/fs/pipefs/pipefs.c **** 
 106:/mnt/c/Users/31740/Documents/codes/newcore-rp2350/fs/pipefs/pipefs.c **** static struct file_operations pipefs_file_fops = {
 107:/mnt/c/Users/31740/Documents/codes/newcore-rp2350/fs/pipefs/pipefs.c ****     .owner = THIS_MODULE,
 108:/mnt/c/Users/31740/Documents/codes/newcore-rp2350/fs/pipefs/pipefs.c ****     .open = pipefs_open,
 109:/mnt/c/Users/31740/Documents/codes/newcore-rp2350/fs/pipefs/pipefs.c ****     .release = pipefs_release,
 110:/mnt/c/Users/31740/Documents/codes/newcore-rp2350/fs/pipefs/pipefs.c ****     .read  = pipefs_read,
 111:/mnt/c/Users/31740/Documents/codes/newcore-rp2350/fs/pipefs/pipefs.c ****     .write = pipefs_write
 112:/mnt/c/Users/31740/Documents/codes/newcore-rp2350/fs/pipefs/pipefs.c **** };
 113:/mnt/c/Users/31740/Documents/codes/newcore-rp2350/fs/pipefs/pipefs.c **** 
 114:/mnt/c/Users/31740/Documents/codes/newcore-rp2350/fs/pipefs/pipefs.c **** static struct pipefs_inode *pipefs_create_empty_inode(struct pipefs_superblock *sb,struct file_oper
 115:/mnt/c/Users/31740/Documents/codes/newcore-rp2350/fs/pipefs/pipefs.c **** {
 116:/mnt/c/Users/31740/Documents/codes/newcore-rp2350/fs/pipefs/pipefs.c ****     if(fop == NULL) return NULL;
 117:/mnt/c/Users/31740/Documents/codes/newcore-rp2350/fs/pipefs/pipefs.c ****     struct pipefs_inode *pipe_inode = kmalloc(sizeof(struct pipefs_inode),GFP_KERNEL);
 118:/mnt/c/Users/31740/Documents/codes/newcore-rp2350/fs/pipefs/pipefs.c ****     if(pipe_inode == NULL) return NULL;
 119:/mnt/c/Users/31740/Documents/codes/newcore-rp2350/fs/pipefs/pipefs.c ****     pipe_inode->magic = MAGIC;
 120:/mnt/c/Users/31740/Documents/codes/newcore-rp2350/fs/pipefs/pipefs.c ****     pipe_inode->major = major;
 121:/mnt/c/Users/31740/Documents/codes/newcore-rp2350/fs/pipefs/pipefs.c ****     pipe_inode->i_fop = fop;
 122:/mnt/c/Users/31740/Documents/codes/newcore-rp2350/fs/pipefs/pipefs.c ****     pipe_inode->sb    = sb;
 123:/mnt/c/Users/31740/Documents/codes/newcore-rp2350/fs/pipefs/pipefs.c ****     pipe_inode->i_mode = S_IFREG | 0755;
 124:/mnt/c/Users/31740/Documents/codes/newcore-rp2350/fs/pipefs/pipefs.c ****     atomic_set(&pipe_inode->dentry_count,0);
 125:/mnt/c/Users/31740/Documents/codes/newcore-rp2350/fs/pipefs/pipefs.c ****     spin_lock_init(&pipe_inode->lock);
 126:/mnt/c/Users/31740/Documents/codes/newcore-rp2350/fs/pipefs/pipefs.c ****     INIT_LIST_HEAD(&pipe_inode->list_node);
 127:/mnt/c/Users/31740/Documents/codes/newcore-rp2350/fs/pipefs/pipefs.c ****     INIT_LIST_HEAD(&pipe_inode->dentry_list_head);
 128:/mnt/c/Users/31740/Documents/codes/newcore-rp2350/fs/pipefs/pipefs.c ****     
 129:/mnt/c/Users/31740/Documents/codes/newcore-rp2350/fs/pipefs/pipefs.c ****     pipe_inode->buf = NULL;
 130:/mnt/c/Users/31740/Documents/codes/newcore-rp2350/fs/pipefs/pipefs.c **** 
 131:/mnt/c/Users/31740/Documents/codes/newcore-rp2350/fs/pipefs/pipefs.c ****     spin_lock(&sb->lock);
 132:/mnt/c/Users/31740/Documents/codes/newcore-rp2350/fs/pipefs/pipefs.c ****     list_add(&pipe_inode->list_node,&sb->inode_list_head);
 133:/mnt/c/Users/31740/Documents/codes/newcore-rp2350/fs/pipefs/pipefs.c ****     spin_unlock(&sb->lock);
 134:/mnt/c/Users/31740/Documents/codes/newcore-rp2350/fs/pipefs/pipefs.c ****     
 135:/mnt/c/Users/31740/Documents/codes/newcore-rp2350/fs/pipefs/pipefs.c ****     return pipe_inode;
 136:/mnt/c/Users/31740/Documents/codes/newcore-rp2350/fs/pipefs/pipefs.c **** }
 137:/mnt/c/Users/31740/Documents/codes/newcore-rp2350/fs/pipefs/pipefs.c **** static void pipefs_inode_put(struct pipefs_inode *node){
 138:/mnt/c/Users/31740/Documents/codes/newcore-rp2350/fs/pipefs/pipefs.c ****     if(node != NULL)
 139:/mnt/c/Users/31740/Documents/codes/newcore-rp2350/fs/pipefs/pipefs.c ****     {
 140:/mnt/c/Users/31740/Documents/codes/newcore-rp2350/fs/pipefs/pipefs.c ****         if(node->buf){
 141:/mnt/c/Users/31740/Documents/codes/newcore-rp2350/fs/pipefs/pipefs.c ****             kfree(node->buf);
 142:/mnt/c/Users/31740/Documents/codes/newcore-rp2350/fs/pipefs/pipefs.c ****         }
 143:/mnt/c/Users/31740/Documents/codes/newcore-rp2350/fs/pipefs/pipefs.c ****         kfree(node);
 144:/mnt/c/Users/31740/Documents/codes/newcore-rp2350/fs/pipefs/pipefs.c ****     }
 145:/mnt/c/Users/31740/Documents/codes/newcore-rp2350/fs/pipefs/pipefs.c **** }
 146:/mnt/c/Users/31740/Documents/codes/newcore-rp2350/fs/pipefs/pipefs.c **** static struct pipefs_dentry* pipefs_create_dentry(struct pipefs_inode* parent_dentry_inode,struct p
 147:/mnt/c/Users/31740/Documents/codes/newcore-rp2350/fs/pipefs/pipefs.c **** {
 148:/mnt/c/Users/31740/Documents/codes/newcore-rp2350/fs/pipefs/pipefs.c ****     if(parent_dentry_inode == NULL || name == NULL || target_inode == NULL) return NULL;
 149:/mnt/c/Users/31740/Documents/codes/newcore-rp2350/fs/pipefs/pipefs.c **** 
 150:/mnt/c/Users/31740/Documents/codes/newcore-rp2350/fs/pipefs/pipefs.c ****     struct pipefs_dentry* new_dentry =  kmalloc(sizeof(struct pipefs_dentry),GFP_KERNEL);
 151:/mnt/c/Users/31740/Documents/codes/newcore-rp2350/fs/pipefs/pipefs.c ****     if(new_dentry == NULL)return NULL;
 152:/mnt/c/Users/31740/Documents/codes/newcore-rp2350/fs/pipefs/pipefs.c ****     new_dentry->magic = MAGIC;
 153:/mnt/c/Users/31740/Documents/codes/newcore-rp2350/fs/pipefs/pipefs.c ****     new_dentry->name = NULL;
 154:/mnt/c/Users/31740/Documents/codes/newcore-rp2350/fs/pipefs/pipefs.c ****     new_dentry->name = kmalloc(strlen(name) + 1,GFP_KERNEL);
 155:/mnt/c/Users/31740/Documents/codes/newcore-rp2350/fs/pipefs/pipefs.c ****     if(new_dentry->name  == NULL) {
 156:/mnt/c/Users/31740/Documents/codes/newcore-rp2350/fs/pipefs/pipefs.c ****         kfree(new_dentry);
 157:/mnt/c/Users/31740/Documents/codes/newcore-rp2350/fs/pipefs/pipefs.c ****         return NULL;
 158:/mnt/c/Users/31740/Documents/codes/newcore-rp2350/fs/pipefs/pipefs.c ****     }
 159:/mnt/c/Users/31740/Documents/codes/newcore-rp2350/fs/pipefs/pipefs.c ****     strcpy(new_dentry->name,name);
ARM GAS  /tmp/ccDkYPHY.s 			page 5


 160:/mnt/c/Users/31740/Documents/codes/newcore-rp2350/fs/pipefs/pipefs.c ****     new_dentry->target_inode = target_inode;
 161:/mnt/c/Users/31740/Documents/codes/newcore-rp2350/fs/pipefs/pipefs.c ****     INIT_LIST_HEAD(&new_dentry->list_node);
 162:/mnt/c/Users/31740/Documents/codes/newcore-rp2350/fs/pipefs/pipefs.c ****     
 163:/mnt/c/Users/31740/Documents/codes/newcore-rp2350/fs/pipefs/pipefs.c **** 
 164:/mnt/c/Users/31740/Documents/codes/newcore-rp2350/fs/pipefs/pipefs.c ****     atomic_inc (&target_inode->dentry_count);      //Â¢ûÂä†ÂºïÁî®ËÆ°Êï∞
 165:/mnt/c/Users/31740/Documents/codes/newcore-rp2350/fs/pipefs/pipefs.c ****     
 166:/mnt/c/Users/31740/Documents/codes/newcore-rp2350/fs/pipefs/pipefs.c ****     
 167:/mnt/c/Users/31740/Documents/codes/newcore-rp2350/fs/pipefs/pipefs.c ****     spin_lock   (&parent_dentry_inode->lock);
 168:/mnt/c/Users/31740/Documents/codes/newcore-rp2350/fs/pipefs/pipefs.c ****     list_add    (&new_dentry->list_node,&parent_dentry_inode->dentry_list_head);
 169:/mnt/c/Users/31740/Documents/codes/newcore-rp2350/fs/pipefs/pipefs.c ****     spin_unlock(&parent_dentry_inode->lock);
 170:/mnt/c/Users/31740/Documents/codes/newcore-rp2350/fs/pipefs/pipefs.c ****     return new_dentry;
 171:/mnt/c/Users/31740/Documents/codes/newcore-rp2350/fs/pipefs/pipefs.c **** }
 172:/mnt/c/Users/31740/Documents/codes/newcore-rp2350/fs/pipefs/pipefs.c **** static struct pipefs_dentry* pipefs_create_inode( struct pipefs_superblock *sb,struct pipefs_inode*
 173:/mnt/c/Users/31740/Documents/codes/newcore-rp2350/fs/pipefs/pipefs.c **** {
 174:/mnt/c/Users/31740/Documents/codes/newcore-rp2350/fs/pipefs/pipefs.c ****     struct pipefs_inode * new_inode = pipefs_create_empty_inode(sb,fop,major);
 175:/mnt/c/Users/31740/Documents/codes/newcore-rp2350/fs/pipefs/pipefs.c ****     if(new_inode == NULL){
 176:/mnt/c/Users/31740/Documents/codes/newcore-rp2350/fs/pipefs/pipefs.c ****         return NULL;
 177:/mnt/c/Users/31740/Documents/codes/newcore-rp2350/fs/pipefs/pipefs.c ****     }   
 178:/mnt/c/Users/31740/Documents/codes/newcore-rp2350/fs/pipefs/pipefs.c ****     struct pipefs_dentry* new_dentry = pipefs_create_dentry(parent_dentry_inode,new_inode,name); //
 179:/mnt/c/Users/31740/Documents/codes/newcore-rp2350/fs/pipefs/pipefs.c ****     if(new_dentry == NULL){
 180:/mnt/c/Users/31740/Documents/codes/newcore-rp2350/fs/pipefs/pipefs.c ****         spin_lock(&sb->lock);
 181:/mnt/c/Users/31740/Documents/codes/newcore-rp2350/fs/pipefs/pipefs.c ****         list_del(&new_inode->list_node);
 182:/mnt/c/Users/31740/Documents/codes/newcore-rp2350/fs/pipefs/pipefs.c ****         spin_unlock(&sb->lock);
 183:/mnt/c/Users/31740/Documents/codes/newcore-rp2350/fs/pipefs/pipefs.c ****         pipefs_inode_put(new_inode);
 184:/mnt/c/Users/31740/Documents/codes/newcore-rp2350/fs/pipefs/pipefs.c ****         return NULL;
 185:/mnt/c/Users/31740/Documents/codes/newcore-rp2350/fs/pipefs/pipefs.c ****     }
 186:/mnt/c/Users/31740/Documents/codes/newcore-rp2350/fs/pipefs/pipefs.c ****     return new_dentry;
 187:/mnt/c/Users/31740/Documents/codes/newcore-rp2350/fs/pipefs/pipefs.c **** }
 188:/mnt/c/Users/31740/Documents/codes/newcore-rp2350/fs/pipefs/pipefs.c **** static struct pipefs_dentry* pipefs_create_file(struct pipefs_superblock *sb,struct pipefs_inode* p
 189:/mnt/c/Users/31740/Documents/codes/newcore-rp2350/fs/pipefs/pipefs.c **** {
 190:/mnt/c/Users/31740/Documents/codes/newcore-rp2350/fs/pipefs/pipefs.c ****     return pipefs_create_inode(sb,parent_dentry_inode,fop,major,name);
 191:/mnt/c/Users/31740/Documents/codes/newcore-rp2350/fs/pipefs/pipefs.c **** }
 192:/mnt/c/Users/31740/Documents/codes/newcore-rp2350/fs/pipefs/pipefs.c **** 
 193:/mnt/c/Users/31740/Documents/codes/newcore-rp2350/fs/pipefs/pipefs.c **** static struct pipefs_dentry* pipefs_create_dir(struct pipefs_superblock *sb,struct pipefs_inode* pa
 194:/mnt/c/Users/31740/Documents/codes/newcore-rp2350/fs/pipefs/pipefs.c **** {
 195:/mnt/c/Users/31740/Documents/codes/newcore-rp2350/fs/pipefs/pipefs.c ****     struct pipefs_dentry* dentry =  pipefs_create_inode(sb,parent_dentry_inode,&pipefs_file_fops,0,
 196:/mnt/c/Users/31740/Documents/codes/newcore-rp2350/fs/pipefs/pipefs.c ****     if(dentry == NULL) return NULL;
 197:/mnt/c/Users/31740/Documents/codes/newcore-rp2350/fs/pipefs/pipefs.c ****     dentry->target_inode->i_mode = S_IFDIR | 0755;
 198:/mnt/c/Users/31740/Documents/codes/newcore-rp2350/fs/pipefs/pipefs.c ****     return dentry;
 199:/mnt/c/Users/31740/Documents/codes/newcore-rp2350/fs/pipefs/pipefs.c **** }
 200:/mnt/c/Users/31740/Documents/codes/newcore-rp2350/fs/pipefs/pipefs.c **** static void dentry_put(struct pipefs_superblock *sb,struct pipefs_dentry* dentry)
 201:/mnt/c/Users/31740/Documents/codes/newcore-rp2350/fs/pipefs/pipefs.c **** {
 202:/mnt/c/Users/31740/Documents/codes/newcore-rp2350/fs/pipefs/pipefs.c ****     if(dentry == NULL) return;
 203:/mnt/c/Users/31740/Documents/codes/newcore-rp2350/fs/pipefs/pipefs.c ****     if(dentry->target_inode != NULL)
 204:/mnt/c/Users/31740/Documents/codes/newcore-rp2350/fs/pipefs/pipefs.c ****     {
 205:/mnt/c/Users/31740/Documents/codes/newcore-rp2350/fs/pipefs/pipefs.c ****         spin_lock(&sb->lock);
 206:/mnt/c/Users/31740/Documents/codes/newcore-rp2350/fs/pipefs/pipefs.c ****         if (atomic_dec_and_test(&dentry->target_inode->dentry_count)) //Ê£ÄÊµãinodeÂºïÁî®ËÆ°Êï∞ÊòØÂ
 207:/mnt/c/Users/31740/Documents/codes/newcore-rp2350/fs/pipefs/pipefs.c ****         {
 208:/mnt/c/Users/31740/Documents/codes/newcore-rp2350/fs/pipefs/pipefs.c ****             list_del(&dentry->target_inode->list_node);    
 209:/mnt/c/Users/31740/Documents/codes/newcore-rp2350/fs/pipefs/pipefs.c ****             pipefs_inode_put(dentry->target_inode);
 210:/mnt/c/Users/31740/Documents/codes/newcore-rp2350/fs/pipefs/pipefs.c ****         }
 211:/mnt/c/Users/31740/Documents/codes/newcore-rp2350/fs/pipefs/pipefs.c ****         spin_unlock(&sb->lock);
 212:/mnt/c/Users/31740/Documents/codes/newcore-rp2350/fs/pipefs/pipefs.c ****     }
 213:/mnt/c/Users/31740/Documents/codes/newcore-rp2350/fs/pipefs/pipefs.c ****     kfree(dentry->name);
 214:/mnt/c/Users/31740/Documents/codes/newcore-rp2350/fs/pipefs/pipefs.c ****     kfree(dentry);
 215:/mnt/c/Users/31740/Documents/codes/newcore-rp2350/fs/pipefs/pipefs.c **** }
 216:/mnt/c/Users/31740/Documents/codes/newcore-rp2350/fs/pipefs/pipefs.c **** static void pipefs_delete_dentry(struct pipefs_superblock *sb,struct pipefs_inode* parent_dentry_in
ARM GAS  /tmp/ccDkYPHY.s 			page 6


 217:/mnt/c/Users/31740/Documents/codes/newcore-rp2350/fs/pipefs/pipefs.c ****     if(parent_dentry_inode != NULL) spin_lock(&parent_dentry_inode->lock);
 218:/mnt/c/Users/31740/Documents/codes/newcore-rp2350/fs/pipefs/pipefs.c ****     
 219:/mnt/c/Users/31740/Documents/codes/newcore-rp2350/fs/pipefs/pipefs.c ****     if ((delete_dentry->target_inode->i_mode & S_IFMT) == S_IFDIR ){         //Â¶ÇÊûúÊòØÁõÆÂΩïÈ°πÈú
 220:/mnt/c/Users/31740/Documents/codes/newcore-rp2350/fs/pipefs/pipefs.c ****         if(!list_empty(&delete_dentry->target_inode->dentry_list_head)){      //Â¶ÇÊûúÁõÆÂΩï‰∏ãÁöÑi
 221:/mnt/c/Users/31740/Documents/codes/newcore-rp2350/fs/pipefs/pipefs.c ****             if(parent_dentry_inode != NULL) 
 222:/mnt/c/Users/31740/Documents/codes/newcore-rp2350/fs/pipefs/pipefs.c ****                 spin_unlock(&parent_dentry_inode->lock);
 223:/mnt/c/Users/31740/Documents/codes/newcore-rp2350/fs/pipefs/pipefs.c ****             return;
 224:/mnt/c/Users/31740/Documents/codes/newcore-rp2350/fs/pipefs/pipefs.c ****         }
 225:/mnt/c/Users/31740/Documents/codes/newcore-rp2350/fs/pipefs/pipefs.c ****     }
 226:/mnt/c/Users/31740/Documents/codes/newcore-rp2350/fs/pipefs/pipefs.c ****     list_del(&delete_dentry->list_node);                                     //Â∞Üdentry‰ªéÁà∂ÁõÆÂΩ
 227:/mnt/c/Users/31740/Documents/codes/newcore-rp2350/fs/pipefs/pipefs.c ****     if(parent_dentry_inode != NULL) spin_unlock(&parent_dentry_inode->lock);
 228:/mnt/c/Users/31740/Documents/codes/newcore-rp2350/fs/pipefs/pipefs.c ****     dentry_put(sb,delete_dentry);
 229:/mnt/c/Users/31740/Documents/codes/newcore-rp2350/fs/pipefs/pipefs.c **** }
 230:/mnt/c/Users/31740/Documents/codes/newcore-rp2350/fs/pipefs/pipefs.c **** static struct pipefs_superblock* pipefs_superblock_create(void) //ÂàõÂª∫superblock
 231:/mnt/c/Users/31740/Documents/codes/newcore-rp2350/fs/pipefs/pipefs.c **** {
 232:/mnt/c/Users/31740/Documents/codes/newcore-rp2350/fs/pipefs/pipefs.c ****     struct pipefs_superblock*d_sb = kmalloc(sizeof(struct pipefs_superblock),GFP_KERNEL);
 233:/mnt/c/Users/31740/Documents/codes/newcore-rp2350/fs/pipefs/pipefs.c ****     if(d_sb == NULL){
 234:/mnt/c/Users/31740/Documents/codes/newcore-rp2350/fs/pipefs/pipefs.c ****         return NULL;        
 235:/mnt/c/Users/31740/Documents/codes/newcore-rp2350/fs/pipefs/pipefs.c ****     }
 236:/mnt/c/Users/31740/Documents/codes/newcore-rp2350/fs/pipefs/pipefs.c ****     d_sb->magic = MAGIC;
 237:/mnt/c/Users/31740/Documents/codes/newcore-rp2350/fs/pipefs/pipefs.c ****     spin_lock_init(&d_sb->lock);
 238:/mnt/c/Users/31740/Documents/codes/newcore-rp2350/fs/pipefs/pipefs.c ****     INIT_LIST_HEAD(&d_sb->inode_list_head);
 239:/mnt/c/Users/31740/Documents/codes/newcore-rp2350/fs/pipefs/pipefs.c ****     struct pipefs_inode* root_inode = pipefs_create_empty_inode(d_sb ,&pipefs_file_fops,0);
 240:/mnt/c/Users/31740/Documents/codes/newcore-rp2350/fs/pipefs/pipefs.c ****     if(root_inode == NULL){
 241:/mnt/c/Users/31740/Documents/codes/newcore-rp2350/fs/pipefs/pipefs.c ****         kfree(d_sb);
 242:/mnt/c/Users/31740/Documents/codes/newcore-rp2350/fs/pipefs/pipefs.c ****         return NULL;
 243:/mnt/c/Users/31740/Documents/codes/newcore-rp2350/fs/pipefs/pipefs.c ****     }
 244:/mnt/c/Users/31740/Documents/codes/newcore-rp2350/fs/pipefs/pipefs.c ****     root_inode->i_mode = S_IFDIR | 0755;
 245:/mnt/c/Users/31740/Documents/codes/newcore-rp2350/fs/pipefs/pipefs.c ****     d_sb->rootinode = root_inode;
 246:/mnt/c/Users/31740/Documents/codes/newcore-rp2350/fs/pipefs/pipefs.c ****     root_inode->i_fop = &pipefs_file_fops;
 247:/mnt/c/Users/31740/Documents/codes/newcore-rp2350/fs/pipefs/pipefs.c ****     atomic_inc (&root_inode->dentry_count); 
 248:/mnt/c/Users/31740/Documents/codes/newcore-rp2350/fs/pipefs/pipefs.c ****     INIT_LIST_HEAD(&root_inode->dentry_list_head);
 249:/mnt/c/Users/31740/Documents/codes/newcore-rp2350/fs/pipefs/pipefs.c ****     return d_sb;
 250:/mnt/c/Users/31740/Documents/codes/newcore-rp2350/fs/pipefs/pipefs.c **** } 
 251:/mnt/c/Users/31740/Documents/codes/newcore-rp2350/fs/pipefs/pipefs.c **** static void pipefs_superblock_destory(struct pipefs_superblock* sb){
 252:/mnt/c/Users/31740/Documents/codes/newcore-rp2350/fs/pipefs/pipefs.c ****     if(sb!= NULL) {
 253:/mnt/c/Users/31740/Documents/codes/newcore-rp2350/fs/pipefs/pipefs.c ****         struct pipefs_inode * root_inode = sb->rootinode;
 254:/mnt/c/Users/31740/Documents/codes/newcore-rp2350/fs/pipefs/pipefs.c ****         if(!root_inode){
 255:/mnt/c/Users/31740/Documents/codes/newcore-rp2350/fs/pipefs/pipefs.c ****             kfree(root_inode);
 256:/mnt/c/Users/31740/Documents/codes/newcore-rp2350/fs/pipefs/pipefs.c ****         }
 257:/mnt/c/Users/31740/Documents/codes/newcore-rp2350/fs/pipefs/pipefs.c ****         kfree(sb);
 258:/mnt/c/Users/31740/Documents/codes/newcore-rp2350/fs/pipefs/pipefs.c ****     }
 259:/mnt/c/Users/31740/Documents/codes/newcore-rp2350/fs/pipefs/pipefs.c **** }
 260:/mnt/c/Users/31740/Documents/codes/newcore-rp2350/fs/pipefs/pipefs.c **** 
 261:/mnt/c/Users/31740/Documents/codes/newcore-rp2350/fs/pipefs/pipefs.c **** static struct pipefs_dentry* pipefs_lookup(struct pipefs_inode* dentry_inode,char *name)
 262:/mnt/c/Users/31740/Documents/codes/newcore-rp2350/fs/pipefs/pipefs.c **** {
 263:/mnt/c/Users/31740/Documents/codes/newcore-rp2350/fs/pipefs/pipefs.c ****     if(dentry_inode == NULL) return NULL;
 264:/mnt/c/Users/31740/Documents/codes/newcore-rp2350/fs/pipefs/pipefs.c ****     if ( (dentry_inode->i_mode & S_IFMT) != S_IFDIR ) return NULL;
 265:/mnt/c/Users/31740/Documents/codes/newcore-rp2350/fs/pipefs/pipefs.c ****     struct pipefs_dentry* pos;
 266:/mnt/c/Users/31740/Documents/codes/newcore-rp2350/fs/pipefs/pipefs.c ****     spin_lock(&dentry_inode->lock);
 267:/mnt/c/Users/31740/Documents/codes/newcore-rp2350/fs/pipefs/pipefs.c ****     list_for_each_entry(pos, &dentry_inode->dentry_list_head,list_node ) {
 268:/mnt/c/Users/31740/Documents/codes/newcore-rp2350/fs/pipefs/pipefs.c ****         if (strcmp(pos->name, name) == 0) {
 269:/mnt/c/Users/31740/Documents/codes/newcore-rp2350/fs/pipefs/pipefs.c ****             spin_unlock(&dentry_inode->lock);
 270:/mnt/c/Users/31740/Documents/codes/newcore-rp2350/fs/pipefs/pipefs.c ****             return pos;
 271:/mnt/c/Users/31740/Documents/codes/newcore-rp2350/fs/pipefs/pipefs.c ****         }
 272:/mnt/c/Users/31740/Documents/codes/newcore-rp2350/fs/pipefs/pipefs.c ****     }
 273:/mnt/c/Users/31740/Documents/codes/newcore-rp2350/fs/pipefs/pipefs.c ****     spin_unlock(&dentry_inode->lock);
ARM GAS  /tmp/ccDkYPHY.s 			page 7


 274:/mnt/c/Users/31740/Documents/codes/newcore-rp2350/fs/pipefs/pipefs.c ****     return NULL;
 275:/mnt/c/Users/31740/Documents/codes/newcore-rp2350/fs/pipefs/pipefs.c **** }
 276:/mnt/c/Users/31740/Documents/codes/newcore-rp2350/fs/pipefs/pipefs.c **** 
 277:/mnt/c/Users/31740/Documents/codes/newcore-rp2350/fs/pipefs/pipefs.c **** 
 278:/mnt/c/Users/31740/Documents/codes/newcore-rp2350/fs/pipefs/pipefs.c **** 
 279:/mnt/c/Users/31740/Documents/codes/newcore-rp2350/fs/pipefs/pipefs.c **** 
 280:/mnt/c/Users/31740/Documents/codes/newcore-rp2350/fs/pipefs/pipefs.c **** 
 281:/mnt/c/Users/31740/Documents/codes/newcore-rp2350/fs/pipefs/pipefs.c **** 
 282:/mnt/c/Users/31740/Documents/codes/newcore-rp2350/fs/pipefs/pipefs.c **** 
 283:/mnt/c/Users/31740/Documents/codes/newcore-rp2350/fs/pipefs/pipefs.c **** 
 284:/mnt/c/Users/31740/Documents/codes/newcore-rp2350/fs/pipefs/pipefs.c **** 
 285:/mnt/c/Users/31740/Documents/codes/newcore-rp2350/fs/pipefs/pipefs.c **** static struct super_operations pipefs_super_operation;
 286:/mnt/c/Users/31740/Documents/codes/newcore-rp2350/fs/pipefs/pipefs.c **** static struct dentry_operations pipefs_dentry_operation;
 287:/mnt/c/Users/31740/Documents/codes/newcore-rp2350/fs/pipefs/pipefs.c **** static struct inode_operations pipefs_inode_operation;
 288:/mnt/c/Users/31740/Documents/codes/newcore-rp2350/fs/pipefs/pipefs.c **** 
 289:/mnt/c/Users/31740/Documents/codes/newcore-rp2350/fs/pipefs/pipefs.c **** static void pipefs_kill_sb (struct super_block * sb);
 290:/mnt/c/Users/31740/Documents/codes/newcore-rp2350/fs/pipefs/pipefs.c **** static struct inode *pipefs_alloc_inode(struct super_block *sb);
 291:/mnt/c/Users/31740/Documents/codes/newcore-rp2350/fs/pipefs/pipefs.c **** static void  pipefs_destroy_inode(struct inode * node); //Êí§ÈîÄpipefs_alloc_inodeÊâÄÂÅöÁöÑ‰∏ÄÂàá
 292:/mnt/c/Users/31740/Documents/codes/newcore-rp2350/fs/pipefs/pipefs.c **** static int pipefs_statfs (struct dentry * dentry, struct kstatfs *star);
 293:/mnt/c/Users/31740/Documents/codes/newcore-rp2350/fs/pipefs/pipefs.c **** static struct dentry * pipefs_get_dentry(struct dentry * vdentry, struct pipefs_dentry *dentry);
 294:/mnt/c/Users/31740/Documents/codes/newcore-rp2350/fs/pipefs/pipefs.c **** static struct super_block *pipefs_get_vfs_superblock(struct pipefs_superblock *sb);
 295:/mnt/c/Users/31740/Documents/codes/newcore-rp2350/fs/pipefs/pipefs.c **** static struct inode *  pipefs_get_inode(struct pipefs_inode *,struct super_block*);
 296:/mnt/c/Users/31740/Documents/codes/newcore-rp2350/fs/pipefs/pipefs.c **** static struct dentry *pipefs_mount(struct file_system_type *fs_type,
 297:/mnt/c/Users/31740/Documents/codes/newcore-rp2350/fs/pipefs/pipefs.c ****     int flags,
 298:/mnt/c/Users/31740/Documents/codes/newcore-rp2350/fs/pipefs/pipefs.c ****     const char *pipe_name,
 299:/mnt/c/Users/31740/Documents/codes/newcore-rp2350/fs/pipefs/pipefs.c ****     void *data);
 300:/mnt/c/Users/31740/Documents/codes/newcore-rp2350/fs/pipefs/pipefs.c **** 
 301:/mnt/c/Users/31740/Documents/codes/newcore-rp2350/fs/pipefs/pipefs.c **** static struct file_system_type fs_type = {
 302:/mnt/c/Users/31740/Documents/codes/newcore-rp2350/fs/pipefs/pipefs.c ****     .name     = "pipefs",
 303:/mnt/c/Users/31740/Documents/codes/newcore-rp2350/fs/pipefs/pipefs.c ****     .fs_flags = 0,
 304:/mnt/c/Users/31740/Documents/codes/newcore-rp2350/fs/pipefs/pipefs.c ****     .init_fs_context = NULL,
 305:/mnt/c/Users/31740/Documents/codes/newcore-rp2350/fs/pipefs/pipefs.c ****     .kill_sb  = pipefs_kill_sb,
 306:/mnt/c/Users/31740/Documents/codes/newcore-rp2350/fs/pipefs/pipefs.c ****     .mount    = pipefs_mount,
 307:/mnt/c/Users/31740/Documents/codes/newcore-rp2350/fs/pipefs/pipefs.c ****     .owner    = THIS_MODULE,
 308:/mnt/c/Users/31740/Documents/codes/newcore-rp2350/fs/pipefs/pipefs.c **** };
 309:/mnt/c/Users/31740/Documents/codes/newcore-rp2350/fs/pipefs/pipefs.c **** 
 310:/mnt/c/Users/31740/Documents/codes/newcore-rp2350/fs/pipefs/pipefs.c **** static struct dentry *pipefs_mount(struct file_system_type *fs_type,
 311:/mnt/c/Users/31740/Documents/codes/newcore-rp2350/fs/pipefs/pipefs.c ****     int flags,
 312:/mnt/c/Users/31740/Documents/codes/newcore-rp2350/fs/pipefs/pipefs.c ****     const char *pipe_name,
 313:/mnt/c/Users/31740/Documents/codes/newcore-rp2350/fs/pipefs/pipefs.c ****     void *data)
 314:/mnt/c/Users/31740/Documents/codes/newcore-rp2350/fs/pipefs/pipefs.c **** {
 315:/mnt/c/Users/31740/Documents/codes/newcore-rp2350/fs/pipefs/pipefs.c ****     struct pipefs_superblock *fs_superblock= pipefs_superblock_create();
 316:/mnt/c/Users/31740/Documents/codes/newcore-rp2350/fs/pipefs/pipefs.c ****     if (fs_superblock == NULL){
 317:/mnt/c/Users/31740/Documents/codes/newcore-rp2350/fs/pipefs/pipefs.c ****         return ERR_PTR(-ENOMEM);        
 318:/mnt/c/Users/31740/Documents/codes/newcore-rp2350/fs/pipefs/pipefs.c ****     }
 319:/mnt/c/Users/31740/Documents/codes/newcore-rp2350/fs/pipefs/pipefs.c ****     struct dentry * root = __d_alloc(NULL,"root");
 320:/mnt/c/Users/31740/Documents/codes/newcore-rp2350/fs/pipefs/pipefs.c ****     if(root == NULL){
 321:/mnt/c/Users/31740/Documents/codes/newcore-rp2350/fs/pipefs/pipefs.c ****         pipefs_superblock_destory(fs_superblock);
 322:/mnt/c/Users/31740/Documents/codes/newcore-rp2350/fs/pipefs/pipefs.c ****         return ERR_PTR(-ENOMEM);   
 323:/mnt/c/Users/31740/Documents/codes/newcore-rp2350/fs/pipefs/pipefs.c ****     }
 324:/mnt/c/Users/31740/Documents/codes/newcore-rp2350/fs/pipefs/pipefs.c **** 
 325:/mnt/c/Users/31740/Documents/codes/newcore-rp2350/fs/pipefs/pipefs.c **** 
 326:/mnt/c/Users/31740/Documents/codes/newcore-rp2350/fs/pipefs/pipefs.c ****     struct pipefs_dentry* dentry = kmalloc(sizeof(struct pipefs_dentry),GFP_KERNEL);
 327:/mnt/c/Users/31740/Documents/codes/newcore-rp2350/fs/pipefs/pipefs.c ****     if(dentry == NULL){
 328:/mnt/c/Users/31740/Documents/codes/newcore-rp2350/fs/pipefs/pipefs.c ****        
 329:/mnt/c/Users/31740/Documents/codes/newcore-rp2350/fs/pipefs/pipefs.c ****         kfree(root);
 330:/mnt/c/Users/31740/Documents/codes/newcore-rp2350/fs/pipefs/pipefs.c ****         return ERR_PTR(-ENOMEM);        
ARM GAS  /tmp/ccDkYPHY.s 			page 8


 331:/mnt/c/Users/31740/Documents/codes/newcore-rp2350/fs/pipefs/pipefs.c ****     }
 332:/mnt/c/Users/31740/Documents/codes/newcore-rp2350/fs/pipefs/pipefs.c ****     dentry->name = NULL;
 333:/mnt/c/Users/31740/Documents/codes/newcore-rp2350/fs/pipefs/pipefs.c ****     dentry->target_inode = fs_superblock->rootinode;
 334:/mnt/c/Users/31740/Documents/codes/newcore-rp2350/fs/pipefs/pipefs.c ****     dentry->magic =MAGIC;
 335:/mnt/c/Users/31740/Documents/codes/newcore-rp2350/fs/pipefs/pipefs.c ****     root->d_fsdata = dentry;
 336:/mnt/c/Users/31740/Documents/codes/newcore-rp2350/fs/pipefs/pipefs.c ****     struct inode * root_inode = pipefs_get_inode(dentry->target_inode,NULL);
 337:/mnt/c/Users/31740/Documents/codes/newcore-rp2350/fs/pipefs/pipefs.c ****     if(root_inode == NULL){
 338:/mnt/c/Users/31740/Documents/codes/newcore-rp2350/fs/pipefs/pipefs.c ****         kfree(dentry);
 339:/mnt/c/Users/31740/Documents/codes/newcore-rp2350/fs/pipefs/pipefs.c ****         pipefs_superblock_destory(fs_superblock);
 340:/mnt/c/Users/31740/Documents/codes/newcore-rp2350/fs/pipefs/pipefs.c ****         kfree(root);
 341:/mnt/c/Users/31740/Documents/codes/newcore-rp2350/fs/pipefs/pipefs.c ****         return ERR_PTR(-ENOMEM);        
 342:/mnt/c/Users/31740/Documents/codes/newcore-rp2350/fs/pipefs/pipefs.c ****     } 
 343:/mnt/c/Users/31740/Documents/codes/newcore-rp2350/fs/pipefs/pipefs.c ****     root->d_inode = root_inode;
 344:/mnt/c/Users/31740/Documents/codes/newcore-rp2350/fs/pipefs/pipefs.c **** 
 345:/mnt/c/Users/31740/Documents/codes/newcore-rp2350/fs/pipefs/pipefs.c ****     struct super_block *sb =pipefs_get_vfs_superblock(fs_superblock);
 346:/mnt/c/Users/31740/Documents/codes/newcore-rp2350/fs/pipefs/pipefs.c ****     if(sb == NULL){
 347:/mnt/c/Users/31740/Documents/codes/newcore-rp2350/fs/pipefs/pipefs.c ****         kfree(root);
 348:/mnt/c/Users/31740/Documents/codes/newcore-rp2350/fs/pipefs/pipefs.c ****         kfree(dentry);
 349:/mnt/c/Users/31740/Documents/codes/newcore-rp2350/fs/pipefs/pipefs.c ****         inode_put(root_inode);
 350:/mnt/c/Users/31740/Documents/codes/newcore-rp2350/fs/pipefs/pipefs.c ****         pipefs_superblock_destory(fs_superblock);
 351:/mnt/c/Users/31740/Documents/codes/newcore-rp2350/fs/pipefs/pipefs.c ****         return ERR_PTR(-ENOMEM);       
 352:/mnt/c/Users/31740/Documents/codes/newcore-rp2350/fs/pipefs/pipefs.c ****     }
 353:/mnt/c/Users/31740/Documents/codes/newcore-rp2350/fs/pipefs/pipefs.c ****     sb->s_root = root;
 354:/mnt/c/Users/31740/Documents/codes/newcore-rp2350/fs/pipefs/pipefs.c ****     root->d_sb = sb;
 355:/mnt/c/Users/31740/Documents/codes/newcore-rp2350/fs/pipefs/pipefs.c ****     return root;
 356:/mnt/c/Users/31740/Documents/codes/newcore-rp2350/fs/pipefs/pipefs.c **** }
 357:/mnt/c/Users/31740/Documents/codes/newcore-rp2350/fs/pipefs/pipefs.c **** 
 358:/mnt/c/Users/31740/Documents/codes/newcore-rp2350/fs/pipefs/pipefs.c **** 
 359:/mnt/c/Users/31740/Documents/codes/newcore-rp2350/fs/pipefs/pipefs.c **** 
 360:/mnt/c/Users/31740/Documents/codes/newcore-rp2350/fs/pipefs/pipefs.c **** static struct super_operations pipefs_super_operation = {
 361:/mnt/c/Users/31740/Documents/codes/newcore-rp2350/fs/pipefs/pipefs.c ****     .alloc_inode   = pipefs_alloc_inode,
 362:/mnt/c/Users/31740/Documents/codes/newcore-rp2350/fs/pipefs/pipefs.c ****     .destroy_inode = pipefs_destroy_inode, 
 363:/mnt/c/Users/31740/Documents/codes/newcore-rp2350/fs/pipefs/pipefs.c ****     .free_inode    = NULL,         
 364:/mnt/c/Users/31740/Documents/codes/newcore-rp2350/fs/pipefs/pipefs.c ****     .dirty_inode   = NULL,
 365:/mnt/c/Users/31740/Documents/codes/newcore-rp2350/fs/pipefs/pipefs.c ****     .write_inode   = NULL,
 366:/mnt/c/Users/31740/Documents/codes/newcore-rp2350/fs/pipefs/pipefs.c ****     .drop_inode    = NULL,
 367:/mnt/c/Users/31740/Documents/codes/newcore-rp2350/fs/pipefs/pipefs.c ****     .put_super     = pipefs_kill_sb,
 368:/mnt/c/Users/31740/Documents/codes/newcore-rp2350/fs/pipefs/pipefs.c ****     .sync_fs       = NULL,
 369:/mnt/c/Users/31740/Documents/codes/newcore-rp2350/fs/pipefs/pipefs.c ****     .statfs        = pipefs_statfs,
 370:/mnt/c/Users/31740/Documents/codes/newcore-rp2350/fs/pipefs/pipefs.c **** };
 371:/mnt/c/Users/31740/Documents/codes/newcore-rp2350/fs/pipefs/pipefs.c **** 
 372:/mnt/c/Users/31740/Documents/codes/newcore-rp2350/fs/pipefs/pipefs.c **** static struct super_block *pipefs_get_vfs_superblock(struct pipefs_superblock *sb) //Â∞ÜÊñá‰ª∂Á≥ªÁª
 373:/mnt/c/Users/31740/Documents/codes/newcore-rp2350/fs/pipefs/pipefs.c **** {
 374:/mnt/c/Users/31740/Documents/codes/newcore-rp2350/fs/pipefs/pipefs.c ****     if(sb == NULL) return NULL;
 375:/mnt/c/Users/31740/Documents/codes/newcore-rp2350/fs/pipefs/pipefs.c ****     struct super_block * vsb  = alloc_super(NULL);                        //ÂàÜÈÖç‰∫Ü‰∏Ä‰∏™superblo
 376:/mnt/c/Users/31740/Documents/codes/newcore-rp2350/fs/pipefs/pipefs.c ****     if(vsb == NULL) return NULL;
 377:/mnt/c/Users/31740/Documents/codes/newcore-rp2350/fs/pipefs/pipefs.c ****     vsb->s_fs_info =   sb;
 378:/mnt/c/Users/31740/Documents/codes/newcore-rp2350/fs/pipefs/pipefs.c ****     vsb->s_d_op    =  &pipefs_dentry_operation;
 379:/mnt/c/Users/31740/Documents/codes/newcore-rp2350/fs/pipefs/pipefs.c ****     vsb->s_op      =  &pipefs_super_operation;    
 380:/mnt/c/Users/31740/Documents/codes/newcore-rp2350/fs/pipefs/pipefs.c ****     return vsb;
 381:/mnt/c/Users/31740/Documents/codes/newcore-rp2350/fs/pipefs/pipefs.c **** }
 382:/mnt/c/Users/31740/Documents/codes/newcore-rp2350/fs/pipefs/pipefs.c **** 
 383:/mnt/c/Users/31740/Documents/codes/newcore-rp2350/fs/pipefs/pipefs.c **** 
 384:/mnt/c/Users/31740/Documents/codes/newcore-rp2350/fs/pipefs/pipefs.c **** static void pipefs_kill_sb (struct super_block * sb){                          //ÈáäÊîæÊñá‰ª∂Á≥ªÁªü
 385:/mnt/c/Users/31740/Documents/codes/newcore-rp2350/fs/pipefs/pipefs.c ****     put_super(sb);
 386:/mnt/c/Users/31740/Documents/codes/newcore-rp2350/fs/pipefs/pipefs.c **** }
 387:/mnt/c/Users/31740/Documents/codes/newcore-rp2350/fs/pipefs/pipefs.c **** 
ARM GAS  /tmp/ccDkYPHY.s 			page 9


 388:/mnt/c/Users/31740/Documents/codes/newcore-rp2350/fs/pipefs/pipefs.c **** static struct inode *  pipefs_get_inode(struct pipefs_inode * pipe_node,struct super_block* sb )  /
 389:/mnt/c/Users/31740/Documents/codes/newcore-rp2350/fs/pipefs/pipefs.c **** {
 390:/mnt/c/Users/31740/Documents/codes/newcore-rp2350/fs/pipefs/pipefs.c ****     if(pipe_node == NULL) return NULL;
 391:/mnt/c/Users/31740/Documents/codes/newcore-rp2350/fs/pipefs/pipefs.c ****     struct inode*inode  =  new_inode(sb); //Ê≠§Â§ÑÂä®ÊÄÅÂàõÂª∫‰∫Ü‰∏Ä‰∏™inode,ÈúÄË¶ÅÂêéÁª≠ÈáäÊîæ
 392:/mnt/c/Users/31740/Documents/codes/newcore-rp2350/fs/pipefs/pipefs.c ****     if(inode == NULL) return NULL;  
 393:/mnt/c/Users/31740/Documents/codes/newcore-rp2350/fs/pipefs/pipefs.c ****     inode->i_mode    = pipe_node->i_mode;
 394:/mnt/c/Users/31740/Documents/codes/newcore-rp2350/fs/pipefs/pipefs.c ****     inode->i_fop     = pipe_node->i_fop;
 395:/mnt/c/Users/31740/Documents/codes/newcore-rp2350/fs/pipefs/pipefs.c ****     inode->i_op      = &pipefs_inode_operation;
 396:/mnt/c/Users/31740/Documents/codes/newcore-rp2350/fs/pipefs/pipefs.c ****     inode->i_private = pipe_node;
 397:/mnt/c/Users/31740/Documents/codes/newcore-rp2350/fs/pipefs/pipefs.c ****     return inode;
 398:/mnt/c/Users/31740/Documents/codes/newcore-rp2350/fs/pipefs/pipefs.c **** }
 399:/mnt/c/Users/31740/Documents/codes/newcore-rp2350/fs/pipefs/pipefs.c **** 
 400:/mnt/c/Users/31740/Documents/codes/newcore-rp2350/fs/pipefs/pipefs.c **** static struct inode *pipefs_alloc_inode(struct super_block *sb) //ÂàõÂª∫‰∏Ä‰∏™inodeÔºåÂêåÊó∂ÂàõÂª∫i
 401:/mnt/c/Users/31740/Documents/codes/newcore-rp2350/fs/pipefs/pipefs.c **** {
 402:/mnt/c/Users/31740/Documents/codes/newcore-rp2350/fs/pipefs/pipefs.c ****     struct pipefs_superblock *supb = sb->s_fs_info;
 403:/mnt/c/Users/31740/Documents/codes/newcore-rp2350/fs/pipefs/pipefs.c ****     if(supb->magic != MAGIC) return NULL;
 404:/mnt/c/Users/31740/Documents/codes/newcore-rp2350/fs/pipefs/pipefs.c ****      struct pipefs_inode * inode = pipefs_create_empty_inode(supb,&pipefs_file_fops,10); //Êñá‰ª∂Á≥
 405:/mnt/c/Users/31740/Documents/codes/newcore-rp2350/fs/pipefs/pipefs.c ****      if(inode == NULL) return NULL;
 406:/mnt/c/Users/31740/Documents/codes/newcore-rp2350/fs/pipefs/pipefs.c ****      struct inode *out_inode = pipefs_get_inode(inode,sb);
 407:/mnt/c/Users/31740/Documents/codes/newcore-rp2350/fs/pipefs/pipefs.c ****      if(out_inode == NULL){
 408:/mnt/c/Users/31740/Documents/codes/newcore-rp2350/fs/pipefs/pipefs.c ****         kfree(inode);
 409:/mnt/c/Users/31740/Documents/codes/newcore-rp2350/fs/pipefs/pipefs.c ****         return NULL;
 410:/mnt/c/Users/31740/Documents/codes/newcore-rp2350/fs/pipefs/pipefs.c ****      }
 411:/mnt/c/Users/31740/Documents/codes/newcore-rp2350/fs/pipefs/pipefs.c ****      return out_inode;
 412:/mnt/c/Users/31740/Documents/codes/newcore-rp2350/fs/pipefs/pipefs.c **** }
 413:/mnt/c/Users/31740/Documents/codes/newcore-rp2350/fs/pipefs/pipefs.c **** 
 414:/mnt/c/Users/31740/Documents/codes/newcore-rp2350/fs/pipefs/pipefs.c **** 
 415:/mnt/c/Users/31740/Documents/codes/newcore-rp2350/fs/pipefs/pipefs.c **** 
 416:/mnt/c/Users/31740/Documents/codes/newcore-rp2350/fs/pipefs/pipefs.c **** static void  pipefs_destroy_inode(struct inode * node) //Êí§ÈîÄpipefs_alloc_inodeÊâÄÂÅöÁöÑ‰∏ÄÂàá
 417:/mnt/c/Users/31740/Documents/codes/newcore-rp2350/fs/pipefs/pipefs.c **** {
 418:/mnt/c/Users/31740/Documents/codes/newcore-rp2350/fs/pipefs/pipefs.c ****     if(node == NULL) return;
 419:/mnt/c/Users/31740/Documents/codes/newcore-rp2350/fs/pipefs/pipefs.c ****     if(node->i_private != NULL) {
 420:/mnt/c/Users/31740/Documents/codes/newcore-rp2350/fs/pipefs/pipefs.c ****         struct pipefs_inode * pipe_node = node->i_private;
 421:/mnt/c/Users/31740/Documents/codes/newcore-rp2350/fs/pipefs/pipefs.c ****         list_del(&pipe_node->list_node);
 422:/mnt/c/Users/31740/Documents/codes/newcore-rp2350/fs/pipefs/pipefs.c ****         kfree(pipe_node);        
 423:/mnt/c/Users/31740/Documents/codes/newcore-rp2350/fs/pipefs/pipefs.c ****     }
 424:/mnt/c/Users/31740/Documents/codes/newcore-rp2350/fs/pipefs/pipefs.c **** }
 425:/mnt/c/Users/31740/Documents/codes/newcore-rp2350/fs/pipefs/pipefs.c **** 
 426:/mnt/c/Users/31740/Documents/codes/newcore-rp2350/fs/pipefs/pipefs.c **** static int pipefs_statfs (struct dentry * dentry, struct kstatfs *star){
  54              		.loc 1 426 72 is_stmt 1 view -0
  55              		.cfi_startproc
  56              		@ args = 0, pretend = 0, frame = 0
  57              		@ frame_needed = 0, uses_anonymous_args = 0
  58              		@ link register save eliminated.
 427:/mnt/c/Users/31740/Documents/codes/newcore-rp2350/fs/pipefs/pipefs.c ****     struct pipefs_dentry * pipefs_dentry = dentry->d_fsdata;
  59              		.loc 1 427 5 view .LVU5
 428:/mnt/c/Users/31740/Documents/codes/newcore-rp2350/fs/pipefs/pipefs.c ****     struct pipefs_inode * pipefs_node = pipefs_dentry->target_inode;
  60              		.loc 1 428 5 view .LVU6
 429:/mnt/c/Users/31740/Documents/codes/newcore-rp2350/fs/pipefs/pipefs.c ****     star->f_type = MAGIC;
  61              		.loc 1 429 5 view .LVU7
  62              		.loc 1 429 18 is_stmt 0 view .LVU8
  63 0000 064B     		ldr	r3, .L3
  64 0002 0B60     		str	r3, [r1]
  65              	.LVL2:
 430:/mnt/c/Users/31740/Documents/codes/newcore-rp2350/fs/pipefs/pipefs.c ****     star->f_bsize  = 0;
  66              		.loc 1 430 5 is_stmt 1 view .LVU9
  67              		.loc 1 430 20 is_stmt 0 view .LVU10
ARM GAS  /tmp/ccDkYPHY.s 			page 10


  68 0004 0020     		movs	r0, #0
  69              	.LVL3:
  70              		.loc 1 430 20 view .LVU11
  71 0006 4860     		str	r0, [r1, #4]
 431:/mnt/c/Users/31740/Documents/codes/newcore-rp2350/fs/pipefs/pipefs.c ****     star->f_blocks = 1;
  72              		.loc 1 431 5 is_stmt 1 view .LVU12
  73              		.loc 1 431 20 is_stmt 0 view .LVU13
  74 0008 0123     		movs	r3, #1
  75 000a 8B60     		str	r3, [r1, #8]
 432:/mnt/c/Users/31740/Documents/codes/newcore-rp2350/fs/pipefs/pipefs.c ****     star->f_bfree  = 0;
  76              		.loc 1 432 5 is_stmt 1 view .LVU14
  77              		.loc 1 432 20 is_stmt 0 view .LVU15
  78 000c C860     		str	r0, [r1, #12]
 433:/mnt/c/Users/31740/Documents/codes/newcore-rp2350/fs/pipefs/pipefs.c ****     star->f_bavail = 0;
  79              		.loc 1 433 5 is_stmt 1 view .LVU16
  80              		.loc 1 433 20 is_stmt 0 view .LVU17
  81 000e 0861     		str	r0, [r1, #16]
 434:/mnt/c/Users/31740/Documents/codes/newcore-rp2350/fs/pipefs/pipefs.c ****     star->f_files  = 128;
  82              		.loc 1 434 5 is_stmt 1 view .LVU18
  83              		.loc 1 434 20 is_stmt 0 view .LVU19
  84 0010 8023     		movs	r3, #128
  85 0012 4B61     		str	r3, [r1, #20]
 435:/mnt/c/Users/31740/Documents/codes/newcore-rp2350/fs/pipefs/pipefs.c ****     star->f_ffree  = 127;
  86              		.loc 1 435 5 is_stmt 1 view .LVU20
  87              		.loc 1 435 20 is_stmt 0 view .LVU21
  88 0014 7F23     		movs	r3, #127
  89 0016 8B61     		str	r3, [r1, #24]
 436:/mnt/c/Users/31740/Documents/codes/newcore-rp2350/fs/pipefs/pipefs.c ****     return 0;
  90              		.loc 1 436 5 is_stmt 1 view .LVU22
 437:/mnt/c/Users/31740/Documents/codes/newcore-rp2350/fs/pipefs/pipefs.c **** }
  91              		.loc 1 437 1 is_stmt 0 view .LVU23
  92 0018 7047     		bx	lr
  93              	.L4:
  94 001a 00BF     		.align	2
  95              	.L3:
  96 001c 4E61BC00 		.word	12345678
  97              		.cfi_endproc
  98              	.LFE1057:
 100              		.section	.text.pipefs_get_dentry,"ax",%progbits
 101              		.align	1
 102              		.syntax unified
 103              		.thumb
 104              		.thumb_func
 106              	pipefs_get_dentry:
 107              	.LVL4:
 108              	.LFB1058:
 438:/mnt/c/Users/31740/Documents/codes/newcore-rp2350/fs/pipefs/pipefs.c **** 
 439:/mnt/c/Users/31740/Documents/codes/newcore-rp2350/fs/pipefs/pipefs.c **** 
 440:/mnt/c/Users/31740/Documents/codes/newcore-rp2350/fs/pipefs/pipefs.c **** 
 441:/mnt/c/Users/31740/Documents/codes/newcore-rp2350/fs/pipefs/pipefs.c **** static int pipefs_create(struct mnt_idmap * map, struct inode * dir,struct dentry * dentry,umode_t 
 442:/mnt/c/Users/31740/Documents/codes/newcore-rp2350/fs/pipefs/pipefs.c **** static struct dentry *pipefs_vfs_lookup(struct inode *dir, struct dentry *dentry, unsigned int flag
 443:/mnt/c/Users/31740/Documents/codes/newcore-rp2350/fs/pipefs/pipefs.c **** static int pipefs_link(struct dentry *old_dentry, struct inode *dir, struct dentry *dentry);
 444:/mnt/c/Users/31740/Documents/codes/newcore-rp2350/fs/pipefs/pipefs.c **** static int pipefs_unlink(struct inode *dir, struct dentry *dentry);
 445:/mnt/c/Users/31740/Documents/codes/newcore-rp2350/fs/pipefs/pipefs.c **** static int pipefs_mkdir(struct mnt_idmap *mnt, struct inode *dir, struct dentry *dentry, umode_t mo
 446:/mnt/c/Users/31740/Documents/codes/newcore-rp2350/fs/pipefs/pipefs.c **** static int pipefs_setattr(struct mnt_idmap *map, struct dentry *dentry, struct iattr *iattr);
 447:/mnt/c/Users/31740/Documents/codes/newcore-rp2350/fs/pipefs/pipefs.c **** static int  pipefs_getattr (struct mnt_idmap *dmp, const struct path * path,struct kstat *stat, u32
 448:/mnt/c/Users/31740/Documents/codes/newcore-rp2350/fs/pipefs/pipefs.c **** static int pipefs_rmdir(struct inode *	inode  ,struct dentry *dentry);
ARM GAS  /tmp/ccDkYPHY.s 			page 11


 449:/mnt/c/Users/31740/Documents/codes/newcore-rp2350/fs/pipefs/pipefs.c **** 
 450:/mnt/c/Users/31740/Documents/codes/newcore-rp2350/fs/pipefs/pipefs.c **** static struct inode_operations pipefs_inode_operation = {
 451:/mnt/c/Users/31740/Documents/codes/newcore-rp2350/fs/pipefs/pipefs.c ****     .create = pipefs_create,
 452:/mnt/c/Users/31740/Documents/codes/newcore-rp2350/fs/pipefs/pipefs.c ****     .lookup = pipefs_vfs_lookup,
 453:/mnt/c/Users/31740/Documents/codes/newcore-rp2350/fs/pipefs/pipefs.c ****     .link   = pipefs_link,
 454:/mnt/c/Users/31740/Documents/codes/newcore-rp2350/fs/pipefs/pipefs.c ****     .unlink = pipefs_unlink,
 455:/mnt/c/Users/31740/Documents/codes/newcore-rp2350/fs/pipefs/pipefs.c ****     .mkdir  = pipefs_mkdir,
 456:/mnt/c/Users/31740/Documents/codes/newcore-rp2350/fs/pipefs/pipefs.c ****     .rmdir  = pipefs_rmdir,
 457:/mnt/c/Users/31740/Documents/codes/newcore-rp2350/fs/pipefs/pipefs.c ****     .setattr = pipefs_setattr,
 458:/mnt/c/Users/31740/Documents/codes/newcore-rp2350/fs/pipefs/pipefs.c ****     .getattr = pipefs_getattr
 459:/mnt/c/Users/31740/Documents/codes/newcore-rp2350/fs/pipefs/pipefs.c **** };
 460:/mnt/c/Users/31740/Documents/codes/newcore-rp2350/fs/pipefs/pipefs.c **** 
 461:/mnt/c/Users/31740/Documents/codes/newcore-rp2350/fs/pipefs/pipefs.c **** static struct dentry * pipefs_get_dentry(struct dentry * vdentry, struct pipefs_dentry *dentry) //È
 462:/mnt/c/Users/31740/Documents/codes/newcore-rp2350/fs/pipefs/pipefs.c **** {
 109              		.loc 1 462 1 is_stmt 1 view -0
 110              		.cfi_startproc
 111              		@ args = 0, pretend = 0, frame = 0
 112              		@ frame_needed = 0, uses_anonymous_args = 0
 113              		@ link register save eliminated.
 463:/mnt/c/Users/31740/Documents/codes/newcore-rp2350/fs/pipefs/pipefs.c ****     if(dentry == NULL || vdentry == NULL) return NULL;
 114              		.loc 1 463 5 view .LVU25
 115              		.loc 1 463 7 is_stmt 0 view .LVU26
 116 0000 11B1     		cbz	r1, .L7
 117              		.loc 1 463 23 discriminator 2 view .LVU27
 118 0002 10B1     		cbz	r0, .L5
 464:/mnt/c/Users/31740/Documents/codes/newcore-rp2350/fs/pipefs/pipefs.c ****     vdentry->d_fsdata = dentry;
 119              		.loc 1 464 5 is_stmt 1 view .LVU28
 120              		.loc 1 464 23 is_stmt 0 view .LVU29
 121 0004 4165     		str	r1, [r0, #84]
 465:/mnt/c/Users/31740/Documents/codes/newcore-rp2350/fs/pipefs/pipefs.c ****     return vdentry;
 122              		.loc 1 465 5 is_stmt 1 view .LVU30
 123              		.loc 1 465 12 is_stmt 0 view .LVU31
 124 0006 7047     		bx	lr
 125              	.L7:
 463:/mnt/c/Users/31740/Documents/codes/newcore-rp2350/fs/pipefs/pipefs.c ****     if(dentry == NULL || vdentry == NULL) return NULL;
 126              		.loc 1 463 50 discriminator 3 view .LVU32
 127 0008 0846     		mov	r0, r1
 128              	.LVL5:
 129              	.L5:
 466:/mnt/c/Users/31740/Documents/codes/newcore-rp2350/fs/pipefs/pipefs.c **** }
 130              		.loc 1 466 1 view .LVU33
 131 000a 7047     		bx	lr
 132              		.cfi_endproc
 133              	.LFE1058:
 135              		.section	.text.pipefs_setattr,"ax",%progbits
 136              		.align	1
 137              		.syntax unified
 138              		.thumb
 139              		.thumb_func
 141              	pipefs_setattr:
 142              	.LVL6:
 143              	.LFB1066:
 467:/mnt/c/Users/31740/Documents/codes/newcore-rp2350/fs/pipefs/pipefs.c **** 
 468:/mnt/c/Users/31740/Documents/codes/newcore-rp2350/fs/pipefs/pipefs.c **** static int pipefs_create(struct mnt_idmap * map, struct inode * dir,struct dentry * dentry,umode_t 
 469:/mnt/c/Users/31740/Documents/codes/newcore-rp2350/fs/pipefs/pipefs.c **** {
 470:/mnt/c/Users/31740/Documents/codes/newcore-rp2350/fs/pipefs/pipefs.c ****     char *file_name = d_getname(dentry);
 471:/mnt/c/Users/31740/Documents/codes/newcore-rp2350/fs/pipefs/pipefs.c **** 
ARM GAS  /tmp/ccDkYPHY.s 			page 12


 472:/mnt/c/Users/31740/Documents/codes/newcore-rp2350/fs/pipefs/pipefs.c ****     struct pipefs_inode *dinode = dir->i_private;
 473:/mnt/c/Users/31740/Documents/codes/newcore-rp2350/fs/pipefs/pipefs.c ****     struct pipefs_dentry* file = pipefs_lookup(dinode,file_name);
 474:/mnt/c/Users/31740/Documents/codes/newcore-rp2350/fs/pipefs/pipefs.c ****     if(file == NULL){
 475:/mnt/c/Users/31740/Documents/codes/newcore-rp2350/fs/pipefs/pipefs.c ****         file =  pipefs_create_file(dinode->sb,dinode,&pipefs_file_fops,10,file_name);
 476:/mnt/c/Users/31740/Documents/codes/newcore-rp2350/fs/pipefs/pipefs.c ****     }
 477:/mnt/c/Users/31740/Documents/codes/newcore-rp2350/fs/pipefs/pipefs.c ****     if (file == NULL){                               //Á°ÆÂÆöÊñá‰ª∂ÊòØÂê¶Ë¢´ÂàõÂª∫
 478:/mnt/c/Users/31740/Documents/codes/newcore-rp2350/fs/pipefs/pipefs.c ****         return -1;
 479:/mnt/c/Users/31740/Documents/codes/newcore-rp2350/fs/pipefs/pipefs.c ****     }
 480:/mnt/c/Users/31740/Documents/codes/newcore-rp2350/fs/pipefs/pipefs.c ****     file->target_inode->i_mode = S_IFREG | (mode & 0777);
 481:/mnt/c/Users/31740/Documents/codes/newcore-rp2350/fs/pipefs/pipefs.c ****     if( pipefs_get_dentry(dentry,file) == NULL){     //ÊûÑÂª∫dentry    
 482:/mnt/c/Users/31740/Documents/codes/newcore-rp2350/fs/pipefs/pipefs.c ****      return -1;
 483:/mnt/c/Users/31740/Documents/codes/newcore-rp2350/fs/pipefs/pipefs.c ****     }  
 484:/mnt/c/Users/31740/Documents/codes/newcore-rp2350/fs/pipefs/pipefs.c **** 
 485:/mnt/c/Users/31740/Documents/codes/newcore-rp2350/fs/pipefs/pipefs.c ****     struct inode * new_file_inode = pipefs_get_inode(file->target_inode,dir->i_sb);
 486:/mnt/c/Users/31740/Documents/codes/newcore-rp2350/fs/pipefs/pipefs.c ****     if(new_file_inode == NULL)
 487:/mnt/c/Users/31740/Documents/codes/newcore-rp2350/fs/pipefs/pipefs.c ****         return -1;
 488:/mnt/c/Users/31740/Documents/codes/newcore-rp2350/fs/pipefs/pipefs.c **** 
 489:/mnt/c/Users/31740/Documents/codes/newcore-rp2350/fs/pipefs/pipefs.c ****     d_add(dentry,new_file_inode); //ÈÄöÁü•Êñá‰ª∂Á≥ªÁªüÂä†ÂÖ•ÁºìÂ≠òÔºåÂπ∂ËøõË°åËµÑÊ∫êÁªëÂÆö
 490:/mnt/c/Users/31740/Documents/codes/newcore-rp2350/fs/pipefs/pipefs.c ****    return 0;
 491:/mnt/c/Users/31740/Documents/codes/newcore-rp2350/fs/pipefs/pipefs.c **** } 
 492:/mnt/c/Users/31740/Documents/codes/newcore-rp2350/fs/pipefs/pipefs.c **** 
 493:/mnt/c/Users/31740/Documents/codes/newcore-rp2350/fs/pipefs/pipefs.c **** static struct dentry *pipefs_vfs_lookup(struct inode *dir, struct dentry *dentry, unsigned int flag
 494:/mnt/c/Users/31740/Documents/codes/newcore-rp2350/fs/pipefs/pipefs.c ****     
 495:/mnt/c/Users/31740/Documents/codes/newcore-rp2350/fs/pipefs/pipefs.c ****     struct pipefs_inode *dir_inode = (struct pipefs_inode *)dir->i_private; //Ëé∑ÂèñÊñá‰ª∂Á≥ªÁªüÊú¨
 496:/mnt/c/Users/31740/Documents/codes/newcore-rp2350/fs/pipefs/pipefs.c ****     char *name = dentry->d_name.name;                           
 497:/mnt/c/Users/31740/Documents/codes/newcore-rp2350/fs/pipefs/pipefs.c ****     struct pipefs_dentry *pos;    
 498:/mnt/c/Users/31740/Documents/codes/newcore-rp2350/fs/pipefs/pipefs.c ****     pos = pipefs_lookup(dir_inode,name);       //Êü•ËØ¢Ëé∑Âæódentry
 499:/mnt/c/Users/31740/Documents/codes/newcore-rp2350/fs/pipefs/pipefs.c ****     if(pos == NULL) return NULL;
 500:/mnt/c/Users/31740/Documents/codes/newcore-rp2350/fs/pipefs/pipefs.c **** 
 501:/mnt/c/Users/31740/Documents/codes/newcore-rp2350/fs/pipefs/pipefs.c ****     if( pipefs_get_dentry(dentry,pos) == NULL)
 502:/mnt/c/Users/31740/Documents/codes/newcore-rp2350/fs/pipefs/pipefs.c ****         return NULL;
 503:/mnt/c/Users/31740/Documents/codes/newcore-rp2350/fs/pipefs/pipefs.c **** 
 504:/mnt/c/Users/31740/Documents/codes/newcore-rp2350/fs/pipefs/pipefs.c ****     struct inode * find_inode = pipefs_get_inode(pos->target_inode,dir->i_sb);
 505:/mnt/c/Users/31740/Documents/codes/newcore-rp2350/fs/pipefs/pipefs.c ****     if(find_inode == NULL)
 506:/mnt/c/Users/31740/Documents/codes/newcore-rp2350/fs/pipefs/pipefs.c ****         return NULL;
 507:/mnt/c/Users/31740/Documents/codes/newcore-rp2350/fs/pipefs/pipefs.c ****     
 508:/mnt/c/Users/31740/Documents/codes/newcore-rp2350/fs/pipefs/pipefs.c ****     return d_add(dentry,find_inode);
 509:/mnt/c/Users/31740/Documents/codes/newcore-rp2350/fs/pipefs/pipefs.c ****     return NULL;
 510:/mnt/c/Users/31740/Documents/codes/newcore-rp2350/fs/pipefs/pipefs.c **** }
 511:/mnt/c/Users/31740/Documents/codes/newcore-rp2350/fs/pipefs/pipefs.c **** 
 512:/mnt/c/Users/31740/Documents/codes/newcore-rp2350/fs/pipefs/pipefs.c **** 
 513:/mnt/c/Users/31740/Documents/codes/newcore-rp2350/fs/pipefs/pipefs.c **** static int pipefs_link(struct dentry *old_dentry, struct inode *dir, struct dentry *dentry)
 514:/mnt/c/Users/31740/Documents/codes/newcore-rp2350/fs/pipefs/pipefs.c **** {
 515:/mnt/c/Users/31740/Documents/codes/newcore-rp2350/fs/pipefs/pipefs.c ****     struct pipefs_inode *old_inode = (struct pipefs_inode *)old_dentry->d_inode->i_private;
 516:/mnt/c/Users/31740/Documents/codes/newcore-rp2350/fs/pipefs/pipefs.c ****     struct pipefs_inode *dir_inode = (struct pipefs_inode *)dir->i_private;
 517:/mnt/c/Users/31740/Documents/codes/newcore-rp2350/fs/pipefs/pipefs.c ****     struct pipefs_dentry *new_dentry = pipefs_create_dentry(dir_inode, old_inode, dentry->d_name.na
 518:/mnt/c/Users/31740/Documents/codes/newcore-rp2350/fs/pipefs/pipefs.c ****     if (new_dentry == NULL) {
 519:/mnt/c/Users/31740/Documents/codes/newcore-rp2350/fs/pipefs/pipefs.c ****         return -ENOMEM;
 520:/mnt/c/Users/31740/Documents/codes/newcore-rp2350/fs/pipefs/pipefs.c ****     }
 521:/mnt/c/Users/31740/Documents/codes/newcore-rp2350/fs/pipefs/pipefs.c ****     pipefs_get_dentry(dentry,new_dentry);
 522:/mnt/c/Users/31740/Documents/codes/newcore-rp2350/fs/pipefs/pipefs.c ****     dentry->d_sb = dir->i_sb;
 523:/mnt/c/Users/31740/Documents/codes/newcore-rp2350/fs/pipefs/pipefs.c ****     d_add(dentry,dentry->d_inode);
 524:/mnt/c/Users/31740/Documents/codes/newcore-rp2350/fs/pipefs/pipefs.c ****     return 0;
 525:/mnt/c/Users/31740/Documents/codes/newcore-rp2350/fs/pipefs/pipefs.c **** }
 526:/mnt/c/Users/31740/Documents/codes/newcore-rp2350/fs/pipefs/pipefs.c **** 
 527:/mnt/c/Users/31740/Documents/codes/newcore-rp2350/fs/pipefs/pipefs.c **** static int pipefs_unlink(struct inode *dir, struct dentry *dentry)
 528:/mnt/c/Users/31740/Documents/codes/newcore-rp2350/fs/pipefs/pipefs.c **** {
ARM GAS  /tmp/ccDkYPHY.s 			page 13


 529:/mnt/c/Users/31740/Documents/codes/newcore-rp2350/fs/pipefs/pipefs.c ****     struct pipefs_inode *parent_inode = (struct pipefs_inode *)dir->i_private;
 530:/mnt/c/Users/31740/Documents/codes/newcore-rp2350/fs/pipefs/pipefs.c ****     struct pipefs_dentry *delete_dentry = (struct pipefs_dentry *)dentry->d_fsdata;
 531:/mnt/c/Users/31740/Documents/codes/newcore-rp2350/fs/pipefs/pipefs.c ****     pipefs_delete_dentry(parent_inode->sb, parent_inode, delete_dentry);
 532:/mnt/c/Users/31740/Documents/codes/newcore-rp2350/fs/pipefs/pipefs.c ****     return 0;
 533:/mnt/c/Users/31740/Documents/codes/newcore-rp2350/fs/pipefs/pipefs.c **** }
 534:/mnt/c/Users/31740/Documents/codes/newcore-rp2350/fs/pipefs/pipefs.c **** 
 535:/mnt/c/Users/31740/Documents/codes/newcore-rp2350/fs/pipefs/pipefs.c **** 
 536:/mnt/c/Users/31740/Documents/codes/newcore-rp2350/fs/pipefs/pipefs.c **** static int pipefs_mkdir(struct mnt_idmap *mnt, struct inode *dir, struct dentry *dentry, umode_t mo
 537:/mnt/c/Users/31740/Documents/codes/newcore-rp2350/fs/pipefs/pipefs.c **** {
 538:/mnt/c/Users/31740/Documents/codes/newcore-rp2350/fs/pipefs/pipefs.c ****     char *file_name = d_getname(dentry);
 539:/mnt/c/Users/31740/Documents/codes/newcore-rp2350/fs/pipefs/pipefs.c **** 
 540:/mnt/c/Users/31740/Documents/codes/newcore-rp2350/fs/pipefs/pipefs.c ****     struct pipefs_inode *dinode = dir->i_private;
 541:/mnt/c/Users/31740/Documents/codes/newcore-rp2350/fs/pipefs/pipefs.c ****     struct pipefs_dentry* file = pipefs_lookup(dinode,file_name);
 542:/mnt/c/Users/31740/Documents/codes/newcore-rp2350/fs/pipefs/pipefs.c ****     if(file == NULL){
 543:/mnt/c/Users/31740/Documents/codes/newcore-rp2350/fs/pipefs/pipefs.c ****         file =  pipefs_create_dir(dinode->sb,dinode,file_name);
 544:/mnt/c/Users/31740/Documents/codes/newcore-rp2350/fs/pipefs/pipefs.c ****     }
 545:/mnt/c/Users/31740/Documents/codes/newcore-rp2350/fs/pipefs/pipefs.c ****     if (file == NULL){                               //Á°ÆÂÆöÊñá‰ª∂ÊòØÂê¶Ë¢´ÂàõÂª∫
 546:/mnt/c/Users/31740/Documents/codes/newcore-rp2350/fs/pipefs/pipefs.c ****         return -1;
 547:/mnt/c/Users/31740/Documents/codes/newcore-rp2350/fs/pipefs/pipefs.c ****     }
 548:/mnt/c/Users/31740/Documents/codes/newcore-rp2350/fs/pipefs/pipefs.c ****     file->target_inode->i_mode = S_IFREG | (mode & 0777);
 549:/mnt/c/Users/31740/Documents/codes/newcore-rp2350/fs/pipefs/pipefs.c ****     
 550:/mnt/c/Users/31740/Documents/codes/newcore-rp2350/fs/pipefs/pipefs.c ****     if( pipefs_get_dentry(dentry,file) == NULL){     //ÊûÑÂª∫dentry    
 551:/mnt/c/Users/31740/Documents/codes/newcore-rp2350/fs/pipefs/pipefs.c ****      return -1;
 552:/mnt/c/Users/31740/Documents/codes/newcore-rp2350/fs/pipefs/pipefs.c ****     }  
 553:/mnt/c/Users/31740/Documents/codes/newcore-rp2350/fs/pipefs/pipefs.c ****     struct inode * new_file_inode = pipefs_get_inode(dinode,dir->i_sb);
 554:/mnt/c/Users/31740/Documents/codes/newcore-rp2350/fs/pipefs/pipefs.c ****     if(new_file_inode == NULL)
 555:/mnt/c/Users/31740/Documents/codes/newcore-rp2350/fs/pipefs/pipefs.c ****         return -1;
 556:/mnt/c/Users/31740/Documents/codes/newcore-rp2350/fs/pipefs/pipefs.c **** 
 557:/mnt/c/Users/31740/Documents/codes/newcore-rp2350/fs/pipefs/pipefs.c ****     d_add(dentry,new_file_inode); //ÈÄöÁü•Êñá‰ª∂Á≥ªÁªüÂä†ÂÖ•ÁºìÂ≠òÔºåÂπ∂ËøõË°åËµÑÊ∫êÁªëÂÆö
 558:/mnt/c/Users/31740/Documents/codes/newcore-rp2350/fs/pipefs/pipefs.c ****    return 0;
 559:/mnt/c/Users/31740/Documents/codes/newcore-rp2350/fs/pipefs/pipefs.c **** }
 560:/mnt/c/Users/31740/Documents/codes/newcore-rp2350/fs/pipefs/pipefs.c **** 
 561:/mnt/c/Users/31740/Documents/codes/newcore-rp2350/fs/pipefs/pipefs.c **** 
 562:/mnt/c/Users/31740/Documents/codes/newcore-rp2350/fs/pipefs/pipefs.c **** static int pipefs_release_dentry(struct dentry *dentry){
 563:/mnt/c/Users/31740/Documents/codes/newcore-rp2350/fs/pipefs/pipefs.c ****     struct pipefs_dentry *fs_dentry = dentry->d_fsdata;
 564:/mnt/c/Users/31740/Documents/codes/newcore-rp2350/fs/pipefs/pipefs.c ****     dentry_put(fs_dentry->target_inode->sb, fs_dentry);
 565:/mnt/c/Users/31740/Documents/codes/newcore-rp2350/fs/pipefs/pipefs.c **** }
 566:/mnt/c/Users/31740/Documents/codes/newcore-rp2350/fs/pipefs/pipefs.c **** static int pipefs_rmdir(struct inode *	dir  ,struct dentry *dentry){
 567:/mnt/c/Users/31740/Documents/codes/newcore-rp2350/fs/pipefs/pipefs.c ****     pipefs_release_dentry(dentry);
 568:/mnt/c/Users/31740/Documents/codes/newcore-rp2350/fs/pipefs/pipefs.c ****     return simple_unlink(dir,dentry);
 569:/mnt/c/Users/31740/Documents/codes/newcore-rp2350/fs/pipefs/pipefs.c **** }
 570:/mnt/c/Users/31740/Documents/codes/newcore-rp2350/fs/pipefs/pipefs.c **** 
 571:/mnt/c/Users/31740/Documents/codes/newcore-rp2350/fs/pipefs/pipefs.c **** static int pipefs_setattr(struct mnt_idmap *map, struct dentry *dentry, struct iattr *iattr)
 572:/mnt/c/Users/31740/Documents/codes/newcore-rp2350/fs/pipefs/pipefs.c **** {
 144              		.loc 1 572 1 is_stmt 1 view -0
 145              		.cfi_startproc
 146              		@ args = 0, pretend = 0, frame = 0
 147              		@ frame_needed = 0, uses_anonymous_args = 0
 148              		@ link register save eliminated.
 573:/mnt/c/Users/31740/Documents/codes/newcore-rp2350/fs/pipefs/pipefs.c ****     struct pipefs_dentry* file = dentry->d_fsdata;
 149              		.loc 1 573 5 view .LVU35
 150              		.loc 1 573 27 is_stmt 0 view .LVU36
 151 0000 4B6D     		ldr	r3, [r1, #84]
 152              	.LVL7:
 574:/mnt/c/Users/31740/Documents/codes/newcore-rp2350/fs/pipefs/pipefs.c ****     file->target_inode->i_mode = (iattr->ia_mode & S_IFMT) | iattr->ia_mode;
 153              		.loc 1 574 5 is_stmt 1 view .LVU37
 154              		.loc 1 574 40 is_stmt 0 view .LVU38
ARM GAS  /tmp/ccDkYPHY.s 			page 14


 155 0002 9288     		ldrh	r2, [r2, #4]
 156              	.LVL8:
 157              		.loc 1 574 9 view .LVU39
 158 0004 9B68     		ldr	r3, [r3, #8]
 159              	.LVL9:
 160              		.loc 1 574 32 view .LVU40
 161 0006 5A60     		str	r2, [r3, #4]
 162              	.LVL10:
 575:/mnt/c/Users/31740/Documents/codes/newcore-rp2350/fs/pipefs/pipefs.c ****     return 0;
 163              		.loc 1 575 5 is_stmt 1 view .LVU41
 576:/mnt/c/Users/31740/Documents/codes/newcore-rp2350/fs/pipefs/pipefs.c **** }
 164              		.loc 1 576 1 is_stmt 0 view .LVU42
 165 0008 0020     		movs	r0, #0
 166              	.LVL11:
 167              		.loc 1 576 1 view .LVU43
 168 000a 7047     		bx	lr
 169              		.cfi_endproc
 170              	.LFE1066:
 172              		.section	.text.spin_lock,"ax",%progbits
 173              		.align	1
 174              		.syntax unified
 175              		.thumb
 176              		.thumb_func
 178              	spin_lock:
 179              	.LVL12:
 180              	.LFB853:
  20:/mnt/c/Users/31740/Documents/codes/newcore-rp2350/include/linux/spinlock.h **** 
  21:/mnt/c/Users/31740/Documents/codes/newcore-rp2350/include/linux/spinlock.h **** static void spin_lock(spinlock_t* lock)
  22:/mnt/c/Users/31740/Documents/codes/newcore-rp2350/include/linux/spinlock.h **** {  
 181              		.loc 2 22 1 is_stmt 1 view -0
 182              		.cfi_startproc
 183              		@ args = 0, pretend = 0, frame = 0
 184              		@ frame_needed = 0, uses_anonymous_args = 0
 185              		.loc 2 22 1 is_stmt 0 view .LVU45
 186 0000 08B5     		push	{r3, lr}
 187              	.LCFI0:
 188              		.cfi_def_cfa_offset 8
 189              		.cfi_offset 3, -8
 190              		.cfi_offset 14, -4
  23:/mnt/c/Users/31740/Documents/codes/newcore-rp2350/include/linux/spinlock.h ****     _spin_lock(lock);
 191              		.loc 2 23 5 is_stmt 1 view .LVU46
 192 0002 FFF7FEFF 		bl	_spin_lock
 193              	.LVL13:
  24:/mnt/c/Users/31740/Documents/codes/newcore-rp2350/include/linux/spinlock.h **** }
 194              		.loc 2 24 1 is_stmt 0 view .LVU47
 195 0006 08BD     		pop	{r3, pc}
 196              		.cfi_endproc
 197              	.LFE853:
 199              		.section	.text.spin_unlock,"ax",%progbits
 200              		.align	1
 201              		.syntax unified
 202              		.thumb
 203              		.thumb_func
 205              	spin_unlock:
 206              	.LVL14:
 207              	.LFB854:
  25:/mnt/c/Users/31740/Documents/codes/newcore-rp2350/include/linux/spinlock.h **** static void spin_unlock(spinlock_t* lock)
ARM GAS  /tmp/ccDkYPHY.s 			page 15


  26:/mnt/c/Users/31740/Documents/codes/newcore-rp2350/include/linux/spinlock.h **** {
 208              		.loc 2 26 1 is_stmt 1 view -0
 209              		.cfi_startproc
 210              		@ args = 0, pretend = 0, frame = 0
 211              		@ frame_needed = 0, uses_anonymous_args = 0
 212              		.loc 2 26 1 is_stmt 0 view .LVU49
 213 0000 08B5     		push	{r3, lr}
 214              	.LCFI1:
 215              		.cfi_def_cfa_offset 8
 216              		.cfi_offset 3, -8
 217              		.cfi_offset 14, -4
  27:/mnt/c/Users/31740/Documents/codes/newcore-rp2350/include/linux/spinlock.h ****     _spin_unlock(lock);
 218              		.loc 2 27 5 is_stmt 1 view .LVU50
 219 0002 FFF7FEFF 		bl	_spin_unlock
 220              	.LVL15:
  28:/mnt/c/Users/31740/Documents/codes/newcore-rp2350/include/linux/spinlock.h **** }
 221              		.loc 2 28 1 is_stmt 0 view .LVU51
 222 0006 08BD     		pop	{r3, pc}
 223              		.cfi_endproc
 224              	.LFE854:
 226              		.section	.init.text,"ax",%progbits
 227              		.align	1
 228              		.syntax unified
 229              		.thumb
 230              		.thumb_func
 232              	pipefs_ops_init:
 233              	.LFB1068:
 577:/mnt/c/Users/31740/Documents/codes/newcore-rp2350/fs/pipefs/pipefs.c **** static int  pipefs_getattr (struct mnt_idmap *dmp, const struct path * path,struct kstat *stat, u32
 578:/mnt/c/Users/31740/Documents/codes/newcore-rp2350/fs/pipefs/pipefs.c **** {
 579:/mnt/c/Users/31740/Documents/codes/newcore-rp2350/fs/pipefs/pipefs.c ****     struct dentry *d = path->dentry;
 580:/mnt/c/Users/31740/Documents/codes/newcore-rp2350/fs/pipefs/pipefs.c ****     struct pipefs_dentry* file = d->d_fsdata;
 581:/mnt/c/Users/31740/Documents/codes/newcore-rp2350/fs/pipefs/pipefs.c ****     struct pipefs_inode *inode;
 582:/mnt/c/Users/31740/Documents/codes/newcore-rp2350/fs/pipefs/pipefs.c **** 
 583:/mnt/c/Users/31740/Documents/codes/newcore-rp2350/fs/pipefs/pipefs.c ****     if (!file || !(inode = file->target_inode))
 584:/mnt/c/Users/31740/Documents/codes/newcore-rp2350/fs/pipefs/pipefs.c ****     return -ENOENT;
 585:/mnt/c/Users/31740/Documents/codes/newcore-rp2350/fs/pipefs/pipefs.c ****     stat->mode = inode->i_mode;
 586:/mnt/c/Users/31740/Documents/codes/newcore-rp2350/fs/pipefs/pipefs.c ****     stat->dev  = MKDEV(inode->major, 0);
 587:/mnt/c/Users/31740/Documents/codes/newcore-rp2350/fs/pipefs/pipefs.c ****     stat->ino  = (unsigned long)inode;  
 588:/mnt/c/Users/31740/Documents/codes/newcore-rp2350/fs/pipefs/pipefs.c ****     stat->nlink = atomic_read(&inode->dentry_count);
 589:/mnt/c/Users/31740/Documents/codes/newcore-rp2350/fs/pipefs/pipefs.c ****     stat->size  = 0; 
 590:/mnt/c/Users/31740/Documents/codes/newcore-rp2350/fs/pipefs/pipefs.c ****     stat->atime.tv_nsec = jiffies/HZ;
 591:/mnt/c/Users/31740/Documents/codes/newcore-rp2350/fs/pipefs/pipefs.c ****     stat->atime.tv_sec  = jiffies%HZ;
 592:/mnt/c/Users/31740/Documents/codes/newcore-rp2350/fs/pipefs/pipefs.c ****     stat->mtime = stat->atime;
 593:/mnt/c/Users/31740/Documents/codes/newcore-rp2350/fs/pipefs/pipefs.c ****     stat->ctime = stat->atime;
 594:/mnt/c/Users/31740/Documents/codes/newcore-rp2350/fs/pipefs/pipefs.c ****     stat->blksize = PAGE_SIZE;
 595:/mnt/c/Users/31740/Documents/codes/newcore-rp2350/fs/pipefs/pipefs.c ****     stat->blocks  = 0;
 596:/mnt/c/Users/31740/Documents/codes/newcore-rp2350/fs/pipefs/pipefs.c ****     return 0;
 597:/mnt/c/Users/31740/Documents/codes/newcore-rp2350/fs/pipefs/pipefs.c **** }
 598:/mnt/c/Users/31740/Documents/codes/newcore-rp2350/fs/pipefs/pipefs.c **** 
 599:/mnt/c/Users/31740/Documents/codes/newcore-rp2350/fs/pipefs/pipefs.c **** static struct dentry_operations pipefs_dentry_operation = {
 600:/mnt/c/Users/31740/Documents/codes/newcore-rp2350/fs/pipefs/pipefs.c ****     .d_release = pipefs_release_dentry,
 601:/mnt/c/Users/31740/Documents/codes/newcore-rp2350/fs/pipefs/pipefs.c **** };
 602:/mnt/c/Users/31740/Documents/codes/newcore-rp2350/fs/pipefs/pipefs.c **** 
 603:/mnt/c/Users/31740/Documents/codes/newcore-rp2350/fs/pipefs/pipefs.c **** static int __init pipefs_ops_init(void){
 234              		.loc 1 603 40 is_stmt 1 view -0
 235              		.cfi_startproc
 236              		@ args = 0, pretend = 0, frame = 0
ARM GAS  /tmp/ccDkYPHY.s 			page 16


 237              		@ frame_needed = 0, uses_anonymous_args = 0
 238 0000 08B5     		push	{r3, lr}
 239              	.LCFI2:
 240              		.cfi_def_cfa_offset 8
 241              		.cfi_offset 3, -8
 242              		.cfi_offset 14, -4
 604:/mnt/c/Users/31740/Documents/codes/newcore-rp2350/fs/pipefs/pipefs.c ****     register_filesystem(&fs_type);
 243              		.loc 1 604 5 view .LVU53
 244 0002 0248     		ldr	r0, .L16
 245 0004 FFF7FEFF 		bl	register_filesystem
 246              	.LVL16:
 605:/mnt/c/Users/31740/Documents/codes/newcore-rp2350/fs/pipefs/pipefs.c ****     return 0;
 247              		.loc 1 605 5 view .LVU54
 606:/mnt/c/Users/31740/Documents/codes/newcore-rp2350/fs/pipefs/pipefs.c **** }
 248              		.loc 1 606 1 is_stmt 0 view .LVU55
 249 0008 0020     		movs	r0, #0
 250 000a 08BD     		pop	{r3, pc}
 251              	.L17:
 252              		.align	2
 253              	.L16:
 254 000c 00000000 		.word	fs_type
 255              		.cfi_endproc
 256              	.LFE1068:
 258              		.section	.text.pipefs_kill_sb,"ax",%progbits
 259              		.align	1
 260              		.syntax unified
 261              		.thumb
 262              		.thumb_func
 264              	pipefs_kill_sb:
 265              	.LVL17:
 266              	.LFB1053:
 384:/mnt/c/Users/31740/Documents/codes/newcore-rp2350/fs/pipefs/pipefs.c ****     put_super(sb);
 267              		.loc 1 384 53 is_stmt 1 view -0
 268              		.cfi_startproc
 269              		@ args = 0, pretend = 0, frame = 0
 270              		@ frame_needed = 0, uses_anonymous_args = 0
 384:/mnt/c/Users/31740/Documents/codes/newcore-rp2350/fs/pipefs/pipefs.c ****     put_super(sb);
 271              		.loc 1 384 53 is_stmt 0 view .LVU57
 272 0000 08B5     		push	{r3, lr}
 273              	.LCFI3:
 274              		.cfi_def_cfa_offset 8
 275              		.cfi_offset 3, -8
 276              		.cfi_offset 14, -4
 385:/mnt/c/Users/31740/Documents/codes/newcore-rp2350/fs/pipefs/pipefs.c **** }
 277              		.loc 1 385 5 is_stmt 1 view .LVU58
 278 0002 FFF7FEFF 		bl	put_super
 279              	.LVL18:
 386:/mnt/c/Users/31740/Documents/codes/newcore-rp2350/fs/pipefs/pipefs.c **** 
 280              		.loc 1 386 1 is_stmt 0 view .LVU59
 281 0006 08BD     		pop	{r3, pc}
 282              		.cfi_endproc
 283              	.LFE1053:
 285              		.section	.rodata.pipefs_release.str1.4,"aMS",%progbits,1
 286              		.align	2
 287              	.LC0:
 288 0000 70697065 		.ascii	"pipefs test close\012\000"
 288      66732074 
ARM GAS  /tmp/ccDkYPHY.s 			page 17


 288      65737420 
 288      636C6F73 
 288      650A00
 289              		.section	.text.pipefs_release,"ax",%progbits
 290              		.align	1
 291              		.syntax unified
 292              		.thumb
 293              		.thumb_func
 295              	pipefs_release:
 296              	.LVL19:
 297              	.LFB1037:
  75:/mnt/c/Users/31740/Documents/codes/newcore-rp2350/fs/pipefs/pipefs.c ****     pr_info("pipefs test close\n");
 298              		.loc 1 75 66 is_stmt 1 view -0
 299              		.cfi_startproc
 300              		@ args = 0, pretend = 0, frame = 0
 301              		@ frame_needed = 0, uses_anonymous_args = 0
  75:/mnt/c/Users/31740/Documents/codes/newcore-rp2350/fs/pipefs/pipefs.c ****     pr_info("pipefs test close\n");
 302              		.loc 1 75 66 is_stmt 0 view .LVU61
 303 0000 08B5     		push	{r3, lr}
 304              	.LCFI4:
 305              		.cfi_def_cfa_offset 8
 306              		.cfi_offset 3, -8
 307              		.cfi_offset 14, -4
  76:/mnt/c/Users/31740/Documents/codes/newcore-rp2350/fs/pipefs/pipefs.c ****     return 0;
 308              		.loc 1 76 5 is_stmt 1 view .LVU62
 309 0002 0349     		ldr	r1, .L22
 310              	.LVL20:
  76:/mnt/c/Users/31740/Documents/codes/newcore-rp2350/fs/pipefs/pipefs.c ****     return 0;
 311              		.loc 1 76 5 is_stmt 0 view .LVU63
 312 0004 0620     		movs	r0, #6
 313              	.LVL21:
  76:/mnt/c/Users/31740/Documents/codes/newcore-rp2350/fs/pipefs/pipefs.c ****     return 0;
 314              		.loc 1 76 5 view .LVU64
 315 0006 FFF7FEFF 		bl	printk
 316              	.LVL22:
  77:/mnt/c/Users/31740/Documents/codes/newcore-rp2350/fs/pipefs/pipefs.c **** }
 317              		.loc 1 77 5 is_stmt 1 view .LVU65
  78:/mnt/c/Users/31740/Documents/codes/newcore-rp2350/fs/pipefs/pipefs.c **** 
 318              		.loc 1 78 1 is_stmt 0 view .LVU66
 319 000a 0020     		movs	r0, #0
 320 000c 08BD     		pop	{r3, pc}
 321              	.L23:
 322 000e 00BF     		.align	2
 323              	.L22:
 324 0010 00000000 		.word	.LC0
 325              		.cfi_endproc
 326              	.LFE1037:
 328              		.section	.text.pipefs_open,"ax",%progbits
 329              		.align	1
 330              		.syntax unified
 331              		.thumb
 332              		.thumb_func
 334              	pipefs_open:
 335              	.LVL23:
 336              	.LFB1036:
  64:/mnt/c/Users/31740/Documents/codes/newcore-rp2350/fs/pipefs/pipefs.c ****     struct pipefs_inode *p_inode = inode->i_private;
 337              		.loc 1 64 1 is_stmt 1 view -0
ARM GAS  /tmp/ccDkYPHY.s 			page 18


 338              		.cfi_startproc
 339              		@ args = 0, pretend = 0, frame = 0
 340              		@ frame_needed = 0, uses_anonymous_args = 0
  64:/mnt/c/Users/31740/Documents/codes/newcore-rp2350/fs/pipefs/pipefs.c ****     struct pipefs_inode *p_inode = inode->i_private;
 341              		.loc 1 64 1 is_stmt 0 view .LVU68
 342 0000 10B5     		push	{r4, lr}
 343              	.LCFI5:
 344              		.cfi_def_cfa_offset 8
 345              		.cfi_offset 4, -8
 346              		.cfi_offset 14, -4
  65:/mnt/c/Users/31740/Documents/codes/newcore-rp2350/fs/pipefs/pipefs.c ****     if(p_inode->buf == NULL)
 347              		.loc 1 65 5 is_stmt 1 view .LVU69
  65:/mnt/c/Users/31740/Documents/codes/newcore-rp2350/fs/pipefs/pipefs.c ****     if(p_inode->buf == NULL)
 348              		.loc 1 65 26 is_stmt 0 view .LVU70
 349 0002 D0F88440 		ldr	r4, [r0, #132]
 350              	.LVL24:
  66:/mnt/c/Users/31740/Documents/codes/newcore-rp2350/fs/pipefs/pipefs.c ****     {
 351              		.loc 1 66 5 is_stmt 1 view .LVU71
  66:/mnt/c/Users/31740/Documents/codes/newcore-rp2350/fs/pipefs/pipefs.c ****     {
 352              		.loc 1 66 15 is_stmt 0 view .LVU72
 353 0006 A36B     		ldr	r3, [r4, #56]
  66:/mnt/c/Users/31740/Documents/codes/newcore-rp2350/fs/pipefs/pipefs.c ****     {
 354              		.loc 1 66 7 view .LVU73
 355 0008 0BB1     		cbz	r3, .L29
  72:/mnt/c/Users/31740/Documents/codes/newcore-rp2350/fs/pipefs/pipefs.c **** }
 356              		.loc 1 72 12 view .LVU74
 357 000a 0020     		movs	r0, #0
 358              	.LVL25:
 359              	.L24:
  73:/mnt/c/Users/31740/Documents/codes/newcore-rp2350/fs/pipefs/pipefs.c **** 
 360              		.loc 1 73 1 view .LVU75
 361 000c 10BD     		pop	{r4, pc}
 362              	.LVL26:
 363              	.L29:
  68:/mnt/c/Users/31740/Documents/codes/newcore-rp2350/fs/pipefs/pipefs.c ****         if(!p_inode->buf)
 364              		.loc 1 68 9 is_stmt 1 view .LVU76
 365              	.LBB229:
 366              	.LBI229:
 367              		.file 3 "/mnt/c/Users/31740/Documents/codes/newcore-rp2350/include/linux/slab.h"
   1:/mnt/c/Users/31740/Documents/codes/newcore-rp2350/include/linux/slab.h **** /* SPDX-License-Identifier: GPL-2.0 */
   2:/mnt/c/Users/31740/Documents/codes/newcore-rp2350/include/linux/slab.h **** /*
   3:/mnt/c/Users/31740/Documents/codes/newcore-rp2350/include/linux/slab.h ****  * Written by Mark Hemment, 1996 (markhe@nextd.demon.co.uk).
   4:/mnt/c/Users/31740/Documents/codes/newcore-rp2350/include/linux/slab.h ****  *
   5:/mnt/c/Users/31740/Documents/codes/newcore-rp2350/include/linux/slab.h ****  * (C) SGI 2006, Christoph Lameter
   6:/mnt/c/Users/31740/Documents/codes/newcore-rp2350/include/linux/slab.h ****  * 	Cleaned up and restructured to ease the addition of alternative
   7:/mnt/c/Users/31740/Documents/codes/newcore-rp2350/include/linux/slab.h ****  * 	implementations of SLAB allocators.
   8:/mnt/c/Users/31740/Documents/codes/newcore-rp2350/include/linux/slab.h ****  * (C) Linux Foundation 2008-2013
   9:/mnt/c/Users/31740/Documents/codes/newcore-rp2350/include/linux/slab.h ****  *      Unified interface for all slab allocators
  10:/mnt/c/Users/31740/Documents/codes/newcore-rp2350/include/linux/slab.h ****  */
  11:/mnt/c/Users/31740/Documents/codes/newcore-rp2350/include/linux/slab.h **** 
  12:/mnt/c/Users/31740/Documents/codes/newcore-rp2350/include/linux/slab.h **** #ifndef _LINUX_SLAB_H
  13:/mnt/c/Users/31740/Documents/codes/newcore-rp2350/include/linux/slab.h **** #define	_LINUX_SLAB_H
  14:/mnt/c/Users/31740/Documents/codes/newcore-rp2350/include/linux/slab.h **** 
  15:/mnt/c/Users/31740/Documents/codes/newcore-rp2350/include/linux/slab.h **** #include <linux/cache.h>
  16:/mnt/c/Users/31740/Documents/codes/newcore-rp2350/include/linux/slab.h **** #include <linux/overflow.h>
  17:/mnt/c/Users/31740/Documents/codes/newcore-rp2350/include/linux/slab.h **** #include <linux/types.h>
  18:/mnt/c/Users/31740/Documents/codes/newcore-rp2350/include/linux/slab.h **** #include <linux/raid/pq.h>
ARM GAS  /tmp/ccDkYPHY.s 			page 19


  19:/mnt/c/Users/31740/Documents/codes/newcore-rp2350/include/linux/slab.h **** #include <linux/gfp_types.h>
  20:/mnt/c/Users/31740/Documents/codes/newcore-rp2350/include/linux/slab.h **** #include <linux/numa.h>
  21:/mnt/c/Users/31740/Documents/codes/newcore-rp2350/include/linux/slab.h **** #include <linux/reciprocal_div.h>
  22:/mnt/c/Users/31740/Documents/codes/newcore-rp2350/include/linux/slab.h **** #include <linux/spinlock.h>
  23:/mnt/c/Users/31740/Documents/codes/newcore-rp2350/include/linux/slab.h **** 
  24:/mnt/c/Users/31740/Documents/codes/newcore-rp2350/include/linux/slab.h **** enum _slab_flag_bits {
  25:/mnt/c/Users/31740/Documents/codes/newcore-rp2350/include/linux/slab.h **** 	_SLAB_CONSISTENCY_CHECKS,
  26:/mnt/c/Users/31740/Documents/codes/newcore-rp2350/include/linux/slab.h **** 	_SLAB_RED_ZONE,
  27:/mnt/c/Users/31740/Documents/codes/newcore-rp2350/include/linux/slab.h **** 	_SLAB_POISON,
  28:/mnt/c/Users/31740/Documents/codes/newcore-rp2350/include/linux/slab.h **** 	_SLAB_KMALLOC,
  29:/mnt/c/Users/31740/Documents/codes/newcore-rp2350/include/linux/slab.h **** 	_SLAB_HWCACHE_ALIGN,
  30:/mnt/c/Users/31740/Documents/codes/newcore-rp2350/include/linux/slab.h **** 	_SLAB_CACHE_DMA,
  31:/mnt/c/Users/31740/Documents/codes/newcore-rp2350/include/linux/slab.h **** 	_SLAB_CACHE_DMA32,
  32:/mnt/c/Users/31740/Documents/codes/newcore-rp2350/include/linux/slab.h **** 	_SLAB_STORE_USER,
  33:/mnt/c/Users/31740/Documents/codes/newcore-rp2350/include/linux/slab.h **** 	_SLAB_PANIC,
  34:/mnt/c/Users/31740/Documents/codes/newcore-rp2350/include/linux/slab.h **** 	_SLAB_TYPESAFE_BY_RCU,
  35:/mnt/c/Users/31740/Documents/codes/newcore-rp2350/include/linux/slab.h **** 	_SLAB_TRACE,
  36:/mnt/c/Users/31740/Documents/codes/newcore-rp2350/include/linux/slab.h **** #ifdef CONFIG_DEBUG_OBJECTS
  37:/mnt/c/Users/31740/Documents/codes/newcore-rp2350/include/linux/slab.h **** 	_SLAB_DEBUG_OBJECTS,
  38:/mnt/c/Users/31740/Documents/codes/newcore-rp2350/include/linux/slab.h **** #endif
  39:/mnt/c/Users/31740/Documents/codes/newcore-rp2350/include/linux/slab.h **** 	_SLAB_NOLEAKTRACE,
  40:/mnt/c/Users/31740/Documents/codes/newcore-rp2350/include/linux/slab.h **** 	_SLAB_NO_MERGE,
  41:/mnt/c/Users/31740/Documents/codes/newcore-rp2350/include/linux/slab.h **** #ifdef CONFIG_FAILSLAB
  42:/mnt/c/Users/31740/Documents/codes/newcore-rp2350/include/linux/slab.h **** 	_SLAB_FAILSLAB,
  43:/mnt/c/Users/31740/Documents/codes/newcore-rp2350/include/linux/slab.h **** #endif
  44:/mnt/c/Users/31740/Documents/codes/newcore-rp2350/include/linux/slab.h **** #ifdef CONFIG_MEMCG
  45:/mnt/c/Users/31740/Documents/codes/newcore-rp2350/include/linux/slab.h **** 	_SLAB_ACCOUNT,
  46:/mnt/c/Users/31740/Documents/codes/newcore-rp2350/include/linux/slab.h **** #endif
  47:/mnt/c/Users/31740/Documents/codes/newcore-rp2350/include/linux/slab.h **** #ifdef CONFIG_KASAN_GENERIC
  48:/mnt/c/Users/31740/Documents/codes/newcore-rp2350/include/linux/slab.h **** 	_SLAB_KASAN,
  49:/mnt/c/Users/31740/Documents/codes/newcore-rp2350/include/linux/slab.h **** #endif
  50:/mnt/c/Users/31740/Documents/codes/newcore-rp2350/include/linux/slab.h **** 	_SLAB_NO_USER_FLAGS,
  51:/mnt/c/Users/31740/Documents/codes/newcore-rp2350/include/linux/slab.h **** #ifdef CONFIG_KFENCE
  52:/mnt/c/Users/31740/Documents/codes/newcore-rp2350/include/linux/slab.h **** 	_SLAB_SKIP_KFENCE,
  53:/mnt/c/Users/31740/Documents/codes/newcore-rp2350/include/linux/slab.h **** #endif
  54:/mnt/c/Users/31740/Documents/codes/newcore-rp2350/include/linux/slab.h **** #ifndef CONFIG_SLUB_TINY
  55:/mnt/c/Users/31740/Documents/codes/newcore-rp2350/include/linux/slab.h **** 	_SLAB_RECLAIM_ACCOUNT,
  56:/mnt/c/Users/31740/Documents/codes/newcore-rp2350/include/linux/slab.h **** #endif
  57:/mnt/c/Users/31740/Documents/codes/newcore-rp2350/include/linux/slab.h **** 	_SLAB_OBJECT_POISON,
  58:/mnt/c/Users/31740/Documents/codes/newcore-rp2350/include/linux/slab.h **** 	_SLAB_CMPXCHG_DOUBLE,
  59:/mnt/c/Users/31740/Documents/codes/newcore-rp2350/include/linux/slab.h **** #ifdef CONFIG_SLAB_OBJ_EXT
  60:/mnt/c/Users/31740/Documents/codes/newcore-rp2350/include/linux/slab.h **** 	_SLAB_NO_OBJ_EXT,
  61:/mnt/c/Users/31740/Documents/codes/newcore-rp2350/include/linux/slab.h **** #endif
  62:/mnt/c/Users/31740/Documents/codes/newcore-rp2350/include/linux/slab.h **** 	_SLAB_FLAGS_LAST_BIT
  63:/mnt/c/Users/31740/Documents/codes/newcore-rp2350/include/linux/slab.h **** };
  64:/mnt/c/Users/31740/Documents/codes/newcore-rp2350/include/linux/slab.h **** 
  65:/mnt/c/Users/31740/Documents/codes/newcore-rp2350/include/linux/slab.h **** 
  66:/mnt/c/Users/31740/Documents/codes/newcore-rp2350/include/linux/slab.h **** 
  67:/mnt/c/Users/31740/Documents/codes/newcore-rp2350/include/linux/slab.h **** #define __SLAB_FLAG_BIT(nr)	((slab_flags_t __force)(1U << (nr)))
  68:/mnt/c/Users/31740/Documents/codes/newcore-rp2350/include/linux/slab.h **** #define __SLAB_FLAG_UNUSED	((slab_flags_t __force)(0U))
  69:/mnt/c/Users/31740/Documents/codes/newcore-rp2350/include/linux/slab.h **** 
  70:/mnt/c/Users/31740/Documents/codes/newcore-rp2350/include/linux/slab.h **** /*
  71:/mnt/c/Users/31740/Documents/codes/newcore-rp2350/include/linux/slab.h ****  * Flags to pass to kmem_cache_create().
  72:/mnt/c/Users/31740/Documents/codes/newcore-rp2350/include/linux/slab.h ****  * The ones marked DEBUG need CONFIG_SLUB_DEBUG enabled, otherwise are no-op
  73:/mnt/c/Users/31740/Documents/codes/newcore-rp2350/include/linux/slab.h ****  */
  74:/mnt/c/Users/31740/Documents/codes/newcore-rp2350/include/linux/slab.h **** /* DEBUG: Perform (expensive) checks on alloc/free */
  75:/mnt/c/Users/31740/Documents/codes/newcore-rp2350/include/linux/slab.h **** #define SLAB_CONSISTENCY_CHECKS	__SLAB_FLAG_BIT(_SLAB_CONSISTENCY_CHECKS)
ARM GAS  /tmp/ccDkYPHY.s 			page 20


  76:/mnt/c/Users/31740/Documents/codes/newcore-rp2350/include/linux/slab.h **** /* DEBUG: Red zone objs in a cache */
  77:/mnt/c/Users/31740/Documents/codes/newcore-rp2350/include/linux/slab.h **** #define SLAB_RED_ZONE		__SLAB_FLAG_BIT(_SLAB_RED_ZONE)
  78:/mnt/c/Users/31740/Documents/codes/newcore-rp2350/include/linux/slab.h **** /* DEBUG: Poison objects */
  79:/mnt/c/Users/31740/Documents/codes/newcore-rp2350/include/linux/slab.h **** #define SLAB_POISON		__SLAB_FLAG_BIT(_SLAB_POISON)
  80:/mnt/c/Users/31740/Documents/codes/newcore-rp2350/include/linux/slab.h **** /* Indicate a kmalloc slab */
  81:/mnt/c/Users/31740/Documents/codes/newcore-rp2350/include/linux/slab.h **** #define SLAB_KMALLOC		__SLAB_FLAG_BIT(_SLAB_KMALLOC)
  82:/mnt/c/Users/31740/Documents/codes/newcore-rp2350/include/linux/slab.h **** /**
  83:/mnt/c/Users/31740/Documents/codes/newcore-rp2350/include/linux/slab.h ****  * define SLAB_HWCACHE_ALIGN - Align objects on cache line boundaries.
  84:/mnt/c/Users/31740/Documents/codes/newcore-rp2350/include/linux/slab.h ****  *
  85:/mnt/c/Users/31740/Documents/codes/newcore-rp2350/include/linux/slab.h ****  * Sufficiently large objects are aligned on cache line boundary. For object
  86:/mnt/c/Users/31740/Documents/codes/newcore-rp2350/include/linux/slab.h ****  * size smaller than a half of cache line size, the alignment is on the half of
  87:/mnt/c/Users/31740/Documents/codes/newcore-rp2350/include/linux/slab.h ****  * cache line size. In general, if object size is smaller than 1/2^n of cache
  88:/mnt/c/Users/31740/Documents/codes/newcore-rp2350/include/linux/slab.h ****  * line size, the alignment is adjusted to 1/2^n.
  89:/mnt/c/Users/31740/Documents/codes/newcore-rp2350/include/linux/slab.h ****  *
  90:/mnt/c/Users/31740/Documents/codes/newcore-rp2350/include/linux/slab.h ****  * If explicit alignment is also requested by the respective
  91:/mnt/c/Users/31740/Documents/codes/newcore-rp2350/include/linux/slab.h ****  * &struct kmem_cache_args field, the greater of both is alignments is applied.
  92:/mnt/c/Users/31740/Documents/codes/newcore-rp2350/include/linux/slab.h ****  */
  93:/mnt/c/Users/31740/Documents/codes/newcore-rp2350/include/linux/slab.h **** #define SLAB_HWCACHE_ALIGN	__SLAB_FLAG_BIT(_SLAB_HWCACHE_ALIGN)
  94:/mnt/c/Users/31740/Documents/codes/newcore-rp2350/include/linux/slab.h **** /* Use GFP_DMA memory */
  95:/mnt/c/Users/31740/Documents/codes/newcore-rp2350/include/linux/slab.h **** #define SLAB_CACHE_DMA		__SLAB_FLAG_BIT(_SLAB_CACHE_DMA)
  96:/mnt/c/Users/31740/Documents/codes/newcore-rp2350/include/linux/slab.h **** /* Use GFP_DMA32 memory */
  97:/mnt/c/Users/31740/Documents/codes/newcore-rp2350/include/linux/slab.h **** #define SLAB_CACHE_DMA32	__SLAB_FLAG_BIT(_SLAB_CACHE_DMA32)
  98:/mnt/c/Users/31740/Documents/codes/newcore-rp2350/include/linux/slab.h **** /* DEBUG: Store the last owner for bug hunting */
  99:/mnt/c/Users/31740/Documents/codes/newcore-rp2350/include/linux/slab.h **** #define SLAB_STORE_USER		__SLAB_FLAG_BIT(_SLAB_STORE_USER)
 100:/mnt/c/Users/31740/Documents/codes/newcore-rp2350/include/linux/slab.h **** /* Panic if kmem_cache_create() fails */
 101:/mnt/c/Users/31740/Documents/codes/newcore-rp2350/include/linux/slab.h **** #define SLAB_PANIC		__SLAB_FLAG_BIT(_SLAB_PANIC)
 102:/mnt/c/Users/31740/Documents/codes/newcore-rp2350/include/linux/slab.h **** /**
 103:/mnt/c/Users/31740/Documents/codes/newcore-rp2350/include/linux/slab.h ****  * define SLAB_TYPESAFE_BY_RCU - **WARNING** READ THIS!
 104:/mnt/c/Users/31740/Documents/codes/newcore-rp2350/include/linux/slab.h ****  *
 105:/mnt/c/Users/31740/Documents/codes/newcore-rp2350/include/linux/slab.h ****  * This delays freeing the SLAB page by a grace period, it does _NOT_
 106:/mnt/c/Users/31740/Documents/codes/newcore-rp2350/include/linux/slab.h ****  * delay object freeing. This means that if you do kmem_cache_free()
 107:/mnt/c/Users/31740/Documents/codes/newcore-rp2350/include/linux/slab.h ****  * that memory location is free to be reused at any time. Thus it may
 108:/mnt/c/Users/31740/Documents/codes/newcore-rp2350/include/linux/slab.h ****  * be possible to see another object there in the same RCU grace period.
 109:/mnt/c/Users/31740/Documents/codes/newcore-rp2350/include/linux/slab.h ****  *
 110:/mnt/c/Users/31740/Documents/codes/newcore-rp2350/include/linux/slab.h ****  * This feature only ensures the memory location backing the object
 111:/mnt/c/Users/31740/Documents/codes/newcore-rp2350/include/linux/slab.h ****  * stays valid, the trick to using this is relying on an independent
 112:/mnt/c/Users/31740/Documents/codes/newcore-rp2350/include/linux/slab.h ****  * object validation pass. Something like:
 113:/mnt/c/Users/31740/Documents/codes/newcore-rp2350/include/linux/slab.h ****  *
 114:/mnt/c/Users/31740/Documents/codes/newcore-rp2350/include/linux/slab.h ****  * ::
 115:/mnt/c/Users/31740/Documents/codes/newcore-rp2350/include/linux/slab.h ****  *
 116:/mnt/c/Users/31740/Documents/codes/newcore-rp2350/include/linux/slab.h ****  *  begin:
 117:/mnt/c/Users/31740/Documents/codes/newcore-rp2350/include/linux/slab.h ****  *   rcu_read_lock();
 118:/mnt/c/Users/31740/Documents/codes/newcore-rp2350/include/linux/slab.h ****  *   obj = lockless_lookup(key);
 119:/mnt/c/Users/31740/Documents/codes/newcore-rp2350/include/linux/slab.h ****  *   if (obj) {
 120:/mnt/c/Users/31740/Documents/codes/newcore-rp2350/include/linux/slab.h ****  *     if (!try_get_ref(obj)) // might fail for free objects
 121:/mnt/c/Users/31740/Documents/codes/newcore-rp2350/include/linux/slab.h ****  *       rcu_read_unlock();
 122:/mnt/c/Users/31740/Documents/codes/newcore-rp2350/include/linux/slab.h ****  *       goto begin;
 123:/mnt/c/Users/31740/Documents/codes/newcore-rp2350/include/linux/slab.h ****  *
 124:/mnt/c/Users/31740/Documents/codes/newcore-rp2350/include/linux/slab.h ****  *     if (obj->key != key) { // not the object we expected
 125:/mnt/c/Users/31740/Documents/codes/newcore-rp2350/include/linux/slab.h ****  *       put_ref(obj);
 126:/mnt/c/Users/31740/Documents/codes/newcore-rp2350/include/linux/slab.h ****  *       rcu_read_unlock();
 127:/mnt/c/Users/31740/Documents/codes/newcore-rp2350/include/linux/slab.h ****  *       goto begin;
 128:/mnt/c/Users/31740/Documents/codes/newcore-rp2350/include/linux/slab.h ****  *     }
 129:/mnt/c/Users/31740/Documents/codes/newcore-rp2350/include/linux/slab.h ****  *   }
 130:/mnt/c/Users/31740/Documents/codes/newcore-rp2350/include/linux/slab.h ****  *  rcu_read_unlock();
 131:/mnt/c/Users/31740/Documents/codes/newcore-rp2350/include/linux/slab.h ****  *
 132:/mnt/c/Users/31740/Documents/codes/newcore-rp2350/include/linux/slab.h ****  * This is useful if we need to approach a kernel structure obliquely,
ARM GAS  /tmp/ccDkYPHY.s 			page 21


 133:/mnt/c/Users/31740/Documents/codes/newcore-rp2350/include/linux/slab.h ****  * from its address obtained without the usual locking. We can lock
 134:/mnt/c/Users/31740/Documents/codes/newcore-rp2350/include/linux/slab.h ****  * the structure to stabilize it and check it's still at the given address,
 135:/mnt/c/Users/31740/Documents/codes/newcore-rp2350/include/linux/slab.h ****  * only if we can be sure that the memory has not been meanwhile reused
 136:/mnt/c/Users/31740/Documents/codes/newcore-rp2350/include/linux/slab.h ****  * for some other kind of object (which our subsystem's lock might corrupt).
 137:/mnt/c/Users/31740/Documents/codes/newcore-rp2350/include/linux/slab.h ****  *
 138:/mnt/c/Users/31740/Documents/codes/newcore-rp2350/include/linux/slab.h ****  * rcu_read_lock before reading the address, then rcu_read_unlock after
 139:/mnt/c/Users/31740/Documents/codes/newcore-rp2350/include/linux/slab.h ****  * taking the spinlock within the structure expected at that address.
 140:/mnt/c/Users/31740/Documents/codes/newcore-rp2350/include/linux/slab.h ****  *
 141:/mnt/c/Users/31740/Documents/codes/newcore-rp2350/include/linux/slab.h ****  * Note that it is not possible to acquire a lock within a structure
 142:/mnt/c/Users/31740/Documents/codes/newcore-rp2350/include/linux/slab.h ****  * allocated with SLAB_TYPESAFE_BY_RCU without first acquiring a reference
 143:/mnt/c/Users/31740/Documents/codes/newcore-rp2350/include/linux/slab.h ****  * as described above.  The reason is that SLAB_TYPESAFE_BY_RCU pages
 144:/mnt/c/Users/31740/Documents/codes/newcore-rp2350/include/linux/slab.h ****  * are not zeroed before being given to the slab, which means that any
 145:/mnt/c/Users/31740/Documents/codes/newcore-rp2350/include/linux/slab.h ****  * locks must be initialized after each and every kmem_struct_alloc().
 146:/mnt/c/Users/31740/Documents/codes/newcore-rp2350/include/linux/slab.h ****  * Alternatively, make the ctor passed to kmem_cache_create() initialize
 147:/mnt/c/Users/31740/Documents/codes/newcore-rp2350/include/linux/slab.h ****  * the locks at page-allocation time, as is done in __i915_request_ctor(),
 148:/mnt/c/Users/31740/Documents/codes/newcore-rp2350/include/linux/slab.h ****  * sighand_ctor(), and anon_vma_ctor().  Such a ctor permits readers
 149:/mnt/c/Users/31740/Documents/codes/newcore-rp2350/include/linux/slab.h ****  * to safely acquire those ctor-initialized locks under rcu_read_lock()
 150:/mnt/c/Users/31740/Documents/codes/newcore-rp2350/include/linux/slab.h ****  * protection.
 151:/mnt/c/Users/31740/Documents/codes/newcore-rp2350/include/linux/slab.h ****  *
 152:/mnt/c/Users/31740/Documents/codes/newcore-rp2350/include/linux/slab.h ****  * Note that SLAB_TYPESAFE_BY_RCU was originally named SLAB_DESTROY_BY_RCU.
 153:/mnt/c/Users/31740/Documents/codes/newcore-rp2350/include/linux/slab.h ****  */
 154:/mnt/c/Users/31740/Documents/codes/newcore-rp2350/include/linux/slab.h **** #define SLAB_TYPESAFE_BY_RCU	__SLAB_FLAG_BIT(_SLAB_TYPESAFE_BY_RCU)
 155:/mnt/c/Users/31740/Documents/codes/newcore-rp2350/include/linux/slab.h **** /* Trace allocations and frees */
 156:/mnt/c/Users/31740/Documents/codes/newcore-rp2350/include/linux/slab.h **** #define SLAB_TRACE		__SLAB_FLAG_BIT(_SLAB_TRACE)
 157:/mnt/c/Users/31740/Documents/codes/newcore-rp2350/include/linux/slab.h **** 
 158:/mnt/c/Users/31740/Documents/codes/newcore-rp2350/include/linux/slab.h **** /* Flag to prevent checks on free */
 159:/mnt/c/Users/31740/Documents/codes/newcore-rp2350/include/linux/slab.h **** #ifdef CONFIG_DEBUG_OBJECTS
 160:/mnt/c/Users/31740/Documents/codes/newcore-rp2350/include/linux/slab.h **** # define SLAB_DEBUG_OBJECTS	__SLAB_FLAG_BIT(_SLAB_DEBUG_OBJECTS)
 161:/mnt/c/Users/31740/Documents/codes/newcore-rp2350/include/linux/slab.h **** #else
 162:/mnt/c/Users/31740/Documents/codes/newcore-rp2350/include/linux/slab.h **** # define SLAB_DEBUG_OBJECTS	__SLAB_FLAG_UNUSED
 163:/mnt/c/Users/31740/Documents/codes/newcore-rp2350/include/linux/slab.h **** #endif
 164:/mnt/c/Users/31740/Documents/codes/newcore-rp2350/include/linux/slab.h **** 
 165:/mnt/c/Users/31740/Documents/codes/newcore-rp2350/include/linux/slab.h **** /* Avoid kmemleak tracing */
 166:/mnt/c/Users/31740/Documents/codes/newcore-rp2350/include/linux/slab.h **** #define SLAB_NOLEAKTRACE	__SLAB_FLAG_BIT(_SLAB_NOLEAKTRACE)
 167:/mnt/c/Users/31740/Documents/codes/newcore-rp2350/include/linux/slab.h **** 
 168:/mnt/c/Users/31740/Documents/codes/newcore-rp2350/include/linux/slab.h **** /*
 169:/mnt/c/Users/31740/Documents/codes/newcore-rp2350/include/linux/slab.h ****  * Prevent merging with compatible kmem caches. This flag should be used
 170:/mnt/c/Users/31740/Documents/codes/newcore-rp2350/include/linux/slab.h ****  * cautiously. Valid use cases:
 171:/mnt/c/Users/31740/Documents/codes/newcore-rp2350/include/linux/slab.h ****  *
 172:/mnt/c/Users/31740/Documents/codes/newcore-rp2350/include/linux/slab.h ****  * - caches created for self-tests (e.g. kunit)
 173:/mnt/c/Users/31740/Documents/codes/newcore-rp2350/include/linux/slab.h ****  * - general caches created and used by a subsystem, only when a
 174:/mnt/c/Users/31740/Documents/codes/newcore-rp2350/include/linux/slab.h ****  *   (subsystem-specific) debug option is enabled
 175:/mnt/c/Users/31740/Documents/codes/newcore-rp2350/include/linux/slab.h ****  * - performance critical caches, should be very rare and consulted with slab
 176:/mnt/c/Users/31740/Documents/codes/newcore-rp2350/include/linux/slab.h ****  *   maintainers, and not used together with CONFIG_SLUB_TINY
 177:/mnt/c/Users/31740/Documents/codes/newcore-rp2350/include/linux/slab.h ****  */
 178:/mnt/c/Users/31740/Documents/codes/newcore-rp2350/include/linux/slab.h **** #define SLAB_NO_MERGE		__SLAB_FLAG_BIT(_SLAB_NO_MERGE)
 179:/mnt/c/Users/31740/Documents/codes/newcore-rp2350/include/linux/slab.h **** 
 180:/mnt/c/Users/31740/Documents/codes/newcore-rp2350/include/linux/slab.h **** /* Fault injection mark */
 181:/mnt/c/Users/31740/Documents/codes/newcore-rp2350/include/linux/slab.h **** #ifdef CONFIG_FAILSLAB
 182:/mnt/c/Users/31740/Documents/codes/newcore-rp2350/include/linux/slab.h **** # define SLAB_FAILSLAB		__SLAB_FLAG_BIT(_SLAB_FAILSLAB)
 183:/mnt/c/Users/31740/Documents/codes/newcore-rp2350/include/linux/slab.h **** #else
 184:/mnt/c/Users/31740/Documents/codes/newcore-rp2350/include/linux/slab.h **** # define SLAB_FAILSLAB		__SLAB_FLAG_UNUSED
 185:/mnt/c/Users/31740/Documents/codes/newcore-rp2350/include/linux/slab.h **** #endif
 186:/mnt/c/Users/31740/Documents/codes/newcore-rp2350/include/linux/slab.h **** /**
 187:/mnt/c/Users/31740/Documents/codes/newcore-rp2350/include/linux/slab.h ****  * define SLAB_ACCOUNT - Account allocations to memcg.
 188:/mnt/c/Users/31740/Documents/codes/newcore-rp2350/include/linux/slab.h ****  *
 189:/mnt/c/Users/31740/Documents/codes/newcore-rp2350/include/linux/slab.h ****  * All object allocations from this cache will be memcg accounted, regardless of
ARM GAS  /tmp/ccDkYPHY.s 			page 22


 190:/mnt/c/Users/31740/Documents/codes/newcore-rp2350/include/linux/slab.h ****  * __GFP_ACCOUNT being or not being passed to individual allocations.
 191:/mnt/c/Users/31740/Documents/codes/newcore-rp2350/include/linux/slab.h ****  */
 192:/mnt/c/Users/31740/Documents/codes/newcore-rp2350/include/linux/slab.h **** #ifdef CONFIG_MEMCG
 193:/mnt/c/Users/31740/Documents/codes/newcore-rp2350/include/linux/slab.h **** # define SLAB_ACCOUNT		__SLAB_FLAG_BIT(_SLAB_ACCOUNT)
 194:/mnt/c/Users/31740/Documents/codes/newcore-rp2350/include/linux/slab.h **** #else
 195:/mnt/c/Users/31740/Documents/codes/newcore-rp2350/include/linux/slab.h **** # define SLAB_ACCOUNT		__SLAB_FLAG_UNUSED
 196:/mnt/c/Users/31740/Documents/codes/newcore-rp2350/include/linux/slab.h **** #endif
 197:/mnt/c/Users/31740/Documents/codes/newcore-rp2350/include/linux/slab.h **** 
 198:/mnt/c/Users/31740/Documents/codes/newcore-rp2350/include/linux/slab.h **** #ifdef CONFIG_KASAN_GENERIC
 199:/mnt/c/Users/31740/Documents/codes/newcore-rp2350/include/linux/slab.h **** #define SLAB_KASAN		__SLAB_FLAG_BIT(_SLAB_KASAN)
 200:/mnt/c/Users/31740/Documents/codes/newcore-rp2350/include/linux/slab.h **** #else
 201:/mnt/c/Users/31740/Documents/codes/newcore-rp2350/include/linux/slab.h **** #define SLAB_KASAN		__SLAB_FLAG_UNUSED
 202:/mnt/c/Users/31740/Documents/codes/newcore-rp2350/include/linux/slab.h **** #endif
 203:/mnt/c/Users/31740/Documents/codes/newcore-rp2350/include/linux/slab.h **** 
 204:/mnt/c/Users/31740/Documents/codes/newcore-rp2350/include/linux/slab.h **** /*
 205:/mnt/c/Users/31740/Documents/codes/newcore-rp2350/include/linux/slab.h ****  * Ignore user specified debugging flags.
 206:/mnt/c/Users/31740/Documents/codes/newcore-rp2350/include/linux/slab.h ****  * Intended for caches created for self-tests so they have only flags
 207:/mnt/c/Users/31740/Documents/codes/newcore-rp2350/include/linux/slab.h ****  * specified in the code and other flags are ignored.
 208:/mnt/c/Users/31740/Documents/codes/newcore-rp2350/include/linux/slab.h ****  */
 209:/mnt/c/Users/31740/Documents/codes/newcore-rp2350/include/linux/slab.h **** #define SLAB_NO_USER_FLAGS	__SLAB_FLAG_BIT(_SLAB_NO_USER_FLAGS)
 210:/mnt/c/Users/31740/Documents/codes/newcore-rp2350/include/linux/slab.h **** 
 211:/mnt/c/Users/31740/Documents/codes/newcore-rp2350/include/linux/slab.h **** #ifdef CONFIG_KFENCE
 212:/mnt/c/Users/31740/Documents/codes/newcore-rp2350/include/linux/slab.h **** #define SLAB_SKIP_KFENCE	__SLAB_FLAG_BIT(_SLAB_SKIP_KFENCE)
 213:/mnt/c/Users/31740/Documents/codes/newcore-rp2350/include/linux/slab.h **** #else
 214:/mnt/c/Users/31740/Documents/codes/newcore-rp2350/include/linux/slab.h **** #define SLAB_SKIP_KFENCE	__SLAB_FLAG_UNUSED
 215:/mnt/c/Users/31740/Documents/codes/newcore-rp2350/include/linux/slab.h **** #endif
 216:/mnt/c/Users/31740/Documents/codes/newcore-rp2350/include/linux/slab.h **** 
 217:/mnt/c/Users/31740/Documents/codes/newcore-rp2350/include/linux/slab.h **** /* The following flags affect the page allocator grouping pages by mobility */
 218:/mnt/c/Users/31740/Documents/codes/newcore-rp2350/include/linux/slab.h **** /**
 219:/mnt/c/Users/31740/Documents/codes/newcore-rp2350/include/linux/slab.h ****  * define SLAB_RECLAIM_ACCOUNT - Objects are reclaimable.
 220:/mnt/c/Users/31740/Documents/codes/newcore-rp2350/include/linux/slab.h ****  *
 221:/mnt/c/Users/31740/Documents/codes/newcore-rp2350/include/linux/slab.h ****  * Use this flag for caches that have an associated shrinker. As a result, slab
 222:/mnt/c/Users/31740/Documents/codes/newcore-rp2350/include/linux/slab.h ****  * pages are allocated with __GFP_RECLAIMABLE, which affects grouping pages by
 223:/mnt/c/Users/31740/Documents/codes/newcore-rp2350/include/linux/slab.h ****  * mobility, and are accounted in SReclaimable counter in /proc/meminfo
 224:/mnt/c/Users/31740/Documents/codes/newcore-rp2350/include/linux/slab.h ****  */
 225:/mnt/c/Users/31740/Documents/codes/newcore-rp2350/include/linux/slab.h **** #ifndef CONFIG_SLUB_TINY
 226:/mnt/c/Users/31740/Documents/codes/newcore-rp2350/include/linux/slab.h **** #define SLAB_RECLAIM_ACCOUNT	__SLAB_FLAG_BIT(_SLAB_RECLAIM_ACCOUNT)
 227:/mnt/c/Users/31740/Documents/codes/newcore-rp2350/include/linux/slab.h **** #else
 228:/mnt/c/Users/31740/Documents/codes/newcore-rp2350/include/linux/slab.h **** #define SLAB_RECLAIM_ACCOUNT	__SLAB_FLAG_UNUSED
 229:/mnt/c/Users/31740/Documents/codes/newcore-rp2350/include/linux/slab.h **** #endif
 230:/mnt/c/Users/31740/Documents/codes/newcore-rp2350/include/linux/slab.h **** #define SLAB_TEMPORARY		SLAB_RECLAIM_ACCOUNT	/* Objects are short-lived */
 231:/mnt/c/Users/31740/Documents/codes/newcore-rp2350/include/linux/slab.h **** 
 232:/mnt/c/Users/31740/Documents/codes/newcore-rp2350/include/linux/slab.h **** /* Slab created using create_boot_cache */
 233:/mnt/c/Users/31740/Documents/codes/newcore-rp2350/include/linux/slab.h **** #ifdef CONFIG_SLAB_OBJ_EXT
 234:/mnt/c/Users/31740/Documents/codes/newcore-rp2350/include/linux/slab.h **** #define SLAB_NO_OBJ_EXT		__SLAB_FLAG_BIT(_SLAB_NO_OBJ_EXT)
 235:/mnt/c/Users/31740/Documents/codes/newcore-rp2350/include/linux/slab.h **** #else
 236:/mnt/c/Users/31740/Documents/codes/newcore-rp2350/include/linux/slab.h **** #define SLAB_NO_OBJ_EXT		__SLAB_FLAG_UNUSED
 237:/mnt/c/Users/31740/Documents/codes/newcore-rp2350/include/linux/slab.h **** #endif
 238:/mnt/c/Users/31740/Documents/codes/newcore-rp2350/include/linux/slab.h **** 
 239:/mnt/c/Users/31740/Documents/codes/newcore-rp2350/include/linux/slab.h **** /*
 240:/mnt/c/Users/31740/Documents/codes/newcore-rp2350/include/linux/slab.h ****  * freeptr_t represents a SLUB freelist pointer, which might be encoded
 241:/mnt/c/Users/31740/Documents/codes/newcore-rp2350/include/linux/slab.h ****  * and not dereferenceable if CONFIG_SLAB_FREELIST_HARDENED is enabled.
 242:/mnt/c/Users/31740/Documents/codes/newcore-rp2350/include/linux/slab.h ****  */
 243:/mnt/c/Users/31740/Documents/codes/newcore-rp2350/include/linux/slab.h **** typedef struct { unsigned long v; } freeptr_t;
 244:/mnt/c/Users/31740/Documents/codes/newcore-rp2350/include/linux/slab.h **** 
 245:/mnt/c/Users/31740/Documents/codes/newcore-rp2350/include/linux/slab.h **** /*
 246:/mnt/c/Users/31740/Documents/codes/newcore-rp2350/include/linux/slab.h ****  * ZERO_SIZE_PTR will be returned for zero sized kmalloc requests.
ARM GAS  /tmp/ccDkYPHY.s 			page 23


 247:/mnt/c/Users/31740/Documents/codes/newcore-rp2350/include/linux/slab.h ****  *
 248:/mnt/c/Users/31740/Documents/codes/newcore-rp2350/include/linux/slab.h ****  * Dereferencing ZERO_SIZE_PTR will lead to a distinct access fault.
 249:/mnt/c/Users/31740/Documents/codes/newcore-rp2350/include/linux/slab.h ****  *
 250:/mnt/c/Users/31740/Documents/codes/newcore-rp2350/include/linux/slab.h ****  * ZERO_SIZE_PTR can be passed to kfree though in the same way that NULL can.
 251:/mnt/c/Users/31740/Documents/codes/newcore-rp2350/include/linux/slab.h ****  * Both make kfree a no-op.
 252:/mnt/c/Users/31740/Documents/codes/newcore-rp2350/include/linux/slab.h ****  */
 253:/mnt/c/Users/31740/Documents/codes/newcore-rp2350/include/linux/slab.h **** #define ZERO_SIZE_PTR ((void *)16)
 254:/mnt/c/Users/31740/Documents/codes/newcore-rp2350/include/linux/slab.h **** 
 255:/mnt/c/Users/31740/Documents/codes/newcore-rp2350/include/linux/slab.h **** #define ZERO_OR_NULL_PTR(x) ((unsigned long)(x) <= \
 256:/mnt/c/Users/31740/Documents/codes/newcore-rp2350/include/linux/slab.h **** 				(unsigned long)ZERO_SIZE_PTR)
 257:/mnt/c/Users/31740/Documents/codes/newcore-rp2350/include/linux/slab.h **** 
 258:/mnt/c/Users/31740/Documents/codes/newcore-rp2350/include/linux/slab.h **** 
 259:/mnt/c/Users/31740/Documents/codes/newcore-rp2350/include/linux/slab.h **** 
 260:/mnt/c/Users/31740/Documents/codes/newcore-rp2350/include/linux/slab.h **** 
 261:/mnt/c/Users/31740/Documents/codes/newcore-rp2350/include/linux/slab.h **** 
 262:/mnt/c/Users/31740/Documents/codes/newcore-rp2350/include/linux/slab.h **** #ifdef CONFIG_SLUB_CPU_PARTIAL
 263:/mnt/c/Users/31740/Documents/codes/newcore-rp2350/include/linux/slab.h **** #define slub_percpu_partial(c)			((c)->partial)
 264:/mnt/c/Users/31740/Documents/codes/newcore-rp2350/include/linux/slab.h **** 
 265:/mnt/c/Users/31740/Documents/codes/newcore-rp2350/include/linux/slab.h **** #define slub_set_percpu_partial(c, p)		\
 266:/mnt/c/Users/31740/Documents/codes/newcore-rp2350/include/linux/slab.h **** ({						\
 267:/mnt/c/Users/31740/Documents/codes/newcore-rp2350/include/linux/slab.h **** 	slub_percpu_partial(c) = (p)->next;	\
 268:/mnt/c/Users/31740/Documents/codes/newcore-rp2350/include/linux/slab.h **** })
 269:/mnt/c/Users/31740/Documents/codes/newcore-rp2350/include/linux/slab.h **** 
 270:/mnt/c/Users/31740/Documents/codes/newcore-rp2350/include/linux/slab.h **** #define slub_percpu_partial_read_once(c)	READ_ONCE(slub_percpu_partial(c))
 271:/mnt/c/Users/31740/Documents/codes/newcore-rp2350/include/linux/slab.h **** #else
 272:/mnt/c/Users/31740/Documents/codes/newcore-rp2350/include/linux/slab.h **** #define slub_percpu_partial(c)			NULL
 273:/mnt/c/Users/31740/Documents/codes/newcore-rp2350/include/linux/slab.h **** 
 274:/mnt/c/Users/31740/Documents/codes/newcore-rp2350/include/linux/slab.h **** #define slub_set_percpu_partial(c, p)
 275:/mnt/c/Users/31740/Documents/codes/newcore-rp2350/include/linux/slab.h **** 
 276:/mnt/c/Users/31740/Documents/codes/newcore-rp2350/include/linux/slab.h **** #define slub_percpu_partial_read_once(c)	NULL
 277:/mnt/c/Users/31740/Documents/codes/newcore-rp2350/include/linux/slab.h **** 
 278:/mnt/c/Users/31740/Documents/codes/newcore-rp2350/include/linux/slab.h **** 
 279:/mnt/c/Users/31740/Documents/codes/newcore-rp2350/include/linux/slab.h **** #endif // CONFIG_SLUB_CPU_PARTIAL
 280:/mnt/c/Users/31740/Documents/codes/newcore-rp2350/include/linux/slab.h **** 
 281:/mnt/c/Users/31740/Documents/codes/newcore-rp2350/include/linux/slab.h **** /*
 282:/mnt/c/Users/31740/Documents/codes/newcore-rp2350/include/linux/slab.h **** 	* Word size structure that can be atomically updated or read and that
 283:/mnt/c/Users/31740/Documents/codes/newcore-rp2350/include/linux/slab.h **** 	* contains both the order and the number of objects that a slab of the
 284:/mnt/c/Users/31740/Documents/codes/newcore-rp2350/include/linux/slab.h **** 	* given order would contain.
 285:/mnt/c/Users/31740/Documents/codes/newcore-rp2350/include/linux/slab.h **** 	*/				
 286:/mnt/c/Users/31740/Documents/codes/newcore-rp2350/include/linux/slab.h **** struct kmem_cache_order_objects {
 287:/mnt/c/Users/31740/Documents/codes/newcore-rp2350/include/linux/slab.h **** 	unsigned int x;
 288:/mnt/c/Users/31740/Documents/codes/newcore-rp2350/include/linux/slab.h **** };
 289:/mnt/c/Users/31740/Documents/codes/newcore-rp2350/include/linux/slab.h **** 
 290:/mnt/c/Users/31740/Documents/codes/newcore-rp2350/include/linux/slab.h **** struct kmem_cache_node {
 291:/mnt/c/Users/31740/Documents/codes/newcore-rp2350/include/linux/slab.h **** 	spinlock_t list_lock;
 292:/mnt/c/Users/31740/Documents/codes/newcore-rp2350/include/linux/slab.h **** 	unsigned long nr_partial;
 293:/mnt/c/Users/31740/Documents/codes/newcore-rp2350/include/linux/slab.h **** 	struct list_head partial;
 294:/mnt/c/Users/31740/Documents/codes/newcore-rp2350/include/linux/slab.h **** #ifdef CONFIG_SLUB_DEBUG
 295:/mnt/c/Users/31740/Documents/codes/newcore-rp2350/include/linux/slab.h **** 	atomic_long_t nr_slabs;
 296:/mnt/c/Users/31740/Documents/codes/newcore-rp2350/include/linux/slab.h **** 	atomic_long_t total_objects;
 297:/mnt/c/Users/31740/Documents/codes/newcore-rp2350/include/linux/slab.h **** 	struct list_head full;
 298:/mnt/c/Users/31740/Documents/codes/newcore-rp2350/include/linux/slab.h **** #endif
 299:/mnt/c/Users/31740/Documents/codes/newcore-rp2350/include/linux/slab.h **** };
 300:/mnt/c/Users/31740/Documents/codes/newcore-rp2350/include/linux/slab.h **** 
 301:/mnt/c/Users/31740/Documents/codes/newcore-rp2350/include/linux/slab.h **** struct kmem_cache {
 302:/mnt/c/Users/31740/Documents/codes/newcore-rp2350/include/linux/slab.h **** 	#ifndef CONFIG_SLUB_TINY
 303:/mnt/c/Users/31740/Documents/codes/newcore-rp2350/include/linux/slab.h **** 	//	struct kmem_cache_cpu __percpu *cpu_slab;
ARM GAS  /tmp/ccDkYPHY.s 			page 24


 304:/mnt/c/Users/31740/Documents/codes/newcore-rp2350/include/linux/slab.h **** 	#endif
 305:/mnt/c/Users/31740/Documents/codes/newcore-rp2350/include/linux/slab.h **** 		/* Used for retrieving partial slabs, etc. */
 306:/mnt/c/Users/31740/Documents/codes/newcore-rp2350/include/linux/slab.h **** 		slab_flags_t flags;
 307:/mnt/c/Users/31740/Documents/codes/newcore-rp2350/include/linux/slab.h **** 		unsigned long min_partial;
 308:/mnt/c/Users/31740/Documents/codes/newcore-rp2350/include/linux/slab.h **** 		unsigned int size;		/* Object size including metadata */
 309:/mnt/c/Users/31740/Documents/codes/newcore-rp2350/include/linux/slab.h **** 		unsigned int object_size;	/* Object size without metadata */
 310:/mnt/c/Users/31740/Documents/codes/newcore-rp2350/include/linux/slab.h **** 		struct reciprocal_value reciprocal_size;
 311:/mnt/c/Users/31740/Documents/codes/newcore-rp2350/include/linux/slab.h **** 		unsigned int offset;		/* Free pointer offset */
 312:/mnt/c/Users/31740/Documents/codes/newcore-rp2350/include/linux/slab.h **** 	#ifdef CONFIG_SLUB_CPU_PARTIAL
 313:/mnt/c/Users/31740/Documents/codes/newcore-rp2350/include/linux/slab.h **** 		/* Number of per cpu partial objects to keep around */
 314:/mnt/c/Users/31740/Documents/codes/newcore-rp2350/include/linux/slab.h **** 		unsigned int cpu_partial;
 315:/mnt/c/Users/31740/Documents/codes/newcore-rp2350/include/linux/slab.h **** 		/* Number of per cpu partial slabs to keep around */
 316:/mnt/c/Users/31740/Documents/codes/newcore-rp2350/include/linux/slab.h **** 		unsigned int cpu_partial_slabs;
 317:/mnt/c/Users/31740/Documents/codes/newcore-rp2350/include/linux/slab.h **** 	#endif
 318:/mnt/c/Users/31740/Documents/codes/newcore-rp2350/include/linux/slab.h **** 		struct kmem_cache_order_objects oo;
 319:/mnt/c/Users/31740/Documents/codes/newcore-rp2350/include/linux/slab.h **** 	
 320:/mnt/c/Users/31740/Documents/codes/newcore-rp2350/include/linux/slab.h **** 		/* Allocation and freeing of slabs */
 321:/mnt/c/Users/31740/Documents/codes/newcore-rp2350/include/linux/slab.h **** 		struct kmem_cache_order_objects min;
 322:/mnt/c/Users/31740/Documents/codes/newcore-rp2350/include/linux/slab.h **** 		gfp_t allocflags;		/* gfp flags to use on each alloc */
 323:/mnt/c/Users/31740/Documents/codes/newcore-rp2350/include/linux/slab.h **** 		int refcount;			/* Refcount for slab cache destroy */
 324:/mnt/c/Users/31740/Documents/codes/newcore-rp2350/include/linux/slab.h **** 		void (*ctor)(void *object);	/* Object constructor */
 325:/mnt/c/Users/31740/Documents/codes/newcore-rp2350/include/linux/slab.h **** 		unsigned int inuse;		/* Offset to metadata */
 326:/mnt/c/Users/31740/Documents/codes/newcore-rp2350/include/linux/slab.h **** 		unsigned int align;		/* Alignment */
 327:/mnt/c/Users/31740/Documents/codes/newcore-rp2350/include/linux/slab.h **** 		unsigned int red_left_pad;	/* Left redzone padding size */
 328:/mnt/c/Users/31740/Documents/codes/newcore-rp2350/include/linux/slab.h **** 		const char *name;		/* Name (only for display!) */
 329:/mnt/c/Users/31740/Documents/codes/newcore-rp2350/include/linux/slab.h **** 		struct list_head list;		/* List of slab caches */
 330:/mnt/c/Users/31740/Documents/codes/newcore-rp2350/include/linux/slab.h **** 	#ifdef CONFIG_SYSFS
 331:/mnt/c/Users/31740/Documents/codes/newcore-rp2350/include/linux/slab.h **** 		struct kobject kobj;		/* For sysfs */
 332:/mnt/c/Users/31740/Documents/codes/newcore-rp2350/include/linux/slab.h **** 	#endif
 333:/mnt/c/Users/31740/Documents/codes/newcore-rp2350/include/linux/slab.h **** 	#ifdef CONFIG_SLAB_FREELIST_HARDENED
 334:/mnt/c/Users/31740/Documents/codes/newcore-rp2350/include/linux/slab.h **** 		unsigned long random;
 335:/mnt/c/Users/31740/Documents/codes/newcore-rp2350/include/linux/slab.h **** 	#endif
 336:/mnt/c/Users/31740/Documents/codes/newcore-rp2350/include/linux/slab.h **** 	
 337:/mnt/c/Users/31740/Documents/codes/newcore-rp2350/include/linux/slab.h **** 	#ifdef CONFIG_NUMA
 338:/mnt/c/Users/31740/Documents/codes/newcore-rp2350/include/linux/slab.h **** 		/*
 339:/mnt/c/Users/31740/Documents/codes/newcore-rp2350/include/linux/slab.h **** 			* Defragmentation by allocating from a remote node.
 340:/mnt/c/Users/31740/Documents/codes/newcore-rp2350/include/linux/slab.h **** 			*/
 341:/mnt/c/Users/31740/Documents/codes/newcore-rp2350/include/linux/slab.h **** 		unsigned int remote_node_defrag_ratio;
 342:/mnt/c/Users/31740/Documents/codes/newcore-rp2350/include/linux/slab.h **** 	#endif
 343:/mnt/c/Users/31740/Documents/codes/newcore-rp2350/include/linux/slab.h **** 	
 344:/mnt/c/Users/31740/Documents/codes/newcore-rp2350/include/linux/slab.h **** 	#ifdef CONFIG_SLAB_FREELIST_RANDOM
 345:/mnt/c/Users/31740/Documents/codes/newcore-rp2350/include/linux/slab.h **** 		unsigned int *random_seq;
 346:/mnt/c/Users/31740/Documents/codes/newcore-rp2350/include/linux/slab.h **** 	#endif
 347:/mnt/c/Users/31740/Documents/codes/newcore-rp2350/include/linux/slab.h **** 	
 348:/mnt/c/Users/31740/Documents/codes/newcore-rp2350/include/linux/slab.h **** 	#ifdef CONFIG_KASAN_GENERIC
 349:/mnt/c/Users/31740/Documents/codes/newcore-rp2350/include/linux/slab.h **** 		struct kasan_cache kasan_info;
 350:/mnt/c/Users/31740/Documents/codes/newcore-rp2350/include/linux/slab.h **** 	#endif
 351:/mnt/c/Users/31740/Documents/codes/newcore-rp2350/include/linux/slab.h **** 	
 352:/mnt/c/Users/31740/Documents/codes/newcore-rp2350/include/linux/slab.h **** 	#ifdef CONFIG_HARDENED_USERCOPY
 353:/mnt/c/Users/31740/Documents/codes/newcore-rp2350/include/linux/slab.h **** 		unsigned int useroffset;	/* Usercopy region offset */
 354:/mnt/c/Users/31740/Documents/codes/newcore-rp2350/include/linux/slab.h **** 		unsigned int usersize;		/* Usercopy region size */
 355:/mnt/c/Users/31740/Documents/codes/newcore-rp2350/include/linux/slab.h **** 	#endif
 356:/mnt/c/Users/31740/Documents/codes/newcore-rp2350/include/linux/slab.h **** 	
 357:/mnt/c/Users/31740/Documents/codes/newcore-rp2350/include/linux/slab.h **** 		struct kmem_cache_node *node[MAX_NUMNODES];
 358:/mnt/c/Users/31740/Documents/codes/newcore-rp2350/include/linux/slab.h **** 	};
 359:/mnt/c/Users/31740/Documents/codes/newcore-rp2350/include/linux/slab.h **** 					
 360:/mnt/c/Users/31740/Documents/codes/newcore-rp2350/include/linux/slab.h **** 
ARM GAS  /tmp/ccDkYPHY.s 			page 25


 361:/mnt/c/Users/31740/Documents/codes/newcore-rp2350/include/linux/slab.h **** 
 362:/mnt/c/Users/31740/Documents/codes/newcore-rp2350/include/linux/slab.h **** 
 363:/mnt/c/Users/31740/Documents/codes/newcore-rp2350/include/linux/slab.h **** 
 364:/mnt/c/Users/31740/Documents/codes/newcore-rp2350/include/linux/slab.h **** #define KMALLOC_WAIT 1
 365:/mnt/c/Users/31740/Documents/codes/newcore-rp2350/include/linux/slab.h **** 
 366:/mnt/c/Users/31740/Documents/codes/newcore-rp2350/include/linux/slab.h **** 
 367:/mnt/c/Users/31740/Documents/codes/newcore-rp2350/include/linux/slab.h **** extern void* __smalloc__(u32 size, gfp_t flags);
 368:/mnt/c/Users/31740/Documents/codes/newcore-rp2350/include/linux/slab.h **** extern void  __sfree__(void* addr);
 369:/mnt/c/Users/31740/Documents/codes/newcore-rp2350/include/linux/slab.h **** 
 370:/mnt/c/Users/31740/Documents/codes/newcore-rp2350/include/linux/slab.h **** 
 371:/mnt/c/Users/31740/Documents/codes/newcore-rp2350/include/linux/slab.h **** static void inline *vmalloc(unsigned long size){
 372:/mnt/c/Users/31740/Documents/codes/newcore-rp2350/include/linux/slab.h **** 	return __smalloc__(size,GFP_TRANSHUGE_LIGHT);
 373:/mnt/c/Users/31740/Documents/codes/newcore-rp2350/include/linux/slab.h **** }
 374:/mnt/c/Users/31740/Documents/codes/newcore-rp2350/include/linux/slab.h **** 
 375:/mnt/c/Users/31740/Documents/codes/newcore-rp2350/include/linux/slab.h **** static void inline vfree(void *addr){
 376:/mnt/c/Users/31740/Documents/codes/newcore-rp2350/include/linux/slab.h **** 	__sfree__(addr);
 377:/mnt/c/Users/31740/Documents/codes/newcore-rp2350/include/linux/slab.h **** }
 378:/mnt/c/Users/31740/Documents/codes/newcore-rp2350/include/linux/slab.h **** 
 379:/mnt/c/Users/31740/Documents/codes/newcore-rp2350/include/linux/slab.h **** static void inline *kmalloc(size_t size, gfp_t flags){
 368              		.loc 3 379 21 view .LVU77
 369              	.LBB230:
 380:/mnt/c/Users/31740/Documents/codes/newcore-rp2350/include/linux/slab.h **** 	return __smalloc__((u32)size,flags);
 370              		.loc 3 380 2 view .LVU78
 371              		.loc 3 380 9 is_stmt 0 view .LVU79
 372 000e 4FF44C61 		mov	r1, #3264
 373              	.LVL27:
 374              		.loc 3 380 9 view .LVU80
 375 0012 40F21C40 		movw	r0, #1052
 376              	.LVL28:
 377              		.loc 3 380 9 view .LVU81
 378 0016 FFF7FEFF 		bl	__smalloc__
 379              	.LVL29:
 380              		.loc 3 380 9 view .LVU82
 381              	.LBE230:
 382              	.LBE229:
  68:/mnt/c/Users/31740/Documents/codes/newcore-rp2350/fs/pipefs/pipefs.c ****         if(!p_inode->buf)
 383              		.loc 1 68 22 discriminator 1 view .LVU83
 384 001a A063     		str	r0, [r4, #56]
  69:/mnt/c/Users/31740/Documents/codes/newcore-rp2350/fs/pipefs/pipefs.c ****            return -1;
 385              		.loc 1 69 9 is_stmt 1 view .LVU84
  69:/mnt/c/Users/31740/Documents/codes/newcore-rp2350/fs/pipefs/pipefs.c ****            return -1;
 386              		.loc 1 69 11 is_stmt 0 view .LVU85
 387 001c 08B1     		cbz	r0, .L27
  72:/mnt/c/Users/31740/Documents/codes/newcore-rp2350/fs/pipefs/pipefs.c **** }
 388              		.loc 1 72 12 view .LVU86
 389 001e 0020     		movs	r0, #0
 390 0020 F4E7     		b	.L24
 391              	.L27:
  70:/mnt/c/Users/31740/Documents/codes/newcore-rp2350/fs/pipefs/pipefs.c ****     }
 392              		.loc 1 70 19 view .LVU87
 393 0022 4FF0FF30 		mov	r0, #-1
 394 0026 F1E7     		b	.L24
 395              		.cfi_endproc
 396              	.LFE1036:
 398              		.section	.text.pipefs_create_empty_inode,"ax",%progbits
 399              		.align	1
 400              		.syntax unified
ARM GAS  /tmp/ccDkYPHY.s 			page 26


 401              		.thumb
 402              		.thumb_func
 404              	pipefs_create_empty_inode:
 405              	.LVL30:
 406              	.LFB1040:
 115:/mnt/c/Users/31740/Documents/codes/newcore-rp2350/fs/pipefs/pipefs.c ****     if(fop == NULL) return NULL;
 407              		.loc 1 115 1 is_stmt 1 view -0
 408              		.cfi_startproc
 409              		@ args = 0, pretend = 0, frame = 0
 410              		@ frame_needed = 0, uses_anonymous_args = 0
 115:/mnt/c/Users/31740/Documents/codes/newcore-rp2350/fs/pipefs/pipefs.c ****     if(fop == NULL) return NULL;
 411              		.loc 1 115 1 is_stmt 0 view .LVU89
 412 0000 F8B5     		push	{r3, r4, r5, r6, r7, lr}
 413              	.LCFI6:
 414              		.cfi_def_cfa_offset 24
 415              		.cfi_offset 3, -24
 416              		.cfi_offset 4, -20
 417              		.cfi_offset 5, -16
 418              		.cfi_offset 6, -12
 419              		.cfi_offset 7, -8
 420              		.cfi_offset 14, -4
 116:/mnt/c/Users/31740/Documents/codes/newcore-rp2350/fs/pipefs/pipefs.c ****     struct pipefs_inode *pipe_inode = kmalloc(sizeof(struct pipefs_inode),GFP_KERNEL);
 421              		.loc 1 116 5 is_stmt 1 view .LVU90
 116:/mnt/c/Users/31740/Documents/codes/newcore-rp2350/fs/pipefs/pipefs.c ****     struct pipefs_inode *pipe_inode = kmalloc(sizeof(struct pipefs_inode),GFP_KERNEL);
 422              		.loc 1 116 7 is_stmt 0 view .LVU91
 423 0002 0F46     		mov	r7, r1
 424 0004 71B3     		cbz	r1, .L32
 425 0006 0546     		mov	r5, r0
 426 0008 1646     		mov	r6, r2
 117:/mnt/c/Users/31740/Documents/codes/newcore-rp2350/fs/pipefs/pipefs.c ****     if(pipe_inode == NULL) return NULL;
 427              		.loc 1 117 5 is_stmt 1 view .LVU92
 428              	.LVL31:
 429              	.LBB231:
 430              	.LBI231:
 379:/mnt/c/Users/31740/Documents/codes/newcore-rp2350/include/linux/slab.h **** 	return __smalloc__((u32)size,flags);
 431              		.loc 3 379 21 view .LVU93
 432              	.LBB232:
 433              		.loc 3 380 2 view .LVU94
 434              		.loc 3 380 9 is_stmt 0 view .LVU95
 435 000a 4FF44C61 		mov	r1, #3264
 436              	.LVL32:
 437              		.loc 3 380 9 view .LVU96
 438 000e 3C20     		movs	r0, #60
 439              	.LVL33:
 440              		.loc 3 380 9 view .LVU97
 441 0010 FFF7FEFF 		bl	__smalloc__
 442              	.LVL34:
 443              		.loc 3 380 9 view .LVU98
 444              	.LBE232:
 445              	.LBE231:
 118:/mnt/c/Users/31740/Documents/codes/newcore-rp2350/fs/pipefs/pipefs.c ****     pipe_inode->magic = MAGIC;
 446              		.loc 1 118 5 is_stmt 1 view .LVU99
 118:/mnt/c/Users/31740/Documents/codes/newcore-rp2350/fs/pipefs/pipefs.c ****     pipe_inode->magic = MAGIC;
 447              		.loc 1 118 7 is_stmt 0 view .LVU100
 448 0014 0446     		mov	r4, r0
 449 0016 18B3     		cbz	r0, .L30
 119:/mnt/c/Users/31740/Documents/codes/newcore-rp2350/fs/pipefs/pipefs.c ****     pipe_inode->major = major;
ARM GAS  /tmp/ccDkYPHY.s 			page 27


 450              		.loc 1 119 5 is_stmt 1 view .LVU101
 119:/mnt/c/Users/31740/Documents/codes/newcore-rp2350/fs/pipefs/pipefs.c ****     pipe_inode->major = major;
 451              		.loc 1 119 23 is_stmt 0 view .LVU102
 452 0018 134B     		ldr	r3, .L34
 453 001a 0360     		str	r3, [r0]
 120:/mnt/c/Users/31740/Documents/codes/newcore-rp2350/fs/pipefs/pipefs.c ****     pipe_inode->i_fop = fop;
 454              		.loc 1 120 5 is_stmt 1 view .LVU103
 120:/mnt/c/Users/31740/Documents/codes/newcore-rp2350/fs/pipefs/pipefs.c ****     pipe_inode->i_fop = fop;
 455              		.loc 1 120 23 is_stmt 0 view .LVU104
 456 001c 8660     		str	r6, [r0, #8]
 121:/mnt/c/Users/31740/Documents/codes/newcore-rp2350/fs/pipefs/pipefs.c ****     pipe_inode->sb    = sb;
 457              		.loc 1 121 5 is_stmt 1 view .LVU105
 121:/mnt/c/Users/31740/Documents/codes/newcore-rp2350/fs/pipefs/pipefs.c ****     pipe_inode->sb    = sb;
 458              		.loc 1 121 23 is_stmt 0 view .LVU106
 459 001e 0761     		str	r7, [r0, #16]
 122:/mnt/c/Users/31740/Documents/codes/newcore-rp2350/fs/pipefs/pipefs.c ****     pipe_inode->i_mode = S_IFREG | 0755;
 460              		.loc 1 122 5 is_stmt 1 view .LVU107
 122:/mnt/c/Users/31740/Documents/codes/newcore-rp2350/fs/pipefs/pipefs.c ****     pipe_inode->i_mode = S_IFREG | 0755;
 461              		.loc 1 122 23 is_stmt 0 view .LVU108
 462 0020 4563     		str	r5, [r0, #52]
 123:/mnt/c/Users/31740/Documents/codes/newcore-rp2350/fs/pipefs/pipefs.c ****     atomic_set(&pipe_inode->dentry_count,0);
 463              		.loc 1 123 5 is_stmt 1 view .LVU109
 123:/mnt/c/Users/31740/Documents/codes/newcore-rp2350/fs/pipefs/pipefs.c ****     atomic_set(&pipe_inode->dentry_count,0);
 464              		.loc 1 123 24 is_stmt 0 view .LVU110
 465 0022 48F2ED13 		movw	r3, #33261
 466 0026 4360     		str	r3, [r0, #4]
 124:/mnt/c/Users/31740/Documents/codes/newcore-rp2350/fs/pipefs/pipefs.c ****     spin_lock_init(&pipe_inode->lock);
 467              		.loc 1 124 5 is_stmt 1 view .LVU111
 468              	.LVL35:
 469              	.LBB233:
 470              	.LBI233:
 471              		.file 4 "/mnt/c/Users/31740/Documents/codes/newcore-rp2350/include/linux/atomic/atomic-instrumente
   1:/mnt/c/Users/31740/Documents/codes/newcore-rp2350/include/linux/atomic/atomic-instrumented.h **** // SPDX-License-Identifier: GPL-2.0
   2:/mnt/c/Users/31740/Documents/codes/newcore-rp2350/include/linux/atomic/atomic-instrumented.h **** 
   3:/mnt/c/Users/31740/Documents/codes/newcore-rp2350/include/linux/atomic/atomic-instrumented.h **** // Generated by scripts/atomic/gen-atomic-instrumented.sh 
   4:/mnt/c/Users/31740/Documents/codes/newcore-rp2350/include/linux/atomic/atomic-instrumented.h **** // DO NOT MODIFY THIS FILE DIRECTLY
   5:/mnt/c/Users/31740/Documents/codes/newcore-rp2350/include/linux/atomic/atomic-instrumented.h **** 
   6:/mnt/c/Users/31740/Documents/codes/newcore-rp2350/include/linux/atomic/atomic-instrumented.h **** /*
   7:/mnt/c/Users/31740/Documents/codes/newcore-rp2350/include/linux/atomic/atomic-instrumented.h ****  * This file provoides atomic operations with explicit instrumentation (e.g.
   8:/mnt/c/Users/31740/Documents/codes/newcore-rp2350/include/linux/atomic/atomic-instrumented.h ****  * KASAN, KCSAN), which should be used unless it is necessary to avoid
   9:/mnt/c/Users/31740/Documents/codes/newcore-rp2350/include/linux/atomic/atomic-instrumented.h ****  * instrumentation. Where it is necessary to aovid instrumenation, the
  10:/mnt/c/Users/31740/Documents/codes/newcore-rp2350/include/linux/atomic/atomic-instrumented.h ****  * raw_atomic*() operations should be used.
  11:/mnt/c/Users/31740/Documents/codes/newcore-rp2350/include/linux/atomic/atomic-instrumented.h ****  */
  12:/mnt/c/Users/31740/Documents/codes/newcore-rp2350/include/linux/atomic/atomic-instrumented.h **** #ifndef _LINUX_ATOMIC_INSTRUMENTED_H
  13:/mnt/c/Users/31740/Documents/codes/newcore-rp2350/include/linux/atomic/atomic-instrumented.h **** #define _LINUX_ATOMIC_INSTRUMENTED_H
  14:/mnt/c/Users/31740/Documents/codes/newcore-rp2350/include/linux/atomic/atomic-instrumented.h **** 
  15:/mnt/c/Users/31740/Documents/codes/newcore-rp2350/include/linux/atomic/atomic-instrumented.h **** #include <linux/build_bug.h>
  16:/mnt/c/Users/31740/Documents/codes/newcore-rp2350/include/linux/atomic/atomic-instrumented.h **** #include <linux/compiler.h>
  17:/mnt/c/Users/31740/Documents/codes/newcore-rp2350/include/linux/atomic/atomic-instrumented.h **** #include <linux/instrumented.h>
  18:/mnt/c/Users/31740/Documents/codes/newcore-rp2350/include/linux/atomic/atomic-instrumented.h **** 
  19:/mnt/c/Users/31740/Documents/codes/newcore-rp2350/include/linux/atomic/atomic-instrumented.h **** /**
  20:/mnt/c/Users/31740/Documents/codes/newcore-rp2350/include/linux/atomic/atomic-instrumented.h ****  * atomic_read() - atomic load with relaxed ordering
  21:/mnt/c/Users/31740/Documents/codes/newcore-rp2350/include/linux/atomic/atomic-instrumented.h ****  * @v: pointer to atomic_t
  22:/mnt/c/Users/31740/Documents/codes/newcore-rp2350/include/linux/atomic/atomic-instrumented.h ****  *
  23:/mnt/c/Users/31740/Documents/codes/newcore-rp2350/include/linux/atomic/atomic-instrumented.h ****  * Atomically loads the value of @v with relaxed ordering.
  24:/mnt/c/Users/31740/Documents/codes/newcore-rp2350/include/linux/atomic/atomic-instrumented.h ****  *
  25:/mnt/c/Users/31740/Documents/codes/newcore-rp2350/include/linux/atomic/atomic-instrumented.h ****  * Unsafe to use in noinstr code; use raw_atomic_read() there.
ARM GAS  /tmp/ccDkYPHY.s 			page 28


  26:/mnt/c/Users/31740/Documents/codes/newcore-rp2350/include/linux/atomic/atomic-instrumented.h ****  *
  27:/mnt/c/Users/31740/Documents/codes/newcore-rp2350/include/linux/atomic/atomic-instrumented.h ****  * Return: The value loaded from @v.
  28:/mnt/c/Users/31740/Documents/codes/newcore-rp2350/include/linux/atomic/atomic-instrumented.h ****  */
  29:/mnt/c/Users/31740/Documents/codes/newcore-rp2350/include/linux/atomic/atomic-instrumented.h **** static __always_inline int
  30:/mnt/c/Users/31740/Documents/codes/newcore-rp2350/include/linux/atomic/atomic-instrumented.h **** atomic_read(const atomic_t *v)
  31:/mnt/c/Users/31740/Documents/codes/newcore-rp2350/include/linux/atomic/atomic-instrumented.h **** {
  32:/mnt/c/Users/31740/Documents/codes/newcore-rp2350/include/linux/atomic/atomic-instrumented.h **** 	instrument_atomic_read(v, sizeof(*v));
  33:/mnt/c/Users/31740/Documents/codes/newcore-rp2350/include/linux/atomic/atomic-instrumented.h **** 	return raw_atomic_read(v);
  34:/mnt/c/Users/31740/Documents/codes/newcore-rp2350/include/linux/atomic/atomic-instrumented.h **** }
  35:/mnt/c/Users/31740/Documents/codes/newcore-rp2350/include/linux/atomic/atomic-instrumented.h **** 
  36:/mnt/c/Users/31740/Documents/codes/newcore-rp2350/include/linux/atomic/atomic-instrumented.h **** /**
  37:/mnt/c/Users/31740/Documents/codes/newcore-rp2350/include/linux/atomic/atomic-instrumented.h ****  * atomic_read_acquire() - atomic load with acquire ordering
  38:/mnt/c/Users/31740/Documents/codes/newcore-rp2350/include/linux/atomic/atomic-instrumented.h ****  * @v: pointer to atomic_t
  39:/mnt/c/Users/31740/Documents/codes/newcore-rp2350/include/linux/atomic/atomic-instrumented.h ****  *
  40:/mnt/c/Users/31740/Documents/codes/newcore-rp2350/include/linux/atomic/atomic-instrumented.h ****  * Atomically loads the value of @v with acquire ordering.
  41:/mnt/c/Users/31740/Documents/codes/newcore-rp2350/include/linux/atomic/atomic-instrumented.h ****  *
  42:/mnt/c/Users/31740/Documents/codes/newcore-rp2350/include/linux/atomic/atomic-instrumented.h ****  * Unsafe to use in noinstr code; use raw_atomic_read_acquire() there.
  43:/mnt/c/Users/31740/Documents/codes/newcore-rp2350/include/linux/atomic/atomic-instrumented.h ****  *
  44:/mnt/c/Users/31740/Documents/codes/newcore-rp2350/include/linux/atomic/atomic-instrumented.h ****  * Return: The value loaded from @v.
  45:/mnt/c/Users/31740/Documents/codes/newcore-rp2350/include/linux/atomic/atomic-instrumented.h ****  */
  46:/mnt/c/Users/31740/Documents/codes/newcore-rp2350/include/linux/atomic/atomic-instrumented.h **** static __always_inline int
  47:/mnt/c/Users/31740/Documents/codes/newcore-rp2350/include/linux/atomic/atomic-instrumented.h **** atomic_read_acquire(const atomic_t *v)
  48:/mnt/c/Users/31740/Documents/codes/newcore-rp2350/include/linux/atomic/atomic-instrumented.h **** {
  49:/mnt/c/Users/31740/Documents/codes/newcore-rp2350/include/linux/atomic/atomic-instrumented.h **** 	instrument_atomic_read(v, sizeof(*v));
  50:/mnt/c/Users/31740/Documents/codes/newcore-rp2350/include/linux/atomic/atomic-instrumented.h **** 	return raw_atomic_read_acquire(v);
  51:/mnt/c/Users/31740/Documents/codes/newcore-rp2350/include/linux/atomic/atomic-instrumented.h **** }
  52:/mnt/c/Users/31740/Documents/codes/newcore-rp2350/include/linux/atomic/atomic-instrumented.h **** 
  53:/mnt/c/Users/31740/Documents/codes/newcore-rp2350/include/linux/atomic/atomic-instrumented.h **** /**
  54:/mnt/c/Users/31740/Documents/codes/newcore-rp2350/include/linux/atomic/atomic-instrumented.h ****  * atomic_set() - atomic set with relaxed ordering
  55:/mnt/c/Users/31740/Documents/codes/newcore-rp2350/include/linux/atomic/atomic-instrumented.h ****  * @v: pointer to atomic_t
  56:/mnt/c/Users/31740/Documents/codes/newcore-rp2350/include/linux/atomic/atomic-instrumented.h ****  * @i: int value to assign
  57:/mnt/c/Users/31740/Documents/codes/newcore-rp2350/include/linux/atomic/atomic-instrumented.h ****  *
  58:/mnt/c/Users/31740/Documents/codes/newcore-rp2350/include/linux/atomic/atomic-instrumented.h ****  * Atomically sets @v to @i with relaxed ordering.
  59:/mnt/c/Users/31740/Documents/codes/newcore-rp2350/include/linux/atomic/atomic-instrumented.h ****  *
  60:/mnt/c/Users/31740/Documents/codes/newcore-rp2350/include/linux/atomic/atomic-instrumented.h ****  * Unsafe to use in noinstr code; use raw_atomic_set() there.
  61:/mnt/c/Users/31740/Documents/codes/newcore-rp2350/include/linux/atomic/atomic-instrumented.h ****  *
  62:/mnt/c/Users/31740/Documents/codes/newcore-rp2350/include/linux/atomic/atomic-instrumented.h ****  * Return: Nothing.
  63:/mnt/c/Users/31740/Documents/codes/newcore-rp2350/include/linux/atomic/atomic-instrumented.h ****  */
  64:/mnt/c/Users/31740/Documents/codes/newcore-rp2350/include/linux/atomic/atomic-instrumented.h **** static __always_inline void
  65:/mnt/c/Users/31740/Documents/codes/newcore-rp2350/include/linux/atomic/atomic-instrumented.h **** atomic_set(atomic_t *v, int i)
 472              		.loc 4 65 1 view .LVU112
  66:/mnt/c/Users/31740/Documents/codes/newcore-rp2350/include/linux/atomic/atomic-instrumented.h **** {
  67:/mnt/c/Users/31740/Documents/codes/newcore-rp2350/include/linux/atomic/atomic-instrumented.h **** 	instrument_atomic_write(v, sizeof(*v));
 473              		.loc 4 67 2 view .LVU113
  68:/mnt/c/Users/31740/Documents/codes/newcore-rp2350/include/linux/atomic/atomic-instrumented.h **** 	raw_atomic_set(v, i);
 474              		.loc 4 68 2 view .LVU114
 475              	.LBB234:
 476              	.LBI234:
 477              		.file 5 "/mnt/c/Users/31740/Documents/codes/newcore-rp2350/include/linux/atomic/atomic-arch-fallba
   1:/mnt/c/Users/31740/Documents/codes/newcore-rp2350/include/linux/atomic/atomic-arch-fallback.h **** // SPDX-License-Identifier: GPL-2.0
   2:/mnt/c/Users/31740/Documents/codes/newcore-rp2350/include/linux/atomic/atomic-arch-fallback.h **** 
   3:/mnt/c/Users/31740/Documents/codes/newcore-rp2350/include/linux/atomic/atomic-arch-fallback.h **** // Generated by scripts/atomic/gen-atomic-fallback.sh
   4:/mnt/c/Users/31740/Documents/codes/newcore-rp2350/include/linux/atomic/atomic-arch-fallback.h **** // DO NOT MODIFY THIS FILE DIRECTLY
   5:/mnt/c/Users/31740/Documents/codes/newcore-rp2350/include/linux/atomic/atomic-arch-fallback.h **** 
   6:/mnt/c/Users/31740/Documents/codes/newcore-rp2350/include/linux/atomic/atomic-arch-fallback.h **** #ifndef _LINUX_ATOMIC_FALLBACK_H
   7:/mnt/c/Users/31740/Documents/codes/newcore-rp2350/include/linux/atomic/atomic-arch-fallback.h **** #define _LINUX_ATOMIC_FALLBACK_H
   8:/mnt/c/Users/31740/Documents/codes/newcore-rp2350/include/linux/atomic/atomic-arch-fallback.h **** 
ARM GAS  /tmp/ccDkYPHY.s 			page 29


   9:/mnt/c/Users/31740/Documents/codes/newcore-rp2350/include/linux/atomic/atomic-arch-fallback.h **** #include <linux/compiler.h>
  10:/mnt/c/Users/31740/Documents/codes/newcore-rp2350/include/linux/atomic/atomic-arch-fallback.h **** 
  11:/mnt/c/Users/31740/Documents/codes/newcore-rp2350/include/linux/atomic/atomic-arch-fallback.h **** #if defined(arch_xchg)
  12:/mnt/c/Users/31740/Documents/codes/newcore-rp2350/include/linux/atomic/atomic-arch-fallback.h **** #define raw_xchg arch_xchg
  13:/mnt/c/Users/31740/Documents/codes/newcore-rp2350/include/linux/atomic/atomic-arch-fallback.h **** #elif defined(arch_xchg_relaxed)
  14:/mnt/c/Users/31740/Documents/codes/newcore-rp2350/include/linux/atomic/atomic-arch-fallback.h **** #define raw_xchg(...) \
  15:/mnt/c/Users/31740/Documents/codes/newcore-rp2350/include/linux/atomic/atomic-arch-fallback.h **** 	__atomic_op_fence(arch_xchg, __VA_ARGS__)
  16:/mnt/c/Users/31740/Documents/codes/newcore-rp2350/include/linux/atomic/atomic-arch-fallback.h **** #else
  17:/mnt/c/Users/31740/Documents/codes/newcore-rp2350/include/linux/atomic/atomic-arch-fallback.h **** extern void raw_xchg_not_implemented(void);
  18:/mnt/c/Users/31740/Documents/codes/newcore-rp2350/include/linux/atomic/atomic-arch-fallback.h **** #define raw_xchg(...) raw_xchg_not_implemented()
  19:/mnt/c/Users/31740/Documents/codes/newcore-rp2350/include/linux/atomic/atomic-arch-fallback.h **** #endif
  20:/mnt/c/Users/31740/Documents/codes/newcore-rp2350/include/linux/atomic/atomic-arch-fallback.h **** 
  21:/mnt/c/Users/31740/Documents/codes/newcore-rp2350/include/linux/atomic/atomic-arch-fallback.h **** #if defined(arch_xchg_acquire)
  22:/mnt/c/Users/31740/Documents/codes/newcore-rp2350/include/linux/atomic/atomic-arch-fallback.h **** #define raw_xchg_acquire arch_xchg_acquire
  23:/mnt/c/Users/31740/Documents/codes/newcore-rp2350/include/linux/atomic/atomic-arch-fallback.h **** #elif defined(arch_xchg_relaxed)
  24:/mnt/c/Users/31740/Documents/codes/newcore-rp2350/include/linux/atomic/atomic-arch-fallback.h **** #define raw_xchg_acquire(...) \
  25:/mnt/c/Users/31740/Documents/codes/newcore-rp2350/include/linux/atomic/atomic-arch-fallback.h **** 	__atomic_op_acquire(arch_xchg, __VA_ARGS__)
  26:/mnt/c/Users/31740/Documents/codes/newcore-rp2350/include/linux/atomic/atomic-arch-fallback.h **** #elif defined(arch_xchg)
  27:/mnt/c/Users/31740/Documents/codes/newcore-rp2350/include/linux/atomic/atomic-arch-fallback.h **** #define raw_xchg_acquire arch_xchg
  28:/mnt/c/Users/31740/Documents/codes/newcore-rp2350/include/linux/atomic/atomic-arch-fallback.h **** #else
  29:/mnt/c/Users/31740/Documents/codes/newcore-rp2350/include/linux/atomic/atomic-arch-fallback.h **** extern void raw_xchg_acquire_not_implemented(void);
  30:/mnt/c/Users/31740/Documents/codes/newcore-rp2350/include/linux/atomic/atomic-arch-fallback.h **** #define raw_xchg_acquire(...) raw_xchg_acquire_not_implemented()
  31:/mnt/c/Users/31740/Documents/codes/newcore-rp2350/include/linux/atomic/atomic-arch-fallback.h **** #endif
  32:/mnt/c/Users/31740/Documents/codes/newcore-rp2350/include/linux/atomic/atomic-arch-fallback.h **** 
  33:/mnt/c/Users/31740/Documents/codes/newcore-rp2350/include/linux/atomic/atomic-arch-fallback.h **** #if defined(arch_xchg_release)
  34:/mnt/c/Users/31740/Documents/codes/newcore-rp2350/include/linux/atomic/atomic-arch-fallback.h **** #define raw_xchg_release arch_xchg_release
  35:/mnt/c/Users/31740/Documents/codes/newcore-rp2350/include/linux/atomic/atomic-arch-fallback.h **** #elif defined(arch_xchg_relaxed)
  36:/mnt/c/Users/31740/Documents/codes/newcore-rp2350/include/linux/atomic/atomic-arch-fallback.h **** #define raw_xchg_release(...) \
  37:/mnt/c/Users/31740/Documents/codes/newcore-rp2350/include/linux/atomic/atomic-arch-fallback.h **** 	__atomic_op_release(arch_xchg, __VA_ARGS__)
  38:/mnt/c/Users/31740/Documents/codes/newcore-rp2350/include/linux/atomic/atomic-arch-fallback.h **** #elif defined(arch_xchg)
  39:/mnt/c/Users/31740/Documents/codes/newcore-rp2350/include/linux/atomic/atomic-arch-fallback.h **** #define raw_xchg_release arch_xchg
  40:/mnt/c/Users/31740/Documents/codes/newcore-rp2350/include/linux/atomic/atomic-arch-fallback.h **** #else
  41:/mnt/c/Users/31740/Documents/codes/newcore-rp2350/include/linux/atomic/atomic-arch-fallback.h **** extern void raw_xchg_release_not_implemented(void);
  42:/mnt/c/Users/31740/Documents/codes/newcore-rp2350/include/linux/atomic/atomic-arch-fallback.h **** #define raw_xchg_release(...) raw_xchg_release_not_implemented()
  43:/mnt/c/Users/31740/Documents/codes/newcore-rp2350/include/linux/atomic/atomic-arch-fallback.h **** #endif
  44:/mnt/c/Users/31740/Documents/codes/newcore-rp2350/include/linux/atomic/atomic-arch-fallback.h **** 
  45:/mnt/c/Users/31740/Documents/codes/newcore-rp2350/include/linux/atomic/atomic-arch-fallback.h **** #if defined(arch_xchg_relaxed)
  46:/mnt/c/Users/31740/Documents/codes/newcore-rp2350/include/linux/atomic/atomic-arch-fallback.h **** #define raw_xchg_relaxed arch_xchg_relaxed
  47:/mnt/c/Users/31740/Documents/codes/newcore-rp2350/include/linux/atomic/atomic-arch-fallback.h **** #elif defined(arch_xchg)
  48:/mnt/c/Users/31740/Documents/codes/newcore-rp2350/include/linux/atomic/atomic-arch-fallback.h **** #define raw_xchg_relaxed arch_xchg
  49:/mnt/c/Users/31740/Documents/codes/newcore-rp2350/include/linux/atomic/atomic-arch-fallback.h **** #else
  50:/mnt/c/Users/31740/Documents/codes/newcore-rp2350/include/linux/atomic/atomic-arch-fallback.h **** extern void raw_xchg_relaxed_not_implemented(void);
  51:/mnt/c/Users/31740/Documents/codes/newcore-rp2350/include/linux/atomic/atomic-arch-fallback.h **** #define raw_xchg_relaxed(...) raw_xchg_relaxed_not_implemented()
  52:/mnt/c/Users/31740/Documents/codes/newcore-rp2350/include/linux/atomic/atomic-arch-fallback.h **** #endif
  53:/mnt/c/Users/31740/Documents/codes/newcore-rp2350/include/linux/atomic/atomic-arch-fallback.h **** 
  54:/mnt/c/Users/31740/Documents/codes/newcore-rp2350/include/linux/atomic/atomic-arch-fallback.h **** #if defined(arch_cmpxchg)
  55:/mnt/c/Users/31740/Documents/codes/newcore-rp2350/include/linux/atomic/atomic-arch-fallback.h **** #define raw_cmpxchg arch_cmpxchg
  56:/mnt/c/Users/31740/Documents/codes/newcore-rp2350/include/linux/atomic/atomic-arch-fallback.h **** #elif defined(arch_cmpxchg_relaxed)
  57:/mnt/c/Users/31740/Documents/codes/newcore-rp2350/include/linux/atomic/atomic-arch-fallback.h **** #define raw_cmpxchg(...) \
  58:/mnt/c/Users/31740/Documents/codes/newcore-rp2350/include/linux/atomic/atomic-arch-fallback.h **** 	__atomic_op_fence(arch_cmpxchg, __VA_ARGS__)
  59:/mnt/c/Users/31740/Documents/codes/newcore-rp2350/include/linux/atomic/atomic-arch-fallback.h **** #else
  60:/mnt/c/Users/31740/Documents/codes/newcore-rp2350/include/linux/atomic/atomic-arch-fallback.h **** extern void raw_cmpxchg_not_implemented(void);
  61:/mnt/c/Users/31740/Documents/codes/newcore-rp2350/include/linux/atomic/atomic-arch-fallback.h **** #define raw_cmpxchg(...) raw_cmpxchg_not_implemented()
  62:/mnt/c/Users/31740/Documents/codes/newcore-rp2350/include/linux/atomic/atomic-arch-fallback.h **** #endif
  63:/mnt/c/Users/31740/Documents/codes/newcore-rp2350/include/linux/atomic/atomic-arch-fallback.h **** 
  64:/mnt/c/Users/31740/Documents/codes/newcore-rp2350/include/linux/atomic/atomic-arch-fallback.h **** #if defined(arch_cmpxchg_acquire)
  65:/mnt/c/Users/31740/Documents/codes/newcore-rp2350/include/linux/atomic/atomic-arch-fallback.h **** #define raw_cmpxchg_acquire arch_cmpxchg_acquire
ARM GAS  /tmp/ccDkYPHY.s 			page 30


  66:/mnt/c/Users/31740/Documents/codes/newcore-rp2350/include/linux/atomic/atomic-arch-fallback.h **** #elif defined(arch_cmpxchg_relaxed)
  67:/mnt/c/Users/31740/Documents/codes/newcore-rp2350/include/linux/atomic/atomic-arch-fallback.h **** #define raw_cmpxchg_acquire(...) \
  68:/mnt/c/Users/31740/Documents/codes/newcore-rp2350/include/linux/atomic/atomic-arch-fallback.h **** 	__atomic_op_acquire(arch_cmpxchg, __VA_ARGS__)
  69:/mnt/c/Users/31740/Documents/codes/newcore-rp2350/include/linux/atomic/atomic-arch-fallback.h **** #elif defined(arch_cmpxchg)
  70:/mnt/c/Users/31740/Documents/codes/newcore-rp2350/include/linux/atomic/atomic-arch-fallback.h **** #define raw_cmpxchg_acquire arch_cmpxchg
  71:/mnt/c/Users/31740/Documents/codes/newcore-rp2350/include/linux/atomic/atomic-arch-fallback.h **** #else
  72:/mnt/c/Users/31740/Documents/codes/newcore-rp2350/include/linux/atomic/atomic-arch-fallback.h **** extern void raw_cmpxchg_acquire_not_implemented(void);
  73:/mnt/c/Users/31740/Documents/codes/newcore-rp2350/include/linux/atomic/atomic-arch-fallback.h **** #define raw_cmpxchg_acquire(...) raw_cmpxchg_acquire_not_implemented()
  74:/mnt/c/Users/31740/Documents/codes/newcore-rp2350/include/linux/atomic/atomic-arch-fallback.h **** #endif
  75:/mnt/c/Users/31740/Documents/codes/newcore-rp2350/include/linux/atomic/atomic-arch-fallback.h **** 
  76:/mnt/c/Users/31740/Documents/codes/newcore-rp2350/include/linux/atomic/atomic-arch-fallback.h **** #if defined(arch_cmpxchg_release)
  77:/mnt/c/Users/31740/Documents/codes/newcore-rp2350/include/linux/atomic/atomic-arch-fallback.h **** #define raw_cmpxchg_release arch_cmpxchg_release
  78:/mnt/c/Users/31740/Documents/codes/newcore-rp2350/include/linux/atomic/atomic-arch-fallback.h **** #elif defined(arch_cmpxchg_relaxed)
  79:/mnt/c/Users/31740/Documents/codes/newcore-rp2350/include/linux/atomic/atomic-arch-fallback.h **** #define raw_cmpxchg_release(...) \
  80:/mnt/c/Users/31740/Documents/codes/newcore-rp2350/include/linux/atomic/atomic-arch-fallback.h **** 	__atomic_op_release(arch_cmpxchg, __VA_ARGS__)
  81:/mnt/c/Users/31740/Documents/codes/newcore-rp2350/include/linux/atomic/atomic-arch-fallback.h **** #elif defined(arch_cmpxchg)
  82:/mnt/c/Users/31740/Documents/codes/newcore-rp2350/include/linux/atomic/atomic-arch-fallback.h **** #define raw_cmpxchg_release arch_cmpxchg
  83:/mnt/c/Users/31740/Documents/codes/newcore-rp2350/include/linux/atomic/atomic-arch-fallback.h **** #else
  84:/mnt/c/Users/31740/Documents/codes/newcore-rp2350/include/linux/atomic/atomic-arch-fallback.h **** extern void raw_cmpxchg_release_not_implemented(void);
  85:/mnt/c/Users/31740/Documents/codes/newcore-rp2350/include/linux/atomic/atomic-arch-fallback.h **** #define raw_cmpxchg_release(...) raw_cmpxchg_release_not_implemented()
  86:/mnt/c/Users/31740/Documents/codes/newcore-rp2350/include/linux/atomic/atomic-arch-fallback.h **** #endif
  87:/mnt/c/Users/31740/Documents/codes/newcore-rp2350/include/linux/atomic/atomic-arch-fallback.h **** 
  88:/mnt/c/Users/31740/Documents/codes/newcore-rp2350/include/linux/atomic/atomic-arch-fallback.h **** #if defined(arch_cmpxchg_relaxed)
  89:/mnt/c/Users/31740/Documents/codes/newcore-rp2350/include/linux/atomic/atomic-arch-fallback.h **** #define raw_cmpxchg_relaxed arch_cmpxchg_relaxed
  90:/mnt/c/Users/31740/Documents/codes/newcore-rp2350/include/linux/atomic/atomic-arch-fallback.h **** #elif defined(arch_cmpxchg)
  91:/mnt/c/Users/31740/Documents/codes/newcore-rp2350/include/linux/atomic/atomic-arch-fallback.h **** #define raw_cmpxchg_relaxed arch_cmpxchg
  92:/mnt/c/Users/31740/Documents/codes/newcore-rp2350/include/linux/atomic/atomic-arch-fallback.h **** #else
  93:/mnt/c/Users/31740/Documents/codes/newcore-rp2350/include/linux/atomic/atomic-arch-fallback.h **** extern void raw_cmpxchg_relaxed_not_implemented(void);
  94:/mnt/c/Users/31740/Documents/codes/newcore-rp2350/include/linux/atomic/atomic-arch-fallback.h **** #define raw_cmpxchg_relaxed(...) raw_cmpxchg_relaxed_not_implemented()
  95:/mnt/c/Users/31740/Documents/codes/newcore-rp2350/include/linux/atomic/atomic-arch-fallback.h **** #endif
  96:/mnt/c/Users/31740/Documents/codes/newcore-rp2350/include/linux/atomic/atomic-arch-fallback.h **** 
  97:/mnt/c/Users/31740/Documents/codes/newcore-rp2350/include/linux/atomic/atomic-arch-fallback.h **** #if defined(arch_cmpxchg64)
  98:/mnt/c/Users/31740/Documents/codes/newcore-rp2350/include/linux/atomic/atomic-arch-fallback.h **** #define raw_cmpxchg64 arch_cmpxchg64
  99:/mnt/c/Users/31740/Documents/codes/newcore-rp2350/include/linux/atomic/atomic-arch-fallback.h **** #elif defined(arch_cmpxchg64_relaxed)
 100:/mnt/c/Users/31740/Documents/codes/newcore-rp2350/include/linux/atomic/atomic-arch-fallback.h **** #define raw_cmpxchg64(...) \
 101:/mnt/c/Users/31740/Documents/codes/newcore-rp2350/include/linux/atomic/atomic-arch-fallback.h **** 	__atomic_op_fence(arch_cmpxchg64, __VA_ARGS__)
 102:/mnt/c/Users/31740/Documents/codes/newcore-rp2350/include/linux/atomic/atomic-arch-fallback.h **** #else
 103:/mnt/c/Users/31740/Documents/codes/newcore-rp2350/include/linux/atomic/atomic-arch-fallback.h **** extern void raw_cmpxchg64_not_implemented(void);
 104:/mnt/c/Users/31740/Documents/codes/newcore-rp2350/include/linux/atomic/atomic-arch-fallback.h **** #define raw_cmpxchg64(...) raw_cmpxchg64_not_implemented()
 105:/mnt/c/Users/31740/Documents/codes/newcore-rp2350/include/linux/atomic/atomic-arch-fallback.h **** #endif
 106:/mnt/c/Users/31740/Documents/codes/newcore-rp2350/include/linux/atomic/atomic-arch-fallback.h **** 
 107:/mnt/c/Users/31740/Documents/codes/newcore-rp2350/include/linux/atomic/atomic-arch-fallback.h **** #if defined(arch_cmpxchg64_acquire)
 108:/mnt/c/Users/31740/Documents/codes/newcore-rp2350/include/linux/atomic/atomic-arch-fallback.h **** #define raw_cmpxchg64_acquire arch_cmpxchg64_acquire
 109:/mnt/c/Users/31740/Documents/codes/newcore-rp2350/include/linux/atomic/atomic-arch-fallback.h **** #elif defined(arch_cmpxchg64_relaxed)
 110:/mnt/c/Users/31740/Documents/codes/newcore-rp2350/include/linux/atomic/atomic-arch-fallback.h **** #define raw_cmpxchg64_acquire(...) \
 111:/mnt/c/Users/31740/Documents/codes/newcore-rp2350/include/linux/atomic/atomic-arch-fallback.h **** 	__atomic_op_acquire(arch_cmpxchg64, __VA_ARGS__)
 112:/mnt/c/Users/31740/Documents/codes/newcore-rp2350/include/linux/atomic/atomic-arch-fallback.h **** #elif defined(arch_cmpxchg64)
 113:/mnt/c/Users/31740/Documents/codes/newcore-rp2350/include/linux/atomic/atomic-arch-fallback.h **** #define raw_cmpxchg64_acquire arch_cmpxchg64
 114:/mnt/c/Users/31740/Documents/codes/newcore-rp2350/include/linux/atomic/atomic-arch-fallback.h **** #else
 115:/mnt/c/Users/31740/Documents/codes/newcore-rp2350/include/linux/atomic/atomic-arch-fallback.h **** extern void raw_cmpxchg64_acquire_not_implemented(void);
 116:/mnt/c/Users/31740/Documents/codes/newcore-rp2350/include/linux/atomic/atomic-arch-fallback.h **** #define raw_cmpxchg64_acquire(...) raw_cmpxchg64_acquire_not_implemented()
 117:/mnt/c/Users/31740/Documents/codes/newcore-rp2350/include/linux/atomic/atomic-arch-fallback.h **** #endif
 118:/mnt/c/Users/31740/Documents/codes/newcore-rp2350/include/linux/atomic/atomic-arch-fallback.h **** 
 119:/mnt/c/Users/31740/Documents/codes/newcore-rp2350/include/linux/atomic/atomic-arch-fallback.h **** #if defined(arch_cmpxchg64_release)
 120:/mnt/c/Users/31740/Documents/codes/newcore-rp2350/include/linux/atomic/atomic-arch-fallback.h **** #define raw_cmpxchg64_release arch_cmpxchg64_release
 121:/mnt/c/Users/31740/Documents/codes/newcore-rp2350/include/linux/atomic/atomic-arch-fallback.h **** #elif defined(arch_cmpxchg64_relaxed)
 122:/mnt/c/Users/31740/Documents/codes/newcore-rp2350/include/linux/atomic/atomic-arch-fallback.h **** #define raw_cmpxchg64_release(...) \
ARM GAS  /tmp/ccDkYPHY.s 			page 31


 123:/mnt/c/Users/31740/Documents/codes/newcore-rp2350/include/linux/atomic/atomic-arch-fallback.h **** 	__atomic_op_release(arch_cmpxchg64, __VA_ARGS__)
 124:/mnt/c/Users/31740/Documents/codes/newcore-rp2350/include/linux/atomic/atomic-arch-fallback.h **** #elif defined(arch_cmpxchg64)
 125:/mnt/c/Users/31740/Documents/codes/newcore-rp2350/include/linux/atomic/atomic-arch-fallback.h **** #define raw_cmpxchg64_release arch_cmpxchg64
 126:/mnt/c/Users/31740/Documents/codes/newcore-rp2350/include/linux/atomic/atomic-arch-fallback.h **** #else
 127:/mnt/c/Users/31740/Documents/codes/newcore-rp2350/include/linux/atomic/atomic-arch-fallback.h **** extern void raw_cmpxchg64_release_not_implemented(void);
 128:/mnt/c/Users/31740/Documents/codes/newcore-rp2350/include/linux/atomic/atomic-arch-fallback.h **** #define raw_cmpxchg64_release(...) raw_cmpxchg64_release_not_implemented()
 129:/mnt/c/Users/31740/Documents/codes/newcore-rp2350/include/linux/atomic/atomic-arch-fallback.h **** #endif
 130:/mnt/c/Users/31740/Documents/codes/newcore-rp2350/include/linux/atomic/atomic-arch-fallback.h **** 
 131:/mnt/c/Users/31740/Documents/codes/newcore-rp2350/include/linux/atomic/atomic-arch-fallback.h **** #if defined(arch_cmpxchg64_relaxed)
 132:/mnt/c/Users/31740/Documents/codes/newcore-rp2350/include/linux/atomic/atomic-arch-fallback.h **** #define raw_cmpxchg64_relaxed arch_cmpxchg64_relaxed
 133:/mnt/c/Users/31740/Documents/codes/newcore-rp2350/include/linux/atomic/atomic-arch-fallback.h **** #elif defined(arch_cmpxchg64)
 134:/mnt/c/Users/31740/Documents/codes/newcore-rp2350/include/linux/atomic/atomic-arch-fallback.h **** #define raw_cmpxchg64_relaxed arch_cmpxchg64
 135:/mnt/c/Users/31740/Documents/codes/newcore-rp2350/include/linux/atomic/atomic-arch-fallback.h **** #else
 136:/mnt/c/Users/31740/Documents/codes/newcore-rp2350/include/linux/atomic/atomic-arch-fallback.h **** extern void raw_cmpxchg64_relaxed_not_implemented(void);
 137:/mnt/c/Users/31740/Documents/codes/newcore-rp2350/include/linux/atomic/atomic-arch-fallback.h **** #define raw_cmpxchg64_relaxed(...) raw_cmpxchg64_relaxed_not_implemented()
 138:/mnt/c/Users/31740/Documents/codes/newcore-rp2350/include/linux/atomic/atomic-arch-fallback.h **** #endif
 139:/mnt/c/Users/31740/Documents/codes/newcore-rp2350/include/linux/atomic/atomic-arch-fallback.h **** 
 140:/mnt/c/Users/31740/Documents/codes/newcore-rp2350/include/linux/atomic/atomic-arch-fallback.h **** #if defined(arch_cmpxchg128)
 141:/mnt/c/Users/31740/Documents/codes/newcore-rp2350/include/linux/atomic/atomic-arch-fallback.h **** #define raw_cmpxchg128 arch_cmpxchg128
 142:/mnt/c/Users/31740/Documents/codes/newcore-rp2350/include/linux/atomic/atomic-arch-fallback.h **** #elif defined(arch_cmpxchg128_relaxed)
 143:/mnt/c/Users/31740/Documents/codes/newcore-rp2350/include/linux/atomic/atomic-arch-fallback.h **** #define raw_cmpxchg128(...) \
 144:/mnt/c/Users/31740/Documents/codes/newcore-rp2350/include/linux/atomic/atomic-arch-fallback.h **** 	__atomic_op_fence(arch_cmpxchg128, __VA_ARGS__)
 145:/mnt/c/Users/31740/Documents/codes/newcore-rp2350/include/linux/atomic/atomic-arch-fallback.h **** #else
 146:/mnt/c/Users/31740/Documents/codes/newcore-rp2350/include/linux/atomic/atomic-arch-fallback.h **** extern void raw_cmpxchg128_not_implemented(void);
 147:/mnt/c/Users/31740/Documents/codes/newcore-rp2350/include/linux/atomic/atomic-arch-fallback.h **** #define raw_cmpxchg128(...) raw_cmpxchg128_not_implemented()
 148:/mnt/c/Users/31740/Documents/codes/newcore-rp2350/include/linux/atomic/atomic-arch-fallback.h **** #endif
 149:/mnt/c/Users/31740/Documents/codes/newcore-rp2350/include/linux/atomic/atomic-arch-fallback.h **** 
 150:/mnt/c/Users/31740/Documents/codes/newcore-rp2350/include/linux/atomic/atomic-arch-fallback.h **** #if defined(arch_cmpxchg128_acquire)
 151:/mnt/c/Users/31740/Documents/codes/newcore-rp2350/include/linux/atomic/atomic-arch-fallback.h **** #define raw_cmpxchg128_acquire arch_cmpxchg128_acquire
 152:/mnt/c/Users/31740/Documents/codes/newcore-rp2350/include/linux/atomic/atomic-arch-fallback.h **** #elif defined(arch_cmpxchg128_relaxed)
 153:/mnt/c/Users/31740/Documents/codes/newcore-rp2350/include/linux/atomic/atomic-arch-fallback.h **** #define raw_cmpxchg128_acquire(...) \
 154:/mnt/c/Users/31740/Documents/codes/newcore-rp2350/include/linux/atomic/atomic-arch-fallback.h **** 	__atomic_op_acquire(arch_cmpxchg128, __VA_ARGS__)
 155:/mnt/c/Users/31740/Documents/codes/newcore-rp2350/include/linux/atomic/atomic-arch-fallback.h **** #elif defined(arch_cmpxchg128)
 156:/mnt/c/Users/31740/Documents/codes/newcore-rp2350/include/linux/atomic/atomic-arch-fallback.h **** #define raw_cmpxchg128_acquire arch_cmpxchg128
 157:/mnt/c/Users/31740/Documents/codes/newcore-rp2350/include/linux/atomic/atomic-arch-fallback.h **** #else
 158:/mnt/c/Users/31740/Documents/codes/newcore-rp2350/include/linux/atomic/atomic-arch-fallback.h **** extern void raw_cmpxchg128_acquire_not_implemented(void);
 159:/mnt/c/Users/31740/Documents/codes/newcore-rp2350/include/linux/atomic/atomic-arch-fallback.h **** #define raw_cmpxchg128_acquire(...) raw_cmpxchg128_acquire_not_implemented()
 160:/mnt/c/Users/31740/Documents/codes/newcore-rp2350/include/linux/atomic/atomic-arch-fallback.h **** #endif
 161:/mnt/c/Users/31740/Documents/codes/newcore-rp2350/include/linux/atomic/atomic-arch-fallback.h **** 
 162:/mnt/c/Users/31740/Documents/codes/newcore-rp2350/include/linux/atomic/atomic-arch-fallback.h **** #if defined(arch_cmpxchg128_release)
 163:/mnt/c/Users/31740/Documents/codes/newcore-rp2350/include/linux/atomic/atomic-arch-fallback.h **** #define raw_cmpxchg128_release arch_cmpxchg128_release
 164:/mnt/c/Users/31740/Documents/codes/newcore-rp2350/include/linux/atomic/atomic-arch-fallback.h **** #elif defined(arch_cmpxchg128_relaxed)
 165:/mnt/c/Users/31740/Documents/codes/newcore-rp2350/include/linux/atomic/atomic-arch-fallback.h **** #define raw_cmpxchg128_release(...) \
 166:/mnt/c/Users/31740/Documents/codes/newcore-rp2350/include/linux/atomic/atomic-arch-fallback.h **** 	__atomic_op_release(arch_cmpxchg128, __VA_ARGS__)
 167:/mnt/c/Users/31740/Documents/codes/newcore-rp2350/include/linux/atomic/atomic-arch-fallback.h **** #elif defined(arch_cmpxchg128)
 168:/mnt/c/Users/31740/Documents/codes/newcore-rp2350/include/linux/atomic/atomic-arch-fallback.h **** #define raw_cmpxchg128_release arch_cmpxchg128
 169:/mnt/c/Users/31740/Documents/codes/newcore-rp2350/include/linux/atomic/atomic-arch-fallback.h **** #else
 170:/mnt/c/Users/31740/Documents/codes/newcore-rp2350/include/linux/atomic/atomic-arch-fallback.h **** extern void raw_cmpxchg128_release_not_implemented(void);
 171:/mnt/c/Users/31740/Documents/codes/newcore-rp2350/include/linux/atomic/atomic-arch-fallback.h **** #define raw_cmpxchg128_release(...) raw_cmpxchg128_release_not_implemented()
 172:/mnt/c/Users/31740/Documents/codes/newcore-rp2350/include/linux/atomic/atomic-arch-fallback.h **** #endif
 173:/mnt/c/Users/31740/Documents/codes/newcore-rp2350/include/linux/atomic/atomic-arch-fallback.h **** 
 174:/mnt/c/Users/31740/Documents/codes/newcore-rp2350/include/linux/atomic/atomic-arch-fallback.h **** #if defined(arch_cmpxchg128_relaxed)
 175:/mnt/c/Users/31740/Documents/codes/newcore-rp2350/include/linux/atomic/atomic-arch-fallback.h **** #define raw_cmpxchg128_relaxed arch_cmpxchg128_relaxed
 176:/mnt/c/Users/31740/Documents/codes/newcore-rp2350/include/linux/atomic/atomic-arch-fallback.h **** #elif defined(arch_cmpxchg128)
 177:/mnt/c/Users/31740/Documents/codes/newcore-rp2350/include/linux/atomic/atomic-arch-fallback.h **** #define raw_cmpxchg128_relaxed arch_cmpxchg128
 178:/mnt/c/Users/31740/Documents/codes/newcore-rp2350/include/linux/atomic/atomic-arch-fallback.h **** #else
 179:/mnt/c/Users/31740/Documents/codes/newcore-rp2350/include/linux/atomic/atomic-arch-fallback.h **** extern void raw_cmpxchg128_relaxed_not_implemented(void);
ARM GAS  /tmp/ccDkYPHY.s 			page 32


 180:/mnt/c/Users/31740/Documents/codes/newcore-rp2350/include/linux/atomic/atomic-arch-fallback.h **** #define raw_cmpxchg128_relaxed(...) raw_cmpxchg128_relaxed_not_implemented()
 181:/mnt/c/Users/31740/Documents/codes/newcore-rp2350/include/linux/atomic/atomic-arch-fallback.h **** #endif
 182:/mnt/c/Users/31740/Documents/codes/newcore-rp2350/include/linux/atomic/atomic-arch-fallback.h **** 
 183:/mnt/c/Users/31740/Documents/codes/newcore-rp2350/include/linux/atomic/atomic-arch-fallback.h **** 
 184:/mnt/c/Users/31740/Documents/codes/newcore-rp2350/include/linux/atomic/atomic-arch-fallback.h **** 
 185:/mnt/c/Users/31740/Documents/codes/newcore-rp2350/include/linux/atomic/atomic-arch-fallback.h **** 
 186:/mnt/c/Users/31740/Documents/codes/newcore-rp2350/include/linux/atomic/atomic-arch-fallback.h **** 
 187:/mnt/c/Users/31740/Documents/codes/newcore-rp2350/include/linux/atomic/atomic-arch-fallback.h **** 
 188:/mnt/c/Users/31740/Documents/codes/newcore-rp2350/include/linux/atomic/atomic-arch-fallback.h **** 
 189:/mnt/c/Users/31740/Documents/codes/newcore-rp2350/include/linux/atomic/atomic-arch-fallback.h **** #if defined(arch_try_cmpxchg)
 190:/mnt/c/Users/31740/Documents/codes/newcore-rp2350/include/linux/atomic/atomic-arch-fallback.h **** #define raw_try_cmpxchg arch_try_cmpxchg
 191:/mnt/c/Users/31740/Documents/codes/newcore-rp2350/include/linux/atomic/atomic-arch-fallback.h **** #elif defined(arch_try_cmpxchg_relaxed)
 192:/mnt/c/Users/31740/Documents/codes/newcore-rp2350/include/linux/atomic/atomic-arch-fallback.h **** #define raw_try_cmpxchg(...) \
 193:/mnt/c/Users/31740/Documents/codes/newcore-rp2350/include/linux/atomic/atomic-arch-fallback.h **** 	__atomic_op_fence(arch_try_cmpxchg, __VA_ARGS__)
 194:/mnt/c/Users/31740/Documents/codes/newcore-rp2350/include/linux/atomic/atomic-arch-fallback.h **** #else
 195:/mnt/c/Users/31740/Documents/codes/newcore-rp2350/include/linux/atomic/atomic-arch-fallback.h **** #define raw_try_cmpxchg(_ptr, _oldp, _new) \
 196:/mnt/c/Users/31740/Documents/codes/newcore-rp2350/include/linux/atomic/atomic-arch-fallback.h **** ({ \
 197:/mnt/c/Users/31740/Documents/codes/newcore-rp2350/include/linux/atomic/atomic-arch-fallback.h **** 	typeof(*(_ptr)) *___op = (_oldp), ___o = *___op, ___r; \
 198:/mnt/c/Users/31740/Documents/codes/newcore-rp2350/include/linux/atomic/atomic-arch-fallback.h **** 	___r = raw_cmpxchg((_ptr), ___o, (_new)); \
 199:/mnt/c/Users/31740/Documents/codes/newcore-rp2350/include/linux/atomic/atomic-arch-fallback.h **** 	if (unlikely(___r != ___o)) \
 200:/mnt/c/Users/31740/Documents/codes/newcore-rp2350/include/linux/atomic/atomic-arch-fallback.h **** 		*___op = ___r; \
 201:/mnt/c/Users/31740/Documents/codes/newcore-rp2350/include/linux/atomic/atomic-arch-fallback.h **** 	likely(___r == ___o); \
 202:/mnt/c/Users/31740/Documents/codes/newcore-rp2350/include/linux/atomic/atomic-arch-fallback.h **** })
 203:/mnt/c/Users/31740/Documents/codes/newcore-rp2350/include/linux/atomic/atomic-arch-fallback.h **** #endif
 204:/mnt/c/Users/31740/Documents/codes/newcore-rp2350/include/linux/atomic/atomic-arch-fallback.h **** 
 205:/mnt/c/Users/31740/Documents/codes/newcore-rp2350/include/linux/atomic/atomic-arch-fallback.h **** #if defined(arch_try_cmpxchg_acquire)
 206:/mnt/c/Users/31740/Documents/codes/newcore-rp2350/include/linux/atomic/atomic-arch-fallback.h **** #define raw_try_cmpxchg_acquire arch_try_cmpxchg_acquire
 207:/mnt/c/Users/31740/Documents/codes/newcore-rp2350/include/linux/atomic/atomic-arch-fallback.h **** #elif defined(arch_try_cmpxchg_relaxed)
 208:/mnt/c/Users/31740/Documents/codes/newcore-rp2350/include/linux/atomic/atomic-arch-fallback.h **** #define raw_try_cmpxchg_acquire(...) \
 209:/mnt/c/Users/31740/Documents/codes/newcore-rp2350/include/linux/atomic/atomic-arch-fallback.h **** 	__atomic_op_acquire(arch_try_cmpxchg, __VA_ARGS__)
 210:/mnt/c/Users/31740/Documents/codes/newcore-rp2350/include/linux/atomic/atomic-arch-fallback.h **** #elif defined(arch_try_cmpxchg)
 211:/mnt/c/Users/31740/Documents/codes/newcore-rp2350/include/linux/atomic/atomic-arch-fallback.h **** #define raw_try_cmpxchg_acquire arch_try_cmpxchg
 212:/mnt/c/Users/31740/Documents/codes/newcore-rp2350/include/linux/atomic/atomic-arch-fallback.h **** #else
 213:/mnt/c/Users/31740/Documents/codes/newcore-rp2350/include/linux/atomic/atomic-arch-fallback.h **** #define raw_try_cmpxchg_acquire(_ptr, _oldp, _new) \
 214:/mnt/c/Users/31740/Documents/codes/newcore-rp2350/include/linux/atomic/atomic-arch-fallback.h **** ({ \
 215:/mnt/c/Users/31740/Documents/codes/newcore-rp2350/include/linux/atomic/atomic-arch-fallback.h **** 	typeof(*(_ptr)) *___op = (_oldp), ___o = *___op, ___r; \
 216:/mnt/c/Users/31740/Documents/codes/newcore-rp2350/include/linux/atomic/atomic-arch-fallback.h **** 	___r = raw_cmpxchg_acquire((_ptr), ___o, (_new)); \
 217:/mnt/c/Users/31740/Documents/codes/newcore-rp2350/include/linux/atomic/atomic-arch-fallback.h **** 	if (unlikely(___r != ___o)) \
 218:/mnt/c/Users/31740/Documents/codes/newcore-rp2350/include/linux/atomic/atomic-arch-fallback.h **** 		*___op = ___r; \
 219:/mnt/c/Users/31740/Documents/codes/newcore-rp2350/include/linux/atomic/atomic-arch-fallback.h **** 	likely(___r == ___o); \
 220:/mnt/c/Users/31740/Documents/codes/newcore-rp2350/include/linux/atomic/atomic-arch-fallback.h **** })
 221:/mnt/c/Users/31740/Documents/codes/newcore-rp2350/include/linux/atomic/atomic-arch-fallback.h **** #endif
 222:/mnt/c/Users/31740/Documents/codes/newcore-rp2350/include/linux/atomic/atomic-arch-fallback.h **** 
 223:/mnt/c/Users/31740/Documents/codes/newcore-rp2350/include/linux/atomic/atomic-arch-fallback.h **** #if defined(arch_try_cmpxchg_release)
 224:/mnt/c/Users/31740/Documents/codes/newcore-rp2350/include/linux/atomic/atomic-arch-fallback.h **** #define raw_try_cmpxchg_release arch_try_cmpxchg_release
 225:/mnt/c/Users/31740/Documents/codes/newcore-rp2350/include/linux/atomic/atomic-arch-fallback.h **** #elif defined(arch_try_cmpxchg_relaxed)
 226:/mnt/c/Users/31740/Documents/codes/newcore-rp2350/include/linux/atomic/atomic-arch-fallback.h **** #define raw_try_cmpxchg_release(...) \
 227:/mnt/c/Users/31740/Documents/codes/newcore-rp2350/include/linux/atomic/atomic-arch-fallback.h **** 	__atomic_op_release(arch_try_cmpxchg, __VA_ARGS__)
 228:/mnt/c/Users/31740/Documents/codes/newcore-rp2350/include/linux/atomic/atomic-arch-fallback.h **** #elif defined(arch_try_cmpxchg)
 229:/mnt/c/Users/31740/Documents/codes/newcore-rp2350/include/linux/atomic/atomic-arch-fallback.h **** #define raw_try_cmpxchg_release arch_try_cmpxchg
 230:/mnt/c/Users/31740/Documents/codes/newcore-rp2350/include/linux/atomic/atomic-arch-fallback.h **** #else
 231:/mnt/c/Users/31740/Documents/codes/newcore-rp2350/include/linux/atomic/atomic-arch-fallback.h **** #define raw_try_cmpxchg_release(_ptr, _oldp, _new) \
 232:/mnt/c/Users/31740/Documents/codes/newcore-rp2350/include/linux/atomic/atomic-arch-fallback.h **** ({ \
 233:/mnt/c/Users/31740/Documents/codes/newcore-rp2350/include/linux/atomic/atomic-arch-fallback.h **** 	typeof(*(_ptr)) *___op = (_oldp), ___o = *___op, ___r; \
 234:/mnt/c/Users/31740/Documents/codes/newcore-rp2350/include/linux/atomic/atomic-arch-fallback.h **** 	___r = raw_cmpxchg_release((_ptr), ___o, (_new)); \
 235:/mnt/c/Users/31740/Documents/codes/newcore-rp2350/include/linux/atomic/atomic-arch-fallback.h **** 	if (unlikely(___r != ___o)) \
 236:/mnt/c/Users/31740/Documents/codes/newcore-rp2350/include/linux/atomic/atomic-arch-fallback.h **** 		*___op = ___r; \
ARM GAS  /tmp/ccDkYPHY.s 			page 33


 237:/mnt/c/Users/31740/Documents/codes/newcore-rp2350/include/linux/atomic/atomic-arch-fallback.h **** 	likely(___r == ___o); \
 238:/mnt/c/Users/31740/Documents/codes/newcore-rp2350/include/linux/atomic/atomic-arch-fallback.h **** })
 239:/mnt/c/Users/31740/Documents/codes/newcore-rp2350/include/linux/atomic/atomic-arch-fallback.h **** #endif
 240:/mnt/c/Users/31740/Documents/codes/newcore-rp2350/include/linux/atomic/atomic-arch-fallback.h **** 
 241:/mnt/c/Users/31740/Documents/codes/newcore-rp2350/include/linux/atomic/atomic-arch-fallback.h **** #if defined(arch_try_cmpxchg_relaxed)
 242:/mnt/c/Users/31740/Documents/codes/newcore-rp2350/include/linux/atomic/atomic-arch-fallback.h **** #define raw_try_cmpxchg_relaxed arch_try_cmpxchg_relaxed
 243:/mnt/c/Users/31740/Documents/codes/newcore-rp2350/include/linux/atomic/atomic-arch-fallback.h **** #elif defined(arch_try_cmpxchg)
 244:/mnt/c/Users/31740/Documents/codes/newcore-rp2350/include/linux/atomic/atomic-arch-fallback.h **** #define raw_try_cmpxchg_relaxed arch_try_cmpxchg
 245:/mnt/c/Users/31740/Documents/codes/newcore-rp2350/include/linux/atomic/atomic-arch-fallback.h **** #else
 246:/mnt/c/Users/31740/Documents/codes/newcore-rp2350/include/linux/atomic/atomic-arch-fallback.h **** #define raw_try_cmpxchg_relaxed(_ptr, _oldp, _new) \
 247:/mnt/c/Users/31740/Documents/codes/newcore-rp2350/include/linux/atomic/atomic-arch-fallback.h **** ({ \
 248:/mnt/c/Users/31740/Documents/codes/newcore-rp2350/include/linux/atomic/atomic-arch-fallback.h **** 	typeof(*(_ptr)) *___op = (_oldp), ___o = *___op, ___r; \
 249:/mnt/c/Users/31740/Documents/codes/newcore-rp2350/include/linux/atomic/atomic-arch-fallback.h **** 	___r = raw_cmpxchg_relaxed((_ptr), ___o, (_new)); \
 250:/mnt/c/Users/31740/Documents/codes/newcore-rp2350/include/linux/atomic/atomic-arch-fallback.h **** 	if (unlikely(___r != ___o)) \
 251:/mnt/c/Users/31740/Documents/codes/newcore-rp2350/include/linux/atomic/atomic-arch-fallback.h **** 		*___op = ___r; \
 252:/mnt/c/Users/31740/Documents/codes/newcore-rp2350/include/linux/atomic/atomic-arch-fallback.h **** 	likely(___r == ___o); \
 253:/mnt/c/Users/31740/Documents/codes/newcore-rp2350/include/linux/atomic/atomic-arch-fallback.h **** })
 254:/mnt/c/Users/31740/Documents/codes/newcore-rp2350/include/linux/atomic/atomic-arch-fallback.h **** #endif
 255:/mnt/c/Users/31740/Documents/codes/newcore-rp2350/include/linux/atomic/atomic-arch-fallback.h **** 
 256:/mnt/c/Users/31740/Documents/codes/newcore-rp2350/include/linux/atomic/atomic-arch-fallback.h **** #if defined(arch_try_cmpxchg64)
 257:/mnt/c/Users/31740/Documents/codes/newcore-rp2350/include/linux/atomic/atomic-arch-fallback.h **** #define raw_try_cmpxchg64 arch_try_cmpxchg64
 258:/mnt/c/Users/31740/Documents/codes/newcore-rp2350/include/linux/atomic/atomic-arch-fallback.h **** #elif defined(arch_try_cmpxchg64_relaxed)
 259:/mnt/c/Users/31740/Documents/codes/newcore-rp2350/include/linux/atomic/atomic-arch-fallback.h **** #define raw_try_cmpxchg64(...) \
 260:/mnt/c/Users/31740/Documents/codes/newcore-rp2350/include/linux/atomic/atomic-arch-fallback.h **** 	__atomic_op_fence(arch_try_cmpxchg64, __VA_ARGS__)
 261:/mnt/c/Users/31740/Documents/codes/newcore-rp2350/include/linux/atomic/atomic-arch-fallback.h **** #else
 262:/mnt/c/Users/31740/Documents/codes/newcore-rp2350/include/linux/atomic/atomic-arch-fallback.h **** #define raw_try_cmpxchg64(_ptr, _oldp, _new) \
 263:/mnt/c/Users/31740/Documents/codes/newcore-rp2350/include/linux/atomic/atomic-arch-fallback.h **** ({ \
 264:/mnt/c/Users/31740/Documents/codes/newcore-rp2350/include/linux/atomic/atomic-arch-fallback.h **** 	typeof(*(_ptr)) *___op = (_oldp), ___o = *___op, ___r; \
 265:/mnt/c/Users/31740/Documents/codes/newcore-rp2350/include/linux/atomic/atomic-arch-fallback.h **** 	___r = raw_cmpxchg64((_ptr), ___o, (_new)); \
 266:/mnt/c/Users/31740/Documents/codes/newcore-rp2350/include/linux/atomic/atomic-arch-fallback.h **** 	if (unlikely(___r != ___o)) \
 267:/mnt/c/Users/31740/Documents/codes/newcore-rp2350/include/linux/atomic/atomic-arch-fallback.h **** 		*___op = ___r; \
 268:/mnt/c/Users/31740/Documents/codes/newcore-rp2350/include/linux/atomic/atomic-arch-fallback.h **** 	likely(___r == ___o); \
 269:/mnt/c/Users/31740/Documents/codes/newcore-rp2350/include/linux/atomic/atomic-arch-fallback.h **** })
 270:/mnt/c/Users/31740/Documents/codes/newcore-rp2350/include/linux/atomic/atomic-arch-fallback.h **** #endif
 271:/mnt/c/Users/31740/Documents/codes/newcore-rp2350/include/linux/atomic/atomic-arch-fallback.h **** 
 272:/mnt/c/Users/31740/Documents/codes/newcore-rp2350/include/linux/atomic/atomic-arch-fallback.h **** #if defined(arch_try_cmpxchg64_acquire)
 273:/mnt/c/Users/31740/Documents/codes/newcore-rp2350/include/linux/atomic/atomic-arch-fallback.h **** #define raw_try_cmpxchg64_acquire arch_try_cmpxchg64_acquire
 274:/mnt/c/Users/31740/Documents/codes/newcore-rp2350/include/linux/atomic/atomic-arch-fallback.h **** #elif defined(arch_try_cmpxchg64_relaxed)
 275:/mnt/c/Users/31740/Documents/codes/newcore-rp2350/include/linux/atomic/atomic-arch-fallback.h **** #define raw_try_cmpxchg64_acquire(...) \
 276:/mnt/c/Users/31740/Documents/codes/newcore-rp2350/include/linux/atomic/atomic-arch-fallback.h **** 	__atomic_op_acquire(arch_try_cmpxchg64, __VA_ARGS__)
 277:/mnt/c/Users/31740/Documents/codes/newcore-rp2350/include/linux/atomic/atomic-arch-fallback.h **** #elif defined(arch_try_cmpxchg64)
 278:/mnt/c/Users/31740/Documents/codes/newcore-rp2350/include/linux/atomic/atomic-arch-fallback.h **** #define raw_try_cmpxchg64_acquire arch_try_cmpxchg64
 279:/mnt/c/Users/31740/Documents/codes/newcore-rp2350/include/linux/atomic/atomic-arch-fallback.h **** #else
 280:/mnt/c/Users/31740/Documents/codes/newcore-rp2350/include/linux/atomic/atomic-arch-fallback.h **** #define raw_try_cmpxchg64_acquire(_ptr, _oldp, _new) \
 281:/mnt/c/Users/31740/Documents/codes/newcore-rp2350/include/linux/atomic/atomic-arch-fallback.h **** ({ \
 282:/mnt/c/Users/31740/Documents/codes/newcore-rp2350/include/linux/atomic/atomic-arch-fallback.h **** 	typeof(*(_ptr)) *___op = (_oldp), ___o = *___op, ___r; \
 283:/mnt/c/Users/31740/Documents/codes/newcore-rp2350/include/linux/atomic/atomic-arch-fallback.h **** 	___r = raw_cmpxchg64_acquire((_ptr), ___o, (_new)); \
 284:/mnt/c/Users/31740/Documents/codes/newcore-rp2350/include/linux/atomic/atomic-arch-fallback.h **** 	if (unlikely(___r != ___o)) \
 285:/mnt/c/Users/31740/Documents/codes/newcore-rp2350/include/linux/atomic/atomic-arch-fallback.h **** 		*___op = ___r; \
 286:/mnt/c/Users/31740/Documents/codes/newcore-rp2350/include/linux/atomic/atomic-arch-fallback.h **** 	likely(___r == ___o); \
 287:/mnt/c/Users/31740/Documents/codes/newcore-rp2350/include/linux/atomic/atomic-arch-fallback.h **** })
 288:/mnt/c/Users/31740/Documents/codes/newcore-rp2350/include/linux/atomic/atomic-arch-fallback.h **** #endif
 289:/mnt/c/Users/31740/Documents/codes/newcore-rp2350/include/linux/atomic/atomic-arch-fallback.h **** 
 290:/mnt/c/Users/31740/Documents/codes/newcore-rp2350/include/linux/atomic/atomic-arch-fallback.h **** #if defined(arch_try_cmpxchg64_release)
 291:/mnt/c/Users/31740/Documents/codes/newcore-rp2350/include/linux/atomic/atomic-arch-fallback.h **** #define raw_try_cmpxchg64_release arch_try_cmpxchg64_release
 292:/mnt/c/Users/31740/Documents/codes/newcore-rp2350/include/linux/atomic/atomic-arch-fallback.h **** #elif defined(arch_try_cmpxchg64_relaxed)
 293:/mnt/c/Users/31740/Documents/codes/newcore-rp2350/include/linux/atomic/atomic-arch-fallback.h **** #define raw_try_cmpxchg64_release(...) \
ARM GAS  /tmp/ccDkYPHY.s 			page 34


 294:/mnt/c/Users/31740/Documents/codes/newcore-rp2350/include/linux/atomic/atomic-arch-fallback.h **** 	__atomic_op_release(arch_try_cmpxchg64, __VA_ARGS__)
 295:/mnt/c/Users/31740/Documents/codes/newcore-rp2350/include/linux/atomic/atomic-arch-fallback.h **** #elif defined(arch_try_cmpxchg64)
 296:/mnt/c/Users/31740/Documents/codes/newcore-rp2350/include/linux/atomic/atomic-arch-fallback.h **** #define raw_try_cmpxchg64_release arch_try_cmpxchg64
 297:/mnt/c/Users/31740/Documents/codes/newcore-rp2350/include/linux/atomic/atomic-arch-fallback.h **** #else
 298:/mnt/c/Users/31740/Documents/codes/newcore-rp2350/include/linux/atomic/atomic-arch-fallback.h **** #define raw_try_cmpxchg64_release(_ptr, _oldp, _new) \
 299:/mnt/c/Users/31740/Documents/codes/newcore-rp2350/include/linux/atomic/atomic-arch-fallback.h **** ({ \
 300:/mnt/c/Users/31740/Documents/codes/newcore-rp2350/include/linux/atomic/atomic-arch-fallback.h **** 	typeof(*(_ptr)) *___op = (_oldp), ___o = *___op, ___r; \
 301:/mnt/c/Users/31740/Documents/codes/newcore-rp2350/include/linux/atomic/atomic-arch-fallback.h **** 	___r = raw_cmpxchg64_release((_ptr), ___o, (_new)); \
 302:/mnt/c/Users/31740/Documents/codes/newcore-rp2350/include/linux/atomic/atomic-arch-fallback.h **** 	if (unlikely(___r != ___o)) \
 303:/mnt/c/Users/31740/Documents/codes/newcore-rp2350/include/linux/atomic/atomic-arch-fallback.h **** 		*___op = ___r; \
 304:/mnt/c/Users/31740/Documents/codes/newcore-rp2350/include/linux/atomic/atomic-arch-fallback.h **** 	likely(___r == ___o); \
 305:/mnt/c/Users/31740/Documents/codes/newcore-rp2350/include/linux/atomic/atomic-arch-fallback.h **** })
 306:/mnt/c/Users/31740/Documents/codes/newcore-rp2350/include/linux/atomic/atomic-arch-fallback.h **** #endif
 307:/mnt/c/Users/31740/Documents/codes/newcore-rp2350/include/linux/atomic/atomic-arch-fallback.h **** 
 308:/mnt/c/Users/31740/Documents/codes/newcore-rp2350/include/linux/atomic/atomic-arch-fallback.h **** #if defined(arch_try_cmpxchg64_relaxed)
 309:/mnt/c/Users/31740/Documents/codes/newcore-rp2350/include/linux/atomic/atomic-arch-fallback.h **** #define raw_try_cmpxchg64_relaxed arch_try_cmpxchg64_relaxed
 310:/mnt/c/Users/31740/Documents/codes/newcore-rp2350/include/linux/atomic/atomic-arch-fallback.h **** #elif defined(arch_try_cmpxchg64)
 311:/mnt/c/Users/31740/Documents/codes/newcore-rp2350/include/linux/atomic/atomic-arch-fallback.h **** #define raw_try_cmpxchg64_relaxed arch_try_cmpxchg64
 312:/mnt/c/Users/31740/Documents/codes/newcore-rp2350/include/linux/atomic/atomic-arch-fallback.h **** #else
 313:/mnt/c/Users/31740/Documents/codes/newcore-rp2350/include/linux/atomic/atomic-arch-fallback.h **** #define raw_try_cmpxchg64_relaxed(_ptr, _oldp, _new) \
 314:/mnt/c/Users/31740/Documents/codes/newcore-rp2350/include/linux/atomic/atomic-arch-fallback.h **** ({ \
 315:/mnt/c/Users/31740/Documents/codes/newcore-rp2350/include/linux/atomic/atomic-arch-fallback.h **** 	typeof(*(_ptr)) *___op = (_oldp), ___o = *___op, ___r; \
 316:/mnt/c/Users/31740/Documents/codes/newcore-rp2350/include/linux/atomic/atomic-arch-fallback.h **** 	___r = raw_cmpxchg64_relaxed((_ptr), ___o, (_new)); \
 317:/mnt/c/Users/31740/Documents/codes/newcore-rp2350/include/linux/atomic/atomic-arch-fallback.h **** 	if (unlikely(___r != ___o)) \
 318:/mnt/c/Users/31740/Documents/codes/newcore-rp2350/include/linux/atomic/atomic-arch-fallback.h **** 		*___op = ___r; \
 319:/mnt/c/Users/31740/Documents/codes/newcore-rp2350/include/linux/atomic/atomic-arch-fallback.h **** 	likely(___r == ___o); \
 320:/mnt/c/Users/31740/Documents/codes/newcore-rp2350/include/linux/atomic/atomic-arch-fallback.h **** })
 321:/mnt/c/Users/31740/Documents/codes/newcore-rp2350/include/linux/atomic/atomic-arch-fallback.h **** #endif
 322:/mnt/c/Users/31740/Documents/codes/newcore-rp2350/include/linux/atomic/atomic-arch-fallback.h **** 
 323:/mnt/c/Users/31740/Documents/codes/newcore-rp2350/include/linux/atomic/atomic-arch-fallback.h **** #if defined(arch_try_cmpxchg128)
 324:/mnt/c/Users/31740/Documents/codes/newcore-rp2350/include/linux/atomic/atomic-arch-fallback.h **** #define raw_try_cmpxchg128 arch_try_cmpxchg128
 325:/mnt/c/Users/31740/Documents/codes/newcore-rp2350/include/linux/atomic/atomic-arch-fallback.h **** #elif defined(arch_try_cmpxchg128_relaxed)
 326:/mnt/c/Users/31740/Documents/codes/newcore-rp2350/include/linux/atomic/atomic-arch-fallback.h **** #define raw_try_cmpxchg128(...) \
 327:/mnt/c/Users/31740/Documents/codes/newcore-rp2350/include/linux/atomic/atomic-arch-fallback.h **** 	__atomic_op_fence(arch_try_cmpxchg128, __VA_ARGS__)
 328:/mnt/c/Users/31740/Documents/codes/newcore-rp2350/include/linux/atomic/atomic-arch-fallback.h **** #else
 329:/mnt/c/Users/31740/Documents/codes/newcore-rp2350/include/linux/atomic/atomic-arch-fallback.h **** #define raw_try_cmpxchg128(_ptr, _oldp, _new) \
 330:/mnt/c/Users/31740/Documents/codes/newcore-rp2350/include/linux/atomic/atomic-arch-fallback.h **** ({ \
 331:/mnt/c/Users/31740/Documents/codes/newcore-rp2350/include/linux/atomic/atomic-arch-fallback.h **** 	typeof(*(_ptr)) *___op = (_oldp), ___o = *___op, ___r; \
 332:/mnt/c/Users/31740/Documents/codes/newcore-rp2350/include/linux/atomic/atomic-arch-fallback.h **** 	___r = raw_cmpxchg128((_ptr), ___o, (_new)); \
 333:/mnt/c/Users/31740/Documents/codes/newcore-rp2350/include/linux/atomic/atomic-arch-fallback.h **** 	if (unlikely(___r != ___o)) \
 334:/mnt/c/Users/31740/Documents/codes/newcore-rp2350/include/linux/atomic/atomic-arch-fallback.h **** 		*___op = ___r; \
 335:/mnt/c/Users/31740/Documents/codes/newcore-rp2350/include/linux/atomic/atomic-arch-fallback.h **** 	likely(___r == ___o); \
 336:/mnt/c/Users/31740/Documents/codes/newcore-rp2350/include/linux/atomic/atomic-arch-fallback.h **** })
 337:/mnt/c/Users/31740/Documents/codes/newcore-rp2350/include/linux/atomic/atomic-arch-fallback.h **** #endif
 338:/mnt/c/Users/31740/Documents/codes/newcore-rp2350/include/linux/atomic/atomic-arch-fallback.h **** 
 339:/mnt/c/Users/31740/Documents/codes/newcore-rp2350/include/linux/atomic/atomic-arch-fallback.h **** #if defined(arch_try_cmpxchg128_acquire)
 340:/mnt/c/Users/31740/Documents/codes/newcore-rp2350/include/linux/atomic/atomic-arch-fallback.h **** #define raw_try_cmpxchg128_acquire arch_try_cmpxchg128_acquire
 341:/mnt/c/Users/31740/Documents/codes/newcore-rp2350/include/linux/atomic/atomic-arch-fallback.h **** #elif defined(arch_try_cmpxchg128_relaxed)
 342:/mnt/c/Users/31740/Documents/codes/newcore-rp2350/include/linux/atomic/atomic-arch-fallback.h **** #define raw_try_cmpxchg128_acquire(...) \
 343:/mnt/c/Users/31740/Documents/codes/newcore-rp2350/include/linux/atomic/atomic-arch-fallback.h **** 	__atomic_op_acquire(arch_try_cmpxchg128, __VA_ARGS__)
 344:/mnt/c/Users/31740/Documents/codes/newcore-rp2350/include/linux/atomic/atomic-arch-fallback.h **** #elif defined(arch_try_cmpxchg128)
 345:/mnt/c/Users/31740/Documents/codes/newcore-rp2350/include/linux/atomic/atomic-arch-fallback.h **** #define raw_try_cmpxchg128_acquire arch_try_cmpxchg128
 346:/mnt/c/Users/31740/Documents/codes/newcore-rp2350/include/linux/atomic/atomic-arch-fallback.h **** #else
 347:/mnt/c/Users/31740/Documents/codes/newcore-rp2350/include/linux/atomic/atomic-arch-fallback.h **** #define raw_try_cmpxchg128_acquire(_ptr, _oldp, _new) \
 348:/mnt/c/Users/31740/Documents/codes/newcore-rp2350/include/linux/atomic/atomic-arch-fallback.h **** ({ \
 349:/mnt/c/Users/31740/Documents/codes/newcore-rp2350/include/linux/atomic/atomic-arch-fallback.h **** 	typeof(*(_ptr)) *___op = (_oldp), ___o = *___op, ___r; \
 350:/mnt/c/Users/31740/Documents/codes/newcore-rp2350/include/linux/atomic/atomic-arch-fallback.h **** 	___r = raw_cmpxchg128_acquire((_ptr), ___o, (_new)); \
ARM GAS  /tmp/ccDkYPHY.s 			page 35


 351:/mnt/c/Users/31740/Documents/codes/newcore-rp2350/include/linux/atomic/atomic-arch-fallback.h **** 	if (unlikely(___r != ___o)) \
 352:/mnt/c/Users/31740/Documents/codes/newcore-rp2350/include/linux/atomic/atomic-arch-fallback.h **** 		*___op = ___r; \
 353:/mnt/c/Users/31740/Documents/codes/newcore-rp2350/include/linux/atomic/atomic-arch-fallback.h **** 	likely(___r == ___o); \
 354:/mnt/c/Users/31740/Documents/codes/newcore-rp2350/include/linux/atomic/atomic-arch-fallback.h **** })
 355:/mnt/c/Users/31740/Documents/codes/newcore-rp2350/include/linux/atomic/atomic-arch-fallback.h **** #endif
 356:/mnt/c/Users/31740/Documents/codes/newcore-rp2350/include/linux/atomic/atomic-arch-fallback.h **** 
 357:/mnt/c/Users/31740/Documents/codes/newcore-rp2350/include/linux/atomic/atomic-arch-fallback.h **** #if defined(arch_try_cmpxchg128_release)
 358:/mnt/c/Users/31740/Documents/codes/newcore-rp2350/include/linux/atomic/atomic-arch-fallback.h **** #define raw_try_cmpxchg128_release arch_try_cmpxchg128_release
 359:/mnt/c/Users/31740/Documents/codes/newcore-rp2350/include/linux/atomic/atomic-arch-fallback.h **** #elif defined(arch_try_cmpxchg128_relaxed)
 360:/mnt/c/Users/31740/Documents/codes/newcore-rp2350/include/linux/atomic/atomic-arch-fallback.h **** #define raw_try_cmpxchg128_release(...) \
 361:/mnt/c/Users/31740/Documents/codes/newcore-rp2350/include/linux/atomic/atomic-arch-fallback.h **** 	__atomic_op_release(arch_try_cmpxchg128, __VA_ARGS__)
 362:/mnt/c/Users/31740/Documents/codes/newcore-rp2350/include/linux/atomic/atomic-arch-fallback.h **** #elif defined(arch_try_cmpxchg128)
 363:/mnt/c/Users/31740/Documents/codes/newcore-rp2350/include/linux/atomic/atomic-arch-fallback.h **** #define raw_try_cmpxchg128_release arch_try_cmpxchg128
 364:/mnt/c/Users/31740/Documents/codes/newcore-rp2350/include/linux/atomic/atomic-arch-fallback.h **** #else
 365:/mnt/c/Users/31740/Documents/codes/newcore-rp2350/include/linux/atomic/atomic-arch-fallback.h **** #define raw_try_cmpxchg128_release(_ptr, _oldp, _new) \
 366:/mnt/c/Users/31740/Documents/codes/newcore-rp2350/include/linux/atomic/atomic-arch-fallback.h **** ({ \
 367:/mnt/c/Users/31740/Documents/codes/newcore-rp2350/include/linux/atomic/atomic-arch-fallback.h **** 	typeof(*(_ptr)) *___op = (_oldp), ___o = *___op, ___r; \
 368:/mnt/c/Users/31740/Documents/codes/newcore-rp2350/include/linux/atomic/atomic-arch-fallback.h **** 	___r = raw_cmpxchg128_release((_ptr), ___o, (_new)); \
 369:/mnt/c/Users/31740/Documents/codes/newcore-rp2350/include/linux/atomic/atomic-arch-fallback.h **** 	if (unlikely(___r != ___o)) \
 370:/mnt/c/Users/31740/Documents/codes/newcore-rp2350/include/linux/atomic/atomic-arch-fallback.h **** 		*___op = ___r; \
 371:/mnt/c/Users/31740/Documents/codes/newcore-rp2350/include/linux/atomic/atomic-arch-fallback.h **** 	likely(___r == ___o); \
 372:/mnt/c/Users/31740/Documents/codes/newcore-rp2350/include/linux/atomic/atomic-arch-fallback.h **** })
 373:/mnt/c/Users/31740/Documents/codes/newcore-rp2350/include/linux/atomic/atomic-arch-fallback.h **** #endif
 374:/mnt/c/Users/31740/Documents/codes/newcore-rp2350/include/linux/atomic/atomic-arch-fallback.h **** 
 375:/mnt/c/Users/31740/Documents/codes/newcore-rp2350/include/linux/atomic/atomic-arch-fallback.h **** #if defined(arch_try_cmpxchg128_relaxed)
 376:/mnt/c/Users/31740/Documents/codes/newcore-rp2350/include/linux/atomic/atomic-arch-fallback.h **** #define raw_try_cmpxchg128_relaxed arch_try_cmpxchg128_relaxed
 377:/mnt/c/Users/31740/Documents/codes/newcore-rp2350/include/linux/atomic/atomic-arch-fallback.h **** #elif defined(arch_try_cmpxchg128)
 378:/mnt/c/Users/31740/Documents/codes/newcore-rp2350/include/linux/atomic/atomic-arch-fallback.h **** #define raw_try_cmpxchg128_relaxed arch_try_cmpxchg128
 379:/mnt/c/Users/31740/Documents/codes/newcore-rp2350/include/linux/atomic/atomic-arch-fallback.h **** #else
 380:/mnt/c/Users/31740/Documents/codes/newcore-rp2350/include/linux/atomic/atomic-arch-fallback.h **** #define raw_try_cmpxchg128_relaxed(_ptr, _oldp, _new) \
 381:/mnt/c/Users/31740/Documents/codes/newcore-rp2350/include/linux/atomic/atomic-arch-fallback.h **** ({ \
 382:/mnt/c/Users/31740/Documents/codes/newcore-rp2350/include/linux/atomic/atomic-arch-fallback.h **** 	typeof(*(_ptr)) *___op = (_oldp), ___o = *___op, ___r; \
 383:/mnt/c/Users/31740/Documents/codes/newcore-rp2350/include/linux/atomic/atomic-arch-fallback.h **** 	___r = raw_cmpxchg128_relaxed((_ptr), ___o, (_new)); \
 384:/mnt/c/Users/31740/Documents/codes/newcore-rp2350/include/linux/atomic/atomic-arch-fallback.h **** 	if (unlikely(___r != ___o)) \
 385:/mnt/c/Users/31740/Documents/codes/newcore-rp2350/include/linux/atomic/atomic-arch-fallback.h **** 		*___op = ___r; \
 386:/mnt/c/Users/31740/Documents/codes/newcore-rp2350/include/linux/atomic/atomic-arch-fallback.h **** 	likely(___r == ___o); \
 387:/mnt/c/Users/31740/Documents/codes/newcore-rp2350/include/linux/atomic/atomic-arch-fallback.h **** })
 388:/mnt/c/Users/31740/Documents/codes/newcore-rp2350/include/linux/atomic/atomic-arch-fallback.h **** #endif
 389:/mnt/c/Users/31740/Documents/codes/newcore-rp2350/include/linux/atomic/atomic-arch-fallback.h **** 
 390:/mnt/c/Users/31740/Documents/codes/newcore-rp2350/include/linux/atomic/atomic-arch-fallback.h **** #define raw_cmpxchg_local arch_cmpxchg_local
 391:/mnt/c/Users/31740/Documents/codes/newcore-rp2350/include/linux/atomic/atomic-arch-fallback.h **** 
 392:/mnt/c/Users/31740/Documents/codes/newcore-rp2350/include/linux/atomic/atomic-arch-fallback.h **** #ifdef arch_try_cmpxchg_local
 393:/mnt/c/Users/31740/Documents/codes/newcore-rp2350/include/linux/atomic/atomic-arch-fallback.h **** #define raw_try_cmpxchg_local arch_try_cmpxchg_local
 394:/mnt/c/Users/31740/Documents/codes/newcore-rp2350/include/linux/atomic/atomic-arch-fallback.h **** #else
 395:/mnt/c/Users/31740/Documents/codes/newcore-rp2350/include/linux/atomic/atomic-arch-fallback.h **** #define raw_try_cmpxchg_local(_ptr, _oldp, _new) \
 396:/mnt/c/Users/31740/Documents/codes/newcore-rp2350/include/linux/atomic/atomic-arch-fallback.h **** ({ \
 397:/mnt/c/Users/31740/Documents/codes/newcore-rp2350/include/linux/atomic/atomic-arch-fallback.h **** 	typeof(*(_ptr)) *___op = (_oldp), ___o = *___op, ___r; \
 398:/mnt/c/Users/31740/Documents/codes/newcore-rp2350/include/linux/atomic/atomic-arch-fallback.h **** 	___r = raw_cmpxchg_local((_ptr), ___o, (_new)); \
 399:/mnt/c/Users/31740/Documents/codes/newcore-rp2350/include/linux/atomic/atomic-arch-fallback.h **** 	if (unlikely(___r != ___o)) \
 400:/mnt/c/Users/31740/Documents/codes/newcore-rp2350/include/linux/atomic/atomic-arch-fallback.h **** 		*___op = ___r; \
 401:/mnt/c/Users/31740/Documents/codes/newcore-rp2350/include/linux/atomic/atomic-arch-fallback.h **** 	likely(___r == ___o); \
 402:/mnt/c/Users/31740/Documents/codes/newcore-rp2350/include/linux/atomic/atomic-arch-fallback.h **** })
 403:/mnt/c/Users/31740/Documents/codes/newcore-rp2350/include/linux/atomic/atomic-arch-fallback.h **** #endif
 404:/mnt/c/Users/31740/Documents/codes/newcore-rp2350/include/linux/atomic/atomic-arch-fallback.h **** 
 405:/mnt/c/Users/31740/Documents/codes/newcore-rp2350/include/linux/atomic/atomic-arch-fallback.h **** #define raw_cmpxchg64_local arch_cmpxchg64_local
 406:/mnt/c/Users/31740/Documents/codes/newcore-rp2350/include/linux/atomic/atomic-arch-fallback.h **** 
 407:/mnt/c/Users/31740/Documents/codes/newcore-rp2350/include/linux/atomic/atomic-arch-fallback.h **** #ifdef arch_try_cmpxchg64_local
ARM GAS  /tmp/ccDkYPHY.s 			page 36


 408:/mnt/c/Users/31740/Documents/codes/newcore-rp2350/include/linux/atomic/atomic-arch-fallback.h **** #define raw_try_cmpxchg64_local arch_try_cmpxchg64_local
 409:/mnt/c/Users/31740/Documents/codes/newcore-rp2350/include/linux/atomic/atomic-arch-fallback.h **** #else
 410:/mnt/c/Users/31740/Documents/codes/newcore-rp2350/include/linux/atomic/atomic-arch-fallback.h **** #define raw_try_cmpxchg64_local(_ptr, _oldp, _new) \
 411:/mnt/c/Users/31740/Documents/codes/newcore-rp2350/include/linux/atomic/atomic-arch-fallback.h **** ({ \
 412:/mnt/c/Users/31740/Documents/codes/newcore-rp2350/include/linux/atomic/atomic-arch-fallback.h **** 	typeof(*(_ptr)) *___op = (_oldp), ___o = *___op, ___r; \
 413:/mnt/c/Users/31740/Documents/codes/newcore-rp2350/include/linux/atomic/atomic-arch-fallback.h **** 	___r = raw_cmpxchg64_local((_ptr), ___o, (_new)); \
 414:/mnt/c/Users/31740/Documents/codes/newcore-rp2350/include/linux/atomic/atomic-arch-fallback.h **** 	if (unlikely(___r != ___o)) \
 415:/mnt/c/Users/31740/Documents/codes/newcore-rp2350/include/linux/atomic/atomic-arch-fallback.h **** 		*___op = ___r; \
 416:/mnt/c/Users/31740/Documents/codes/newcore-rp2350/include/linux/atomic/atomic-arch-fallback.h **** 	likely(___r == ___o); \
 417:/mnt/c/Users/31740/Documents/codes/newcore-rp2350/include/linux/atomic/atomic-arch-fallback.h **** })
 418:/mnt/c/Users/31740/Documents/codes/newcore-rp2350/include/linux/atomic/atomic-arch-fallback.h **** #endif
 419:/mnt/c/Users/31740/Documents/codes/newcore-rp2350/include/linux/atomic/atomic-arch-fallback.h **** 
 420:/mnt/c/Users/31740/Documents/codes/newcore-rp2350/include/linux/atomic/atomic-arch-fallback.h **** #define raw_cmpxchg128_local arch_cmpxchg128_local
 421:/mnt/c/Users/31740/Documents/codes/newcore-rp2350/include/linux/atomic/atomic-arch-fallback.h **** 
 422:/mnt/c/Users/31740/Documents/codes/newcore-rp2350/include/linux/atomic/atomic-arch-fallback.h **** #ifdef arch_try_cmpxchg128_local
 423:/mnt/c/Users/31740/Documents/codes/newcore-rp2350/include/linux/atomic/atomic-arch-fallback.h **** #define raw_try_cmpxchg128_local arch_try_cmpxchg128_local
 424:/mnt/c/Users/31740/Documents/codes/newcore-rp2350/include/linux/atomic/atomic-arch-fallback.h **** #else
 425:/mnt/c/Users/31740/Documents/codes/newcore-rp2350/include/linux/atomic/atomic-arch-fallback.h **** #define raw_try_cmpxchg128_local(_ptr, _oldp, _new) \
 426:/mnt/c/Users/31740/Documents/codes/newcore-rp2350/include/linux/atomic/atomic-arch-fallback.h **** ({ \
 427:/mnt/c/Users/31740/Documents/codes/newcore-rp2350/include/linux/atomic/atomic-arch-fallback.h **** 	typeof(*(_ptr)) *___op = (_oldp), ___o = *___op, ___r; \
 428:/mnt/c/Users/31740/Documents/codes/newcore-rp2350/include/linux/atomic/atomic-arch-fallback.h **** 	___r = raw_cmpxchg128_local((_ptr), ___o, (_new)); \
 429:/mnt/c/Users/31740/Documents/codes/newcore-rp2350/include/linux/atomic/atomic-arch-fallback.h **** 	if (unlikely(___r != ___o)) \
 430:/mnt/c/Users/31740/Documents/codes/newcore-rp2350/include/linux/atomic/atomic-arch-fallback.h **** 		*___op = ___r; \
 431:/mnt/c/Users/31740/Documents/codes/newcore-rp2350/include/linux/atomic/atomic-arch-fallback.h **** 	likely(___r == ___o); \
 432:/mnt/c/Users/31740/Documents/codes/newcore-rp2350/include/linux/atomic/atomic-arch-fallback.h **** })
 433:/mnt/c/Users/31740/Documents/codes/newcore-rp2350/include/linux/atomic/atomic-arch-fallback.h **** #endif
 434:/mnt/c/Users/31740/Documents/codes/newcore-rp2350/include/linux/atomic/atomic-arch-fallback.h **** 
 435:/mnt/c/Users/31740/Documents/codes/newcore-rp2350/include/linux/atomic/atomic-arch-fallback.h **** #define raw_sync_cmpxchg arch_sync_cmpxchg
 436:/mnt/c/Users/31740/Documents/codes/newcore-rp2350/include/linux/atomic/atomic-arch-fallback.h **** 
 437:/mnt/c/Users/31740/Documents/codes/newcore-rp2350/include/linux/atomic/atomic-arch-fallback.h **** #ifdef arch_sync_try_cmpxchg
 438:/mnt/c/Users/31740/Documents/codes/newcore-rp2350/include/linux/atomic/atomic-arch-fallback.h **** #define raw_sync_try_cmpxchg arch_sync_try_cmpxchg
 439:/mnt/c/Users/31740/Documents/codes/newcore-rp2350/include/linux/atomic/atomic-arch-fallback.h **** #else
 440:/mnt/c/Users/31740/Documents/codes/newcore-rp2350/include/linux/atomic/atomic-arch-fallback.h **** #define raw_sync_try_cmpxchg(_ptr, _oldp, _new) \
 441:/mnt/c/Users/31740/Documents/codes/newcore-rp2350/include/linux/atomic/atomic-arch-fallback.h **** ({ \
 442:/mnt/c/Users/31740/Documents/codes/newcore-rp2350/include/linux/atomic/atomic-arch-fallback.h **** 	typeof(*(_ptr)) *___op = (_oldp), ___o = *___op, ___r; \
 443:/mnt/c/Users/31740/Documents/codes/newcore-rp2350/include/linux/atomic/atomic-arch-fallback.h **** 	___r = raw_sync_cmpxchg((_ptr), ___o, (_new)); \
 444:/mnt/c/Users/31740/Documents/codes/newcore-rp2350/include/linux/atomic/atomic-arch-fallback.h **** 	if (unlikely(___r != ___o)) \
 445:/mnt/c/Users/31740/Documents/codes/newcore-rp2350/include/linux/atomic/atomic-arch-fallback.h **** 		*___op = ___r; \
 446:/mnt/c/Users/31740/Documents/codes/newcore-rp2350/include/linux/atomic/atomic-arch-fallback.h **** 	likely(___r == ___o); \
 447:/mnt/c/Users/31740/Documents/codes/newcore-rp2350/include/linux/atomic/atomic-arch-fallback.h **** })
 448:/mnt/c/Users/31740/Documents/codes/newcore-rp2350/include/linux/atomic/atomic-arch-fallback.h **** #endif
 449:/mnt/c/Users/31740/Documents/codes/newcore-rp2350/include/linux/atomic/atomic-arch-fallback.h **** 
 450:/mnt/c/Users/31740/Documents/codes/newcore-rp2350/include/linux/atomic/atomic-arch-fallback.h **** /**
 451:/mnt/c/Users/31740/Documents/codes/newcore-rp2350/include/linux/atomic/atomic-arch-fallback.h ****  * raw_atomic_read() - atomic load with relaxed ordering
 452:/mnt/c/Users/31740/Documents/codes/newcore-rp2350/include/linux/atomic/atomic-arch-fallback.h ****  * @v: pointer to atomic_t
 453:/mnt/c/Users/31740/Documents/codes/newcore-rp2350/include/linux/atomic/atomic-arch-fallback.h ****  *
 454:/mnt/c/Users/31740/Documents/codes/newcore-rp2350/include/linux/atomic/atomic-arch-fallback.h ****  * Atomically loads the value of @v with relaxed ordering.
 455:/mnt/c/Users/31740/Documents/codes/newcore-rp2350/include/linux/atomic/atomic-arch-fallback.h ****  *
 456:/mnt/c/Users/31740/Documents/codes/newcore-rp2350/include/linux/atomic/atomic-arch-fallback.h ****  * Safe to use in noinstr code; prefer atomic_read() elsewhere.
 457:/mnt/c/Users/31740/Documents/codes/newcore-rp2350/include/linux/atomic/atomic-arch-fallback.h ****  *
 458:/mnt/c/Users/31740/Documents/codes/newcore-rp2350/include/linux/atomic/atomic-arch-fallback.h ****  * Return: The value loaded from @v.
 459:/mnt/c/Users/31740/Documents/codes/newcore-rp2350/include/linux/atomic/atomic-arch-fallback.h ****  */
 460:/mnt/c/Users/31740/Documents/codes/newcore-rp2350/include/linux/atomic/atomic-arch-fallback.h **** static __always_inline int
 461:/mnt/c/Users/31740/Documents/codes/newcore-rp2350/include/linux/atomic/atomic-arch-fallback.h **** raw_atomic_read(const atomic_t *v)
 462:/mnt/c/Users/31740/Documents/codes/newcore-rp2350/include/linux/atomic/atomic-arch-fallback.h **** {
 463:/mnt/c/Users/31740/Documents/codes/newcore-rp2350/include/linux/atomic/atomic-arch-fallback.h **** 	return arch_atomic_read(v);
 464:/mnt/c/Users/31740/Documents/codes/newcore-rp2350/include/linux/atomic/atomic-arch-fallback.h **** }
ARM GAS  /tmp/ccDkYPHY.s 			page 37


 465:/mnt/c/Users/31740/Documents/codes/newcore-rp2350/include/linux/atomic/atomic-arch-fallback.h **** 
 466:/mnt/c/Users/31740/Documents/codes/newcore-rp2350/include/linux/atomic/atomic-arch-fallback.h **** /**
 467:/mnt/c/Users/31740/Documents/codes/newcore-rp2350/include/linux/atomic/atomic-arch-fallback.h ****  * raw_atomic_read_acquire() - atomic load with acquire ordering
 468:/mnt/c/Users/31740/Documents/codes/newcore-rp2350/include/linux/atomic/atomic-arch-fallback.h ****  * @v: pointer to atomic_t
 469:/mnt/c/Users/31740/Documents/codes/newcore-rp2350/include/linux/atomic/atomic-arch-fallback.h ****  *
 470:/mnt/c/Users/31740/Documents/codes/newcore-rp2350/include/linux/atomic/atomic-arch-fallback.h ****  * Atomically loads the value of @v with acquire ordering.
 471:/mnt/c/Users/31740/Documents/codes/newcore-rp2350/include/linux/atomic/atomic-arch-fallback.h ****  *
 472:/mnt/c/Users/31740/Documents/codes/newcore-rp2350/include/linux/atomic/atomic-arch-fallback.h ****  * Safe to use in noinstr code; prefer atomic_read_acquire() elsewhere.
 473:/mnt/c/Users/31740/Documents/codes/newcore-rp2350/include/linux/atomic/atomic-arch-fallback.h ****  *
 474:/mnt/c/Users/31740/Documents/codes/newcore-rp2350/include/linux/atomic/atomic-arch-fallback.h ****  * Return: The value loaded from @v.
 475:/mnt/c/Users/31740/Documents/codes/newcore-rp2350/include/linux/atomic/atomic-arch-fallback.h ****  */
 476:/mnt/c/Users/31740/Documents/codes/newcore-rp2350/include/linux/atomic/atomic-arch-fallback.h **** static __always_inline int
 477:/mnt/c/Users/31740/Documents/codes/newcore-rp2350/include/linux/atomic/atomic-arch-fallback.h **** raw_atomic_read_acquire(const atomic_t *v)
 478:/mnt/c/Users/31740/Documents/codes/newcore-rp2350/include/linux/atomic/atomic-arch-fallback.h **** {
 479:/mnt/c/Users/31740/Documents/codes/newcore-rp2350/include/linux/atomic/atomic-arch-fallback.h **** #if defined(arch_atomic_read_acquire)
 480:/mnt/c/Users/31740/Documents/codes/newcore-rp2350/include/linux/atomic/atomic-arch-fallback.h **** 	return arch_atomic_read_acquire(v);
 481:/mnt/c/Users/31740/Documents/codes/newcore-rp2350/include/linux/atomic/atomic-arch-fallback.h **** #else
 482:/mnt/c/Users/31740/Documents/codes/newcore-rp2350/include/linux/atomic/atomic-arch-fallback.h **** 	int ret;
 483:/mnt/c/Users/31740/Documents/codes/newcore-rp2350/include/linux/atomic/atomic-arch-fallback.h **** 
 484:/mnt/c/Users/31740/Documents/codes/newcore-rp2350/include/linux/atomic/atomic-arch-fallback.h **** 	if (__native_word(atomic_t)) {
 485:/mnt/c/Users/31740/Documents/codes/newcore-rp2350/include/linux/atomic/atomic-arch-fallback.h **** 		ret = smp_load_acquire(&(v)->counter);
 486:/mnt/c/Users/31740/Documents/codes/newcore-rp2350/include/linux/atomic/atomic-arch-fallback.h **** 	} else {
 487:/mnt/c/Users/31740/Documents/codes/newcore-rp2350/include/linux/atomic/atomic-arch-fallback.h **** 		ret = raw_atomic_read(v);
 488:/mnt/c/Users/31740/Documents/codes/newcore-rp2350/include/linux/atomic/atomic-arch-fallback.h **** 		__atomic_acquire_fence();
 489:/mnt/c/Users/31740/Documents/codes/newcore-rp2350/include/linux/atomic/atomic-arch-fallback.h **** 	}
 490:/mnt/c/Users/31740/Documents/codes/newcore-rp2350/include/linux/atomic/atomic-arch-fallback.h **** 
 491:/mnt/c/Users/31740/Documents/codes/newcore-rp2350/include/linux/atomic/atomic-arch-fallback.h **** 	return ret;
 492:/mnt/c/Users/31740/Documents/codes/newcore-rp2350/include/linux/atomic/atomic-arch-fallback.h **** #endif
 493:/mnt/c/Users/31740/Documents/codes/newcore-rp2350/include/linux/atomic/atomic-arch-fallback.h **** }
 494:/mnt/c/Users/31740/Documents/codes/newcore-rp2350/include/linux/atomic/atomic-arch-fallback.h **** 
 495:/mnt/c/Users/31740/Documents/codes/newcore-rp2350/include/linux/atomic/atomic-arch-fallback.h **** /**
 496:/mnt/c/Users/31740/Documents/codes/newcore-rp2350/include/linux/atomic/atomic-arch-fallback.h ****  * raw_atomic_set() - atomic set with relaxed ordering
 497:/mnt/c/Users/31740/Documents/codes/newcore-rp2350/include/linux/atomic/atomic-arch-fallback.h ****  * @v: pointer to atomic_t
 498:/mnt/c/Users/31740/Documents/codes/newcore-rp2350/include/linux/atomic/atomic-arch-fallback.h ****  * @i: int value to assign
 499:/mnt/c/Users/31740/Documents/codes/newcore-rp2350/include/linux/atomic/atomic-arch-fallback.h ****  *
 500:/mnt/c/Users/31740/Documents/codes/newcore-rp2350/include/linux/atomic/atomic-arch-fallback.h ****  * Atomically sets @v to @i with relaxed ordering.
 501:/mnt/c/Users/31740/Documents/codes/newcore-rp2350/include/linux/atomic/atomic-arch-fallback.h ****  *
 502:/mnt/c/Users/31740/Documents/codes/newcore-rp2350/include/linux/atomic/atomic-arch-fallback.h ****  * Safe to use in noinstr code; prefer atomic_set() elsewhere.
 503:/mnt/c/Users/31740/Documents/codes/newcore-rp2350/include/linux/atomic/atomic-arch-fallback.h ****  *
 504:/mnt/c/Users/31740/Documents/codes/newcore-rp2350/include/linux/atomic/atomic-arch-fallback.h ****  * Return: Nothing.
 505:/mnt/c/Users/31740/Documents/codes/newcore-rp2350/include/linux/atomic/atomic-arch-fallback.h ****  */
 506:/mnt/c/Users/31740/Documents/codes/newcore-rp2350/include/linux/atomic/atomic-arch-fallback.h **** static __always_inline void
 507:/mnt/c/Users/31740/Documents/codes/newcore-rp2350/include/linux/atomic/atomic-arch-fallback.h **** raw_atomic_set(atomic_t *v, int i)
 478              		.loc 5 507 1 view .LVU115
 479              	.LBB235:
 508:/mnt/c/Users/31740/Documents/codes/newcore-rp2350/include/linux/atomic/atomic-arch-fallback.h **** {
 509:/mnt/c/Users/31740/Documents/codes/newcore-rp2350/include/linux/atomic/atomic-arch-fallback.h **** 	arch_atomic_set(v, i);
 480              		.loc 5 509 2 view .LVU116
 481              		.loc 5 509 2 view .LVU117
 482              	.LBB236:
 483              		.loc 5 509 2 view .LVU118
 484              		.loc 5 509 2 view .LVU119
 485              	.LBE236:
 486              		.loc 5 509 2 discriminator 2 view .LVU120
 487              		.loc 5 509 2 discriminator 2 view .LVU121
 488              		.loc 5 509 2 discriminator 2 view .LVU122
 489 0028 0027     		movs	r7, #0
ARM GAS  /tmp/ccDkYPHY.s 			page 38


 490              	.LVL36:
 491              		.loc 5 509 2 is_stmt 0 discriminator 2 view .LVU123
 492 002a C760     		str	r7, [r0, #12]
 493              		.loc 5 509 2 is_stmt 1 discriminator 2 view .LVU124
 494              		.loc 5 509 2 discriminator 2 view .LVU125
 495              	.LVL37:
 496              		.loc 5 509 2 is_stmt 0 discriminator 2 view .LVU126
 497              	.LBE235:
 498              	.LBE234:
 499              	.LBE233:
 125:/mnt/c/Users/31740/Documents/codes/newcore-rp2350/fs/pipefs/pipefs.c ****     INIT_LIST_HEAD(&pipe_inode->list_node);
 500              		.loc 1 125 5 is_stmt 1 view .LVU127
 501 002c 2430     		adds	r0, r0, #36
 502              	.LVL38:
 125:/mnt/c/Users/31740/Documents/codes/newcore-rp2350/fs/pipefs/pipefs.c ****     INIT_LIST_HEAD(&pipe_inode->list_node);
 503              		.loc 1 125 5 is_stmt 0 view .LVU128
 504 002e FFF7FEFF 		bl	spin_lock_init
 505              	.LVL39:
 126:/mnt/c/Users/31740/Documents/codes/newcore-rp2350/fs/pipefs/pipefs.c ****     INIT_LIST_HEAD(&pipe_inode->dentry_list_head);
 506              		.loc 1 126 5 is_stmt 1 view .LVU129
 507 0032 04F11406 		add	r6, r4, #20
 508              	.LVL40:
 509              	.LBB237:
 510              	.LBI237:
 511              		.file 6 "/mnt/c/Users/31740/Documents/codes/newcore-rp2350/include/linux/list.h"
   1:/mnt/c/Users/31740/Documents/codes/newcore-rp2350/include/linux/list.h **** /* SPDX-License-Identifier: GPL-2.0 */
   2:/mnt/c/Users/31740/Documents/codes/newcore-rp2350/include/linux/list.h **** #ifndef _LINUX_LIST_H
   3:/mnt/c/Users/31740/Documents/codes/newcore-rp2350/include/linux/list.h **** #define _LINUX_LIST_H
   4:/mnt/c/Users/31740/Documents/codes/newcore-rp2350/include/linux/list.h **** 
   5:/mnt/c/Users/31740/Documents/codes/newcore-rp2350/include/linux/list.h **** #include <linux/container_of.h>
   6:/mnt/c/Users/31740/Documents/codes/newcore-rp2350/include/linux/list.h **** #include <linux/types.h>
   7:/mnt/c/Users/31740/Documents/codes/newcore-rp2350/include/linux/list.h **** #include <linux/stddef.h>
   8:/mnt/c/Users/31740/Documents/codes/newcore-rp2350/include/linux/list.h **** #include <linux/poison.h>
   9:/mnt/c/Users/31740/Documents/codes/newcore-rp2350/include/linux/list.h **** #include <linux/const.h>
  10:/mnt/c/Users/31740/Documents/codes/newcore-rp2350/include/linux/list.h **** 
  11:/mnt/c/Users/31740/Documents/codes/newcore-rp2350/include/linux/list.h **** #include <asm/barrier.h>
  12:/mnt/c/Users/31740/Documents/codes/newcore-rp2350/include/linux/list.h **** #include <linux/rwonce.h>
  13:/mnt/c/Users/31740/Documents/codes/newcore-rp2350/include/linux/list.h **** /*
  14:/mnt/c/Users/31740/Documents/codes/newcore-rp2350/include/linux/list.h ****  * Circular doubly linked list implementation.
  15:/mnt/c/Users/31740/Documents/codes/newcore-rp2350/include/linux/list.h ****  *
  16:/mnt/c/Users/31740/Documents/codes/newcore-rp2350/include/linux/list.h ****  * Some of the internal functions ("__xxx") are useful when
  17:/mnt/c/Users/31740/Documents/codes/newcore-rp2350/include/linux/list.h ****  * manipulating whole lists rather than single entries, as
  18:/mnt/c/Users/31740/Documents/codes/newcore-rp2350/include/linux/list.h ****  * sometimes we already know the next/prev entries and we can
  19:/mnt/c/Users/31740/Documents/codes/newcore-rp2350/include/linux/list.h ****  * generate better code by using them directly rather than
  20:/mnt/c/Users/31740/Documents/codes/newcore-rp2350/include/linux/list.h ****  * using the generic single-entry routines.
  21:/mnt/c/Users/31740/Documents/codes/newcore-rp2350/include/linux/list.h ****  */
  22:/mnt/c/Users/31740/Documents/codes/newcore-rp2350/include/linux/list.h **** 
  23:/mnt/c/Users/31740/Documents/codes/newcore-rp2350/include/linux/list.h **** #define LIST_HEAD_INIT(name) { &(name), &(name) }
  24:/mnt/c/Users/31740/Documents/codes/newcore-rp2350/include/linux/list.h **** 
  25:/mnt/c/Users/31740/Documents/codes/newcore-rp2350/include/linux/list.h **** #define LIST_HEAD(name) \
  26:/mnt/c/Users/31740/Documents/codes/newcore-rp2350/include/linux/list.h **** 	struct list_head name = LIST_HEAD_INIT(name)
  27:/mnt/c/Users/31740/Documents/codes/newcore-rp2350/include/linux/list.h **** 
  28:/mnt/c/Users/31740/Documents/codes/newcore-rp2350/include/linux/list.h **** /**
  29:/mnt/c/Users/31740/Documents/codes/newcore-rp2350/include/linux/list.h ****  * INIT_LIST_HEAD - Initialize a list_head structure
  30:/mnt/c/Users/31740/Documents/codes/newcore-rp2350/include/linux/list.h ****  * @list: list_head structure to be initialized.
  31:/mnt/c/Users/31740/Documents/codes/newcore-rp2350/include/linux/list.h ****  *
  32:/mnt/c/Users/31740/Documents/codes/newcore-rp2350/include/linux/list.h ****  * Initializes the list_head to point to itself.  If it is a list header,
ARM GAS  /tmp/ccDkYPHY.s 			page 39


  33:/mnt/c/Users/31740/Documents/codes/newcore-rp2350/include/linux/list.h ****  * the result is an empty list.
  34:/mnt/c/Users/31740/Documents/codes/newcore-rp2350/include/linux/list.h ****  */
  35:/mnt/c/Users/31740/Documents/codes/newcore-rp2350/include/linux/list.h **** static inline void INIT_LIST_HEAD(struct list_head *list)
 512              		.loc 6 35 20 view .LVU130
 513              	.LBB238:
  36:/mnt/c/Users/31740/Documents/codes/newcore-rp2350/include/linux/list.h **** {
  37:/mnt/c/Users/31740/Documents/codes/newcore-rp2350/include/linux/list.h **** 	WRITE_ONCE(list->next, list);
 514              		.loc 6 37 2 view .LVU131
 515              		.loc 6 37 2 view .LVU132
 516              	.LBB239:
 517              		.loc 6 37 2 view .LVU133
 518              		.loc 6 37 2 view .LVU134
 519              	.LBE239:
 520              		.loc 6 37 2 discriminator 2 view .LVU135
 521              		.loc 6 37 2 discriminator 2 view .LVU136
 522              		.loc 6 37 2 discriminator 2 view .LVU137
 523 0036 6661     		str	r6, [r4, #20]
 524              		.loc 6 37 2 discriminator 2 view .LVU138
 525              		.loc 6 37 2 discriminator 2 view .LVU139
  38:/mnt/c/Users/31740/Documents/codes/newcore-rp2350/include/linux/list.h **** 	WRITE_ONCE(list->prev, list);
 526              		.loc 6 38 2 view .LVU140
 527              		.loc 6 38 2 view .LVU141
 528              	.LBB240:
 529              		.loc 6 38 2 view .LVU142
 530              		.loc 6 38 2 view .LVU143
 531              	.LBE240:
 532              		.loc 6 38 2 discriminator 2 view .LVU144
 533              		.loc 6 38 2 discriminator 2 view .LVU145
 534              		.loc 6 38 2 discriminator 2 view .LVU146
 535 0038 A661     		str	r6, [r4, #24]
 536              		.loc 6 38 2 discriminator 2 view .LVU147
 537              		.loc 6 38 2 discriminator 2 view .LVU148
 538              	.LVL41:
 539              		.loc 6 38 2 is_stmt 0 discriminator 2 view .LVU149
 540              	.LBE238:
 541              	.LBE237:
 127:/mnt/c/Users/31740/Documents/codes/newcore-rp2350/fs/pipefs/pipefs.c ****     
 542              		.loc 1 127 5 is_stmt 1 view .LVU150
 543 003a 04F11C03 		add	r3, r4, #28
 544              	.LVL42:
 545              	.LBB241:
 546              	.LBI241:
  35:/mnt/c/Users/31740/Documents/codes/newcore-rp2350/include/linux/list.h **** {
 547              		.loc 6 35 20 view .LVU151
 548              	.LBB242:
  37:/mnt/c/Users/31740/Documents/codes/newcore-rp2350/include/linux/list.h **** 	WRITE_ONCE(list->prev, list);
 549              		.loc 6 37 2 view .LVU152
  37:/mnt/c/Users/31740/Documents/codes/newcore-rp2350/include/linux/list.h **** 	WRITE_ONCE(list->prev, list);
 550              		.loc 6 37 2 view .LVU153
 551              	.LBB243:
  37:/mnt/c/Users/31740/Documents/codes/newcore-rp2350/include/linux/list.h **** 	WRITE_ONCE(list->prev, list);
 552              		.loc 6 37 2 view .LVU154
  37:/mnt/c/Users/31740/Documents/codes/newcore-rp2350/include/linux/list.h **** 	WRITE_ONCE(list->prev, list);
 553              		.loc 6 37 2 view .LVU155
 554              	.LBE243:
  37:/mnt/c/Users/31740/Documents/codes/newcore-rp2350/include/linux/list.h **** 	WRITE_ONCE(list->prev, list);
 555              		.loc 6 37 2 discriminator 2 view .LVU156
ARM GAS  /tmp/ccDkYPHY.s 			page 40


  37:/mnt/c/Users/31740/Documents/codes/newcore-rp2350/include/linux/list.h **** 	WRITE_ONCE(list->prev, list);
 556              		.loc 6 37 2 discriminator 2 view .LVU157
  37:/mnt/c/Users/31740/Documents/codes/newcore-rp2350/include/linux/list.h **** 	WRITE_ONCE(list->prev, list);
 557              		.loc 6 37 2 discriminator 2 view .LVU158
 558 003e E361     		str	r3, [r4, #28]
  37:/mnt/c/Users/31740/Documents/codes/newcore-rp2350/include/linux/list.h **** 	WRITE_ONCE(list->prev, list);
 559              		.loc 6 37 2 discriminator 2 view .LVU159
  37:/mnt/c/Users/31740/Documents/codes/newcore-rp2350/include/linux/list.h **** 	WRITE_ONCE(list->prev, list);
 560              		.loc 6 37 2 discriminator 2 view .LVU160
 561              		.loc 6 38 2 view .LVU161
 562              		.loc 6 38 2 view .LVU162
 563              	.LBB244:
 564              		.loc 6 38 2 view .LVU163
 565              		.loc 6 38 2 view .LVU164
 566              	.LBE244:
 567              		.loc 6 38 2 discriminator 2 view .LVU165
 568              		.loc 6 38 2 discriminator 2 view .LVU166
 569              		.loc 6 38 2 discriminator 2 view .LVU167
 570 0040 2362     		str	r3, [r4, #32]
 571              		.loc 6 38 2 discriminator 2 view .LVU168
 572              		.loc 6 38 2 discriminator 2 view .LVU169
 573              	.LVL43:
 574              		.loc 6 38 2 is_stmt 0 discriminator 2 view .LVU170
 575              	.LBE242:
 576              	.LBE241:
 129:/mnt/c/Users/31740/Documents/codes/newcore-rp2350/fs/pipefs/pipefs.c **** 
 577              		.loc 1 129 5 is_stmt 1 view .LVU171
 129:/mnt/c/Users/31740/Documents/codes/newcore-rp2350/fs/pipefs/pipefs.c **** 
 578              		.loc 1 129 21 is_stmt 0 view .LVU172
 579 0042 A763     		str	r7, [r4, #56]
 131:/mnt/c/Users/31740/Documents/codes/newcore-rp2350/fs/pipefs/pipefs.c ****     list_add(&pipe_inode->list_node,&sb->inode_list_head);
 580              		.loc 1 131 5 is_stmt 1 view .LVU173
 581 0044 2F1D     		adds	r7, r5, #4
 582 0046 3846     		mov	r0, r7
 583 0048 FFF7FEFF 		bl	spin_lock
 584              	.LVL44:
 132:/mnt/c/Users/31740/Documents/codes/newcore-rp2350/fs/pipefs/pipefs.c ****     spin_unlock(&sb->lock);
 585              		.loc 1 132 5 view .LVU174
 586 004c 05F11802 		add	r2, r5, #24
 587              	.LVL45:
 588              	.LBB245:
 589              	.LBI245:
  39:/mnt/c/Users/31740/Documents/codes/newcore-rp2350/include/linux/list.h **** }
  40:/mnt/c/Users/31740/Documents/codes/newcore-rp2350/include/linux/list.h **** 
  41:/mnt/c/Users/31740/Documents/codes/newcore-rp2350/include/linux/list.h **** #ifdef CONFIG_LIST_HARDENED
  42:/mnt/c/Users/31740/Documents/codes/newcore-rp2350/include/linux/list.h **** 
  43:/mnt/c/Users/31740/Documents/codes/newcore-rp2350/include/linux/list.h **** #ifdef CONFIG_DEBUG_LIST
  44:/mnt/c/Users/31740/Documents/codes/newcore-rp2350/include/linux/list.h **** # define __list_valid_slowpath
  45:/mnt/c/Users/31740/Documents/codes/newcore-rp2350/include/linux/list.h **** #else
  46:/mnt/c/Users/31740/Documents/codes/newcore-rp2350/include/linux/list.h **** # define __list_valid_slowpath __cold __preserve_most
  47:/mnt/c/Users/31740/Documents/codes/newcore-rp2350/include/linux/list.h **** #endif
  48:/mnt/c/Users/31740/Documents/codes/newcore-rp2350/include/linux/list.h **** 
  49:/mnt/c/Users/31740/Documents/codes/newcore-rp2350/include/linux/list.h **** /*
  50:/mnt/c/Users/31740/Documents/codes/newcore-rp2350/include/linux/list.h ****  * Performs the full set of list corruption checks before __list_add().
  51:/mnt/c/Users/31740/Documents/codes/newcore-rp2350/include/linux/list.h ****  * On list corruption reports a warning, and returns false.
  52:/mnt/c/Users/31740/Documents/codes/newcore-rp2350/include/linux/list.h ****  */
  53:/mnt/c/Users/31740/Documents/codes/newcore-rp2350/include/linux/list.h **** extern bool __list_valid_slowpath __list_add_valid_or_report(struct list_head *new,
ARM GAS  /tmp/ccDkYPHY.s 			page 41


  54:/mnt/c/Users/31740/Documents/codes/newcore-rp2350/include/linux/list.h **** 							     struct list_head *prev,
  55:/mnt/c/Users/31740/Documents/codes/newcore-rp2350/include/linux/list.h **** 							     struct list_head *next);
  56:/mnt/c/Users/31740/Documents/codes/newcore-rp2350/include/linux/list.h **** 
  57:/mnt/c/Users/31740/Documents/codes/newcore-rp2350/include/linux/list.h **** /*
  58:/mnt/c/Users/31740/Documents/codes/newcore-rp2350/include/linux/list.h ****  * Performs list corruption checks before __list_add(). Returns false if a
  59:/mnt/c/Users/31740/Documents/codes/newcore-rp2350/include/linux/list.h ****  * corruption is detected, true otherwise.
  60:/mnt/c/Users/31740/Documents/codes/newcore-rp2350/include/linux/list.h ****  *
  61:/mnt/c/Users/31740/Documents/codes/newcore-rp2350/include/linux/list.h ****  * With CONFIG_LIST_HARDENED only, performs minimal list integrity checking
  62:/mnt/c/Users/31740/Documents/codes/newcore-rp2350/include/linux/list.h ****  * inline to catch non-faulting corruptions, and only if a corruption is
  63:/mnt/c/Users/31740/Documents/codes/newcore-rp2350/include/linux/list.h ****  * detected calls the reporting function __list_add_valid_or_report().
  64:/mnt/c/Users/31740/Documents/codes/newcore-rp2350/include/linux/list.h ****  */
  65:/mnt/c/Users/31740/Documents/codes/newcore-rp2350/include/linux/list.h **** static __always_inline bool __list_add_valid(struct list_head *new,
  66:/mnt/c/Users/31740/Documents/codes/newcore-rp2350/include/linux/list.h **** 					     struct list_head *prev,
  67:/mnt/c/Users/31740/Documents/codes/newcore-rp2350/include/linux/list.h **** 					     struct list_head *next)
  68:/mnt/c/Users/31740/Documents/codes/newcore-rp2350/include/linux/list.h **** {
  69:/mnt/c/Users/31740/Documents/codes/newcore-rp2350/include/linux/list.h **** 	bool ret = true;
  70:/mnt/c/Users/31740/Documents/codes/newcore-rp2350/include/linux/list.h **** 
  71:/mnt/c/Users/31740/Documents/codes/newcore-rp2350/include/linux/list.h **** 	if (!IS_ENABLED(CONFIG_DEBUG_LIST)) {
  72:/mnt/c/Users/31740/Documents/codes/newcore-rp2350/include/linux/list.h **** 		/*
  73:/mnt/c/Users/31740/Documents/codes/newcore-rp2350/include/linux/list.h **** 		 * With the hardening version, elide checking if next and prev
  74:/mnt/c/Users/31740/Documents/codes/newcore-rp2350/include/linux/list.h **** 		 * are NULL, since the immediate dereference of them below would
  75:/mnt/c/Users/31740/Documents/codes/newcore-rp2350/include/linux/list.h **** 		 * result in a fault if NULL.
  76:/mnt/c/Users/31740/Documents/codes/newcore-rp2350/include/linux/list.h **** 		 *
  77:/mnt/c/Users/31740/Documents/codes/newcore-rp2350/include/linux/list.h **** 		 * With the reduced set of checks, we can afford to inline the
  78:/mnt/c/Users/31740/Documents/codes/newcore-rp2350/include/linux/list.h **** 		 * checks, which also gives the compiler a chance to elide some
  79:/mnt/c/Users/31740/Documents/codes/newcore-rp2350/include/linux/list.h **** 		 * of them completely if they can be proven at compile-time. If
  80:/mnt/c/Users/31740/Documents/codes/newcore-rp2350/include/linux/list.h **** 		 * one of the pre-conditions does not hold, the slow-path will
  81:/mnt/c/Users/31740/Documents/codes/newcore-rp2350/include/linux/list.h **** 		 * show a report which pre-condition failed.
  82:/mnt/c/Users/31740/Documents/codes/newcore-rp2350/include/linux/list.h **** 		 */
  83:/mnt/c/Users/31740/Documents/codes/newcore-rp2350/include/linux/list.h **** 		if (likely(next->prev == prev && prev->next == next && new != prev && new != next))
  84:/mnt/c/Users/31740/Documents/codes/newcore-rp2350/include/linux/list.h **** 			return true;
  85:/mnt/c/Users/31740/Documents/codes/newcore-rp2350/include/linux/list.h **** 		ret = false;
  86:/mnt/c/Users/31740/Documents/codes/newcore-rp2350/include/linux/list.h **** 	}
  87:/mnt/c/Users/31740/Documents/codes/newcore-rp2350/include/linux/list.h **** 
  88:/mnt/c/Users/31740/Documents/codes/newcore-rp2350/include/linux/list.h **** 	ret &= __list_add_valid_or_report(new, prev, next);
  89:/mnt/c/Users/31740/Documents/codes/newcore-rp2350/include/linux/list.h **** 	return ret;
  90:/mnt/c/Users/31740/Documents/codes/newcore-rp2350/include/linux/list.h **** }
  91:/mnt/c/Users/31740/Documents/codes/newcore-rp2350/include/linux/list.h **** 
  92:/mnt/c/Users/31740/Documents/codes/newcore-rp2350/include/linux/list.h **** /*
  93:/mnt/c/Users/31740/Documents/codes/newcore-rp2350/include/linux/list.h ****  * Performs the full set of list corruption checks before __list_del_entry().
  94:/mnt/c/Users/31740/Documents/codes/newcore-rp2350/include/linux/list.h ****  * On list corruption reports a warning, and returns false.
  95:/mnt/c/Users/31740/Documents/codes/newcore-rp2350/include/linux/list.h ****  */
  96:/mnt/c/Users/31740/Documents/codes/newcore-rp2350/include/linux/list.h **** extern bool __list_valid_slowpath __list_del_entry_valid_or_report(struct list_head *entry);
  97:/mnt/c/Users/31740/Documents/codes/newcore-rp2350/include/linux/list.h **** 
  98:/mnt/c/Users/31740/Documents/codes/newcore-rp2350/include/linux/list.h **** /*
  99:/mnt/c/Users/31740/Documents/codes/newcore-rp2350/include/linux/list.h ****  * Performs list corruption checks before __list_del_entry(). Returns false if a
 100:/mnt/c/Users/31740/Documents/codes/newcore-rp2350/include/linux/list.h ****  * corruption is detected, true otherwise.
 101:/mnt/c/Users/31740/Documents/codes/newcore-rp2350/include/linux/list.h ****  *
 102:/mnt/c/Users/31740/Documents/codes/newcore-rp2350/include/linux/list.h ****  * With CONFIG_LIST_HARDENED only, performs minimal list integrity checking
 103:/mnt/c/Users/31740/Documents/codes/newcore-rp2350/include/linux/list.h ****  * inline to catch non-faulting corruptions, and only if a corruption is
 104:/mnt/c/Users/31740/Documents/codes/newcore-rp2350/include/linux/list.h ****  * detected calls the reporting function __list_del_entry_valid_or_report().
 105:/mnt/c/Users/31740/Documents/codes/newcore-rp2350/include/linux/list.h ****  */
 106:/mnt/c/Users/31740/Documents/codes/newcore-rp2350/include/linux/list.h **** static __always_inline bool __list_del_entry_valid(struct list_head *entry)
 107:/mnt/c/Users/31740/Documents/codes/newcore-rp2350/include/linux/list.h **** {
 108:/mnt/c/Users/31740/Documents/codes/newcore-rp2350/include/linux/list.h **** 	bool ret = true;
 109:/mnt/c/Users/31740/Documents/codes/newcore-rp2350/include/linux/list.h **** 
 110:/mnt/c/Users/31740/Documents/codes/newcore-rp2350/include/linux/list.h **** 	if (!IS_ENABLED(CONFIG_DEBUG_LIST)) {
ARM GAS  /tmp/ccDkYPHY.s 			page 42


 111:/mnt/c/Users/31740/Documents/codes/newcore-rp2350/include/linux/list.h **** 		struct list_head *prev = entry->prev;
 112:/mnt/c/Users/31740/Documents/codes/newcore-rp2350/include/linux/list.h **** 		struct list_head *next = entry->next;
 113:/mnt/c/Users/31740/Documents/codes/newcore-rp2350/include/linux/list.h **** 
 114:/mnt/c/Users/31740/Documents/codes/newcore-rp2350/include/linux/list.h **** 		/*
 115:/mnt/c/Users/31740/Documents/codes/newcore-rp2350/include/linux/list.h **** 		 * With the hardening version, elide checking if next and prev
 116:/mnt/c/Users/31740/Documents/codes/newcore-rp2350/include/linux/list.h **** 		 * are NULL, LIST_POISON1 or LIST_POISON2, since the immediate
 117:/mnt/c/Users/31740/Documents/codes/newcore-rp2350/include/linux/list.h **** 		 * dereference of them below would result in a fault.
 118:/mnt/c/Users/31740/Documents/codes/newcore-rp2350/include/linux/list.h **** 		 */
 119:/mnt/c/Users/31740/Documents/codes/newcore-rp2350/include/linux/list.h **** 		if (likely(prev->next == entry && next->prev == entry))
 120:/mnt/c/Users/31740/Documents/codes/newcore-rp2350/include/linux/list.h **** 			return true;
 121:/mnt/c/Users/31740/Documents/codes/newcore-rp2350/include/linux/list.h **** 		ret = false;
 122:/mnt/c/Users/31740/Documents/codes/newcore-rp2350/include/linux/list.h **** 	}
 123:/mnt/c/Users/31740/Documents/codes/newcore-rp2350/include/linux/list.h **** 
 124:/mnt/c/Users/31740/Documents/codes/newcore-rp2350/include/linux/list.h **** 	ret &= __list_del_entry_valid_or_report(entry);
 125:/mnt/c/Users/31740/Documents/codes/newcore-rp2350/include/linux/list.h **** 	return ret;
 126:/mnt/c/Users/31740/Documents/codes/newcore-rp2350/include/linux/list.h **** }
 127:/mnt/c/Users/31740/Documents/codes/newcore-rp2350/include/linux/list.h **** #else
 128:/mnt/c/Users/31740/Documents/codes/newcore-rp2350/include/linux/list.h **** static inline bool __list_add_valid(struct list_head *new,
 129:/mnt/c/Users/31740/Documents/codes/newcore-rp2350/include/linux/list.h **** 				struct list_head *prev,
 130:/mnt/c/Users/31740/Documents/codes/newcore-rp2350/include/linux/list.h **** 				struct list_head *next)
 131:/mnt/c/Users/31740/Documents/codes/newcore-rp2350/include/linux/list.h **** {
 132:/mnt/c/Users/31740/Documents/codes/newcore-rp2350/include/linux/list.h **** 	return true;
 133:/mnt/c/Users/31740/Documents/codes/newcore-rp2350/include/linux/list.h **** }
 134:/mnt/c/Users/31740/Documents/codes/newcore-rp2350/include/linux/list.h **** static inline bool __list_del_entry_valid(struct list_head *entry)
 135:/mnt/c/Users/31740/Documents/codes/newcore-rp2350/include/linux/list.h **** {
 136:/mnt/c/Users/31740/Documents/codes/newcore-rp2350/include/linux/list.h **** 	return true;
 137:/mnt/c/Users/31740/Documents/codes/newcore-rp2350/include/linux/list.h **** }
 138:/mnt/c/Users/31740/Documents/codes/newcore-rp2350/include/linux/list.h **** #endif
 139:/mnt/c/Users/31740/Documents/codes/newcore-rp2350/include/linux/list.h **** 
 140:/mnt/c/Users/31740/Documents/codes/newcore-rp2350/include/linux/list.h **** /*
 141:/mnt/c/Users/31740/Documents/codes/newcore-rp2350/include/linux/list.h ****  * Insert a new entry between two known consecutive entries.
 142:/mnt/c/Users/31740/Documents/codes/newcore-rp2350/include/linux/list.h ****  *
 143:/mnt/c/Users/31740/Documents/codes/newcore-rp2350/include/linux/list.h ****  * This is only for internal list manipulation where we know
 144:/mnt/c/Users/31740/Documents/codes/newcore-rp2350/include/linux/list.h ****  * the prev/next entries already!
 145:/mnt/c/Users/31740/Documents/codes/newcore-rp2350/include/linux/list.h ****  */
 146:/mnt/c/Users/31740/Documents/codes/newcore-rp2350/include/linux/list.h **** static inline void __list_add(struct list_head *new,
 147:/mnt/c/Users/31740/Documents/codes/newcore-rp2350/include/linux/list.h **** 			      struct list_head *prev,
 148:/mnt/c/Users/31740/Documents/codes/newcore-rp2350/include/linux/list.h **** 			      struct list_head *next)
 149:/mnt/c/Users/31740/Documents/codes/newcore-rp2350/include/linux/list.h **** {
 150:/mnt/c/Users/31740/Documents/codes/newcore-rp2350/include/linux/list.h **** 	if (!__list_add_valid(new, prev, next))
 151:/mnt/c/Users/31740/Documents/codes/newcore-rp2350/include/linux/list.h **** 		return;
 152:/mnt/c/Users/31740/Documents/codes/newcore-rp2350/include/linux/list.h **** 
 153:/mnt/c/Users/31740/Documents/codes/newcore-rp2350/include/linux/list.h **** 	next->prev = new;
 154:/mnt/c/Users/31740/Documents/codes/newcore-rp2350/include/linux/list.h **** 	new->next = next;
 155:/mnt/c/Users/31740/Documents/codes/newcore-rp2350/include/linux/list.h **** 	new->prev = prev;
 156:/mnt/c/Users/31740/Documents/codes/newcore-rp2350/include/linux/list.h **** 	WRITE_ONCE(prev->next, new);
 157:/mnt/c/Users/31740/Documents/codes/newcore-rp2350/include/linux/list.h **** }
 158:/mnt/c/Users/31740/Documents/codes/newcore-rp2350/include/linux/list.h **** 
 159:/mnt/c/Users/31740/Documents/codes/newcore-rp2350/include/linux/list.h **** /**
 160:/mnt/c/Users/31740/Documents/codes/newcore-rp2350/include/linux/list.h ****  * list_add - add a new entry
 161:/mnt/c/Users/31740/Documents/codes/newcore-rp2350/include/linux/list.h ****  * @new: new entry to be added
 162:/mnt/c/Users/31740/Documents/codes/newcore-rp2350/include/linux/list.h ****  * @head: list head to add it after
 163:/mnt/c/Users/31740/Documents/codes/newcore-rp2350/include/linux/list.h ****  *
 164:/mnt/c/Users/31740/Documents/codes/newcore-rp2350/include/linux/list.h ****  * Insert a new entry after the specified head.
 165:/mnt/c/Users/31740/Documents/codes/newcore-rp2350/include/linux/list.h ****  * This is good for implementing stacks.
 166:/mnt/c/Users/31740/Documents/codes/newcore-rp2350/include/linux/list.h ****  */
 167:/mnt/c/Users/31740/Documents/codes/newcore-rp2350/include/linux/list.h **** static inline void list_add(struct list_head *new, struct list_head *head)
ARM GAS  /tmp/ccDkYPHY.s 			page 43


 590              		.loc 6 167 20 view .LVU175
 591              	.LBB246:
 168:/mnt/c/Users/31740/Documents/codes/newcore-rp2350/include/linux/list.h **** {
 169:/mnt/c/Users/31740/Documents/codes/newcore-rp2350/include/linux/list.h **** 	__list_add(new, head, head->next);
 592              		.loc 6 169 2 view .LVU176
 593 0050 AB69     		ldr	r3, [r5, #24]
 594              	.LVL46:
 595              	.LBB247:
 596              	.LBI247:
 146:/mnt/c/Users/31740/Documents/codes/newcore-rp2350/include/linux/list.h **** 			      struct list_head *prev,
 597              		.loc 6 146 20 view .LVU177
 598              	.LBB248:
 150:/mnt/c/Users/31740/Documents/codes/newcore-rp2350/include/linux/list.h **** 		return;
 599              		.loc 6 150 2 view .LVU178
 153:/mnt/c/Users/31740/Documents/codes/newcore-rp2350/include/linux/list.h **** 	new->next = next;
 600              		.loc 6 153 2 view .LVU179
 153:/mnt/c/Users/31740/Documents/codes/newcore-rp2350/include/linux/list.h **** 	new->next = next;
 601              		.loc 6 153 13 is_stmt 0 view .LVU180
 602 0052 5E60     		str	r6, [r3, #4]
 154:/mnt/c/Users/31740/Documents/codes/newcore-rp2350/include/linux/list.h **** 	new->prev = prev;
 603              		.loc 6 154 2 is_stmt 1 view .LVU181
 154:/mnt/c/Users/31740/Documents/codes/newcore-rp2350/include/linux/list.h **** 	new->prev = prev;
 604              		.loc 6 154 12 is_stmt 0 view .LVU182
 605 0054 6361     		str	r3, [r4, #20]
 155:/mnt/c/Users/31740/Documents/codes/newcore-rp2350/include/linux/list.h **** 	WRITE_ONCE(prev->next, new);
 606              		.loc 6 155 2 is_stmt 1 view .LVU183
 155:/mnt/c/Users/31740/Documents/codes/newcore-rp2350/include/linux/list.h **** 	WRITE_ONCE(prev->next, new);
 607              		.loc 6 155 12 is_stmt 0 view .LVU184
 608 0056 A261     		str	r2, [r4, #24]
 156:/mnt/c/Users/31740/Documents/codes/newcore-rp2350/include/linux/list.h **** }
 609              		.loc 6 156 2 is_stmt 1 view .LVU185
 156:/mnt/c/Users/31740/Documents/codes/newcore-rp2350/include/linux/list.h **** }
 610              		.loc 6 156 2 view .LVU186
 611              	.LBB249:
 156:/mnt/c/Users/31740/Documents/codes/newcore-rp2350/include/linux/list.h **** }
 612              		.loc 6 156 2 view .LVU187
 156:/mnt/c/Users/31740/Documents/codes/newcore-rp2350/include/linux/list.h **** }
 613              		.loc 6 156 2 view .LVU188
 614              	.LBE249:
 156:/mnt/c/Users/31740/Documents/codes/newcore-rp2350/include/linux/list.h **** }
 615              		.loc 6 156 2 discriminator 2 view .LVU189
 156:/mnt/c/Users/31740/Documents/codes/newcore-rp2350/include/linux/list.h **** }
 616              		.loc 6 156 2 discriminator 2 view .LVU190
 156:/mnt/c/Users/31740/Documents/codes/newcore-rp2350/include/linux/list.h **** }
 617              		.loc 6 156 2 discriminator 2 view .LVU191
 618 0058 AE61     		str	r6, [r5, #24]
 156:/mnt/c/Users/31740/Documents/codes/newcore-rp2350/include/linux/list.h **** }
 619              		.loc 6 156 2 discriminator 3 view .LVU192
 156:/mnt/c/Users/31740/Documents/codes/newcore-rp2350/include/linux/list.h **** }
 620              		.loc 6 156 2 discriminator 3 view .LVU193
 621              	.LVL47:
 156:/mnt/c/Users/31740/Documents/codes/newcore-rp2350/include/linux/list.h **** }
 622              		.loc 6 156 2 is_stmt 0 discriminator 3 view .LVU194
 623              	.LBE248:
 624              	.LBE247:
 625              	.LBE246:
 626              	.LBE245:
ARM GAS  /tmp/ccDkYPHY.s 			page 44


 133:/mnt/c/Users/31740/Documents/codes/newcore-rp2350/fs/pipefs/pipefs.c ****     
 627              		.loc 1 133 5 is_stmt 1 view .LVU195
 628 005a 3846     		mov	r0, r7
 629 005c FFF7FEFF 		bl	spin_unlock
 630              	.LVL48:
 135:/mnt/c/Users/31740/Documents/codes/newcore-rp2350/fs/pipefs/pipefs.c **** }
 631              		.loc 1 135 5 view .LVU196
 632              	.L30:
 136:/mnt/c/Users/31740/Documents/codes/newcore-rp2350/fs/pipefs/pipefs.c **** static void pipefs_inode_put(struct pipefs_inode *node){
 633              		.loc 1 136 1 is_stmt 0 view .LVU197
 634 0060 2046     		mov	r0, r4
 635 0062 F8BD     		pop	{r3, r4, r5, r6, r7, pc}
 636              	.LVL49:
 637              	.L32:
 116:/mnt/c/Users/31740/Documents/codes/newcore-rp2350/fs/pipefs/pipefs.c ****     struct pipefs_inode *pipe_inode = kmalloc(sizeof(struct pipefs_inode),GFP_KERNEL);
 638              		.loc 1 116 28 discriminator 1 view .LVU198
 639 0064 0C46     		mov	r4, r1
 640 0066 FBE7     		b	.L30
 641              	.L35:
 642              		.align	2
 643              	.L34:
 644 0068 4E61BC00 		.word	12345678
 645              		.cfi_endproc
 646              	.LFE1040:
 648              		.section	.text.pipefs_get_inode,"ax",%progbits
 649              		.align	1
 650              		.syntax unified
 651              		.thumb
 652              		.thumb_func
 654              	pipefs_get_inode:
 655              	.LVL50:
 656              	.LFB1054:
 389:/mnt/c/Users/31740/Documents/codes/newcore-rp2350/fs/pipefs/pipefs.c ****     if(pipe_node == NULL) return NULL;
 657              		.loc 1 389 1 is_stmt 1 view -0
 658              		.cfi_startproc
 659              		@ args = 0, pretend = 0, frame = 0
 660              		@ frame_needed = 0, uses_anonymous_args = 0
 389:/mnt/c/Users/31740/Documents/codes/newcore-rp2350/fs/pipefs/pipefs.c ****     if(pipe_node == NULL) return NULL;
 661              		.loc 1 389 1 is_stmt 0 view .LVU200
 662 0000 10B5     		push	{r4, lr}
 663              	.LCFI7:
 664              		.cfi_def_cfa_offset 8
 665              		.cfi_offset 4, -8
 666              		.cfi_offset 14, -4
 390:/mnt/c/Users/31740/Documents/codes/newcore-rp2350/fs/pipefs/pipefs.c ****     struct inode*inode  =  new_inode(sb); //Ê≠§Â§ÑÂä®ÊÄÅÂàõÂª∫‰∫Ü‰∏Ä‰∏™inode,ÈúÄË¶ÅÂêéÁª≠ÈáäÊîæ
 667              		.loc 1 390 5 is_stmt 1 view .LVU201
 390:/mnt/c/Users/31740/Documents/codes/newcore-rp2350/fs/pipefs/pipefs.c ****     struct inode*inode  =  new_inode(sb); //Ê≠§Â§ÑÂä®ÊÄÅÂàõÂª∫‰∫Ü‰∏Ä‰∏™inode,ÈúÄË¶ÅÂêéÁª≠ÈáäÊîæ
 668              		.loc 1 390 7 is_stmt 0 view .LVU202
 669 0002 0446     		mov	r4, r0
 670 0004 58B1     		cbz	r0, .L36
 391:/mnt/c/Users/31740/Documents/codes/newcore-rp2350/fs/pipefs/pipefs.c ****     if(inode == NULL) return NULL;  
 671              		.loc 1 391 5 is_stmt 1 view .LVU203
 391:/mnt/c/Users/31740/Documents/codes/newcore-rp2350/fs/pipefs/pipefs.c ****     if(inode == NULL) return NULL;  
 672              		.loc 1 391 28 is_stmt 0 view .LVU204
 673 0006 0846     		mov	r0, r1
 674              	.LVL51:
 391:/mnt/c/Users/31740/Documents/codes/newcore-rp2350/fs/pipefs/pipefs.c ****     if(inode == NULL) return NULL;  
ARM GAS  /tmp/ccDkYPHY.s 			page 45


 675              		.loc 1 391 28 view .LVU205
 676 0008 FFF7FEFF 		bl	new_inode
 677              	.LVL52:
 392:/mnt/c/Users/31740/Documents/codes/newcore-rp2350/fs/pipefs/pipefs.c ****     inode->i_mode    = pipe_node->i_mode;
 678              		.loc 1 392 5 is_stmt 1 view .LVU206
 392:/mnt/c/Users/31740/Documents/codes/newcore-rp2350/fs/pipefs/pipefs.c ****     inode->i_mode    = pipe_node->i_mode;
 679              		.loc 1 392 7 is_stmt 0 view .LVU207
 680 000c 38B1     		cbz	r0, .L36
 393:/mnt/c/Users/31740/Documents/codes/newcore-rp2350/fs/pipefs/pipefs.c ****     inode->i_fop     = pipe_node->i_fop;
 681              		.loc 1 393 5 is_stmt 1 view .LVU208
 393:/mnt/c/Users/31740/Documents/codes/newcore-rp2350/fs/pipefs/pipefs.c ****     inode->i_fop     = pipe_node->i_fop;
 682              		.loc 1 393 33 is_stmt 0 view .LVU209
 683 000e 6368     		ldr	r3, [r4, #4]
 393:/mnt/c/Users/31740/Documents/codes/newcore-rp2350/fs/pipefs/pipefs.c ****     inode->i_fop     = pipe_node->i_fop;
 684              		.loc 1 393 22 view .LVU210
 685 0010 0380     		strh	r3, [r0]	@ movhi
 394:/mnt/c/Users/31740/Documents/codes/newcore-rp2350/fs/pipefs/pipefs.c ****     inode->i_op      = &pipefs_inode_operation;
 686              		.loc 1 394 5 is_stmt 1 view .LVU211
 394:/mnt/c/Users/31740/Documents/codes/newcore-rp2350/fs/pipefs/pipefs.c ****     inode->i_op      = &pipefs_inode_operation;
 687              		.loc 1 394 33 is_stmt 0 view .LVU212
 688 0012 2369     		ldr	r3, [r4, #16]
 394:/mnt/c/Users/31740/Documents/codes/newcore-rp2350/fs/pipefs/pipefs.c ****     inode->i_op      = &pipefs_inode_operation;
 689              		.loc 1 394 22 view .LVU213
 690 0014 C367     		str	r3, [r0, #124]
 395:/mnt/c/Users/31740/Documents/codes/newcore-rp2350/fs/pipefs/pipefs.c ****     inode->i_private = pipe_node;
 691              		.loc 1 395 5 is_stmt 1 view .LVU214
 395:/mnt/c/Users/31740/Documents/codes/newcore-rp2350/fs/pipefs/pipefs.c ****     inode->i_private = pipe_node;
 692              		.loc 1 395 22 is_stmt 0 view .LVU215
 693 0016 024B     		ldr	r3, .L40
 694 0018 0361     		str	r3, [r0, #16]
 396:/mnt/c/Users/31740/Documents/codes/newcore-rp2350/fs/pipefs/pipefs.c ****     return inode;
 695              		.loc 1 396 5 is_stmt 1 view .LVU216
 396:/mnt/c/Users/31740/Documents/codes/newcore-rp2350/fs/pipefs/pipefs.c ****     return inode;
 696              		.loc 1 396 22 is_stmt 0 view .LVU217
 697 001a C0F88440 		str	r4, [r0, #132]
 397:/mnt/c/Users/31740/Documents/codes/newcore-rp2350/fs/pipefs/pipefs.c **** }
 698              		.loc 1 397 5 is_stmt 1 view .LVU218
 699              	.LVL53:
 700              	.L36:
 398:/mnt/c/Users/31740/Documents/codes/newcore-rp2350/fs/pipefs/pipefs.c **** 
 701              		.loc 1 398 1 is_stmt 0 view .LVU219
 702 001e 10BD     		pop	{r4, pc}
 703              	.LVL54:
 704              	.L41:
 398:/mnt/c/Users/31740/Documents/codes/newcore-rp2350/fs/pipefs/pipefs.c **** 
 705              		.loc 1 398 1 view .LVU220
 706              		.align	2
 707              	.L40:
 708 0020 00000000 		.word	pipefs_inode_operation
 709              		.cfi_endproc
 710              	.LFE1054:
 712              		.section	.text.pipefs_getattr,"ax",%progbits
 713              		.align	1
 714              		.syntax unified
 715              		.thumb
 716              		.thumb_func
 718              	pipefs_getattr:
ARM GAS  /tmp/ccDkYPHY.s 			page 46


 719              	.LVL55:
 720              	.LFB1067:
 578:/mnt/c/Users/31740/Documents/codes/newcore-rp2350/fs/pipefs/pipefs.c ****     struct dentry *d = path->dentry;
 721              		.loc 1 578 1 is_stmt 1 view -0
 722              		.cfi_startproc
 723              		@ args = 4, pretend = 0, frame = 0
 724              		@ frame_needed = 0, uses_anonymous_args = 0
