ARM GAS  /tmp/cc3Q6Ngl.s 			page 1


   1              		.cpu cortex-m4
   2              		.arch armv7e-m
   3              		.fpu fpv4-sp-d16
   4              		.eabi_attribute 27, 1
   5              		.eabi_attribute 28, 1
   6              		.eabi_attribute 20, 1
   7              		.eabi_attribute 21, 1
   8              		.eabi_attribute 23, 3
   9              		.eabi_attribute 24, 1
  10              		.eabi_attribute 25, 1
  11              		.eabi_attribute 26, 1
  12              		.eabi_attribute 30, 1
  13              		.eabi_attribute 34, 1
  14              		.eabi_attribute 18, 4
  15              		.file	"ramfs.c"
  16              		.text
  17              	.Ltext0:
  18              		.cfi_sections	.debug_frame
  19              		.file 1 "./fs/ramfs/ramfs.c"
  20              		.section	.text.__spin_init,"ax",%progbits
  21              		.align	1
  22              		.syntax unified
  23              		.thumb
  24              		.thumb_func
  26              	__spin_init:
  27              	.LVL0:
  28              	.LFB852:
  29              		.file 2 "./arch/arm_m/include/asm/spinlock.h"
   1:./arch/arm_m/include/asm/spinlock.h **** #ifndef __SPIN_LOCK_H_
   2:./arch/arm_m/include/asm/spinlock.h **** #define __SPIN_LOCK_H_
   3:./arch/arm_m/include/asm/spinlock.h **** 
   4:./arch/arm_m/include/asm/spinlock.h **** #include <linux/sched.h>
   5:./arch/arm_m/include/asm/spinlock.h **** 
   6:./arch/arm_m/include/asm/spinlock.h **** typedef struct { 
   7:./arch/arm_m/include/asm/spinlock.h ****      int flag; 
   8:./arch/arm_m/include/asm/spinlock.h **** } arch_spinlock_t;
   9:./arch/arm_m/include/asm/spinlock.h **** 
  10:./arch/arm_m/include/asm/spinlock.h **** static int __spin_init(arch_spinlock_t *lock) 
  11:./arch/arm_m/include/asm/spinlock.h **** {
  30              		.loc 2 11 1 view -0
  31              		.cfi_startproc
  32              		@ args = 0, pretend = 0, frame = 0
  33              		@ frame_needed = 0, uses_anonymous_args = 0
  34              		@ link register save eliminated.
  12:./arch/arm_m/include/asm/spinlock.h ****     lock->flag = 0;
  35              		.loc 2 12 5 view .LVU1
  36              		.loc 2 12 16 is_stmt 0 view .LVU2
  37 0000 0023     		movs	r3, #0
  38 0002 0360     		str	r3, [r0]
  39              	.LVL1:
  13:./arch/arm_m/include/asm/spinlock.h **** }
  40              		.loc 2 13 1 view .LVU3
  41 0004 7047     		bx	lr
  42              		.cfi_endproc
  43              	.LFE852:
  45              		.section	.text.__spin_unlock,"ax",%progbits
  46              		.align	1
ARM GAS  /tmp/cc3Q6Ngl.s 			page 2


  47              		.syntax unified
  48              		.thumb
  49              		.thumb_func
  51              	__spin_unlock:
  52              	.LVL2:
  53              	.LFB854:
  14:./arch/arm_m/include/asm/spinlock.h **** 
  15:./arch/arm_m/include/asm/spinlock.h **** static int __spin_lock(arch_spinlock_t *lock) {
  16:./arch/arm_m/include/asm/spinlock.h **** 
  17:./arch/arm_m/include/asm/spinlock.h ****     stop_all_scheduler();
  18:./arch/arm_m/include/asm/spinlock.h ****     if(lock->flag == 0){
  19:./arch/arm_m/include/asm/spinlock.h ****           lock->flag = 1;  
  20:./arch/arm_m/include/asm/spinlock.h ****           start_all_scheduler();
  21:./arch/arm_m/include/asm/spinlock.h ****         return 1;
  22:./arch/arm_m/include/asm/spinlock.h ****     }
  23:./arch/arm_m/include/asm/spinlock.h ****     else
  24:./arch/arm_m/include/asm/spinlock.h ****     {
  25:./arch/arm_m/include/asm/spinlock.h ****         start_all_scheduler();
  26:./arch/arm_m/include/asm/spinlock.h ****         return 0;
  27:./arch/arm_m/include/asm/spinlock.h ****     }
  28:./arch/arm_m/include/asm/spinlock.h **** }
  29:./arch/arm_m/include/asm/spinlock.h **** 
  30:./arch/arm_m/include/asm/spinlock.h **** static void  __spin_unlock( arch_spinlock_t *lock ){
  54              		.loc 2 30 52 is_stmt 1 view -0
  55              		.cfi_startproc
  56              		@ args = 0, pretend = 0, frame = 0
  57              		@ frame_needed = 0, uses_anonymous_args = 0
  58              		@ link register save eliminated.
  31:./arch/arm_m/include/asm/spinlock.h ****     lock->flag = 0;
  59              		.loc 2 31 5 view .LVU5
  60              		.loc 2 31 16 is_stmt 0 view .LVU6
  61 0000 0023     		movs	r3, #0
  62 0002 0360     		str	r3, [r0]
  32:./arch/arm_m/include/asm/spinlock.h **** }
  63              		.loc 2 32 1 view .LVU7
  64 0004 7047     		bx	lr
  65              		.cfi_endproc
  66              	.LFE854:
  68              		.section	.text.spin_lock_init,"ax",%progbits
  69              		.align	1
  70              		.syntax unified
  71              		.thumb
  72              		.thumb_func
  74              	spin_lock_init:
  75              	.LVL3:
  76              	.LFB855:
  77              		.file 3 "./include/linux/spinlock.h"
   1:./include/linux/spinlock.h **** #ifndef __SPINLOCK_H__
   2:./include/linux/spinlock.h **** #define __SPINLOCK_H__
   3:./include/linux/spinlock.h **** 
   4:./include/linux/spinlock.h **** #include <linux/types.h>
   5:./include/linux/spinlock.h **** #include <linux/spinlock_types.h>
   6:./include/linux/spinlock.h **** #include <linux/sched.h>
   7:./include/linux/spinlock.h **** 
   8:./include/linux/spinlock.h **** 
   9:./include/linux/spinlock.h **** 
  10:./include/linux/spinlock.h **** static void spin_lock_init(spinlock_t* lock){
ARM GAS  /tmp/cc3Q6Ngl.s 			page 3


  78              		.loc 3 10 45 is_stmt 1 view -0
  79              		.cfi_startproc
  80              		@ args = 0, pretend = 0, frame = 0
  81              		@ frame_needed = 0, uses_anonymous_args = 0
  82              		.loc 3 10 45 is_stmt 0 view .LVU9
  83 0000 08B5     		push	{r3, lr}
  84              	.LCFI0:
  85              		.cfi_def_cfa_offset 8
  86              		.cfi_offset 3, -8
  87              		.cfi_offset 14, -4
  11:./include/linux/spinlock.h ****     __spin_init(&lock->rlock.raw_lock);
  88              		.loc 3 11 5 is_stmt 1 view .LVU10
  89 0002 FFF7FEFF 		bl	__spin_init
  90              	.LVL4:
  12:./include/linux/spinlock.h **** }
  91              		.loc 3 12 1 is_stmt 0 view .LVU11
  92 0006 08BD     		pop	{r3, pc}
  93              		.cfi_endproc
  94              	.LFE855:
  96              		.section	.text.spin_unlock,"ax",%progbits
  97              		.align	1
  98              		.syntax unified
  99              		.thumb
 100              		.thumb_func
 102              	spin_unlock:
 103              	.LVL5:
 104              	.LFB857:
  13:./include/linux/spinlock.h **** 
  14:./include/linux/spinlock.h **** static void spin_lock(spinlock_t* lock)
  15:./include/linux/spinlock.h **** {  
  16:./include/linux/spinlock.h ****     while (1)
  17:./include/linux/spinlock.h ****     {
  18:./include/linux/spinlock.h ****         if(__spin_lock(&lock->rlock.raw_lock) == 1){
  19:./include/linux/spinlock.h ****             lock->owner = get_current_task();
  20:./include/linux/spinlock.h ****             break;
  21:./include/linux/spinlock.h ****         }
  22:./include/linux/spinlock.h ****         else  if(lock->owner == get_current_task()){  //å¦‚æžœå·²ç»è¢«é”ä½ä½†æ˜¯é”æ˜¯è‡ªå·±çš„ï
  23:./include/linux/spinlock.h ****             return;   
  24:./include/linux/spinlock.h ****         }
  25:./include/linux/spinlock.h ****         else{
  26:./include/linux/spinlock.h ****             __delay(5); //ä¸»åŠ¨è®©å‡ºæ—¶é—´ç‰‡
  27:./include/linux/spinlock.h ****         }
  28:./include/linux/spinlock.h ****     }
  29:./include/linux/spinlock.h **** }
  30:./include/linux/spinlock.h **** 
  31:./include/linux/spinlock.h **** static void spin_unlock(spinlock_t* lock)
  32:./include/linux/spinlock.h **** {
 105              		.loc 3 32 1 is_stmt 1 view -0
 106              		.cfi_startproc
 107              		@ args = 0, pretend = 0, frame = 0
 108              		@ frame_needed = 0, uses_anonymous_args = 0
 109              		.loc 3 32 1 is_stmt 0 view .LVU13
 110 0000 08B5     		push	{r3, lr}
 111              	.LCFI1:
 112              		.cfi_def_cfa_offset 8
 113              		.cfi_offset 3, -8
 114              		.cfi_offset 14, -4
ARM GAS  /tmp/cc3Q6Ngl.s 			page 4


  33:./include/linux/spinlock.h ****     __spin_unlock(&lock->rlock.raw_lock);
 115              		.loc 3 33 5 is_stmt 1 view .LVU14
 116 0002 FFF7FEFF 		bl	__spin_unlock
 117              	.LVL6:
  34:./include/linux/spinlock.h **** }
 118              		.loc 3 34 1 is_stmt 0 view .LVU15
 119 0006 08BD     		pop	{r3, pc}
 120              		.cfi_endproc
 121              	.LFE857:
 123              		.section	.text.initramfs_statfs,"ax",%progbits
 124              		.align	1
 125              		.syntax unified
 126              		.thumb
 127              		.thumb_func
 129              	initramfs_statfs:
 130              	.LVL7:
 131              	.LFB1058:
   1:./fs/ramfs/ramfs.c **** #include <linux/kernel.h>
   2:./fs/ramfs/ramfs.c **** #include <linux/uaccess.h>
   3:./fs/ramfs/ramfs.c **** #include <linux/atomic.h>
   4:./fs/ramfs/ramfs.c **** #include <linux/types.h>
   5:./fs/ramfs/ramfs.c **** #include <linux/module.h>
   6:./fs/ramfs/ramfs.c **** #include <linux/string.h>
   7:./fs/ramfs/ramfs.c **** #include <linux/fs.h>
   8:./fs/ramfs/ramfs.c **** #include <linux/slab.h>
   9:./fs/ramfs/ramfs.c **** #include <linux/init.h>
  10:./fs/ramfs/ramfs.c **** 
  11:./fs/ramfs/ramfs.c **** 
  12:./fs/ramfs/ramfs.c **** #define MAGIC 12345678
  13:./fs/ramfs/ramfs.c **** struct initramfs_inode {
  14:./fs/ramfs/ramfs.c ****     int                     magic;
  15:./fs/ramfs/ramfs.c ****     uint32_t                i_mode;
  16:./fs/ramfs/ramfs.c ****     uint32_t                major;
  17:./fs/ramfs/ramfs.c ****     atomic_t                dentry_count;          //å¼•ç”¨è®¡æ•°
  18:./fs/ramfs/ramfs.c ****     struct file_operations *i_fop;                
  19:./fs/ramfs/ramfs.c ****     struct list_head        list_node;             // æŒ‚åœ¨superblockçš„inodeé“¾è¡¨
  20:./fs/ramfs/ramfs.c ****     struct list_head        dentry_list_head;      // å¦‚æžœè¿™æ˜¯ç›®å½•é¡¹ï¼Œè¿™é‡Œå­˜å‚¨inodeä¸‹ç
  21:./fs/ramfs/ramfs.c ****     spinlock_t              lock;
  22:./fs/ramfs/ramfs.c ****     struct block_initramice *binitram;
  23:./fs/ramfs/ramfs.c ****     struct initramfs_superblock *sb;
  24:./fs/ramfs/ramfs.c **** };
  25:./fs/ramfs/ramfs.c **** 
  26:./fs/ramfs/ramfs.c **** struct initramfs_dentry {
  27:./fs/ramfs/ramfs.c ****     int                    magic;
  28:./fs/ramfs/ramfs.c ****     char *name;                             // åå­—
  29:./fs/ramfs/ramfs.c ****     struct initramfs_inode *target_inode;       // è¯¥dentryæŒ‡å‘çš„ç›®æ ‡inode
  30:./fs/ramfs/ramfs.c ****     struct list_head list_node;             // æŒ‚è½½åˆ°çˆ¶ç›®å½•inodeä¸­çš„listheadä¸­
  31:./fs/ramfs/ramfs.c **** };
  32:./fs/ramfs/ramfs.c **** struct initramfs_superblock {
  33:./fs/ramfs/ramfs.c ****     int                    magic;
  34:./fs/ramfs/ramfs.c ****     spinlock_t             lock;
  35:./fs/ramfs/ramfs.c ****     struct initramfs_inode *rootinode;
  36:./fs/ramfs/ramfs.c ****     struct list_head inode_list_head;       // è¯¥superblockä¸‹çš„inodeé“¾è¡¨å¤´
  37:./fs/ramfs/ramfs.c **** };
  38:./fs/ramfs/ramfs.c **** 
  39:./fs/ramfs/ramfs.c **** 
  40:./fs/ramfs/ramfs.c **** static int initramfs_open(struct inode *inode, struct file *file){
ARM GAS  /tmp/cc3Q6Ngl.s 			page 5


  41:./fs/ramfs/ramfs.c ****     early_printk("initramfs test open\n");
  42:./fs/ramfs/ramfs.c ****     return 0;
  43:./fs/ramfs/ramfs.c **** }
  44:./fs/ramfs/ramfs.c **** static int initramfs_release(struct inode *inode, struct file *file){
  45:./fs/ramfs/ramfs.c ****     early_printk("initramfs test close\n");
  46:./fs/ramfs/ramfs.c ****     return 0;
  47:./fs/ramfs/ramfs.c **** }
  48:./fs/ramfs/ramfs.c **** static int initramfs_read(struct file *file, char __user * data, size_t size, loff_t *offset){
  49:./fs/ramfs/ramfs.c ****     early_printk("initramfs test read\n");
  50:./fs/ramfs/ramfs.c ****     return 0;
  51:./fs/ramfs/ramfs.c **** }
  52:./fs/ramfs/ramfs.c **** static int initramfs_write(struct file *file, char __user * data, size_t size, loff_t *offset){
  53:./fs/ramfs/ramfs.c ****     early_printk("initramfs test write\n");
  54:./fs/ramfs/ramfs.c ****     return 0;
  55:./fs/ramfs/ramfs.c **** }
  56:./fs/ramfs/ramfs.c **** 
  57:./fs/ramfs/ramfs.c **** 
  58:./fs/ramfs/ramfs.c **** static struct file_operations initramfs_file_fops = {
  59:./fs/ramfs/ramfs.c ****     .owner = THIS_MODULE,
  60:./fs/ramfs/ramfs.c ****     .open = initramfs_open,
  61:./fs/ramfs/ramfs.c ****     .release = initramfs_release,
  62:./fs/ramfs/ramfs.c ****     .read  = initramfs_read,
  63:./fs/ramfs/ramfs.c ****     .write = initramfs_write
  64:./fs/ramfs/ramfs.c **** };
  65:./fs/ramfs/ramfs.c **** 
  66:./fs/ramfs/ramfs.c **** static struct initramfs_inode *initramfs_create_empty_inode(struct initramfs_superblock *sb,struct 
  67:./fs/ramfs/ramfs.c **** {
  68:./fs/ramfs/ramfs.c ****     if(fop == NULL) return NULL;
  69:./fs/ramfs/ramfs.c ****     struct initramfs_inode *initram_inode = kmalloc(sizeof(struct initramfs_inode),GFP_KERNEL);
  70:./fs/ramfs/ramfs.c ****     if(initram_inode == NULL) return NULL;
  71:./fs/ramfs/ramfs.c ****     initram_inode->magic = MAGIC;
  72:./fs/ramfs/ramfs.c ****     initram_inode->major = major;
  73:./fs/ramfs/ramfs.c ****     initram_inode->i_fop = fop;
  74:./fs/ramfs/ramfs.c ****     initram_inode->sb    = sb;
  75:./fs/ramfs/ramfs.c ****     initram_inode->i_mode = S_IFREG | 0755;
  76:./fs/ramfs/ramfs.c ****     atomic_set(&initram_inode->dentry_count,0);
  77:./fs/ramfs/ramfs.c ****     spin_lock_init(&initram_inode->lock);
  78:./fs/ramfs/ramfs.c ****     INIT_LIST_HEAD(&initram_inode->list_node);
  79:./fs/ramfs/ramfs.c ****     INIT_LIST_HEAD(&initram_inode->dentry_list_head);
  80:./fs/ramfs/ramfs.c ****     
  81:./fs/ramfs/ramfs.c ****     spin_lock(&sb->lock);
  82:./fs/ramfs/ramfs.c ****     list_add(&initram_inode->list_node,&sb->inode_list_head);
  83:./fs/ramfs/ramfs.c ****     spin_unlock(&sb->lock);
  84:./fs/ramfs/ramfs.c ****     
  85:./fs/ramfs/ramfs.c ****     return initram_inode;
  86:./fs/ramfs/ramfs.c **** }
  87:./fs/ramfs/ramfs.c **** static void initramfs_inode_put(struct initramfs_inode *node){
  88:./fs/ramfs/ramfs.c ****     if(node != NULL)kfree(node);
  89:./fs/ramfs/ramfs.c **** }
  90:./fs/ramfs/ramfs.c **** static struct initramfs_dentry* initramfs_create_dentry(struct initramfs_inode* parent_dentry_inode
  91:./fs/ramfs/ramfs.c **** {
  92:./fs/ramfs/ramfs.c ****     if(parent_dentry_inode == NULL || name == NULL || target_inode == NULL) return NULL;
  93:./fs/ramfs/ramfs.c **** 
  94:./fs/ramfs/ramfs.c ****     struct initramfs_dentry* new_dentry =  kmalloc(sizeof(struct initramfs_dentry),GFP_KERNEL);
  95:./fs/ramfs/ramfs.c ****     if(new_dentry == NULL)return NULL;
  96:./fs/ramfs/ramfs.c ****     new_dentry->magic = MAGIC;
  97:./fs/ramfs/ramfs.c ****     new_dentry->name = NULL;
ARM GAS  /tmp/cc3Q6Ngl.s 			page 6


  98:./fs/ramfs/ramfs.c ****     new_dentry->name = kmalloc(strlen(name) + 1,GFP_KERNEL);
  99:./fs/ramfs/ramfs.c ****     if(new_dentry->name  == NULL) {
 100:./fs/ramfs/ramfs.c ****         kfree(new_dentry);
 101:./fs/ramfs/ramfs.c ****         return NULL;
 102:./fs/ramfs/ramfs.c ****     }
 103:./fs/ramfs/ramfs.c ****     strcpy(new_dentry->name,name);
 104:./fs/ramfs/ramfs.c ****     new_dentry->target_inode = target_inode;
 105:./fs/ramfs/ramfs.c ****     INIT_LIST_HEAD(&new_dentry->list_node);
 106:./fs/ramfs/ramfs.c ****     
 107:./fs/ramfs/ramfs.c **** 
 108:./fs/ramfs/ramfs.c ****     atomic_inc (&target_inode->dentry_count);      //å¢žåŠ å¼•ç”¨è®¡æ•°
 109:./fs/ramfs/ramfs.c ****     
 110:./fs/ramfs/ramfs.c ****     
 111:./fs/ramfs/ramfs.c ****     spin_lock   (&parent_dentry_inode->lock);
 112:./fs/ramfs/ramfs.c ****     list_add    (&new_dentry->list_node,&parent_dentry_inode->dentry_list_head);
 113:./fs/ramfs/ramfs.c ****     spin_unlock(&parent_dentry_inode->lock);
 114:./fs/ramfs/ramfs.c ****     return new_dentry;
 115:./fs/ramfs/ramfs.c **** }
 116:./fs/ramfs/ramfs.c **** static struct initramfs_dentry* initramfs_create_inode( struct initramfs_superblock *sb,struct init
 117:./fs/ramfs/ramfs.c **** {
 118:./fs/ramfs/ramfs.c ****     struct initramfs_inode * new_inode = initramfs_create_empty_inode(sb,fop,major);
 119:./fs/ramfs/ramfs.c ****     if(new_inode == NULL){
 120:./fs/ramfs/ramfs.c ****         return NULL;
 121:./fs/ramfs/ramfs.c ****     }   
 122:./fs/ramfs/ramfs.c ****     struct initramfs_dentry* new_dentry = initramfs_create_dentry(parent_dentry_inode,new_inode,nam
 123:./fs/ramfs/ramfs.c ****     if(new_dentry == NULL){
 124:./fs/ramfs/ramfs.c ****         spin_lock(&sb->lock);
 125:./fs/ramfs/ramfs.c ****         list_del(&new_inode->list_node);
 126:./fs/ramfs/ramfs.c ****         spin_unlock(&sb->lock);
 127:./fs/ramfs/ramfs.c ****         initramfs_inode_put(new_inode);
 128:./fs/ramfs/ramfs.c ****         return NULL;
 129:./fs/ramfs/ramfs.c ****     }
 130:./fs/ramfs/ramfs.c ****     return new_dentry;
 131:./fs/ramfs/ramfs.c **** }
 132:./fs/ramfs/ramfs.c **** static struct initramfs_dentry* initramfs_create_file(struct initramfs_superblock *sb,struct initra
 133:./fs/ramfs/ramfs.c **** {
 134:./fs/ramfs/ramfs.c ****     return initramfs_create_inode(sb,parent_dentry_inode,fop,major,name);
 135:./fs/ramfs/ramfs.c **** }
 136:./fs/ramfs/ramfs.c **** 
 137:./fs/ramfs/ramfs.c **** static struct initramfs_dentry* initramfs_create_dir(struct initramfs_superblock *sb,struct initram
 138:./fs/ramfs/ramfs.c **** {
 139:./fs/ramfs/ramfs.c ****     struct initramfs_dentry* dentry =  initramfs_create_inode(sb,parent_dentry_inode,&initramfs_fil
 140:./fs/ramfs/ramfs.c ****     if(dentry == NULL) return NULL;
 141:./fs/ramfs/ramfs.c ****     dentry->target_inode->i_mode = S_IFDIR | 0755;
 142:./fs/ramfs/ramfs.c ****     return dentry;
 143:./fs/ramfs/ramfs.c **** }
 144:./fs/ramfs/ramfs.c **** static void dentry_put(struct initramfs_superblock *sb,struct initramfs_dentry* dentry)
 145:./fs/ramfs/ramfs.c **** {
 146:./fs/ramfs/ramfs.c ****     if(dentry == NULL) return;
 147:./fs/ramfs/ramfs.c ****     if(dentry->target_inode != NULL)
 148:./fs/ramfs/ramfs.c ****     {
 149:./fs/ramfs/ramfs.c ****         spin_lock(&sb->lock);
 150:./fs/ramfs/ramfs.c ****         if (atomic_dec_and_test(&dentry->target_inode->dentry_count)) //æ£€æµ‹inodeå¼•ç”¨è®¡æ•°æ˜¯å
 151:./fs/ramfs/ramfs.c ****         {
 152:./fs/ramfs/ramfs.c ****             list_del(&dentry->target_inode->list_node);    
 153:./fs/ramfs/ramfs.c ****             initramfs_inode_put(dentry->target_inode);
 154:./fs/ramfs/ramfs.c ****         }
ARM GAS  /tmp/cc3Q6Ngl.s 			page 7


 155:./fs/ramfs/ramfs.c ****         spin_unlock(&sb->lock);
 156:./fs/ramfs/ramfs.c ****     }
 157:./fs/ramfs/ramfs.c ****     kfree(dentry->name);
 158:./fs/ramfs/ramfs.c ****     kfree(dentry);
 159:./fs/ramfs/ramfs.c **** }
 160:./fs/ramfs/ramfs.c **** static void initramfs_delete_dentry(struct initramfs_superblock *sb,struct initramfs_inode* parent_
 161:./fs/ramfs/ramfs.c ****     if(parent_dentry_inode != NULL) spin_lock(&parent_dentry_inode->lock);
 162:./fs/ramfs/ramfs.c ****     
 163:./fs/ramfs/ramfs.c ****     if ((delete_dentry->target_inode->i_mode & S_IFMT) == S_IFDIR ){         //å¦‚æžœæ˜¯ç›®å½•é¡¹éœ
 164:./fs/ramfs/ramfs.c ****         if(!list_empty(&delete_dentry->target_inode->dentry_list_head)){      //å¦‚æžœç›®å½•ä¸‹çš„i
 165:./fs/ramfs/ramfs.c ****             if(parent_dentry_inode != NULL) 
 166:./fs/ramfs/ramfs.c ****                 spin_unlock(&parent_dentry_inode->lock);
 167:./fs/ramfs/ramfs.c ****             return;
 168:./fs/ramfs/ramfs.c ****         }
 169:./fs/ramfs/ramfs.c ****     }
 170:./fs/ramfs/ramfs.c ****     list_del(&delete_dentry->list_node);                                     //å°†dentryä»Žçˆ¶ç›®å½
 171:./fs/ramfs/ramfs.c ****     if(parent_dentry_inode != NULL) spin_unlock(&parent_dentry_inode->lock);
 172:./fs/ramfs/ramfs.c ****     dentry_put(sb,delete_dentry);
 173:./fs/ramfs/ramfs.c **** }
 174:./fs/ramfs/ramfs.c **** static struct initramfs_superblock* initramfs_superblock_create(void) //åˆ›å»ºsuperblock
 175:./fs/ramfs/ramfs.c **** {
 176:./fs/ramfs/ramfs.c ****     struct initramfs_superblock*d_sb = kmalloc(sizeof(struct initramfs_superblock),GFP_KERNEL);
 177:./fs/ramfs/ramfs.c ****     if(d_sb == NULL){
 178:./fs/ramfs/ramfs.c ****         return NULL;        
 179:./fs/ramfs/ramfs.c ****     }
 180:./fs/ramfs/ramfs.c ****     d_sb->magic = MAGIC;
 181:./fs/ramfs/ramfs.c ****     spin_lock_init(&d_sb->lock);
 182:./fs/ramfs/ramfs.c ****     INIT_LIST_HEAD(&d_sb->inode_list_head);
 183:./fs/ramfs/ramfs.c ****     struct initramfs_inode* root_inode = initramfs_create_empty_inode(d_sb ,&initramfs_file_fops,0)
 184:./fs/ramfs/ramfs.c ****     if(root_inode == NULL){
 185:./fs/ramfs/ramfs.c ****         kfree(d_sb);
 186:./fs/ramfs/ramfs.c ****         return NULL;
 187:./fs/ramfs/ramfs.c ****     }
 188:./fs/ramfs/ramfs.c ****     root_inode->i_mode = S_IFDIR | 0755;
 189:./fs/ramfs/ramfs.c ****     d_sb->rootinode = root_inode;
 190:./fs/ramfs/ramfs.c ****     root_inode->i_fop = &initramfs_file_fops;
 191:./fs/ramfs/ramfs.c ****     atomic_inc (&root_inode->dentry_count); 
 192:./fs/ramfs/ramfs.c ****     INIT_LIST_HEAD(&root_inode->dentry_list_head);
 193:./fs/ramfs/ramfs.c ****     return d_sb;
 194:./fs/ramfs/ramfs.c **** } 
 195:./fs/ramfs/ramfs.c **** static void initramfs_superblock_destory(struct initramfs_superblock* sb){
 196:./fs/ramfs/ramfs.c ****     if(sb!= NULL) {
 197:./fs/ramfs/ramfs.c ****         struct initramfs_inode * root_inode = sb->rootinode;
 198:./fs/ramfs/ramfs.c ****         if(!root_inode){
 199:./fs/ramfs/ramfs.c ****             kfree(root_inode);
 200:./fs/ramfs/ramfs.c ****         }
 201:./fs/ramfs/ramfs.c ****         kfree(sb);
 202:./fs/ramfs/ramfs.c ****     }
 203:./fs/ramfs/ramfs.c **** }
 204:./fs/ramfs/ramfs.c **** 
 205:./fs/ramfs/ramfs.c **** static struct initramfs_dentry* initramfs_lookup(struct initramfs_inode* dentry_inode,char *name)
 206:./fs/ramfs/ramfs.c **** {
 207:./fs/ramfs/ramfs.c ****     if(dentry_inode == NULL) return NULL;
 208:./fs/ramfs/ramfs.c ****     if ( (dentry_inode->i_mode & S_IFMT) != S_IFDIR ) return NULL;
 209:./fs/ramfs/ramfs.c ****     struct initramfs_dentry* pos;
 210:./fs/ramfs/ramfs.c ****     spin_lock(&dentry_inode->lock);
 211:./fs/ramfs/ramfs.c ****     list_for_each_entry(pos, &dentry_inode->dentry_list_head,list_node ) {
ARM GAS  /tmp/cc3Q6Ngl.s 			page 8


 212:./fs/ramfs/ramfs.c ****         if (strcmp(pos->name, name) == 0) {
 213:./fs/ramfs/ramfs.c ****             spin_unlock(&dentry_inode->lock);
 214:./fs/ramfs/ramfs.c ****             return pos;
 215:./fs/ramfs/ramfs.c ****         }
 216:./fs/ramfs/ramfs.c ****     }
 217:./fs/ramfs/ramfs.c ****     spin_unlock(&dentry_inode->lock);
 218:./fs/ramfs/ramfs.c ****     return NULL;
 219:./fs/ramfs/ramfs.c **** }
 220:./fs/ramfs/ramfs.c **** 
 221:./fs/ramfs/ramfs.c **** 
 222:./fs/ramfs/ramfs.c **** 
 223:./fs/ramfs/ramfs.c **** 
 224:./fs/ramfs/ramfs.c **** 
 225:./fs/ramfs/ramfs.c **** 
 226:./fs/ramfs/ramfs.c **** 
 227:./fs/ramfs/ramfs.c **** 
 228:./fs/ramfs/ramfs.c **** 
 229:./fs/ramfs/ramfs.c **** static struct super_operations initramfs_super_operation;
 230:./fs/ramfs/ramfs.c **** static struct dentry_operations initramfs_dentry_operation;
 231:./fs/ramfs/ramfs.c **** static struct inode_operations initramfs_inode_operation;
 232:./fs/ramfs/ramfs.c **** 
 233:./fs/ramfs/ramfs.c **** static void initramfs_kill_sb (struct super_block * sb);
 234:./fs/ramfs/ramfs.c **** static struct inode *initramfs_alloc_inode(struct super_block *sb);
 235:./fs/ramfs/ramfs.c **** static void  initramfs_destroy_inode(struct inode * node); //æ’¤é”€initramfs_alloc_inodeæ‰€åšçš„ä¸
 236:./fs/ramfs/ramfs.c **** static int initramfs_statfs (struct dentry * dentry, struct kstatfs *star);
 237:./fs/ramfs/ramfs.c **** static struct dentry * initramfs_get_dentry(struct dentry * vdentry, struct initramfs_dentry *dentr
 238:./fs/ramfs/ramfs.c **** static struct super_block *initramfs_get_vfs_superblock(struct initramfs_superblock *sb);
 239:./fs/ramfs/ramfs.c **** static struct inode *  initramfs_get_inode(struct initramfs_inode *,struct super_block*);
 240:./fs/ramfs/ramfs.c **** static struct dentry *initramfs_mount(struct file_system_type *fs_type,
 241:./fs/ramfs/ramfs.c ****     int flags,
 242:./fs/ramfs/ramfs.c ****     const char *initram_name,
 243:./fs/ramfs/ramfs.c ****     void *data);
 244:./fs/ramfs/ramfs.c **** 
 245:./fs/ramfs/ramfs.c **** static struct file_system_type fs_type = {
 246:./fs/ramfs/ramfs.c ****     .name     = "initramfs",
 247:./fs/ramfs/ramfs.c ****     .fs_flags = 0,
 248:./fs/ramfs/ramfs.c ****     .init_fs_context = NULL,
 249:./fs/ramfs/ramfs.c ****     .kill_sb  = initramfs_kill_sb,
 250:./fs/ramfs/ramfs.c ****     .mount    = initramfs_mount,
 251:./fs/ramfs/ramfs.c ****     .owner    = THIS_MODULE,
 252:./fs/ramfs/ramfs.c **** };
 253:./fs/ramfs/ramfs.c **** 
 254:./fs/ramfs/ramfs.c **** static struct dentry *initramfs_mount(struct file_system_type *fs_type,
 255:./fs/ramfs/ramfs.c ****     int flags,
 256:./fs/ramfs/ramfs.c ****     const char *initram_name,
 257:./fs/ramfs/ramfs.c ****     void *data)
 258:./fs/ramfs/ramfs.c **** {
 259:./fs/ramfs/ramfs.c ****     struct initramfs_superblock *fs_superblock= initramfs_superblock_create();
 260:./fs/ramfs/ramfs.c ****     if (fs_superblock == NULL){
 261:./fs/ramfs/ramfs.c ****         return ERR_PTR(-ENOMEM);        
 262:./fs/ramfs/ramfs.c ****     }
 263:./fs/ramfs/ramfs.c ****     struct dentry * root = __d_alloc(NULL,"root");
 264:./fs/ramfs/ramfs.c ****     if(root == NULL){
 265:./fs/ramfs/ramfs.c ****          initramfs_superblock_destory(fs_superblock);
 266:./fs/ramfs/ramfs.c ****         return ERR_PTR(-ENOMEM);   
 267:./fs/ramfs/ramfs.c ****     }
 268:./fs/ramfs/ramfs.c **** 
ARM GAS  /tmp/cc3Q6Ngl.s 			page 9


 269:./fs/ramfs/ramfs.c **** 
 270:./fs/ramfs/ramfs.c ****     struct initramfs_dentry* dentry = kmalloc(sizeof(struct initramfs_dentry),GFP_KERNEL);
 271:./fs/ramfs/ramfs.c ****     if(dentry == NULL){
 272:./fs/ramfs/ramfs.c ****        
 273:./fs/ramfs/ramfs.c ****         kfree(root);
 274:./fs/ramfs/ramfs.c ****         return ERR_PTR(-ENOMEM);        
 275:./fs/ramfs/ramfs.c ****     }
 276:./fs/ramfs/ramfs.c ****     dentry->name = NULL;
 277:./fs/ramfs/ramfs.c ****     dentry->target_inode = fs_superblock->rootinode;
 278:./fs/ramfs/ramfs.c ****     dentry->magic =MAGIC;
 279:./fs/ramfs/ramfs.c ****     root->d_fsdata = dentry;
 280:./fs/ramfs/ramfs.c ****     struct inode * root_inode = initramfs_get_inode(dentry->target_inode,NULL);
 281:./fs/ramfs/ramfs.c ****     if(root_inode == NULL){
 282:./fs/ramfs/ramfs.c ****         kfree(dentry);
 283:./fs/ramfs/ramfs.c ****         initramfs_superblock_destory(fs_superblock);
 284:./fs/ramfs/ramfs.c ****         kfree(root);
 285:./fs/ramfs/ramfs.c ****         return ERR_PTR(-ENOMEM);        
 286:./fs/ramfs/ramfs.c ****     } 
 287:./fs/ramfs/ramfs.c ****     root->d_inode = root_inode;
 288:./fs/ramfs/ramfs.c **** 
 289:./fs/ramfs/ramfs.c ****     struct super_block *sb =initramfs_get_vfs_superblock(fs_superblock);
 290:./fs/ramfs/ramfs.c ****     if(sb == NULL){
 291:./fs/ramfs/ramfs.c ****         kfree(root);
 292:./fs/ramfs/ramfs.c ****         kfree(dentry);
 293:./fs/ramfs/ramfs.c ****         inode_put(root_inode);
 294:./fs/ramfs/ramfs.c ****         initramfs_superblock_destory(fs_superblock);
 295:./fs/ramfs/ramfs.c ****         return ERR_PTR(-ENOMEM);       
 296:./fs/ramfs/ramfs.c ****     }
 297:./fs/ramfs/ramfs.c ****     sb->s_root = root;
 298:./fs/ramfs/ramfs.c ****     root->d_sb = sb;
 299:./fs/ramfs/ramfs.c **** 
 300:./fs/ramfs/ramfs.c ****     return root;
 301:./fs/ramfs/ramfs.c **** }
 302:./fs/ramfs/ramfs.c **** 
 303:./fs/ramfs/ramfs.c **** 
 304:./fs/ramfs/ramfs.c **** 
 305:./fs/ramfs/ramfs.c **** static struct super_operations initramfs_super_operation = {
 306:./fs/ramfs/ramfs.c ****     .alloc_inode   = initramfs_alloc_inode,
 307:./fs/ramfs/ramfs.c ****     .destroy_inode = initramfs_destroy_inode, 
 308:./fs/ramfs/ramfs.c ****     .free_inode    = NULL,         
 309:./fs/ramfs/ramfs.c ****     .dirty_inode   = NULL,
 310:./fs/ramfs/ramfs.c ****     .write_inode   = NULL,
 311:./fs/ramfs/ramfs.c ****     .drop_inode    = NULL,
 312:./fs/ramfs/ramfs.c ****     .put_super     = initramfs_kill_sb,
 313:./fs/ramfs/ramfs.c ****     .sync_fs       = NULL,
 314:./fs/ramfs/ramfs.c ****     .statfs        = initramfs_statfs,
 315:./fs/ramfs/ramfs.c **** };
 316:./fs/ramfs/ramfs.c **** 
 317:./fs/ramfs/ramfs.c **** static struct super_block *initramfs_get_vfs_superblock(struct initramfs_superblock *sb) //å°†æ–‡ä»
 318:./fs/ramfs/ramfs.c **** {
 319:./fs/ramfs/ramfs.c ****     if(sb == NULL) return NULL;
 320:./fs/ramfs/ramfs.c ****     struct super_block * vsb  = alloc_super(NULL);                        //åˆ†é…äº†ä¸€ä¸ªsuperblo
 321:./fs/ramfs/ramfs.c ****     if(vsb == NULL) return NULL;
 322:./fs/ramfs/ramfs.c ****     vsb->s_fs_info =   sb;
 323:./fs/ramfs/ramfs.c ****     vsb->s_d_op    =  &initramfs_dentry_operation;
 324:./fs/ramfs/ramfs.c ****     vsb->s_op      =  &initramfs_super_operation;    
 325:./fs/ramfs/ramfs.c ****     return vsb;
ARM GAS  /tmp/cc3Q6Ngl.s 			page 10


 326:./fs/ramfs/ramfs.c **** }
 327:./fs/ramfs/ramfs.c **** 
 328:./fs/ramfs/ramfs.c **** 
 329:./fs/ramfs/ramfs.c **** static void initramfs_kill_sb (struct super_block * sb){                          //é‡Šæ”¾æ–‡ä»¶ç³»
 330:./fs/ramfs/ramfs.c ****     put_super(sb);
 331:./fs/ramfs/ramfs.c **** }
 332:./fs/ramfs/ramfs.c **** 
 333:./fs/ramfs/ramfs.c **** static struct inode *  initramfs_get_inode(struct initramfs_inode * initram_node,struct super_block
 334:./fs/ramfs/ramfs.c **** {
 335:./fs/ramfs/ramfs.c ****     if(initram_node == NULL) return NULL;
 336:./fs/ramfs/ramfs.c ****     struct inode*inode  =  new_inode(sb); //æ­¤å¤„åŠ¨æ€åˆ›å»ºäº†ä¸€ä¸ªinode,éœ€è¦åŽç»­é‡Šæ”¾
 337:./fs/ramfs/ramfs.c ****     if(inode == NULL) return NULL;  
 338:./fs/ramfs/ramfs.c ****     inode->i_mode    = initram_node->i_mode;
 339:./fs/ramfs/ramfs.c ****     inode->i_fop     = initram_node->i_fop;
 340:./fs/ramfs/ramfs.c ****     inode->i_op      = &initramfs_inode_operation;
 341:./fs/ramfs/ramfs.c ****     inode->i_private = initram_node;
 342:./fs/ramfs/ramfs.c ****     return inode;
 343:./fs/ramfs/ramfs.c **** }
 344:./fs/ramfs/ramfs.c **** 
 345:./fs/ramfs/ramfs.c **** static struct inode *initramfs_alloc_inode(struct super_block *sb) //åˆ›å»ºä¸€ä¸ªinodeï¼ŒåŒæ—¶åˆ›å
 346:./fs/ramfs/ramfs.c **** {
 347:./fs/ramfs/ramfs.c ****     struct initramfs_superblock *supb = sb->s_fs_info;
 348:./fs/ramfs/ramfs.c ****     if(supb->magic != MAGIC) return NULL;
 349:./fs/ramfs/ramfs.c ****      struct initramfs_inode * inode = initramfs_create_empty_inode(supb,&initramfs_file_fops,10); /
 350:./fs/ramfs/ramfs.c ****      if(inode == NULL) return NULL;
 351:./fs/ramfs/ramfs.c ****      struct inode *out_inode = initramfs_get_inode(inode,sb);
 352:./fs/ramfs/ramfs.c ****      if(out_inode == NULL){
 353:./fs/ramfs/ramfs.c ****         kfree(inode);
 354:./fs/ramfs/ramfs.c ****         return NULL;
 355:./fs/ramfs/ramfs.c ****      }
 356:./fs/ramfs/ramfs.c ****      return out_inode;
 357:./fs/ramfs/ramfs.c **** }
 358:./fs/ramfs/ramfs.c **** 
 359:./fs/ramfs/ramfs.c **** 
 360:./fs/ramfs/ramfs.c **** 
 361:./fs/ramfs/ramfs.c **** static void  initramfs_destroy_inode(struct inode * node) //æ’¤é”€initramfs_alloc_inodeæ‰€åšçš„ä¸€
 362:./fs/ramfs/ramfs.c **** {
 363:./fs/ramfs/ramfs.c ****     if(node == NULL) return;
 364:./fs/ramfs/ramfs.c ****     if(node->i_private != NULL) {
 365:./fs/ramfs/ramfs.c ****         struct initramfs_inode * initram_node = node->i_private;
 366:./fs/ramfs/ramfs.c ****         list_del(&initram_node->list_node);
 367:./fs/ramfs/ramfs.c ****         kfree(initram_node);        
 368:./fs/ramfs/ramfs.c ****     }
 369:./fs/ramfs/ramfs.c **** }
 370:./fs/ramfs/ramfs.c **** 
 371:./fs/ramfs/ramfs.c **** static int initramfs_statfs (struct dentry * dentry, struct kstatfs *star){
 132              		.loc 1 371 75 is_stmt 1 view -0
 133              		.cfi_startproc
 134              		@ args = 0, pretend = 0, frame = 0
 135              		@ frame_needed = 0, uses_anonymous_args = 0
 136              		@ link register save eliminated.
 372:./fs/ramfs/ramfs.c ****     struct initramfs_dentry * initramfs_dentry = dentry->d_fsdata;
 137              		.loc 1 372 5 view .LVU17
 373:./fs/ramfs/ramfs.c ****     struct initramfs_inode * initramfs_node = initramfs_dentry->target_inode;
 138              		.loc 1 373 5 view .LVU18
 374:./fs/ramfs/ramfs.c ****     star->f_type = MAGIC;
 139              		.loc 1 374 5 view .LVU19
ARM GAS  /tmp/cc3Q6Ngl.s 			page 11


 140              		.loc 1 374 18 is_stmt 0 view .LVU20
 141 0000 064B     		ldr	r3, .L8
 142 0002 0B60     		str	r3, [r1]
 143              	.LVL8:
 375:./fs/ramfs/ramfs.c ****     star->f_bsize  = 0;
 144              		.loc 1 375 5 is_stmt 1 view .LVU21
 145              		.loc 1 375 20 is_stmt 0 view .LVU22
 146 0004 0020     		movs	r0, #0
 147              	.LVL9:
 148              		.loc 1 375 20 view .LVU23
 149 0006 4860     		str	r0, [r1, #4]
 376:./fs/ramfs/ramfs.c ****     star->f_blocks = 1;
 150              		.loc 1 376 5 is_stmt 1 view .LVU24
 151              		.loc 1 376 20 is_stmt 0 view .LVU25
 152 0008 0123     		movs	r3, #1
 153 000a 8B60     		str	r3, [r1, #8]
 377:./fs/ramfs/ramfs.c ****     star->f_bfree  = 0;
 154              		.loc 1 377 5 is_stmt 1 view .LVU26
 155              		.loc 1 377 20 is_stmt 0 view .LVU27
 156 000c C860     		str	r0, [r1, #12]
 378:./fs/ramfs/ramfs.c ****     star->f_bavail = 0;
 157              		.loc 1 378 5 is_stmt 1 view .LVU28
 158              		.loc 1 378 20 is_stmt 0 view .LVU29
 159 000e 0861     		str	r0, [r1, #16]
 379:./fs/ramfs/ramfs.c ****     star->f_files  = 128;
 160              		.loc 1 379 5 is_stmt 1 view .LVU30
 161              		.loc 1 379 20 is_stmt 0 view .LVU31
 162 0010 8023     		movs	r3, #128
 163 0012 4B61     		str	r3, [r1, #20]
 380:./fs/ramfs/ramfs.c ****     star->f_ffree  = 127;
 164              		.loc 1 380 5 is_stmt 1 view .LVU32
 165              		.loc 1 380 20 is_stmt 0 view .LVU33
 166 0014 7F23     		movs	r3, #127
 167 0016 8B61     		str	r3, [r1, #24]
 381:./fs/ramfs/ramfs.c ****     return 0;
 168              		.loc 1 381 5 is_stmt 1 view .LVU34
 382:./fs/ramfs/ramfs.c **** }
 169              		.loc 1 382 1 is_stmt 0 view .LVU35
 170 0018 7047     		bx	lr
 171              	.L9:
 172 001a 00BF     		.align	2
 173              	.L8:
 174 001c 4E61BC00 		.word	12345678
 175              		.cfi_endproc
 176              	.LFE1058:
 178              		.section	.text.initramfs_get_dentry,"ax",%progbits
 179              		.align	1
 180              		.syntax unified
 181              		.thumb
 182              		.thumb_func
 184              	initramfs_get_dentry:
 185              	.LVL10:
 186              	.LFB1059:
 383:./fs/ramfs/ramfs.c **** 
 384:./fs/ramfs/ramfs.c **** 
 385:./fs/ramfs/ramfs.c **** 
 386:./fs/ramfs/ramfs.c **** static int initramfs_create(struct mnt_idmap * map, struct inode * dir,struct dentry * dentry,umode
ARM GAS  /tmp/cc3Q6Ngl.s 			page 12


 387:./fs/ramfs/ramfs.c **** static struct dentry *initramfs_vfs_lookup(struct inode *dir, struct dentry *dentry, unsigned int f
 388:./fs/ramfs/ramfs.c **** static int initramfs_link(struct dentry *old_dentry, struct inode *dir, struct dentry *dentry);
 389:./fs/ramfs/ramfs.c **** static int initramfs_unlink(struct inode *dir, struct dentry *dentry);
 390:./fs/ramfs/ramfs.c **** static int initramfs_mkdir(struct mnt_idmap *mnt, struct inode *dir, struct dentry *dentry, umode_t
 391:./fs/ramfs/ramfs.c **** static int initramfs_setattr(struct mnt_idmap *map, struct dentry *dentry, struct iattr *iattr);
 392:./fs/ramfs/ramfs.c **** static int  initramfs_getattr (struct mnt_idmap *dmp, const struct path * path,struct kstat *stat, 
 393:./fs/ramfs/ramfs.c **** static int initramfs_rmdir(struct inode *	inode  ,struct dentry *dentry);
 394:./fs/ramfs/ramfs.c **** 
 395:./fs/ramfs/ramfs.c **** static struct inode_operations initramfs_inode_operation = {
 396:./fs/ramfs/ramfs.c ****     .create = initramfs_create,
 397:./fs/ramfs/ramfs.c ****     .lookup = initramfs_vfs_lookup,
 398:./fs/ramfs/ramfs.c ****     .link   = initramfs_link,
 399:./fs/ramfs/ramfs.c ****     .unlink = initramfs_unlink,
 400:./fs/ramfs/ramfs.c ****     .mkdir  = initramfs_mkdir,
 401:./fs/ramfs/ramfs.c ****     .rmdir  = initramfs_rmdir,
 402:./fs/ramfs/ramfs.c ****     .setattr = initramfs_setattr,
 403:./fs/ramfs/ramfs.c ****     .getattr = initramfs_getattr
 404:./fs/ramfs/ramfs.c **** };
 405:./fs/ramfs/ramfs.c **** 
 406:./fs/ramfs/ramfs.c **** static struct dentry * initramfs_get_dentry(struct dentry * vdentry, struct initramfs_dentry *dentr
 407:./fs/ramfs/ramfs.c **** {
 187              		.loc 1 407 1 is_stmt 1 view -0
 188              		.cfi_startproc
 189              		@ args = 0, pretend = 0, frame = 0
 190              		@ frame_needed = 0, uses_anonymous_args = 0
 191              		@ link register save eliminated.
 408:./fs/ramfs/ramfs.c ****     if(dentry == NULL || vdentry == NULL) return NULL;
 192              		.loc 1 408 5 view .LVU37
 193              		.loc 1 408 7 is_stmt 0 view .LVU38
 194 0000 11B1     		cbz	r1, .L12
 195              		.loc 1 408 23 discriminator 2 view .LVU39
 196 0002 10B1     		cbz	r0, .L10
 409:./fs/ramfs/ramfs.c ****     vdentry->d_fsdata = dentry;
 197              		.loc 1 409 5 is_stmt 1 view .LVU40
 198              		.loc 1 409 23 is_stmt 0 view .LVU41
 199 0004 4165     		str	r1, [r0, #84]
 410:./fs/ramfs/ramfs.c ****     return vdentry;
 200              		.loc 1 410 5 is_stmt 1 view .LVU42
 201              		.loc 1 410 12 is_stmt 0 view .LVU43
 202 0006 7047     		bx	lr
 203              	.L12:
 408:./fs/ramfs/ramfs.c ****     if(dentry == NULL || vdentry == NULL) return NULL;
 204              		.loc 1 408 50 discriminator 3 view .LVU44
 205 0008 0846     		mov	r0, r1
 206              	.LVL11:
 207              	.L10:
 411:./fs/ramfs/ramfs.c **** }
 208              		.loc 1 411 1 view .LVU45
 209 000a 7047     		bx	lr
 210              		.cfi_endproc
 211              	.LFE1059:
 213              		.section	.text.initramfs_setattr,"ax",%progbits
 214              		.align	1
 215              		.syntax unified
 216              		.thumb
 217              		.thumb_func
 219              	initramfs_setattr:
ARM GAS  /tmp/cc3Q6Ngl.s 			page 13


 220              	.LVL12:
 221              	.LFB1067:
 412:./fs/ramfs/ramfs.c **** 
 413:./fs/ramfs/ramfs.c **** static int initramfs_create(struct mnt_idmap * map, struct inode * dir,struct dentry * dentry,umode
 414:./fs/ramfs/ramfs.c **** {
 415:./fs/ramfs/ramfs.c ****     char *file_name = d_getname(dentry);
 416:./fs/ramfs/ramfs.c **** 
 417:./fs/ramfs/ramfs.c ****     struct initramfs_inode *dinode = dir->i_private;
 418:./fs/ramfs/ramfs.c ****     struct initramfs_dentry* file = initramfs_lookup(dinode,file_name);
 419:./fs/ramfs/ramfs.c ****     if(file == NULL){
 420:./fs/ramfs/ramfs.c ****         file =  initramfs_create_file(dinode->sb,dinode,&initramfs_file_fops,10,file_name);
 421:./fs/ramfs/ramfs.c ****     }
 422:./fs/ramfs/ramfs.c ****     if (file == NULL){                               //ç¡®å®šæ–‡ä»¶æ˜¯å¦è¢«åˆ›å»º
 423:./fs/ramfs/ramfs.c ****         return -1;
 424:./fs/ramfs/ramfs.c ****     }
 425:./fs/ramfs/ramfs.c ****     file->target_inode->i_mode = S_IFREG | (mode & 0777);
 426:./fs/ramfs/ramfs.c ****     if( initramfs_get_dentry(dentry,file) == NULL){     //æž„å»ºdentry    
 427:./fs/ramfs/ramfs.c ****      return -1;
 428:./fs/ramfs/ramfs.c ****     }  
 429:./fs/ramfs/ramfs.c **** 
 430:./fs/ramfs/ramfs.c ****     struct inode * new_file_inode = initramfs_get_inode(dinode,dir->i_sb);
 431:./fs/ramfs/ramfs.c ****     if(new_file_inode == NULL)
 432:./fs/ramfs/ramfs.c ****         return -1;
 433:./fs/ramfs/ramfs.c **** 
 434:./fs/ramfs/ramfs.c ****     d_add(dentry,new_file_inode); //é€šçŸ¥æ–‡ä»¶ç³»ç»ŸåŠ å…¥ç¼“å­˜ï¼Œå¹¶è¿›è¡Œèµ„æºç»‘å®š
 435:./fs/ramfs/ramfs.c ****    return 0;
 436:./fs/ramfs/ramfs.c **** } 
 437:./fs/ramfs/ramfs.c **** 
 438:./fs/ramfs/ramfs.c **** static struct dentry *initramfs_vfs_lookup(struct inode *dir, struct dentry *dentry, unsigned int f
 439:./fs/ramfs/ramfs.c ****     
 440:./fs/ramfs/ramfs.c ****     struct initramfs_inode *dir_inode = (struct initramfs_inode *)dir->i_private; //èŽ·å–æ–‡ä»¶ç³»
 441:./fs/ramfs/ramfs.c ****     char *name = dentry->d_name.name;                           
 442:./fs/ramfs/ramfs.c ****     struct initramfs_dentry *pos;    
 443:./fs/ramfs/ramfs.c ****     pos = initramfs_lookup(dir_inode,name);       //æŸ¥è¯¢èŽ·å¾—dentry
 444:./fs/ramfs/ramfs.c ****     if(pos == NULL) return NULL;
 445:./fs/ramfs/ramfs.c **** 
 446:./fs/ramfs/ramfs.c ****     if( initramfs_get_dentry(dentry,pos) == NULL)
 447:./fs/ramfs/ramfs.c ****         return NULL;
 448:./fs/ramfs/ramfs.c **** 
 449:./fs/ramfs/ramfs.c ****     struct inode * find_inode = initramfs_get_inode(pos->target_inode,dir->i_sb);
 450:./fs/ramfs/ramfs.c ****     if(find_inode == NULL)
 451:./fs/ramfs/ramfs.c ****         return NULL;
 452:./fs/ramfs/ramfs.c ****     
 453:./fs/ramfs/ramfs.c ****     return d_add(dentry,find_inode);
 454:./fs/ramfs/ramfs.c ****     return NULL;
 455:./fs/ramfs/ramfs.c **** }
 456:./fs/ramfs/ramfs.c **** 
 457:./fs/ramfs/ramfs.c **** 
 458:./fs/ramfs/ramfs.c **** static int initramfs_link(struct dentry *old_dentry, struct inode *dir, struct dentry *dentry)
 459:./fs/ramfs/ramfs.c **** {
 460:./fs/ramfs/ramfs.c ****     struct initramfs_inode *old_inode = (struct initramfs_inode *)old_dentry->d_inode->i_private;
 461:./fs/ramfs/ramfs.c ****     struct initramfs_inode *dir_inode = (struct initramfs_inode *)dir->i_private;
 462:./fs/ramfs/ramfs.c ****     struct initramfs_dentry *new_dentry = initramfs_create_dentry(dir_inode, old_inode, dentry->d_n
 463:./fs/ramfs/ramfs.c ****     if (new_dentry == NULL) {
 464:./fs/ramfs/ramfs.c ****         return -ENOMEM;
 465:./fs/ramfs/ramfs.c ****     }
 466:./fs/ramfs/ramfs.c ****     initramfs_get_dentry(dentry,new_dentry);
ARM GAS  /tmp/cc3Q6Ngl.s 			page 14


 467:./fs/ramfs/ramfs.c ****     dentry->d_sb = dir->i_sb;
 468:./fs/ramfs/ramfs.c ****     d_add(dentry,dentry->d_inode);
 469:./fs/ramfs/ramfs.c ****     return 0;
 470:./fs/ramfs/ramfs.c **** }
 471:./fs/ramfs/ramfs.c **** 
 472:./fs/ramfs/ramfs.c **** static int initramfs_unlink(struct inode *dir, struct dentry *dentry)
 473:./fs/ramfs/ramfs.c **** {
 474:./fs/ramfs/ramfs.c ****     struct initramfs_inode *parent_inode = (struct initramfs_inode *)dir->i_private;
 475:./fs/ramfs/ramfs.c ****     struct initramfs_dentry *delete_dentry = (struct initramfs_dentry *)dentry->d_fsdata;
 476:./fs/ramfs/ramfs.c ****     initramfs_delete_dentry(parent_inode->sb, parent_inode, delete_dentry);
 477:./fs/ramfs/ramfs.c ****     return 0;
 478:./fs/ramfs/ramfs.c **** }
 479:./fs/ramfs/ramfs.c **** 
 480:./fs/ramfs/ramfs.c **** 
 481:./fs/ramfs/ramfs.c **** static int initramfs_mkdir(struct mnt_idmap *mnt, struct inode *dir, struct dentry *dentry, umode_t
 482:./fs/ramfs/ramfs.c **** {
 483:./fs/ramfs/ramfs.c ****     char *file_name = d_getname(dentry);
 484:./fs/ramfs/ramfs.c **** 
 485:./fs/ramfs/ramfs.c ****     struct initramfs_inode *dinode = dir->i_private;
 486:./fs/ramfs/ramfs.c ****     struct initramfs_dentry* file = initramfs_lookup(dinode,file_name);
 487:./fs/ramfs/ramfs.c ****     if(file == NULL){
 488:./fs/ramfs/ramfs.c ****         file =  initramfs_create_dir(dinode->sb,dinode,file_name);
 489:./fs/ramfs/ramfs.c ****     }
 490:./fs/ramfs/ramfs.c ****     if (file == NULL){                               //ç¡®å®šæ–‡ä»¶æ˜¯å¦è¢«åˆ›å»º
 491:./fs/ramfs/ramfs.c ****         return -1;
 492:./fs/ramfs/ramfs.c ****     }
 493:./fs/ramfs/ramfs.c ****     file->target_inode->i_mode = S_IFREG | (mode & 0777);
 494:./fs/ramfs/ramfs.c ****     
 495:./fs/ramfs/ramfs.c ****     if( initramfs_get_dentry(dentry,file) == NULL){     //æž„å»ºdentry    
 496:./fs/ramfs/ramfs.c ****      return -1;
 497:./fs/ramfs/ramfs.c ****     }  
 498:./fs/ramfs/ramfs.c ****     struct inode * new_file_inode = initramfs_get_inode(dinode,dir->i_sb);
 499:./fs/ramfs/ramfs.c ****     if(new_file_inode == NULL)
 500:./fs/ramfs/ramfs.c ****         return -1;
 501:./fs/ramfs/ramfs.c **** 
 502:./fs/ramfs/ramfs.c ****     d_add(dentry,new_file_inode); //é€šçŸ¥æ–‡ä»¶ç³»ç»ŸåŠ å…¥ç¼“å­˜ï¼Œå¹¶è¿›è¡Œèµ„æºç»‘å®š
 503:./fs/ramfs/ramfs.c ****    return 0;
 504:./fs/ramfs/ramfs.c **** }
 505:./fs/ramfs/ramfs.c **** 
 506:./fs/ramfs/ramfs.c **** 
 507:./fs/ramfs/ramfs.c **** static int initramfs_release_dentry(struct dentry *dentry){
 508:./fs/ramfs/ramfs.c ****     struct initramfs_dentry *fs_dentry = dentry->d_fsdata;
 509:./fs/ramfs/ramfs.c ****     dentry_put(fs_dentry->target_inode->sb, fs_dentry);
 510:./fs/ramfs/ramfs.c **** }
 511:./fs/ramfs/ramfs.c **** static int initramfs_rmdir(struct inode *	dir  ,struct dentry *dentry){
 512:./fs/ramfs/ramfs.c ****     initramfs_release_dentry(dentry);
 513:./fs/ramfs/ramfs.c ****     return simple_unlink(dir,dentry);
 514:./fs/ramfs/ramfs.c **** }
 515:./fs/ramfs/ramfs.c **** 
 516:./fs/ramfs/ramfs.c **** static int initramfs_setattr(struct mnt_idmap *map, struct dentry *dentry, struct iattr *iattr)
 517:./fs/ramfs/ramfs.c **** {
 222              		.loc 1 517 1 is_stmt 1 view -0
 223              		.cfi_startproc
 224              		@ args = 0, pretend = 0, frame = 0
 225              		@ frame_needed = 0, uses_anonymous_args = 0
 226              		@ link register save eliminated.
 518:./fs/ramfs/ramfs.c ****     struct initramfs_dentry* file = dentry->d_fsdata;
ARM GAS  /tmp/cc3Q6Ngl.s 			page 15


 227              		.loc 1 518 5 view .LVU47
 228              		.loc 1 518 30 is_stmt 0 view .LVU48
 229 0000 4B6D     		ldr	r3, [r1, #84]
 230              	.LVL13:
 519:./fs/ramfs/ramfs.c ****     file->target_inode->i_mode = (iattr->ia_mode & S_IFMT) | iattr->ia_mode;
 231              		.loc 1 519 5 is_stmt 1 view .LVU49
 232              		.loc 1 519 40 is_stmt 0 view .LVU50
 233 0002 9288     		ldrh	r2, [r2, #4]
 234              	.LVL14:
 235              		.loc 1 519 9 view .LVU51
 236 0004 9B68     		ldr	r3, [r3, #8]
 237              	.LVL15:
 238              		.loc 1 519 32 view .LVU52
 239 0006 5A60     		str	r2, [r3, #4]
 240              	.LVL16:
 520:./fs/ramfs/ramfs.c ****     return 0;
 241              		.loc 1 520 5 is_stmt 1 view .LVU53
 521:./fs/ramfs/ramfs.c **** }
 242              		.loc 1 521 1 is_stmt 0 view .LVU54
 243 0008 0020     		movs	r0, #0
 244              	.LVL17:
 245              		.loc 1 521 1 view .LVU55
 246 000a 7047     		bx	lr
 247              		.cfi_endproc
 248              	.LFE1067:
 250              		.section	.init.text,"ax",%progbits
 251              		.align	1
 252              		.syntax unified
 253              		.thumb
 254              		.thumb_func
 256              	initramfs_ops_init:
 257              	.LFB1069:
 522:./fs/ramfs/ramfs.c **** static int  initramfs_getattr (struct mnt_idmap *dmp, const struct path * path,struct kstat *stat, 
 523:./fs/ramfs/ramfs.c **** {
 524:./fs/ramfs/ramfs.c ****     struct dentry *d = path->dentry;
 525:./fs/ramfs/ramfs.c ****     struct initramfs_dentry* file = d->d_fsdata;
 526:./fs/ramfs/ramfs.c ****     struct initramfs_inode *inode;
 527:./fs/ramfs/ramfs.c **** 
 528:./fs/ramfs/ramfs.c ****     if (!file || !(inode = file->target_inode))
 529:./fs/ramfs/ramfs.c ****     return -ENOENT;
 530:./fs/ramfs/ramfs.c ****     stat->mode = inode->i_mode;
 531:./fs/ramfs/ramfs.c ****     stat->dev  = MKDEV(inode->major, 0);
 532:./fs/ramfs/ramfs.c ****     stat->ino  = (unsigned long)inode;  
 533:./fs/ramfs/ramfs.c ****     stat->nlink = atomic_read(&inode->dentry_count);
 534:./fs/ramfs/ramfs.c ****     stat->size  = 0; 
 535:./fs/ramfs/ramfs.c ****     stat->atime.tv_nsec = jiffies/HZ;
 536:./fs/ramfs/ramfs.c ****     stat->atime.tv_sec  = jiffies%HZ;
 537:./fs/ramfs/ramfs.c ****     stat->mtime = stat->atime;
 538:./fs/ramfs/ramfs.c ****     stat->ctime = stat->atime;
 539:./fs/ramfs/ramfs.c ****     stat->blksize = PAGE_SIZE;
 540:./fs/ramfs/ramfs.c ****     stat->blocks  = 0;
 541:./fs/ramfs/ramfs.c ****     return 0;
 542:./fs/ramfs/ramfs.c **** }
 543:./fs/ramfs/ramfs.c **** 
 544:./fs/ramfs/ramfs.c **** static struct dentry_operations initramfs_dentry_operation = {
 545:./fs/ramfs/ramfs.c ****     .d_release = initramfs_release_dentry,
 546:./fs/ramfs/ramfs.c **** };
ARM GAS  /tmp/cc3Q6Ngl.s 			page 16


 547:./fs/ramfs/ramfs.c **** 
 548:./fs/ramfs/ramfs.c **** static int __init initramfs_ops_init(void){
 258              		.loc 1 548 43 is_stmt 1 view -0
 259              		.cfi_startproc
 260              		@ args = 0, pretend = 0, frame = 0
 261              		@ frame_needed = 0, uses_anonymous_args = 0
 262 0000 08B5     		push	{r3, lr}
 263              	.LCFI2:
 264              		.cfi_def_cfa_offset 8
 265              		.cfi_offset 3, -8
 266              		.cfi_offset 14, -4
 549:./fs/ramfs/ramfs.c ****     register_filesystem(&fs_type);
 267              		.loc 1 549 5 view .LVU57
 268 0002 0248     		ldr	r0, .L17
 269 0004 FFF7FEFF 		bl	register_filesystem
 270              	.LVL18:
 550:./fs/ramfs/ramfs.c ****     return 0;
 271              		.loc 1 550 5 view .LVU58
 551:./fs/ramfs/ramfs.c **** }
 272              		.loc 1 551 1 is_stmt 0 view .LVU59
 273 0008 0020     		movs	r0, #0
 274 000a 08BD     		pop	{r3, pc}
 275              	.L18:
 276              		.align	2
 277              	.L17:
 278 000c 00000000 		.word	fs_type
 279              		.cfi_endproc
 280              	.LFE1069:
 282              		.section	.text.initramfs_kill_sb,"ax",%progbits
 283              		.align	1
 284              		.syntax unified
 285              		.thumb
 286              		.thumb_func
 288              	initramfs_kill_sb:
 289              	.LVL19:
 290              	.LFB1054:
 329:./fs/ramfs/ramfs.c ****     put_super(sb);
 291              		.loc 1 329 56 is_stmt 1 view -0
 292              		.cfi_startproc
 293              		@ args = 0, pretend = 0, frame = 0
 294              		@ frame_needed = 0, uses_anonymous_args = 0
 329:./fs/ramfs/ramfs.c ****     put_super(sb);
 295              		.loc 1 329 56 is_stmt 0 view .LVU61
 296 0000 08B5     		push	{r3, lr}
 297              	.LCFI3:
 298              		.cfi_def_cfa_offset 8
 299              		.cfi_offset 3, -8
 300              		.cfi_offset 14, -4
 330:./fs/ramfs/ramfs.c **** }
 301              		.loc 1 330 5 is_stmt 1 view .LVU62
 302 0002 FFF7FEFF 		bl	put_super
 303              	.LVL20:
 331:./fs/ramfs/ramfs.c **** 
 304              		.loc 1 331 1 is_stmt 0 view .LVU63
 305 0006 08BD     		pop	{r3, pc}
 306              		.cfi_endproc
 307              	.LFE1054:
ARM GAS  /tmp/cc3Q6Ngl.s 			page 17


 309              		.section	.rodata.initramfs_release.str1.4,"aMS",%progbits,1
 310              		.align	2
 311              	.LC0:
 312 0000 696E6974 		.ascii	"initramfs test close\012\000"
 312      72616D66 
 312      73207465 
 312      73742063 
 312      6C6F7365 
 313              		.section	.text.initramfs_release,"ax",%progbits
 314              		.align	1
 315              		.syntax unified
 316              		.thumb
 317              		.thumb_func
 319              	initramfs_release:
 320              	.LVL21:
 321              	.LFB1038:
  44:./fs/ramfs/ramfs.c ****     early_printk("initramfs test close\n");
 322              		.loc 1 44 69 is_stmt 1 view -0
 323              		.cfi_startproc
 324              		@ args = 0, pretend = 0, frame = 0
 325              		@ frame_needed = 0, uses_anonymous_args = 0
  44:./fs/ramfs/ramfs.c ****     early_printk("initramfs test close\n");
 326              		.loc 1 44 69 is_stmt 0 view .LVU65
 327 0000 08B5     		push	{r3, lr}
 328              	.LCFI4:
 329              		.cfi_def_cfa_offset 8
 330              		.cfi_offset 3, -8
 331              		.cfi_offset 14, -4
  45:./fs/ramfs/ramfs.c ****     return 0;
 332              		.loc 1 45 5 is_stmt 1 view .LVU66
 333 0002 0248     		ldr	r0, .L23
 334              	.LVL22:
  45:./fs/ramfs/ramfs.c ****     return 0;
 335              		.loc 1 45 5 is_stmt 0 view .LVU67
 336 0004 FFF7FEFF 		bl	early_printk
 337              	.LVL23:
  46:./fs/ramfs/ramfs.c **** }
 338              		.loc 1 46 5 is_stmt 1 view .LVU68
  47:./fs/ramfs/ramfs.c **** static int initramfs_read(struct file *file, char __user * data, size_t size, loff_t *offset){
 339              		.loc 1 47 1 is_stmt 0 view .LVU69
 340 0008 0020     		movs	r0, #0
 341 000a 08BD     		pop	{r3, pc}
 342              	.L24:
 343              		.align	2
 344              	.L23:
 345 000c 00000000 		.word	.LC0
 346              		.cfi_endproc
 347              	.LFE1038:
 349              		.section	.rodata.initramfs_open.str1.4,"aMS",%progbits,1
 350              		.align	2
 351              	.LC1:
 352 0000 696E6974 		.ascii	"initramfs test open\012\000"
 352      72616D66 
 352      73207465 
 352      7374206F 
 352      70656E0A 
 353              		.section	.text.initramfs_open,"ax",%progbits
ARM GAS  /tmp/cc3Q6Ngl.s 			page 18


 354              		.align	1
 355              		.syntax unified
 356              		.thumb
 357              		.thumb_func
 359              	initramfs_open:
 360              	.LVL24:
 361              	.LFB1037:
  40:./fs/ramfs/ramfs.c ****     early_printk("initramfs test open\n");
 362              		.loc 1 40 66 is_stmt 1 view -0
 363              		.cfi_startproc
 364              		@ args = 0, pretend = 0, frame = 0
 365              		@ frame_needed = 0, uses_anonymous_args = 0
  40:./fs/ramfs/ramfs.c ****     early_printk("initramfs test open\n");
 366              		.loc 1 40 66 is_stmt 0 view .LVU71
 367 0000 08B5     		push	{r3, lr}
 368              	.LCFI5:
 369              		.cfi_def_cfa_offset 8
 370              		.cfi_offset 3, -8
 371              		.cfi_offset 14, -4
  41:./fs/ramfs/ramfs.c ****     return 0;
 372              		.loc 1 41 5 is_stmt 1 view .LVU72
 373 0002 0248     		ldr	r0, .L27
 374              	.LVL25:
  41:./fs/ramfs/ramfs.c ****     return 0;
 375              		.loc 1 41 5 is_stmt 0 view .LVU73
 376 0004 FFF7FEFF 		bl	early_printk
 377              	.LVL26:
  42:./fs/ramfs/ramfs.c **** }
 378              		.loc 1 42 5 is_stmt 1 view .LVU74
  43:./fs/ramfs/ramfs.c **** static int initramfs_release(struct inode *inode, struct file *file){
 379              		.loc 1 43 1 is_stmt 0 view .LVU75
 380 0008 0020     		movs	r0, #0
 381 000a 08BD     		pop	{r3, pc}
 382              	.L28:
 383              		.align	2
 384              	.L27:
 385 000c 00000000 		.word	.LC1
 386              		.cfi_endproc
 387              	.LFE1037:
 389              		.section	.rodata.initramfs_write.str1.4,"aMS",%progbits,1
 390              		.align	2
 391              	.LC2:
 392 0000 696E6974 		.ascii	"initramfs test write\012\000"
 392      72616D66 
 392      73207465 
 392      73742077 
 392      72697465 
 393              		.section	.text.initramfs_write,"ax",%progbits
 394              		.align	1
 395              		.syntax unified
 396              		.thumb
 397              		.thumb_func
 399              	initramfs_write:
 400              	.LVL27:
 401              	.LFB1040:
  52:./fs/ramfs/ramfs.c ****     early_printk("initramfs test write\n");
 402              		.loc 1 52 95 is_stmt 1 view -0
ARM GAS  /tmp/cc3Q6Ngl.s 			page 19


 403              		.cfi_startproc
 404              		@ args = 0, pretend = 0, frame = 0
 405              		@ frame_needed = 0, uses_anonymous_args = 0
  52:./fs/ramfs/ramfs.c ****     early_printk("initramfs test write\n");
 406              		.loc 1 52 95 is_stmt 0 view .LVU77
 407 0000 08B5     		push	{r3, lr}
 408              	.LCFI6:
 409              		.cfi_def_cfa_offset 8
 410              		.cfi_offset 3, -8
 411              		.cfi_offset 14, -4
  53:./fs/ramfs/ramfs.c ****     return 0;
 412              		.loc 1 53 5 is_stmt 1 view .LVU78
 413 0002 0248     		ldr	r0, .L31
 414              	.LVL28:
  53:./fs/ramfs/ramfs.c ****     return 0;
 415              		.loc 1 53 5 is_stmt 0 view .LVU79
 416 0004 FFF7FEFF 		bl	early_printk
 417              	.LVL29:
  54:./fs/ramfs/ramfs.c **** }
 418              		.loc 1 54 5 is_stmt 1 view .LVU80
  55:./fs/ramfs/ramfs.c **** 
 419              		.loc 1 55 1 is_stmt 0 view .LVU81
 420 0008 0020     		movs	r0, #0
 421 000a 08BD     		pop	{r3, pc}
 422              	.L32:
 423              		.align	2
 424              	.L31:
 425 000c 00000000 		.word	.LC2
 426              		.cfi_endproc
 427              	.LFE1040:
 429              		.section	.rodata.initramfs_read.str1.4,"aMS",%progbits,1
 430              		.align	2
 431              	.LC3:
 432 0000 696E6974 		.ascii	"initramfs test read\012\000"
 432      72616D66 
 432      73207465 
 432      73742072 
 432      6561640A 
 433              		.section	.text.initramfs_read,"ax",%progbits
 434              		.align	1
 435              		.syntax unified
 436              		.thumb
 437              		.thumb_func
 439              	initramfs_read:
 440              	.LVL30:
 441              	.LFB1039:
  48:./fs/ramfs/ramfs.c ****     early_printk("initramfs test read\n");
 442              		.loc 1 48 94 is_stmt 1 view -0
 443              		.cfi_startproc
 444              		@ args = 0, pretend = 0, frame = 0
 445              		@ frame_needed = 0, uses_anonymous_args = 0
  48:./fs/ramfs/ramfs.c ****     early_printk("initramfs test read\n");
 446              		.loc 1 48 94 is_stmt 0 view .LVU83
 447 0000 08B5     		push	{r3, lr}
 448              	.LCFI7:
 449              		.cfi_def_cfa_offset 8
 450              		.cfi_offset 3, -8
ARM GAS  /tmp/cc3Q6Ngl.s 			page 20


 451              		.cfi_offset 14, -4
  49:./fs/ramfs/ramfs.c ****     return 0;
 452              		.loc 1 49 5 is_stmt 1 view .LVU84
 453 0002 0248     		ldr	r0, .L35
 454              	.LVL31:
  49:./fs/ramfs/ramfs.c ****     return 0;
 455              		.loc 1 49 5 is_stmt 0 view .LVU85
 456 0004 FFF7FEFF 		bl	early_printk
 457              	.LVL32:
  50:./fs/ramfs/ramfs.c **** }
 458              		.loc 1 50 5 is_stmt 1 view .LVU86
  51:./fs/ramfs/ramfs.c **** static int initramfs_write(struct file *file, char __user * data, size_t size, loff_t *offset){
 459              		.loc 1 51 1 is_stmt 0 view .LVU87
 460 0008 0020     		movs	r0, #0
 461 000a 08BD     		pop	{r3, pc}
 462              	.L36:
 463              		.align	2
 464              	.L35:
 465 000c 00000000 		.word	.LC3
 466              		.cfi_endproc
 467              	.LFE1039:
 469              		.section	.text.__spin_lock,"ax",%progbits
 470              		.align	1
 471              		.syntax unified
 472              		.thumb
 473              		.thumb_func
 475              	__spin_lock:
 476              	.LVL33:
 477              	.LFB853:
  15:./arch/arm_m/include/asm/spinlock.h **** 
 478              		.loc 2 15 47 is_stmt 1 view -0
 479              		.cfi_startproc
 480              		@ args = 0, pretend = 0, frame = 0
 481              		@ frame_needed = 0, uses_anonymous_args = 0
  15:./arch/arm_m/include/asm/spinlock.h **** 
 482              		.loc 2 15 47 is_stmt 0 view .LVU89
 483 0000 38B5     		push	{r3, r4, r5, lr}
 484              	.LCFI8:
 485              		.cfi_def_cfa_offset 16
 486              		.cfi_offset 3, -16
 487              		.cfi_offset 4, -12
 488              		.cfi_offset 5, -8
 489              		.cfi_offset 14, -4
 490 0002 0446     		mov	r4, r0
  17:./arch/arm_m/include/asm/spinlock.h ****     if(lock->flag == 0){
 491              		.loc 2 17 5 is_stmt 1 view .LVU90
 492 0004 FFF7FEFF 		bl	stop_all_scheduler
 493              	.LVL34:
  18:./arch/arm_m/include/asm/spinlock.h ****           lock->flag = 1;  
 494              		.loc 2 18 5 view .LVU91
  18:./arch/arm_m/include/asm/spinlock.h ****           lock->flag = 1;  
 495              		.loc 2 18 12 is_stmt 0 view .LVU92
 496 0008 2368     		ldr	r3, [r4]
  18:./arch/arm_m/include/asm/spinlock.h ****           lock->flag = 1;  
 497              		.loc 2 18 7 view .LVU93
 498 000a 2BB9     		cbnz	r3, .L38
  19:./arch/arm_m/include/asm/spinlock.h ****           start_all_scheduler();
ARM GAS  /tmp/cc3Q6Ngl.s 			page 21


 499              		.loc 2 19 11 is_stmt 1 view .LVU94
  19:./arch/arm_m/include/asm/spinlock.h ****           start_all_scheduler();
 500              		.loc 2 19 22 is_stmt 0 view .LVU95
 501 000c 0125     		movs	r5, #1
 502 000e 2560     		str	r5, [r4]
  20:./arch/arm_m/include/asm/spinlock.h ****         return 1;
 503              		.loc 2 20 11 is_stmt 1 view .LVU96
 504 0010 FFF7FEFF 		bl	start_all_scheduler
 505              	.LVL35:
  21:./arch/arm_m/include/asm/spinlock.h ****     }
 506              		.loc 2 21 9 view .LVU97
  21:./arch/arm_m/include/asm/spinlock.h ****     }
 507              		.loc 2 21 16 is_stmt 0 view .LVU98
 508 0014 2846     		mov	r0, r5
 509              	.L37:
  28:./arch/arm_m/include/asm/spinlock.h **** 
 510              		.loc 2 28 1 view .LVU99
 511 0016 38BD     		pop	{r3, r4, r5, pc}
 512              	.LVL36:
 513              	.L38:
  25:./arch/arm_m/include/asm/spinlock.h ****         return 0;
 514              		.loc 2 25 9 is_stmt 1 view .LVU100
 515 0018 FFF7FEFF 		bl	start_all_scheduler
 516              	.LVL37:
  26:./arch/arm_m/include/asm/spinlock.h ****     }
 517              		.loc 2 26 9 view .LVU101
  26:./arch/arm_m/include/asm/spinlock.h ****     }
 518              		.loc 2 26 16 is_stmt 0 view .LVU102
 519 001c 0020     		movs	r0, #0
 520 001e FAE7     		b	.L37
 521              		.cfi_endproc
 522              	.LFE853:
 524              		.section	.text.spin_lock,"ax",%progbits
 525              		.align	1
 526              		.syntax unified
 527              		.thumb
 528              		.thumb_func
 530              	spin_lock:
 531              	.LVL38:
 532              	.LFB856:
  15:./include/linux/spinlock.h ****     while (1)
 533              		.loc 3 15 1 is_stmt 1 view -0
 534              		.cfi_startproc
 535              		@ args = 0, pretend = 0, frame = 0
 536              		@ frame_needed = 0, uses_anonymous_args = 0
  15:./include/linux/spinlock.h ****     while (1)
 537              		.loc 3 15 1 is_stmt 0 view .LVU104
 538 0000 38B5     		push	{r3, r4, r5, lr}
 539              	.LCFI9:
 540              		.cfi_def_cfa_offset 16
 541              		.cfi_offset 3, -16
 542              		.cfi_offset 4, -12
 543              		.cfi_offset 5, -8
 544              		.cfi_offset 14, -4
 545 0002 0446     		mov	r4, r0
 546 0004 06E0     		b	.L44
 547              	.LVL39:
ARM GAS  /tmp/cc3Q6Ngl.s 			page 22


 548              	.L46:
  19:./include/linux/spinlock.h ****             break;
 549              		.loc 3 19 13 is_stmt 1 view .LVU105
  19:./include/linux/spinlock.h ****             break;
 550              		.loc 3 19 27 is_stmt 0 view .LVU106
 551 0006 FFF7FEFF 		bl	get_current_task
 552              	.LVL40:
  19:./include/linux/spinlock.h ****             break;
 553              		.loc 3 19 25 discriminator 1 view .LVU107
 554 000a 2060     		str	r0, [r4]
  20:./include/linux/spinlock.h ****         }
 555              		.loc 3 20 13 is_stmt 1 view .LVU108
 556              	.L41:
  29:./include/linux/spinlock.h **** 
 557              		.loc 3 29 1 is_stmt 0 view .LVU109
 558 000c 38BD     		pop	{r3, r4, r5, pc}
 559              	.LVL41:
 560              	.L47:
  26:./include/linux/spinlock.h ****         }
 561              		.loc 3 26 13 is_stmt 1 view .LVU110
 562 000e 0520     		movs	r0, #5
 563 0010 FFF7FEFF 		bl	__delay
 564              	.LVL42:
  16:./include/linux/spinlock.h ****     {
 565              		.loc 3 16 11 view .LVU111
 566              	.L44:
  16:./include/linux/spinlock.h ****     {
 567              		.loc 3 16 5 view .LVU112
  18:./include/linux/spinlock.h ****             lock->owner = get_current_task();
 568              		.loc 3 18 9 view .LVU113
  18:./include/linux/spinlock.h ****             lock->owner = get_current_task();
 569              		.loc 3 18 12 is_stmt 0 view .LVU114
 570 0014 2046     		mov	r0, r4
 571 0016 FFF7FEFF 		bl	__spin_lock
 572              	.LVL43:
  18:./include/linux/spinlock.h ****             lock->owner = get_current_task();
 573              		.loc 3 18 11 discriminator 1 view .LVU115
 574 001a 0128     		cmp	r0, #1
 575 001c F3D0     		beq	.L46
  22:./include/linux/spinlock.h ****             return;   
 576              		.loc 3 22 15 is_stmt 1 view .LVU116
  22:./include/linux/spinlock.h ****             return;   
 577              		.loc 3 22 22 is_stmt 0 view .LVU117
 578 001e 2568     		ldr	r5, [r4]
  22:./include/linux/spinlock.h ****             return;   
 579              		.loc 3 22 33 view .LVU118
 580 0020 FFF7FEFF 		bl	get_current_task
 581              	.LVL44:
  22:./include/linux/spinlock.h ****             return;   
 582              		.loc 3 22 17 discriminator 1 view .LVU119
 583 0024 8542     		cmp	r5, r0
 584 0026 F2D1     		bne	.L47
 585 0028 F0E7     		b	.L41
 586              		.cfi_endproc
 587              	.LFE856:
 589              		.section	.text.initramfs_create_empty_inode,"ax",%progbits
 590              		.align	1
ARM GAS  /tmp/cc3Q6Ngl.s 			page 23


 591              		.syntax unified
 592              		.thumb
 593              		.thumb_func
 595              	initramfs_create_empty_inode:
 596              	.LVL45:
 597              	.LFB1041:
  67:./fs/ramfs/ramfs.c ****     if(fop == NULL) return NULL;
 598              		.loc 1 67 1 is_stmt 1 view -0
 599              		.cfi_startproc
 600              		@ args = 0, pretend = 0, frame = 0
 601              		@ frame_needed = 0, uses_anonymous_args = 0
  67:./fs/ramfs/ramfs.c ****     if(fop == NULL) return NULL;
 602              		.loc 1 67 1 is_stmt 0 view .LVU121
 603 0000 F8B5     		push	{r3, r4, r5, r6, r7, lr}
 604              	.LCFI10:
 605              		.cfi_def_cfa_offset 24
 606              		.cfi_offset 3, -24
 607              		.cfi_offset 4, -20
 608              		.cfi_offset 5, -16
 609              		.cfi_offset 6, -12
 610              		.cfi_offset 7, -8
 611              		.cfi_offset 14, -4
  68:./fs/ramfs/ramfs.c ****     struct initramfs_inode *initram_inode = kmalloc(sizeof(struct initramfs_inode),GFP_KERNEL);
 612              		.loc 1 68 5 is_stmt 1 view .LVU122
  68:./fs/ramfs/ramfs.c ****     struct initramfs_inode *initram_inode = kmalloc(sizeof(struct initramfs_inode),GFP_KERNEL);
 613              		.loc 1 68 7 is_stmt 0 view .LVU123
 614 0002 0F46     		mov	r7, r1
 615 0004 69B3     		cbz	r1, .L50
 616 0006 0546     		mov	r5, r0
 617 0008 1646     		mov	r6, r2
  69:./fs/ramfs/ramfs.c ****     if(initram_inode == NULL) return NULL;
 618              		.loc 1 69 5 is_stmt 1 view .LVU124
 619              	.LVL46:
 620              	.LBB225:
 621              	.LBI225:
 622              		.file 4 "./include/linux/slab.h"
   1:./include/linux/slab.h **** /* SPDX-License-Identifier: GPL-2.0 */
   2:./include/linux/slab.h **** /*
   3:./include/linux/slab.h ****  * Written by Mark Hemment, 1996 (markhe@nextd.demon.co.uk).
   4:./include/linux/slab.h ****  *
   5:./include/linux/slab.h ****  * (C) SGI 2006, Christoph Lameter
   6:./include/linux/slab.h ****  * 	Cleaned up and restructured to ease the addition of alternative
   7:./include/linux/slab.h ****  * 	implementations of SLAB allocators.
   8:./include/linux/slab.h ****  * (C) Linux Foundation 2008-2013
   9:./include/linux/slab.h ****  *      Unified interface for all slab allocators
  10:./include/linux/slab.h ****  */
  11:./include/linux/slab.h **** 
  12:./include/linux/slab.h **** #ifndef _LINUX_SLAB_H
  13:./include/linux/slab.h **** #define	_LINUX_SLAB_H
  14:./include/linux/slab.h **** 
  15:./include/linux/slab.h **** #include <linux/cache.h>
  16:./include/linux/slab.h **** #include <linux/overflow.h>
  17:./include/linux/slab.h **** #include <linux/types.h>
  18:./include/linux/slab.h **** #include <linux/raid/pq.h>
  19:./include/linux/slab.h **** #include <linux/gfp_types.h>
  20:./include/linux/slab.h **** #include <linux/numa.h>
  21:./include/linux/slab.h **** #include <linux/reciprocal_div.h>
ARM GAS  /tmp/cc3Q6Ngl.s 			page 24


  22:./include/linux/slab.h **** #include <linux/spinlock.h>
  23:./include/linux/slab.h **** 
  24:./include/linux/slab.h **** enum _slab_flag_bits {
  25:./include/linux/slab.h **** 	_SLAB_CONSISTENCY_CHECKS,
  26:./include/linux/slab.h **** 	_SLAB_RED_ZONE,
  27:./include/linux/slab.h **** 	_SLAB_POISON,
  28:./include/linux/slab.h **** 	_SLAB_KMALLOC,
  29:./include/linux/slab.h **** 	_SLAB_HWCACHE_ALIGN,
  30:./include/linux/slab.h **** 	_SLAB_CACHE_DMA,
  31:./include/linux/slab.h **** 	_SLAB_CACHE_DMA32,
  32:./include/linux/slab.h **** 	_SLAB_STORE_USER,
  33:./include/linux/slab.h **** 	_SLAB_PANIC,
  34:./include/linux/slab.h **** 	_SLAB_TYPESAFE_BY_RCU,
  35:./include/linux/slab.h **** 	_SLAB_TRACE,
  36:./include/linux/slab.h **** #ifdef CONFIG_DEBUG_OBJECTS
  37:./include/linux/slab.h **** 	_SLAB_DEBUG_OBJECTS,
  38:./include/linux/slab.h **** #endif
  39:./include/linux/slab.h **** 	_SLAB_NOLEAKTRACE,
  40:./include/linux/slab.h **** 	_SLAB_NO_MERGE,
  41:./include/linux/slab.h **** #ifdef CONFIG_FAILSLAB
  42:./include/linux/slab.h **** 	_SLAB_FAILSLAB,
  43:./include/linux/slab.h **** #endif
  44:./include/linux/slab.h **** #ifdef CONFIG_MEMCG
  45:./include/linux/slab.h **** 	_SLAB_ACCOUNT,
  46:./include/linux/slab.h **** #endif
  47:./include/linux/slab.h **** #ifdef CONFIG_KASAN_GENERIC
  48:./include/linux/slab.h **** 	_SLAB_KASAN,
  49:./include/linux/slab.h **** #endif
  50:./include/linux/slab.h **** 	_SLAB_NO_USER_FLAGS,
  51:./include/linux/slab.h **** #ifdef CONFIG_KFENCE
  52:./include/linux/slab.h **** 	_SLAB_SKIP_KFENCE,
  53:./include/linux/slab.h **** #endif
  54:./include/linux/slab.h **** #ifndef CONFIG_SLUB_TINY
  55:./include/linux/slab.h **** 	_SLAB_RECLAIM_ACCOUNT,
  56:./include/linux/slab.h **** #endif
  57:./include/linux/slab.h **** 	_SLAB_OBJECT_POISON,
  58:./include/linux/slab.h **** 	_SLAB_CMPXCHG_DOUBLE,
  59:./include/linux/slab.h **** #ifdef CONFIG_SLAB_OBJ_EXT
  60:./include/linux/slab.h **** 	_SLAB_NO_OBJ_EXT,
  61:./include/linux/slab.h **** #endif
  62:./include/linux/slab.h **** 	_SLAB_FLAGS_LAST_BIT
  63:./include/linux/slab.h **** };
  64:./include/linux/slab.h **** 
  65:./include/linux/slab.h **** 
  66:./include/linux/slab.h **** 
  67:./include/linux/slab.h **** #define __SLAB_FLAG_BIT(nr)	((slab_flags_t __force)(1U << (nr)))
  68:./include/linux/slab.h **** #define __SLAB_FLAG_UNUSED	((slab_flags_t __force)(0U))
  69:./include/linux/slab.h **** 
  70:./include/linux/slab.h **** /*
  71:./include/linux/slab.h ****  * Flags to pass to kmem_cache_create().
  72:./include/linux/slab.h ****  * The ones marked DEBUG need CONFIG_SLUB_DEBUG enabled, otherwise are no-op
  73:./include/linux/slab.h ****  */
  74:./include/linux/slab.h **** /* DEBUG: Perform (expensive) checks on alloc/free */
  75:./include/linux/slab.h **** #define SLAB_CONSISTENCY_CHECKS	__SLAB_FLAG_BIT(_SLAB_CONSISTENCY_CHECKS)
  76:./include/linux/slab.h **** /* DEBUG: Red zone objs in a cache */
  77:./include/linux/slab.h **** #define SLAB_RED_ZONE		__SLAB_FLAG_BIT(_SLAB_RED_ZONE)
  78:./include/linux/slab.h **** /* DEBUG: Poison objects */
ARM GAS  /tmp/cc3Q6Ngl.s 			page 25


  79:./include/linux/slab.h **** #define SLAB_POISON		__SLAB_FLAG_BIT(_SLAB_POISON)
  80:./include/linux/slab.h **** /* Indicate a kmalloc slab */
  81:./include/linux/slab.h **** #define SLAB_KMALLOC		__SLAB_FLAG_BIT(_SLAB_KMALLOC)
  82:./include/linux/slab.h **** /**
  83:./include/linux/slab.h ****  * define SLAB_HWCACHE_ALIGN - Align objects on cache line boundaries.
  84:./include/linux/slab.h ****  *
  85:./include/linux/slab.h ****  * Sufficiently large objects are aligned on cache line boundary. For object
  86:./include/linux/slab.h ****  * size smaller than a half of cache line size, the alignment is on the half of
  87:./include/linux/slab.h ****  * cache line size. In general, if object size is smaller than 1/2^n of cache
  88:./include/linux/slab.h ****  * line size, the alignment is adjusted to 1/2^n.
  89:./include/linux/slab.h ****  *
  90:./include/linux/slab.h ****  * If explicit alignment is also requested by the respective
  91:./include/linux/slab.h ****  * &struct kmem_cache_args field, the greater of both is alignments is applied.
  92:./include/linux/slab.h ****  */
  93:./include/linux/slab.h **** #define SLAB_HWCACHE_ALIGN	__SLAB_FLAG_BIT(_SLAB_HWCACHE_ALIGN)
  94:./include/linux/slab.h **** /* Use GFP_DMA memory */
  95:./include/linux/slab.h **** #define SLAB_CACHE_DMA		__SLAB_FLAG_BIT(_SLAB_CACHE_DMA)
  96:./include/linux/slab.h **** /* Use GFP_DMA32 memory */
  97:./include/linux/slab.h **** #define SLAB_CACHE_DMA32	__SLAB_FLAG_BIT(_SLAB_CACHE_DMA32)
  98:./include/linux/slab.h **** /* DEBUG: Store the last owner for bug hunting */
  99:./include/linux/slab.h **** #define SLAB_STORE_USER		__SLAB_FLAG_BIT(_SLAB_STORE_USER)
 100:./include/linux/slab.h **** /* Panic if kmem_cache_create() fails */
 101:./include/linux/slab.h **** #define SLAB_PANIC		__SLAB_FLAG_BIT(_SLAB_PANIC)
 102:./include/linux/slab.h **** /**
 103:./include/linux/slab.h ****  * define SLAB_TYPESAFE_BY_RCU - **WARNING** READ THIS!
 104:./include/linux/slab.h ****  *
 105:./include/linux/slab.h ****  * This delays freeing the SLAB page by a grace period, it does _NOT_
 106:./include/linux/slab.h ****  * delay object freeing. This means that if you do kmem_cache_free()
 107:./include/linux/slab.h ****  * that memory location is free to be reused at any time. Thus it may
 108:./include/linux/slab.h ****  * be possible to see another object there in the same RCU grace period.
 109:./include/linux/slab.h ****  *
 110:./include/linux/slab.h ****  * This feature only ensures the memory location backing the object
 111:./include/linux/slab.h ****  * stays valid, the trick to using this is relying on an independent
 112:./include/linux/slab.h ****  * object validation pass. Something like:
 113:./include/linux/slab.h ****  *
 114:./include/linux/slab.h ****  * ::
 115:./include/linux/slab.h ****  *
 116:./include/linux/slab.h ****  *  begin:
 117:./include/linux/slab.h ****  *   rcu_read_lock();
 118:./include/linux/slab.h ****  *   obj = lockless_lookup(key);
 119:./include/linux/slab.h ****  *   if (obj) {
 120:./include/linux/slab.h ****  *     if (!try_get_ref(obj)) // might fail for free objects
 121:./include/linux/slab.h ****  *       rcu_read_unlock();
 122:./include/linux/slab.h ****  *       goto begin;
 123:./include/linux/slab.h ****  *
 124:./include/linux/slab.h ****  *     if (obj->key != key) { // not the object we expected
 125:./include/linux/slab.h ****  *       put_ref(obj);
 126:./include/linux/slab.h ****  *       rcu_read_unlock();
 127:./include/linux/slab.h ****  *       goto begin;
 128:./include/linux/slab.h ****  *     }
 129:./include/linux/slab.h ****  *   }
 130:./include/linux/slab.h ****  *  rcu_read_unlock();
 131:./include/linux/slab.h ****  *
 132:./include/linux/slab.h ****  * This is useful if we need to approach a kernel structure obliquely,
 133:./include/linux/slab.h ****  * from its address obtained without the usual locking. We can lock
 134:./include/linux/slab.h ****  * the structure to stabilize it and check it's still at the given address,
 135:./include/linux/slab.h ****  * only if we can be sure that the memory has not been meanwhile reused
ARM GAS  /tmp/cc3Q6Ngl.s 			page 26


 136:./include/linux/slab.h ****  * for some other kind of object (which our subsystem's lock might corrupt).
 137:./include/linux/slab.h ****  *
 138:./include/linux/slab.h ****  * rcu_read_lock before reading the address, then rcu_read_unlock after
 139:./include/linux/slab.h ****  * taking the spinlock within the structure expected at that address.
 140:./include/linux/slab.h ****  *
 141:./include/linux/slab.h ****  * Note that it is not possible to acquire a lock within a structure
 142:./include/linux/slab.h ****  * allocated with SLAB_TYPESAFE_BY_RCU without first acquiring a reference
 143:./include/linux/slab.h ****  * as described above.  The reason is that SLAB_TYPESAFE_BY_RCU pages
 144:./include/linux/slab.h ****  * are not zeroed before being given to the slab, which means that any
 145:./include/linux/slab.h ****  * locks must be initialized after each and every kmem_struct_alloc().
 146:./include/linux/slab.h ****  * Alternatively, make the ctor passed to kmem_cache_create() initialize
 147:./include/linux/slab.h ****  * the locks at page-allocation time, as is done in __i915_request_ctor(),
 148:./include/linux/slab.h ****  * sighand_ctor(), and anon_vma_ctor().  Such a ctor permits readers
 149:./include/linux/slab.h ****  * to safely acquire those ctor-initialized locks under rcu_read_lock()
 150:./include/linux/slab.h ****  * protection.
 151:./include/linux/slab.h ****  *
 152:./include/linux/slab.h ****  * Note that SLAB_TYPESAFE_BY_RCU was originally named SLAB_DESTROY_BY_RCU.
 153:./include/linux/slab.h ****  */
 154:./include/linux/slab.h **** #define SLAB_TYPESAFE_BY_RCU	__SLAB_FLAG_BIT(_SLAB_TYPESAFE_BY_RCU)
 155:./include/linux/slab.h **** /* Trace allocations and frees */
 156:./include/linux/slab.h **** #define SLAB_TRACE		__SLAB_FLAG_BIT(_SLAB_TRACE)
 157:./include/linux/slab.h **** 
 158:./include/linux/slab.h **** /* Flag to prevent checks on free */
 159:./include/linux/slab.h **** #ifdef CONFIG_DEBUG_OBJECTS
 160:./include/linux/slab.h **** # define SLAB_DEBUG_OBJECTS	__SLAB_FLAG_BIT(_SLAB_DEBUG_OBJECTS)
 161:./include/linux/slab.h **** #else
 162:./include/linux/slab.h **** # define SLAB_DEBUG_OBJECTS	__SLAB_FLAG_UNUSED
 163:./include/linux/slab.h **** #endif
 164:./include/linux/slab.h **** 
 165:./include/linux/slab.h **** /* Avoid kmemleak tracing */
 166:./include/linux/slab.h **** #define SLAB_NOLEAKTRACE	__SLAB_FLAG_BIT(_SLAB_NOLEAKTRACE)
 167:./include/linux/slab.h **** 
 168:./include/linux/slab.h **** /*
 169:./include/linux/slab.h ****  * Prevent merging with compatible kmem caches. This flag should be used
 170:./include/linux/slab.h ****  * cautiously. Valid use cases:
 171:./include/linux/slab.h ****  *
 172:./include/linux/slab.h ****  * - caches created for self-tests (e.g. kunit)
 173:./include/linux/slab.h ****  * - general caches created and used by a subsystem, only when a
 174:./include/linux/slab.h ****  *   (subsystem-specific) debug option is enabled
 175:./include/linux/slab.h ****  * - performance critical caches, should be very rare and consulted with slab
 176:./include/linux/slab.h ****  *   maintainers, and not used together with CONFIG_SLUB_TINY
 177:./include/linux/slab.h ****  */
 178:./include/linux/slab.h **** #define SLAB_NO_MERGE		__SLAB_FLAG_BIT(_SLAB_NO_MERGE)
 179:./include/linux/slab.h **** 
 180:./include/linux/slab.h **** /* Fault injection mark */
 181:./include/linux/slab.h **** #ifdef CONFIG_FAILSLAB
 182:./include/linux/slab.h **** # define SLAB_FAILSLAB		__SLAB_FLAG_BIT(_SLAB_FAILSLAB)
 183:./include/linux/slab.h **** #else
 184:./include/linux/slab.h **** # define SLAB_FAILSLAB		__SLAB_FLAG_UNUSED
 185:./include/linux/slab.h **** #endif
 186:./include/linux/slab.h **** /**
 187:./include/linux/slab.h ****  * define SLAB_ACCOUNT - Account allocations to memcg.
 188:./include/linux/slab.h ****  *
 189:./include/linux/slab.h ****  * All object allocations from this cache will be memcg accounted, regardless of
 190:./include/linux/slab.h ****  * __GFP_ACCOUNT being or not being passed to individual allocations.
 191:./include/linux/slab.h ****  */
 192:./include/linux/slab.h **** #ifdef CONFIG_MEMCG
ARM GAS  /tmp/cc3Q6Ngl.s 			page 27


 193:./include/linux/slab.h **** # define SLAB_ACCOUNT		__SLAB_FLAG_BIT(_SLAB_ACCOUNT)
 194:./include/linux/slab.h **** #else
 195:./include/linux/slab.h **** # define SLAB_ACCOUNT		__SLAB_FLAG_UNUSED
 196:./include/linux/slab.h **** #endif
 197:./include/linux/slab.h **** 
 198:./include/linux/slab.h **** #ifdef CONFIG_KASAN_GENERIC
 199:./include/linux/slab.h **** #define SLAB_KASAN		__SLAB_FLAG_BIT(_SLAB_KASAN)
 200:./include/linux/slab.h **** #else
 201:./include/linux/slab.h **** #define SLAB_KASAN		__SLAB_FLAG_UNUSED
 202:./include/linux/slab.h **** #endif
 203:./include/linux/slab.h **** 
 204:./include/linux/slab.h **** /*
 205:./include/linux/slab.h ****  * Ignore user specified debugging flags.
 206:./include/linux/slab.h ****  * Intended for caches created for self-tests so they have only flags
 207:./include/linux/slab.h ****  * specified in the code and other flags are ignored.
 208:./include/linux/slab.h ****  */
 209:./include/linux/slab.h **** #define SLAB_NO_USER_FLAGS	__SLAB_FLAG_BIT(_SLAB_NO_USER_FLAGS)
 210:./include/linux/slab.h **** 
 211:./include/linux/slab.h **** #ifdef CONFIG_KFENCE
 212:./include/linux/slab.h **** #define SLAB_SKIP_KFENCE	__SLAB_FLAG_BIT(_SLAB_SKIP_KFENCE)
 213:./include/linux/slab.h **** #else
 214:./include/linux/slab.h **** #define SLAB_SKIP_KFENCE	__SLAB_FLAG_UNUSED
 215:./include/linux/slab.h **** #endif
 216:./include/linux/slab.h **** 
 217:./include/linux/slab.h **** /* The following flags affect the page allocator grouping pages by mobility */
 218:./include/linux/slab.h **** /**
 219:./include/linux/slab.h ****  * define SLAB_RECLAIM_ACCOUNT - Objects are reclaimable.
 220:./include/linux/slab.h ****  *
 221:./include/linux/slab.h ****  * Use this flag for caches that have an associated shrinker. As a result, slab
 222:./include/linux/slab.h ****  * pages are allocated with __GFP_RECLAIMABLE, which affects grouping pages by
 223:./include/linux/slab.h ****  * mobility, and are accounted in SReclaimable counter in /proc/meminfo
 224:./include/linux/slab.h ****  */
 225:./include/linux/slab.h **** #ifndef CONFIG_SLUB_TINY
 226:./include/linux/slab.h **** #define SLAB_RECLAIM_ACCOUNT	__SLAB_FLAG_BIT(_SLAB_RECLAIM_ACCOUNT)
 227:./include/linux/slab.h **** #else
 228:./include/linux/slab.h **** #define SLAB_RECLAIM_ACCOUNT	__SLAB_FLAG_UNUSED
 229:./include/linux/slab.h **** #endif
 230:./include/linux/slab.h **** #define SLAB_TEMPORARY		SLAB_RECLAIM_ACCOUNT	/* Objects are short-lived */
 231:./include/linux/slab.h **** 
 232:./include/linux/slab.h **** /* Slab created using create_boot_cache */
 233:./include/linux/slab.h **** #ifdef CONFIG_SLAB_OBJ_EXT
 234:./include/linux/slab.h **** #define SLAB_NO_OBJ_EXT		__SLAB_FLAG_BIT(_SLAB_NO_OBJ_EXT)
 235:./include/linux/slab.h **** #else
 236:./include/linux/slab.h **** #define SLAB_NO_OBJ_EXT		__SLAB_FLAG_UNUSED
 237:./include/linux/slab.h **** #endif
 238:./include/linux/slab.h **** 
 239:./include/linux/slab.h **** /*
 240:./include/linux/slab.h ****  * freeptr_t represents a SLUB freelist pointer, which might be encoded
 241:./include/linux/slab.h ****  * and not dereferenceable if CONFIG_SLAB_FREELIST_HARDENED is enabled.
 242:./include/linux/slab.h ****  */
 243:./include/linux/slab.h **** typedef struct { unsigned long v; } freeptr_t;
 244:./include/linux/slab.h **** 
 245:./include/linux/slab.h **** /*
 246:./include/linux/slab.h ****  * ZERO_SIZE_PTR will be returned for zero sized kmalloc requests.
 247:./include/linux/slab.h ****  *
 248:./include/linux/slab.h ****  * Dereferencing ZERO_SIZE_PTR will lead to a distinct access fault.
 249:./include/linux/slab.h ****  *
ARM GAS  /tmp/cc3Q6Ngl.s 			page 28


 250:./include/linux/slab.h ****  * ZERO_SIZE_PTR can be passed to kfree though in the same way that NULL can.
 251:./include/linux/slab.h ****  * Both make kfree a no-op.
 252:./include/linux/slab.h ****  */
 253:./include/linux/slab.h **** #define ZERO_SIZE_PTR ((void *)16)
 254:./include/linux/slab.h **** 
 255:./include/linux/slab.h **** #define ZERO_OR_NULL_PTR(x) ((unsigned long)(x) <= \
 256:./include/linux/slab.h **** 				(unsigned long)ZERO_SIZE_PTR)
 257:./include/linux/slab.h **** 
 258:./include/linux/slab.h **** 
 259:./include/linux/slab.h **** 
 260:./include/linux/slab.h **** 
 261:./include/linux/slab.h **** 
 262:./include/linux/slab.h **** #ifdef CONFIG_SLUB_CPU_PARTIAL
 263:./include/linux/slab.h **** #define slub_percpu_partial(c)			((c)->partial)
 264:./include/linux/slab.h **** 
 265:./include/linux/slab.h **** #define slub_set_percpu_partial(c, p)		\
 266:./include/linux/slab.h **** ({						\
 267:./include/linux/slab.h **** 	slub_percpu_partial(c) = (p)->next;	\
 268:./include/linux/slab.h **** })
 269:./include/linux/slab.h **** 
 270:./include/linux/slab.h **** #define slub_percpu_partial_read_once(c)	READ_ONCE(slub_percpu_partial(c))
 271:./include/linux/slab.h **** #else
 272:./include/linux/slab.h **** #define slub_percpu_partial(c)			NULL
 273:./include/linux/slab.h **** 
 274:./include/linux/slab.h **** #define slub_set_percpu_partial(c, p)
 275:./include/linux/slab.h **** 
 276:./include/linux/slab.h **** #define slub_percpu_partial_read_once(c)	NULL
 277:./include/linux/slab.h **** 
 278:./include/linux/slab.h **** 
 279:./include/linux/slab.h **** #endif // CONFIG_SLUB_CPU_PARTIAL
 280:./include/linux/slab.h **** 
 281:./include/linux/slab.h **** /*
 282:./include/linux/slab.h **** 	* Word size structure that can be atomically updated or read and that
 283:./include/linux/slab.h **** 	* contains both the order and the number of objects that a slab of the
 284:./include/linux/slab.h **** 	* given order would contain.
 285:./include/linux/slab.h **** 	*/				
 286:./include/linux/slab.h **** struct kmem_cache_order_objects {
 287:./include/linux/slab.h **** 	unsigned int x;
 288:./include/linux/slab.h **** };
 289:./include/linux/slab.h **** 
 290:./include/linux/slab.h **** struct kmem_cache_node {
 291:./include/linux/slab.h **** 	spinlock_t list_lock;
 292:./include/linux/slab.h **** 	unsigned long nr_partial;
 293:./include/linux/slab.h **** 	struct list_head partial;
 294:./include/linux/slab.h **** #ifdef CONFIG_SLUB_DEBUG
 295:./include/linux/slab.h **** 	atomic_long_t nr_slabs;
 296:./include/linux/slab.h **** 	atomic_long_t total_objects;
 297:./include/linux/slab.h **** 	struct list_head full;
 298:./include/linux/slab.h **** #endif
 299:./include/linux/slab.h **** };
 300:./include/linux/slab.h **** 
 301:./include/linux/slab.h **** struct kmem_cache {
 302:./include/linux/slab.h **** 	#ifndef CONFIG_SLUB_TINY
 303:./include/linux/slab.h **** 	//	struct kmem_cache_cpu __percpu *cpu_slab;
 304:./include/linux/slab.h **** 	#endif
 305:./include/linux/slab.h **** 		/* Used for retrieving partial slabs, etc. */
 306:./include/linux/slab.h **** 		slab_flags_t flags;
ARM GAS  /tmp/cc3Q6Ngl.s 			page 29


 307:./include/linux/slab.h **** 		unsigned long min_partial;
 308:./include/linux/slab.h **** 		unsigned int size;		/* Object size including metadata */
 309:./include/linux/slab.h **** 		unsigned int object_size;	/* Object size without metadata */
 310:./include/linux/slab.h **** 		struct reciprocal_value reciprocal_size;
 311:./include/linux/slab.h **** 		unsigned int offset;		/* Free pointer offset */
 312:./include/linux/slab.h **** 	#ifdef CONFIG_SLUB_CPU_PARTIAL
 313:./include/linux/slab.h **** 		/* Number of per cpu partial objects to keep around */
 314:./include/linux/slab.h **** 		unsigned int cpu_partial;
 315:./include/linux/slab.h **** 		/* Number of per cpu partial slabs to keep around */
 316:./include/linux/slab.h **** 		unsigned int cpu_partial_slabs;
 317:./include/linux/slab.h **** 	#endif
 318:./include/linux/slab.h **** 		struct kmem_cache_order_objects oo;
 319:./include/linux/slab.h **** 	
 320:./include/linux/slab.h **** 		/* Allocation and freeing of slabs */
 321:./include/linux/slab.h **** 		struct kmem_cache_order_objects min;
 322:./include/linux/slab.h **** 		gfp_t allocflags;		/* gfp flags to use on each alloc */
 323:./include/linux/slab.h **** 		int refcount;			/* Refcount for slab cache destroy */
 324:./include/linux/slab.h **** 		void (*ctor)(void *object);	/* Object constructor */
 325:./include/linux/slab.h **** 		unsigned int inuse;		/* Offset to metadata */
 326:./include/linux/slab.h **** 		unsigned int align;		/* Alignment */
 327:./include/linux/slab.h **** 		unsigned int red_left_pad;	/* Left redzone padding size */
 328:./include/linux/slab.h **** 		const char *name;		/* Name (only for display!) */
 329:./include/linux/slab.h **** 		struct list_head list;		/* List of slab caches */
 330:./include/linux/slab.h **** 	#ifdef CONFIG_SYSFS
 331:./include/linux/slab.h **** 		struct kobject kobj;		/* For sysfs */
 332:./include/linux/slab.h **** 	#endif
 333:./include/linux/slab.h **** 	#ifdef CONFIG_SLAB_FREELIST_HARDENED
 334:./include/linux/slab.h **** 		unsigned long random;
 335:./include/linux/slab.h **** 	#endif
 336:./include/linux/slab.h **** 	
 337:./include/linux/slab.h **** 	#ifdef CONFIG_NUMA
 338:./include/linux/slab.h **** 		/*
 339:./include/linux/slab.h **** 			* Defragmentation by allocating from a remote node.
 340:./include/linux/slab.h **** 			*/
 341:./include/linux/slab.h **** 		unsigned int remote_node_defrag_ratio;
 342:./include/linux/slab.h **** 	#endif
 343:./include/linux/slab.h **** 	
 344:./include/linux/slab.h **** 	#ifdef CONFIG_SLAB_FREELIST_RANDOM
 345:./include/linux/slab.h **** 		unsigned int *random_seq;
 346:./include/linux/slab.h **** 	#endif
 347:./include/linux/slab.h **** 	
 348:./include/linux/slab.h **** 	#ifdef CONFIG_KASAN_GENERIC
 349:./include/linux/slab.h **** 		struct kasan_cache kasan_info;
 350:./include/linux/slab.h **** 	#endif
 351:./include/linux/slab.h **** 	
 352:./include/linux/slab.h **** 	#ifdef CONFIG_HARDENED_USERCOPY
 353:./include/linux/slab.h **** 		unsigned int useroffset;	/* Usercopy region offset */
 354:./include/linux/slab.h **** 		unsigned int usersize;		/* Usercopy region size */
 355:./include/linux/slab.h **** 	#endif
 356:./include/linux/slab.h **** 	
 357:./include/linux/slab.h **** 		struct kmem_cache_node *node[MAX_NUMNODES];
 358:./include/linux/slab.h **** 	};
 359:./include/linux/slab.h **** 					
 360:./include/linux/slab.h **** 
 361:./include/linux/slab.h **** 
 362:./include/linux/slab.h **** 
 363:./include/linux/slab.h **** 
ARM GAS  /tmp/cc3Q6Ngl.s 			page 30


 364:./include/linux/slab.h **** #define KMALLOC_WAIT 1
 365:./include/linux/slab.h **** 
 366:./include/linux/slab.h **** 
 367:./include/linux/slab.h **** extern void* __smalloc__(u32 size, gfp_t flags);
 368:./include/linux/slab.h **** extern void  __sfree__(void* addr);
 369:./include/linux/slab.h **** 
 370:./include/linux/slab.h **** 
 371:./include/linux/slab.h **** static void inline *vmalloc(unsigned long size){
 372:./include/linux/slab.h **** 	return __smalloc__(size,GFP_TRANSHUGE_LIGHT);
 373:./include/linux/slab.h **** }
 374:./include/linux/slab.h **** 
 375:./include/linux/slab.h **** static void inline vfree(void *addr){
 376:./include/linux/slab.h **** 	__sfree__(addr);
 377:./include/linux/slab.h **** }
 378:./include/linux/slab.h **** 
 379:./include/linux/slab.h **** static void inline *kmalloc(size_t size, gfp_t flags){
 623              		.loc 4 379 21 view .LVU125
 624              	.LBB226:
 380:./include/linux/slab.h **** 	return __smalloc__((u32)size,flags);
 625              		.loc 4 380 2 view .LVU126
 626              		.loc 4 380 9 is_stmt 0 view .LVU127
 627 000a 4FF44C61 		mov	r1, #3264
 628              	.LVL47:
 629              		.loc 4 380 9 view .LVU128
 630 000e 3C20     		movs	r0, #60
 631              	.LVL48:
 632              		.loc 4 380 9 view .LVU129
 633 0010 FFF7FEFF 		bl	__smalloc__
 634              	.LVL49:
 635              		.loc 4 380 9 view .LVU130
 636              	.LBE226:
 637              	.LBE225:
  70:./fs/ramfs/ramfs.c ****     initram_inode->magic = MAGIC;
 638              		.loc 1 70 5 is_stmt 1 view .LVU131
  70:./fs/ramfs/ramfs.c ****     initram_inode->magic = MAGIC;
 639              		.loc 1 70 7 is_stmt 0 view .LVU132
 640 0014 0446     		mov	r4, r0
 641 0016 10B3     		cbz	r0, .L48
  71:./fs/ramfs/ramfs.c ****     initram_inode->major = major;
 642              		.loc 1 71 5 is_stmt 1 view .LVU133
  71:./fs/ramfs/ramfs.c ****     initram_inode->major = major;
 643              		.loc 1 71 26 is_stmt 0 view .LVU134
 644 0018 134B     		ldr	r3, .L52
 645 001a 0360     		str	r3, [r0]
  72:./fs/ramfs/ramfs.c ****     initram_inode->i_fop = fop;
 646              		.loc 1 72 5 is_stmt 1 view .LVU135
  72:./fs/ramfs/ramfs.c ****     initram_inode->i_fop = fop;
 647              		.loc 1 72 26 is_stmt 0 view .LVU136
 648 001c 8660     		str	r6, [r0, #8]
  73:./fs/ramfs/ramfs.c ****     initram_inode->sb    = sb;
 649              		.loc 1 73 5 is_stmt 1 view .LVU137
  73:./fs/ramfs/ramfs.c ****     initram_inode->sb    = sb;
 650              		.loc 1 73 26 is_stmt 0 view .LVU138
 651 001e 0761     		str	r7, [r0, #16]
  74:./fs/ramfs/ramfs.c ****     initram_inode->i_mode = S_IFREG | 0755;
 652              		.loc 1 74 5 is_stmt 1 view .LVU139
  74:./fs/ramfs/ramfs.c ****     initram_inode->i_mode = S_IFREG | 0755;
ARM GAS  /tmp/cc3Q6Ngl.s 			page 31


 653              		.loc 1 74 26 is_stmt 0 view .LVU140
 654 0020 8563     		str	r5, [r0, #56]
  75:./fs/ramfs/ramfs.c ****     atomic_set(&initram_inode->dentry_count,0);
 655              		.loc 1 75 5 is_stmt 1 view .LVU141
  75:./fs/ramfs/ramfs.c ****     atomic_set(&initram_inode->dentry_count,0);
 656              		.loc 1 75 27 is_stmt 0 view .LVU142
 657 0022 48F2ED13 		movw	r3, #33261
 658 0026 4360     		str	r3, [r0, #4]
  76:./fs/ramfs/ramfs.c ****     spin_lock_init(&initram_inode->lock);
 659              		.loc 1 76 5 is_stmt 1 view .LVU143
 660              	.LVL50:
 661              	.LBB227:
 662              	.LBI227:
 663              		.file 5 "./include/linux/atomic/atomic-instrumented.h"
   1:./include/linux/atomic/atomic-instrumented.h **** // SPDX-License-Identifier: GPL-2.0
   2:./include/linux/atomic/atomic-instrumented.h **** 
   3:./include/linux/atomic/atomic-instrumented.h **** // Generated by scripts/atomic/gen-atomic-instrumented.sh 
   4:./include/linux/atomic/atomic-instrumented.h **** // DO NOT MODIFY THIS FILE DIRECTLY
   5:./include/linux/atomic/atomic-instrumented.h **** 
   6:./include/linux/atomic/atomic-instrumented.h **** /*
   7:./include/linux/atomic/atomic-instrumented.h ****  * This file provoides atomic operations with explicit instrumentation (e.g.
   8:./include/linux/atomic/atomic-instrumented.h ****  * KASAN, KCSAN), which should be used unless it is necessary to avoid
   9:./include/linux/atomic/atomic-instrumented.h ****  * instrumentation. Where it is necessary to aovid instrumenation, the
  10:./include/linux/atomic/atomic-instrumented.h ****  * raw_atomic*() operations should be used.
  11:./include/linux/atomic/atomic-instrumented.h ****  */
  12:./include/linux/atomic/atomic-instrumented.h **** #ifndef _LINUX_ATOMIC_INSTRUMENTED_H
  13:./include/linux/atomic/atomic-instrumented.h **** #define _LINUX_ATOMIC_INSTRUMENTED_H
  14:./include/linux/atomic/atomic-instrumented.h **** 
  15:./include/linux/atomic/atomic-instrumented.h **** #include <linux/build_bug.h>
  16:./include/linux/atomic/atomic-instrumented.h **** #include <linux/compiler.h>
  17:./include/linux/atomic/atomic-instrumented.h **** #include <linux/instrumented.h>
  18:./include/linux/atomic/atomic-instrumented.h **** 
  19:./include/linux/atomic/atomic-instrumented.h **** /**
  20:./include/linux/atomic/atomic-instrumented.h ****  * atomic_read() - atomic load with relaxed ordering
  21:./include/linux/atomic/atomic-instrumented.h ****  * @v: pointer to atomic_t
  22:./include/linux/atomic/atomic-instrumented.h ****  *
  23:./include/linux/atomic/atomic-instrumented.h ****  * Atomically loads the value of @v with relaxed ordering.
  24:./include/linux/atomic/atomic-instrumented.h ****  *
  25:./include/linux/atomic/atomic-instrumented.h ****  * Unsafe to use in noinstr code; use raw_atomic_read() there.
  26:./include/linux/atomic/atomic-instrumented.h ****  *
  27:./include/linux/atomic/atomic-instrumented.h ****  * Return: The value loaded from @v.
  28:./include/linux/atomic/atomic-instrumented.h ****  */
  29:./include/linux/atomic/atomic-instrumented.h **** static __always_inline int
  30:./include/linux/atomic/atomic-instrumented.h **** atomic_read(const atomic_t *v)
  31:./include/linux/atomic/atomic-instrumented.h **** {
  32:./include/linux/atomic/atomic-instrumented.h **** 	instrument_atomic_read(v, sizeof(*v));
  33:./include/linux/atomic/atomic-instrumented.h **** 	return raw_atomic_read(v);
  34:./include/linux/atomic/atomic-instrumented.h **** }
  35:./include/linux/atomic/atomic-instrumented.h **** 
  36:./include/linux/atomic/atomic-instrumented.h **** /**
  37:./include/linux/atomic/atomic-instrumented.h ****  * atomic_read_acquire() - atomic load with acquire ordering
  38:./include/linux/atomic/atomic-instrumented.h ****  * @v: pointer to atomic_t
  39:./include/linux/atomic/atomic-instrumented.h ****  *
  40:./include/linux/atomic/atomic-instrumented.h ****  * Atomically loads the value of @v with acquire ordering.
  41:./include/linux/atomic/atomic-instrumented.h ****  *
  42:./include/linux/atomic/atomic-instrumented.h ****  * Unsafe to use in noinstr code; use raw_atomic_read_acquire() there.
  43:./include/linux/atomic/atomic-instrumented.h ****  *
ARM GAS  /tmp/cc3Q6Ngl.s 			page 32


  44:./include/linux/atomic/atomic-instrumented.h ****  * Return: The value loaded from @v.
  45:./include/linux/atomic/atomic-instrumented.h ****  */
  46:./include/linux/atomic/atomic-instrumented.h **** static __always_inline int
  47:./include/linux/atomic/atomic-instrumented.h **** atomic_read_acquire(const atomic_t *v)
  48:./include/linux/atomic/atomic-instrumented.h **** {
  49:./include/linux/atomic/atomic-instrumented.h **** 	instrument_atomic_read(v, sizeof(*v));
  50:./include/linux/atomic/atomic-instrumented.h **** 	return raw_atomic_read_acquire(v);
  51:./include/linux/atomic/atomic-instrumented.h **** }
  52:./include/linux/atomic/atomic-instrumented.h **** 
  53:./include/linux/atomic/atomic-instrumented.h **** /**
  54:./include/linux/atomic/atomic-instrumented.h ****  * atomic_set() - atomic set with relaxed ordering
  55:./include/linux/atomic/atomic-instrumented.h ****  * @v: pointer to atomic_t
  56:./include/linux/atomic/atomic-instrumented.h ****  * @i: int value to assign
  57:./include/linux/atomic/atomic-instrumented.h ****  *
  58:./include/linux/atomic/atomic-instrumented.h ****  * Atomically sets @v to @i with relaxed ordering.
  59:./include/linux/atomic/atomic-instrumented.h ****  *
  60:./include/linux/atomic/atomic-instrumented.h ****  * Unsafe to use in noinstr code; use raw_atomic_set() there.
  61:./include/linux/atomic/atomic-instrumented.h ****  *
  62:./include/linux/atomic/atomic-instrumented.h ****  * Return: Nothing.
  63:./include/linux/atomic/atomic-instrumented.h ****  */
  64:./include/linux/atomic/atomic-instrumented.h **** static __always_inline void
  65:./include/linux/atomic/atomic-instrumented.h **** atomic_set(atomic_t *v, int i)
 664              		.loc 5 65 1 view .LVU144
  66:./include/linux/atomic/atomic-instrumented.h **** {
  67:./include/linux/atomic/atomic-instrumented.h **** 	instrument_atomic_write(v, sizeof(*v));
 665              		.loc 5 67 2 view .LVU145
  68:./include/linux/atomic/atomic-instrumented.h **** 	raw_atomic_set(v, i);
 666              		.loc 5 68 2 view .LVU146
 667              	.LBB228:
 668              	.LBI228:
 669              		.file 6 "./include/linux/atomic/atomic-arch-fallback.h"
   1:./include/linux/atomic/atomic-arch-fallback.h **** // SPDX-License-Identifier: GPL-2.0
   2:./include/linux/atomic/atomic-arch-fallback.h **** 
   3:./include/linux/atomic/atomic-arch-fallback.h **** // Generated by scripts/atomic/gen-atomic-fallback.sh
   4:./include/linux/atomic/atomic-arch-fallback.h **** // DO NOT MODIFY THIS FILE DIRECTLY
   5:./include/linux/atomic/atomic-arch-fallback.h **** 
   6:./include/linux/atomic/atomic-arch-fallback.h **** #ifndef _LINUX_ATOMIC_FALLBACK_H
   7:./include/linux/atomic/atomic-arch-fallback.h **** #define _LINUX_ATOMIC_FALLBACK_H
   8:./include/linux/atomic/atomic-arch-fallback.h **** 
   9:./include/linux/atomic/atomic-arch-fallback.h **** #include <linux/compiler.h>
  10:./include/linux/atomic/atomic-arch-fallback.h **** 
  11:./include/linux/atomic/atomic-arch-fallback.h **** #if defined(arch_xchg)
  12:./include/linux/atomic/atomic-arch-fallback.h **** #define raw_xchg arch_xchg
  13:./include/linux/atomic/atomic-arch-fallback.h **** #elif defined(arch_xchg_relaxed)
  14:./include/linux/atomic/atomic-arch-fallback.h **** #define raw_xchg(...) \
  15:./include/linux/atomic/atomic-arch-fallback.h **** 	__atomic_op_fence(arch_xchg, __VA_ARGS__)
  16:./include/linux/atomic/atomic-arch-fallback.h **** #else
  17:./include/linux/atomic/atomic-arch-fallback.h **** extern void raw_xchg_not_implemented(void);
  18:./include/linux/atomic/atomic-arch-fallback.h **** #define raw_xchg(...) raw_xchg_not_implemented()
  19:./include/linux/atomic/atomic-arch-fallback.h **** #endif
  20:./include/linux/atomic/atomic-arch-fallback.h **** 
  21:./include/linux/atomic/atomic-arch-fallback.h **** #if defined(arch_xchg_acquire)
  22:./include/linux/atomic/atomic-arch-fallback.h **** #define raw_xchg_acquire arch_xchg_acquire
  23:./include/linux/atomic/atomic-arch-fallback.h **** #elif defined(arch_xchg_relaxed)
  24:./include/linux/atomic/atomic-arch-fallback.h **** #define raw_xchg_acquire(...) \
  25:./include/linux/atomic/atomic-arch-fallback.h **** 	__atomic_op_acquire(arch_xchg, __VA_ARGS__)
  26:./include/linux/atomic/atomic-arch-fallback.h **** #elif defined(arch_xchg)
ARM GAS  /tmp/cc3Q6Ngl.s 			page 33


  27:./include/linux/atomic/atomic-arch-fallback.h **** #define raw_xchg_acquire arch_xchg
  28:./include/linux/atomic/atomic-arch-fallback.h **** #else
  29:./include/linux/atomic/atomic-arch-fallback.h **** extern void raw_xchg_acquire_not_implemented(void);
  30:./include/linux/atomic/atomic-arch-fallback.h **** #define raw_xchg_acquire(...) raw_xchg_acquire_not_implemented()
  31:./include/linux/atomic/atomic-arch-fallback.h **** #endif
  32:./include/linux/atomic/atomic-arch-fallback.h **** 
  33:./include/linux/atomic/atomic-arch-fallback.h **** #if defined(arch_xchg_release)
  34:./include/linux/atomic/atomic-arch-fallback.h **** #define raw_xchg_release arch_xchg_release
  35:./include/linux/atomic/atomic-arch-fallback.h **** #elif defined(arch_xchg_relaxed)
  36:./include/linux/atomic/atomic-arch-fallback.h **** #define raw_xchg_release(...) \
  37:./include/linux/atomic/atomic-arch-fallback.h **** 	__atomic_op_release(arch_xchg, __VA_ARGS__)
  38:./include/linux/atomic/atomic-arch-fallback.h **** #elif defined(arch_xchg)
  39:./include/linux/atomic/atomic-arch-fallback.h **** #define raw_xchg_release arch_xchg
  40:./include/linux/atomic/atomic-arch-fallback.h **** #else
  41:./include/linux/atomic/atomic-arch-fallback.h **** extern void raw_xchg_release_not_implemented(void);
  42:./include/linux/atomic/atomic-arch-fallback.h **** #define raw_xchg_release(...) raw_xchg_release_not_implemented()
  43:./include/linux/atomic/atomic-arch-fallback.h **** #endif
  44:./include/linux/atomic/atomic-arch-fallback.h **** 
  45:./include/linux/atomic/atomic-arch-fallback.h **** #if defined(arch_xchg_relaxed)
  46:./include/linux/atomic/atomic-arch-fallback.h **** #define raw_xchg_relaxed arch_xchg_relaxed
  47:./include/linux/atomic/atomic-arch-fallback.h **** #elif defined(arch_xchg)
  48:./include/linux/atomic/atomic-arch-fallback.h **** #define raw_xchg_relaxed arch_xchg
  49:./include/linux/atomic/atomic-arch-fallback.h **** #else
  50:./include/linux/atomic/atomic-arch-fallback.h **** extern void raw_xchg_relaxed_not_implemented(void);
  51:./include/linux/atomic/atomic-arch-fallback.h **** #define raw_xchg_relaxed(...) raw_xchg_relaxed_not_implemented()
  52:./include/linux/atomic/atomic-arch-fallback.h **** #endif
  53:./include/linux/atomic/atomic-arch-fallback.h **** 
  54:./include/linux/atomic/atomic-arch-fallback.h **** #if defined(arch_cmpxchg)
  55:./include/linux/atomic/atomic-arch-fallback.h **** #define raw_cmpxchg arch_cmpxchg
  56:./include/linux/atomic/atomic-arch-fallback.h **** #elif defined(arch_cmpxchg_relaxed)
  57:./include/linux/atomic/atomic-arch-fallback.h **** #define raw_cmpxchg(...) \
  58:./include/linux/atomic/atomic-arch-fallback.h **** 	__atomic_op_fence(arch_cmpxchg, __VA_ARGS__)
  59:./include/linux/atomic/atomic-arch-fallback.h **** #else
  60:./include/linux/atomic/atomic-arch-fallback.h **** extern void raw_cmpxchg_not_implemented(void);
  61:./include/linux/atomic/atomic-arch-fallback.h **** #define raw_cmpxchg(...) raw_cmpxchg_not_implemented()
  62:./include/linux/atomic/atomic-arch-fallback.h **** #endif
  63:./include/linux/atomic/atomic-arch-fallback.h **** 
  64:./include/linux/atomic/atomic-arch-fallback.h **** #if defined(arch_cmpxchg_acquire)
  65:./include/linux/atomic/atomic-arch-fallback.h **** #define raw_cmpxchg_acquire arch_cmpxchg_acquire
  66:./include/linux/atomic/atomic-arch-fallback.h **** #elif defined(arch_cmpxchg_relaxed)
  67:./include/linux/atomic/atomic-arch-fallback.h **** #define raw_cmpxchg_acquire(...) \
  68:./include/linux/atomic/atomic-arch-fallback.h **** 	__atomic_op_acquire(arch_cmpxchg, __VA_ARGS__)
  69:./include/linux/atomic/atomic-arch-fallback.h **** #elif defined(arch_cmpxchg)
  70:./include/linux/atomic/atomic-arch-fallback.h **** #define raw_cmpxchg_acquire arch_cmpxchg
  71:./include/linux/atomic/atomic-arch-fallback.h **** #else
  72:./include/linux/atomic/atomic-arch-fallback.h **** extern void raw_cmpxchg_acquire_not_implemented(void);
  73:./include/linux/atomic/atomic-arch-fallback.h **** #define raw_cmpxchg_acquire(...) raw_cmpxchg_acquire_not_implemented()
  74:./include/linux/atomic/atomic-arch-fallback.h **** #endif
  75:./include/linux/atomic/atomic-arch-fallback.h **** 
  76:./include/linux/atomic/atomic-arch-fallback.h **** #if defined(arch_cmpxchg_release)
  77:./include/linux/atomic/atomic-arch-fallback.h **** #define raw_cmpxchg_release arch_cmpxchg_release
  78:./include/linux/atomic/atomic-arch-fallback.h **** #elif defined(arch_cmpxchg_relaxed)
  79:./include/linux/atomic/atomic-arch-fallback.h **** #define raw_cmpxchg_release(...) \
  80:./include/linux/atomic/atomic-arch-fallback.h **** 	__atomic_op_release(arch_cmpxchg, __VA_ARGS__)
  81:./include/linux/atomic/atomic-arch-fallback.h **** #elif defined(arch_cmpxchg)
  82:./include/linux/atomic/atomic-arch-fallback.h **** #define raw_cmpxchg_release arch_cmpxchg
  83:./include/linux/atomic/atomic-arch-fallback.h **** #else
ARM GAS  /tmp/cc3Q6Ngl.s 			page 34


  84:./include/linux/atomic/atomic-arch-fallback.h **** extern void raw_cmpxchg_release_not_implemented(void);
  85:./include/linux/atomic/atomic-arch-fallback.h **** #define raw_cmpxchg_release(...) raw_cmpxchg_release_not_implemented()
  86:./include/linux/atomic/atomic-arch-fallback.h **** #endif
  87:./include/linux/atomic/atomic-arch-fallback.h **** 
  88:./include/linux/atomic/atomic-arch-fallback.h **** #if defined(arch_cmpxchg_relaxed)
  89:./include/linux/atomic/atomic-arch-fallback.h **** #define raw_cmpxchg_relaxed arch_cmpxchg_relaxed
  90:./include/linux/atomic/atomic-arch-fallback.h **** #elif defined(arch_cmpxchg)
  91:./include/linux/atomic/atomic-arch-fallback.h **** #define raw_cmpxchg_relaxed arch_cmpxchg
  92:./include/linux/atomic/atomic-arch-fallback.h **** #else
  93:./include/linux/atomic/atomic-arch-fallback.h **** extern void raw_cmpxchg_relaxed_not_implemented(void);
  94:./include/linux/atomic/atomic-arch-fallback.h **** #define raw_cmpxchg_relaxed(...) raw_cmpxchg_relaxed_not_implemented()
  95:./include/linux/atomic/atomic-arch-fallback.h **** #endif
  96:./include/linux/atomic/atomic-arch-fallback.h **** 
  97:./include/linux/atomic/atomic-arch-fallback.h **** #if defined(arch_cmpxchg64)
  98:./include/linux/atomic/atomic-arch-fallback.h **** #define raw_cmpxchg64 arch_cmpxchg64
  99:./include/linux/atomic/atomic-arch-fallback.h **** #elif defined(arch_cmpxchg64_relaxed)
 100:./include/linux/atomic/atomic-arch-fallback.h **** #define raw_cmpxchg64(...) \
 101:./include/linux/atomic/atomic-arch-fallback.h **** 	__atomic_op_fence(arch_cmpxchg64, __VA_ARGS__)
 102:./include/linux/atomic/atomic-arch-fallback.h **** #else
 103:./include/linux/atomic/atomic-arch-fallback.h **** extern void raw_cmpxchg64_not_implemented(void);
 104:./include/linux/atomic/atomic-arch-fallback.h **** #define raw_cmpxchg64(...) raw_cmpxchg64_not_implemented()
 105:./include/linux/atomic/atomic-arch-fallback.h **** #endif
 106:./include/linux/atomic/atomic-arch-fallback.h **** 
 107:./include/linux/atomic/atomic-arch-fallback.h **** #if defined(arch_cmpxchg64_acquire)
 108:./include/linux/atomic/atomic-arch-fallback.h **** #define raw_cmpxchg64_acquire arch_cmpxchg64_acquire
 109:./include/linux/atomic/atomic-arch-fallback.h **** #elif defined(arch_cmpxchg64_relaxed)
 110:./include/linux/atomic/atomic-arch-fallback.h **** #define raw_cmpxchg64_acquire(...) \
 111:./include/linux/atomic/atomic-arch-fallback.h **** 	__atomic_op_acquire(arch_cmpxchg64, __VA_ARGS__)
 112:./include/linux/atomic/atomic-arch-fallback.h **** #elif defined(arch_cmpxchg64)
 113:./include/linux/atomic/atomic-arch-fallback.h **** #define raw_cmpxchg64_acquire arch_cmpxchg64
 114:./include/linux/atomic/atomic-arch-fallback.h **** #else
 115:./include/linux/atomic/atomic-arch-fallback.h **** extern void raw_cmpxchg64_acquire_not_implemented(void);
 116:./include/linux/atomic/atomic-arch-fallback.h **** #define raw_cmpxchg64_acquire(...) raw_cmpxchg64_acquire_not_implemented()
 117:./include/linux/atomic/atomic-arch-fallback.h **** #endif
 118:./include/linux/atomic/atomic-arch-fallback.h **** 
 119:./include/linux/atomic/atomic-arch-fallback.h **** #if defined(arch_cmpxchg64_release)
 120:./include/linux/atomic/atomic-arch-fallback.h **** #define raw_cmpxchg64_release arch_cmpxchg64_release
 121:./include/linux/atomic/atomic-arch-fallback.h **** #elif defined(arch_cmpxchg64_relaxed)
 122:./include/linux/atomic/atomic-arch-fallback.h **** #define raw_cmpxchg64_release(...) \
 123:./include/linux/atomic/atomic-arch-fallback.h **** 	__atomic_op_release(arch_cmpxchg64, __VA_ARGS__)
 124:./include/linux/atomic/atomic-arch-fallback.h **** #elif defined(arch_cmpxchg64)
 125:./include/linux/atomic/atomic-arch-fallback.h **** #define raw_cmpxchg64_release arch_cmpxchg64
 126:./include/linux/atomic/atomic-arch-fallback.h **** #else
 127:./include/linux/atomic/atomic-arch-fallback.h **** extern void raw_cmpxchg64_release_not_implemented(void);
 128:./include/linux/atomic/atomic-arch-fallback.h **** #define raw_cmpxchg64_release(...) raw_cmpxchg64_release_not_implemented()
 129:./include/linux/atomic/atomic-arch-fallback.h **** #endif
 130:./include/linux/atomic/atomic-arch-fallback.h **** 
 131:./include/linux/atomic/atomic-arch-fallback.h **** #if defined(arch_cmpxchg64_relaxed)
 132:./include/linux/atomic/atomic-arch-fallback.h **** #define raw_cmpxchg64_relaxed arch_cmpxchg64_relaxed
 133:./include/linux/atomic/atomic-arch-fallback.h **** #elif defined(arch_cmpxchg64)
 134:./include/linux/atomic/atomic-arch-fallback.h **** #define raw_cmpxchg64_relaxed arch_cmpxchg64
 135:./include/linux/atomic/atomic-arch-fallback.h **** #else
 136:./include/linux/atomic/atomic-arch-fallback.h **** extern void raw_cmpxchg64_relaxed_not_implemented(void);
 137:./include/linux/atomic/atomic-arch-fallback.h **** #define raw_cmpxchg64_relaxed(...) raw_cmpxchg64_relaxed_not_implemented()
 138:./include/linux/atomic/atomic-arch-fallback.h **** #endif
 139:./include/linux/atomic/atomic-arch-fallback.h **** 
 140:./include/linux/atomic/atomic-arch-fallback.h **** #if defined(arch_cmpxchg128)
ARM GAS  /tmp/cc3Q6Ngl.s 			page 35


 141:./include/linux/atomic/atomic-arch-fallback.h **** #define raw_cmpxchg128 arch_cmpxchg128
 142:./include/linux/atomic/atomic-arch-fallback.h **** #elif defined(arch_cmpxchg128_relaxed)
 143:./include/linux/atomic/atomic-arch-fallback.h **** #define raw_cmpxchg128(...) \
 144:./include/linux/atomic/atomic-arch-fallback.h **** 	__atomic_op_fence(arch_cmpxchg128, __VA_ARGS__)
 145:./include/linux/atomic/atomic-arch-fallback.h **** #else
 146:./include/linux/atomic/atomic-arch-fallback.h **** extern void raw_cmpxchg128_not_implemented(void);
 147:./include/linux/atomic/atomic-arch-fallback.h **** #define raw_cmpxchg128(...) raw_cmpxchg128_not_implemented()
 148:./include/linux/atomic/atomic-arch-fallback.h **** #endif
 149:./include/linux/atomic/atomic-arch-fallback.h **** 
 150:./include/linux/atomic/atomic-arch-fallback.h **** #if defined(arch_cmpxchg128_acquire)
 151:./include/linux/atomic/atomic-arch-fallback.h **** #define raw_cmpxchg128_acquire arch_cmpxchg128_acquire
 152:./include/linux/atomic/atomic-arch-fallback.h **** #elif defined(arch_cmpxchg128_relaxed)
 153:./include/linux/atomic/atomic-arch-fallback.h **** #define raw_cmpxchg128_acquire(...) \
 154:./include/linux/atomic/atomic-arch-fallback.h **** 	__atomic_op_acquire(arch_cmpxchg128, __VA_ARGS__)
 155:./include/linux/atomic/atomic-arch-fallback.h **** #elif defined(arch_cmpxchg128)
 156:./include/linux/atomic/atomic-arch-fallback.h **** #define raw_cmpxchg128_acquire arch_cmpxchg128
 157:./include/linux/atomic/atomic-arch-fallback.h **** #else
 158:./include/linux/atomic/atomic-arch-fallback.h **** extern void raw_cmpxchg128_acquire_not_implemented(void);
 159:./include/linux/atomic/atomic-arch-fallback.h **** #define raw_cmpxchg128_acquire(...) raw_cmpxchg128_acquire_not_implemented()
 160:./include/linux/atomic/atomic-arch-fallback.h **** #endif
 161:./include/linux/atomic/atomic-arch-fallback.h **** 
 162:./include/linux/atomic/atomic-arch-fallback.h **** #if defined(arch_cmpxchg128_release)
 163:./include/linux/atomic/atomic-arch-fallback.h **** #define raw_cmpxchg128_release arch_cmpxchg128_release
 164:./include/linux/atomic/atomic-arch-fallback.h **** #elif defined(arch_cmpxchg128_relaxed)
 165:./include/linux/atomic/atomic-arch-fallback.h **** #define raw_cmpxchg128_release(...) \
 166:./include/linux/atomic/atomic-arch-fallback.h **** 	__atomic_op_release(arch_cmpxchg128, __VA_ARGS__)
 167:./include/linux/atomic/atomic-arch-fallback.h **** #elif defined(arch_cmpxchg128)
 168:./include/linux/atomic/atomic-arch-fallback.h **** #define raw_cmpxchg128_release arch_cmpxchg128
 169:./include/linux/atomic/atomic-arch-fallback.h **** #else
 170:./include/linux/atomic/atomic-arch-fallback.h **** extern void raw_cmpxchg128_release_not_implemented(void);
 171:./include/linux/atomic/atomic-arch-fallback.h **** #define raw_cmpxchg128_release(...) raw_cmpxchg128_release_not_implemented()
 172:./include/linux/atomic/atomic-arch-fallback.h **** #endif
 173:./include/linux/atomic/atomic-arch-fallback.h **** 
 174:./include/linux/atomic/atomic-arch-fallback.h **** #if defined(arch_cmpxchg128_relaxed)
 175:./include/linux/atomic/atomic-arch-fallback.h **** #define raw_cmpxchg128_relaxed arch_cmpxchg128_relaxed
 176:./include/linux/atomic/atomic-arch-fallback.h **** #elif defined(arch_cmpxchg128)
 177:./include/linux/atomic/atomic-arch-fallback.h **** #define raw_cmpxchg128_relaxed arch_cmpxchg128
 178:./include/linux/atomic/atomic-arch-fallback.h **** #else
 179:./include/linux/atomic/atomic-arch-fallback.h **** extern void raw_cmpxchg128_relaxed_not_implemented(void);
 180:./include/linux/atomic/atomic-arch-fallback.h **** #define raw_cmpxchg128_relaxed(...) raw_cmpxchg128_relaxed_not_implemented()
 181:./include/linux/atomic/atomic-arch-fallback.h **** #endif
 182:./include/linux/atomic/atomic-arch-fallback.h **** 
 183:./include/linux/atomic/atomic-arch-fallback.h **** 
 184:./include/linux/atomic/atomic-arch-fallback.h **** 
 185:./include/linux/atomic/atomic-arch-fallback.h **** 
 186:./include/linux/atomic/atomic-arch-fallback.h **** 
 187:./include/linux/atomic/atomic-arch-fallback.h **** 
 188:./include/linux/atomic/atomic-arch-fallback.h **** 
 189:./include/linux/atomic/atomic-arch-fallback.h **** #if defined(arch_try_cmpxchg)
 190:./include/linux/atomic/atomic-arch-fallback.h **** #define raw_try_cmpxchg arch_try_cmpxchg
 191:./include/linux/atomic/atomic-arch-fallback.h **** #elif defined(arch_try_cmpxchg_relaxed)
 192:./include/linux/atomic/atomic-arch-fallback.h **** #define raw_try_cmpxchg(...) \
 193:./include/linux/atomic/atomic-arch-fallback.h **** 	__atomic_op_fence(arch_try_cmpxchg, __VA_ARGS__)
 194:./include/linux/atomic/atomic-arch-fallback.h **** #else
 195:./include/linux/atomic/atomic-arch-fallback.h **** #define raw_try_cmpxchg(_ptr, _oldp, _new) \
 196:./include/linux/atomic/atomic-arch-fallback.h **** ({ \
 197:./include/linux/atomic/atomic-arch-fallback.h **** 	typeof(*(_ptr)) *___op = (_oldp), ___o = *___op, ___r; \
ARM GAS  /tmp/cc3Q6Ngl.s 			page 36


 198:./include/linux/atomic/atomic-arch-fallback.h **** 	___r = raw_cmpxchg((_ptr), ___o, (_new)); \
 199:./include/linux/atomic/atomic-arch-fallback.h **** 	if (unlikely(___r != ___o)) \
 200:./include/linux/atomic/atomic-arch-fallback.h **** 		*___op = ___r; \
 201:./include/linux/atomic/atomic-arch-fallback.h **** 	likely(___r == ___o); \
 202:./include/linux/atomic/atomic-arch-fallback.h **** })
 203:./include/linux/atomic/atomic-arch-fallback.h **** #endif
 204:./include/linux/atomic/atomic-arch-fallback.h **** 
 205:./include/linux/atomic/atomic-arch-fallback.h **** #if defined(arch_try_cmpxchg_acquire)
 206:./include/linux/atomic/atomic-arch-fallback.h **** #define raw_try_cmpxchg_acquire arch_try_cmpxchg_acquire
 207:./include/linux/atomic/atomic-arch-fallback.h **** #elif defined(arch_try_cmpxchg_relaxed)
 208:./include/linux/atomic/atomic-arch-fallback.h **** #define raw_try_cmpxchg_acquire(...) \
 209:./include/linux/atomic/atomic-arch-fallback.h **** 	__atomic_op_acquire(arch_try_cmpxchg, __VA_ARGS__)
 210:./include/linux/atomic/atomic-arch-fallback.h **** #elif defined(arch_try_cmpxchg)
 211:./include/linux/atomic/atomic-arch-fallback.h **** #define raw_try_cmpxchg_acquire arch_try_cmpxchg
 212:./include/linux/atomic/atomic-arch-fallback.h **** #else
 213:./include/linux/atomic/atomic-arch-fallback.h **** #define raw_try_cmpxchg_acquire(_ptr, _oldp, _new) \
 214:./include/linux/atomic/atomic-arch-fallback.h **** ({ \
 215:./include/linux/atomic/atomic-arch-fallback.h **** 	typeof(*(_ptr)) *___op = (_oldp), ___o = *___op, ___r; \
 216:./include/linux/atomic/atomic-arch-fallback.h **** 	___r = raw_cmpxchg_acquire((_ptr), ___o, (_new)); \
 217:./include/linux/atomic/atomic-arch-fallback.h **** 	if (unlikely(___r != ___o)) \
 218:./include/linux/atomic/atomic-arch-fallback.h **** 		*___op = ___r; \
 219:./include/linux/atomic/atomic-arch-fallback.h **** 	likely(___r == ___o); \
 220:./include/linux/atomic/atomic-arch-fallback.h **** })
 221:./include/linux/atomic/atomic-arch-fallback.h **** #endif
 222:./include/linux/atomic/atomic-arch-fallback.h **** 
 223:./include/linux/atomic/atomic-arch-fallback.h **** #if defined(arch_try_cmpxchg_release)
 224:./include/linux/atomic/atomic-arch-fallback.h **** #define raw_try_cmpxchg_release arch_try_cmpxchg_release
 225:./include/linux/atomic/atomic-arch-fallback.h **** #elif defined(arch_try_cmpxchg_relaxed)
 226:./include/linux/atomic/atomic-arch-fallback.h **** #define raw_try_cmpxchg_release(...) \
 227:./include/linux/atomic/atomic-arch-fallback.h **** 	__atomic_op_release(arch_try_cmpxchg, __VA_ARGS__)
 228:./include/linux/atomic/atomic-arch-fallback.h **** #elif defined(arch_try_cmpxchg)
 229:./include/linux/atomic/atomic-arch-fallback.h **** #define raw_try_cmpxchg_release arch_try_cmpxchg
 230:./include/linux/atomic/atomic-arch-fallback.h **** #else
 231:./include/linux/atomic/atomic-arch-fallback.h **** #define raw_try_cmpxchg_release(_ptr, _oldp, _new) \
 232:./include/linux/atomic/atomic-arch-fallback.h **** ({ \
 233:./include/linux/atomic/atomic-arch-fallback.h **** 	typeof(*(_ptr)) *___op = (_oldp), ___o = *___op, ___r; \
 234:./include/linux/atomic/atomic-arch-fallback.h **** 	___r = raw_cmpxchg_release((_ptr), ___o, (_new)); \
 235:./include/linux/atomic/atomic-arch-fallback.h **** 	if (unlikely(___r != ___o)) \
 236:./include/linux/atomic/atomic-arch-fallback.h **** 		*___op = ___r; \
 237:./include/linux/atomic/atomic-arch-fallback.h **** 	likely(___r == ___o); \
 238:./include/linux/atomic/atomic-arch-fallback.h **** })
 239:./include/linux/atomic/atomic-arch-fallback.h **** #endif
 240:./include/linux/atomic/atomic-arch-fallback.h **** 
 241:./include/linux/atomic/atomic-arch-fallback.h **** #if defined(arch_try_cmpxchg_relaxed)
 242:./include/linux/atomic/atomic-arch-fallback.h **** #define raw_try_cmpxchg_relaxed arch_try_cmpxchg_relaxed
 243:./include/linux/atomic/atomic-arch-fallback.h **** #elif defined(arch_try_cmpxchg)
 244:./include/linux/atomic/atomic-arch-fallback.h **** #define raw_try_cmpxchg_relaxed arch_try_cmpxchg
 245:./include/linux/atomic/atomic-arch-fallback.h **** #else
 246:./include/linux/atomic/atomic-arch-fallback.h **** #define raw_try_cmpxchg_relaxed(_ptr, _oldp, _new) \
 247:./include/linux/atomic/atomic-arch-fallback.h **** ({ \
 248:./include/linux/atomic/atomic-arch-fallback.h **** 	typeof(*(_ptr)) *___op = (_oldp), ___o = *___op, ___r; \
 249:./include/linux/atomic/atomic-arch-fallback.h **** 	___r = raw_cmpxchg_relaxed((_ptr), ___o, (_new)); \
 250:./include/linux/atomic/atomic-arch-fallback.h **** 	if (unlikely(___r != ___o)) \
 251:./include/linux/atomic/atomic-arch-fallback.h **** 		*___op = ___r; \
 252:./include/linux/atomic/atomic-arch-fallback.h **** 	likely(___r == ___o); \
 253:./include/linux/atomic/atomic-arch-fallback.h **** })
 254:./include/linux/atomic/atomic-arch-fallback.h **** #endif
ARM GAS  /tmp/cc3Q6Ngl.s 			page 37


 255:./include/linux/atomic/atomic-arch-fallback.h **** 
 256:./include/linux/atomic/atomic-arch-fallback.h **** #if defined(arch_try_cmpxchg64)
 257:./include/linux/atomic/atomic-arch-fallback.h **** #define raw_try_cmpxchg64 arch_try_cmpxchg64
 258:./include/linux/atomic/atomic-arch-fallback.h **** #elif defined(arch_try_cmpxchg64_relaxed)
 259:./include/linux/atomic/atomic-arch-fallback.h **** #define raw_try_cmpxchg64(...) \
 260:./include/linux/atomic/atomic-arch-fallback.h **** 	__atomic_op_fence(arch_try_cmpxchg64, __VA_ARGS__)
 261:./include/linux/atomic/atomic-arch-fallback.h **** #else
 262:./include/linux/atomic/atomic-arch-fallback.h **** #define raw_try_cmpxchg64(_ptr, _oldp, _new) \
 263:./include/linux/atomic/atomic-arch-fallback.h **** ({ \
 264:./include/linux/atomic/atomic-arch-fallback.h **** 	typeof(*(_ptr)) *___op = (_oldp), ___o = *___op, ___r; \
 265:./include/linux/atomic/atomic-arch-fallback.h **** 	___r = raw_cmpxchg64((_ptr), ___o, (_new)); \
 266:./include/linux/atomic/atomic-arch-fallback.h **** 	if (unlikely(___r != ___o)) \
 267:./include/linux/atomic/atomic-arch-fallback.h **** 		*___op = ___r; \
 268:./include/linux/atomic/atomic-arch-fallback.h **** 	likely(___r == ___o); \
 269:./include/linux/atomic/atomic-arch-fallback.h **** })
 270:./include/linux/atomic/atomic-arch-fallback.h **** #endif
 271:./include/linux/atomic/atomic-arch-fallback.h **** 
 272:./include/linux/atomic/atomic-arch-fallback.h **** #if defined(arch_try_cmpxchg64_acquire)
 273:./include/linux/atomic/atomic-arch-fallback.h **** #define raw_try_cmpxchg64_acquire arch_try_cmpxchg64_acquire
 274:./include/linux/atomic/atomic-arch-fallback.h **** #elif defined(arch_try_cmpxchg64_relaxed)
 275:./include/linux/atomic/atomic-arch-fallback.h **** #define raw_try_cmpxchg64_acquire(...) \
 276:./include/linux/atomic/atomic-arch-fallback.h **** 	__atomic_op_acquire(arch_try_cmpxchg64, __VA_ARGS__)
 277:./include/linux/atomic/atomic-arch-fallback.h **** #elif defined(arch_try_cmpxchg64)
 278:./include/linux/atomic/atomic-arch-fallback.h **** #define raw_try_cmpxchg64_acquire arch_try_cmpxchg64
 279:./include/linux/atomic/atomic-arch-fallback.h **** #else
 280:./include/linux/atomic/atomic-arch-fallback.h **** #define raw_try_cmpxchg64_acquire(_ptr, _oldp, _new) \
 281:./include/linux/atomic/atomic-arch-fallback.h **** ({ \
 282:./include/linux/atomic/atomic-arch-fallback.h **** 	typeof(*(_ptr)) *___op = (_oldp), ___o = *___op, ___r; \
 283:./include/linux/atomic/atomic-arch-fallback.h **** 	___r = raw_cmpxchg64_acquire((_ptr), ___o, (_new)); \
 284:./include/linux/atomic/atomic-arch-fallback.h **** 	if (unlikely(___r != ___o)) \
 285:./include/linux/atomic/atomic-arch-fallback.h **** 		*___op = ___r; \
 286:./include/linux/atomic/atomic-arch-fallback.h **** 	likely(___r == ___o); \
 287:./include/linux/atomic/atomic-arch-fallback.h **** })
 288:./include/linux/atomic/atomic-arch-fallback.h **** #endif
 289:./include/linux/atomic/atomic-arch-fallback.h **** 
 290:./include/linux/atomic/atomic-arch-fallback.h **** #if defined(arch_try_cmpxchg64_release)
 291:./include/linux/atomic/atomic-arch-fallback.h **** #define raw_try_cmpxchg64_release arch_try_cmpxchg64_release
 292:./include/linux/atomic/atomic-arch-fallback.h **** #elif defined(arch_try_cmpxchg64_relaxed)
 293:./include/linux/atomic/atomic-arch-fallback.h **** #define raw_try_cmpxchg64_release(...) \
 294:./include/linux/atomic/atomic-arch-fallback.h **** 	__atomic_op_release(arch_try_cmpxchg64, __VA_ARGS__)
 295:./include/linux/atomic/atomic-arch-fallback.h **** #elif defined(arch_try_cmpxchg64)
 296:./include/linux/atomic/atomic-arch-fallback.h **** #define raw_try_cmpxchg64_release arch_try_cmpxchg64
 297:./include/linux/atomic/atomic-arch-fallback.h **** #else
 298:./include/linux/atomic/atomic-arch-fallback.h **** #define raw_try_cmpxchg64_release(_ptr, _oldp, _new) \
 299:./include/linux/atomic/atomic-arch-fallback.h **** ({ \
 300:./include/linux/atomic/atomic-arch-fallback.h **** 	typeof(*(_ptr)) *___op = (_oldp), ___o = *___op, ___r; \
 301:./include/linux/atomic/atomic-arch-fallback.h **** 	___r = raw_cmpxchg64_release((_ptr), ___o, (_new)); \
 302:./include/linux/atomic/atomic-arch-fallback.h **** 	if (unlikely(___r != ___o)) \
 303:./include/linux/atomic/atomic-arch-fallback.h **** 		*___op = ___r; \
 304:./include/linux/atomic/atomic-arch-fallback.h **** 	likely(___r == ___o); \
 305:./include/linux/atomic/atomic-arch-fallback.h **** })
 306:./include/linux/atomic/atomic-arch-fallback.h **** #endif
 307:./include/linux/atomic/atomic-arch-fallback.h **** 
 308:./include/linux/atomic/atomic-arch-fallback.h **** #if defined(arch_try_cmpxchg64_relaxed)
 309:./include/linux/atomic/atomic-arch-fallback.h **** #define raw_try_cmpxchg64_relaxed arch_try_cmpxchg64_relaxed
 310:./include/linux/atomic/atomic-arch-fallback.h **** #elif defined(arch_try_cmpxchg64)
 311:./include/linux/atomic/atomic-arch-fallback.h **** #define raw_try_cmpxchg64_relaxed arch_try_cmpxchg64
ARM GAS  /tmp/cc3Q6Ngl.s 			page 38


 312:./include/linux/atomic/atomic-arch-fallback.h **** #else
 313:./include/linux/atomic/atomic-arch-fallback.h **** #define raw_try_cmpxchg64_relaxed(_ptr, _oldp, _new) \
 314:./include/linux/atomic/atomic-arch-fallback.h **** ({ \
 315:./include/linux/atomic/atomic-arch-fallback.h **** 	typeof(*(_ptr)) *___op = (_oldp), ___o = *___op, ___r; \
 316:./include/linux/atomic/atomic-arch-fallback.h **** 	___r = raw_cmpxchg64_relaxed((_ptr), ___o, (_new)); \
 317:./include/linux/atomic/atomic-arch-fallback.h **** 	if (unlikely(___r != ___o)) \
 318:./include/linux/atomic/atomic-arch-fallback.h **** 		*___op = ___r; \
 319:./include/linux/atomic/atomic-arch-fallback.h **** 	likely(___r == ___o); \
 320:./include/linux/atomic/atomic-arch-fallback.h **** })
 321:./include/linux/atomic/atomic-arch-fallback.h **** #endif
 322:./include/linux/atomic/atomic-arch-fallback.h **** 
 323:./include/linux/atomic/atomic-arch-fallback.h **** #if defined(arch_try_cmpxchg128)
 324:./include/linux/atomic/atomic-arch-fallback.h **** #define raw_try_cmpxchg128 arch_try_cmpxchg128
 325:./include/linux/atomic/atomic-arch-fallback.h **** #elif defined(arch_try_cmpxchg128_relaxed)
 326:./include/linux/atomic/atomic-arch-fallback.h **** #define raw_try_cmpxchg128(...) \
 327:./include/linux/atomic/atomic-arch-fallback.h **** 	__atomic_op_fence(arch_try_cmpxchg128, __VA_ARGS__)
 328:./include/linux/atomic/atomic-arch-fallback.h **** #else
 329:./include/linux/atomic/atomic-arch-fallback.h **** #define raw_try_cmpxchg128(_ptr, _oldp, _new) \
 330:./include/linux/atomic/atomic-arch-fallback.h **** ({ \
 331:./include/linux/atomic/atomic-arch-fallback.h **** 	typeof(*(_ptr)) *___op = (_oldp), ___o = *___op, ___r; \
 332:./include/linux/atomic/atomic-arch-fallback.h **** 	___r = raw_cmpxchg128((_ptr), ___o, (_new)); \
 333:./include/linux/atomic/atomic-arch-fallback.h **** 	if (unlikely(___r != ___o)) \
 334:./include/linux/atomic/atomic-arch-fallback.h **** 		*___op = ___r; \
 335:./include/linux/atomic/atomic-arch-fallback.h **** 	likely(___r == ___o); \
 336:./include/linux/atomic/atomic-arch-fallback.h **** })
 337:./include/linux/atomic/atomic-arch-fallback.h **** #endif
 338:./include/linux/atomic/atomic-arch-fallback.h **** 
 339:./include/linux/atomic/atomic-arch-fallback.h **** #if defined(arch_try_cmpxchg128_acquire)
 340:./include/linux/atomic/atomic-arch-fallback.h **** #define raw_try_cmpxchg128_acquire arch_try_cmpxchg128_acquire
 341:./include/linux/atomic/atomic-arch-fallback.h **** #elif defined(arch_try_cmpxchg128_relaxed)
 342:./include/linux/atomic/atomic-arch-fallback.h **** #define raw_try_cmpxchg128_acquire(...) \
 343:./include/linux/atomic/atomic-arch-fallback.h **** 	__atomic_op_acquire(arch_try_cmpxchg128, __VA_ARGS__)
 344:./include/linux/atomic/atomic-arch-fallback.h **** #elif defined(arch_try_cmpxchg128)
 345:./include/linux/atomic/atomic-arch-fallback.h **** #define raw_try_cmpxchg128_acquire arch_try_cmpxchg128
 346:./include/linux/atomic/atomic-arch-fallback.h **** #else
 347:./include/linux/atomic/atomic-arch-fallback.h **** #define raw_try_cmpxchg128_acquire(_ptr, _oldp, _new) \
 348:./include/linux/atomic/atomic-arch-fallback.h **** ({ \
 349:./include/linux/atomic/atomic-arch-fallback.h **** 	typeof(*(_ptr)) *___op = (_oldp), ___o = *___op, ___r; \
 350:./include/linux/atomic/atomic-arch-fallback.h **** 	___r = raw_cmpxchg128_acquire((_ptr), ___o, (_new)); \
 351:./include/linux/atomic/atomic-arch-fallback.h **** 	if (unlikely(___r != ___o)) \
 352:./include/linux/atomic/atomic-arch-fallback.h **** 		*___op = ___r; \
 353:./include/linux/atomic/atomic-arch-fallback.h **** 	likely(___r == ___o); \
 354:./include/linux/atomic/atomic-arch-fallback.h **** })
 355:./include/linux/atomic/atomic-arch-fallback.h **** #endif
 356:./include/linux/atomic/atomic-arch-fallback.h **** 
 357:./include/linux/atomic/atomic-arch-fallback.h **** #if defined(arch_try_cmpxchg128_release)
 358:./include/linux/atomic/atomic-arch-fallback.h **** #define raw_try_cmpxchg128_release arch_try_cmpxchg128_release
 359:./include/linux/atomic/atomic-arch-fallback.h **** #elif defined(arch_try_cmpxchg128_relaxed)
 360:./include/linux/atomic/atomic-arch-fallback.h **** #define raw_try_cmpxchg128_release(...) \
 361:./include/linux/atomic/atomic-arch-fallback.h **** 	__atomic_op_release(arch_try_cmpxchg128, __VA_ARGS__)
 362:./include/linux/atomic/atomic-arch-fallback.h **** #elif defined(arch_try_cmpxchg128)
 363:./include/linux/atomic/atomic-arch-fallback.h **** #define raw_try_cmpxchg128_release arch_try_cmpxchg128
 364:./include/linux/atomic/atomic-arch-fallback.h **** #else
 365:./include/linux/atomic/atomic-arch-fallback.h **** #define raw_try_cmpxchg128_release(_ptr, _oldp, _new) \
 366:./include/linux/atomic/atomic-arch-fallback.h **** ({ \
 367:./include/linux/atomic/atomic-arch-fallback.h **** 	typeof(*(_ptr)) *___op = (_oldp), ___o = *___op, ___r; \
 368:./include/linux/atomic/atomic-arch-fallback.h **** 	___r = raw_cmpxchg128_release((_ptr), ___o, (_new)); \
ARM GAS  /tmp/cc3Q6Ngl.s 			page 39


 369:./include/linux/atomic/atomic-arch-fallback.h **** 	if (unlikely(___r != ___o)) \
 370:./include/linux/atomic/atomic-arch-fallback.h **** 		*___op = ___r; \
 371:./include/linux/atomic/atomic-arch-fallback.h **** 	likely(___r == ___o); \
 372:./include/linux/atomic/atomic-arch-fallback.h **** })
 373:./include/linux/atomic/atomic-arch-fallback.h **** #endif
 374:./include/linux/atomic/atomic-arch-fallback.h **** 
 375:./include/linux/atomic/atomic-arch-fallback.h **** #if defined(arch_try_cmpxchg128_relaxed)
 376:./include/linux/atomic/atomic-arch-fallback.h **** #define raw_try_cmpxchg128_relaxed arch_try_cmpxchg128_relaxed
 377:./include/linux/atomic/atomic-arch-fallback.h **** #elif defined(arch_try_cmpxchg128)
 378:./include/linux/atomic/atomic-arch-fallback.h **** #define raw_try_cmpxchg128_relaxed arch_try_cmpxchg128
 379:./include/linux/atomic/atomic-arch-fallback.h **** #else
 380:./include/linux/atomic/atomic-arch-fallback.h **** #define raw_try_cmpxchg128_relaxed(_ptr, _oldp, _new) \
 381:./include/linux/atomic/atomic-arch-fallback.h **** ({ \
 382:./include/linux/atomic/atomic-arch-fallback.h **** 	typeof(*(_ptr)) *___op = (_oldp), ___o = *___op, ___r; \
 383:./include/linux/atomic/atomic-arch-fallback.h **** 	___r = raw_cmpxchg128_relaxed((_ptr), ___o, (_new)); \
 384:./include/linux/atomic/atomic-arch-fallback.h **** 	if (unlikely(___r != ___o)) \
 385:./include/linux/atomic/atomic-arch-fallback.h **** 		*___op = ___r; \
 386:./include/linux/atomic/atomic-arch-fallback.h **** 	likely(___r == ___o); \
 387:./include/linux/atomic/atomic-arch-fallback.h **** })
 388:./include/linux/atomic/atomic-arch-fallback.h **** #endif
 389:./include/linux/atomic/atomic-arch-fallback.h **** 
 390:./include/linux/atomic/atomic-arch-fallback.h **** #define raw_cmpxchg_local arch_cmpxchg_local
 391:./include/linux/atomic/atomic-arch-fallback.h **** 
 392:./include/linux/atomic/atomic-arch-fallback.h **** #ifdef arch_try_cmpxchg_local
 393:./include/linux/atomic/atomic-arch-fallback.h **** #define raw_try_cmpxchg_local arch_try_cmpxchg_local
 394:./include/linux/atomic/atomic-arch-fallback.h **** #else
 395:./include/linux/atomic/atomic-arch-fallback.h **** #define raw_try_cmpxchg_local(_ptr, _oldp, _new) \
 396:./include/linux/atomic/atomic-arch-fallback.h **** ({ \
 397:./include/linux/atomic/atomic-arch-fallback.h **** 	typeof(*(_ptr)) *___op = (_oldp), ___o = *___op, ___r; \
 398:./include/linux/atomic/atomic-arch-fallback.h **** 	___r = raw_cmpxchg_local((_ptr), ___o, (_new)); \
 399:./include/linux/atomic/atomic-arch-fallback.h **** 	if (unlikely(___r != ___o)) \
 400:./include/linux/atomic/atomic-arch-fallback.h **** 		*___op = ___r; \
 401:./include/linux/atomic/atomic-arch-fallback.h **** 	likely(___r == ___o); \
 402:./include/linux/atomic/atomic-arch-fallback.h **** })
 403:./include/linux/atomic/atomic-arch-fallback.h **** #endif
 404:./include/linux/atomic/atomic-arch-fallback.h **** 
 405:./include/linux/atomic/atomic-arch-fallback.h **** #define raw_cmpxchg64_local arch_cmpxchg64_local
 406:./include/linux/atomic/atomic-arch-fallback.h **** 
 407:./include/linux/atomic/atomic-arch-fallback.h **** #ifdef arch_try_cmpxchg64_local
 408:./include/linux/atomic/atomic-arch-fallback.h **** #define raw_try_cmpxchg64_local arch_try_cmpxchg64_local
 409:./include/linux/atomic/atomic-arch-fallback.h **** #else
 410:./include/linux/atomic/atomic-arch-fallback.h **** #define raw_try_cmpxchg64_local(_ptr, _oldp, _new) \
 411:./include/linux/atomic/atomic-arch-fallback.h **** ({ \
 412:./include/linux/atomic/atomic-arch-fallback.h **** 	typeof(*(_ptr)) *___op = (_oldp), ___o = *___op, ___r; \
 413:./include/linux/atomic/atomic-arch-fallback.h **** 	___r = raw_cmpxchg64_local((_ptr), ___o, (_new)); \
 414:./include/linux/atomic/atomic-arch-fallback.h **** 	if (unlikely(___r != ___o)) \
 415:./include/linux/atomic/atomic-arch-fallback.h **** 		*___op = ___r; \
 416:./include/linux/atomic/atomic-arch-fallback.h **** 	likely(___r == ___o); \
 417:./include/linux/atomic/atomic-arch-fallback.h **** })
 418:./include/linux/atomic/atomic-arch-fallback.h **** #endif
 419:./include/linux/atomic/atomic-arch-fallback.h **** 
 420:./include/linux/atomic/atomic-arch-fallback.h **** #define raw_cmpxchg128_local arch_cmpxchg128_local
 421:./include/linux/atomic/atomic-arch-fallback.h **** 
 422:./include/linux/atomic/atomic-arch-fallback.h **** #ifdef arch_try_cmpxchg128_local
 423:./include/linux/atomic/atomic-arch-fallback.h **** #define raw_try_cmpxchg128_local arch_try_cmpxchg128_local
 424:./include/linux/atomic/atomic-arch-fallback.h **** #else
 425:./include/linux/atomic/atomic-arch-fallback.h **** #define raw_try_cmpxchg128_local(_ptr, _oldp, _new) \
ARM GAS  /tmp/cc3Q6Ngl.s 			page 40


 426:./include/linux/atomic/atomic-arch-fallback.h **** ({ \
 427:./include/linux/atomic/atomic-arch-fallback.h **** 	typeof(*(_ptr)) *___op = (_oldp), ___o = *___op, ___r; \
 428:./include/linux/atomic/atomic-arch-fallback.h **** 	___r = raw_cmpxchg128_local((_ptr), ___o, (_new)); \
 429:./include/linux/atomic/atomic-arch-fallback.h **** 	if (unlikely(___r != ___o)) \
 430:./include/linux/atomic/atomic-arch-fallback.h **** 		*___op = ___r; \
 431:./include/linux/atomic/atomic-arch-fallback.h **** 	likely(___r == ___o); \
 432:./include/linux/atomic/atomic-arch-fallback.h **** })
 433:./include/linux/atomic/atomic-arch-fallback.h **** #endif
 434:./include/linux/atomic/atomic-arch-fallback.h **** 
 435:./include/linux/atomic/atomic-arch-fallback.h **** #define raw_sync_cmpxchg arch_sync_cmpxchg
 436:./include/linux/atomic/atomic-arch-fallback.h **** 
 437:./include/linux/atomic/atomic-arch-fallback.h **** #ifdef arch_sync_try_cmpxchg
 438:./include/linux/atomic/atomic-arch-fallback.h **** #define raw_sync_try_cmpxchg arch_sync_try_cmpxchg
 439:./include/linux/atomic/atomic-arch-fallback.h **** #else
 440:./include/linux/atomic/atomic-arch-fallback.h **** #define raw_sync_try_cmpxchg(_ptr, _oldp, _new) \
 441:./include/linux/atomic/atomic-arch-fallback.h **** ({ \
 442:./include/linux/atomic/atomic-arch-fallback.h **** 	typeof(*(_ptr)) *___op = (_oldp), ___o = *___op, ___r; \
 443:./include/linux/atomic/atomic-arch-fallback.h **** 	___r = raw_sync_cmpxchg((_ptr), ___o, (_new)); \
 444:./include/linux/atomic/atomic-arch-fallback.h **** 	if (unlikely(___r != ___o)) \
 445:./include/linux/atomic/atomic-arch-fallback.h **** 		*___op = ___r; \
 446:./include/linux/atomic/atomic-arch-fallback.h **** 	likely(___r == ___o); \
 447:./include/linux/atomic/atomic-arch-fallback.h **** })
 448:./include/linux/atomic/atomic-arch-fallback.h **** #endif
 449:./include/linux/atomic/atomic-arch-fallback.h **** 
 450:./include/linux/atomic/atomic-arch-fallback.h **** /**
 451:./include/linux/atomic/atomic-arch-fallback.h ****  * raw_atomic_read() - atomic load with relaxed ordering
 452:./include/linux/atomic/atomic-arch-fallback.h ****  * @v: pointer to atomic_t
 453:./include/linux/atomic/atomic-arch-fallback.h ****  *
 454:./include/linux/atomic/atomic-arch-fallback.h ****  * Atomically loads the value of @v with relaxed ordering.
 455:./include/linux/atomic/atomic-arch-fallback.h ****  *
 456:./include/linux/atomic/atomic-arch-fallback.h ****  * Safe to use in noinstr code; prefer atomic_read() elsewhere.
 457:./include/linux/atomic/atomic-arch-fallback.h ****  *
 458:./include/linux/atomic/atomic-arch-fallback.h ****  * Return: The value loaded from @v.
 459:./include/linux/atomic/atomic-arch-fallback.h ****  */
 460:./include/linux/atomic/atomic-arch-fallback.h **** static __always_inline int
 461:./include/linux/atomic/atomic-arch-fallback.h **** raw_atomic_read(const atomic_t *v)
 462:./include/linux/atomic/atomic-arch-fallback.h **** {
 463:./include/linux/atomic/atomic-arch-fallback.h **** 	return arch_atomic_read(v);
 464:./include/linux/atomic/atomic-arch-fallback.h **** }
 465:./include/linux/atomic/atomic-arch-fallback.h **** 
 466:./include/linux/atomic/atomic-arch-fallback.h **** /**
 467:./include/linux/atomic/atomic-arch-fallback.h ****  * raw_atomic_read_acquire() - atomic load with acquire ordering
 468:./include/linux/atomic/atomic-arch-fallback.h ****  * @v: pointer to atomic_t
 469:./include/linux/atomic/atomic-arch-fallback.h ****  *
 470:./include/linux/atomic/atomic-arch-fallback.h ****  * Atomically loads the value of @v with acquire ordering.
 471:./include/linux/atomic/atomic-arch-fallback.h ****  *
 472:./include/linux/atomic/atomic-arch-fallback.h ****  * Safe to use in noinstr code; prefer atomic_read_acquire() elsewhere.
 473:./include/linux/atomic/atomic-arch-fallback.h ****  *
 474:./include/linux/atomic/atomic-arch-fallback.h ****  * Return: The value loaded from @v.
 475:./include/linux/atomic/atomic-arch-fallback.h ****  */
 476:./include/linux/atomic/atomic-arch-fallback.h **** static __always_inline int
 477:./include/linux/atomic/atomic-arch-fallback.h **** raw_atomic_read_acquire(const atomic_t *v)
 478:./include/linux/atomic/atomic-arch-fallback.h **** {
 479:./include/linux/atomic/atomic-arch-fallback.h **** #if defined(arch_atomic_read_acquire)
 480:./include/linux/atomic/atomic-arch-fallback.h **** 	return arch_atomic_read_acquire(v);
 481:./include/linux/atomic/atomic-arch-fallback.h **** #else
 482:./include/linux/atomic/atomic-arch-fallback.h **** 	int ret;
ARM GAS  /tmp/cc3Q6Ngl.s 			page 41


 483:./include/linux/atomic/atomic-arch-fallback.h **** 
 484:./include/linux/atomic/atomic-arch-fallback.h **** 	if (__native_word(atomic_t)) {
 485:./include/linux/atomic/atomic-arch-fallback.h **** 		ret = smp_load_acquire(&(v)->counter);
 486:./include/linux/atomic/atomic-arch-fallback.h **** 	} else {
 487:./include/linux/atomic/atomic-arch-fallback.h **** 		ret = raw_atomic_read(v);
 488:./include/linux/atomic/atomic-arch-fallback.h **** 		__atomic_acquire_fence();
 489:./include/linux/atomic/atomic-arch-fallback.h **** 	}
 490:./include/linux/atomic/atomic-arch-fallback.h **** 
 491:./include/linux/atomic/atomic-arch-fallback.h **** 	return ret;
 492:./include/linux/atomic/atomic-arch-fallback.h **** #endif
 493:./include/linux/atomic/atomic-arch-fallback.h **** }
 494:./include/linux/atomic/atomic-arch-fallback.h **** 
 495:./include/linux/atomic/atomic-arch-fallback.h **** /**
 496:./include/linux/atomic/atomic-arch-fallback.h ****  * raw_atomic_set() - atomic set with relaxed ordering
 497:./include/linux/atomic/atomic-arch-fallback.h ****  * @v: pointer to atomic_t
 498:./include/linux/atomic/atomic-arch-fallback.h ****  * @i: int value to assign
 499:./include/linux/atomic/atomic-arch-fallback.h ****  *
 500:./include/linux/atomic/atomic-arch-fallback.h ****  * Atomically sets @v to @i with relaxed ordering.
 501:./include/linux/atomic/atomic-arch-fallback.h ****  *
 502:./include/linux/atomic/atomic-arch-fallback.h ****  * Safe to use in noinstr code; prefer atomic_set() elsewhere.
 503:./include/linux/atomic/atomic-arch-fallback.h ****  *
 504:./include/linux/atomic/atomic-arch-fallback.h ****  * Return: Nothing.
 505:./include/linux/atomic/atomic-arch-fallback.h ****  */
 506:./include/linux/atomic/atomic-arch-fallback.h **** static __always_inline void
 507:./include/linux/atomic/atomic-arch-fallback.h **** raw_atomic_set(atomic_t *v, int i)
 670              		.loc 6 507 1 view .LVU147
 671              	.LBB229:
 508:./include/linux/atomic/atomic-arch-fallback.h **** {
 509:./include/linux/atomic/atomic-arch-fallback.h **** 	arch_atomic_set(v, i);
 672              		.loc 6 509 2 view .LVU148
 673              		.loc 6 509 2 view .LVU149
 674              	.LBB230:
 675              		.loc 6 509 2 view .LVU150
 676              		.loc 6 509 2 view .LVU151
 677              	.LBE230:
 678              		.loc 6 509 2 discriminator 2 view .LVU152
 679              		.loc 6 509 2 discriminator 2 view .LVU153
 680              		.loc 6 509 2 discriminator 2 view .LVU154
 681 0028 0023     		movs	r3, #0
 682 002a C360     		str	r3, [r0, #12]
 683              		.loc 6 509 2 discriminator 2 view .LVU155
 684              		.loc 6 509 2 discriminator 2 view .LVU156
 685              	.LVL51:
 686              		.loc 6 509 2 is_stmt 0 discriminator 2 view .LVU157
 687              	.LBE229:
 688              	.LBE228:
 689              	.LBE227:
  77:./fs/ramfs/ramfs.c ****     INIT_LIST_HEAD(&initram_inode->list_node);
 690              		.loc 1 77 5 is_stmt 1 view .LVU158
 691 002c 2430     		adds	r0, r0, #36
 692              	.LVL52:
  77:./fs/ramfs/ramfs.c ****     INIT_LIST_HEAD(&initram_inode->list_node);
 693              		.loc 1 77 5 is_stmt 0 view .LVU159
 694 002e FFF7FEFF 		bl	spin_lock_init
 695              	.LVL53:
  78:./fs/ramfs/ramfs.c ****     INIT_LIST_HEAD(&initram_inode->dentry_list_head);
 696              		.loc 1 78 5 is_stmt 1 view .LVU160
ARM GAS  /tmp/cc3Q6Ngl.s 			page 42


 697 0032 04F11406 		add	r6, r4, #20
 698              	.LVL54:
 699              	.LBB231:
 700              	.LBI231:
 701              		.file 7 "./include/linux/list.h"
   1:./include/linux/list.h **** /* SPDX-License-Identifier: GPL-2.0 */
   2:./include/linux/list.h **** #ifndef _LINUX_LIST_H
   3:./include/linux/list.h **** #define _LINUX_LIST_H
   4:./include/linux/list.h **** 
   5:./include/linux/list.h **** #include <linux/container_of.h>
   6:./include/linux/list.h **** #include <linux/types.h>
   7:./include/linux/list.h **** #include <linux/stddef.h>
   8:./include/linux/list.h **** #include <linux/poison.h>
   9:./include/linux/list.h **** #include <linux/const.h>
  10:./include/linux/list.h **** 
  11:./include/linux/list.h **** #include <asm/barrier.h>
  12:./include/linux/list.h **** #include <linux/rwonce.h>
  13:./include/linux/list.h **** /*
  14:./include/linux/list.h ****  * Circular doubly linked list implementation.
  15:./include/linux/list.h ****  *
  16:./include/linux/list.h ****  * Some of the internal functions ("__xxx") are useful when
  17:./include/linux/list.h ****  * manipulating whole lists rather than single entries, as
  18:./include/linux/list.h ****  * sometimes we already know the next/prev entries and we can
  19:./include/linux/list.h ****  * generate better code by using them directly rather than
  20:./include/linux/list.h ****  * using the generic single-entry routines.
  21:./include/linux/list.h ****  */
  22:./include/linux/list.h **** 
  23:./include/linux/list.h **** #define LIST_HEAD_INIT(name) { &(name), &(name) }
  24:./include/linux/list.h **** 
  25:./include/linux/list.h **** #define LIST_HEAD(name) \
  26:./include/linux/list.h **** 	struct list_head name = LIST_HEAD_INIT(name)
  27:./include/linux/list.h **** 
  28:./include/linux/list.h **** /**
  29:./include/linux/list.h ****  * INIT_LIST_HEAD - Initialize a list_head structure
  30:./include/linux/list.h ****  * @list: list_head structure to be initialized.
  31:./include/linux/list.h ****  *
  32:./include/linux/list.h ****  * Initializes the list_head to point to itself.  If it is a list header,
  33:./include/linux/list.h ****  * the result is an empty list.
  34:./include/linux/list.h ****  */
  35:./include/linux/list.h **** static inline void INIT_LIST_HEAD(struct list_head *list)
 702              		.loc 7 35 20 view .LVU161
 703              	.LBB232:
  36:./include/linux/list.h **** {
  37:./include/linux/list.h **** 	WRITE_ONCE(list->next, list);
 704              		.loc 7 37 2 view .LVU162
 705              		.loc 7 37 2 view .LVU163
 706              	.LBB233:
 707              		.loc 7 37 2 view .LVU164
 708              		.loc 7 37 2 view .LVU165
 709              	.LBE233:
 710              		.loc 7 37 2 discriminator 2 view .LVU166
 711              		.loc 7 37 2 discriminator 2 view .LVU167
 712              		.loc 7 37 2 discriminator 2 view .LVU168
 713 0036 6661     		str	r6, [r4, #20]
 714              		.loc 7 37 2 discriminator 2 view .LVU169
 715              		.loc 7 37 2 discriminator 2 view .LVU170
  38:./include/linux/list.h **** 	WRITE_ONCE(list->prev, list);
ARM GAS  /tmp/cc3Q6Ngl.s 			page 43


 716              		.loc 7 38 2 view .LVU171
 717              		.loc 7 38 2 view .LVU172
 718              	.LBB234:
 719              		.loc 7 38 2 view .LVU173
 720              		.loc 7 38 2 view .LVU174
 721              	.LBE234:
 722              		.loc 7 38 2 discriminator 2 view .LVU175
 723              		.loc 7 38 2 discriminator 2 view .LVU176
 724              		.loc 7 38 2 discriminator 2 view .LVU177
 725 0038 A661     		str	r6, [r4, #24]
 726              		.loc 7 38 2 discriminator 2 view .LVU178
 727              		.loc 7 38 2 discriminator 2 view .LVU179
 728              	.LVL55:
 729              		.loc 7 38 2 is_stmt 0 discriminator 2 view .LVU180
 730              	.LBE232:
 731              	.LBE231:
  79:./fs/ramfs/ramfs.c ****     
 732              		.loc 1 79 5 is_stmt 1 view .LVU181
 733 003a 04F11C03 		add	r3, r4, #28
 734              	.LVL56:
 735              	.LBB235:
 736              	.LBI235:
  35:./include/linux/list.h **** {
 737              		.loc 7 35 20 view .LVU182
 738              	.LBB236:
  37:./include/linux/list.h **** 	WRITE_ONCE(list->prev, list);
 739              		.loc 7 37 2 view .LVU183
  37:./include/linux/list.h **** 	WRITE_ONCE(list->prev, list);
 740              		.loc 7 37 2 view .LVU184
 741              	.LBB237:
  37:./include/linux/list.h **** 	WRITE_ONCE(list->prev, list);
 742              		.loc 7 37 2 view .LVU185
  37:./include/linux/list.h **** 	WRITE_ONCE(list->prev, list);
 743              		.loc 7 37 2 view .LVU186
 744              	.LBE237:
  37:./include/linux/list.h **** 	WRITE_ONCE(list->prev, list);
 745              		.loc 7 37 2 discriminator 2 view .LVU187
  37:./include/linux/list.h **** 	WRITE_ONCE(list->prev, list);
 746              		.loc 7 37 2 discriminator 2 view .LVU188
  37:./include/linux/list.h **** 	WRITE_ONCE(list->prev, list);
 747              		.loc 7 37 2 discriminator 2 view .LVU189
 748 003e E361     		str	r3, [r4, #28]
  37:./include/linux/list.h **** 	WRITE_ONCE(list->prev, list);
 749              		.loc 7 37 2 discriminator 2 view .LVU190
  37:./include/linux/list.h **** 	WRITE_ONCE(list->prev, list);
 750              		.loc 7 37 2 discriminator 2 view .LVU191
 751              		.loc 7 38 2 view .LVU192
 752              		.loc 7 38 2 view .LVU193
 753              	.LBB238:
 754              		.loc 7 38 2 view .LVU194
 755              		.loc 7 38 2 view .LVU195
 756              	.LBE238:
 757              		.loc 7 38 2 discriminator 2 view .LVU196
 758              		.loc 7 38 2 discriminator 2 view .LVU197
 759              		.loc 7 38 2 discriminator 2 view .LVU198
 760 0040 2362     		str	r3, [r4, #32]
 761              		.loc 7 38 2 discriminator 2 view .LVU199
ARM GAS  /tmp/cc3Q6Ngl.s 			page 44


 762              		.loc 7 38 2 discriminator 2 view .LVU200
 763              	.LVL57:
 764              		.loc 7 38 2 is_stmt 0 discriminator 2 view .LVU201
 765              	.LBE236:
 766              	.LBE235:
  81:./fs/ramfs/ramfs.c ****     list_add(&initram_inode->list_node,&sb->inode_list_head);
 767              		.loc 1 81 5 is_stmt 1 view .LVU202
 768 0042 2F1D     		adds	r7, r5, #4
 769              	.LVL58:
  81:./fs/ramfs/ramfs.c ****     list_add(&initram_inode->list_node,&sb->inode_list_head);
 770              		.loc 1 81 5 is_stmt 0 view .LVU203
 771 0044 3846     		mov	r0, r7
 772 0046 FFF7FEFF 		bl	spin_lock
 773              	.LVL59:
  82:./fs/ramfs/ramfs.c ****     spin_unlock(&sb->lock);
 774              		.loc 1 82 5 is_stmt 1 view .LVU204
 775 004a 05F11802 		add	r2, r5, #24
 776              	.LVL60:
 777              	.LBB239:
 778              	.LBI239:
  39:./include/linux/list.h **** }
  40:./include/linux/list.h **** 
  41:./include/linux/list.h **** #ifdef CONFIG_LIST_HARDENED
  42:./include/linux/list.h **** 
  43:./include/linux/list.h **** #ifdef CONFIG_DEBUG_LIST
  44:./include/linux/list.h **** # define __list_valid_slowpath
  45:./include/linux/list.h **** #else
  46:./include/linux/list.h **** # define __list_valid_slowpath __cold __preserve_most
  47:./include/linux/list.h **** #endif
  48:./include/linux/list.h **** 
  49:./include/linux/list.h **** /*
  50:./include/linux/list.h ****  * Performs the full set of list corruption checks before __list_add().
  51:./include/linux/list.h ****  * On list corruption reports a warning, and returns false.
  52:./include/linux/list.h ****  */
  53:./include/linux/list.h **** extern bool __list_valid_slowpath __list_add_valid_or_report(struct list_head *new,
  54:./include/linux/list.h **** 							     struct list_head *prev,
  55:./include/linux/list.h **** 							     struct list_head *next);
  56:./include/linux/list.h **** 
  57:./include/linux/list.h **** /*
  58:./include/linux/list.h ****  * Performs list corruption checks before __list_add(). Returns false if a
  59:./include/linux/list.h ****  * corruption is detected, true otherwise.
  60:./include/linux/list.h ****  *
  61:./include/linux/list.h ****  * With CONFIG_LIST_HARDENED only, performs minimal list integrity checking
  62:./include/linux/list.h ****  * inline to catch non-faulting corruptions, and only if a corruption is
  63:./include/linux/list.h ****  * detected calls the reporting function __list_add_valid_or_report().
  64:./include/linux/list.h ****  */
  65:./include/linux/list.h **** static __always_inline bool __list_add_valid(struct list_head *new,
  66:./include/linux/list.h **** 					     struct list_head *prev,
  67:./include/linux/list.h **** 					     struct list_head *next)
  68:./include/linux/list.h **** {
  69:./include/linux/list.h **** 	bool ret = true;
  70:./include/linux/list.h **** 
  71:./include/linux/list.h **** 	if (!IS_ENABLED(CONFIG_DEBUG_LIST)) {
  72:./include/linux/list.h **** 		/*
  73:./include/linux/list.h **** 		 * With the hardening version, elide checking if next and prev
  74:./include/linux/list.h **** 		 * are NULL, since the immediate dereference of them below would
  75:./include/linux/list.h **** 		 * result in a fault if NULL.
ARM GAS  /tmp/cc3Q6Ngl.s 			page 45


  76:./include/linux/list.h **** 		 *
  77:./include/linux/list.h **** 		 * With the reduced set of checks, we can afford to inline the
  78:./include/linux/list.h **** 		 * checks, which also gives the compiler a chance to elide some
  79:./include/linux/list.h **** 		 * of them completely if they can be proven at compile-time. If
  80:./include/linux/list.h **** 		 * one of the pre-conditions does not hold, the slow-path will
  81:./include/linux/list.h **** 		 * show a report which pre-condition failed.
  82:./include/linux/list.h **** 		 */
  83:./include/linux/list.h **** 		if (likely(next->prev == prev && prev->next == next && new != prev && new != next))
  84:./include/linux/list.h **** 			return true;
  85:./include/linux/list.h **** 		ret = false;
  86:./include/linux/list.h **** 	}
  87:./include/linux/list.h **** 
  88:./include/linux/list.h **** 	ret &= __list_add_valid_or_report(new, prev, next);
  89:./include/linux/list.h **** 	return ret;
  90:./include/linux/list.h **** }
  91:./include/linux/list.h **** 
  92:./include/linux/list.h **** /*
  93:./include/linux/list.h ****  * Performs the full set of list corruption checks before __list_del_entry().
  94:./include/linux/list.h ****  * On list corruption reports a warning, and returns false.
  95:./include/linux/list.h ****  */
  96:./include/linux/list.h **** extern bool __list_valid_slowpath __list_del_entry_valid_or_report(struct list_head *entry);
  97:./include/linux/list.h **** 
  98:./include/linux/list.h **** /*
  99:./include/linux/list.h ****  * Performs list corruption checks before __list_del_entry(). Returns false if a
 100:./include/linux/list.h ****  * corruption is detected, true otherwise.
 101:./include/linux/list.h ****  *
 102:./include/linux/list.h ****  * With CONFIG_LIST_HARDENED only, performs minimal list integrity checking
 103:./include/linux/list.h ****  * inline to catch non-faulting corruptions, and only if a corruption is
 104:./include/linux/list.h ****  * detected calls the reporting function __list_del_entry_valid_or_report().
 105:./include/linux/list.h ****  */
 106:./include/linux/list.h **** static __always_inline bool __list_del_entry_valid(struct list_head *entry)
 107:./include/linux/list.h **** {
 108:./include/linux/list.h **** 	bool ret = true;
 109:./include/linux/list.h **** 
 110:./include/linux/list.h **** 	if (!IS_ENABLED(CONFIG_DEBUG_LIST)) {
 111:./include/linux/list.h **** 		struct list_head *prev = entry->prev;
 112:./include/linux/list.h **** 		struct list_head *next = entry->next;
 113:./include/linux/list.h **** 
 114:./include/linux/list.h **** 		/*
 115:./include/linux/list.h **** 		 * With the hardening version, elide checking if next and prev
 116:./include/linux/list.h **** 		 * are NULL, LIST_POISON1 or LIST_POISON2, since the immediate
 117:./include/linux/list.h **** 		 * dereference of them below would result in a fault.
 118:./include/linux/list.h **** 		 */
 119:./include/linux/list.h **** 		if (likely(prev->next == entry && next->prev == entry))
 120:./include/linux/list.h **** 			return true;
 121:./include/linux/list.h **** 		ret = false;
 122:./include/linux/list.h **** 	}
 123:./include/linux/list.h **** 
 124:./include/linux/list.h **** 	ret &= __list_del_entry_valid_or_report(entry);
 125:./include/linux/list.h **** 	return ret;
 126:./include/linux/list.h **** }
 127:./include/linux/list.h **** #else
 128:./include/linux/list.h **** static inline bool __list_add_valid(struct list_head *new,
 129:./include/linux/list.h **** 				struct list_head *prev,
 130:./include/linux/list.h **** 				struct list_head *next)
 131:./include/linux/list.h **** {
 132:./include/linux/list.h **** 	return true;
ARM GAS  /tmp/cc3Q6Ngl.s 			page 46


 133:./include/linux/list.h **** }
 134:./include/linux/list.h **** static inline bool __list_del_entry_valid(struct list_head *entry)
 135:./include/linux/list.h **** {
 136:./include/linux/list.h **** 	return true;
 137:./include/linux/list.h **** }
 138:./include/linux/list.h **** #endif
 139:./include/linux/list.h **** 
 140:./include/linux/list.h **** /*
 141:./include/linux/list.h ****  * Insert a new entry between two known consecutive entries.
 142:./include/linux/list.h ****  *
 143:./include/linux/list.h ****  * This is only for internal list manipulation where we know
 144:./include/linux/list.h ****  * the prev/next entries already!
 145:./include/linux/list.h ****  */
 146:./include/linux/list.h **** static inline void __list_add(struct list_head *new,
 147:./include/linux/list.h **** 			      struct list_head *prev,
 148:./include/linux/list.h **** 			      struct list_head *next)
 149:./include/linux/list.h **** {
 150:./include/linux/list.h **** 	if (!__list_add_valid(new, prev, next))
 151:./include/linux/list.h **** 		return;
 152:./include/linux/list.h **** 
 153:./include/linux/list.h **** 	next->prev = new;
 154:./include/linux/list.h **** 	new->next = next;
 155:./include/linux/list.h **** 	new->prev = prev;
 156:./include/linux/list.h **** 	WRITE_ONCE(prev->next, new);
 157:./include/linux/list.h **** }
 158:./include/linux/list.h **** 
 159:./include/linux/list.h **** /**
 160:./include/linux/list.h ****  * list_add - add a new entry
 161:./include/linux/list.h ****  * @new: new entry to be added
 162:./include/linux/list.h ****  * @head: list head to add it after
 163:./include/linux/list.h ****  *
 164:./include/linux/list.h ****  * Insert a new entry after the specified head.
 165:./include/linux/list.h ****  * This is good for implementing stacks.
 166:./include/linux/list.h ****  */
 167:./include/linux/list.h **** static inline void list_add(struct list_head *new, struct list_head *head)
 779              		.loc 7 167 20 view .LVU205
 780              	.LBB240:
 168:./include/linux/list.h **** {
 169:./include/linux/list.h **** 	__list_add(new, head, head->next);
 781              		.loc 7 169 2 view .LVU206
 782 004e AB69     		ldr	r3, [r5, #24]
 783              	.LVL61:
 784              	.LBB241:
 785              	.LBI241:
 146:./include/linux/list.h **** 			      struct list_head *prev,
 786              		.loc 7 146 20 view .LVU207
 787              	.LBB242:
 150:./include/linux/list.h **** 		return;
 788              		.loc 7 150 2 view .LVU208
 153:./include/linux/list.h **** 	new->next = next;
 789              		.loc 7 153 2 view .LVU209
 153:./include/linux/list.h **** 	new->next = next;
 790              		.loc 7 153 13 is_stmt 0 view .LVU210
 791 0050 5E60     		str	r6, [r3, #4]
 154:./include/linux/list.h **** 	new->prev = prev;
 792              		.loc 7 154 2 is_stmt 1 view .LVU211
 154:./include/linux/list.h **** 	new->prev = prev;
ARM GAS  /tmp/cc3Q6Ngl.s 			page 47


 793              		.loc 7 154 12 is_stmt 0 view .LVU212
 794 0052 6361     		str	r3, [r4, #20]
 155:./include/linux/list.h **** 	WRITE_ONCE(prev->next, new);
 795              		.loc 7 155 2 is_stmt 1 view .LVU213
 155:./include/linux/list.h **** 	WRITE_ONCE(prev->next, new);
 796              		.loc 7 155 12 is_stmt 0 view .LVU214
 797 0054 A261     		str	r2, [r4, #24]
 156:./include/linux/list.h **** }
 798              		.loc 7 156 2 is_stmt 1 view .LVU215
 156:./include/linux/list.h **** }
 799              		.loc 7 156 2 view .LVU216
 800              	.LBB243:
 156:./include/linux/list.h **** }
 801              		.loc 7 156 2 view .LVU217
 156:./include/linux/list.h **** }
 802              		.loc 7 156 2 view .LVU218
 803              	.LBE243:
 156:./include/linux/list.h **** }
 804              		.loc 7 156 2 discriminator 2 view .LVU219
 156:./include/linux/list.h **** }
 805              		.loc 7 156 2 discriminator 2 view .LVU220
 156:./include/linux/list.h **** }
 806              		.loc 7 156 2 discriminator 2 view .LVU221
 807 0056 AE61     		str	r6, [r5, #24]
 156:./include/linux/list.h **** }
 808              		.loc 7 156 2 discriminator 3 view .LVU222
 156:./include/linux/list.h **** }
 809              		.loc 7 156 2 discriminator 3 view .LVU223
 810              	.LVL62:
 156:./include/linux/list.h **** }
 811              		.loc 7 156 2 is_stmt 0 discriminator 3 view .LVU224
 812              	.LBE242:
 813              	.LBE241:
 814              	.LBE240:
 815              	.LBE239:
  83:./fs/ramfs/ramfs.c ****     
 816              		.loc 1 83 5 is_stmt 1 view .LVU225
 817 0058 3846     		mov	r0, r7
 818 005a FFF7FEFF 		bl	spin_unlock
 819              	.LVL63:
  85:./fs/ramfs/ramfs.c **** }
 820              		.loc 1 85 5 view .LVU226
 821              	.L48:
  86:./fs/ramfs/ramfs.c **** static void initramfs_inode_put(struct initramfs_inode *node){
 822              		.loc 1 86 1 is_stmt 0 view .LVU227
 823 005e 2046     		mov	r0, r4
 824 0060 F8BD     		pop	{r3, r4, r5, r6, r7, pc}
 825              	.LVL64:
 826              	.L50:
  68:./fs/ramfs/ramfs.c ****     struct initramfs_inode *initram_inode = kmalloc(sizeof(struct initramfs_inode),GFP_KERNEL);
 827              		.loc 1 68 28 discriminator 1 view .LVU228
 828 0062 0C46     		mov	r4, r1
 829 0064 FBE7     		b	.L48
 830              	.L53:
 831 0066 00BF     		.align	2
 832              	.L52:
 833 0068 4E61BC00 		.word	12345678
ARM GAS  /tmp/cc3Q6Ngl.s 			page 48


 834              		.cfi_endproc
 835              	.LFE1041:
 837              		.section	.text.initramfs_get_inode,"ax",%progbits
 838              		.align	1
 839              		.syntax unified
 840              		.thumb
 841              		.thumb_func
 843              	initramfs_get_inode:
 844              	.LVL65:
 845              	.LFB1055:
 334:./fs/ramfs/ramfs.c ****     if(initram_node == NULL) return NULL;
 846              		.loc 1 334 1 is_stmt 1 view -0
 847              		.cfi_startproc
 848              		@ args = 0, pretend = 0, frame = 0
 849              		@ frame_needed = 0, uses_anonymous_args = 0
 334:./fs/ramfs/ramfs.c ****     if(initram_node == NULL) return NULL;
 850              		.loc 1 334 1 is_stmt 0 view .LVU230
 851 0000 10B5     		push	{r4, lr}
 852              	.LCFI11:
 853              		.cfi_def_cfa_offset 8
 854              		.cfi_offset 4, -8
 855              		.cfi_offset 14, -4
 335:./fs/ramfs/ramfs.c ****     struct inode*inode  =  new_inode(sb); //æ­¤å¤„åŠ¨æ€åˆ›å»ºäº†ä¸€ä¸ªinode,éœ€è¦åŽç»­é‡Šæ”¾
 856              		.loc 1 335 5 is_stmt 1 view .LVU231
 335:./fs/ramfs/ramfs.c ****     struct inode*inode  =  new_inode(sb); //æ­¤å¤„åŠ¨æ€åˆ›å»ºäº†ä¸€ä¸ªinode,éœ€è¦åŽç»­é‡Šæ”¾
 857              		.loc 1 335 7 is_stmt 0 view .LVU232
 858 0002 0446     		mov	r4, r0
 859 0004 50B1     		cbz	r0, .L54
 336:./fs/ramfs/ramfs.c ****     if(inode == NULL) return NULL;  
 860              		.loc 1 336 5 is_stmt 1 view .LVU233
 336:./fs/ramfs/ramfs.c ****     if(inode == NULL) return NULL;  
 861              		.loc 1 336 28 is_stmt 0 view .LVU234
 862 0006 0846     		mov	r0, r1
 863              	.LVL66:
 336:./fs/ramfs/ramfs.c ****     if(inode == NULL) return NULL;  
 864              		.loc 1 336 28 view .LVU235
 865 0008 FFF7FEFF 		bl	new_inode
 866              	.LVL67:
 337:./fs/ramfs/ramfs.c ****     inode->i_mode    = initram_node->i_mode;
 867              		.loc 1 337 5 is_stmt 1 view .LVU236
 337:./fs/ramfs/ramfs.c ****     inode->i_mode    = initram_node->i_mode;
 868              		.loc 1 337 7 is_stmt 0 view .LVU237
 869 000c 30B1     		cbz	r0, .L54
 338:./fs/ramfs/ramfs.c ****     inode->i_fop     = initram_node->i_fop;
 870              		.loc 1 338 5 is_stmt 1 view .LVU238
 338:./fs/ramfs/ramfs.c ****     inode->i_fop     = initram_node->i_fop;
 871              		.loc 1 338 36 is_stmt 0 view .LVU239
 872 000e 6368     		ldr	r3, [r4, #4]
 338:./fs/ramfs/ramfs.c ****     inode->i_fop     = initram_node->i_fop;
 873              		.loc 1 338 22 view .LVU240
 874 0010 0380     		strh	r3, [r0]	@ movhi
 339:./fs/ramfs/ramfs.c ****     inode->i_op      = &initramfs_inode_operation;
 875              		.loc 1 339 5 is_stmt 1 view .LVU241
 339:./fs/ramfs/ramfs.c ****     inode->i_op      = &initramfs_inode_operation;
 876              		.loc 1 339 36 is_stmt 0 view .LVU242
 877 0012 2369     		ldr	r3, [r4, #16]
 339:./fs/ramfs/ramfs.c ****     inode->i_op      = &initramfs_inode_operation;
ARM GAS  /tmp/cc3Q6Ngl.s 			page 49


 878              		.loc 1 339 22 view .LVU243
 879 0014 0365     		str	r3, [r0, #80]
 340:./fs/ramfs/ramfs.c ****     inode->i_private = initram_node;
 880              		.loc 1 340 5 is_stmt 1 view .LVU244
 340:./fs/ramfs/ramfs.c ****     inode->i_private = initram_node;
 881              		.loc 1 340 22 is_stmt 0 view .LVU245
 882 0016 024B     		ldr	r3, .L58
 883 0018 8360     		str	r3, [r0, #8]
 341:./fs/ramfs/ramfs.c ****     return inode;
 884              		.loc 1 341 5 is_stmt 1 view .LVU246
 341:./fs/ramfs/ramfs.c ****     return inode;
 885              		.loc 1 341 22 is_stmt 0 view .LVU247
 886 001a 8465     		str	r4, [r0, #88]
 342:./fs/ramfs/ramfs.c **** }
 887              		.loc 1 342 5 is_stmt 1 view .LVU248
 888              	.LVL68:
 889              	.L54:
 343:./fs/ramfs/ramfs.c **** 
 890              		.loc 1 343 1 is_stmt 0 view .LVU249
 891 001c 10BD     		pop	{r4, pc}
 892              	.LVL69:
 893              	.L59:
 343:./fs/ramfs/ramfs.c **** 
 894              		.loc 1 343 1 view .LVU250
 895 001e 00BF     		.align	2
 896              	.L58:
 897 0020 00000000 		.word	initramfs_inode_operation
 898              		.cfi_endproc
 899              	.LFE1055:
 901              		.section	.text.initramfs_getattr,"ax",%progbits
 902              		.align	1
 903              		.syntax unified
 904              		.thumb
 905              		.thumb_func
 907              	initramfs_getattr:
 908              	.LVL70:
 909              	.LFB1068:
 523:./fs/ramfs/ramfs.c ****     struct dentry *d = path->dentry;
 910              		.loc 1 523 1 is_stmt 1 view -0
 911              		.cfi_startproc
 912              		@ args = 4, pretend = 0, frame = 0
 913              		@ frame_needed = 0, uses_anonymous_args = 0
 523:./fs/ramfs/ramfs.c ****     struct dentry *d = path->dentry;
 914              		.loc 1 523 1 is_stmt 0 view .LVU252
 915 0000 38B5     		push	{r3, r4, r5, lr}
 916              	.LCFI12:
 917              		.cfi_def_cfa_offset 16
 918              		.cfi_offset 3, -16
 919              		.cfi_offset 4, -12
 920              		.cfi_offset 5, -8
 921              		.cfi_offset 14, -4
 524:./fs/ramfs/ramfs.c ****     struct initramfs_dentry* file = d->d_fsdata;
 922              		.loc 1 524 5 is_stmt 1 view .LVU253
 524:./fs/ramfs/ramfs.c ****     struct initramfs_dentry* file = d->d_fsdata;
 923              		.loc 1 524 20 is_stmt 0 view .LVU254
 924 0002 4B68     		ldr	r3, [r1, #4]
 925              	.LVL71:
ARM GAS  /tmp/cc3Q6Ngl.s 			page 50


 525:./fs/ramfs/ramfs.c ****     struct initramfs_inode *inode;
 926              		.loc 1 525 5 is_stmt 1 view .LVU255
 525:./fs/ramfs/ramfs.c ****     struct initramfs_inode *inode;
 927              		.loc 1 525 30 is_stmt 0 view .LVU256
 928 0004 5B6D     		ldr	r3, [r3, #84]
 929              	.LVL72:
 526:./fs/ramfs/ramfs.c **** 
 930              		.loc 1 526 5 is_stmt 1 view .LVU257
 528:./fs/ramfs/ramfs.c ****     return -ENOENT;
 931              		.loc 1 528 5 view .LVU258
 528:./fs/ramfs/ramfs.c ****     return -ENOENT;
 932              		.loc 1 528 8 is_stmt 0 view .LVU259
 933 0006 002B     		cmp	r3, #0
 934 0008 31D0     		beq	.L62
 935 000a 1446     		mov	r4, r2
 528:./fs/ramfs/ramfs.c ****     return -ENOENT;
 936              		.loc 1 528 26 discriminator 1 view .LVU260
 937 000c 9B68     		ldr	r3, [r3, #8]
 938              	.LVL73:
 528:./fs/ramfs/ramfs.c ****     return -ENOENT;
 939              		.loc 1 528 15 discriminator 1 view .LVU261
 940 000e 8BB3     		cbz	r3, .L63
 530:./fs/ramfs/ramfs.c ****     stat->dev  = MKDEV(inode->major, 0);
 941              		.loc 1 530 5 is_stmt 1 view .LVU262
 530:./fs/ramfs/ramfs.c ****     stat->dev  = MKDEV(inode->major, 0);
 942              		.loc 1 530 23 is_stmt 0 view .LVU263
 943 0010 5A68     		ldr	r2, [r3, #4]
 944              	.LVL74:
 530:./fs/ramfs/ramfs.c ****     stat->dev  = MKDEV(inode->major, 0);
 945              		.loc 1 530 16 view .LVU264
 946 0012 A280     		strh	r2, [r4, #4]	@ movhi
 947              	.LVL75:
 531:./fs/ramfs/ramfs.c ****     stat->ino  = (unsigned long)inode;  
 948              		.loc 1 531 5 is_stmt 1 view .LVU265
 531:./fs/ramfs/ramfs.c ****     stat->ino  = (unsigned long)inode;  
 949              		.loc 1 531 18 is_stmt 0 view .LVU266
 950 0014 9A68     		ldr	r2, [r3, #8]
 951 0016 1205     		lsls	r2, r2, #20
 531:./fs/ramfs/ramfs.c ****     stat->ino  = (unsigned long)inode;  
 952              		.loc 1 531 16 view .LVU267
 953 0018 E261     		str	r2, [r4, #28]
 532:./fs/ramfs/ramfs.c ****     stat->nlink = atomic_read(&inode->dentry_count);
 954              		.loc 1 532 5 is_stmt 1 view .LVU268
 532:./fs/ramfs/ramfs.c ****     stat->nlink = atomic_read(&inode->dentry_count);
 955              		.loc 1 532 16 is_stmt 0 view .LVU269
 956 001a A361     		str	r3, [r4, #24]
 533:./fs/ramfs/ramfs.c ****     stat->size  = 0; 
 957              		.loc 1 533 5 is_stmt 1 view .LVU270
 958              	.LVL76:
 959              	.LBB244:
 960              	.LBI244:
  30:./include/linux/atomic/atomic-instrumented.h **** {
 961              		.loc 5 30 1 view .LVU271
  32:./include/linux/atomic/atomic-instrumented.h **** 	return raw_atomic_read(v);
 962              		.loc 5 32 2 view .LVU272
  33:./include/linux/atomic/atomic-instrumented.h **** }
 963              		.loc 5 33 2 view .LVU273
ARM GAS  /tmp/cc3Q6Ngl.s 			page 51


 964              	.LBB245:
 965              	.LBI245:
 461:./include/linux/atomic/atomic-arch-fallback.h **** {
 966              		.loc 6 461 1 view .LVU274
 463:./include/linux/atomic/atomic-arch-fallback.h **** }
 967              		.loc 6 463 2 view .LVU275
 968              	.LBB246:
 463:./include/linux/atomic/atomic-arch-fallback.h **** }
 969              		.loc 6 463 9 view .LVU276
 970              	.LBB247:
 463:./include/linux/atomic/atomic-arch-fallback.h **** }
 971              		.loc 6 463 9 view .LVU277
 463:./include/linux/atomic/atomic-arch-fallback.h **** }
 972              		.loc 6 463 9 view .LVU278
 973              	.LBE247:
 463:./include/linux/atomic/atomic-arch-fallback.h **** }
 974              		.loc 6 463 9 discriminator 2 view .LVU279
 463:./include/linux/atomic/atomic-arch-fallback.h **** }
 975              		.loc 6 463 9 discriminator 2 view .LVU280
 976 001c DB68     		ldr	r3, [r3, #12]
 977              	.LVL77:
 463:./include/linux/atomic/atomic-arch-fallback.h **** }
 978              		.loc 6 463 9 is_stmt 0 discriminator 2 view .LVU281
 979              	.LBE246:
 980              	.LBE245:
 981              	.LBE244:
 533:./fs/ramfs/ramfs.c ****     stat->size  = 0; 
 982              		.loc 1 533 17 discriminator 1 view .LVU282
 983 001e A360     		str	r3, [r4, #8]
 534:./fs/ramfs/ramfs.c ****     stat->atime.tv_nsec = jiffies/HZ;
 984              		.loc 1 534 5 is_stmt 1 view .LVU283
 534:./fs/ramfs/ramfs.c ****     stat->atime.tv_nsec = jiffies/HZ;
 985              		.loc 1 534 17 is_stmt 0 view .LVU284
 986 0020 0022     		movs	r2, #0
 987 0022 0023     		movs	r3, #0
 988 0024 C4E90C23 		strd	r2, [r4, #48]
 535:./fs/ramfs/ramfs.c ****     stat->atime.tv_sec  = jiffies%HZ;
 989              		.loc 1 535 5 is_stmt 1 view .LVU285
 535:./fs/ramfs/ramfs.c ****     stat->atime.tv_sec  = jiffies%HZ;
 990              		.loc 1 535 27 is_stmt 0 view .LVU286
 991 0028 FFF7FEFF 		bl	ktime_get
 992              	.LVL78:
 535:./fs/ramfs/ramfs.c ****     stat->atime.tv_sec  = jiffies%HZ;
 993              		.loc 1 535 34 discriminator 1 view .LVU287
 994 002c 134D     		ldr	r5, .L65
 995 002e 2B68     		ldr	r3, [r5]
 996 0030 B0FBF3F0 		udiv	r0, r0, r3
 535:./fs/ramfs/ramfs.c ****     stat->atime.tv_sec  = jiffies%HZ;
 997              		.loc 1 535 25 discriminator 1 view .LVU288
 998 0034 E063     		str	r0, [r4, #60]
 536:./fs/ramfs/ramfs.c ****     stat->mtime = stat->atime;
 999              		.loc 1 536 5 is_stmt 1 view .LVU289
 536:./fs/ramfs/ramfs.c ****     stat->mtime = stat->atime;
 1000              		.loc 1 536 27 is_stmt 0 view .LVU290
 1001 0036 FFF7FEFF 		bl	ktime_get
 1002              	.LVL79:
 536:./fs/ramfs/ramfs.c ****     stat->mtime = stat->atime;
ARM GAS  /tmp/cc3Q6Ngl.s 			page 52


 1003              		.loc 1 536 34 discriminator 1 view .LVU291
 1004 003a 2B68     		ldr	r3, [r5]
 1005 003c B0FBF3F2 		udiv	r2, r0, r3
 1006 0040 03FB1200 		mls	r0, r3, r2, r0
 536:./fs/ramfs/ramfs.c ****     stat->mtime = stat->atime;
 1007              		.loc 1 536 25 discriminator 1 view .LVU292
 1008 0044 A063     		str	r0, [r4, #56]
 537:./fs/ramfs/ramfs.c ****     stat->ctime = stat->atime;
 1009              		.loc 1 537 5 is_stmt 1 view .LVU293
 537:./fs/ramfs/ramfs.c ****     stat->ctime = stat->atime;
 1010              		.loc 1 537 17 is_stmt 0 view .LVU294
 1011 0046 04F14002 		add	r2, r4, #64
 1012 004a 04F13803 		add	r3, r4, #56
 1013 004e 93E80300 		ldm	r3, {r0, r1}
 1014 0052 82E80300 		stm	r2, {r0, r1}
 538:./fs/ramfs/ramfs.c ****     stat->blksize = PAGE_SIZE;
 1015              		.loc 1 538 5 is_stmt 1 view .LVU295
 538:./fs/ramfs/ramfs.c ****     stat->blksize = PAGE_SIZE;
 1016              		.loc 1 538 17 is_stmt 0 view .LVU296
 1017 0056 04F14802 		add	r2, r4, #72
 1018 005a 93E80300 		ldm	r3, {r0, r1}
 1019 005e 82E80300 		stm	r2, {r0, r1}
 539:./fs/ramfs/ramfs.c ****     stat->blocks  = 0;
 1020              		.loc 1 539 5 is_stmt 1 view .LVU297
 539:./fs/ramfs/ramfs.c ****     stat->blocks  = 0;
 1021              		.loc 1 539 19 is_stmt 0 view .LVU298
 1022 0062 4FF48053 		mov	r3, #4096
 1023 0066 E360     		str	r3, [r4, #12]
 540:./fs/ramfs/ramfs.c ****     return 0;
 1024              		.loc 1 540 5 is_stmt 1 view .LVU299
 540:./fs/ramfs/ramfs.c ****     return 0;
 1025              		.loc 1 540 19 is_stmt 0 view .LVU300
 1026 0068 0020     		movs	r0, #0
 1027 006a A065     		str	r0, [r4, #88]
 541:./fs/ramfs/ramfs.c **** }
 1028              		.loc 1 541 5 is_stmt 1 view .LVU301
 1029              	.LVL80:
 1030              	.L60:
 542:./fs/ramfs/ramfs.c **** 
 1031              		.loc 1 542 1 is_stmt 0 view .LVU302
 1032 006c 38BD     		pop	{r3, r4, r5, pc}
 1033              	.LVL81:
 1034              	.L62:
 529:./fs/ramfs/ramfs.c ****     stat->mode = inode->i_mode;
 1035              		.loc 1 529 12 view .LVU303
 1036 006e 6FF00100 		mvn	r0, #1
 1037              	.LVL82:
 529:./fs/ramfs/ramfs.c ****     stat->mode = inode->i_mode;
 1038              		.loc 1 529 12 view .LVU304
 1039 0072 FBE7     		b	.L60
 1040              	.LVL83:
 1041              	.L63:
 529:./fs/ramfs/ramfs.c ****     stat->mode = inode->i_mode;
 1042              		.loc 1 529 12 view .LVU305
 1043 0074 6FF00100 		mvn	r0, #1
 1044              	.LVL84:
 529:./fs/ramfs/ramfs.c ****     stat->mode = inode->i_mode;
ARM GAS  /tmp/cc3Q6Ngl.s 			page 53


 1045              		.loc 1 529 12 view .LVU306
 1046 0078 F8E7     		b	.L60
 1047              	.L66:
 1048 007a 00BF     		.align	2
 1049              	.L65:
 1050 007c 00000000 		.word	HZ
 1051              		.cfi_endproc
 1052              	.LFE1068:
 1054              		.section	.text.initramfs_lookup,"ax",%progbits
 1055              		.align	1
 1056              		.syntax unified
 1057              		.thumb
 1058              		.thumb_func
 1060              	initramfs_lookup:
 1061              	.LVL85:
 1062              	.LFB1051:
 206:./fs/ramfs/ramfs.c ****     if(dentry_inode == NULL) return NULL;
 1063              		.loc 1 206 1 is_stmt 1 view -0
 1064              		.cfi_startproc
 1065              		@ args = 0, pretend = 0, frame = 0
 1066              		@ frame_needed = 0, uses_anonymous_args = 0
 206:./fs/ramfs/ramfs.c ****     if(dentry_inode == NULL) return NULL;
 1067              		.loc 1 206 1 is_stmt 0 view .LVU308
 1068 0000 F8B5     		push	{r3, r4, r5, r6, r7, lr}
 1069              	.LCFI13:
 1070              		.cfi_def_cfa_offset 24
 1071              		.cfi_offset 3, -24
 1072              		.cfi_offset 4, -20
 1073              		.cfi_offset 5, -16
 1074              		.cfi_offset 6, -12
 1075              		.cfi_offset 7, -8
 1076              		.cfi_offset 14, -4
 207:./fs/ramfs/ramfs.c ****     if ( (dentry_inode->i_mode & S_IFMT) != S_IFDIR ) return NULL;
 1077              		.loc 1 207 5 is_stmt 1 view .LVU309
 207:./fs/ramfs/ramfs.c ****     if ( (dentry_inode->i_mode & S_IFMT) != S_IFDIR ) return NULL;
 1078              		.loc 1 207 7 is_stmt 0 view .LVU310
 1079 0002 0546     		mov	r5, r0
 1080 0004 20B3     		cbz	r0, .L72
 1081 0006 0E46     		mov	r6, r1
 208:./fs/ramfs/ramfs.c ****     struct initramfs_dentry* pos;
 1082              		.loc 1 208 5 is_stmt 1 view .LVU311
 208:./fs/ramfs/ramfs.c ****     struct initramfs_dentry* pos;
 1083              		.loc 1 208 23 is_stmt 0 view .LVU312
 1084 0008 4368     		ldr	r3, [r0, #4]
 208:./fs/ramfs/ramfs.c ****     struct initramfs_dentry* pos;
 1085              		.loc 1 208 32 view .LVU313
 1086 000a 03F47043 		and	r3, r3, #61440
 208:./fs/ramfs/ramfs.c ****     struct initramfs_dentry* pos;
 1087              		.loc 1 208 8 view .LVU314
 1088 000e B3F5804F 		cmp	r3, #16384
 1089 0012 1FD1     		bne	.L73
 209:./fs/ramfs/ramfs.c ****     spin_lock(&dentry_inode->lock);
 1090              		.loc 1 209 5 is_stmt 1 view .LVU315
 210:./fs/ramfs/ramfs.c ****     list_for_each_entry(pos, &dentry_inode->dentry_list_head,list_node ) {
 1091              		.loc 1 210 5 view .LVU316
 1092 0014 00F12407 		add	r7, r0, #36
 1093 0018 3846     		mov	r0, r7
ARM GAS  /tmp/cc3Q6Ngl.s 			page 54


 1094              	.LVL86:
 210:./fs/ramfs/ramfs.c ****     list_for_each_entry(pos, &dentry_inode->dentry_list_head,list_node ) {
 1095              		.loc 1 210 5 is_stmt 0 view .LVU317
 1096 001a FFF7FEFF 		bl	spin_lock
 1097              	.LVL87:
 211:./fs/ramfs/ramfs.c ****         if (strcmp(pos->name, name) == 0) {
 1098              		.loc 1 211 5 is_stmt 1 view .LVU318
 1099              	.LBB248:
 211:./fs/ramfs/ramfs.c ****         if (strcmp(pos->name, name) == 0) {
 1100              		.loc 1 211 5 view .LVU319
 1101 001e EC69     		ldr	r4, [r5, #28]
 1102              	.LVL88:
 211:./fs/ramfs/ramfs.c ****         if (strcmp(pos->name, name) == 0) {
 1103              		.loc 1 211 5 view .LVU320
 211:./fs/ramfs/ramfs.c ****         if (strcmp(pos->name, name) == 0) {
 1104              		.loc 1 211 5 view .LVU321
 1105 0020 0C3C     		subs	r4, r4, #12
 1106              	.LVL89:
 1107              	.L69:
 211:./fs/ramfs/ramfs.c ****         if (strcmp(pos->name, name) == 0) {
 1108              		.loc 1 211 5 is_stmt 0 view .LVU322
 1109              	.LBE248:
 211:./fs/ramfs/ramfs.c ****         if (strcmp(pos->name, name) == 0) {
 1110              		.loc 1 211 5 is_stmt 1 discriminator 1 view .LVU323
 1111 0022 04F10C03 		add	r3, r4, #12
 1112 0026 05F11C02 		add	r2, r5, #28
 1113 002a 9342     		cmp	r3, r2
 1114 002c 0BD0     		beq	.L75
 212:./fs/ramfs/ramfs.c ****             spin_unlock(&dentry_inode->lock);
 1115              		.loc 1 212 9 view .LVU324
 212:./fs/ramfs/ramfs.c ****             spin_unlock(&dentry_inode->lock);
 1116              		.loc 1 212 13 is_stmt 0 view .LVU325
 1117 002e 3146     		mov	r1, r6
 1118 0030 6068     		ldr	r0, [r4, #4]
 1119 0032 FFF7FEFF 		bl	strcmp
 1120              	.LVL90:
 212:./fs/ramfs/ramfs.c ****             spin_unlock(&dentry_inode->lock);
 1121              		.loc 1 212 12 discriminator 1 view .LVU326
 1122 0036 10B1     		cbz	r0, .L76
 211:./fs/ramfs/ramfs.c ****         if (strcmp(pos->name, name) == 0) {
 1123              		.loc 1 211 5 is_stmt 1 discriminator 2 view .LVU327
 1124              	.LBB249:
 211:./fs/ramfs/ramfs.c ****         if (strcmp(pos->name, name) == 0) {
 1125              		.loc 1 211 5 discriminator 2 view .LVU328
 1126 0038 E468     		ldr	r4, [r4, #12]
 1127              	.LVL91:
 211:./fs/ramfs/ramfs.c ****         if (strcmp(pos->name, name) == 0) {
 1128              		.loc 1 211 5 discriminator 2 view .LVU329
 211:./fs/ramfs/ramfs.c ****         if (strcmp(pos->name, name) == 0) {
 1129              		.loc 1 211 5 discriminator 2 view .LVU330
 1130 003a 0C3C     		subs	r4, r4, #12
 1131              	.LVL92:
 211:./fs/ramfs/ramfs.c ****         if (strcmp(pos->name, name) == 0) {
 1132              		.loc 1 211 5 is_stmt 0 discriminator 2 view .LVU331
 1133 003c F1E7     		b	.L69
 1134              	.LVL93:
 1135              	.L76:
ARM GAS  /tmp/cc3Q6Ngl.s 			page 55


 211:./fs/ramfs/ramfs.c ****         if (strcmp(pos->name, name) == 0) {
 1136              		.loc 1 211 5 discriminator 2 view .LVU332
 1137              	.LBE249:
 213:./fs/ramfs/ramfs.c ****             return pos;
 1138              		.loc 1 213 13 is_stmt 1 view .LVU333
 1139 003e 3846     		mov	r0, r7
 1140 0040 FFF7FEFF 		bl	spin_unlock
 1141              	.LVL94:
 214:./fs/ramfs/ramfs.c ****         }
 1142              		.loc 1 214 13 view .LVU334
 214:./fs/ramfs/ramfs.c ****         }
 1143              		.loc 1 214 20 is_stmt 0 view .LVU335
 1144 0044 07E0     		b	.L67
 1145              	.L75:
 217:./fs/ramfs/ramfs.c ****     return NULL;
 1146              		.loc 1 217 5 is_stmt 1 view .LVU336
 1147 0046 3846     		mov	r0, r7
 1148 0048 FFF7FEFF 		bl	spin_unlock
 1149              	.LVL95:
 218:./fs/ramfs/ramfs.c **** }
 1150              		.loc 1 218 5 view .LVU337
 218:./fs/ramfs/ramfs.c **** }
 1151              		.loc 1 218 12 is_stmt 0 view .LVU338
 1152 004c 0024     		movs	r4, #0
 1153              	.LVL96:
 218:./fs/ramfs/ramfs.c **** }
 1154              		.loc 1 218 12 view .LVU339
 1155 004e 02E0     		b	.L67
 1156              	.LVL97:
 1157              	.L72:
 207:./fs/ramfs/ramfs.c ****     if ( (dentry_inode->i_mode & S_IFMT) != S_IFDIR ) return NULL;
 1158              		.loc 1 207 37 discriminator 1 view .LVU340
 1159 0050 0446     		mov	r4, r0
 1160 0052 00E0     		b	.L67
 1161              	.L73:
 208:./fs/ramfs/ramfs.c ****     struct initramfs_dentry* pos;
 1162              		.loc 1 208 62 discriminator 1 view .LVU341
 1163 0054 0024     		movs	r4, #0
 1164              	.LVL98:
 1165              	.L67:
 219:./fs/ramfs/ramfs.c **** 
 1166              		.loc 1 219 1 view .LVU342
 1167 0056 2046     		mov	r0, r4
 1168 0058 F8BD     		pop	{r3, r4, r5, r6, r7, pc}
 219:./fs/ramfs/ramfs.c **** 
 1169              		.loc 1 219 1 view .LVU343
 1170              		.cfi_endproc
 1171              	.LFE1051:
 1173              		.section	.text.initramfs_vfs_lookup,"ax",%progbits
 1174              		.align	1
 1175              		.syntax unified
 1176              		.thumb
 1177              		.thumb_func
 1179              	initramfs_vfs_lookup:
 1180              	.LVL99:
 1181              	.LFB1061:
 438:./fs/ramfs/ramfs.c ****     
ARM GAS  /tmp/cc3Q6Ngl.s 			page 56


 1182              		.loc 1 438 105 is_stmt 1 view -0
 1183              		.cfi_startproc
 1184              		@ args = 0, pretend = 0, frame = 0
 1185              		@ frame_needed = 0, uses_anonymous_args = 0
 438:./fs/ramfs/ramfs.c ****     
 1186              		.loc 1 438 105 is_stmt 0 view .LVU345
 1187 0000 70B5     		push	{r4, r5, r6, lr}
 1188              	.LCFI14:
 1189              		.cfi_def_cfa_offset 16
 1190              		.cfi_offset 4, -16
 1191              		.cfi_offset 5, -12
 1192              		.cfi_offset 6, -8
 1193              		.cfi_offset 14, -4
 1194 0002 0646     		mov	r6, r0
 1195 0004 0D46     		mov	r5, r1
 440:./fs/ramfs/ramfs.c ****     char *name = dentry->d_name.name;                           
 1196              		.loc 1 440 5 is_stmt 1 view .LVU346
 1197              	.LVL100:
 441:./fs/ramfs/ramfs.c ****     struct initramfs_dentry *pos;    
 1198              		.loc 1 441 5 view .LVU347
 442:./fs/ramfs/ramfs.c ****     pos = initramfs_lookup(dir_inode,name);       //æŸ¥è¯¢èŽ·å¾—dentry
 1199              		.loc 1 442 5 view .LVU348
 443:./fs/ramfs/ramfs.c ****     if(pos == NULL) return NULL;
 1200              		.loc 1 443 5 view .LVU349
 443:./fs/ramfs/ramfs.c ****     if(pos == NULL) return NULL;
 1201              		.loc 1 443 11 is_stmt 0 view .LVU350
 1202 0006 8969     		ldr	r1, [r1, #24]
 1203              	.LVL101:
 443:./fs/ramfs/ramfs.c ****     if(pos == NULL) return NULL;
 1204              		.loc 1 443 11 view .LVU351
 1205 0008 806D     		ldr	r0, [r0, #88]
 1206              	.LVL102:
 443:./fs/ramfs/ramfs.c ****     if(pos == NULL) return NULL;
 1207              		.loc 1 443 11 view .LVU352
 1208 000a FFF7FEFF 		bl	initramfs_lookup
 1209              	.LVL103:
 444:./fs/ramfs/ramfs.c **** 
 1210              		.loc 1 444 5 is_stmt 1 view .LVU353
 444:./fs/ramfs/ramfs.c **** 
 1211              		.loc 1 444 7 is_stmt 0 view .LVU354
 1212 000e 0446     		mov	r4, r0
 1213 0010 78B1     		cbz	r0, .L77
 446:./fs/ramfs/ramfs.c ****         return NULL;
 1214              		.loc 1 446 5 is_stmt 1 view .LVU355
 446:./fs/ramfs/ramfs.c ****         return NULL;
 1215              		.loc 1 446 9 is_stmt 0 view .LVU356
 1216 0012 0146     		mov	r1, r0
 1217 0014 2846     		mov	r0, r5
 1218              	.LVL104:
 446:./fs/ramfs/ramfs.c ****         return NULL;
 1219              		.loc 1 446 9 view .LVU357
 1220 0016 FFF7FEFF 		bl	initramfs_get_dentry
 1221              	.LVL105:
 446:./fs/ramfs/ramfs.c ****         return NULL;
 1222              		.loc 1 446 7 discriminator 1 view .LVU358
 1223 001a 60B1     		cbz	r0, .L79
 449:./fs/ramfs/ramfs.c ****     if(find_inode == NULL)
ARM GAS  /tmp/cc3Q6Ngl.s 			page 57


 1224              		.loc 1 449 5 is_stmt 1 view .LVU359
 449:./fs/ramfs/ramfs.c ****     if(find_inode == NULL)
 1225              		.loc 1 449 33 is_stmt 0 view .LVU360
 1226 001c F168     		ldr	r1, [r6, #12]
 1227 001e A068     		ldr	r0, [r4, #8]
 1228 0020 FFF7FEFF 		bl	initramfs_get_inode
 1229              	.LVL106:
 450:./fs/ramfs/ramfs.c ****         return NULL;
 1230              		.loc 1 450 5 is_stmt 1 view .LVU361
 450:./fs/ramfs/ramfs.c ****         return NULL;
 1231              		.loc 1 450 7 is_stmt 0 view .LVU362
 1232 0024 0446     		mov	r4, r0
 1233              	.LVL107:
 450:./fs/ramfs/ramfs.c ****         return NULL;
 1234              		.loc 1 450 7 view .LVU363
 1235 0026 20B1     		cbz	r0, .L77
 453:./fs/ramfs/ramfs.c ****     return NULL;
 1236              		.loc 1 453 5 is_stmt 1 view .LVU364
 453:./fs/ramfs/ramfs.c ****     return NULL;
 1237              		.loc 1 453 12 is_stmt 0 view .LVU365
 1238 0028 0146     		mov	r1, r0
 1239 002a 2846     		mov	r0, r5
 1240              	.LVL108:
 453:./fs/ramfs/ramfs.c ****     return NULL;
 1241              		.loc 1 453 12 view .LVU366
 1242 002c FFF7FEFF 		bl	d_add
 1243              	.LVL109:
 453:./fs/ramfs/ramfs.c ****     return NULL;
 1244              		.loc 1 453 12 view .LVU367
 1245 0030 0446     		mov	r4, r0
 1246              	.LVL110:
 1247              	.L77:
 455:./fs/ramfs/ramfs.c **** 
 1248              		.loc 1 455 1 view .LVU368
 1249 0032 2046     		mov	r0, r4
 1250 0034 70BD     		pop	{r4, r5, r6, pc}
 1251              	.LVL111:
 1252              	.L79:
 447:./fs/ramfs/ramfs.c **** 
 1253              		.loc 1 447 16 view .LVU369
 1254 0036 0446     		mov	r4, r0
 1255              	.LVL112:
 447:./fs/ramfs/ramfs.c **** 
 1256              		.loc 1 447 16 view .LVU370
 1257 0038 FBE7     		b	.L77
 1258              		.cfi_endproc
 1259              	.LFE1061:
 1261              		.section	.text.initramfs_get_vfs_superblock,"ax",%progbits
 1262              		.align	1
 1263              		.syntax unified
 1264              		.thumb
 1265              		.thumb_func
 1267              	initramfs_get_vfs_superblock:
 1268              	.LVL113:
 1269              	.LFB1053:
 318:./fs/ramfs/ramfs.c ****     if(sb == NULL) return NULL;
 1270              		.loc 1 318 1 is_stmt 1 view -0
ARM GAS  /tmp/cc3Q6Ngl.s 			page 58


 1271              		.cfi_startproc
 1272              		@ args = 0, pretend = 0, frame = 0
 1273              		@ frame_needed = 0, uses_anonymous_args = 0
 318:./fs/ramfs/ramfs.c ****     if(sb == NULL) return NULL;
 1274              		.loc 1 318 1 is_stmt 0 view .LVU372
 1275 0000 10B5     		push	{r4, lr}
 1276              	.LCFI15:
 1277              		.cfi_def_cfa_offset 8
 1278              		.cfi_offset 4, -8
 1279              		.cfi_offset 14, -4
 319:./fs/ramfs/ramfs.c ****     struct super_block * vsb  = alloc_super(NULL);                        //åˆ†é…äº†ä¸€ä¸ªsuperblo
 1280              		.loc 1 319 5 is_stmt 1 view .LVU373
 319:./fs/ramfs/ramfs.c ****     struct super_block * vsb  = alloc_super(NULL);                        //åˆ†é…äº†ä¸€ä¸ªsuperblo
 1281              		.loc 1 319 7 is_stmt 0 view .LVU374
 1282 0002 0446     		mov	r4, r0
 1283 0004 40B1     		cbz	r0, .L81
 320:./fs/ramfs/ramfs.c ****     if(vsb == NULL) return NULL;
 1284              		.loc 1 320 5 is_stmt 1 view .LVU375
 320:./fs/ramfs/ramfs.c ****     if(vsb == NULL) return NULL;
 1285              		.loc 1 320 33 is_stmt 0 view .LVU376
 1286 0006 0020     		movs	r0, #0
 1287              	.LVL114:
 320:./fs/ramfs/ramfs.c ****     if(vsb == NULL) return NULL;
 1288              		.loc 1 320 33 view .LVU377
 1289 0008 FFF7FEFF 		bl	alloc_super
 1290              	.LVL115:
 321:./fs/ramfs/ramfs.c ****     vsb->s_fs_info =   sb;
 1291              		.loc 1 321 5 is_stmt 1 view .LVU378
 321:./fs/ramfs/ramfs.c ****     vsb->s_fs_info =   sb;
 1292              		.loc 1 321 7 is_stmt 0 view .LVU379
 1293 000c 20B1     		cbz	r0, .L81
 322:./fs/ramfs/ramfs.c ****     vsb->s_d_op    =  &initramfs_dentry_operation;
 1294              		.loc 1 322 5 is_stmt 1 view .LVU380
 322:./fs/ramfs/ramfs.c ****     vsb->s_d_op    =  &initramfs_dentry_operation;
 1295              		.loc 1 322 20 is_stmt 0 view .LVU381
 1296 000e C462     		str	r4, [r0, #44]
 323:./fs/ramfs/ramfs.c ****     vsb->s_op      =  &initramfs_super_operation;    
 1297              		.loc 1 323 5 is_stmt 1 view .LVU382
 323:./fs/ramfs/ramfs.c ****     vsb->s_op      =  &initramfs_super_operation;    
 1298              		.loc 1 323 20 is_stmt 0 view .LVU383
 1299 0010 024B     		ldr	r3, .L85
 1300 0012 C366     		str	r3, [r0, #108]
 324:./fs/ramfs/ramfs.c ****     return vsb;
 1301              		.loc 1 324 5 is_stmt 1 view .LVU384
 324:./fs/ramfs/ramfs.c ****     return vsb;
 1302              		.loc 1 324 20 is_stmt 0 view .LVU385
 1303 0014 024B     		ldr	r3, .L85+4
 1304 0016 C360     		str	r3, [r0, #12]
 325:./fs/ramfs/ramfs.c **** }
 1305              		.loc 1 325 5 is_stmt 1 view .LVU386
 1306              	.LVL116:
 1307              	.L81:
 326:./fs/ramfs/ramfs.c **** 
 1308              		.loc 1 326 1 is_stmt 0 view .LVU387
 1309 0018 10BD     		pop	{r4, pc}
 1310              	.LVL117:
 1311              	.L86:
ARM GAS  /tmp/cc3Q6Ngl.s 			page 59


 326:./fs/ramfs/ramfs.c **** 
 1312              		.loc 1 326 1 view .LVU388
 1313 001a 00BF     		.align	2
 1314              	.L85:
 1315 001c 00000000 		.word	initramfs_dentry_operation
 1316 0020 00000000 		.word	initramfs_super_operation
 1317              		.cfi_endproc
 1318              	.LFE1053:
 1320              		.section	.text.initramfs_superblock_create,"ax",%progbits
 1321              		.align	1
 1322              		.syntax unified
 1323              		.thumb
 1324              		.thumb_func
 1326              	initramfs_superblock_create:
 1327              	.LFB1049:
 175:./fs/ramfs/ramfs.c ****     struct initramfs_superblock*d_sb = kmalloc(sizeof(struct initramfs_superblock),GFP_KERNEL);
 1328              		.loc 1 175 1 is_stmt 1 view -0
 1329              		.cfi_startproc
 1330              		@ args = 0, pretend = 0, frame = 0
 1331              		@ frame_needed = 0, uses_anonymous_args = 0
 1332 0000 38B5     		push	{r3, r4, r5, lr}
 1333              	.LCFI16:
 1334              		.cfi_def_cfa_offset 16
 1335              		.cfi_offset 3, -16
 1336              		.cfi_offset 4, -12
 1337              		.cfi_offset 5, -8
 1338              		.cfi_offset 14, -4
 176:./fs/ramfs/ramfs.c ****     if(d_sb == NULL){
 1339              		.loc 1 176 5 view .LVU390
 1340              	.LVL118:
 1341              	.LBB250:
 1342              	.LBI250:
 379:./include/linux/slab.h **** 	return __smalloc__((u32)size,flags);
 1343              		.loc 4 379 21 view .LVU391
 1344              	.LBB251:
 1345              		.loc 4 380 2 view .LVU392
 1346              		.loc 4 380 9 is_stmt 0 view .LVU393
 1347 0002 4FF44C61 		mov	r1, #3264
 1348 0006 2020     		movs	r0, #32
 1349 0008 FFF7FEFF 		bl	__smalloc__
 1350              	.LVL119:
 1351              		.loc 4 380 9 view .LVU394
 1352              	.LBE251:
 1353              	.LBE250:
 177:./fs/ramfs/ramfs.c ****         return NULL;        
 1354              		.loc 1 177 5 is_stmt 1 view .LVU395
 177:./fs/ramfs/ramfs.c ****         return NULL;        
 1355              		.loc 1 177 7 is_stmt 0 view .LVU396
 1356 000c 0446     		mov	r4, r0
 1357 000e 20B3     		cbz	r0, .L87
 180:./fs/ramfs/ramfs.c ****     spin_lock_init(&d_sb->lock);
 1358              		.loc 1 180 5 is_stmt 1 view .LVU397
 180:./fs/ramfs/ramfs.c ****     spin_lock_init(&d_sb->lock);
 1359              		.loc 1 180 17 is_stmt 0 view .LVU398
 1360 0010 154B     		ldr	r3, .L92
 1361 0012 40F8043B 		str	r3, [r0], #4
 1362              	.LVL120:
ARM GAS  /tmp/cc3Q6Ngl.s 			page 60


 181:./fs/ramfs/ramfs.c ****     INIT_LIST_HEAD(&d_sb->inode_list_head);
 1363              		.loc 1 181 5 is_stmt 1 view .LVU399
 1364 0016 FFF7FEFF 		bl	spin_lock_init
 1365              	.LVL121:
 182:./fs/ramfs/ramfs.c ****     struct initramfs_inode* root_inode = initramfs_create_empty_inode(d_sb ,&initramfs_file_fops,0)
 1366              		.loc 1 182 5 view .LVU400
 1367 001a 04F11803 		add	r3, r4, #24
 1368              	.LVL122:
 1369              	.LBB252:
 1370              	.LBI252:
  35:./include/linux/list.h **** {
 1371              		.loc 7 35 20 view .LVU401
 1372              	.LBB253:
  37:./include/linux/list.h **** 	WRITE_ONCE(list->prev, list);
 1373              		.loc 7 37 2 view .LVU402
  37:./include/linux/list.h **** 	WRITE_ONCE(list->prev, list);
 1374              		.loc 7 37 2 view .LVU403
 1375              	.LBB254:
  37:./include/linux/list.h **** 	WRITE_ONCE(list->prev, list);
 1376              		.loc 7 37 2 view .LVU404
  37:./include/linux/list.h **** 	WRITE_ONCE(list->prev, list);
 1377              		.loc 7 37 2 view .LVU405
 1378              	.LBE254:
  37:./include/linux/list.h **** 	WRITE_ONCE(list->prev, list);
 1379              		.loc 7 37 2 discriminator 2 view .LVU406
  37:./include/linux/list.h **** 	WRITE_ONCE(list->prev, list);
 1380              		.loc 7 37 2 discriminator 2 view .LVU407
  37:./include/linux/list.h **** 	WRITE_ONCE(list->prev, list);
 1381              		.loc 7 37 2 discriminator 2 view .LVU408
 1382 001e A361     		str	r3, [r4, #24]
  37:./include/linux/list.h **** 	WRITE_ONCE(list->prev, list);
 1383              		.loc 7 37 2 discriminator 2 view .LVU409
  37:./include/linux/list.h **** 	WRITE_ONCE(list->prev, list);
 1384              		.loc 7 37 2 discriminator 2 view .LVU410
  38:./include/linux/list.h **** }
 1385              		.loc 7 38 2 view .LVU411
  38:./include/linux/list.h **** }
 1386              		.loc 7 38 2 view .LVU412
 1387              	.LBB255:
  38:./include/linux/list.h **** }
 1388              		.loc 7 38 2 view .LVU413
  38:./include/linux/list.h **** }
 1389              		.loc 7 38 2 view .LVU414
 1390              	.LBE255:
  38:./include/linux/list.h **** }
 1391              		.loc 7 38 2 discriminator 2 view .LVU415
  38:./include/linux/list.h **** }
 1392              		.loc 7 38 2 discriminator 2 view .LVU416
  38:./include/linux/list.h **** }
 1393              		.loc 7 38 2 discriminator 2 view .LVU417
 1394 0020 E361     		str	r3, [r4, #28]
  38:./include/linux/list.h **** }
 1395              		.loc 7 38 2 discriminator 2 view .LVU418
  38:./include/linux/list.h **** }
 1396              		.loc 7 38 2 discriminator 2 view .LVU419
 1397              	.LVL123:
  38:./include/linux/list.h **** }
ARM GAS  /tmp/cc3Q6Ngl.s 			page 61


 1398              		.loc 7 38 2 is_stmt 0 discriminator 2 view .LVU420
 1399              	.LBE253:
 1400              	.LBE252:
 183:./fs/ramfs/ramfs.c ****     if(root_inode == NULL){
 1401              		.loc 1 183 5 is_stmt 1 view .LVU421
 183:./fs/ramfs/ramfs.c ****     if(root_inode == NULL){
 1402              		.loc 1 183 42 is_stmt 0 view .LVU422
 1403 0022 0022     		movs	r2, #0
 1404 0024 1149     		ldr	r1, .L92+4
 1405 0026 2046     		mov	r0, r4
 1406 0028 FFF7FEFF 		bl	initramfs_create_empty_inode
 1407              	.LVL124:
 184:./fs/ramfs/ramfs.c ****         kfree(d_sb);
 1408              		.loc 1 184 5 is_stmt 1 view .LVU423
 184:./fs/ramfs/ramfs.c ****         kfree(d_sb);
 1409              		.loc 1 184 7 is_stmt 0 view .LVU424
 1410 002c 0546     		mov	r5, r0
 1411 002e B0B1     		cbz	r0, .L91
 188:./fs/ramfs/ramfs.c ****     d_sb->rootinode = root_inode;
 1412              		.loc 1 188 5 is_stmt 1 view .LVU425
 188:./fs/ramfs/ramfs.c ****     d_sb->rootinode = root_inode;
 1413              		.loc 1 188 24 is_stmt 0 view .LVU426
 1414 0030 44F2ED13 		movw	r3, #16877
 1415 0034 4360     		str	r3, [r0, #4]
 189:./fs/ramfs/ramfs.c ****     root_inode->i_fop = &initramfs_file_fops;
 1416              		.loc 1 189 5 is_stmt 1 view .LVU427
 189:./fs/ramfs/ramfs.c ****     root_inode->i_fop = &initramfs_file_fops;
 1417              		.loc 1 189 21 is_stmt 0 view .LVU428
 1418 0036 6061     		str	r0, [r4, #20]
 190:./fs/ramfs/ramfs.c ****     atomic_inc (&root_inode->dentry_count); 
 1419              		.loc 1 190 5 is_stmt 1 view .LVU429
 190:./fs/ramfs/ramfs.c ****     atomic_inc (&root_inode->dentry_count); 
 1420              		.loc 1 190 23 is_stmt 0 view .LVU430
 1421 0038 0C4B     		ldr	r3, .L92+4
 1422 003a 0361     		str	r3, [r0, #16]
 191:./fs/ramfs/ramfs.c ****     INIT_LIST_HEAD(&root_inode->dentry_list_head);
 1423              		.loc 1 191 5 is_stmt 1 view .LVU431
 1424 003c 00F10C03 		add	r3, r0, #12
 1425              	.LVL125:
 1426              	.LBB256:
 1427              	.LBI256:
  69:./include/linux/atomic/atomic-instrumented.h **** }
  70:./include/linux/atomic/atomic-instrumented.h **** 
  71:./include/linux/atomic/atomic-instrumented.h **** /**
  72:./include/linux/atomic/atomic-instrumented.h ****  * atomic_set_release() - atomic set with release ordering
  73:./include/linux/atomic/atomic-instrumented.h ****  * @v: pointer to atomic_t
  74:./include/linux/atomic/atomic-instrumented.h ****  * @i: int value to assign
  75:./include/linux/atomic/atomic-instrumented.h ****  *
  76:./include/linux/atomic/atomic-instrumented.h ****  * Atomically sets @v to @i with release ordering.
  77:./include/linux/atomic/atomic-instrumented.h ****  *
  78:./include/linux/atomic/atomic-instrumented.h ****  * Unsafe to use in noinstr code; use raw_atomic_set_release() there.
  79:./include/linux/atomic/atomic-instrumented.h ****  *
  80:./include/linux/atomic/atomic-instrumented.h ****  * Return: Nothing.
  81:./include/linux/atomic/atomic-instrumented.h ****  */
  82:./include/linux/atomic/atomic-instrumented.h **** static __always_inline void
  83:./include/linux/atomic/atomic-instrumented.h **** atomic_set_release(atomic_t *v, int i)
  84:./include/linux/atomic/atomic-instrumented.h **** {
ARM GAS  /tmp/cc3Q6Ngl.s 			page 62


  85:./include/linux/atomic/atomic-instrumented.h **** 	kcsan_release();
  86:./include/linux/atomic/atomic-instrumented.h **** 	instrument_atomic_write(v, sizeof(*v));
  87:./include/linux/atomic/atomic-instrumented.h **** 	raw_atomic_set_release(v, i);
  88:./include/linux/atomic/atomic-instrumented.h **** }
  89:./include/linux/atomic/atomic-instrumented.h **** 
  90:./include/linux/atomic/atomic-instrumented.h **** /**
  91:./include/linux/atomic/atomic-instrumented.h ****  * atomic_add() - atomic add with relaxed ordering
  92:./include/linux/atomic/atomic-instrumented.h ****  * @i: int value to add
  93:./include/linux/atomic/atomic-instrumented.h ****  * @v: pointer to atomic_t
  94:./include/linux/atomic/atomic-instrumented.h ****  *
  95:./include/linux/atomic/atomic-instrumented.h ****  * Atomically updates @v to (@v + @i) with relaxed ordering.
  96:./include/linux/atomic/atomic-instrumented.h ****  *
  97:./include/linux/atomic/atomic-instrumented.h ****  * Unsafe to use in noinstr code; use raw_atomic_add() there.
  98:./include/linux/atomic/atomic-instrumented.h ****  *
  99:./include/linux/atomic/atomic-instrumented.h ****  * Return: Nothing.
 100:./include/linux/atomic/atomic-instrumented.h ****  */
 101:./include/linux/atomic/atomic-instrumented.h **** static __always_inline void
 102:./include/linux/atomic/atomic-instrumented.h **** atomic_add(int i, atomic_t *v)
 103:./include/linux/atomic/atomic-instrumented.h **** {
 104:./include/linux/atomic/atomic-instrumented.h **** 	instrument_atomic_read_write(v, sizeof(*v));
 105:./include/linux/atomic/atomic-instrumented.h **** 	raw_atomic_add(i, v);
 106:./include/linux/atomic/atomic-instrumented.h **** }
 107:./include/linux/atomic/atomic-instrumented.h **** 
 108:./include/linux/atomic/atomic-instrumented.h **** /**
 109:./include/linux/atomic/atomic-instrumented.h ****  * atomic_add_return() - atomic add with full ordering
 110:./include/linux/atomic/atomic-instrumented.h ****  * @i: int value to add
 111:./include/linux/atomic/atomic-instrumented.h ****  * @v: pointer to atomic_t
 112:./include/linux/atomic/atomic-instrumented.h ****  *
 113:./include/linux/atomic/atomic-instrumented.h ****  * Atomically updates @v to (@v + @i) with full ordering.
 114:./include/linux/atomic/atomic-instrumented.h ****  *
 115:./include/linux/atomic/atomic-instrumented.h ****  * Unsafe to use in noinstr code; use raw_atomic_add_return() there.
 116:./include/linux/atomic/atomic-instrumented.h ****  *
 117:./include/linux/atomic/atomic-instrumented.h ****  * Return: The updated value of @v.
 118:./include/linux/atomic/atomic-instrumented.h ****  */
 119:./include/linux/atomic/atomic-instrumented.h **** static __always_inline int
 120:./include/linux/atomic/atomic-instrumented.h **** atomic_add_return(int i, atomic_t *v)
 121:./include/linux/atomic/atomic-instrumented.h **** {
 122:./include/linux/atomic/atomic-instrumented.h **** 	kcsan_mb();
 123:./include/linux/atomic/atomic-instrumented.h **** 	instrument_atomic_read_write(v, sizeof(*v));
 124:./include/linux/atomic/atomic-instrumented.h **** 	return raw_atomic_add_return(i, v);
 125:./include/linux/atomic/atomic-instrumented.h **** }
 126:./include/linux/atomic/atomic-instrumented.h **** 
 127:./include/linux/atomic/atomic-instrumented.h **** /**
 128:./include/linux/atomic/atomic-instrumented.h ****  * atomic_add_return_acquire() - atomic add with acquire ordering
 129:./include/linux/atomic/atomic-instrumented.h ****  * @i: int value to add
 130:./include/linux/atomic/atomic-instrumented.h ****  * @v: pointer to atomic_t
 131:./include/linux/atomic/atomic-instrumented.h ****  *
 132:./include/linux/atomic/atomic-instrumented.h ****  * Atomically updates @v to (@v + @i) with acquire ordering.
 133:./include/linux/atomic/atomic-instrumented.h ****  *
 134:./include/linux/atomic/atomic-instrumented.h ****  * Unsafe to use in noinstr code; use raw_atomic_add_return_acquire() there.
 135:./include/linux/atomic/atomic-instrumented.h ****  *
 136:./include/linux/atomic/atomic-instrumented.h ****  * Return: The updated value of @v.
 137:./include/linux/atomic/atomic-instrumented.h ****  */
 138:./include/linux/atomic/atomic-instrumented.h **** static __always_inline int
 139:./include/linux/atomic/atomic-instrumented.h **** atomic_add_return_acquire(int i, atomic_t *v)
 140:./include/linux/atomic/atomic-instrumented.h **** {
 141:./include/linux/atomic/atomic-instrumented.h **** 	instrument_atomic_read_write(v, sizeof(*v));
ARM GAS  /tmp/cc3Q6Ngl.s 			page 63


 142:./include/linux/atomic/atomic-instrumented.h **** 	return raw_atomic_add_return_acquire(i, v);
 143:./include/linux/atomic/atomic-instrumented.h **** }
 144:./include/linux/atomic/atomic-instrumented.h **** 
 145:./include/linux/atomic/atomic-instrumented.h **** /**
 146:./include/linux/atomic/atomic-instrumented.h ****  * atomic_add_return_release() - atomic add with release ordering
 147:./include/linux/atomic/atomic-instrumented.h ****  * @i: int value to add
 148:./include/linux/atomic/atomic-instrumented.h ****  * @v: pointer to atomic_t
 149:./include/linux/atomic/atomic-instrumented.h ****  *
 150:./include/linux/atomic/atomic-instrumented.h ****  * Atomically updates @v to (@v + @i) with release ordering.
 151:./include/linux/atomic/atomic-instrumented.h ****  *
 152:./include/linux/atomic/atomic-instrumented.h ****  * Unsafe to use in noinstr code; use raw_atomic_add_return_release() there.
 153:./include/linux/atomic/atomic-instrumented.h ****  *
 154:./include/linux/atomic/atomic-instrumented.h ****  * Return: The updated value of @v.
 155:./include/linux/atomic/atomic-instrumented.h ****  */
 156:./include/linux/atomic/atomic-instrumented.h **** static __always_inline int
 157:./include/linux/atomic/atomic-instrumented.h **** atomic_add_return_release(int i, atomic_t *v)
 158:./include/linux/atomic/atomic-instrumented.h **** {
 159:./include/linux/atomic/atomic-instrumented.h **** 	kcsan_release();
 160:./include/linux/atomic/atomic-instrumented.h **** 	instrument_atomic_read_write(v, sizeof(*v));
 161:./include/linux/atomic/atomic-instrumented.h **** 	return raw_atomic_add_return_release(i, v);
 162:./include/linux/atomic/atomic-instrumented.h **** }
 163:./include/linux/atomic/atomic-instrumented.h **** 
 164:./include/linux/atomic/atomic-instrumented.h **** /**
 165:./include/linux/atomic/atomic-instrumented.h ****  * atomic_add_return_relaxed() - atomic add with relaxed ordering
 166:./include/linux/atomic/atomic-instrumented.h ****  * @i: int value to add
 167:./include/linux/atomic/atomic-instrumented.h ****  * @v: pointer to atomic_t
 168:./include/linux/atomic/atomic-instrumented.h ****  *
 169:./include/linux/atomic/atomic-instrumented.h ****  * Atomically updates @v to (@v + @i) with relaxed ordering.
 170:./include/linux/atomic/atomic-instrumented.h ****  *
 171:./include/linux/atomic/atomic-instrumented.h ****  * Unsafe to use in noinstr code; use raw_atomic_add_return_relaxed() there.
 172:./include/linux/atomic/atomic-instrumented.h ****  *
 173:./include/linux/atomic/atomic-instrumented.h ****  * Return: The updated value of @v.
 174:./include/linux/atomic/atomic-instrumented.h ****  */
 175:./include/linux/atomic/atomic-instrumented.h **** static __always_inline int
 176:./include/linux/atomic/atomic-instrumented.h **** atomic_add_return_relaxed(int i, atomic_t *v)
 177:./include/linux/atomic/atomic-instrumented.h **** {
 178:./include/linux/atomic/atomic-instrumented.h **** 	instrument_atomic_read_write(v, sizeof(*v));
 179:./include/linux/atomic/atomic-instrumented.h **** 	return raw_atomic_add_return_relaxed(i, v);
 180:./include/linux/atomic/atomic-instrumented.h **** }
 181:./include/linux/atomic/atomic-instrumented.h **** 
 182:./include/linux/atomic/atomic-instrumented.h **** /**
 183:./include/linux/atomic/atomic-instrumented.h ****  * atomic_fetch_add() - atomic add with full ordering
 184:./include/linux/atomic/atomic-instrumented.h ****  * @i: int value to add
 185:./include/linux/atomic/atomic-instrumented.h ****  * @v: pointer to atomic_t
 186:./include/linux/atomic/atomic-instrumented.h ****  *
 187:./include/linux/atomic/atomic-instrumented.h ****  * Atomically updates @v to (@v + @i) with full ordering.
 188:./include/linux/atomic/atomic-instrumented.h ****  *
 189:./include/linux/atomic/atomic-instrumented.h ****  * Unsafe to use in noinstr code; use raw_atomic_fetch_add() there.
 190:./include/linux/atomic/atomic-instrumented.h ****  *
 191:./include/linux/atomic/atomic-instrumented.h ****  * Return: The original value of @v.
 192:./include/linux/atomic/atomic-instrumented.h ****  */
 193:./include/linux/atomic/atomic-instrumented.h **** static __always_inline int
 194:./include/linux/atomic/atomic-instrumented.h **** atomic_fetch_add(int i, atomic_t *v)
 195:./include/linux/atomic/atomic-instrumented.h **** {
 196:./include/linux/atomic/atomic-instrumented.h **** 	kcsan_mb();
 197:./include/linux/atomic/atomic-instrumented.h **** 	instrument_atomic_read_write(v, sizeof(*v));
 198:./include/linux/atomic/atomic-instrumented.h **** 	return raw_atomic_fetch_add(i, v);
ARM GAS  /tmp/cc3Q6Ngl.s 			page 64


 199:./include/linux/atomic/atomic-instrumented.h **** }
 200:./include/linux/atomic/atomic-instrumented.h **** 
 201:./include/linux/atomic/atomic-instrumented.h **** /**
 202:./include/linux/atomic/atomic-instrumented.h ****  * atomic_fetch_add_acquire() - atomic add with acquire ordering
 203:./include/linux/atomic/atomic-instrumented.h ****  * @i: int value to add
 204:./include/linux/atomic/atomic-instrumented.h ****  * @v: pointer to atomic_t
 205:./include/linux/atomic/atomic-instrumented.h ****  *
 206:./include/linux/atomic/atomic-instrumented.h ****  * Atomically updates @v to (@v + @i) with acquire ordering.
 207:./include/linux/atomic/atomic-instrumented.h ****  *
 208:./include/linux/atomic/atomic-instrumented.h ****  * Unsafe to use in noinstr code; use raw_atomic_fetch_add_acquire() there.
 209:./include/linux/atomic/atomic-instrumented.h ****  *
 210:./include/linux/atomic/atomic-instrumented.h ****  * Return: The original value of @v.
 211:./include/linux/atomic/atomic-instrumented.h ****  */
 212:./include/linux/atomic/atomic-instrumented.h **** static __always_inline int
 213:./include/linux/atomic/atomic-instrumented.h **** atomic_fetch_add_acquire(int i, atomic_t *v)
 214:./include/linux/atomic/atomic-instrumented.h **** {
 215:./include/linux/atomic/atomic-instrumented.h **** 	instrument_atomic_read_write(v, sizeof(*v));
 216:./include/linux/atomic/atomic-instrumented.h **** 	return raw_atomic_fetch_add_acquire(i, v);
 217:./include/linux/atomic/atomic-instrumented.h **** }
 218:./include/linux/atomic/atomic-instrumented.h **** 
 219:./include/linux/atomic/atomic-instrumented.h **** /**
 220:./include/linux/atomic/atomic-instrumented.h ****  * atomic_fetch_add_release() - atomic add with release ordering
 221:./include/linux/atomic/atomic-instrumented.h ****  * @i: int value to add
 222:./include/linux/atomic/atomic-instrumented.h ****  * @v: pointer to atomic_t
 223:./include/linux/atomic/atomic-instrumented.h ****  *
 224:./include/linux/atomic/atomic-instrumented.h ****  * Atomically updates @v to (@v + @i) with release ordering.
 225:./include/linux/atomic/atomic-instrumented.h ****  *
 226:./include/linux/atomic/atomic-instrumented.h ****  * Unsafe to use in noinstr code; use raw_atomic_fetch_add_release() there.
 227:./include/linux/atomic/atomic-instrumented.h ****  *
 228:./include/linux/atomic/atomic-instrumented.h ****  * Return: The original value of @v.
 229:./include/linux/atomic/atomic-instrumented.h ****  */
 230:./include/linux/atomic/atomic-instrumented.h **** static __always_inline int
 231:./include/linux/atomic/atomic-instrumented.h **** atomic_fetch_add_release(int i, atomic_t *v)
 232:./include/linux/atomic/atomic-instrumented.h **** {
 233:./include/linux/atomic/atomic-instrumented.h **** 	kcsan_release();
 234:./include/linux/atomic/atomic-instrumented.h **** 	instrument_atomic_read_write(v, sizeof(*v));
 235:./include/linux/atomic/atomic-instrumented.h **** 	return raw_atomic_fetch_add_release(i, v);
 236:./include/linux/atomic/atomic-instrumented.h **** }
 237:./include/linux/atomic/atomic-instrumented.h **** 
 238:./include/linux/atomic/atomic-instrumented.h **** /**
 239:./include/linux/atomic/atomic-instrumented.h ****  * atomic_fetch_add_relaxed() - atomic add with relaxed ordering
 240:./include/linux/atomic/atomic-instrumented.h ****  * @i: int value to add
 241:./include/linux/atomic/atomic-instrumented.h ****  * @v: pointer to atomic_t
 242:./include/linux/atomic/atomic-instrumented.h ****  *
 243:./include/linux/atomic/atomic-instrumented.h ****  * Atomically updates @v to (@v + @i) with relaxed ordering.
 244:./include/linux/atomic/atomic-instrumented.h ****  *
 245:./include/linux/atomic/atomic-instrumented.h ****  * Unsafe to use in noinstr code; use raw_atomic_fetch_add_relaxed() there.
 246:./include/linux/atomic/atomic-instrumented.h ****  *
 247:./include/linux/atomic/atomic-instrumented.h ****  * Return: The original value of @v.
 248:./include/linux/atomic/atomic-instrumented.h ****  */
 249:./include/linux/atomic/atomic-instrumented.h **** static __always_inline int
 250:./include/linux/atomic/atomic-instrumented.h **** atomic_fetch_add_relaxed(int i, atomic_t *v)
 251:./include/linux/atomic/atomic-instrumented.h **** {
 252:./include/linux/atomic/atomic-instrumented.h **** 	instrument_atomic_read_write(v, sizeof(*v));
 253:./include/linux/atomic/atomic-instrumented.h **** 	return raw_atomic_fetch_add_relaxed(i, v);
 254:./include/linux/atomic/atomic-instrumented.h **** }
 255:./include/linux/atomic/atomic-instrumented.h **** 
ARM GAS  /tmp/cc3Q6Ngl.s 			page 65


 256:./include/linux/atomic/atomic-instrumented.h **** /**
 257:./include/linux/atomic/atomic-instrumented.h ****  * atomic_sub() - atomic subtract with relaxed ordering
 258:./include/linux/atomic/atomic-instrumented.h ****  * @i: int value to subtract
 259:./include/linux/atomic/atomic-instrumented.h ****  * @v: pointer to atomic_t
 260:./include/linux/atomic/atomic-instrumented.h ****  *
 261:./include/linux/atomic/atomic-instrumented.h ****  * Atomically updates @v to (@v - @i) with relaxed ordering.
 262:./include/linux/atomic/atomic-instrumented.h ****  *
 263:./include/linux/atomic/atomic-instrumented.h ****  * Unsafe to use in noinstr code; use raw_atomic_sub() there.
 264:./include/linux/atomic/atomic-instrumented.h ****  *
 265:./include/linux/atomic/atomic-instrumented.h ****  * Return: Nothing.
 266:./include/linux/atomic/atomic-instrumented.h ****  */
 267:./include/linux/atomic/atomic-instrumented.h **** static __always_inline void
 268:./include/linux/atomic/atomic-instrumented.h **** atomic_sub(int i, atomic_t *v)
 269:./include/linux/atomic/atomic-instrumented.h **** {
 270:./include/linux/atomic/atomic-instrumented.h **** 	instrument_atomic_read_write(v, sizeof(*v));
 271:./include/linux/atomic/atomic-instrumented.h **** 	raw_atomic_sub(i, v);
 272:./include/linux/atomic/atomic-instrumented.h **** }
 273:./include/linux/atomic/atomic-instrumented.h **** 
 274:./include/linux/atomic/atomic-instrumented.h **** /**
 275:./include/linux/atomic/atomic-instrumented.h ****  * atomic_sub_return() - atomic subtract with full ordering
 276:./include/linux/atomic/atomic-instrumented.h ****  * @i: int value to subtract
 277:./include/linux/atomic/atomic-instrumented.h ****  * @v: pointer to atomic_t
 278:./include/linux/atomic/atomic-instrumented.h ****  *
 279:./include/linux/atomic/atomic-instrumented.h ****  * Atomically updates @v to (@v - @i) with full ordering.
 280:./include/linux/atomic/atomic-instrumented.h ****  *
 281:./include/linux/atomic/atomic-instrumented.h ****  * Unsafe to use in noinstr code; use raw_atomic_sub_return() there.
 282:./include/linux/atomic/atomic-instrumented.h ****  *
 283:./include/linux/atomic/atomic-instrumented.h ****  * Return: The updated value of @v.
 284:./include/linux/atomic/atomic-instrumented.h ****  */
 285:./include/linux/atomic/atomic-instrumented.h **** static __always_inline int
 286:./include/linux/atomic/atomic-instrumented.h **** atomic_sub_return(int i, atomic_t *v)
 287:./include/linux/atomic/atomic-instrumented.h **** {
 288:./include/linux/atomic/atomic-instrumented.h **** 	kcsan_mb();
 289:./include/linux/atomic/atomic-instrumented.h **** 	instrument_atomic_read_write(v, sizeof(*v));
 290:./include/linux/atomic/atomic-instrumented.h **** 	return raw_atomic_sub_return(i, v);
 291:./include/linux/atomic/atomic-instrumented.h **** }
 292:./include/linux/atomic/atomic-instrumented.h **** 
 293:./include/linux/atomic/atomic-instrumented.h **** /**
 294:./include/linux/atomic/atomic-instrumented.h ****  * atomic_sub_return_acquire() - atomic subtract with acquire ordering
 295:./include/linux/atomic/atomic-instrumented.h ****  * @i: int value to subtract
 296:./include/linux/atomic/atomic-instrumented.h ****  * @v: pointer to atomic_t
 297:./include/linux/atomic/atomic-instrumented.h ****  *
 298:./include/linux/atomic/atomic-instrumented.h ****  * Atomically updates @v to (@v - @i) with acquire ordering.
 299:./include/linux/atomic/atomic-instrumented.h ****  *
 300:./include/linux/atomic/atomic-instrumented.h ****  * Unsafe to use in noinstr code; use raw_atomic_sub_return_acquire() there.
 301:./include/linux/atomic/atomic-instrumented.h ****  *
 302:./include/linux/atomic/atomic-instrumented.h ****  * Return: The updated value of @v.
 303:./include/linux/atomic/atomic-instrumented.h ****  */
 304:./include/linux/atomic/atomic-instrumented.h **** static __always_inline int
 305:./include/linux/atomic/atomic-instrumented.h **** atomic_sub_return_acquire(int i, atomic_t *v)
 306:./include/linux/atomic/atomic-instrumented.h **** {
 307:./include/linux/atomic/atomic-instrumented.h **** 	instrument_atomic_read_write(v, sizeof(*v));
 308:./include/linux/atomic/atomic-instrumented.h **** 	return raw_atomic_sub_return_acquire(i, v);
 309:./include/linux/atomic/atomic-instrumented.h **** }
 310:./include/linux/atomic/atomic-instrumented.h **** 
 311:./include/linux/atomic/atomic-instrumented.h **** /**
 312:./include/linux/atomic/atomic-instrumented.h ****  * atomic_sub_return_release() - atomic subtract with release ordering
ARM GAS  /tmp/cc3Q6Ngl.s 			page 66


 313:./include/linux/atomic/atomic-instrumented.h ****  * @i: int value to subtract
 314:./include/linux/atomic/atomic-instrumented.h ****  * @v: pointer to atomic_t
 315:./include/linux/atomic/atomic-instrumented.h ****  *
 316:./include/linux/atomic/atomic-instrumented.h ****  * Atomically updates @v to (@v - @i) with release ordering.
 317:./include/linux/atomic/atomic-instrumented.h ****  *
 318:./include/linux/atomic/atomic-instrumented.h ****  * Unsafe to use in noinstr code; use raw_atomic_sub_return_release() there.
 319:./include/linux/atomic/atomic-instrumented.h ****  *
 320:./include/linux/atomic/atomic-instrumented.h ****  * Return: The updated value of @v.
 321:./include/linux/atomic/atomic-instrumented.h ****  */
 322:./include/linux/atomic/atomic-instrumented.h **** static __always_inline int
 323:./include/linux/atomic/atomic-instrumented.h **** atomic_sub_return_release(int i, atomic_t *v)
 324:./include/linux/atomic/atomic-instrumented.h **** {
 325:./include/linux/atomic/atomic-instrumented.h **** 	kcsan_release();
 326:./include/linux/atomic/atomic-instrumented.h **** 	instrument_atomic_read_write(v, sizeof(*v));
 327:./include/linux/atomic/atomic-instrumented.h **** 	return raw_atomic_sub_return_release(i, v);
 328:./include/linux/atomic/atomic-instrumented.h **** }
 329:./include/linux/atomic/atomic-instrumented.h **** 
 330:./include/linux/atomic/atomic-instrumented.h **** /**
 331:./include/linux/atomic/atomic-instrumented.h ****  * atomic_sub_return_relaxed() - atomic subtract with relaxed ordering
 332:./include/linux/atomic/atomic-instrumented.h ****  * @i: int value to subtract
 333:./include/linux/atomic/atomic-instrumented.h ****  * @v: pointer to atomic_t
 334:./include/linux/atomic/atomic-instrumented.h ****  *
 335:./include/linux/atomic/atomic-instrumented.h ****  * Atomically updates @v to (@v - @i) with relaxed ordering.
 336:./include/linux/atomic/atomic-instrumented.h ****  *
 337:./include/linux/atomic/atomic-instrumented.h ****  * Unsafe to use in noinstr code; use raw_atomic_sub_return_relaxed() there.
 338:./include/linux/atomic/atomic-instrumented.h ****  *
 339:./include/linux/atomic/atomic-instrumented.h ****  * Return: The updated value of @v.
 340:./include/linux/atomic/atomic-instrumented.h ****  */
 341:./include/linux/atomic/atomic-instrumented.h **** static __always_inline int
 342:./include/linux/atomic/atomic-instrumented.h **** atomic_sub_return_relaxed(int i, atomic_t *v)
 343:./include/linux/atomic/atomic-instrumented.h **** {
 344:./include/linux/atomic/atomic-instrumented.h **** 	instrument_atomic_read_write(v, sizeof(*v));
 345:./include/linux/atomic/atomic-instrumented.h **** 	return raw_atomic_sub_return_relaxed(i, v);
 346:./include/linux/atomic/atomic-instrumented.h **** }
 347:./include/linux/atomic/atomic-instrumented.h **** 
 348:./include/linux/atomic/atomic-instrumented.h **** /**
 349:./include/linux/atomic/atomic-instrumented.h ****  * atomic_fetch_sub() - atomic subtract with full ordering
 350:./include/linux/atomic/atomic-instrumented.h ****  * @i: int value to subtract
 351:./include/linux/atomic/atomic-instrumented.h ****  * @v: pointer to atomic_t
 352:./include/linux/atomic/atomic-instrumented.h ****  *
 353:./include/linux/atomic/atomic-instrumented.h ****  * Atomically updates @v to (@v - @i) with full ordering.
 354:./include/linux/atomic/atomic-instrumented.h ****  *
 355:./include/linux/atomic/atomic-instrumented.h ****  * Unsafe to use in noinstr code; use raw_atomic_fetch_sub() there.
 356:./include/linux/atomic/atomic-instrumented.h ****  *
 357:./include/linux/atomic/atomic-instrumented.h ****  * Return: The original value of @v.
 358:./include/linux/atomic/atomic-instrumented.h ****  */
 359:./include/linux/atomic/atomic-instrumented.h **** static __always_inline int
 360:./include/linux/atomic/atomic-instrumented.h **** atomic_fetch_sub(int i, atomic_t *v)
 361:./include/linux/atomic/atomic-instrumented.h **** {
 362:./include/linux/atomic/atomic-instrumented.h **** 	kcsan_mb();
 363:./include/linux/atomic/atomic-instrumented.h **** 	instrument_atomic_read_write(v, sizeof(*v));
 364:./include/linux/atomic/atomic-instrumented.h **** 	return raw_atomic_fetch_sub(i, v);
 365:./include/linux/atomic/atomic-instrumented.h **** }
 366:./include/linux/atomic/atomic-instrumented.h **** 
 367:./include/linux/atomic/atomic-instrumented.h **** /**
 368:./include/linux/atomic/atomic-instrumented.h ****  * atomic_fetch_sub_acquire() - atomic subtract with acquire ordering
 369:./include/linux/atomic/atomic-instrumented.h ****  * @i: int value to subtract
ARM GAS  /tmp/cc3Q6Ngl.s 			page 67


 370:./include/linux/atomic/atomic-instrumented.h ****  * @v: pointer to atomic_t
 371:./include/linux/atomic/atomic-instrumented.h ****  *
 372:./include/linux/atomic/atomic-instrumented.h ****  * Atomically updates @v to (@v - @i) with acquire ordering.
 373:./include/linux/atomic/atomic-instrumented.h ****  *
 374:./include/linux/atomic/atomic-instrumented.h ****  * Unsafe to use in noinstr code; use raw_atomic_fetch_sub_acquire() there.
 375:./include/linux/atomic/atomic-instrumented.h ****  *
 376:./include/linux/atomic/atomic-instrumented.h ****  * Return: The original value of @v.
 377:./include/linux/atomic/atomic-instrumented.h ****  */
 378:./include/linux/atomic/atomic-instrumented.h **** static __always_inline int
 379:./include/linux/atomic/atomic-instrumented.h **** atomic_fetch_sub_acquire(int i, atomic_t *v)
 380:./include/linux/atomic/atomic-instrumented.h **** {
 381:./include/linux/atomic/atomic-instrumented.h **** 	instrument_atomic_read_write(v, sizeof(*v));
 382:./include/linux/atomic/atomic-instrumented.h **** 	return raw_atomic_fetch_sub_acquire(i, v);
 383:./include/linux/atomic/atomic-instrumented.h **** }
 384:./include/linux/atomic/atomic-instrumented.h **** 
 385:./include/linux/atomic/atomic-instrumented.h **** /**
 386:./include/linux/atomic/atomic-instrumented.h ****  * atomic_fetch_sub_release() - atomic subtract with release ordering
 387:./include/linux/atomic/atomic-instrumented.h ****  * @i: int value to subtract
 388:./include/linux/atomic/atomic-instrumented.h ****  * @v: pointer to atomic_t
 389:./include/linux/atomic/atomic-instrumented.h ****  *
 390:./include/linux/atomic/atomic-instrumented.h ****  * Atomically updates @v to (@v - @i) with release ordering.
 391:./include/linux/atomic/atomic-instrumented.h ****  *
 392:./include/linux/atomic/atomic-instrumented.h ****  * Unsafe to use in noinstr code; use raw_atomic_fetch_sub_release() there.
 393:./include/linux/atomic/atomic-instrumented.h ****  *
 394:./include/linux/atomic/atomic-instrumented.h ****  * Return: The original value of @v.
 395:./include/linux/atomic/atomic-instrumented.h ****  */
 396:./include/linux/atomic/atomic-instrumented.h **** static __always_inline int
 397:./include/linux/atomic/atomic-instrumented.h **** atomic_fetch_sub_release(int i, atomic_t *v)
 398:./include/linux/atomic/atomic-instrumented.h **** {
 399:./include/linux/atomic/atomic-instrumented.h **** 	kcsan_release();
 400:./include/linux/atomic/atomic-instrumented.h **** 	instrument_atomic_read_write(v, sizeof(*v));
 401:./include/linux/atomic/atomic-instrumented.h **** 	return raw_atomic_fetch_sub_release(i, v);
 402:./include/linux/atomic/atomic-instrumented.h **** }
 403:./include/linux/atomic/atomic-instrumented.h **** 
 404:./include/linux/atomic/atomic-instrumented.h **** /**
 405:./include/linux/atomic/atomic-instrumented.h ****  * atomic_fetch_sub_relaxed() - atomic subtract with relaxed ordering
 406:./include/linux/atomic/atomic-instrumented.h ****  * @i: int value to subtract
 407:./include/linux/atomic/atomic-instrumented.h ****  * @v: pointer to atomic_t
 408:./include/linux/atomic/atomic-instrumented.h ****  *
 409:./include/linux/atomic/atomic-instrumented.h ****  * Atomically updates @v to (@v - @i) with relaxed ordering.
 410:./include/linux/atomic/atomic-instrumented.h ****  *
 411:./include/linux/atomic/atomic-instrumented.h ****  * Unsafe to use in noinstr code; use raw_atomic_fetch_sub_relaxed() there.
 412:./include/linux/atomic/atomic-instrumented.h ****  *
 413:./include/linux/atomic/atomic-instrumented.h ****  * Return: The original value of @v.
 414:./include/linux/atomic/atomic-instrumented.h ****  */
 415:./include/linux/atomic/atomic-instrumented.h **** static __always_inline int
 416:./include/linux/atomic/atomic-instrumented.h **** atomic_fetch_sub_relaxed(int i, atomic_t *v)
 417:./include/linux/atomic/atomic-instrumented.h **** {
 418:./include/linux/atomic/atomic-instrumented.h **** 	instrument_atomic_read_write(v, sizeof(*v));
 419:./include/linux/atomic/atomic-instrumented.h **** 	return raw_atomic_fetch_sub_relaxed(i, v);
 420:./include/linux/atomic/atomic-instrumented.h **** }
 421:./include/linux/atomic/atomic-instrumented.h **** 
 422:./include/linux/atomic/atomic-instrumented.h **** /**
 423:./include/linux/atomic/atomic-instrumented.h ****  * atomic_inc() - atomic increment with relaxed ordering
 424:./include/linux/atomic/atomic-instrumented.h ****  * @v: pointer to atomic_t
 425:./include/linux/atomic/atomic-instrumented.h ****  *
 426:./include/linux/atomic/atomic-instrumented.h ****  * Atomically updates @v to (@v + 1) with relaxed ordering.
ARM GAS  /tmp/cc3Q6Ngl.s 			page 68


 427:./include/linux/atomic/atomic-instrumented.h ****  *
 428:./include/linux/atomic/atomic-instrumented.h ****  * Unsafe to use in noinstr code; use raw_atomic_inc() there.
 429:./include/linux/atomic/atomic-instrumented.h ****  *
 430:./include/linux/atomic/atomic-instrumented.h ****  * Return: Nothing.
 431:./include/linux/atomic/atomic-instrumented.h ****  */
 432:./include/linux/atomic/atomic-instrumented.h **** static __always_inline void
 433:./include/linux/atomic/atomic-instrumented.h **** atomic_inc(atomic_t *v)
 1428              		.loc 5 433 1 view .LVU432
 434:./include/linux/atomic/atomic-instrumented.h **** {
 435:./include/linux/atomic/atomic-instrumented.h **** 	instrument_atomic_read_write(v, sizeof(*v));
 1429              		.loc 5 435 2 view .LVU433
 436:./include/linux/atomic/atomic-instrumented.h **** 	raw_atomic_inc(v);
 1430              		.loc 5 436 2 view .LVU434
 1431              	.LBB257:
 1432              	.LBI257:
 510:./include/linux/atomic/atomic-arch-fallback.h **** }
 511:./include/linux/atomic/atomic-arch-fallback.h **** 
 512:./include/linux/atomic/atomic-arch-fallback.h **** /**
 513:./include/linux/atomic/atomic-arch-fallback.h ****  * raw_atomic_set_release() - atomic set with release ordering
 514:./include/linux/atomic/atomic-arch-fallback.h ****  * @v: pointer to atomic_t
 515:./include/linux/atomic/atomic-arch-fallback.h ****  * @i: int value to assign
 516:./include/linux/atomic/atomic-arch-fallback.h ****  *
 517:./include/linux/atomic/atomic-arch-fallback.h ****  * Atomically sets @v to @i with release ordering.
 518:./include/linux/atomic/atomic-arch-fallback.h ****  *
 519:./include/linux/atomic/atomic-arch-fallback.h ****  * Safe to use in noinstr code; prefer atomic_set_release() elsewhere.
 520:./include/linux/atomic/atomic-arch-fallback.h ****  *
 521:./include/linux/atomic/atomic-arch-fallback.h ****  * Return: Nothing.
 522:./include/linux/atomic/atomic-arch-fallback.h ****  */
 523:./include/linux/atomic/atomic-arch-fallback.h **** static __always_inline void
 524:./include/linux/atomic/atomic-arch-fallback.h **** raw_atomic_set_release(atomic_t *v, int i)
 525:./include/linux/atomic/atomic-arch-fallback.h **** {
 526:./include/linux/atomic/atomic-arch-fallback.h **** #if defined(arch_atomic_set_release)
 527:./include/linux/atomic/atomic-arch-fallback.h **** 	arch_atomic_set_release(v, i);
 528:./include/linux/atomic/atomic-arch-fallback.h **** #else
 529:./include/linux/atomic/atomic-arch-fallback.h **** 	if (__native_word(atomic_t)) {
 530:./include/linux/atomic/atomic-arch-fallback.h **** 		smp_store_release(&(v)->counter, i);
 531:./include/linux/atomic/atomic-arch-fallback.h **** 	} else {
 532:./include/linux/atomic/atomic-arch-fallback.h **** 		__atomic_release_fence();
 533:./include/linux/atomic/atomic-arch-fallback.h **** 		raw_atomic_set(v, i);
 534:./include/linux/atomic/atomic-arch-fallback.h **** 	}
 535:./include/linux/atomic/atomic-arch-fallback.h **** #endif
 536:./include/linux/atomic/atomic-arch-fallback.h **** }
 537:./include/linux/atomic/atomic-arch-fallback.h **** 
 538:./include/linux/atomic/atomic-arch-fallback.h **** /**
 539:./include/linux/atomic/atomic-arch-fallback.h ****  * raw_atomic_add() - atomic add with relaxed ordering
 540:./include/linux/atomic/atomic-arch-fallback.h ****  * @i: int value to add
 541:./include/linux/atomic/atomic-arch-fallback.h ****  * @v: pointer to atomic_t
 542:./include/linux/atomic/atomic-arch-fallback.h ****  *
 543:./include/linux/atomic/atomic-arch-fallback.h ****  * Atomically updates @v to (@v + @i) with relaxed ordering.
 544:./include/linux/atomic/atomic-arch-fallback.h ****  *
 545:./include/linux/atomic/atomic-arch-fallback.h ****  * Safe to use in noinstr code; prefer atomic_add() elsewhere.
 546:./include/linux/atomic/atomic-arch-fallback.h ****  *
 547:./include/linux/atomic/atomic-arch-fallback.h ****  * Return: Nothing.
 548:./include/linux/atomic/atomic-arch-fallback.h ****  */
 549:./include/linux/atomic/atomic-arch-fallback.h **** static __always_inline void
 550:./include/linux/atomic/atomic-arch-fallback.h **** raw_atomic_add(int i, atomic_t *v)
 551:./include/linux/atomic/atomic-arch-fallback.h **** {
ARM GAS  /tmp/cc3Q6Ngl.s 			page 69


 552:./include/linux/atomic/atomic-arch-fallback.h **** 	arch_atomic_add(i, v);
 553:./include/linux/atomic/atomic-arch-fallback.h **** }
 554:./include/linux/atomic/atomic-arch-fallback.h **** 
 555:./include/linux/atomic/atomic-arch-fallback.h **** /**
 556:./include/linux/atomic/atomic-arch-fallback.h ****  * raw_atomic_add_return() - atomic add with full ordering
 557:./include/linux/atomic/atomic-arch-fallback.h ****  * @i: int value to add
 558:./include/linux/atomic/atomic-arch-fallback.h ****  * @v: pointer to atomic_t
 559:./include/linux/atomic/atomic-arch-fallback.h ****  *
 560:./include/linux/atomic/atomic-arch-fallback.h ****  * Atomically updates @v to (@v + @i) with full ordering.
 561:./include/linux/atomic/atomic-arch-fallback.h ****  *
 562:./include/linux/atomic/atomic-arch-fallback.h ****  * Safe to use in noinstr code; prefer atomic_add_return() elsewhere.
 563:./include/linux/atomic/atomic-arch-fallback.h ****  *
 564:./include/linux/atomic/atomic-arch-fallback.h ****  * Return: The updated value of @v.
 565:./include/linux/atomic/atomic-arch-fallback.h ****  */
 566:./include/linux/atomic/atomic-arch-fallback.h **** static __always_inline int
 567:./include/linux/atomic/atomic-arch-fallback.h **** raw_atomic_add_return(int i, atomic_t *v)
 568:./include/linux/atomic/atomic-arch-fallback.h **** {
 569:./include/linux/atomic/atomic-arch-fallback.h **** #if defined(arch_atomic_add_return)
 570:./include/linux/atomic/atomic-arch-fallback.h **** 	return arch_atomic_add_return(i, v);
 571:./include/linux/atomic/atomic-arch-fallback.h **** #elif defined(arch_atomic_add_return_relaxed)
 572:./include/linux/atomic/atomic-arch-fallback.h **** 	int ret;
 573:./include/linux/atomic/atomic-arch-fallback.h **** 	__atomic_pre_full_fence();
 574:./include/linux/atomic/atomic-arch-fallback.h **** 	ret = arch_atomic_add_return_relaxed(i, v);
 575:./include/linux/atomic/atomic-arch-fallback.h **** 	__atomic_post_full_fence();
 576:./include/linux/atomic/atomic-arch-fallback.h **** 	return ret;
 577:./include/linux/atomic/atomic-arch-fallback.h **** #else
 578:./include/linux/atomic/atomic-arch-fallback.h **** #error "Unable to define raw_atomic_add_return"
 579:./include/linux/atomic/atomic-arch-fallback.h **** #endif
 580:./include/linux/atomic/atomic-arch-fallback.h **** }
 581:./include/linux/atomic/atomic-arch-fallback.h **** 
 582:./include/linux/atomic/atomic-arch-fallback.h **** /**
 583:./include/linux/atomic/atomic-arch-fallback.h ****  * raw_atomic_add_return_acquire() - atomic add with acquire ordering
 584:./include/linux/atomic/atomic-arch-fallback.h ****  * @i: int value to add
 585:./include/linux/atomic/atomic-arch-fallback.h ****  * @v: pointer to atomic_t
 586:./include/linux/atomic/atomic-arch-fallback.h ****  *
 587:./include/linux/atomic/atomic-arch-fallback.h ****  * Atomically updates @v to (@v + @i) with acquire ordering.
 588:./include/linux/atomic/atomic-arch-fallback.h ****  *
 589:./include/linux/atomic/atomic-arch-fallback.h ****  * Safe to use in noinstr code; prefer atomic_add_return_acquire() elsewhere.
 590:./include/linux/atomic/atomic-arch-fallback.h ****  *
 591:./include/linux/atomic/atomic-arch-fallback.h ****  * Return: The updated value of @v.
 592:./include/linux/atomic/atomic-arch-fallback.h ****  */
 593:./include/linux/atomic/atomic-arch-fallback.h **** static __always_inline int
 594:./include/linux/atomic/atomic-arch-fallback.h **** raw_atomic_add_return_acquire(int i, atomic_t *v)
 595:./include/linux/atomic/atomic-arch-fallback.h **** {
 596:./include/linux/atomic/atomic-arch-fallback.h **** #if defined(arch_atomic_add_return_acquire)
 597:./include/linux/atomic/atomic-arch-fallback.h **** 	return arch_atomic_add_return_acquire(i, v);
 598:./include/linux/atomic/atomic-arch-fallback.h **** #elif defined(arch_atomic_add_return_relaxed)
 599:./include/linux/atomic/atomic-arch-fallback.h **** 	int ret = arch_atomic_add_return_relaxed(i, v);
 600:./include/linux/atomic/atomic-arch-fallback.h **** 	__atomic_acquire_fence();
 601:./include/linux/atomic/atomic-arch-fallback.h **** 	return ret;
 602:./include/linux/atomic/atomic-arch-fallback.h **** #elif defined(arch_atomic_add_return)
 603:./include/linux/atomic/atomic-arch-fallback.h **** 	return arch_atomic_add_return(i, v);
 604:./include/linux/atomic/atomic-arch-fallback.h **** #else
 605:./include/linux/atomic/atomic-arch-fallback.h **** #error "Unable to define raw_atomic_add_return_acquire"
 606:./include/linux/atomic/atomic-arch-fallback.h **** #endif
 607:./include/linux/atomic/atomic-arch-fallback.h **** }
 608:./include/linux/atomic/atomic-arch-fallback.h **** 
ARM GAS  /tmp/cc3Q6Ngl.s 			page 70


 609:./include/linux/atomic/atomic-arch-fallback.h **** /**
 610:./include/linux/atomic/atomic-arch-fallback.h ****  * raw_atomic_add_return_release() - atomic add with release ordering
 611:./include/linux/atomic/atomic-arch-fallback.h ****  * @i: int value to add
 612:./include/linux/atomic/atomic-arch-fallback.h ****  * @v: pointer to atomic_t
 613:./include/linux/atomic/atomic-arch-fallback.h ****  *
 614:./include/linux/atomic/atomic-arch-fallback.h ****  * Atomically updates @v to (@v + @i) with release ordering.
 615:./include/linux/atomic/atomic-arch-fallback.h ****  *
 616:./include/linux/atomic/atomic-arch-fallback.h ****  * Safe to use in noinstr code; prefer atomic_add_return_release() elsewhere.
 617:./include/linux/atomic/atomic-arch-fallback.h ****  *
 618:./include/linux/atomic/atomic-arch-fallback.h ****  * Return: The updated value of @v.
 619:./include/linux/atomic/atomic-arch-fallback.h ****  */
 620:./include/linux/atomic/atomic-arch-fallback.h **** static __always_inline int
 621:./include/linux/atomic/atomic-arch-fallback.h **** raw_atomic_add_return_release(int i, atomic_t *v)
 622:./include/linux/atomic/atomic-arch-fallback.h **** {
 623:./include/linux/atomic/atomic-arch-fallback.h **** #if defined(arch_atomic_add_return_release)
 624:./include/linux/atomic/atomic-arch-fallback.h **** 	return arch_atomic_add_return_release(i, v);
 625:./include/linux/atomic/atomic-arch-fallback.h **** #elif defined(arch_atomic_add_return_relaxed)
 626:./include/linux/atomic/atomic-arch-fallback.h **** 	__atomic_release_fence();
 627:./include/linux/atomic/atomic-arch-fallback.h **** 	return arch_atomic_add_return_relaxed(i, v);
 628:./include/linux/atomic/atomic-arch-fallback.h **** #elif defined(arch_atomic_add_return)
 629:./include/linux/atomic/atomic-arch-fallback.h **** 	return arch_atomic_add_return(i, v);
 630:./include/linux/atomic/atomic-arch-fallback.h **** #else
 631:./include/linux/atomic/atomic-arch-fallback.h **** #error "Unable to define raw_atomic_add_return_release"
 632:./include/linux/atomic/atomic-arch-fallback.h **** #endif
 633:./include/linux/atomic/atomic-arch-fallback.h **** }
 634:./include/linux/atomic/atomic-arch-fallback.h **** 
 635:./include/linux/atomic/atomic-arch-fallback.h **** /**
 636:./include/linux/atomic/atomic-arch-fallback.h ****  * raw_atomic_add_return_relaxed() - atomic add with relaxed ordering
 637:./include/linux/atomic/atomic-arch-fallback.h ****  * @i: int value to add
 638:./include/linux/atomic/atomic-arch-fallback.h ****  * @v: pointer to atomic_t
 639:./include/linux/atomic/atomic-arch-fallback.h ****  *
 640:./include/linux/atomic/atomic-arch-fallback.h ****  * Atomically updates @v to (@v + @i) with relaxed ordering.
 641:./include/linux/atomic/atomic-arch-fallback.h ****  *
 642:./include/linux/atomic/atomic-arch-fallback.h ****  * Safe to use in noinstr code; prefer atomic_add_return_relaxed() elsewhere.
 643:./include/linux/atomic/atomic-arch-fallback.h ****  *
 644:./include/linux/atomic/atomic-arch-fallback.h ****  * Return: The updated value of @v.
 645:./include/linux/atomic/atomic-arch-fallback.h ****  */
 646:./include/linux/atomic/atomic-arch-fallback.h **** static __always_inline int
 647:./include/linux/atomic/atomic-arch-fallback.h **** raw_atomic_add_return_relaxed(int i, atomic_t *v)
 648:./include/linux/atomic/atomic-arch-fallback.h **** {
 649:./include/linux/atomic/atomic-arch-fallback.h **** #if defined(arch_atomic_add_return_relaxed)
 650:./include/linux/atomic/atomic-arch-fallback.h **** 	return arch_atomic_add_return_relaxed(i, v);
 651:./include/linux/atomic/atomic-arch-fallback.h **** #elif defined(arch_atomic_add_return)
 652:./include/linux/atomic/atomic-arch-fallback.h **** 	return arch_atomic_add_return(i, v);
 653:./include/linux/atomic/atomic-arch-fallback.h **** #else
 654:./include/linux/atomic/atomic-arch-fallback.h **** #error "Unable to define raw_atomic_add_return_relaxed"
 655:./include/linux/atomic/atomic-arch-fallback.h **** #endif
 656:./include/linux/atomic/atomic-arch-fallback.h **** }
 657:./include/linux/atomic/atomic-arch-fallback.h **** 
 658:./include/linux/atomic/atomic-arch-fallback.h **** /**
 659:./include/linux/atomic/atomic-arch-fallback.h ****  * raw_atomic_fetch_add() - atomic add with full ordering
 660:./include/linux/atomic/atomic-arch-fallback.h ****  * @i: int value to add
 661:./include/linux/atomic/atomic-arch-fallback.h ****  * @v: pointer to atomic_t
 662:./include/linux/atomic/atomic-arch-fallback.h ****  *
 663:./include/linux/atomic/atomic-arch-fallback.h ****  * Atomically updates @v to (@v + @i) with full ordering.
 664:./include/linux/atomic/atomic-arch-fallback.h ****  *
 665:./include/linux/atomic/atomic-arch-fallback.h ****  * Safe to use in noinstr code; prefer atomic_fetch_add() elsewhere.
ARM GAS  /tmp/cc3Q6Ngl.s 			page 71


 666:./include/linux/atomic/atomic-arch-fallback.h ****  *
 667:./include/linux/atomic/atomic-arch-fallback.h ****  * Return: The original value of @v.
 668:./include/linux/atomic/atomic-arch-fallback.h ****  */
 669:./include/linux/atomic/atomic-arch-fallback.h **** static __always_inline int
 670:./include/linux/atomic/atomic-arch-fallback.h **** raw_atomic_fetch_add(int i, atomic_t *v)
 671:./include/linux/atomic/atomic-arch-fallback.h **** {
 672:./include/linux/atomic/atomic-arch-fallback.h **** #if defined(arch_atomic_fetch_add)
 673:./include/linux/atomic/atomic-arch-fallback.h **** 	return arch_atomic_fetch_add(i, v);
 674:./include/linux/atomic/atomic-arch-fallback.h **** #elif defined(arch_atomic_fetch_add_relaxed)
 675:./include/linux/atomic/atomic-arch-fallback.h **** 	int ret;
 676:./include/linux/atomic/atomic-arch-fallback.h **** 	__atomic_pre_full_fence();
 677:./include/linux/atomic/atomic-arch-fallback.h **** 	ret = arch_atomic_fetch_add_relaxed(i, v);
 678:./include/linux/atomic/atomic-arch-fallback.h **** 	__atomic_post_full_fence();
 679:./include/linux/atomic/atomic-arch-fallback.h **** 	return ret;
 680:./include/linux/atomic/atomic-arch-fallback.h **** #else
 681:./include/linux/atomic/atomic-arch-fallback.h **** #error "Unable to define raw_atomic_fetch_add"
 682:./include/linux/atomic/atomic-arch-fallback.h **** #endif
 683:./include/linux/atomic/atomic-arch-fallback.h **** }
 684:./include/linux/atomic/atomic-arch-fallback.h **** 
 685:./include/linux/atomic/atomic-arch-fallback.h **** /**
 686:./include/linux/atomic/atomic-arch-fallback.h ****  * raw_atomic_fetch_add_acquire() - atomic add with acquire ordering
 687:./include/linux/atomic/atomic-arch-fallback.h ****  * @i: int value to add
 688:./include/linux/atomic/atomic-arch-fallback.h ****  * @v: pointer to atomic_t
 689:./include/linux/atomic/atomic-arch-fallback.h ****  *
 690:./include/linux/atomic/atomic-arch-fallback.h ****  * Atomically updates @v to (@v + @i) with acquire ordering.
 691:./include/linux/atomic/atomic-arch-fallback.h ****  *
 692:./include/linux/atomic/atomic-arch-fallback.h ****  * Safe to use in noinstr code; prefer atomic_fetch_add_acquire() elsewhere.
 693:./include/linux/atomic/atomic-arch-fallback.h ****  *
 694:./include/linux/atomic/atomic-arch-fallback.h ****  * Return: The original value of @v.
 695:./include/linux/atomic/atomic-arch-fallback.h ****  */
 696:./include/linux/atomic/atomic-arch-fallback.h **** static __always_inline int
 697:./include/linux/atomic/atomic-arch-fallback.h **** raw_atomic_fetch_add_acquire(int i, atomic_t *v)
 698:./include/linux/atomic/atomic-arch-fallback.h **** {
 699:./include/linux/atomic/atomic-arch-fallback.h **** #if defined(arch_atomic_fetch_add_acquire)
 700:./include/linux/atomic/atomic-arch-fallback.h **** 	return arch_atomic_fetch_add_acquire(i, v);
 701:./include/linux/atomic/atomic-arch-fallback.h **** #elif defined(arch_atomic_fetch_add_relaxed)
 702:./include/linux/atomic/atomic-arch-fallback.h **** 	int ret = arch_atomic_fetch_add_relaxed(i, v);
 703:./include/linux/atomic/atomic-arch-fallback.h **** 	__atomic_acquire_fence();
 704:./include/linux/atomic/atomic-arch-fallback.h **** 	return ret;
 705:./include/linux/atomic/atomic-arch-fallback.h **** #elif defined(arch_atomic_fetch_add)
 706:./include/linux/atomic/atomic-arch-fallback.h **** 	return arch_atomic_fetch_add(i, v);
 707:./include/linux/atomic/atomic-arch-fallback.h **** #else
 708:./include/linux/atomic/atomic-arch-fallback.h **** #error "Unable to define raw_atomic_fetch_add_acquire"
 709:./include/linux/atomic/atomic-arch-fallback.h **** #endif
 710:./include/linux/atomic/atomic-arch-fallback.h **** }
 711:./include/linux/atomic/atomic-arch-fallback.h **** 
 712:./include/linux/atomic/atomic-arch-fallback.h **** /**
 713:./include/linux/atomic/atomic-arch-fallback.h ****  * raw_atomic_fetch_add_release() - atomic add with release ordering
 714:./include/linux/atomic/atomic-arch-fallback.h ****  * @i: int value to add
 715:./include/linux/atomic/atomic-arch-fallback.h ****  * @v: pointer to atomic_t
 716:./include/linux/atomic/atomic-arch-fallback.h ****  *
 717:./include/linux/atomic/atomic-arch-fallback.h ****  * Atomically updates @v to (@v + @i) with release ordering.
 718:./include/linux/atomic/atomic-arch-fallback.h ****  *
 719:./include/linux/atomic/atomic-arch-fallback.h ****  * Safe to use in noinstr code; prefer atomic_fetch_add_release() elsewhere.
 720:./include/linux/atomic/atomic-arch-fallback.h ****  *
 721:./include/linux/atomic/atomic-arch-fallback.h ****  * Return: The original value of @v.
 722:./include/linux/atomic/atomic-arch-fallback.h ****  */
ARM GAS  /tmp/cc3Q6Ngl.s 			page 72


 723:./include/linux/atomic/atomic-arch-fallback.h **** static __always_inline int
 724:./include/linux/atomic/atomic-arch-fallback.h **** raw_atomic_fetch_add_release(int i, atomic_t *v)
 725:./include/linux/atomic/atomic-arch-fallback.h **** {
 726:./include/linux/atomic/atomic-arch-fallback.h **** #if defined(arch_atomic_fetch_add_release)
 727:./include/linux/atomic/atomic-arch-fallback.h **** 	return arch_atomic_fetch_add_release(i, v);
 728:./include/linux/atomic/atomic-arch-fallback.h **** #elif defined(arch_atomic_fetch_add_relaxed)
 729:./include/linux/atomic/atomic-arch-fallback.h **** 	__atomic_release_fence();
 730:./include/linux/atomic/atomic-arch-fallback.h **** 	return arch_atomic_fetch_add_relaxed(i, v);
 731:./include/linux/atomic/atomic-arch-fallback.h **** #elif defined(arch_atomic_fetch_add)
 732:./include/linux/atomic/atomic-arch-fallback.h **** 	return arch_atomic_fetch_add(i, v);
 733:./include/linux/atomic/atomic-arch-fallback.h **** #else
