ARM GAS  /tmp/ccnrTkjK.s 			page 1


   1              		.cpu cortex-m4
   2              		.arch armv7e-m
   3              		.fpu fpv4-sp-d16
   4              		.eabi_attribute 27, 1
   5              		.eabi_attribute 28, 1
   6              		.eabi_attribute 20, 1
   7              		.eabi_attribute 21, 1
   8              		.eabi_attribute 23, 3
   9              		.eabi_attribute 24, 1
  10              		.eabi_attribute 25, 1
  11              		.eabi_attribute 26, 1
  12              		.eabi_attribute 30, 1
  13              		.eabi_attribute 34, 1
  14              		.eabi_attribute 18, 4
  15              		.file	"request_queue.c"
  16              		.text
  17              	.Ltext0:
  18              		.cfi_sections	.debug_frame
  19              		.file 1 "/mnt/c/Users/31740/Desktop/newcore/block/request_queue.c"
  20              		.section	.text.__spin_init,"ax",%progbits
  21              		.align	1
  22              		.syntax unified
  23              		.thumb
  24              		.thumb_func
  26              	__spin_init:
  27              	.LVL0:
  28              	.LFB226:
  29              		.file 2 "/mnt/c/Users/31740/Desktop/newcore/arch/arm_m/include/asm/spinlock.h"
   1:/mnt/c/Users/31740/Desktop/newcore/arch/arm_m/include/asm/spinlock.h **** #ifndef __SPIN_LOCK_H_
   2:/mnt/c/Users/31740/Desktop/newcore/arch/arm_m/include/asm/spinlock.h **** #define __SPIN_LOCK_H_
   3:/mnt/c/Users/31740/Desktop/newcore/arch/arm_m/include/asm/spinlock.h **** 
   4:/mnt/c/Users/31740/Desktop/newcore/arch/arm_m/include/asm/spinlock.h **** #include <linux/sched.h>
   5:/mnt/c/Users/31740/Desktop/newcore/arch/arm_m/include/asm/spinlock.h **** 
   6:/mnt/c/Users/31740/Desktop/newcore/arch/arm_m/include/asm/spinlock.h **** typedef struct { 
   7:/mnt/c/Users/31740/Desktop/newcore/arch/arm_m/include/asm/spinlock.h ****      int flag; 
   8:/mnt/c/Users/31740/Desktop/newcore/arch/arm_m/include/asm/spinlock.h **** } arch_spinlock_t;
   9:/mnt/c/Users/31740/Desktop/newcore/arch/arm_m/include/asm/spinlock.h **** 
  10:/mnt/c/Users/31740/Desktop/newcore/arch/arm_m/include/asm/spinlock.h **** static int __spin_init(arch_spinlock_t *lock) 
  11:/mnt/c/Users/31740/Desktop/newcore/arch/arm_m/include/asm/spinlock.h **** {
  30              		.loc 2 11 1 view -0
  31              		.cfi_startproc
  32              		@ args = 0, pretend = 0, frame = 0
  33              		@ frame_needed = 0, uses_anonymous_args = 0
  34              		@ link register save eliminated.
  12:/mnt/c/Users/31740/Desktop/newcore/arch/arm_m/include/asm/spinlock.h ****     lock->flag = 0;
  35              		.loc 2 12 5 view .LVU1
  36              		.loc 2 12 16 is_stmt 0 view .LVU2
  37 0000 0023     		movs	r3, #0
  38 0002 0360     		str	r3, [r0]
  39              	.LVL1:
  13:/mnt/c/Users/31740/Desktop/newcore/arch/arm_m/include/asm/spinlock.h **** }
  40              		.loc 2 13 1 view .LVU3
  41 0004 7047     		bx	lr
  42              		.cfi_endproc
  43              	.LFE226:
  45              		.section	.text.__spin_unlock,"ax",%progbits
  46              		.align	1
ARM GAS  /tmp/ccnrTkjK.s 			page 2


  47              		.syntax unified
  48              		.thumb
  49              		.thumb_func
  51              	__spin_unlock:
  52              	.LVL2:
  53              	.LFB228:
  14:/mnt/c/Users/31740/Desktop/newcore/arch/arm_m/include/asm/spinlock.h **** 
  15:/mnt/c/Users/31740/Desktop/newcore/arch/arm_m/include/asm/spinlock.h **** static int __spin_lock(arch_spinlock_t *lock) {
  16:/mnt/c/Users/31740/Desktop/newcore/arch/arm_m/include/asm/spinlock.h **** 
  17:/mnt/c/Users/31740/Desktop/newcore/arch/arm_m/include/asm/spinlock.h ****     stop_all_scheduler();
  18:/mnt/c/Users/31740/Desktop/newcore/arch/arm_m/include/asm/spinlock.h ****     if(lock->flag == 0){
  19:/mnt/c/Users/31740/Desktop/newcore/arch/arm_m/include/asm/spinlock.h ****           lock->flag = 1;  
  20:/mnt/c/Users/31740/Desktop/newcore/arch/arm_m/include/asm/spinlock.h ****           start_all_scheduler();
  21:/mnt/c/Users/31740/Desktop/newcore/arch/arm_m/include/asm/spinlock.h ****         return 1;
  22:/mnt/c/Users/31740/Desktop/newcore/arch/arm_m/include/asm/spinlock.h ****     }
  23:/mnt/c/Users/31740/Desktop/newcore/arch/arm_m/include/asm/spinlock.h ****     else
  24:/mnt/c/Users/31740/Desktop/newcore/arch/arm_m/include/asm/spinlock.h ****     {
  25:/mnt/c/Users/31740/Desktop/newcore/arch/arm_m/include/asm/spinlock.h ****         start_all_scheduler();
  26:/mnt/c/Users/31740/Desktop/newcore/arch/arm_m/include/asm/spinlock.h ****         return 0;
  27:/mnt/c/Users/31740/Desktop/newcore/arch/arm_m/include/asm/spinlock.h ****     }
  28:/mnt/c/Users/31740/Desktop/newcore/arch/arm_m/include/asm/spinlock.h **** }
  29:/mnt/c/Users/31740/Desktop/newcore/arch/arm_m/include/asm/spinlock.h **** 
  30:/mnt/c/Users/31740/Desktop/newcore/arch/arm_m/include/asm/spinlock.h **** static void  __spin_unlock( arch_spinlock_t *lock ){
  54              		.loc 2 30 52 is_stmt 1 view -0
  55              		.cfi_startproc
  56              		@ args = 0, pretend = 0, frame = 0
  57              		@ frame_needed = 0, uses_anonymous_args = 0
  58              		@ link register save eliminated.
  31:/mnt/c/Users/31740/Desktop/newcore/arch/arm_m/include/asm/spinlock.h ****     lock->flag = 0;
  59              		.loc 2 31 5 view .LVU5
  60              		.loc 2 31 16 is_stmt 0 view .LVU6
  61 0000 0023     		movs	r3, #0
  62 0002 0360     		str	r3, [r0]
  32:/mnt/c/Users/31740/Desktop/newcore/arch/arm_m/include/asm/spinlock.h **** }
  63              		.loc 2 32 1 view .LVU7
  64 0004 7047     		bx	lr
  65              		.cfi_endproc
  66              	.LFE228:
  68              		.section	.text.spin_lock_init,"ax",%progbits
  69              		.align	1
  70              		.syntax unified
  71              		.thumb
  72              		.thumb_func
  74              	spin_lock_init:
  75              	.LVL3:
  76              	.LFB229:
  77              		.file 3 "/mnt/c/Users/31740/Desktop/newcore/include/linux/spinlock.h"
   1:/mnt/c/Users/31740/Desktop/newcore/include/linux/spinlock.h **** #ifndef __SPINLOCK_H__
   2:/mnt/c/Users/31740/Desktop/newcore/include/linux/spinlock.h **** #define __SPINLOCK_H__
   3:/mnt/c/Users/31740/Desktop/newcore/include/linux/spinlock.h **** 
   4:/mnt/c/Users/31740/Desktop/newcore/include/linux/spinlock.h **** #include <linux/types.h>
   5:/mnt/c/Users/31740/Desktop/newcore/include/linux/spinlock.h **** #include <linux/spinlock_types.h>
   6:/mnt/c/Users/31740/Desktop/newcore/include/linux/spinlock.h **** #include <linux/sched.h>
   7:/mnt/c/Users/31740/Desktop/newcore/include/linux/spinlock.h **** 
   8:/mnt/c/Users/31740/Desktop/newcore/include/linux/spinlock.h **** 
   9:/mnt/c/Users/31740/Desktop/newcore/include/linux/spinlock.h **** 
  10:/mnt/c/Users/31740/Desktop/newcore/include/linux/spinlock.h **** static void spin_lock_init(spinlock_t* lock){
ARM GAS  /tmp/ccnrTkjK.s 			page 3


  78              		.loc 3 10 45 is_stmt 1 view -0
  79              		.cfi_startproc
  80              		@ args = 0, pretend = 0, frame = 0
  81              		@ frame_needed = 0, uses_anonymous_args = 0
  82              		.loc 3 10 45 is_stmt 0 view .LVU9
  83 0000 08B5     		push	{r3, lr}
  84              	.LCFI0:
  85              		.cfi_def_cfa_offset 8
  86              		.cfi_offset 3, -8
  87              		.cfi_offset 14, -4
  11:/mnt/c/Users/31740/Desktop/newcore/include/linux/spinlock.h ****     __spin_init(&lock->rlock.raw_lock);
  88              		.loc 3 11 5 is_stmt 1 view .LVU10
  89 0002 FFF7FEFF 		bl	__spin_init
  90              	.LVL4:
  12:/mnt/c/Users/31740/Desktop/newcore/include/linux/spinlock.h **** }
  91              		.loc 3 12 1 is_stmt 0 view .LVU11
  92 0006 08BD     		pop	{r3, pc}
  93              		.cfi_endproc
  94              	.LFE229:
  96              		.section	.text.spin_unlock,"ax",%progbits
  97              		.align	1
  98              		.syntax unified
  99              		.thumb
 100              		.thumb_func
 102              	spin_unlock:
 103              	.LVL5:
 104              	.LFB231:
  13:/mnt/c/Users/31740/Desktop/newcore/include/linux/spinlock.h **** 
  14:/mnt/c/Users/31740/Desktop/newcore/include/linux/spinlock.h **** static void spin_lock(spinlock_t* lock)
  15:/mnt/c/Users/31740/Desktop/newcore/include/linux/spinlock.h **** {  
  16:/mnt/c/Users/31740/Desktop/newcore/include/linux/spinlock.h ****     while (1)
  17:/mnt/c/Users/31740/Desktop/newcore/include/linux/spinlock.h ****     {
  18:/mnt/c/Users/31740/Desktop/newcore/include/linux/spinlock.h ****         if(__spin_lock(&lock->rlock.raw_lock) == 1){
  19:/mnt/c/Users/31740/Desktop/newcore/include/linux/spinlock.h ****             lock->owner = get_current_task();
  20:/mnt/c/Users/31740/Desktop/newcore/include/linux/spinlock.h ****             break;
  21:/mnt/c/Users/31740/Desktop/newcore/include/linux/spinlock.h ****         }
  22:/mnt/c/Users/31740/Desktop/newcore/include/linux/spinlock.h ****         else  if(lock->owner == get_current_task()){  //å¦‚æžœå·²ç»è¢«é”ä½ä½†æ˜¯é”æ˜¯è‡ªå·±çš„ï
  23:/mnt/c/Users/31740/Desktop/newcore/include/linux/spinlock.h ****             return;   
  24:/mnt/c/Users/31740/Desktop/newcore/include/linux/spinlock.h ****         }
  25:/mnt/c/Users/31740/Desktop/newcore/include/linux/spinlock.h ****         else{
  26:/mnt/c/Users/31740/Desktop/newcore/include/linux/spinlock.h ****             __delay(5); //ä¸»åŠ¨è®©å‡ºæ—¶é—´ç‰‡
  27:/mnt/c/Users/31740/Desktop/newcore/include/linux/spinlock.h ****         }
  28:/mnt/c/Users/31740/Desktop/newcore/include/linux/spinlock.h ****     }
  29:/mnt/c/Users/31740/Desktop/newcore/include/linux/spinlock.h **** }
  30:/mnt/c/Users/31740/Desktop/newcore/include/linux/spinlock.h **** 
  31:/mnt/c/Users/31740/Desktop/newcore/include/linux/spinlock.h **** static void spin_unlock(spinlock_t* lock)
  32:/mnt/c/Users/31740/Desktop/newcore/include/linux/spinlock.h **** {
 105              		.loc 3 32 1 is_stmt 1 view -0
 106              		.cfi_startproc
 107              		@ args = 0, pretend = 0, frame = 0
 108              		@ frame_needed = 0, uses_anonymous_args = 0
 109              		.loc 3 32 1 is_stmt 0 view .LVU13
 110 0000 08B5     		push	{r3, lr}
 111              	.LCFI1:
 112              		.cfi_def_cfa_offset 8
 113              		.cfi_offset 3, -8
 114              		.cfi_offset 14, -4
ARM GAS  /tmp/ccnrTkjK.s 			page 4


  33:/mnt/c/Users/31740/Desktop/newcore/include/linux/spinlock.h ****     __spin_unlock(&lock->rlock.raw_lock);
 115              		.loc 3 33 5 is_stmt 1 view .LVU14
 116 0002 FFF7FEFF 		bl	__spin_unlock
 117              	.LVL6:
  34:/mnt/c/Users/31740/Desktop/newcore/include/linux/spinlock.h **** }
 118              		.loc 3 34 1 is_stmt 0 view .LVU15
 119 0006 08BD     		pop	{r3, pc}
 120              		.cfi_endproc
 121              	.LFE231:
 123              		.section	.text.request_queue_add,"ax",%progbits
 124              		.align	1
 125              		.global	request_queue_add
 126              		.syntax unified
 127              		.thumb
 128              		.thumb_func
 130              	request_queue_add:
 131              	.LVL7:
 132              	.LFB1035:
   1:/mnt/c/Users/31740/Desktop/newcore/block/request_queue.c **** #include <linux/kernel.h>
   2:/mnt/c/Users/31740/Desktop/newcore/block/request_queue.c **** #include <linux/types.h>
   3:/mnt/c/Users/31740/Desktop/newcore/block/request_queue.c **** #include <linux/blkdev.h>
   4:/mnt/c/Users/31740/Desktop/newcore/block/request_queue.c **** #include <linux/list.h>
   5:/mnt/c/Users/31740/Desktop/newcore/block/request_queue.c **** 
   6:/mnt/c/Users/31740/Desktop/newcore/block/request_queue.c **** 
   7:/mnt/c/Users/31740/Desktop/newcore/block/request_queue.c **** 
   8:/mnt/c/Users/31740/Desktop/newcore/block/request_queue.c **** struct request_queue *request_queue_init(int id, struct gendisk *gd,gfp_t flags)
   9:/mnt/c/Users/31740/Desktop/newcore/block/request_queue.c **** {
  10:/mnt/c/Users/31740/Desktop/newcore/block/request_queue.c ****     struct request_queue *q;
  11:/mnt/c/Users/31740/Desktop/newcore/block/request_queue.c **** 
  12:/mnt/c/Users/31740/Desktop/newcore/block/request_queue.c ****     q = kmalloc(sizeof(*q), GFP_KERNEL);  // åˆ†é…å†…å­˜
  13:/mnt/c/Users/31740/Desktop/newcore/block/request_queue.c ****     if (!q)
  14:/mnt/c/Users/31740/Desktop/newcore/block/request_queue.c ****         return NULL;
  15:/mnt/c/Users/31740/Desktop/newcore/block/request_queue.c ****     q->queuedata = NULL;               // åˆå§‹åŒ–ä¸º NULLï¼ŒåŽæœŸå¯åˆ†é…æ•°æ®
  16:/mnt/c/Users/31740/Desktop/newcore/block/request_queue.c ****     q->last_merge = NULL;              // æ— åˆå¹¶è¯·æ±‚
  17:/mnt/c/Users/31740/Desktop/newcore/block/request_queue.c ****     spin_lock_init(&q->queue_lock);    // åˆå§‹åŒ–è‡ªæ—‹é”
  18:/mnt/c/Users/31740/Desktop/newcore/block/request_queue.c ****     q->quiesce_depth = 0;              // åˆå§‹é™æ­¢æ·±åº¦ä¸º 0
  19:/mnt/c/Users/31740/Desktop/newcore/block/request_queue.c ****     q->disk = gd;                      // å…³è”çš„ç£ç›˜è®¾å¤‡
  20:/mnt/c/Users/31740/Desktop/newcore/block/request_queue.c ****     q->limits.max_sectors = 128;       // å‡è®¾é˜Ÿåˆ—çš„æœ€å¤§æ‰‡åŒºæ•°ä¸º 128
  21:/mnt/c/Users/31740/Desktop/newcore/block/request_queue.c ****     q->limits.max_segment_size = 32;   // å‡è®¾æœ€å¤§æ®µæ•°ä¸º 32
  22:/mnt/c/Users/31740/Desktop/newcore/block/request_queue.c ****     q->id = id;                        // é˜Ÿåˆ—çš„å”¯ä¸€æ ‡è¯†ç¬¦
  23:/mnt/c/Users/31740/Desktop/newcore/block/request_queue.c ****     q->nr_requests = 1000;             // é˜Ÿåˆ—æ”¯æŒçš„æœ€å¤§è¯·æ±‚æ•°
  24:/mnt/c/Users/31740/Desktop/newcore/block/request_queue.c ****     INIT_LIST_HEAD(&q->icq_list);      // åˆå§‹åŒ–é“¾è¡¨å¤´
  25:/mnt/c/Users/31740/Desktop/newcore/block/request_queue.c ****     q->node = 0;                       // é»˜è®¤ NUMA èŠ‚ç‚¹ä¸º 0
  26:/mnt/c/Users/31740/Desktop/newcore/block/request_queue.c ****     return q;
  27:/mnt/c/Users/31740/Desktop/newcore/block/request_queue.c **** }
  28:/mnt/c/Users/31740/Desktop/newcore/block/request_queue.c **** EXPORT_SYMBOL(request_queue_init);
  29:/mnt/c/Users/31740/Desktop/newcore/block/request_queue.c **** 
  30:/mnt/c/Users/31740/Desktop/newcore/block/request_queue.c **** void __blk_cleanup_queue(struct request_queue *q){
  31:/mnt/c/Users/31740/Desktop/newcore/block/request_queue.c ****     if(q) kfree(q);
  32:/mnt/c/Users/31740/Desktop/newcore/block/request_queue.c **** }
  33:/mnt/c/Users/31740/Desktop/newcore/block/request_queue.c ****  
  34:/mnt/c/Users/31740/Desktop/newcore/block/request_queue.c **** void request_queue_add(struct request_queue *q, struct request *req)
  35:/mnt/c/Users/31740/Desktop/newcore/block/request_queue.c **** {
 133              		.loc 1 35 1 is_stmt 1 view -0
 134              		.cfi_startproc
 135              		@ args = 0, pretend = 0, frame = 0
 136              		@ frame_needed = 0, uses_anonymous_args = 0
ARM GAS  /tmp/ccnrTkjK.s 			page 5


 137              		@ link register save eliminated.
 138              		.loc 1 35 1 is_stmt 0 view .LVU17
 139 0000 10B4     		push	{r4}
 140              	.LCFI2:
 141              		.cfi_def_cfa_offset 4
 142              		.cfi_offset 4, -4
  36:/mnt/c/Users/31740/Desktop/newcore/block/request_queue.c ****     list_add_tail(&req->queuelist, &q->icq_list);  // å°†è¯·æ±‚æ·»åŠ åˆ°é˜Ÿåˆ—æœ«å°¾
 143              		.loc 1 36 5 is_stmt 1 view .LVU18
 144 0002 01F12802 		add	r2, r1, #40
 145 0006 00F1CC04 		add	r4, r0, #204
 146              	.LVL8:
 147              	.LBB96:
 148              	.LBI96:
 149              		.file 4 "/mnt/c/Users/31740/Desktop/newcore/include/linux/list.h"
   1:/mnt/c/Users/31740/Desktop/newcore/include/linux/list.h **** /* SPDX-License-Identifier: GPL-2.0 */
   2:/mnt/c/Users/31740/Desktop/newcore/include/linux/list.h **** #ifndef _LINUX_LIST_H
   3:/mnt/c/Users/31740/Desktop/newcore/include/linux/list.h **** #define _LINUX_LIST_H
   4:/mnt/c/Users/31740/Desktop/newcore/include/linux/list.h **** 
   5:/mnt/c/Users/31740/Desktop/newcore/include/linux/list.h **** #include <linux/container_of.h>
   6:/mnt/c/Users/31740/Desktop/newcore/include/linux/list.h **** #include <linux/types.h>
   7:/mnt/c/Users/31740/Desktop/newcore/include/linux/list.h **** #include <linux/stddef.h>
   8:/mnt/c/Users/31740/Desktop/newcore/include/linux/list.h **** #include <linux/poison.h>
   9:/mnt/c/Users/31740/Desktop/newcore/include/linux/list.h **** #include <linux/const.h>
  10:/mnt/c/Users/31740/Desktop/newcore/include/linux/list.h **** 
  11:/mnt/c/Users/31740/Desktop/newcore/include/linux/list.h **** #include <asm/barrier.h>
  12:/mnt/c/Users/31740/Desktop/newcore/include/linux/list.h **** #include <linux/rwonce.h>
  13:/mnt/c/Users/31740/Desktop/newcore/include/linux/list.h **** /*
  14:/mnt/c/Users/31740/Desktop/newcore/include/linux/list.h ****  * Circular doubly linked list implementation.
  15:/mnt/c/Users/31740/Desktop/newcore/include/linux/list.h ****  *
  16:/mnt/c/Users/31740/Desktop/newcore/include/linux/list.h ****  * Some of the internal functions ("__xxx") are useful when
  17:/mnt/c/Users/31740/Desktop/newcore/include/linux/list.h ****  * manipulating whole lists rather than single entries, as
  18:/mnt/c/Users/31740/Desktop/newcore/include/linux/list.h ****  * sometimes we already know the next/prev entries and we can
  19:/mnt/c/Users/31740/Desktop/newcore/include/linux/list.h ****  * generate better code by using them directly rather than
  20:/mnt/c/Users/31740/Desktop/newcore/include/linux/list.h ****  * using the generic single-entry routines.
  21:/mnt/c/Users/31740/Desktop/newcore/include/linux/list.h ****  */
  22:/mnt/c/Users/31740/Desktop/newcore/include/linux/list.h **** 
  23:/mnt/c/Users/31740/Desktop/newcore/include/linux/list.h **** #define LIST_HEAD_INIT(name) { &(name), &(name) }
  24:/mnt/c/Users/31740/Desktop/newcore/include/linux/list.h **** 
  25:/mnt/c/Users/31740/Desktop/newcore/include/linux/list.h **** #define LIST_HEAD(name) \
  26:/mnt/c/Users/31740/Desktop/newcore/include/linux/list.h **** 	struct list_head name = LIST_HEAD_INIT(name)
  27:/mnt/c/Users/31740/Desktop/newcore/include/linux/list.h **** 
  28:/mnt/c/Users/31740/Desktop/newcore/include/linux/list.h **** /**
  29:/mnt/c/Users/31740/Desktop/newcore/include/linux/list.h ****  * INIT_LIST_HEAD - Initialize a list_head structure
  30:/mnt/c/Users/31740/Desktop/newcore/include/linux/list.h ****  * @list: list_head structure to be initialized.
  31:/mnt/c/Users/31740/Desktop/newcore/include/linux/list.h ****  *
  32:/mnt/c/Users/31740/Desktop/newcore/include/linux/list.h ****  * Initializes the list_head to point to itself.  If it is a list header,
  33:/mnt/c/Users/31740/Desktop/newcore/include/linux/list.h ****  * the result is an empty list.
  34:/mnt/c/Users/31740/Desktop/newcore/include/linux/list.h ****  */
  35:/mnt/c/Users/31740/Desktop/newcore/include/linux/list.h **** static inline void INIT_LIST_HEAD(struct list_head *list)
  36:/mnt/c/Users/31740/Desktop/newcore/include/linux/list.h **** {
  37:/mnt/c/Users/31740/Desktop/newcore/include/linux/list.h **** 	WRITE_ONCE(list->next, list);
  38:/mnt/c/Users/31740/Desktop/newcore/include/linux/list.h **** 	WRITE_ONCE(list->prev, list);
  39:/mnt/c/Users/31740/Desktop/newcore/include/linux/list.h **** }
  40:/mnt/c/Users/31740/Desktop/newcore/include/linux/list.h **** 
  41:/mnt/c/Users/31740/Desktop/newcore/include/linux/list.h **** #ifdef CONFIG_LIST_HARDENED
  42:/mnt/c/Users/31740/Desktop/newcore/include/linux/list.h **** 
  43:/mnt/c/Users/31740/Desktop/newcore/include/linux/list.h **** #ifdef CONFIG_DEBUG_LIST
ARM GAS  /tmp/ccnrTkjK.s 			page 6


  44:/mnt/c/Users/31740/Desktop/newcore/include/linux/list.h **** # define __list_valid_slowpath
  45:/mnt/c/Users/31740/Desktop/newcore/include/linux/list.h **** #else
  46:/mnt/c/Users/31740/Desktop/newcore/include/linux/list.h **** # define __list_valid_slowpath __cold __preserve_most
  47:/mnt/c/Users/31740/Desktop/newcore/include/linux/list.h **** #endif
  48:/mnt/c/Users/31740/Desktop/newcore/include/linux/list.h **** 
  49:/mnt/c/Users/31740/Desktop/newcore/include/linux/list.h **** /*
  50:/mnt/c/Users/31740/Desktop/newcore/include/linux/list.h ****  * Performs the full set of list corruption checks before __list_add().
  51:/mnt/c/Users/31740/Desktop/newcore/include/linux/list.h ****  * On list corruption reports a warning, and returns false.
  52:/mnt/c/Users/31740/Desktop/newcore/include/linux/list.h ****  */
  53:/mnt/c/Users/31740/Desktop/newcore/include/linux/list.h **** extern bool __list_valid_slowpath __list_add_valid_or_report(struct list_head *new,
  54:/mnt/c/Users/31740/Desktop/newcore/include/linux/list.h **** 							     struct list_head *prev,
  55:/mnt/c/Users/31740/Desktop/newcore/include/linux/list.h **** 							     struct list_head *next);
  56:/mnt/c/Users/31740/Desktop/newcore/include/linux/list.h **** 
  57:/mnt/c/Users/31740/Desktop/newcore/include/linux/list.h **** /*
  58:/mnt/c/Users/31740/Desktop/newcore/include/linux/list.h ****  * Performs list corruption checks before __list_add(). Returns false if a
  59:/mnt/c/Users/31740/Desktop/newcore/include/linux/list.h ****  * corruption is detected, true otherwise.
  60:/mnt/c/Users/31740/Desktop/newcore/include/linux/list.h ****  *
  61:/mnt/c/Users/31740/Desktop/newcore/include/linux/list.h ****  * With CONFIG_LIST_HARDENED only, performs minimal list integrity checking
  62:/mnt/c/Users/31740/Desktop/newcore/include/linux/list.h ****  * inline to catch non-faulting corruptions, and only if a corruption is
  63:/mnt/c/Users/31740/Desktop/newcore/include/linux/list.h ****  * detected calls the reporting function __list_add_valid_or_report().
  64:/mnt/c/Users/31740/Desktop/newcore/include/linux/list.h ****  */
  65:/mnt/c/Users/31740/Desktop/newcore/include/linux/list.h **** static __always_inline bool __list_add_valid(struct list_head *new,
  66:/mnt/c/Users/31740/Desktop/newcore/include/linux/list.h **** 					     struct list_head *prev,
  67:/mnt/c/Users/31740/Desktop/newcore/include/linux/list.h **** 					     struct list_head *next)
  68:/mnt/c/Users/31740/Desktop/newcore/include/linux/list.h **** {
  69:/mnt/c/Users/31740/Desktop/newcore/include/linux/list.h **** 	bool ret = true;
  70:/mnt/c/Users/31740/Desktop/newcore/include/linux/list.h **** 
  71:/mnt/c/Users/31740/Desktop/newcore/include/linux/list.h **** 	if (!IS_ENABLED(CONFIG_DEBUG_LIST)) {
  72:/mnt/c/Users/31740/Desktop/newcore/include/linux/list.h **** 		/*
  73:/mnt/c/Users/31740/Desktop/newcore/include/linux/list.h **** 		 * With the hardening version, elide checking if next and prev
  74:/mnt/c/Users/31740/Desktop/newcore/include/linux/list.h **** 		 * are NULL, since the immediate dereference of them below would
  75:/mnt/c/Users/31740/Desktop/newcore/include/linux/list.h **** 		 * result in a fault if NULL.
  76:/mnt/c/Users/31740/Desktop/newcore/include/linux/list.h **** 		 *
  77:/mnt/c/Users/31740/Desktop/newcore/include/linux/list.h **** 		 * With the reduced set of checks, we can afford to inline the
  78:/mnt/c/Users/31740/Desktop/newcore/include/linux/list.h **** 		 * checks, which also gives the compiler a chance to elide some
  79:/mnt/c/Users/31740/Desktop/newcore/include/linux/list.h **** 		 * of them completely if they can be proven at compile-time. If
  80:/mnt/c/Users/31740/Desktop/newcore/include/linux/list.h **** 		 * one of the pre-conditions does not hold, the slow-path will
  81:/mnt/c/Users/31740/Desktop/newcore/include/linux/list.h **** 		 * show a report which pre-condition failed.
  82:/mnt/c/Users/31740/Desktop/newcore/include/linux/list.h **** 		 */
  83:/mnt/c/Users/31740/Desktop/newcore/include/linux/list.h **** 		if (likely(next->prev == prev && prev->next == next && new != prev && new != next))
  84:/mnt/c/Users/31740/Desktop/newcore/include/linux/list.h **** 			return true;
  85:/mnt/c/Users/31740/Desktop/newcore/include/linux/list.h **** 		ret = false;
  86:/mnt/c/Users/31740/Desktop/newcore/include/linux/list.h **** 	}
  87:/mnt/c/Users/31740/Desktop/newcore/include/linux/list.h **** 
  88:/mnt/c/Users/31740/Desktop/newcore/include/linux/list.h **** 	ret &= __list_add_valid_or_report(new, prev, next);
  89:/mnt/c/Users/31740/Desktop/newcore/include/linux/list.h **** 	return ret;
  90:/mnt/c/Users/31740/Desktop/newcore/include/linux/list.h **** }
  91:/mnt/c/Users/31740/Desktop/newcore/include/linux/list.h **** 
  92:/mnt/c/Users/31740/Desktop/newcore/include/linux/list.h **** /*
  93:/mnt/c/Users/31740/Desktop/newcore/include/linux/list.h ****  * Performs the full set of list corruption checks before __list_del_entry().
  94:/mnt/c/Users/31740/Desktop/newcore/include/linux/list.h ****  * On list corruption reports a warning, and returns false.
  95:/mnt/c/Users/31740/Desktop/newcore/include/linux/list.h ****  */
  96:/mnt/c/Users/31740/Desktop/newcore/include/linux/list.h **** extern bool __list_valid_slowpath __list_del_entry_valid_or_report(struct list_head *entry);
  97:/mnt/c/Users/31740/Desktop/newcore/include/linux/list.h **** 
  98:/mnt/c/Users/31740/Desktop/newcore/include/linux/list.h **** /*
  99:/mnt/c/Users/31740/Desktop/newcore/include/linux/list.h ****  * Performs list corruption checks before __list_del_entry(). Returns false if a
 100:/mnt/c/Users/31740/Desktop/newcore/include/linux/list.h ****  * corruption is detected, true otherwise.
ARM GAS  /tmp/ccnrTkjK.s 			page 7


 101:/mnt/c/Users/31740/Desktop/newcore/include/linux/list.h ****  *
 102:/mnt/c/Users/31740/Desktop/newcore/include/linux/list.h ****  * With CONFIG_LIST_HARDENED only, performs minimal list integrity checking
 103:/mnt/c/Users/31740/Desktop/newcore/include/linux/list.h ****  * inline to catch non-faulting corruptions, and only if a corruption is
 104:/mnt/c/Users/31740/Desktop/newcore/include/linux/list.h ****  * detected calls the reporting function __list_del_entry_valid_or_report().
 105:/mnt/c/Users/31740/Desktop/newcore/include/linux/list.h ****  */
 106:/mnt/c/Users/31740/Desktop/newcore/include/linux/list.h **** static __always_inline bool __list_del_entry_valid(struct list_head *entry)
 107:/mnt/c/Users/31740/Desktop/newcore/include/linux/list.h **** {
 108:/mnt/c/Users/31740/Desktop/newcore/include/linux/list.h **** 	bool ret = true;
 109:/mnt/c/Users/31740/Desktop/newcore/include/linux/list.h **** 
 110:/mnt/c/Users/31740/Desktop/newcore/include/linux/list.h **** 	if (!IS_ENABLED(CONFIG_DEBUG_LIST)) {
 111:/mnt/c/Users/31740/Desktop/newcore/include/linux/list.h **** 		struct list_head *prev = entry->prev;
 112:/mnt/c/Users/31740/Desktop/newcore/include/linux/list.h **** 		struct list_head *next = entry->next;
 113:/mnt/c/Users/31740/Desktop/newcore/include/linux/list.h **** 
 114:/mnt/c/Users/31740/Desktop/newcore/include/linux/list.h **** 		/*
 115:/mnt/c/Users/31740/Desktop/newcore/include/linux/list.h **** 		 * With the hardening version, elide checking if next and prev
 116:/mnt/c/Users/31740/Desktop/newcore/include/linux/list.h **** 		 * are NULL, LIST_POISON1 or LIST_POISON2, since the immediate
 117:/mnt/c/Users/31740/Desktop/newcore/include/linux/list.h **** 		 * dereference of them below would result in a fault.
 118:/mnt/c/Users/31740/Desktop/newcore/include/linux/list.h **** 		 */
 119:/mnt/c/Users/31740/Desktop/newcore/include/linux/list.h **** 		if (likely(prev->next == entry && next->prev == entry))
 120:/mnt/c/Users/31740/Desktop/newcore/include/linux/list.h **** 			return true;
 121:/mnt/c/Users/31740/Desktop/newcore/include/linux/list.h **** 		ret = false;
 122:/mnt/c/Users/31740/Desktop/newcore/include/linux/list.h **** 	}
 123:/mnt/c/Users/31740/Desktop/newcore/include/linux/list.h **** 
 124:/mnt/c/Users/31740/Desktop/newcore/include/linux/list.h **** 	ret &= __list_del_entry_valid_or_report(entry);
 125:/mnt/c/Users/31740/Desktop/newcore/include/linux/list.h **** 	return ret;
 126:/mnt/c/Users/31740/Desktop/newcore/include/linux/list.h **** }
 127:/mnt/c/Users/31740/Desktop/newcore/include/linux/list.h **** #else
 128:/mnt/c/Users/31740/Desktop/newcore/include/linux/list.h **** static inline bool __list_add_valid(struct list_head *new,
 129:/mnt/c/Users/31740/Desktop/newcore/include/linux/list.h **** 				struct list_head *prev,
 130:/mnt/c/Users/31740/Desktop/newcore/include/linux/list.h **** 				struct list_head *next)
 131:/mnt/c/Users/31740/Desktop/newcore/include/linux/list.h **** {
 132:/mnt/c/Users/31740/Desktop/newcore/include/linux/list.h **** 	return true;
 133:/mnt/c/Users/31740/Desktop/newcore/include/linux/list.h **** }
 134:/mnt/c/Users/31740/Desktop/newcore/include/linux/list.h **** static inline bool __list_del_entry_valid(struct list_head *entry)
 135:/mnt/c/Users/31740/Desktop/newcore/include/linux/list.h **** {
 136:/mnt/c/Users/31740/Desktop/newcore/include/linux/list.h **** 	return true;
 137:/mnt/c/Users/31740/Desktop/newcore/include/linux/list.h **** }
 138:/mnt/c/Users/31740/Desktop/newcore/include/linux/list.h **** #endif
 139:/mnt/c/Users/31740/Desktop/newcore/include/linux/list.h **** 
 140:/mnt/c/Users/31740/Desktop/newcore/include/linux/list.h **** /*
 141:/mnt/c/Users/31740/Desktop/newcore/include/linux/list.h ****  * Insert a new entry between two known consecutive entries.
 142:/mnt/c/Users/31740/Desktop/newcore/include/linux/list.h ****  *
 143:/mnt/c/Users/31740/Desktop/newcore/include/linux/list.h ****  * This is only for internal list manipulation where we know
 144:/mnt/c/Users/31740/Desktop/newcore/include/linux/list.h ****  * the prev/next entries already!
 145:/mnt/c/Users/31740/Desktop/newcore/include/linux/list.h ****  */
 146:/mnt/c/Users/31740/Desktop/newcore/include/linux/list.h **** static inline void __list_add(struct list_head *new,
 147:/mnt/c/Users/31740/Desktop/newcore/include/linux/list.h **** 			      struct list_head *prev,
 148:/mnt/c/Users/31740/Desktop/newcore/include/linux/list.h **** 			      struct list_head *next)
 149:/mnt/c/Users/31740/Desktop/newcore/include/linux/list.h **** {
 150:/mnt/c/Users/31740/Desktop/newcore/include/linux/list.h **** 	if (!__list_add_valid(new, prev, next))
 151:/mnt/c/Users/31740/Desktop/newcore/include/linux/list.h **** 		return;
 152:/mnt/c/Users/31740/Desktop/newcore/include/linux/list.h **** 
 153:/mnt/c/Users/31740/Desktop/newcore/include/linux/list.h **** 	next->prev = new;
 154:/mnt/c/Users/31740/Desktop/newcore/include/linux/list.h **** 	new->next = next;
 155:/mnt/c/Users/31740/Desktop/newcore/include/linux/list.h **** 	new->prev = prev;
 156:/mnt/c/Users/31740/Desktop/newcore/include/linux/list.h **** 	WRITE_ONCE(prev->next, new);
 157:/mnt/c/Users/31740/Desktop/newcore/include/linux/list.h **** }
ARM GAS  /tmp/ccnrTkjK.s 			page 8


 158:/mnt/c/Users/31740/Desktop/newcore/include/linux/list.h **** 
 159:/mnt/c/Users/31740/Desktop/newcore/include/linux/list.h **** /**
 160:/mnt/c/Users/31740/Desktop/newcore/include/linux/list.h ****  * list_add - add a new entry
 161:/mnt/c/Users/31740/Desktop/newcore/include/linux/list.h ****  * @new: new entry to be added
 162:/mnt/c/Users/31740/Desktop/newcore/include/linux/list.h ****  * @head: list head to add it after
 163:/mnt/c/Users/31740/Desktop/newcore/include/linux/list.h ****  *
 164:/mnt/c/Users/31740/Desktop/newcore/include/linux/list.h ****  * Insert a new entry after the specified head.
 165:/mnt/c/Users/31740/Desktop/newcore/include/linux/list.h ****  * This is good for implementing stacks.
 166:/mnt/c/Users/31740/Desktop/newcore/include/linux/list.h ****  */
 167:/mnt/c/Users/31740/Desktop/newcore/include/linux/list.h **** static inline void list_add(struct list_head *new, struct list_head *head)
 168:/mnt/c/Users/31740/Desktop/newcore/include/linux/list.h **** {
 169:/mnt/c/Users/31740/Desktop/newcore/include/linux/list.h **** 	__list_add(new, head, head->next);
 170:/mnt/c/Users/31740/Desktop/newcore/include/linux/list.h **** }
 171:/mnt/c/Users/31740/Desktop/newcore/include/linux/list.h **** 
 172:/mnt/c/Users/31740/Desktop/newcore/include/linux/list.h **** 
 173:/mnt/c/Users/31740/Desktop/newcore/include/linux/list.h **** /**
 174:/mnt/c/Users/31740/Desktop/newcore/include/linux/list.h ****  * list_add_tail - add a new entry
 175:/mnt/c/Users/31740/Desktop/newcore/include/linux/list.h ****  * @new: new entry to be added
 176:/mnt/c/Users/31740/Desktop/newcore/include/linux/list.h ****  * @head: list head to add it before
 177:/mnt/c/Users/31740/Desktop/newcore/include/linux/list.h ****  *
 178:/mnt/c/Users/31740/Desktop/newcore/include/linux/list.h ****  * Insert a new entry before the specified head.
 179:/mnt/c/Users/31740/Desktop/newcore/include/linux/list.h ****  * This is useful for implementing queues.
 180:/mnt/c/Users/31740/Desktop/newcore/include/linux/list.h ****  */
 181:/mnt/c/Users/31740/Desktop/newcore/include/linux/list.h **** static inline void list_add_tail(struct list_head *new, struct list_head *head)
 150              		.loc 4 181 20 view .LVU19
 151              	.LBB97:
 182:/mnt/c/Users/31740/Desktop/newcore/include/linux/list.h **** {
 183:/mnt/c/Users/31740/Desktop/newcore/include/linux/list.h **** 	__list_add(new, head->prev, head);
 152              		.loc 4 183 2 view .LVU20
 153 000a D0F8D030 		ldr	r3, [r0, #208]
 154              	.LVL9:
 155              	.LBB98:
 156              	.LBI98:
 146:/mnt/c/Users/31740/Desktop/newcore/include/linux/list.h **** 			      struct list_head *prev,
 157              		.loc 4 146 20 view .LVU21
 158              	.LBB99:
 150:/mnt/c/Users/31740/Desktop/newcore/include/linux/list.h **** 		return;
 159              		.loc 4 150 2 view .LVU22
 153:/mnt/c/Users/31740/Desktop/newcore/include/linux/list.h **** 	new->next = next;
 160              		.loc 4 153 2 view .LVU23
 153:/mnt/c/Users/31740/Desktop/newcore/include/linux/list.h **** 	new->next = next;
 161              		.loc 4 153 13 is_stmt 0 view .LVU24
 162 000e C0F8D020 		str	r2, [r0, #208]
 154:/mnt/c/Users/31740/Desktop/newcore/include/linux/list.h **** 	new->prev = prev;
 163              		.loc 4 154 2 is_stmt 1 view .LVU25
 154:/mnt/c/Users/31740/Desktop/newcore/include/linux/list.h **** 	new->prev = prev;
 164              		.loc 4 154 12 is_stmt 0 view .LVU26
 165 0012 8C62     		str	r4, [r1, #40]
 155:/mnt/c/Users/31740/Desktop/newcore/include/linux/list.h **** 	WRITE_ONCE(prev->next, new);
 166              		.loc 4 155 2 is_stmt 1 view .LVU27
 155:/mnt/c/Users/31740/Desktop/newcore/include/linux/list.h **** 	WRITE_ONCE(prev->next, new);
 167              		.loc 4 155 12 is_stmt 0 view .LVU28
 168 0014 CB62     		str	r3, [r1, #44]
 156:/mnt/c/Users/31740/Desktop/newcore/include/linux/list.h **** }
 169              		.loc 4 156 2 is_stmt 1 view .LVU29
 156:/mnt/c/Users/31740/Desktop/newcore/include/linux/list.h **** }
 170              		.loc 4 156 2 view .LVU30
ARM GAS  /tmp/ccnrTkjK.s 			page 9


 171              	.LBB100:
 156:/mnt/c/Users/31740/Desktop/newcore/include/linux/list.h **** }
 172              		.loc 4 156 2 view .LVU31
 156:/mnt/c/Users/31740/Desktop/newcore/include/linux/list.h **** }
 173              		.loc 4 156 2 view .LVU32
 174              	.LBE100:
 156:/mnt/c/Users/31740/Desktop/newcore/include/linux/list.h **** }
 175              		.loc 4 156 2 discriminator 2 view .LVU33
 156:/mnt/c/Users/31740/Desktop/newcore/include/linux/list.h **** }
 176              		.loc 4 156 2 discriminator 2 view .LVU34
 156:/mnt/c/Users/31740/Desktop/newcore/include/linux/list.h **** }
 177              		.loc 4 156 2 discriminator 2 view .LVU35
 178 0016 1A60     		str	r2, [r3]
 156:/mnt/c/Users/31740/Desktop/newcore/include/linux/list.h **** }
 179              		.loc 4 156 2 discriminator 3 view .LVU36
 156:/mnt/c/Users/31740/Desktop/newcore/include/linux/list.h **** }
 180              		.loc 4 156 2 discriminator 3 view .LVU37
 181              	.LVL10:
 156:/mnt/c/Users/31740/Desktop/newcore/include/linux/list.h **** }
 182              		.loc 4 156 2 is_stmt 0 discriminator 3 view .LVU38
 183              	.LBE99:
 184              	.LBE98:
 185              	.LBE97:
 186              	.LBE96:
  37:/mnt/c/Users/31740/Desktop/newcore/block/request_queue.c **** }
 187              		.loc 1 37 1 view .LVU39
 188 0018 5DF8044B 		ldr	r4, [sp], #4
 189              	.LCFI3:
 190              		.cfi_restore 4
 191              		.cfi_def_cfa_offset 0
 192 001c 7047     		bx	lr
 193              		.cfi_endproc
 194              	.LFE1035:
 196              		.section	.text.request_queue_init,"ax",%progbits
 197              		.align	1
 198              		.global	request_queue_init
 199              		.syntax unified
 200              		.thumb
 201              		.thumb_func
 203              	request_queue_init:
 204              	.LVL11:
 205              	.LFB1033:
   9:/mnt/c/Users/31740/Desktop/newcore/block/request_queue.c ****     struct request_queue *q;
 206              		.loc 1 9 1 is_stmt 1 view -0
 207              		.cfi_startproc
 208              		@ args = 0, pretend = 0, frame = 0
 209              		@ frame_needed = 0, uses_anonymous_args = 0
   9:/mnt/c/Users/31740/Desktop/newcore/block/request_queue.c ****     struct request_queue *q;
 210              		.loc 1 9 1 is_stmt 0 view .LVU41
 211 0000 F8B5     		push	{r3, r4, r5, r6, r7, lr}
 212              	.LCFI4:
 213              		.cfi_def_cfa_offset 24
 214              		.cfi_offset 3, -24
 215              		.cfi_offset 4, -20
 216              		.cfi_offset 5, -16
 217              		.cfi_offset 6, -12
 218              		.cfi_offset 7, -8
ARM GAS  /tmp/ccnrTkjK.s 			page 10


 219              		.cfi_offset 14, -4
 220 0002 0546     		mov	r5, r0
 221 0004 0E46     		mov	r6, r1
  10:/mnt/c/Users/31740/Desktop/newcore/block/request_queue.c **** 
 222              		.loc 1 10 5 is_stmt 1 view .LVU42
  12:/mnt/c/Users/31740/Desktop/newcore/block/request_queue.c ****     if (!q)
 223              		.loc 1 12 5 view .LVU43
 224              	.LVL12:
 225              	.LBB101:
 226              	.LBI101:
 227              		.file 5 "/mnt/c/Users/31740/Desktop/newcore/include/linux/slab.h"
   1:/mnt/c/Users/31740/Desktop/newcore/include/linux/slab.h **** /* SPDX-License-Identifier: GPL-2.0 */
   2:/mnt/c/Users/31740/Desktop/newcore/include/linux/slab.h **** /*
   3:/mnt/c/Users/31740/Desktop/newcore/include/linux/slab.h ****  * Written by Mark Hemment, 1996 (markhe@nextd.demon.co.uk).
   4:/mnt/c/Users/31740/Desktop/newcore/include/linux/slab.h ****  *
   5:/mnt/c/Users/31740/Desktop/newcore/include/linux/slab.h ****  * (C) SGI 2006, Christoph Lameter
   6:/mnt/c/Users/31740/Desktop/newcore/include/linux/slab.h ****  * 	Cleaned up and restructured to ease the addition of alternative
   7:/mnt/c/Users/31740/Desktop/newcore/include/linux/slab.h ****  * 	implementations of SLAB allocators.
   8:/mnt/c/Users/31740/Desktop/newcore/include/linux/slab.h ****  * (C) Linux Foundation 2008-2013
   9:/mnt/c/Users/31740/Desktop/newcore/include/linux/slab.h ****  *      Unified interface for all slab allocators
  10:/mnt/c/Users/31740/Desktop/newcore/include/linux/slab.h ****  */
  11:/mnt/c/Users/31740/Desktop/newcore/include/linux/slab.h **** 
  12:/mnt/c/Users/31740/Desktop/newcore/include/linux/slab.h **** #ifndef _LINUX_SLAB_H
  13:/mnt/c/Users/31740/Desktop/newcore/include/linux/slab.h **** #define	_LINUX_SLAB_H
  14:/mnt/c/Users/31740/Desktop/newcore/include/linux/slab.h **** 
  15:/mnt/c/Users/31740/Desktop/newcore/include/linux/slab.h **** #include <linux/cache.h>
  16:/mnt/c/Users/31740/Desktop/newcore/include/linux/slab.h **** #include <linux/overflow.h>
  17:/mnt/c/Users/31740/Desktop/newcore/include/linux/slab.h **** #include <linux/types.h>
  18:/mnt/c/Users/31740/Desktop/newcore/include/linux/slab.h **** #include <linux/raid/pq.h>
  19:/mnt/c/Users/31740/Desktop/newcore/include/linux/slab.h **** #include <linux/gfp_types.h>
  20:/mnt/c/Users/31740/Desktop/newcore/include/linux/slab.h **** #include <linux/numa.h>
  21:/mnt/c/Users/31740/Desktop/newcore/include/linux/slab.h **** #include <linux/reciprocal_div.h>
  22:/mnt/c/Users/31740/Desktop/newcore/include/linux/slab.h **** #include <linux/spinlock.h>
  23:/mnt/c/Users/31740/Desktop/newcore/include/linux/slab.h **** 
  24:/mnt/c/Users/31740/Desktop/newcore/include/linux/slab.h **** enum _slab_flag_bits {
  25:/mnt/c/Users/31740/Desktop/newcore/include/linux/slab.h **** 	_SLAB_CONSISTENCY_CHECKS,
  26:/mnt/c/Users/31740/Desktop/newcore/include/linux/slab.h **** 	_SLAB_RED_ZONE,
  27:/mnt/c/Users/31740/Desktop/newcore/include/linux/slab.h **** 	_SLAB_POISON,
  28:/mnt/c/Users/31740/Desktop/newcore/include/linux/slab.h **** 	_SLAB_KMALLOC,
  29:/mnt/c/Users/31740/Desktop/newcore/include/linux/slab.h **** 	_SLAB_HWCACHE_ALIGN,
  30:/mnt/c/Users/31740/Desktop/newcore/include/linux/slab.h **** 	_SLAB_CACHE_DMA,
  31:/mnt/c/Users/31740/Desktop/newcore/include/linux/slab.h **** 	_SLAB_CACHE_DMA32,
  32:/mnt/c/Users/31740/Desktop/newcore/include/linux/slab.h **** 	_SLAB_STORE_USER,
  33:/mnt/c/Users/31740/Desktop/newcore/include/linux/slab.h **** 	_SLAB_PANIC,
  34:/mnt/c/Users/31740/Desktop/newcore/include/linux/slab.h **** 	_SLAB_TYPESAFE_BY_RCU,
  35:/mnt/c/Users/31740/Desktop/newcore/include/linux/slab.h **** 	_SLAB_TRACE,
  36:/mnt/c/Users/31740/Desktop/newcore/include/linux/slab.h **** #ifdef CONFIG_DEBUG_OBJECTS
  37:/mnt/c/Users/31740/Desktop/newcore/include/linux/slab.h **** 	_SLAB_DEBUG_OBJECTS,
  38:/mnt/c/Users/31740/Desktop/newcore/include/linux/slab.h **** #endif
  39:/mnt/c/Users/31740/Desktop/newcore/include/linux/slab.h **** 	_SLAB_NOLEAKTRACE,
  40:/mnt/c/Users/31740/Desktop/newcore/include/linux/slab.h **** 	_SLAB_NO_MERGE,
  41:/mnt/c/Users/31740/Desktop/newcore/include/linux/slab.h **** #ifdef CONFIG_FAILSLAB
  42:/mnt/c/Users/31740/Desktop/newcore/include/linux/slab.h **** 	_SLAB_FAILSLAB,
  43:/mnt/c/Users/31740/Desktop/newcore/include/linux/slab.h **** #endif
  44:/mnt/c/Users/31740/Desktop/newcore/include/linux/slab.h **** #ifdef CONFIG_MEMCG
  45:/mnt/c/Users/31740/Desktop/newcore/include/linux/slab.h **** 	_SLAB_ACCOUNT,
  46:/mnt/c/Users/31740/Desktop/newcore/include/linux/slab.h **** #endif
ARM GAS  /tmp/ccnrTkjK.s 			page 11


  47:/mnt/c/Users/31740/Desktop/newcore/include/linux/slab.h **** #ifdef CONFIG_KASAN_GENERIC
  48:/mnt/c/Users/31740/Desktop/newcore/include/linux/slab.h **** 	_SLAB_KASAN,
  49:/mnt/c/Users/31740/Desktop/newcore/include/linux/slab.h **** #endif
  50:/mnt/c/Users/31740/Desktop/newcore/include/linux/slab.h **** 	_SLAB_NO_USER_FLAGS,
  51:/mnt/c/Users/31740/Desktop/newcore/include/linux/slab.h **** #ifdef CONFIG_KFENCE
  52:/mnt/c/Users/31740/Desktop/newcore/include/linux/slab.h **** 	_SLAB_SKIP_KFENCE,
  53:/mnt/c/Users/31740/Desktop/newcore/include/linux/slab.h **** #endif
  54:/mnt/c/Users/31740/Desktop/newcore/include/linux/slab.h **** #ifndef CONFIG_SLUB_TINY
  55:/mnt/c/Users/31740/Desktop/newcore/include/linux/slab.h **** 	_SLAB_RECLAIM_ACCOUNT,
  56:/mnt/c/Users/31740/Desktop/newcore/include/linux/slab.h **** #endif
  57:/mnt/c/Users/31740/Desktop/newcore/include/linux/slab.h **** 	_SLAB_OBJECT_POISON,
  58:/mnt/c/Users/31740/Desktop/newcore/include/linux/slab.h **** 	_SLAB_CMPXCHG_DOUBLE,
  59:/mnt/c/Users/31740/Desktop/newcore/include/linux/slab.h **** #ifdef CONFIG_SLAB_OBJ_EXT
  60:/mnt/c/Users/31740/Desktop/newcore/include/linux/slab.h **** 	_SLAB_NO_OBJ_EXT,
  61:/mnt/c/Users/31740/Desktop/newcore/include/linux/slab.h **** #endif
  62:/mnt/c/Users/31740/Desktop/newcore/include/linux/slab.h **** 	_SLAB_FLAGS_LAST_BIT
  63:/mnt/c/Users/31740/Desktop/newcore/include/linux/slab.h **** };
  64:/mnt/c/Users/31740/Desktop/newcore/include/linux/slab.h **** 
  65:/mnt/c/Users/31740/Desktop/newcore/include/linux/slab.h **** 
  66:/mnt/c/Users/31740/Desktop/newcore/include/linux/slab.h **** 
  67:/mnt/c/Users/31740/Desktop/newcore/include/linux/slab.h **** #define __SLAB_FLAG_BIT(nr)	((slab_flags_t __force)(1U << (nr)))
  68:/mnt/c/Users/31740/Desktop/newcore/include/linux/slab.h **** #define __SLAB_FLAG_UNUSED	((slab_flags_t __force)(0U))
  69:/mnt/c/Users/31740/Desktop/newcore/include/linux/slab.h **** 
  70:/mnt/c/Users/31740/Desktop/newcore/include/linux/slab.h **** /*
  71:/mnt/c/Users/31740/Desktop/newcore/include/linux/slab.h ****  * Flags to pass to kmem_cache_create().
  72:/mnt/c/Users/31740/Desktop/newcore/include/linux/slab.h ****  * The ones marked DEBUG need CONFIG_SLUB_DEBUG enabled, otherwise are no-op
  73:/mnt/c/Users/31740/Desktop/newcore/include/linux/slab.h ****  */
  74:/mnt/c/Users/31740/Desktop/newcore/include/linux/slab.h **** /* DEBUG: Perform (expensive) checks on alloc/free */
  75:/mnt/c/Users/31740/Desktop/newcore/include/linux/slab.h **** #define SLAB_CONSISTENCY_CHECKS	__SLAB_FLAG_BIT(_SLAB_CONSISTENCY_CHECKS)
  76:/mnt/c/Users/31740/Desktop/newcore/include/linux/slab.h **** /* DEBUG: Red zone objs in a cache */
  77:/mnt/c/Users/31740/Desktop/newcore/include/linux/slab.h **** #define SLAB_RED_ZONE		__SLAB_FLAG_BIT(_SLAB_RED_ZONE)
  78:/mnt/c/Users/31740/Desktop/newcore/include/linux/slab.h **** /* DEBUG: Poison objects */
  79:/mnt/c/Users/31740/Desktop/newcore/include/linux/slab.h **** #define SLAB_POISON		__SLAB_FLAG_BIT(_SLAB_POISON)
  80:/mnt/c/Users/31740/Desktop/newcore/include/linux/slab.h **** /* Indicate a kmalloc slab */
  81:/mnt/c/Users/31740/Desktop/newcore/include/linux/slab.h **** #define SLAB_KMALLOC		__SLAB_FLAG_BIT(_SLAB_KMALLOC)
  82:/mnt/c/Users/31740/Desktop/newcore/include/linux/slab.h **** /**
  83:/mnt/c/Users/31740/Desktop/newcore/include/linux/slab.h ****  * define SLAB_HWCACHE_ALIGN - Align objects on cache line boundaries.
  84:/mnt/c/Users/31740/Desktop/newcore/include/linux/slab.h ****  *
  85:/mnt/c/Users/31740/Desktop/newcore/include/linux/slab.h ****  * Sufficiently large objects are aligned on cache line boundary. For object
  86:/mnt/c/Users/31740/Desktop/newcore/include/linux/slab.h ****  * size smaller than a half of cache line size, the alignment is on the half of
  87:/mnt/c/Users/31740/Desktop/newcore/include/linux/slab.h ****  * cache line size. In general, if object size is smaller than 1/2^n of cache
  88:/mnt/c/Users/31740/Desktop/newcore/include/linux/slab.h ****  * line size, the alignment is adjusted to 1/2^n.
  89:/mnt/c/Users/31740/Desktop/newcore/include/linux/slab.h ****  *
  90:/mnt/c/Users/31740/Desktop/newcore/include/linux/slab.h ****  * If explicit alignment is also requested by the respective
  91:/mnt/c/Users/31740/Desktop/newcore/include/linux/slab.h ****  * &struct kmem_cache_args field, the greater of both is alignments is applied.
  92:/mnt/c/Users/31740/Desktop/newcore/include/linux/slab.h ****  */
  93:/mnt/c/Users/31740/Desktop/newcore/include/linux/slab.h **** #define SLAB_HWCACHE_ALIGN	__SLAB_FLAG_BIT(_SLAB_HWCACHE_ALIGN)
  94:/mnt/c/Users/31740/Desktop/newcore/include/linux/slab.h **** /* Use GFP_DMA memory */
  95:/mnt/c/Users/31740/Desktop/newcore/include/linux/slab.h **** #define SLAB_CACHE_DMA		__SLAB_FLAG_BIT(_SLAB_CACHE_DMA)
  96:/mnt/c/Users/31740/Desktop/newcore/include/linux/slab.h **** /* Use GFP_DMA32 memory */
  97:/mnt/c/Users/31740/Desktop/newcore/include/linux/slab.h **** #define SLAB_CACHE_DMA32	__SLAB_FLAG_BIT(_SLAB_CACHE_DMA32)
  98:/mnt/c/Users/31740/Desktop/newcore/include/linux/slab.h **** /* DEBUG: Store the last owner for bug hunting */
  99:/mnt/c/Users/31740/Desktop/newcore/include/linux/slab.h **** #define SLAB_STORE_USER		__SLAB_FLAG_BIT(_SLAB_STORE_USER)
 100:/mnt/c/Users/31740/Desktop/newcore/include/linux/slab.h **** /* Panic if kmem_cache_create() fails */
 101:/mnt/c/Users/31740/Desktop/newcore/include/linux/slab.h **** #define SLAB_PANIC		__SLAB_FLAG_BIT(_SLAB_PANIC)
 102:/mnt/c/Users/31740/Desktop/newcore/include/linux/slab.h **** /**
 103:/mnt/c/Users/31740/Desktop/newcore/include/linux/slab.h ****  * define SLAB_TYPESAFE_BY_RCU - **WARNING** READ THIS!
ARM GAS  /tmp/ccnrTkjK.s 			page 12


 104:/mnt/c/Users/31740/Desktop/newcore/include/linux/slab.h ****  *
 105:/mnt/c/Users/31740/Desktop/newcore/include/linux/slab.h ****  * This delays freeing the SLAB page by a grace period, it does _NOT_
 106:/mnt/c/Users/31740/Desktop/newcore/include/linux/slab.h ****  * delay object freeing. This means that if you do kmem_cache_free()
 107:/mnt/c/Users/31740/Desktop/newcore/include/linux/slab.h ****  * that memory location is free to be reused at any time. Thus it may
 108:/mnt/c/Users/31740/Desktop/newcore/include/linux/slab.h ****  * be possible to see another object there in the same RCU grace period.
 109:/mnt/c/Users/31740/Desktop/newcore/include/linux/slab.h ****  *
 110:/mnt/c/Users/31740/Desktop/newcore/include/linux/slab.h ****  * This feature only ensures the memory location backing the object
 111:/mnt/c/Users/31740/Desktop/newcore/include/linux/slab.h ****  * stays valid, the trick to using this is relying on an independent
 112:/mnt/c/Users/31740/Desktop/newcore/include/linux/slab.h ****  * object validation pass. Something like:
 113:/mnt/c/Users/31740/Desktop/newcore/include/linux/slab.h ****  *
 114:/mnt/c/Users/31740/Desktop/newcore/include/linux/slab.h ****  * ::
 115:/mnt/c/Users/31740/Desktop/newcore/include/linux/slab.h ****  *
 116:/mnt/c/Users/31740/Desktop/newcore/include/linux/slab.h ****  *  begin:
 117:/mnt/c/Users/31740/Desktop/newcore/include/linux/slab.h ****  *   rcu_read_lock();
 118:/mnt/c/Users/31740/Desktop/newcore/include/linux/slab.h ****  *   obj = lockless_lookup(key);
 119:/mnt/c/Users/31740/Desktop/newcore/include/linux/slab.h ****  *   if (obj) {
 120:/mnt/c/Users/31740/Desktop/newcore/include/linux/slab.h ****  *     if (!try_get_ref(obj)) // might fail for free objects
 121:/mnt/c/Users/31740/Desktop/newcore/include/linux/slab.h ****  *       rcu_read_unlock();
 122:/mnt/c/Users/31740/Desktop/newcore/include/linux/slab.h ****  *       goto begin;
 123:/mnt/c/Users/31740/Desktop/newcore/include/linux/slab.h ****  *
 124:/mnt/c/Users/31740/Desktop/newcore/include/linux/slab.h ****  *     if (obj->key != key) { // not the object we expected
 125:/mnt/c/Users/31740/Desktop/newcore/include/linux/slab.h ****  *       put_ref(obj);
 126:/mnt/c/Users/31740/Desktop/newcore/include/linux/slab.h ****  *       rcu_read_unlock();
 127:/mnt/c/Users/31740/Desktop/newcore/include/linux/slab.h ****  *       goto begin;
 128:/mnt/c/Users/31740/Desktop/newcore/include/linux/slab.h ****  *     }
 129:/mnt/c/Users/31740/Desktop/newcore/include/linux/slab.h ****  *   }
 130:/mnt/c/Users/31740/Desktop/newcore/include/linux/slab.h ****  *  rcu_read_unlock();
 131:/mnt/c/Users/31740/Desktop/newcore/include/linux/slab.h ****  *
 132:/mnt/c/Users/31740/Desktop/newcore/include/linux/slab.h ****  * This is useful if we need to approach a kernel structure obliquely,
 133:/mnt/c/Users/31740/Desktop/newcore/include/linux/slab.h ****  * from its address obtained without the usual locking. We can lock
 134:/mnt/c/Users/31740/Desktop/newcore/include/linux/slab.h ****  * the structure to stabilize it and check it's still at the given address,
 135:/mnt/c/Users/31740/Desktop/newcore/include/linux/slab.h ****  * only if we can be sure that the memory has not been meanwhile reused
 136:/mnt/c/Users/31740/Desktop/newcore/include/linux/slab.h ****  * for some other kind of object (which our subsystem's lock might corrupt).
 137:/mnt/c/Users/31740/Desktop/newcore/include/linux/slab.h ****  *
 138:/mnt/c/Users/31740/Desktop/newcore/include/linux/slab.h ****  * rcu_read_lock before reading the address, then rcu_read_unlock after
 139:/mnt/c/Users/31740/Desktop/newcore/include/linux/slab.h ****  * taking the spinlock within the structure expected at that address.
 140:/mnt/c/Users/31740/Desktop/newcore/include/linux/slab.h ****  *
 141:/mnt/c/Users/31740/Desktop/newcore/include/linux/slab.h ****  * Note that it is not possible to acquire a lock within a structure
 142:/mnt/c/Users/31740/Desktop/newcore/include/linux/slab.h ****  * allocated with SLAB_TYPESAFE_BY_RCU without first acquiring a reference
 143:/mnt/c/Users/31740/Desktop/newcore/include/linux/slab.h ****  * as described above.  The reason is that SLAB_TYPESAFE_BY_RCU pages
 144:/mnt/c/Users/31740/Desktop/newcore/include/linux/slab.h ****  * are not zeroed before being given to the slab, which means that any
 145:/mnt/c/Users/31740/Desktop/newcore/include/linux/slab.h ****  * locks must be initialized after each and every kmem_struct_alloc().
 146:/mnt/c/Users/31740/Desktop/newcore/include/linux/slab.h ****  * Alternatively, make the ctor passed to kmem_cache_create() initialize
 147:/mnt/c/Users/31740/Desktop/newcore/include/linux/slab.h ****  * the locks at page-allocation time, as is done in __i915_request_ctor(),
 148:/mnt/c/Users/31740/Desktop/newcore/include/linux/slab.h ****  * sighand_ctor(), and anon_vma_ctor().  Such a ctor permits readers
 149:/mnt/c/Users/31740/Desktop/newcore/include/linux/slab.h ****  * to safely acquire those ctor-initialized locks under rcu_read_lock()
 150:/mnt/c/Users/31740/Desktop/newcore/include/linux/slab.h ****  * protection.
 151:/mnt/c/Users/31740/Desktop/newcore/include/linux/slab.h ****  *
 152:/mnt/c/Users/31740/Desktop/newcore/include/linux/slab.h ****  * Note that SLAB_TYPESAFE_BY_RCU was originally named SLAB_DESTROY_BY_RCU.
 153:/mnt/c/Users/31740/Desktop/newcore/include/linux/slab.h ****  */
 154:/mnt/c/Users/31740/Desktop/newcore/include/linux/slab.h **** #define SLAB_TYPESAFE_BY_RCU	__SLAB_FLAG_BIT(_SLAB_TYPESAFE_BY_RCU)
 155:/mnt/c/Users/31740/Desktop/newcore/include/linux/slab.h **** /* Trace allocations and frees */
 156:/mnt/c/Users/31740/Desktop/newcore/include/linux/slab.h **** #define SLAB_TRACE		__SLAB_FLAG_BIT(_SLAB_TRACE)
 157:/mnt/c/Users/31740/Desktop/newcore/include/linux/slab.h **** 
 158:/mnt/c/Users/31740/Desktop/newcore/include/linux/slab.h **** /* Flag to prevent checks on free */
 159:/mnt/c/Users/31740/Desktop/newcore/include/linux/slab.h **** #ifdef CONFIG_DEBUG_OBJECTS
 160:/mnt/c/Users/31740/Desktop/newcore/include/linux/slab.h **** # define SLAB_DEBUG_OBJECTS	__SLAB_FLAG_BIT(_SLAB_DEBUG_OBJECTS)
ARM GAS  /tmp/ccnrTkjK.s 			page 13


 161:/mnt/c/Users/31740/Desktop/newcore/include/linux/slab.h **** #else
 162:/mnt/c/Users/31740/Desktop/newcore/include/linux/slab.h **** # define SLAB_DEBUG_OBJECTS	__SLAB_FLAG_UNUSED
 163:/mnt/c/Users/31740/Desktop/newcore/include/linux/slab.h **** #endif
 164:/mnt/c/Users/31740/Desktop/newcore/include/linux/slab.h **** 
 165:/mnt/c/Users/31740/Desktop/newcore/include/linux/slab.h **** /* Avoid kmemleak tracing */
 166:/mnt/c/Users/31740/Desktop/newcore/include/linux/slab.h **** #define SLAB_NOLEAKTRACE	__SLAB_FLAG_BIT(_SLAB_NOLEAKTRACE)
 167:/mnt/c/Users/31740/Desktop/newcore/include/linux/slab.h **** 
 168:/mnt/c/Users/31740/Desktop/newcore/include/linux/slab.h **** /*
 169:/mnt/c/Users/31740/Desktop/newcore/include/linux/slab.h ****  * Prevent merging with compatible kmem caches. This flag should be used
 170:/mnt/c/Users/31740/Desktop/newcore/include/linux/slab.h ****  * cautiously. Valid use cases:
 171:/mnt/c/Users/31740/Desktop/newcore/include/linux/slab.h ****  *
 172:/mnt/c/Users/31740/Desktop/newcore/include/linux/slab.h ****  * - caches created for self-tests (e.g. kunit)
 173:/mnt/c/Users/31740/Desktop/newcore/include/linux/slab.h ****  * - general caches created and used by a subsystem, only when a
 174:/mnt/c/Users/31740/Desktop/newcore/include/linux/slab.h ****  *   (subsystem-specific) debug option is enabled
 175:/mnt/c/Users/31740/Desktop/newcore/include/linux/slab.h ****  * - performance critical caches, should be very rare and consulted with slab
 176:/mnt/c/Users/31740/Desktop/newcore/include/linux/slab.h ****  *   maintainers, and not used together with CONFIG_SLUB_TINY
 177:/mnt/c/Users/31740/Desktop/newcore/include/linux/slab.h ****  */
 178:/mnt/c/Users/31740/Desktop/newcore/include/linux/slab.h **** #define SLAB_NO_MERGE		__SLAB_FLAG_BIT(_SLAB_NO_MERGE)
 179:/mnt/c/Users/31740/Desktop/newcore/include/linux/slab.h **** 
 180:/mnt/c/Users/31740/Desktop/newcore/include/linux/slab.h **** /* Fault injection mark */
 181:/mnt/c/Users/31740/Desktop/newcore/include/linux/slab.h **** #ifdef CONFIG_FAILSLAB
 182:/mnt/c/Users/31740/Desktop/newcore/include/linux/slab.h **** # define SLAB_FAILSLAB		__SLAB_FLAG_BIT(_SLAB_FAILSLAB)
 183:/mnt/c/Users/31740/Desktop/newcore/include/linux/slab.h **** #else
 184:/mnt/c/Users/31740/Desktop/newcore/include/linux/slab.h **** # define SLAB_FAILSLAB		__SLAB_FLAG_UNUSED
 185:/mnt/c/Users/31740/Desktop/newcore/include/linux/slab.h **** #endif
 186:/mnt/c/Users/31740/Desktop/newcore/include/linux/slab.h **** /**
 187:/mnt/c/Users/31740/Desktop/newcore/include/linux/slab.h ****  * define SLAB_ACCOUNT - Account allocations to memcg.
 188:/mnt/c/Users/31740/Desktop/newcore/include/linux/slab.h ****  *
 189:/mnt/c/Users/31740/Desktop/newcore/include/linux/slab.h ****  * All object allocations from this cache will be memcg accounted, regardless of
 190:/mnt/c/Users/31740/Desktop/newcore/include/linux/slab.h ****  * __GFP_ACCOUNT being or not being passed to individual allocations.
 191:/mnt/c/Users/31740/Desktop/newcore/include/linux/slab.h ****  */
 192:/mnt/c/Users/31740/Desktop/newcore/include/linux/slab.h **** #ifdef CONFIG_MEMCG
 193:/mnt/c/Users/31740/Desktop/newcore/include/linux/slab.h **** # define SLAB_ACCOUNT		__SLAB_FLAG_BIT(_SLAB_ACCOUNT)
 194:/mnt/c/Users/31740/Desktop/newcore/include/linux/slab.h **** #else
 195:/mnt/c/Users/31740/Desktop/newcore/include/linux/slab.h **** # define SLAB_ACCOUNT		__SLAB_FLAG_UNUSED
 196:/mnt/c/Users/31740/Desktop/newcore/include/linux/slab.h **** #endif
 197:/mnt/c/Users/31740/Desktop/newcore/include/linux/slab.h **** 
 198:/mnt/c/Users/31740/Desktop/newcore/include/linux/slab.h **** #ifdef CONFIG_KASAN_GENERIC
 199:/mnt/c/Users/31740/Desktop/newcore/include/linux/slab.h **** #define SLAB_KASAN		__SLAB_FLAG_BIT(_SLAB_KASAN)
 200:/mnt/c/Users/31740/Desktop/newcore/include/linux/slab.h **** #else
 201:/mnt/c/Users/31740/Desktop/newcore/include/linux/slab.h **** #define SLAB_KASAN		__SLAB_FLAG_UNUSED
 202:/mnt/c/Users/31740/Desktop/newcore/include/linux/slab.h **** #endif
 203:/mnt/c/Users/31740/Desktop/newcore/include/linux/slab.h **** 
 204:/mnt/c/Users/31740/Desktop/newcore/include/linux/slab.h **** /*
 205:/mnt/c/Users/31740/Desktop/newcore/include/linux/slab.h ****  * Ignore user specified debugging flags.
 206:/mnt/c/Users/31740/Desktop/newcore/include/linux/slab.h ****  * Intended for caches created for self-tests so they have only flags
 207:/mnt/c/Users/31740/Desktop/newcore/include/linux/slab.h ****  * specified in the code and other flags are ignored.
 208:/mnt/c/Users/31740/Desktop/newcore/include/linux/slab.h ****  */
 209:/mnt/c/Users/31740/Desktop/newcore/include/linux/slab.h **** #define SLAB_NO_USER_FLAGS	__SLAB_FLAG_BIT(_SLAB_NO_USER_FLAGS)
 210:/mnt/c/Users/31740/Desktop/newcore/include/linux/slab.h **** 
 211:/mnt/c/Users/31740/Desktop/newcore/include/linux/slab.h **** #ifdef CONFIG_KFENCE
 212:/mnt/c/Users/31740/Desktop/newcore/include/linux/slab.h **** #define SLAB_SKIP_KFENCE	__SLAB_FLAG_BIT(_SLAB_SKIP_KFENCE)
 213:/mnt/c/Users/31740/Desktop/newcore/include/linux/slab.h **** #else
 214:/mnt/c/Users/31740/Desktop/newcore/include/linux/slab.h **** #define SLAB_SKIP_KFENCE	__SLAB_FLAG_UNUSED
 215:/mnt/c/Users/31740/Desktop/newcore/include/linux/slab.h **** #endif
 216:/mnt/c/Users/31740/Desktop/newcore/include/linux/slab.h **** 
 217:/mnt/c/Users/31740/Desktop/newcore/include/linux/slab.h **** /* The following flags affect the page allocator grouping pages by mobility */
ARM GAS  /tmp/ccnrTkjK.s 			page 14


 218:/mnt/c/Users/31740/Desktop/newcore/include/linux/slab.h **** /**
 219:/mnt/c/Users/31740/Desktop/newcore/include/linux/slab.h ****  * define SLAB_RECLAIM_ACCOUNT - Objects are reclaimable.
 220:/mnt/c/Users/31740/Desktop/newcore/include/linux/slab.h ****  *
 221:/mnt/c/Users/31740/Desktop/newcore/include/linux/slab.h ****  * Use this flag for caches that have an associated shrinker. As a result, slab
 222:/mnt/c/Users/31740/Desktop/newcore/include/linux/slab.h ****  * pages are allocated with __GFP_RECLAIMABLE, which affects grouping pages by
 223:/mnt/c/Users/31740/Desktop/newcore/include/linux/slab.h ****  * mobility, and are accounted in SReclaimable counter in /proc/meminfo
 224:/mnt/c/Users/31740/Desktop/newcore/include/linux/slab.h ****  */
 225:/mnt/c/Users/31740/Desktop/newcore/include/linux/slab.h **** #ifndef CONFIG_SLUB_TINY
 226:/mnt/c/Users/31740/Desktop/newcore/include/linux/slab.h **** #define SLAB_RECLAIM_ACCOUNT	__SLAB_FLAG_BIT(_SLAB_RECLAIM_ACCOUNT)
 227:/mnt/c/Users/31740/Desktop/newcore/include/linux/slab.h **** #else
 228:/mnt/c/Users/31740/Desktop/newcore/include/linux/slab.h **** #define SLAB_RECLAIM_ACCOUNT	__SLAB_FLAG_UNUSED
 229:/mnt/c/Users/31740/Desktop/newcore/include/linux/slab.h **** #endif
 230:/mnt/c/Users/31740/Desktop/newcore/include/linux/slab.h **** #define SLAB_TEMPORARY		SLAB_RECLAIM_ACCOUNT	/* Objects are short-lived */
 231:/mnt/c/Users/31740/Desktop/newcore/include/linux/slab.h **** 
 232:/mnt/c/Users/31740/Desktop/newcore/include/linux/slab.h **** /* Slab created using create_boot_cache */
 233:/mnt/c/Users/31740/Desktop/newcore/include/linux/slab.h **** #ifdef CONFIG_SLAB_OBJ_EXT
 234:/mnt/c/Users/31740/Desktop/newcore/include/linux/slab.h **** #define SLAB_NO_OBJ_EXT		__SLAB_FLAG_BIT(_SLAB_NO_OBJ_EXT)
 235:/mnt/c/Users/31740/Desktop/newcore/include/linux/slab.h **** #else
 236:/mnt/c/Users/31740/Desktop/newcore/include/linux/slab.h **** #define SLAB_NO_OBJ_EXT		__SLAB_FLAG_UNUSED
 237:/mnt/c/Users/31740/Desktop/newcore/include/linux/slab.h **** #endif
 238:/mnt/c/Users/31740/Desktop/newcore/include/linux/slab.h **** 
 239:/mnt/c/Users/31740/Desktop/newcore/include/linux/slab.h **** /*
 240:/mnt/c/Users/31740/Desktop/newcore/include/linux/slab.h ****  * freeptr_t represents a SLUB freelist pointer, which might be encoded
 241:/mnt/c/Users/31740/Desktop/newcore/include/linux/slab.h ****  * and not dereferenceable if CONFIG_SLAB_FREELIST_HARDENED is enabled.
 242:/mnt/c/Users/31740/Desktop/newcore/include/linux/slab.h ****  */
 243:/mnt/c/Users/31740/Desktop/newcore/include/linux/slab.h **** typedef struct { unsigned long v; } freeptr_t;
 244:/mnt/c/Users/31740/Desktop/newcore/include/linux/slab.h **** 
 245:/mnt/c/Users/31740/Desktop/newcore/include/linux/slab.h **** /*
 246:/mnt/c/Users/31740/Desktop/newcore/include/linux/slab.h ****  * ZERO_SIZE_PTR will be returned for zero sized kmalloc requests.
 247:/mnt/c/Users/31740/Desktop/newcore/include/linux/slab.h ****  *
 248:/mnt/c/Users/31740/Desktop/newcore/include/linux/slab.h ****  * Dereferencing ZERO_SIZE_PTR will lead to a distinct access fault.
 249:/mnt/c/Users/31740/Desktop/newcore/include/linux/slab.h ****  *
 250:/mnt/c/Users/31740/Desktop/newcore/include/linux/slab.h ****  * ZERO_SIZE_PTR can be passed to kfree though in the same way that NULL can.
 251:/mnt/c/Users/31740/Desktop/newcore/include/linux/slab.h ****  * Both make kfree a no-op.
 252:/mnt/c/Users/31740/Desktop/newcore/include/linux/slab.h ****  */
 253:/mnt/c/Users/31740/Desktop/newcore/include/linux/slab.h **** #define ZERO_SIZE_PTR ((void *)16)
 254:/mnt/c/Users/31740/Desktop/newcore/include/linux/slab.h **** 
 255:/mnt/c/Users/31740/Desktop/newcore/include/linux/slab.h **** #define ZERO_OR_NULL_PTR(x) ((unsigned long)(x) <= \
 256:/mnt/c/Users/31740/Desktop/newcore/include/linux/slab.h **** 				(unsigned long)ZERO_SIZE_PTR)
 257:/mnt/c/Users/31740/Desktop/newcore/include/linux/slab.h **** 
 258:/mnt/c/Users/31740/Desktop/newcore/include/linux/slab.h **** 
 259:/mnt/c/Users/31740/Desktop/newcore/include/linux/slab.h **** 
 260:/mnt/c/Users/31740/Desktop/newcore/include/linux/slab.h **** 
 261:/mnt/c/Users/31740/Desktop/newcore/include/linux/slab.h **** 
 262:/mnt/c/Users/31740/Desktop/newcore/include/linux/slab.h **** #ifdef CONFIG_SLUB_CPU_PARTIAL
 263:/mnt/c/Users/31740/Desktop/newcore/include/linux/slab.h **** #define slub_percpu_partial(c)			((c)->partial)
 264:/mnt/c/Users/31740/Desktop/newcore/include/linux/slab.h **** 
 265:/mnt/c/Users/31740/Desktop/newcore/include/linux/slab.h **** #define slub_set_percpu_partial(c, p)		\
 266:/mnt/c/Users/31740/Desktop/newcore/include/linux/slab.h **** ({						\
 267:/mnt/c/Users/31740/Desktop/newcore/include/linux/slab.h **** 	slub_percpu_partial(c) = (p)->next;	\
 268:/mnt/c/Users/31740/Desktop/newcore/include/linux/slab.h **** })
 269:/mnt/c/Users/31740/Desktop/newcore/include/linux/slab.h **** 
 270:/mnt/c/Users/31740/Desktop/newcore/include/linux/slab.h **** #define slub_percpu_partial_read_once(c)	READ_ONCE(slub_percpu_partial(c))
 271:/mnt/c/Users/31740/Desktop/newcore/include/linux/slab.h **** #else
 272:/mnt/c/Users/31740/Desktop/newcore/include/linux/slab.h **** #define slub_percpu_partial(c)			NULL
 273:/mnt/c/Users/31740/Desktop/newcore/include/linux/slab.h **** 
 274:/mnt/c/Users/31740/Desktop/newcore/include/linux/slab.h **** #define slub_set_percpu_partial(c, p)
ARM GAS  /tmp/ccnrTkjK.s 			page 15


 275:/mnt/c/Users/31740/Desktop/newcore/include/linux/slab.h **** 
 276:/mnt/c/Users/31740/Desktop/newcore/include/linux/slab.h **** #define slub_percpu_partial_read_once(c)	NULL
 277:/mnt/c/Users/31740/Desktop/newcore/include/linux/slab.h **** 
 278:/mnt/c/Users/31740/Desktop/newcore/include/linux/slab.h **** 
 279:/mnt/c/Users/31740/Desktop/newcore/include/linux/slab.h **** #endif // CONFIG_SLUB_CPU_PARTIAL
 280:/mnt/c/Users/31740/Desktop/newcore/include/linux/slab.h **** 
 281:/mnt/c/Users/31740/Desktop/newcore/include/linux/slab.h **** /*
 282:/mnt/c/Users/31740/Desktop/newcore/include/linux/slab.h **** 	* Word size structure that can be atomically updated or read and that
 283:/mnt/c/Users/31740/Desktop/newcore/include/linux/slab.h **** 	* contains both the order and the number of objects that a slab of the
 284:/mnt/c/Users/31740/Desktop/newcore/include/linux/slab.h **** 	* given order would contain.
 285:/mnt/c/Users/31740/Desktop/newcore/include/linux/slab.h **** 	*/				
 286:/mnt/c/Users/31740/Desktop/newcore/include/linux/slab.h **** struct kmem_cache_order_objects {
 287:/mnt/c/Users/31740/Desktop/newcore/include/linux/slab.h **** 	unsigned int x;
 288:/mnt/c/Users/31740/Desktop/newcore/include/linux/slab.h **** };
 289:/mnt/c/Users/31740/Desktop/newcore/include/linux/slab.h **** 
 290:/mnt/c/Users/31740/Desktop/newcore/include/linux/slab.h **** struct kmem_cache_node {
 291:/mnt/c/Users/31740/Desktop/newcore/include/linux/slab.h **** 	spinlock_t list_lock;
 292:/mnt/c/Users/31740/Desktop/newcore/include/linux/slab.h **** 	unsigned long nr_partial;
 293:/mnt/c/Users/31740/Desktop/newcore/include/linux/slab.h **** 	struct list_head partial;
 294:/mnt/c/Users/31740/Desktop/newcore/include/linux/slab.h **** #ifdef CONFIG_SLUB_DEBUG
 295:/mnt/c/Users/31740/Desktop/newcore/include/linux/slab.h **** 	atomic_long_t nr_slabs;
 296:/mnt/c/Users/31740/Desktop/newcore/include/linux/slab.h **** 	atomic_long_t total_objects;
 297:/mnt/c/Users/31740/Desktop/newcore/include/linux/slab.h **** 	struct list_head full;
 298:/mnt/c/Users/31740/Desktop/newcore/include/linux/slab.h **** #endif
 299:/mnt/c/Users/31740/Desktop/newcore/include/linux/slab.h **** };
 300:/mnt/c/Users/31740/Desktop/newcore/include/linux/slab.h **** 
 301:/mnt/c/Users/31740/Desktop/newcore/include/linux/slab.h **** struct kmem_cache {
 302:/mnt/c/Users/31740/Desktop/newcore/include/linux/slab.h **** 	#ifndef CONFIG_SLUB_TINY
 303:/mnt/c/Users/31740/Desktop/newcore/include/linux/slab.h **** 	//	struct kmem_cache_cpu __percpu *cpu_slab;
 304:/mnt/c/Users/31740/Desktop/newcore/include/linux/slab.h **** 	#endif
 305:/mnt/c/Users/31740/Desktop/newcore/include/linux/slab.h **** 		/* Used for retrieving partial slabs, etc. */
 306:/mnt/c/Users/31740/Desktop/newcore/include/linux/slab.h **** 		slab_flags_t flags;
 307:/mnt/c/Users/31740/Desktop/newcore/include/linux/slab.h **** 		unsigned long min_partial;
 308:/mnt/c/Users/31740/Desktop/newcore/include/linux/slab.h **** 		unsigned int size;		/* Object size including metadata */
 309:/mnt/c/Users/31740/Desktop/newcore/include/linux/slab.h **** 		unsigned int object_size;	/* Object size without metadata */
 310:/mnt/c/Users/31740/Desktop/newcore/include/linux/slab.h **** 		struct reciprocal_value reciprocal_size;
 311:/mnt/c/Users/31740/Desktop/newcore/include/linux/slab.h **** 		unsigned int offset;		/* Free pointer offset */
 312:/mnt/c/Users/31740/Desktop/newcore/include/linux/slab.h **** 	#ifdef CONFIG_SLUB_CPU_PARTIAL
 313:/mnt/c/Users/31740/Desktop/newcore/include/linux/slab.h **** 		/* Number of per cpu partial objects to keep around */
 314:/mnt/c/Users/31740/Desktop/newcore/include/linux/slab.h **** 		unsigned int cpu_partial;
 315:/mnt/c/Users/31740/Desktop/newcore/include/linux/slab.h **** 		/* Number of per cpu partial slabs to keep around */
 316:/mnt/c/Users/31740/Desktop/newcore/include/linux/slab.h **** 		unsigned int cpu_partial_slabs;
 317:/mnt/c/Users/31740/Desktop/newcore/include/linux/slab.h **** 	#endif
 318:/mnt/c/Users/31740/Desktop/newcore/include/linux/slab.h **** 		struct kmem_cache_order_objects oo;
 319:/mnt/c/Users/31740/Desktop/newcore/include/linux/slab.h **** 	
 320:/mnt/c/Users/31740/Desktop/newcore/include/linux/slab.h **** 		/* Allocation and freeing of slabs */
 321:/mnt/c/Users/31740/Desktop/newcore/include/linux/slab.h **** 		struct kmem_cache_order_objects min;
 322:/mnt/c/Users/31740/Desktop/newcore/include/linux/slab.h **** 		gfp_t allocflags;		/* gfp flags to use on each alloc */
 323:/mnt/c/Users/31740/Desktop/newcore/include/linux/slab.h **** 		int refcount;			/* Refcount for slab cache destroy */
 324:/mnt/c/Users/31740/Desktop/newcore/include/linux/slab.h **** 		void (*ctor)(void *object);	/* Object constructor */
 325:/mnt/c/Users/31740/Desktop/newcore/include/linux/slab.h **** 		unsigned int inuse;		/* Offset to metadata */
 326:/mnt/c/Users/31740/Desktop/newcore/include/linux/slab.h **** 		unsigned int align;		/* Alignment */
 327:/mnt/c/Users/31740/Desktop/newcore/include/linux/slab.h **** 		unsigned int red_left_pad;	/* Left redzone padding size */
 328:/mnt/c/Users/31740/Desktop/newcore/include/linux/slab.h **** 		const char *name;		/* Name (only for display!) */
 329:/mnt/c/Users/31740/Desktop/newcore/include/linux/slab.h **** 		struct list_head list;		/* List of slab caches */
 330:/mnt/c/Users/31740/Desktop/newcore/include/linux/slab.h **** 	#ifdef CONFIG_SYSFS
 331:/mnt/c/Users/31740/Desktop/newcore/include/linux/slab.h **** 		struct kobject kobj;		/* For sysfs */
ARM GAS  /tmp/ccnrTkjK.s 			page 16


 332:/mnt/c/Users/31740/Desktop/newcore/include/linux/slab.h **** 	#endif
 333:/mnt/c/Users/31740/Desktop/newcore/include/linux/slab.h **** 	#ifdef CONFIG_SLAB_FREELIST_HARDENED
 334:/mnt/c/Users/31740/Desktop/newcore/include/linux/slab.h **** 		unsigned long random;
 335:/mnt/c/Users/31740/Desktop/newcore/include/linux/slab.h **** 	#endif
 336:/mnt/c/Users/31740/Desktop/newcore/include/linux/slab.h **** 	
 337:/mnt/c/Users/31740/Desktop/newcore/include/linux/slab.h **** 	#ifdef CONFIG_NUMA
 338:/mnt/c/Users/31740/Desktop/newcore/include/linux/slab.h **** 		/*
 339:/mnt/c/Users/31740/Desktop/newcore/include/linux/slab.h **** 			* Defragmentation by allocating from a remote node.
 340:/mnt/c/Users/31740/Desktop/newcore/include/linux/slab.h **** 			*/
 341:/mnt/c/Users/31740/Desktop/newcore/include/linux/slab.h **** 		unsigned int remote_node_defrag_ratio;
 342:/mnt/c/Users/31740/Desktop/newcore/include/linux/slab.h **** 	#endif
 343:/mnt/c/Users/31740/Desktop/newcore/include/linux/slab.h **** 	
 344:/mnt/c/Users/31740/Desktop/newcore/include/linux/slab.h **** 	#ifdef CONFIG_SLAB_FREELIST_RANDOM
 345:/mnt/c/Users/31740/Desktop/newcore/include/linux/slab.h **** 		unsigned int *random_seq;
 346:/mnt/c/Users/31740/Desktop/newcore/include/linux/slab.h **** 	#endif
 347:/mnt/c/Users/31740/Desktop/newcore/include/linux/slab.h **** 	
 348:/mnt/c/Users/31740/Desktop/newcore/include/linux/slab.h **** 	#ifdef CONFIG_KASAN_GENERIC
 349:/mnt/c/Users/31740/Desktop/newcore/include/linux/slab.h **** 		struct kasan_cache kasan_info;
 350:/mnt/c/Users/31740/Desktop/newcore/include/linux/slab.h **** 	#endif
 351:/mnt/c/Users/31740/Desktop/newcore/include/linux/slab.h **** 	
 352:/mnt/c/Users/31740/Desktop/newcore/include/linux/slab.h **** 	#ifdef CONFIG_HARDENED_USERCOPY
 353:/mnt/c/Users/31740/Desktop/newcore/include/linux/slab.h **** 		unsigned int useroffset;	/* Usercopy region offset */
 354:/mnt/c/Users/31740/Desktop/newcore/include/linux/slab.h **** 		unsigned int usersize;		/* Usercopy region size */
 355:/mnt/c/Users/31740/Desktop/newcore/include/linux/slab.h **** 	#endif
 356:/mnt/c/Users/31740/Desktop/newcore/include/linux/slab.h **** 	
 357:/mnt/c/Users/31740/Desktop/newcore/include/linux/slab.h **** 		struct kmem_cache_node *node[MAX_NUMNODES];
 358:/mnt/c/Users/31740/Desktop/newcore/include/linux/slab.h **** 	};
 359:/mnt/c/Users/31740/Desktop/newcore/include/linux/slab.h **** 					
 360:/mnt/c/Users/31740/Desktop/newcore/include/linux/slab.h **** 
 361:/mnt/c/Users/31740/Desktop/newcore/include/linux/slab.h **** 
 362:/mnt/c/Users/31740/Desktop/newcore/include/linux/slab.h **** 
 363:/mnt/c/Users/31740/Desktop/newcore/include/linux/slab.h **** 
 364:/mnt/c/Users/31740/Desktop/newcore/include/linux/slab.h **** #define KMALLOC_WAIT 1
 365:/mnt/c/Users/31740/Desktop/newcore/include/linux/slab.h **** 
 366:/mnt/c/Users/31740/Desktop/newcore/include/linux/slab.h **** 
 367:/mnt/c/Users/31740/Desktop/newcore/include/linux/slab.h **** extern void* __smalloc__(u32 size, gfp_t flags);
 368:/mnt/c/Users/31740/Desktop/newcore/include/linux/slab.h **** extern void  __sfree__(void* addr);
 369:/mnt/c/Users/31740/Desktop/newcore/include/linux/slab.h **** 
 370:/mnt/c/Users/31740/Desktop/newcore/include/linux/slab.h **** 
 371:/mnt/c/Users/31740/Desktop/newcore/include/linux/slab.h **** static void inline *vmalloc(unsigned long size){
 372:/mnt/c/Users/31740/Desktop/newcore/include/linux/slab.h **** 	return __smalloc__(size,GFP_TRANSHUGE_LIGHT);
 373:/mnt/c/Users/31740/Desktop/newcore/include/linux/slab.h **** }
 374:/mnt/c/Users/31740/Desktop/newcore/include/linux/slab.h **** 
 375:/mnt/c/Users/31740/Desktop/newcore/include/linux/slab.h **** static void inline vfree(void *addr){
 376:/mnt/c/Users/31740/Desktop/newcore/include/linux/slab.h **** 	__sfree__(addr);
 377:/mnt/c/Users/31740/Desktop/newcore/include/linux/slab.h **** }
 378:/mnt/c/Users/31740/Desktop/newcore/include/linux/slab.h **** 
 379:/mnt/c/Users/31740/Desktop/newcore/include/linux/slab.h **** static void inline *kmalloc(size_t size, gfp_t flags){
 228              		.loc 5 379 21 view .LVU44
 229              	.LBB102:
 380:/mnt/c/Users/31740/Desktop/newcore/include/linux/slab.h **** 	return __smalloc__((u32)size,flags);
 230              		.loc 5 380 2 view .LVU45
 231              		.loc 5 380 9 is_stmt 0 view .LVU46
 232 0006 4FF44C61 		mov	r1, #3264
 233              	.LVL13:
 234              		.loc 5 380 9 view .LVU47
 235 000a E020     		movs	r0, #224
ARM GAS  /tmp/ccnrTkjK.s 			page 17


 236              	.LVL14:
 237              		.loc 5 380 9 view .LVU48
 238 000c FFF7FEFF 		bl	__smalloc__
 239              	.LVL15:
 240              		.loc 5 380 9 view .LVU49
 241              	.LBE102:
 242              	.LBE101:
  13:/mnt/c/Users/31740/Desktop/newcore/block/request_queue.c ****         return NULL;
 243              		.loc 1 13 5 is_stmt 1 view .LVU50
  13:/mnt/c/Users/31740/Desktop/newcore/block/request_queue.c ****         return NULL;
 244              		.loc 1 13 8 is_stmt 0 view .LVU51
 245 0010 0446     		mov	r4, r0
 246 0012 C8B1     		cbz	r0, .L9
  15:/mnt/c/Users/31740/Desktop/newcore/block/request_queue.c ****     q->last_merge = NULL;              // æ— åˆå¹¶è¯·æ±‚
 247              		.loc 1 15 5 is_stmt 1 view .LVU52
  15:/mnt/c/Users/31740/Desktop/newcore/block/request_queue.c ****     q->last_merge = NULL;              // æ— åˆå¹¶è¯·æ±‚
 248              		.loc 1 15 18 is_stmt 0 view .LVU53
 249 0014 0027     		movs	r7, #0
 250 0016 0760     		str	r7, [r0]
  16:/mnt/c/Users/31740/Desktop/newcore/block/request_queue.c ****     spin_lock_init(&q->queue_lock);    // åˆå§‹åŒ–è‡ªæ—‹é”
 251              		.loc 1 16 5 is_stmt 1 view .LVU54
  16:/mnt/c/Users/31740/Desktop/newcore/block/request_queue.c ****     spin_lock_init(&q->queue_lock);    // åˆå§‹åŒ–è‡ªæ—‹é”
 252              		.loc 1 16 19 is_stmt 0 view .LVU55
 253 0018 4760     		str	r7, [r0, #4]
  17:/mnt/c/Users/31740/Desktop/newcore/block/request_queue.c ****     q->quiesce_depth = 0;              // åˆå§‹é™æ­¢æ·±åº¦ä¸º 0
 254              		.loc 1 17 5 is_stmt 1 view .LVU56
 255 001a 0830     		adds	r0, r0, #8
 256              	.LVL16:
  17:/mnt/c/Users/31740/Desktop/newcore/block/request_queue.c ****     q->quiesce_depth = 0;              // åˆå§‹é™æ­¢æ·±åº¦ä¸º 0
 257              		.loc 1 17 5 is_stmt 0 view .LVU57
 258 001c FFF7FEFF 		bl	spin_lock_init
 259              	.LVL17:
  18:/mnt/c/Users/31740/Desktop/newcore/block/request_queue.c ****     q->disk = gd;                      // å…³è”çš„ç£ç›˜è®¾å¤‡
 260              		.loc 1 18 5 is_stmt 1 view .LVU58
  18:/mnt/c/Users/31740/Desktop/newcore/block/request_queue.c ****     q->disk = gd;                      // å…³è”çš„ç£ç›˜è®¾å¤‡
 261              		.loc 1 18 22 is_stmt 0 view .LVU59
 262 0020 A761     		str	r7, [r4, #24]
  19:/mnt/c/Users/31740/Desktop/newcore/block/request_queue.c ****     q->limits.max_sectors = 128;       // å‡è®¾é˜Ÿåˆ—çš„æœ€å¤§æ‰‡åŒºæ•°ä¸º 128
 263              		.loc 1 19 5 is_stmt 1 view .LVU60
  19:/mnt/c/Users/31740/Desktop/newcore/block/request_queue.c ****     q->limits.max_sectors = 128;       // å‡è®¾é˜Ÿåˆ—çš„æœ€å¤§æ‰‡åŒºæ•°ä¸º 128
 264              		.loc 1 19 13 is_stmt 0 view .LVU61
 265 0022 E661     		str	r6, [r4, #28]
  20:/mnt/c/Users/31740/Desktop/newcore/block/request_queue.c ****     q->limits.max_segment_size = 32;   // å‡è®¾æœ€å¤§æ®µæ•°ä¸º 32
 266              		.loc 1 20 5 is_stmt 1 view .LVU62
  20:/mnt/c/Users/31740/Desktop/newcore/block/request_queue.c ****     q->limits.max_segment_size = 32;   // å‡è®¾æœ€å¤§æ®µæ•°ä¸º 32
 267              		.loc 1 20 27 is_stmt 0 view .LVU63
 268 0024 8023     		movs	r3, #128
 269 0026 E363     		str	r3, [r4, #60]
  21:/mnt/c/Users/31740/Desktop/newcore/block/request_queue.c ****     q->id = id;                        // é˜Ÿåˆ—çš„å”¯ä¸€æ ‡è¯†ç¬¦
 270              		.loc 1 21 5 is_stmt 1 view .LVU64
  21:/mnt/c/Users/31740/Desktop/newcore/block/request_queue.c ****     q->id = id;                        // é˜Ÿåˆ—çš„å”¯ä¸€æ ‡è¯†ç¬¦
 271              		.loc 1 21 32 is_stmt 0 view .LVU65
 272 0028 2023     		movs	r3, #32
 273 002a 6364     		str	r3, [r4, #68]
  22:/mnt/c/Users/31740/Desktop/newcore/block/request_queue.c ****     q->nr_requests = 1000;             // é˜Ÿåˆ—æ”¯æŒçš„æœ€å¤§è¯·æ±‚æ•°
 274              		.loc 1 22 5 is_stmt 1 view .LVU66
  22:/mnt/c/Users/31740/Desktop/newcore/block/request_queue.c ****     q->nr_requests = 1000;             // é˜Ÿåˆ—æ”¯æŒçš„æœ€å¤§è¯·æ±‚æ•°
ARM GAS  /tmp/ccnrTkjK.s 			page 18


 275              		.loc 1 22 11 is_stmt 0 view .LVU67
 276 002c C4F8C450 		str	r5, [r4, #196]
  23:/mnt/c/Users/31740/Desktop/newcore/block/request_queue.c ****     INIT_LIST_HEAD(&q->icq_list);      // åˆå§‹åŒ–é“¾è¡¨å¤´
 277              		.loc 1 23 5 is_stmt 1 view .LVU68
  23:/mnt/c/Users/31740/Desktop/newcore/block/request_queue.c ****     INIT_LIST_HEAD(&q->icq_list);      // åˆå§‹åŒ–é“¾è¡¨å¤´
 278              		.loc 1 23 20 is_stmt 0 view .LVU69
 279 0030 4FF47A73 		mov	r3, #1000
 280 0034 C4F8C830 		str	r3, [r4, #200]
  24:/mnt/c/Users/31740/Desktop/newcore/block/request_queue.c ****     q->node = 0;                       // é»˜è®¤ NUMA èŠ‚ç‚¹ä¸º 0
 281              		.loc 1 24 5 is_stmt 1 view .LVU70
 282 0038 04F1CC03 		add	r3, r4, #204
 283              	.LVL18:
 284              	.LBB103:
 285              	.LBI103:
  35:/mnt/c/Users/31740/Desktop/newcore/include/linux/list.h **** {
 286              		.loc 4 35 20 view .LVU71
 287              	.LBB104:
  37:/mnt/c/Users/31740/Desktop/newcore/include/linux/list.h **** 	WRITE_ONCE(list->prev, list);
 288              		.loc 4 37 2 view .LVU72
  37:/mnt/c/Users/31740/Desktop/newcore/include/linux/list.h **** 	WRITE_ONCE(list->prev, list);
 289              		.loc 4 37 2 view .LVU73
 290              	.LBB105:
  37:/mnt/c/Users/31740/Desktop/newcore/include/linux/list.h **** 	WRITE_ONCE(list->prev, list);
 291              		.loc 4 37 2 view .LVU74
  37:/mnt/c/Users/31740/Desktop/newcore/include/linux/list.h **** 	WRITE_ONCE(list->prev, list);
 292              		.loc 4 37 2 view .LVU75
 293              	.LBE105:
  37:/mnt/c/Users/31740/Desktop/newcore/include/linux/list.h **** 	WRITE_ONCE(list->prev, list);
 294              		.loc 4 37 2 discriminator 2 view .LVU76
  37:/mnt/c/Users/31740/Desktop/newcore/include/linux/list.h **** 	WRITE_ONCE(list->prev, list);
 295              		.loc 4 37 2 discriminator 2 view .LVU77
  37:/mnt/c/Users/31740/Desktop/newcore/include/linux/list.h **** 	WRITE_ONCE(list->prev, list);
 296              		.loc 4 37 2 discriminator 2 view .LVU78
 297 003c C4F8CC30 		str	r3, [r4, #204]
  37:/mnt/c/Users/31740/Desktop/newcore/include/linux/list.h **** 	WRITE_ONCE(list->prev, list);
 298              		.loc 4 37 2 discriminator 2 view .LVU79
  37:/mnt/c/Users/31740/Desktop/newcore/include/linux/list.h **** 	WRITE_ONCE(list->prev, list);
 299              		.loc 4 37 2 discriminator 2 view .LVU80
  38:/mnt/c/Users/31740/Desktop/newcore/include/linux/list.h **** }
 300              		.loc 4 38 2 view .LVU81
  38:/mnt/c/Users/31740/Desktop/newcore/include/linux/list.h **** }
 301              		.loc 4 38 2 view .LVU82
 302              	.LBB106:
  38:/mnt/c/Users/31740/Desktop/newcore/include/linux/list.h **** }
 303              		.loc 4 38 2 view .LVU83
  38:/mnt/c/Users/31740/Desktop/newcore/include/linux/list.h **** }
 304              		.loc 4 38 2 view .LVU84
 305              	.LBE106:
  38:/mnt/c/Users/31740/Desktop/newcore/include/linux/list.h **** }
 306              		.loc 4 38 2 discriminator 2 view .LVU85
  38:/mnt/c/Users/31740/Desktop/newcore/include/linux/list.h **** }
 307              		.loc 4 38 2 discriminator 2 view .LVU86
  38:/mnt/c/Users/31740/Desktop/newcore/include/linux/list.h **** }
 308              		.loc 4 38 2 discriminator 2 view .LVU87
 309 0040 C4F8D030 		str	r3, [r4, #208]
  38:/mnt/c/Users/31740/Desktop/newcore/include/linux/list.h **** }
 310              		.loc 4 38 2 discriminator 2 view .LVU88
ARM GAS  /tmp/ccnrTkjK.s 			page 19


  38:/mnt/c/Users/31740/Desktop/newcore/include/linux/list.h **** }
 311              		.loc 4 38 2 discriminator 2 view .LVU89
 312              	.LVL19:
  38:/mnt/c/Users/31740/Desktop/newcore/include/linux/list.h **** }
 313              		.loc 4 38 2 is_stmt 0 discriminator 2 view .LVU90
 314              	.LBE104:
 315              	.LBE103:
  25:/mnt/c/Users/31740/Desktop/newcore/block/request_queue.c ****     return q;
 316              		.loc 1 25 5 is_stmt 1 view .LVU91
  25:/mnt/c/Users/31740/Desktop/newcore/block/request_queue.c ****     return q;
 317              		.loc 1 25 13 is_stmt 0 view .LVU92
 318 0044 C4F8D470 		str	r7, [r4, #212]
  26:/mnt/c/Users/31740/Desktop/newcore/block/request_queue.c **** }
 319              		.loc 1 26 5 is_stmt 1 view .LVU93
 320              	.L9:
  27:/mnt/c/Users/31740/Desktop/newcore/block/request_queue.c **** EXPORT_SYMBOL(request_queue_init);
 321              		.loc 1 27 1 is_stmt 0 view .LVU94
 322 0048 2046     		mov	r0, r4
 323 004a F8BD     		pop	{r3, r4, r5, r6, r7, pc}
  27:/mnt/c/Users/31740/Desktop/newcore/block/request_queue.c **** EXPORT_SYMBOL(request_queue_init);
 324              		.loc 1 27 1 view .LVU95
 325              		.cfi_endproc
 326              	.LFE1033:
 328              		.section	.text.__spin_lock,"ax",%progbits
 329              		.align	1
 330              		.syntax unified
 331              		.thumb
 332              		.thumb_func
 334              	__spin_lock:
 335              	.LVL20:
 336              	.LFB227:
  15:/mnt/c/Users/31740/Desktop/newcore/arch/arm_m/include/asm/spinlock.h **** 
 337              		.loc 2 15 47 is_stmt 1 view -0
 338              		.cfi_startproc
 339              		@ args = 0, pretend = 0, frame = 0
 340              		@ frame_needed = 0, uses_anonymous_args = 0
  15:/mnt/c/Users/31740/Desktop/newcore/arch/arm_m/include/asm/spinlock.h **** 
 341              		.loc 2 15 47 is_stmt 0 view .LVU97
 342 0000 38B5     		push	{r3, r4, r5, lr}
 343              	.LCFI5:
 344              		.cfi_def_cfa_offset 16
 345              		.cfi_offset 3, -16
 346              		.cfi_offset 4, -12
 347              		.cfi_offset 5, -8
 348              		.cfi_offset 14, -4
 349 0002 0446     		mov	r4, r0
  17:/mnt/c/Users/31740/Desktop/newcore/arch/arm_m/include/asm/spinlock.h ****     if(lock->flag == 0){
 350              		.loc 2 17 5 is_stmt 1 view .LVU98
 351 0004 FFF7FEFF 		bl	stop_all_scheduler
 352              	.LVL21:
  18:/mnt/c/Users/31740/Desktop/newcore/arch/arm_m/include/asm/spinlock.h ****           lock->flag = 1;  
 353              		.loc 2 18 5 view .LVU99
  18:/mnt/c/Users/31740/Desktop/newcore/arch/arm_m/include/asm/spinlock.h ****           lock->flag = 1;  
 354              		.loc 2 18 12 is_stmt 0 view .LVU100
 355 0008 2368     		ldr	r3, [r4]
  18:/mnt/c/Users/31740/Desktop/newcore/arch/arm_m/include/asm/spinlock.h ****           lock->flag = 1;  
 356              		.loc 2 18 7 view .LVU101
ARM GAS  /tmp/ccnrTkjK.s 			page 20


 357 000a 2BB9     		cbnz	r3, .L13
  19:/mnt/c/Users/31740/Desktop/newcore/arch/arm_m/include/asm/spinlock.h ****           start_all_scheduler();
 358              		.loc 2 19 11 is_stmt 1 view .LVU102
  19:/mnt/c/Users/31740/Desktop/newcore/arch/arm_m/include/asm/spinlock.h ****           start_all_scheduler();
 359              		.loc 2 19 22 is_stmt 0 view .LVU103
 360 000c 0125     		movs	r5, #1
 361 000e 2560     		str	r5, [r4]
  20:/mnt/c/Users/31740/Desktop/newcore/arch/arm_m/include/asm/spinlock.h ****         return 1;
 362              		.loc 2 20 11 is_stmt 1 view .LVU104
 363 0010 FFF7FEFF 		bl	start_all_scheduler
 364              	.LVL22:
  21:/mnt/c/Users/31740/Desktop/newcore/arch/arm_m/include/asm/spinlock.h ****     }
 365              		.loc 2 21 9 view .LVU105
  21:/mnt/c/Users/31740/Desktop/newcore/arch/arm_m/include/asm/spinlock.h ****     }
 366              		.loc 2 21 16 is_stmt 0 view .LVU106
 367 0014 2846     		mov	r0, r5
 368              	.L12:
  28:/mnt/c/Users/31740/Desktop/newcore/arch/arm_m/include/asm/spinlock.h **** 
 369              		.loc 2 28 1 view .LVU107
 370 0016 38BD     		pop	{r3, r4, r5, pc}
 371              	.LVL23:
 372              	.L13:
  25:/mnt/c/Users/31740/Desktop/newcore/arch/arm_m/include/asm/spinlock.h ****         return 0;
 373              		.loc 2 25 9 is_stmt 1 view .LVU108
 374 0018 FFF7FEFF 		bl	start_all_scheduler
 375              	.LVL24:
  26:/mnt/c/Users/31740/Desktop/newcore/arch/arm_m/include/asm/spinlock.h ****     }
 376              		.loc 2 26 9 view .LVU109
  26:/mnt/c/Users/31740/Desktop/newcore/arch/arm_m/include/asm/spinlock.h ****     }
 377              		.loc 2 26 16 is_stmt 0 view .LVU110
 378 001c 0020     		movs	r0, #0
 379 001e FAE7     		b	.L12
 380              		.cfi_endproc
 381              	.LFE227:
 383              		.section	.text.spin_lock,"ax",%progbits
 384              		.align	1
 385              		.syntax unified
 386              		.thumb
 387              		.thumb_func
 389              	spin_lock:
 390              	.LVL25:
 391              	.LFB230:
  15:/mnt/c/Users/31740/Desktop/newcore/include/linux/spinlock.h ****     while (1)
 392              		.loc 3 15 1 is_stmt 1 view -0
 393              		.cfi_startproc
 394              		@ args = 0, pretend = 0, frame = 0
 395              		@ frame_needed = 0, uses_anonymous_args = 0
  15:/mnt/c/Users/31740/Desktop/newcore/include/linux/spinlock.h ****     while (1)
 396              		.loc 3 15 1 is_stmt 0 view .LVU112
 397 0000 38B5     		push	{r3, r4, r5, lr}
 398              	.LCFI6:
 399              		.cfi_def_cfa_offset 16
 400              		.cfi_offset 3, -16
 401              		.cfi_offset 4, -12
 402              		.cfi_offset 5, -8
 403              		.cfi_offset 14, -4
 404 0002 0446     		mov	r4, r0
ARM GAS  /tmp/ccnrTkjK.s 			page 21


 405 0004 06E0     		b	.L19
 406              	.LVL26:
 407              	.L21:
  19:/mnt/c/Users/31740/Desktop/newcore/include/linux/spinlock.h ****             break;
 408              		.loc 3 19 13 is_stmt 1 view .LVU113
  19:/mnt/c/Users/31740/Desktop/newcore/include/linux/spinlock.h ****             break;
 409              		.loc 3 19 27 is_stmt 0 view .LVU114
 410 0006 FFF7FEFF 		bl	get_current_task
 411              	.LVL27:
  19:/mnt/c/Users/31740/Desktop/newcore/include/linux/spinlock.h ****             break;
 412              		.loc 3 19 25 discriminator 1 view .LVU115
 413 000a 2060     		str	r0, [r4]
  20:/mnt/c/Users/31740/Desktop/newcore/include/linux/spinlock.h ****         }
 414              		.loc 3 20 13 is_stmt 1 view .LVU116
 415              	.L16:
  29:/mnt/c/Users/31740/Desktop/newcore/include/linux/spinlock.h **** 
 416              		.loc 3 29 1 is_stmt 0 view .LVU117
 417 000c 38BD     		pop	{r3, r4, r5, pc}
 418              	.LVL28:
 419              	.L22:
  26:/mnt/c/Users/31740/Desktop/newcore/include/linux/spinlock.h ****         }
 420              		.loc 3 26 13 is_stmt 1 view .LVU118
 421 000e 0520     		movs	r0, #5
 422 0010 FFF7FEFF 		bl	__delay
 423              	.LVL29:
  16:/mnt/c/Users/31740/Desktop/newcore/include/linux/spinlock.h ****     {
 424              		.loc 3 16 11 view .LVU119
 425              	.L19:
  16:/mnt/c/Users/31740/Desktop/newcore/include/linux/spinlock.h ****     {
 426              		.loc 3 16 5 view .LVU120
  18:/mnt/c/Users/31740/Desktop/newcore/include/linux/spinlock.h ****             lock->owner = get_current_task();
 427              		.loc 3 18 9 view .LVU121
  18:/mnt/c/Users/31740/Desktop/newcore/include/linux/spinlock.h ****             lock->owner = get_current_task();
 428              		.loc 3 18 12 is_stmt 0 view .LVU122
 429 0014 2046     		mov	r0, r4
 430 0016 FFF7FEFF 		bl	__spin_lock
 431              	.LVL30:
  18:/mnt/c/Users/31740/Desktop/newcore/include/linux/spinlock.h ****             lock->owner = get_current_task();
 432              		.loc 3 18 11 discriminator 1 view .LVU123
 433 001a 0128     		cmp	r0, #1
 434 001c F3D0     		beq	.L21
  22:/mnt/c/Users/31740/Desktop/newcore/include/linux/spinlock.h ****             return;   
 435              		.loc 3 22 15 is_stmt 1 view .LVU124
  22:/mnt/c/Users/31740/Desktop/newcore/include/linux/spinlock.h ****             return;   
 436              		.loc 3 22 22 is_stmt 0 view .LVU125
 437 001e 2568     		ldr	r5, [r4]
  22:/mnt/c/Users/31740/Desktop/newcore/include/linux/spinlock.h ****             return;   
 438              		.loc 3 22 33 view .LVU126
 439 0020 FFF7FEFF 		bl	get_current_task
 440              	.LVL31:
  22:/mnt/c/Users/31740/Desktop/newcore/include/linux/spinlock.h ****             return;   
 441              		.loc 3 22 17 discriminator 1 view .LVU127
 442 0024 8542     		cmp	r5, r0
 443 0026 F2D1     		bne	.L22
 444 0028 F0E7     		b	.L16
 445              		.cfi_endproc
 446              	.LFE230:
ARM GAS  /tmp/ccnrTkjK.s 			page 22


 448              		.section	.text.request_queue_remove,"ax",%progbits
 449              		.align	1
 450              		.global	request_queue_remove
 451              		.syntax unified
 452              		.thumb
 453              		.thumb_func
 455              	request_queue_remove:
 456              	.LVL32:
 457              	.LFB1036:
  38:/mnt/c/Users/31740/Desktop/newcore/block/request_queue.c **** EXPORT_SYMBOL(request_queue_add);
  39:/mnt/c/Users/31740/Desktop/newcore/block/request_queue.c **** 
  40:/mnt/c/Users/31740/Desktop/newcore/block/request_queue.c **** void request_queue_remove(struct request_queue *q, struct request *req)
  41:/mnt/c/Users/31740/Desktop/newcore/block/request_queue.c **** {
 458              		.loc 1 41 1 is_stmt 1 view -0
 459              		.cfi_startproc
 460              		@ args = 0, pretend = 0, frame = 0
 461              		@ frame_needed = 0, uses_anonymous_args = 0
 462              		.loc 1 41 1 is_stmt 0 view .LVU129
 463 0000 38B5     		push	{r3, r4, r5, lr}
 464              	.LCFI7:
 465              		.cfi_def_cfa_offset 16
 466              		.cfi_offset 3, -16
 467              		.cfi_offset 4, -12
 468              		.cfi_offset 5, -8
 469              		.cfi_offset 14, -4
 470 0002 0C46     		mov	r4, r1
  42:/mnt/c/Users/31740/Desktop/newcore/block/request_queue.c ****     spin_lock(&q->queue_lock);
 471              		.loc 1 42 5 is_stmt 1 view .LVU130
 472 0004 00F10805 		add	r5, r0, #8
 473 0008 2846     		mov	r0, r5
 474              	.LVL33:
 475              		.loc 1 42 5 is_stmt 0 view .LVU131
 476 000a FFF7FEFF 		bl	spin_lock
 477              	.LVL34:
  43:/mnt/c/Users/31740/Desktop/newcore/block/request_queue.c ****     if (!list_empty(&req->queuelist)) {
 478              		.loc 1 43 5 is_stmt 1 view .LVU132
 479              		.loc 1 43 21 is_stmt 0 view .LVU133
 480 000e 04F12803 		add	r3, r4, #40
 481              	.LVL35:
 482              	.LBB107:
 483              	.LBI107:
 184:/mnt/c/Users/31740/Desktop/newcore/include/linux/list.h **** }
 185:/mnt/c/Users/31740/Desktop/newcore/include/linux/list.h **** 
 186:/mnt/c/Users/31740/Desktop/newcore/include/linux/list.h **** /*
 187:/mnt/c/Users/31740/Desktop/newcore/include/linux/list.h ****  * Delete a list entry by making the prev/next entries
 188:/mnt/c/Users/31740/Desktop/newcore/include/linux/list.h ****  * point to each other.
 189:/mnt/c/Users/31740/Desktop/newcore/include/linux/list.h ****  *
 190:/mnt/c/Users/31740/Desktop/newcore/include/linux/list.h ****  * This is only for internal list manipulation where we know
 191:/mnt/c/Users/31740/Desktop/newcore/include/linux/list.h ****  * the prev/next entries already!
 192:/mnt/c/Users/31740/Desktop/newcore/include/linux/list.h ****  */
 193:/mnt/c/Users/31740/Desktop/newcore/include/linux/list.h **** static inline void __list_del(struct list_head * prev, struct list_head * next)
 194:/mnt/c/Users/31740/Desktop/newcore/include/linux/list.h **** {
 195:/mnt/c/Users/31740/Desktop/newcore/include/linux/list.h **** 	next->prev = prev;
 196:/mnt/c/Users/31740/Desktop/newcore/include/linux/list.h **** 	WRITE_ONCE(prev->next, next);
 197:/mnt/c/Users/31740/Desktop/newcore/include/linux/list.h **** }
 198:/mnt/c/Users/31740/Desktop/newcore/include/linux/list.h **** 
 199:/mnt/c/Users/31740/Desktop/newcore/include/linux/list.h **** /*
ARM GAS  /tmp/ccnrTkjK.s 			page 23


 200:/mnt/c/Users/31740/Desktop/newcore/include/linux/list.h ****  * Delete a list entry and clear the 'prev' pointer.
 201:/mnt/c/Users/31740/Desktop/newcore/include/linux/list.h ****  *
 202:/mnt/c/Users/31740/Desktop/newcore/include/linux/list.h ****  * This is a special-purpose list clearing method used in the networking code
 203:/mnt/c/Users/31740/Desktop/newcore/include/linux/list.h ****  * for lists allocated as per-cpu, where we don't want to incur the extra
 204:/mnt/c/Users/31740/Desktop/newcore/include/linux/list.h ****  * WRITE_ONCE() overhead of a regular list_del_init(). The code that uses this
 205:/mnt/c/Users/31740/Desktop/newcore/include/linux/list.h ****  * needs to check the node 'prev' pointer instead of calling list_empty().
 206:/mnt/c/Users/31740/Desktop/newcore/include/linux/list.h ****  */
 207:/mnt/c/Users/31740/Desktop/newcore/include/linux/list.h **** static inline void __list_del_clearprev(struct list_head *entry)
 208:/mnt/c/Users/31740/Desktop/newcore/include/linux/list.h **** {
 209:/mnt/c/Users/31740/Desktop/newcore/include/linux/list.h **** 	__list_del(entry->prev, entry->next);
 210:/mnt/c/Users/31740/Desktop/newcore/include/linux/list.h **** 	entry->prev = NULL;
 211:/mnt/c/Users/31740/Desktop/newcore/include/linux/list.h **** }
 212:/mnt/c/Users/31740/Desktop/newcore/include/linux/list.h **** 
 213:/mnt/c/Users/31740/Desktop/newcore/include/linux/list.h **** static inline void __list_del_entry(struct list_head *entry)
 214:/mnt/c/Users/31740/Desktop/newcore/include/linux/list.h **** {
 215:/mnt/c/Users/31740/Desktop/newcore/include/linux/list.h **** 	if (!__list_del_entry_valid(entry))
 216:/mnt/c/Users/31740/Desktop/newcore/include/linux/list.h **** 		return;
 217:/mnt/c/Users/31740/Desktop/newcore/include/linux/list.h **** 
 218:/mnt/c/Users/31740/Desktop/newcore/include/linux/list.h **** 	__list_del(entry->prev, entry->next);
 219:/mnt/c/Users/31740/Desktop/newcore/include/linux/list.h **** }
 220:/mnt/c/Users/31740/Desktop/newcore/include/linux/list.h **** 
 221:/mnt/c/Users/31740/Desktop/newcore/include/linux/list.h **** /**
 222:/mnt/c/Users/31740/Desktop/newcore/include/linux/list.h ****  * list_del - deletes entry from list.
 223:/mnt/c/Users/31740/Desktop/newcore/include/linux/list.h ****  * @entry: the element to delete from the list.
 224:/mnt/c/Users/31740/Desktop/newcore/include/linux/list.h ****  * Note: list_empty() on entry does not return true after this, the entry is
 225:/mnt/c/Users/31740/Desktop/newcore/include/linux/list.h ****  * in an undefined state.
 226:/mnt/c/Users/31740/Desktop/newcore/include/linux/list.h ****  */
 227:/mnt/c/Users/31740/Desktop/newcore/include/linux/list.h **** static inline void list_del(struct list_head *entry)
 228:/mnt/c/Users/31740/Desktop/newcore/include/linux/list.h **** {
 229:/mnt/c/Users/31740/Desktop/newcore/include/linux/list.h **** 	__list_del_entry(entry);
 230:/mnt/c/Users/31740/Desktop/newcore/include/linux/list.h **** 	entry->next = LIST_POISON1;
 231:/mnt/c/Users/31740/Desktop/newcore/include/linux/list.h **** 	entry->prev = LIST_POISON2;
 232:/mnt/c/Users/31740/Desktop/newcore/include/linux/list.h **** }
 233:/mnt/c/Users/31740/Desktop/newcore/include/linux/list.h **** 
 234:/mnt/c/Users/31740/Desktop/newcore/include/linux/list.h **** /**
 235:/mnt/c/Users/31740/Desktop/newcore/include/linux/list.h ****  * list_replace - replace old entry by new one
 236:/mnt/c/Users/31740/Desktop/newcore/include/linux/list.h ****  * @old : the element to be replaced
 237:/mnt/c/Users/31740/Desktop/newcore/include/linux/list.h ****  * @new : the new element to insert
 238:/mnt/c/Users/31740/Desktop/newcore/include/linux/list.h ****  *
 239:/mnt/c/Users/31740/Desktop/newcore/include/linux/list.h ****  * If @old was empty, it will be overwritten.
 240:/mnt/c/Users/31740/Desktop/newcore/include/linux/list.h ****  */
 241:/mnt/c/Users/31740/Desktop/newcore/include/linux/list.h **** static inline void list_replace(struct list_head *old,
 242:/mnt/c/Users/31740/Desktop/newcore/include/linux/list.h **** 				struct list_head *new)
 243:/mnt/c/Users/31740/Desktop/newcore/include/linux/list.h **** {
 244:/mnt/c/Users/31740/Desktop/newcore/include/linux/list.h **** 	new->next = old->next;
 245:/mnt/c/Users/31740/Desktop/newcore/include/linux/list.h **** 	new->next->prev = new;
 246:/mnt/c/Users/31740/Desktop/newcore/include/linux/list.h **** 	new->prev = old->prev;
 247:/mnt/c/Users/31740/Desktop/newcore/include/linux/list.h **** 	new->prev->next = new;
 248:/mnt/c/Users/31740/Desktop/newcore/include/linux/list.h **** }
 249:/mnt/c/Users/31740/Desktop/newcore/include/linux/list.h **** 
 250:/mnt/c/Users/31740/Desktop/newcore/include/linux/list.h **** /**
 251:/mnt/c/Users/31740/Desktop/newcore/include/linux/list.h ****  * list_replace_init - replace old entry by new one and initialize the old one
 252:/mnt/c/Users/31740/Desktop/newcore/include/linux/list.h ****  * @old : the element to be replaced
 253:/mnt/c/Users/31740/Desktop/newcore/include/linux/list.h ****  * @new : the new element to insert
 254:/mnt/c/Users/31740/Desktop/newcore/include/linux/list.h ****  *
 255:/mnt/c/Users/31740/Desktop/newcore/include/linux/list.h ****  * If @old was empty, it will be overwritten.
 256:/mnt/c/Users/31740/Desktop/newcore/include/linux/list.h ****  */
ARM GAS  /tmp/ccnrTkjK.s 			page 24


 257:/mnt/c/Users/31740/Desktop/newcore/include/linux/list.h **** static inline void list_replace_init(struct list_head *old,
 258:/mnt/c/Users/31740/Desktop/newcore/include/linux/list.h **** 				     struct list_head *new)
 259:/mnt/c/Users/31740/Desktop/newcore/include/linux/list.h **** {
 260:/mnt/c/Users/31740/Desktop/newcore/include/linux/list.h **** 	list_replace(old, new);
 261:/mnt/c/Users/31740/Desktop/newcore/include/linux/list.h **** 	INIT_LIST_HEAD(old);
 262:/mnt/c/Users/31740/Desktop/newcore/include/linux/list.h **** }
 263:/mnt/c/Users/31740/Desktop/newcore/include/linux/list.h **** 
 264:/mnt/c/Users/31740/Desktop/newcore/include/linux/list.h **** /**
 265:/mnt/c/Users/31740/Desktop/newcore/include/linux/list.h ****  * list_swap - replace entry1 with entry2 and re-add entry1 at entry2's position
 266:/mnt/c/Users/31740/Desktop/newcore/include/linux/list.h ****  * @entry1: the location to place entry2
 267:/mnt/c/Users/31740/Desktop/newcore/include/linux/list.h ****  * @entry2: the location to place entry1
 268:/mnt/c/Users/31740/Desktop/newcore/include/linux/list.h ****  */
 269:/mnt/c/Users/31740/Desktop/newcore/include/linux/list.h **** static inline void list_swap(struct list_head *entry1,
 270:/mnt/c/Users/31740/Desktop/newcore/include/linux/list.h **** 			     struct list_head *entry2)
 271:/mnt/c/Users/31740/Desktop/newcore/include/linux/list.h **** {
 272:/mnt/c/Users/31740/Desktop/newcore/include/linux/list.h **** 	struct list_head *pos = entry2->prev;
 273:/mnt/c/Users/31740/Desktop/newcore/include/linux/list.h **** 
 274:/mnt/c/Users/31740/Desktop/newcore/include/linux/list.h **** 	list_del(entry2);
 275:/mnt/c/Users/31740/Desktop/newcore/include/linux/list.h **** 	list_replace(entry1, entry2);
 276:/mnt/c/Users/31740/Desktop/newcore/include/linux/list.h **** 	if (pos == entry1)
 277:/mnt/c/Users/31740/Desktop/newcore/include/linux/list.h **** 		pos = entry2;
 278:/mnt/c/Users/31740/Desktop/newcore/include/linux/list.h **** 	list_add(entry1, pos);
 279:/mnt/c/Users/31740/Desktop/newcore/include/linux/list.h **** }
 280:/mnt/c/Users/31740/Desktop/newcore/include/linux/list.h **** 
 281:/mnt/c/Users/31740/Desktop/newcore/include/linux/list.h **** /**
 282:/mnt/c/Users/31740/Desktop/newcore/include/linux/list.h ****  * list_del_init - deletes entry from list and reinitialize it.
 283:/mnt/c/Users/31740/Desktop/newcore/include/linux/list.h ****  * @entry: the element to delete from the list.
 284:/mnt/c/Users/31740/Desktop/newcore/include/linux/list.h ****  */
 285:/mnt/c/Users/31740/Desktop/newcore/include/linux/list.h **** static inline void list_del_init(struct list_head *entry)
 286:/mnt/c/Users/31740/Desktop/newcore/include/linux/list.h **** {
 287:/mnt/c/Users/31740/Desktop/newcore/include/linux/list.h **** 	__list_del_entry(entry);
 288:/mnt/c/Users/31740/Desktop/newcore/include/linux/list.h **** 	INIT_LIST_HEAD(entry);
 289:/mnt/c/Users/31740/Desktop/newcore/include/linux/list.h **** }
 290:/mnt/c/Users/31740/Desktop/newcore/include/linux/list.h **** 
 291:/mnt/c/Users/31740/Desktop/newcore/include/linux/list.h **** /**
 292:/mnt/c/Users/31740/Desktop/newcore/include/linux/list.h ****  * list_move - delete from one list and add as another's head
 293:/mnt/c/Users/31740/Desktop/newcore/include/linux/list.h ****  * @list: the entry to move
 294:/mnt/c/Users/31740/Desktop/newcore/include/linux/list.h ****  * @head: the head that will precede our entry
 295:/mnt/c/Users/31740/Desktop/newcore/include/linux/list.h ****  */
 296:/mnt/c/Users/31740/Desktop/newcore/include/linux/list.h **** static inline void list_move(struct list_head *list, struct list_head *head)
 297:/mnt/c/Users/31740/Desktop/newcore/include/linux/list.h **** {
 298:/mnt/c/Users/31740/Desktop/newcore/include/linux/list.h **** 	__list_del_entry(list);
 299:/mnt/c/Users/31740/Desktop/newcore/include/linux/list.h **** 	list_add(list, head);
 300:/mnt/c/Users/31740/Desktop/newcore/include/linux/list.h **** }
 301:/mnt/c/Users/31740/Desktop/newcore/include/linux/list.h **** 
 302:/mnt/c/Users/31740/Desktop/newcore/include/linux/list.h **** /**
 303:/mnt/c/Users/31740/Desktop/newcore/include/linux/list.h ****  * list_move_tail - delete from one list and add as another's tail
 304:/mnt/c/Users/31740/Desktop/newcore/include/linux/list.h ****  * @list: the entry to move
 305:/mnt/c/Users/31740/Desktop/newcore/include/linux/list.h ****  * @head: the head that will follow our entry
 306:/mnt/c/Users/31740/Desktop/newcore/include/linux/list.h ****  */
 307:/mnt/c/Users/31740/Desktop/newcore/include/linux/list.h **** static inline void list_move_tail(struct list_head *list,
 308:/mnt/c/Users/31740/Desktop/newcore/include/linux/list.h **** 				  struct list_head *head)
 309:/mnt/c/Users/31740/Desktop/newcore/include/linux/list.h **** {
 310:/mnt/c/Users/31740/Desktop/newcore/include/linux/list.h **** 	__list_del_entry(list);
 311:/mnt/c/Users/31740/Desktop/newcore/include/linux/list.h **** 	list_add_tail(list, head);
 312:/mnt/c/Users/31740/Desktop/newcore/include/linux/list.h **** }
 313:/mnt/c/Users/31740/Desktop/newcore/include/linux/list.h **** 
ARM GAS  /tmp/ccnrTkjK.s 			page 25


 314:/mnt/c/Users/31740/Desktop/newcore/include/linux/list.h **** /**
 315:/mnt/c/Users/31740/Desktop/newcore/include/linux/list.h ****  * list_bulk_move_tail - move a subsection of a list to its tail
 316:/mnt/c/Users/31740/Desktop/newcore/include/linux/list.h ****  * @head: the head that will follow our entry
 317:/mnt/c/Users/31740/Desktop/newcore/include/linux/list.h ****  * @first: first entry to move
 318:/mnt/c/Users/31740/Desktop/newcore/include/linux/list.h ****  * @last: last entry to move, can be the same as first
 319:/mnt/c/Users/31740/Desktop/newcore/include/linux/list.h ****  *
 320:/mnt/c/Users/31740/Desktop/newcore/include/linux/list.h ****  * Move all entries between @first and including @last before @head.
 321:/mnt/c/Users/31740/Desktop/newcore/include/linux/list.h ****  * All three entries must belong to the same linked list.
 322:/mnt/c/Users/31740/Desktop/newcore/include/linux/list.h ****  */
 323:/mnt/c/Users/31740/Desktop/newcore/include/linux/list.h **** static inline void list_bulk_move_tail(struct list_head *head,
 324:/mnt/c/Users/31740/Desktop/newcore/include/linux/list.h **** 				       struct list_head *first,
 325:/mnt/c/Users/31740/Desktop/newcore/include/linux/list.h **** 				       struct list_head *last)
 326:/mnt/c/Users/31740/Desktop/newcore/include/linux/list.h **** {
 327:/mnt/c/Users/31740/Desktop/newcore/include/linux/list.h **** 	first->prev->next = last->next;
 328:/mnt/c/Users/31740/Desktop/newcore/include/linux/list.h **** 	last->next->prev = first->prev;
 329:/mnt/c/Users/31740/Desktop/newcore/include/linux/list.h **** 
 330:/mnt/c/Users/31740/Desktop/newcore/include/linux/list.h **** 	head->prev->next = first;
 331:/mnt/c/Users/31740/Desktop/newcore/include/linux/list.h **** 	first->prev = head->prev;
 332:/mnt/c/Users/31740/Desktop/newcore/include/linux/list.h **** 
 333:/mnt/c/Users/31740/Desktop/newcore/include/linux/list.h **** 	last->next = head;
 334:/mnt/c/Users/31740/Desktop/newcore/include/linux/list.h **** 	head->prev = last;
 335:/mnt/c/Users/31740/Desktop/newcore/include/linux/list.h **** }
 336:/mnt/c/Users/31740/Desktop/newcore/include/linux/list.h **** 
 337:/mnt/c/Users/31740/Desktop/newcore/include/linux/list.h **** /**
 338:/mnt/c/Users/31740/Desktop/newcore/include/linux/list.h ****  * list_is_first -- tests whether @list is the first entry in list @head
 339:/mnt/c/Users/31740/Desktop/newcore/include/linux/list.h ****  * @list: the entry to test
 340:/mnt/c/Users/31740/Desktop/newcore/include/linux/list.h ****  * @head: the head of the list
 341:/mnt/c/Users/31740/Desktop/newcore/include/linux/list.h ****  */
 342:/mnt/c/Users/31740/Desktop/newcore/include/linux/list.h **** static inline int list_is_first(const struct list_head *list, const struct list_head *head)
 343:/mnt/c/Users/31740/Desktop/newcore/include/linux/list.h **** {
 344:/mnt/c/Users/31740/Desktop/newcore/include/linux/list.h **** 	return list->prev == head;
 345:/mnt/c/Users/31740/Desktop/newcore/include/linux/list.h **** }
 346:/mnt/c/Users/31740/Desktop/newcore/include/linux/list.h **** 
 347:/mnt/c/Users/31740/Desktop/newcore/include/linux/list.h **** /**
 348:/mnt/c/Users/31740/Desktop/newcore/include/linux/list.h ****  * list_is_last - tests whether @list is the last entry in list @head
 349:/mnt/c/Users/31740/Desktop/newcore/include/linux/list.h ****  * @list: the entry to test
 350:/mnt/c/Users/31740/Desktop/newcore/include/linux/list.h ****  * @head: the head of the list
 351:/mnt/c/Users/31740/Desktop/newcore/include/linux/list.h ****  */
 352:/mnt/c/Users/31740/Desktop/newcore/include/linux/list.h **** static inline int list_is_last(const struct list_head *list, const struct list_head *head)
 353:/mnt/c/Users/31740/Desktop/newcore/include/linux/list.h **** {
 354:/mnt/c/Users/31740/Desktop/newcore/include/linux/list.h **** 	return list->next == head;
 355:/mnt/c/Users/31740/Desktop/newcore/include/linux/list.h **** }
 356:/mnt/c/Users/31740/Desktop/newcore/include/linux/list.h **** 
 357:/mnt/c/Users/31740/Desktop/newcore/include/linux/list.h **** /**
 358:/mnt/c/Users/31740/Desktop/newcore/include/linux/list.h ****  * list_is_head - tests whether @list is the list @head
 359:/mnt/c/Users/31740/Desktop/newcore/include/linux/list.h ****  * @list: the entry to test
 360:/mnt/c/Users/31740/Desktop/newcore/include/linux/list.h ****  * @head: the head of the list
 361:/mnt/c/Users/31740/Desktop/newcore/include/linux/list.h ****  */
 362:/mnt/c/Users/31740/Desktop/newcore/include/linux/list.h **** static inline int list_is_head(const struct list_head *list, const struct list_head *head)
 363:/mnt/c/Users/31740/Desktop/newcore/include/linux/list.h **** {
 364:/mnt/c/Users/31740/Desktop/newcore/include/linux/list.h **** 	return list == head;
 365:/mnt/c/Users/31740/Desktop/newcore/include/linux/list.h **** }
 366:/mnt/c/Users/31740/Desktop/newcore/include/linux/list.h **** 
 367:/mnt/c/Users/31740/Desktop/newcore/include/linux/list.h **** /**
 368:/mnt/c/Users/31740/Desktop/newcore/include/linux/list.h ****  * list_empty - tests whether a list is empty
 369:/mnt/c/Users/31740/Desktop/newcore/include/linux/list.h ****  * @head: the list to test.
 370:/mnt/c/Users/31740/Desktop/newcore/include/linux/list.h ****  */
ARM GAS  /tmp/ccnrTkjK.s 			page 26


 371:/mnt/c/Users/31740/Desktop/newcore/include/linux/list.h **** static inline int list_empty(const struct list_head *head)
 484              		.loc 4 371 19 is_stmt 1 view .LVU134
 372:/mnt/c/Users/31740/Desktop/newcore/include/linux/list.h **** {
 373:/mnt/c/Users/31740/Desktop/newcore/include/linux/list.h **** 	return READ_ONCE(head->next) == head;
 485              		.loc 4 373 2 view .LVU135
 486              	.LBB108:
 487              		.loc 4 373 9 view .LVU136
 488              	.LBB109:
 489              		.loc 4 373 9 view .LVU137
 490              		.loc 4 373 9 view .LVU138
 491              	.LBE109:
 492              		.loc 4 373 9 discriminator 2 view .LVU139
 493              		.loc 4 373 9 discriminator 2 view .LVU140
 494 0012 A26A     		ldr	r2, [r4, #40]
 495              	.LVL36:
 496              		.loc 4 373 9 is_stmt 0 discriminator 2 view .LVU141
 497              	.LBE108:
 498              	.LBE107:
 499              		.loc 1 43 8 discriminator 1 view .LVU142
 500 0014 9342     		cmp	r3, r2
 501 0016 08D0     		beq	.L24
  44:/mnt/c/Users/31740/Desktop/newcore/block/request_queue.c ****         list_del_init(&req->queuelist);  // ç¡®ä¿ `req->queuelist` å˜ä¸ºæœªä½¿ç”¨çŠ¶æ€
 502              		.loc 1 44 9 is_stmt 1 view .LVU143
 503              	.LVL37:
 504              	.LBB110:
 505              	.LBI110:
 285:/mnt/c/Users/31740/Desktop/newcore/include/linux/list.h **** {
 506              		.loc 4 285 20 view .LVU144
 287:/mnt/c/Users/31740/Desktop/newcore/include/linux/list.h **** 	INIT_LIST_HEAD(entry);
 507              		.loc 4 287 2 view .LVU145
 508              	.LBB111:
 509              	.LBI111:
 213:/mnt/c/Users/31740/Desktop/newcore/include/linux/list.h **** {
 510              		.loc 4 213 20 view .LVU146
 511              	.LBB112:
 215:/mnt/c/Users/31740/Desktop/newcore/include/linux/list.h **** 		return;
 512              		.loc 4 215 2 view .LVU147
 218:/mnt/c/Users/31740/Desktop/newcore/include/linux/list.h **** }
 513              		.loc 4 218 2 view .LVU148
 514 0018 E26A     		ldr	r2, [r4, #44]
 515 001a A16A     		ldr	r1, [r4, #40]
 516              	.LVL38:
 517              	.LBB113:
 518              	.LBI113:
 193:/mnt/c/Users/31740/Desktop/newcore/include/linux/list.h **** {
 519              		.loc 4 193 20 view .LVU149
 520              	.LBB114:
 195:/mnt/c/Users/31740/Desktop/newcore/include/linux/list.h **** 	WRITE_ONCE(prev->next, next);
 521              		.loc 4 195 2 view .LVU150
 195:/mnt/c/Users/31740/Desktop/newcore/include/linux/list.h **** 	WRITE_ONCE(prev->next, next);
 522              		.loc 4 195 13 is_stmt 0 view .LVU151
 523 001c 4A60     		str	r2, [r1, #4]
 196:/mnt/c/Users/31740/Desktop/newcore/include/linux/list.h **** }
 524              		.loc 4 196 2 is_stmt 1 view .LVU152
 196:/mnt/c/Users/31740/Desktop/newcore/include/linux/list.h **** }
 525              		.loc 4 196 2 view .LVU153
 526              	.LBB115:
ARM GAS  /tmp/ccnrTkjK.s 			page 27


 196:/mnt/c/Users/31740/Desktop/newcore/include/linux/list.h **** }
 527              		.loc 4 196 2 view .LVU154
 196:/mnt/c/Users/31740/Desktop/newcore/include/linux/list.h **** }
 528              		.loc 4 196 2 view .LVU155
 529              	.LBE115:
 196:/mnt/c/Users/31740/Desktop/newcore/include/linux/list.h **** }
 530              		.loc 4 196 2 discriminator 2 view .LVU156
 196:/mnt/c/Users/31740/Desktop/newcore/include/linux/list.h **** }
 531              		.loc 4 196 2 discriminator 2 view .LVU157
 196:/mnt/c/Users/31740/Desktop/newcore/include/linux/list.h **** }
 532              		.loc 4 196 2 discriminator 2 view .LVU158
 533 001e 1160     		str	r1, [r2]
 196:/mnt/c/Users/31740/Desktop/newcore/include/linux/list.h **** }
 534              		.loc 4 196 2 discriminator 2 view .LVU159
 196:/mnt/c/Users/31740/Desktop/newcore/include/linux/list.h **** }
 535              		.loc 4 196 2 discriminator 2 view .LVU160
 536              	.LVL39:
 196:/mnt/c/Users/31740/Desktop/newcore/include/linux/list.h **** }
 537              		.loc 4 196 2 is_stmt 0 discriminator 2 view .LVU161
 538              	.LBE114:
 539              	.LBE113:
 540              	.LBE112:
 541              	.LBE111:
 288:/mnt/c/Users/31740/Desktop/newcore/include/linux/list.h **** }
 542              		.loc 4 288 2 is_stmt 1 view .LVU162
 543              	.LBB116:
 544              	.LBI116:
  35:/mnt/c/Users/31740/Desktop/newcore/include/linux/list.h **** {
 545              		.loc 4 35 20 view .LVU163
 546              	.LBB117:
  37:/mnt/c/Users/31740/Desktop/newcore/include/linux/list.h **** 	WRITE_ONCE(list->prev, list);
 547              		.loc 4 37 2 view .LVU164
  37:/mnt/c/Users/31740/Desktop/newcore/include/linux/list.h **** 	WRITE_ONCE(list->prev, list);
 548              		.loc 4 37 2 view .LVU165
 549              	.LBB118:
  37:/mnt/c/Users/31740/Desktop/newcore/include/linux/list.h **** 	WRITE_ONCE(list->prev, list);
 550              		.loc 4 37 2 view .LVU166
  37:/mnt/c/Users/31740/Desktop/newcore/include/linux/list.h **** 	WRITE_ONCE(list->prev, list);
 551              		.loc 4 37 2 view .LVU167
 552              	.LBE118:
  37:/mnt/c/Users/31740/Desktop/newcore/include/linux/list.h **** 	WRITE_ONCE(list->prev, list);
 553              		.loc 4 37 2 discriminator 2 view .LVU168
  37:/mnt/c/Users/31740/Desktop/newcore/include/linux/list.h **** 	WRITE_ONCE(list->prev, list);
 554              		.loc 4 37 2 discriminator 2 view .LVU169
  37:/mnt/c/Users/31740/Desktop/newcore/include/linux/list.h **** 	WRITE_ONCE(list->prev, list);
 555              		.loc 4 37 2 discriminator 2 view .LVU170
 556 0020 A362     		str	r3, [r4, #40]
  37:/mnt/c/Users/31740/Desktop/newcore/include/linux/list.h **** 	WRITE_ONCE(list->prev, list);
 557              		.loc 4 37 2 discriminator 2 view .LVU171
  37:/mnt/c/Users/31740/Desktop/newcore/include/linux/list.h **** 	WRITE_ONCE(list->prev, list);
 558              		.loc 4 37 2 discriminator 2 view .LVU172
  38:/mnt/c/Users/31740/Desktop/newcore/include/linux/list.h **** }
 559              		.loc 4 38 2 view .LVU173
  38:/mnt/c/Users/31740/Desktop/newcore/include/linux/list.h **** }
 560              		.loc 4 38 2 view .LVU174
 561              	.LBB119:
  38:/mnt/c/Users/31740/Desktop/newcore/include/linux/list.h **** }
ARM GAS  /tmp/ccnrTkjK.s 			page 28


 562              		.loc 4 38 2 view .LVU175
  38:/mnt/c/Users/31740/Desktop/newcore/include/linux/list.h **** }
 563              		.loc 4 38 2 view .LVU176
 564              	.LBE119:
  38:/mnt/c/Users/31740/Desktop/newcore/include/linux/list.h **** }
 565              		.loc 4 38 2 discriminator 2 view .LVU177
  38:/mnt/c/Users/31740/Desktop/newcore/include/linux/list.h **** }
 566              		.loc 4 38 2 discriminator 2 view .LVU178
  38:/mnt/c/Users/31740/Desktop/newcore/include/linux/list.h **** }
 567              		.loc 4 38 2 discriminator 2 view .LVU179
 568 0022 E362     		str	r3, [r4, #44]
  38:/mnt/c/Users/31740/Desktop/newcore/include/linux/list.h **** }
 569              		.loc 4 38 2 discriminator 2 view .LVU180
  38:/mnt/c/Users/31740/Desktop/newcore/include/linux/list.h **** }
 570              		.loc 4 38 2 discriminator 2 view .LVU181
 571              	.LVL40:
  38:/mnt/c/Users/31740/Desktop/newcore/include/linux/list.h **** }
 572              		.loc 4 38 2 is_stmt 0 discriminator 2 view .LVU182
 573              	.LBE117:
 574              	.LBE116:
 575              	.LBE110:
  45:/mnt/c/Users/31740/Desktop/newcore/block/request_queue.c ****         vfree(req);
 576              		.loc 1 45 9 is_stmt 1 view .LVU183
 577              	.LBB120:
 578              	.LBI120:
 375:/mnt/c/Users/31740/Desktop/newcore/include/linux/slab.h **** 	__sfree__(addr);
 579              		.loc 5 375 20 view .LVU184
 580              	.LBB121:
 376:/mnt/c/Users/31740/Desktop/newcore/include/linux/slab.h **** }
 581              		.loc 5 376 2 view .LVU185
 582 0024 2046     		mov	r0, r4
 583 0026 FFF7FEFF 		bl	__sfree__
 584              	.LVL41:
 585              	.L24:
 376:/mnt/c/Users/31740/Desktop/newcore/include/linux/slab.h **** }
 586              		.loc 5 376 2 is_stmt 0 view .LVU186
 587              	.LBE121:
 588              	.LBE120:
  46:/mnt/c/Users/31740/Desktop/newcore/block/request_queue.c ****     } 
  47:/mnt/c/Users/31740/Desktop/newcore/block/request_queue.c ****     spin_unlock(&q->queue_lock);
 589              		.loc 1 47 5 is_stmt 1 view .LVU187
 590 002a 2846     		mov	r0, r5
 591 002c FFF7FEFF 		bl	spin_unlock
 592              	.LVL42:
  48:/mnt/c/Users/31740/Desktop/newcore/block/request_queue.c **** }
 593              		.loc 1 48 1 is_stmt 0 view .LVU188
 594 0030 38BD     		pop	{r3, r4, r5, pc}
 595              		.loc 1 48 1 view .LVU189
 596              		.cfi_endproc
 597              	.LFE1036:
 599              		.section	.text.blk_fetch_request,"ax",%progbits
 600              		.align	1
 601              		.global	blk_fetch_request
 602              		.syntax unified
 603              		.thumb
 604              		.thumb_func
 606              	blk_fetch_request:
ARM GAS  /tmp/ccnrTkjK.s 			page 29


 607              	.LVL43:
 608              	.LFB1038:
  49:/mnt/c/Users/31740/Desktop/newcore/block/request_queue.c **** EXPORT_SYMBOL(request_queue_remove);
  50:/mnt/c/Users/31740/Desktop/newcore/block/request_queue.c **** 
  51:/mnt/c/Users/31740/Desktop/newcore/block/request_queue.c **** 
  52:/mnt/c/Users/31740/Desktop/newcore/block/request_queue.c **** void process_requests_in_queue(struct request_queue *q)
  53:/mnt/c/Users/31740/Desktop/newcore/block/request_queue.c **** {
  54:/mnt/c/Users/31740/Desktop/newcore/block/request_queue.c ****     struct request *req, *tmp;
  55:/mnt/c/Users/31740/Desktop/newcore/block/request_queue.c **** 
  56:/mnt/c/Users/31740/Desktop/newcore/block/request_queue.c ****     spin_lock(&q->queue_lock);
  57:/mnt/c/Users/31740/Desktop/newcore/block/request_queue.c **** 
  58:/mnt/c/Users/31740/Desktop/newcore/block/request_queue.c ****     list_for_each_entry_safe(req, tmp, &q->icq_list, queuelist) {
  59:/mnt/c/Users/31740/Desktop/newcore/block/request_queue.c ****         list_del(&req->queuelist);
  60:/mnt/c/Users/31740/Desktop/newcore/block/request_queue.c ****         spin_unlock(&q->queue_lock);
  61:/mnt/c/Users/31740/Desktop/newcore/block/request_queue.c **** 
  62:/mnt/c/Users/31740/Desktop/newcore/block/request_queue.c ****         // å¤„ç†è¯·æ±‚
  63:/mnt/c/Users/31740/Desktop/newcore/block/request_queue.c ****         printk(KERN_INFO "Processing request: %p\n", req);
  64:/mnt/c/Users/31740/Desktop/newcore/block/request_queue.c ****         kfree(req);  // é‡Šæ”¾è¯·æ±‚
  65:/mnt/c/Users/31740/Desktop/newcore/block/request_queue.c **** 
  66:/mnt/c/Users/31740/Desktop/newcore/block/request_queue.c ****         spin_lock(&q->queue_lock);
  67:/mnt/c/Users/31740/Desktop/newcore/block/request_queue.c ****     }
  68:/mnt/c/Users/31740/Desktop/newcore/block/request_queue.c **** 
  69:/mnt/c/Users/31740/Desktop/newcore/block/request_queue.c ****     spin_unlock(&q->queue_lock);
  70:/mnt/c/Users/31740/Desktop/newcore/block/request_queue.c **** }
  71:/mnt/c/Users/31740/Desktop/newcore/block/request_queue.c **** EXPORT_SYMBOL(process_requests_in_queue);
  72:/mnt/c/Users/31740/Desktop/newcore/block/request_queue.c **** 
  73:/mnt/c/Users/31740/Desktop/newcore/block/request_queue.c **** 
  74:/mnt/c/Users/31740/Desktop/newcore/block/request_queue.c **** struct request *blk_fetch_request(struct request_queue *q)
  75:/mnt/c/Users/31740/Desktop/newcore/block/request_queue.c **** {
 609              		.loc 1 75 1 is_stmt 1 view -0
 610              		.cfi_startproc
 611              		@ args = 0, pretend = 0, frame = 0
 612              		@ frame_needed = 0, uses_anonymous_args = 0
 613              		.loc 1 75 1 is_stmt 0 view .LVU191
 614 0000 38B5     		push	{r3, r4, r5, lr}
 615              	.LCFI8:
 616              		.cfi_def_cfa_offset 16
 617              		.cfi_offset 3, -16
 618              		.cfi_offset 4, -12
 619              		.cfi_offset 5, -8
 620              		.cfi_offset 14, -4
 621 0002 0446     		mov	r4, r0
  76:/mnt/c/Users/31740/Desktop/newcore/block/request_queue.c ****     struct request *req = NULL;
 622              		.loc 1 76 5 is_stmt 1 view .LVU192
 623              	.LVL44:
  77:/mnt/c/Users/31740/Desktop/newcore/block/request_queue.c ****     spin_lock(&q->queue_lock);
 624              		.loc 1 77 5 view .LVU193
 625 0004 00F10805 		add	r5, r0, #8
 626 0008 2846     		mov	r0, r5
 627              	.LVL45:
 628              		.loc 1 77 5 is_stmt 0 view .LVU194
 629 000a FFF7FEFF 		bl	spin_lock
 630              	.LVL46:
  78:/mnt/c/Users/31740/Desktop/newcore/block/request_queue.c **** 
  79:/mnt/c/Users/31740/Desktop/newcore/block/request_queue.c ****     if (!list_empty(&q->icq_list)) {
 631              		.loc 1 79 5 is_stmt 1 view .LVU195
 632              		.loc 1 79 21 is_stmt 0 view .LVU196
ARM GAS  /tmp/ccnrTkjK.s 			page 30


 633 000e 04F1CC02 		add	r2, r4, #204
 634              	.LVL47:
 635              	.LBB122:
 636              	.LBI122:
 371:/mnt/c/Users/31740/Desktop/newcore/include/linux/list.h **** {
 637              		.loc 4 371 19 is_stmt 1 view .LVU197
 638              		.loc 4 373 2 view .LVU198
 639              	.LBB123:
 640              		.loc 4 373 9 view .LVU199
 641              	.LBB124:
 642              		.loc 4 373 9 view .LVU200
 643              		.loc 4 373 9 view .LVU201
 644              	.LBE124:
 645              		.loc 4 373 9 discriminator 2 view .LVU202
 646              		.loc 4 373 9 discriminator 2 view .LVU203
 647 0012 D4F8CC30 		ldr	r3, [r4, #204]
 648              	.LVL48:
 649              		.loc 4 373 9 is_stmt 0 discriminator 2 view .LVU204
 650              	.LBE123:
 651              	.LBE122:
 652              		.loc 1 79 8 discriminator 1 view .LVU205
 653 0016 9A42     		cmp	r2, r3
 654 0018 12D0     		beq	.L28
  80:/mnt/c/Users/31740/Desktop/newcore/block/request_queue.c ****         req = list_first_entry(&q->icq_list, struct request, queuelist);
 655              		.loc 1 80 9 is_stmt 1 view .LVU206
 656              	.LBB125:
 657              		.loc 1 80 15 view .LVU207
 658 001a D4F8CC30 		ldr	r3, [r4, #204]
 659              	.LVL49:
 660              		.loc 1 80 15 view .LVU208
 661              		.loc 1 80 15 view .LVU209
 662 001e A3F12804 		sub	r4, r3, #40
 663              	.LVL50:
 664              		.loc 1 80 15 is_stmt 0 view .LVU210
 665              	.LBE125:
  81:/mnt/c/Users/31740/Desktop/newcore/block/request_queue.c ****         list_del(&req->queuelist);
 666              		.loc 1 81 9 is_stmt 1 view .LVU211
 667              	.LBB126:
 668              	.LBI126:
 227:/mnt/c/Users/31740/Desktop/newcore/include/linux/list.h **** {
 669              		.loc 4 227 20 view .LVU212
 670              	.LBB127:
 229:/mnt/c/Users/31740/Desktop/newcore/include/linux/list.h **** 	entry->next = LIST_POISON1;
 671              		.loc 4 229 2 view .LVU213
 672              	.LBB128:
 673              	.LBI128:
 213:/mnt/c/Users/31740/Desktop/newcore/include/linux/list.h **** {
 674              		.loc 4 213 20 view .LVU214
 675              	.LBB129:
 215:/mnt/c/Users/31740/Desktop/newcore/include/linux/list.h **** 		return;
 676              		.loc 4 215 2 view .LVU215
 218:/mnt/c/Users/31740/Desktop/newcore/include/linux/list.h **** }
 677              		.loc 4 218 2 view .LVU216
 678 0022 5A68     		ldr	r2, [r3, #4]
 679              	.LVL51:
 218:/mnt/c/Users/31740/Desktop/newcore/include/linux/list.h **** }
 680              		.loc 4 218 2 is_stmt 0 view .LVU217
ARM GAS  /tmp/ccnrTkjK.s 			page 31


 681 0024 1968     		ldr	r1, [r3]
 682              	.LVL52:
 683              	.LBB130:
 684              	.LBI130:
 193:/mnt/c/Users/31740/Desktop/newcore/include/linux/list.h **** {
 685              		.loc 4 193 20 is_stmt 1 view .LVU218
 686              	.LBB131:
 195:/mnt/c/Users/31740/Desktop/newcore/include/linux/list.h **** 	WRITE_ONCE(prev->next, next);
 687              		.loc 4 195 2 view .LVU219
 195:/mnt/c/Users/31740/Desktop/newcore/include/linux/list.h **** 	WRITE_ONCE(prev->next, next);
 688              		.loc 4 195 13 is_stmt 0 view .LVU220
 689 0026 4A60     		str	r2, [r1, #4]
 196:/mnt/c/Users/31740/Desktop/newcore/include/linux/list.h **** }
 690              		.loc 4 196 2 is_stmt 1 view .LVU221
 196:/mnt/c/Users/31740/Desktop/newcore/include/linux/list.h **** }
 691              		.loc 4 196 2 view .LVU222
 692              	.LBB132:
 196:/mnt/c/Users/31740/Desktop/newcore/include/linux/list.h **** }
 693              		.loc 4 196 2 view .LVU223
 196:/mnt/c/Users/31740/Desktop/newcore/include/linux/list.h **** }
 694              		.loc 4 196 2 view .LVU224
 695              	.LBE132:
 196:/mnt/c/Users/31740/Desktop/newcore/include/linux/list.h **** }
 696              		.loc 4 196 2 discriminator 2 view .LVU225
 196:/mnt/c/Users/31740/Desktop/newcore/include/linux/list.h **** }
 697              		.loc 4 196 2 discriminator 2 view .LVU226
 196:/mnt/c/Users/31740/Desktop/newcore/include/linux/list.h **** }
 698              		.loc 4 196 2 discriminator 2 view .LVU227
 699 0028 1160     		str	r1, [r2]
 196:/mnt/c/Users/31740/Desktop/newcore/include/linux/list.h **** }
 700              		.loc 4 196 2 discriminator 2 view .LVU228
 196:/mnt/c/Users/31740/Desktop/newcore/include/linux/list.h **** }
 701              		.loc 4 196 2 discriminator 2 view .LVU229
 702              	.LVL53:
 196:/mnt/c/Users/31740/Desktop/newcore/include/linux/list.h **** }
 703              		.loc 4 196 2 is_stmt 0 discriminator 2 view .LVU230
 704              	.LBE131:
 705              	.LBE130:
 706              	.LBE129:
 707              	.LBE128:
 230:/mnt/c/Users/31740/Desktop/newcore/include/linux/list.h **** 	entry->prev = LIST_POISON2;
 708              		.loc 4 230 2 is_stmt 1 view .LVU231
 230:/mnt/c/Users/31740/Desktop/newcore/include/linux/list.h **** 	entry->prev = LIST_POISON2;
 709              		.loc 4 230 14 is_stmt 0 view .LVU232
 710 002a 4FF48072 		mov	r2, #256
 711 002e 1A60     		str	r2, [r3]
 231:/mnt/c/Users/31740/Desktop/newcore/include/linux/list.h **** }
 712              		.loc 4 231 2 is_stmt 1 view .LVU233
 231:/mnt/c/Users/31740/Desktop/newcore/include/linux/list.h **** }
 713              		.loc 4 231 14 is_stmt 0 view .LVU234
 714 0030 4FF49172 		mov	r2, #290
 715 0034 5A60     		str	r2, [r3, #4]
 716              	.LVL54:
 717              	.L27:
 231:/mnt/c/Users/31740/Desktop/newcore/include/linux/list.h **** }
 718              		.loc 4 231 14 view .LVU235
 719              	.LBE127:
ARM GAS  /tmp/ccnrTkjK.s 			page 32


 720              	.LBE126:
  82:/mnt/c/Users/31740/Desktop/newcore/block/request_queue.c ****     }
  83:/mnt/c/Users/31740/Desktop/newcore/block/request_queue.c ****     spin_unlock(&q->queue_lock);
 721              		.loc 1 83 5 is_stmt 1 view .LVU236
 722 0036 2846     		mov	r0, r5
 723 0038 FFF7FEFF 		bl	spin_unlock
 724              	.LVL55:
  84:/mnt/c/Users/31740/Desktop/newcore/block/request_queue.c ****     return req; 
 725              		.loc 1 84 5 view .LVU237
  85:/mnt/c/Users/31740/Desktop/newcore/block/request_queue.c **** }
 726              		.loc 1 85 1 is_stmt 0 view .LVU238
 727 003c 2046     		mov	r0, r4
 728 003e 38BD     		pop	{r3, r4, r5, pc}
 729              	.LVL56:
 730              	.L28:
  76:/mnt/c/Users/31740/Desktop/newcore/block/request_queue.c ****     spin_lock(&q->queue_lock);
 731              		.loc 1 76 21 view .LVU239
 732 0040 0024     		movs	r4, #0
 733              	.LVL57:
  76:/mnt/c/Users/31740/Desktop/newcore/block/request_queue.c ****     spin_lock(&q->queue_lock);
 734              		.loc 1 76 21 view .LVU240
 735 0042 F8E7     		b	.L27
 736              		.cfi_endproc
 737              	.LFE1038:
 739              		.section	.rodata.process_requests_in_queue.str1.4,"aMS",%progbits,1
 740              		.align	2
 741              	.LC0:
 742 0000 50726F63 		.ascii	"Processing request: %p\012\000"
 742      65737369 
 742      6E672072 
 742      65717565 
 742      73743A20 
 743              		.section	.text.process_requests_in_queue,"ax",%progbits
 744              		.align	1
 745              		.global	process_requests_in_queue
 746              		.syntax unified
 747              		.thumb
 748              		.thumb_func
 750              	process_requests_in_queue:
 751              	.LVL58:
 752              	.LFB1037:
  53:/mnt/c/Users/31740/Desktop/newcore/block/request_queue.c ****     struct request *req, *tmp;
 753              		.loc 1 53 1 is_stmt 1 view -0
 754              		.cfi_startproc
 755              		@ args = 0, pretend = 0, frame = 0
 756              		@ frame_needed = 0, uses_anonymous_args = 0
  53:/mnt/c/Users/31740/Desktop/newcore/block/request_queue.c ****     struct request *req, *tmp;
 757              		.loc 1 53 1 is_stmt 0 view .LVU242
 758 0000 F8B5     		push	{r3, r4, r5, r6, r7, lr}
 759              	.LCFI9:
 760              		.cfi_def_cfa_offset 24
 761              		.cfi_offset 3, -24
 762              		.cfi_offset 4, -20
 763              		.cfi_offset 5, -16
 764              		.cfi_offset 6, -12
 765              		.cfi_offset 7, -8
 766              		.cfi_offset 14, -4
ARM GAS  /tmp/ccnrTkjK.s 			page 33


 767 0002 0746     		mov	r7, r0
  54:/mnt/c/Users/31740/Desktop/newcore/block/request_queue.c **** 
 768              		.loc 1 54 5 is_stmt 1 view .LVU243
  56:/mnt/c/Users/31740/Desktop/newcore/block/request_queue.c **** 
 769              		.loc 1 56 5 view .LVU244
 770 0004 00F10806 		add	r6, r0, #8
 771 0008 3046     		mov	r0, r6
 772              	.LVL59:
  56:/mnt/c/Users/31740/Desktop/newcore/block/request_queue.c **** 
 773              		.loc 1 56 5 is_stmt 0 view .LVU245
 774 000a FFF7FEFF 		bl	spin_lock
 775              	.LVL60:
  58:/mnt/c/Users/31740/Desktop/newcore/block/request_queue.c ****         list_del(&req->queuelist);
 776              		.loc 1 58 5 is_stmt 1 view .LVU246
 777              	.LBB133:
  58:/mnt/c/Users/31740/Desktop/newcore/block/request_queue.c ****         list_del(&req->queuelist);
 778              		.loc 1 58 5 view .LVU247
  58:/mnt/c/Users/31740/Desktop/newcore/block/request_queue.c ****         list_del(&req->queuelist);
 779              		.loc 1 58 5 view .LVU248
  58:/mnt/c/Users/31740/Desktop/newcore/block/request_queue.c ****         list_del(&req->queuelist);
 780              		.loc 1 58 5 view .LVU249
 781 000e D7F8CC40 		ldr	r4, [r7, #204]
 782              	.LVL61:
  58:/mnt/c/Users/31740/Desktop/newcore/block/request_queue.c ****         list_del(&req->queuelist);
 783              		.loc 1 58 5 is_stmt 0 view .LVU250
 784              	.LBE133:
 785              	.LBB134:
  58:/mnt/c/Users/31740/Desktop/newcore/block/request_queue.c ****         list_del(&req->queuelist);
 786              		.loc 1 58 5 is_stmt 1 view .LVU251
 787 0012 54F82859 		ldr	r5, [r4], #-40
 788              	.LVL62:
  58:/mnt/c/Users/31740/Desktop/newcore/block/request_queue.c ****         list_del(&req->queuelist);
 789              		.loc 1 58 5 view .LVU252
  58:/mnt/c/Users/31740/Desktop/newcore/block/request_queue.c ****         list_del(&req->queuelist);
 790              		.loc 1 58 5 view .LVU253
 791 0016 283D     		subs	r5, r5, #40
 792              	.LVL63:
  58:/mnt/c/Users/31740/Desktop/newcore/block/request_queue.c ****         list_del(&req->queuelist);
 793              		.loc 1 58 5 is_stmt 0 view .LVU254
 794              	.LBE134:
 795 0018 1BE0     		b	.L31
 796              	.LVL64:
 797              	.L32:
  59:/mnt/c/Users/31740/Desktop/newcore/block/request_queue.c ****         spin_unlock(&q->queue_lock);
 798              		.loc 1 59 9 is_stmt 1 view .LVU255
 799              	.LBB135:
 800              	.LBI135:
 227:/mnt/c/Users/31740/Desktop/newcore/include/linux/list.h **** {
 801              		.loc 4 227 20 view .LVU256
 802              	.LBB136:
 229:/mnt/c/Users/31740/Desktop/newcore/include/linux/list.h **** 	entry->next = LIST_POISON1;
 803              		.loc 4 229 2 view .LVU257
 804              	.LBB137:
 805              	.LBI137:
 213:/mnt/c/Users/31740/Desktop/newcore/include/linux/list.h **** {
 806              		.loc 4 213 20 view .LVU258
 807              	.LBB138:
ARM GAS  /tmp/ccnrTkjK.s 			page 34


 215:/mnt/c/Users/31740/Desktop/newcore/include/linux/list.h **** 		return;
 808              		.loc 4 215 2 view .LVU259
 218:/mnt/c/Users/31740/Desktop/newcore/include/linux/list.h **** }
 809              		.loc 4 218 2 view .LVU260
 810 001a E36A     		ldr	r3, [r4, #44]
 811              	.LVL65:
 218:/mnt/c/Users/31740/Desktop/newcore/include/linux/list.h **** }
 812              		.loc 4 218 2 is_stmt 0 view .LVU261
 813 001c A26A     		ldr	r2, [r4, #40]
 814              	.LVL66:
 815              	.LBB139:
 816              	.LBI139:
 193:/mnt/c/Users/31740/Desktop/newcore/include/linux/list.h **** {
 817              		.loc 4 193 20 is_stmt 1 view .LVU262
 818              	.LBB140:
 195:/mnt/c/Users/31740/Desktop/newcore/include/linux/list.h **** 	WRITE_ONCE(prev->next, next);
 819              		.loc 4 195 2 view .LVU263
 195:/mnt/c/Users/31740/Desktop/newcore/include/linux/list.h **** 	WRITE_ONCE(prev->next, next);
 820              		.loc 4 195 13 is_stmt 0 view .LVU264
 821 001e 5360     		str	r3, [r2, #4]
 196:/mnt/c/Users/31740/Desktop/newcore/include/linux/list.h **** }
 822              		.loc 4 196 2 is_stmt 1 view .LVU265
 196:/mnt/c/Users/31740/Desktop/newcore/include/linux/list.h **** }
 823              		.loc 4 196 2 view .LVU266
 824              	.LBB141:
 196:/mnt/c/Users/31740/Desktop/newcore/include/linux/list.h **** }
 825              		.loc 4 196 2 view .LVU267
 196:/mnt/c/Users/31740/Desktop/newcore/include/linux/list.h **** }
 826              		.loc 4 196 2 view .LVU268
 827              	.LBE141:
 196:/mnt/c/Users/31740/Desktop/newcore/include/linux/list.h **** }
 828              		.loc 4 196 2 discriminator 2 view .LVU269
 196:/mnt/c/Users/31740/Desktop/newcore/include/linux/list.h **** }
 829              		.loc 4 196 2 discriminator 2 view .LVU270
 196:/mnt/c/Users/31740/Desktop/newcore/include/linux/list.h **** }
 830              		.loc 4 196 2 discriminator 2 view .LVU271
 831 0020 1A60     		str	r2, [r3]
 196:/mnt/c/Users/31740/Desktop/newcore/include/linux/list.h **** }
 832              		.loc 4 196 2 discriminator 2 view .LVU272
 196:/mnt/c/Users/31740/Desktop/newcore/include/linux/list.h **** }
 833              		.loc 4 196 2 discriminator 2 view .LVU273
 834              	.LVL67:
 196:/mnt/c/Users/31740/Desktop/newcore/include/linux/list.h **** }
 835              		.loc 4 196 2 is_stmt 0 discriminator 2 view .LVU274
 836              	.LBE140:
 837              	.LBE139:
 838              	.LBE138:
 839              	.LBE137:
 230:/mnt/c/Users/31740/Desktop/newcore/include/linux/list.h **** 	entry->prev = LIST_POISON2;
 840              		.loc 4 230 2 is_stmt 1 view .LVU275
 230:/mnt/c/Users/31740/Desktop/newcore/include/linux/list.h **** 	entry->prev = LIST_POISON2;
 841              		.loc 4 230 14 is_stmt 0 view .LVU276
 842 0022 4FF48073 		mov	r3, #256
 843 0026 A362     		str	r3, [r4, #40]
 231:/mnt/c/Users/31740/Desktop/newcore/include/linux/list.h **** }
 844              		.loc 4 231 2 is_stmt 1 view .LVU277
 231:/mnt/c/Users/31740/Desktop/newcore/include/linux/list.h **** }
ARM GAS  /tmp/ccnrTkjK.s 			page 35


 845              		.loc 4 231 14 is_stmt 0 view .LVU278
 846 0028 4FF49173 		mov	r3, #290
 847 002c E362     		str	r3, [r4, #44]
 848              	.LVL68:
 231:/mnt/c/Users/31740/Desktop/newcore/include/linux/list.h **** }
 849              		.loc 4 231 14 view .LVU279
 850              	.LBE136:
 851              	.LBE135:
  60:/mnt/c/Users/31740/Desktop/newcore/block/request_queue.c **** 
 852              		.loc 1 60 9 is_stmt 1 view .LVU280
 853 002e 3046     		mov	r0, r6
 854 0030 FFF7FEFF 		bl	spin_unlock
 855              	.LVL69:
  63:/mnt/c/Users/31740/Desktop/newcore/block/request_queue.c ****         kfree(req);  // é‡Šæ”¾è¯·æ±‚
 856              		.loc 1 63 9 view .LVU281
 857 0034 2246     		mov	r2, r4
 858 0036 0C49     		ldr	r1, .L34
 859 0038 0620     		movs	r0, #6
 860 003a FFF7FEFF 		bl	printk
 861              	.LVL70:
  64:/mnt/c/Users/31740/Desktop/newcore/block/request_queue.c **** 
 862              		.loc 1 64 9 view .LVU282
 863              	.LBB142:
 864              	.LBI142:
 381:/mnt/c/Users/31740/Desktop/newcore/include/linux/slab.h **** }
 382:/mnt/c/Users/31740/Desktop/newcore/include/linux/slab.h **** 
 383:/mnt/c/Users/31740/Desktop/newcore/include/linux/slab.h **** static void inline kfree(const void *ptr){
 865              		.loc 5 383 20 view .LVU283
 866              	.LBB143:
 384:/mnt/c/Users/31740/Desktop/newcore/include/linux/slab.h **** 	__sfree__((void*)ptr);
 867              		.loc 5 384 2 view .LVU284
 868 003e 2046     		mov	r0, r4
 869 0040 FFF7FEFF 		bl	__sfree__
 870              	.LVL71:
 871              		.loc 5 384 2 is_stmt 0 view .LVU285
 872              	.LBE143:
 873              	.LBE142:
  66:/mnt/c/Users/31740/Desktop/newcore/block/request_queue.c ****     }
 874              		.loc 1 66 9 is_stmt 1 view .LVU286
 875 0044 3046     		mov	r0, r6
 876 0046 FFF7FEFF 		bl	spin_lock
 877              	.LVL72:
  58:/mnt/c/Users/31740/Desktop/newcore/block/request_queue.c ****         list_del(&req->queuelist);
 878              		.loc 1 58 5 discriminator 3 view .LVU287
 879              	.LBB144:
  58:/mnt/c/Users/31740/Desktop/newcore/block/request_queue.c ****         list_del(&req->queuelist);
 880              		.loc 1 58 5 discriminator 3 view .LVU288
 881 004a AB6A     		ldr	r3, [r5, #40]
 882              	.LVL73:
  58:/mnt/c/Users/31740/Desktop/newcore/block/request_queue.c ****         list_del(&req->queuelist);
 883              		.loc 1 58 5 discriminator 3 view .LVU289
  58:/mnt/c/Users/31740/Desktop/newcore/block/request_queue.c ****         list_del(&req->queuelist);
 884              		.loc 1 58 5 discriminator 3 view .LVU290
  58:/mnt/c/Users/31740/Desktop/newcore/block/request_queue.c ****         list_del(&req->queuelist);
 885              		.loc 1 58 5 is_stmt 0 discriminator 3 view .LVU291
 886              	.LBE144:
 887 004c 2C46     		mov	r4, r5
ARM GAS  /tmp/ccnrTkjK.s 			page 36


 888 004e A3F12805 		sub	r5, r3, #40
 889              	.LVL74:
 890              	.L31:
  58:/mnt/c/Users/31740/Desktop/newcore/block/request_queue.c ****         list_del(&req->queuelist);
 891              		.loc 1 58 5 is_stmt 1 discriminator 1 view .LVU292
 892 0052 04F12803 		add	r3, r4, #40
 893 0056 07F1CC02 		add	r2, r7, #204
 894 005a 9342     		cmp	r3, r2
 895 005c DDD1     		bne	.L32
  69:/mnt/c/Users/31740/Desktop/newcore/block/request_queue.c **** }
 896              		.loc 1 69 5 view .LVU293
 897 005e 3046     		mov	r0, r6
 898 0060 FFF7FEFF 		bl	spin_unlock
 899              	.LVL75:
  70:/mnt/c/Users/31740/Desktop/newcore/block/request_queue.c **** EXPORT_SYMBOL(process_requests_in_queue);
 900              		.loc 1 70 1 is_stmt 0 view .LVU294
 901 0064 F8BD     		pop	{r3, r4, r5, r6, r7, pc}
 902              	.LVL76:
 903              	.L35:
  70:/mnt/c/Users/31740/Desktop/newcore/block/request_queue.c **** EXPORT_SYMBOL(process_requests_in_queue);
 904              		.loc 1 70 1 view .LVU295
 905 0066 00BF     		.align	2
 906              	.L34:
 907 0068 00000000 		.word	.LC0
 908              		.cfi_endproc
 909              	.LFE1037:
 911              		.section	.text.__blk_cleanup_queue,"ax",%progbits
 912              		.align	1
 913              		.global	__blk_cleanup_queue
 914              		.syntax unified
 915              		.thumb
 916              		.thumb_func
 918              	__blk_cleanup_queue:
 919              	.LVL77:
 920              	.LFB1034:
  30:/mnt/c/Users/31740/Desktop/newcore/block/request_queue.c ****     if(q) kfree(q);
 921              		.loc 1 30 50 is_stmt 1 view -0
 922              		.cfi_startproc
 923              		@ args = 0, pretend = 0, frame = 0
 924              		@ frame_needed = 0, uses_anonymous_args = 0
  31:/mnt/c/Users/31740/Desktop/newcore/block/request_queue.c **** }
 925              		.loc 1 31 5 view .LVU297
  31:/mnt/c/Users/31740/Desktop/newcore/block/request_queue.c **** }
 926              		.loc 1 31 7 is_stmt 0 view .LVU298
 927 0000 18B1     		cbz	r0, .L39
  30:/mnt/c/Users/31740/Desktop/newcore/block/request_queue.c ****     if(q) kfree(q);
 928              		.loc 1 30 50 view .LVU299
 929 0002 08B5     		push	{r3, lr}
 930              	.LCFI10:
 931              		.cfi_def_cfa_offset 8
 932              		.cfi_offset 3, -8
 933              		.cfi_offset 14, -4
  31:/mnt/c/Users/31740/Desktop/newcore/block/request_queue.c **** }
 934              		.loc 1 31 11 is_stmt 1 discriminator 1 view .LVU300
 935              	.LVL78:
 936              	.LBB145:
 937              	.LBI145:
ARM GAS  /tmp/ccnrTkjK.s 			page 37


 383:/mnt/c/Users/31740/Desktop/newcore/include/linux/slab.h **** 	__sfree__((void*)ptr);
 938              		.loc 5 383 20 view .LVU301
 939              	.LBB146:
 940              		.loc 5 384 2 view .LVU302
 941 0004 FFF7FEFF 		bl	__sfree__
 942              	.LVL79:
 943              		.loc 5 384 2 is_stmt 0 view .LVU303
 944              	.LBE146:
 945              	.LBE145:
  32:/mnt/c/Users/31740/Desktop/newcore/block/request_queue.c ****  
 946              		.loc 1 32 1 view .LVU304
 947 0008 08BD     		pop	{r3, pc}
 948              	.LVL80:
 949              	.L39:
 950              	.LCFI11:
 951              		.cfi_def_cfa_offset 0
 952              		.cfi_restore 3
 953              		.cfi_restore 14
  32:/mnt/c/Users/31740/Desktop/newcore/block/request_queue.c ****  
 954              		.loc 1 32 1 view .LVU305
 955 000a 7047     		bx	lr
 956              		.cfi_endproc
 957              	.LFE1034:
 959              		.section	.text.__blk_end_request_cur,"ax",%progbits
 960              		.align	1
 961              		.global	__blk_end_request_cur
 962              		.syntax unified
 963              		.thumb
 964              		.thumb_func
 966              	__blk_end_request_cur:
 967              	.LVL81:
 968              	.LFB1039:
  86:/mnt/c/Users/31740/Desktop/newcore/block/request_queue.c **** EXPORT_SYMBOL(blk_fetch_request);
  87:/mnt/c/Users/31740/Desktop/newcore/block/request_queue.c **** 
  88:/mnt/c/Users/31740/Desktop/newcore/block/request_queue.c **** 
  89:/mnt/c/Users/31740/Desktop/newcore/block/request_queue.c **** int __blk_end_request_cur(struct request *req, int error)
  90:/mnt/c/Users/31740/Desktop/newcore/block/request_queue.c **** {
 969              		.loc 1 90 1 is_stmt 1 view -0
 970              		.cfi_startproc
 971              		@ args = 0, pretend = 0, frame = 0
 972              		@ frame_needed = 0, uses_anonymous_args = 0
 973              		.loc 1 90 1 is_stmt 0 view .LVU307
 974 0000 38B5     		push	{r3, r4, r5, lr}
 975              	.LCFI12:
 976              		.cfi_def_cfa_offset 16
 977              		.cfi_offset 3, -16
 978              		.cfi_offset 4, -12
 979              		.cfi_offset 5, -8
 980              		.cfi_offset 14, -4
  91:/mnt/c/Users/31740/Desktop/newcore/block/request_queue.c ****     struct request_queue *q = req->q;
 981              		.loc 1 91 5 is_stmt 1 view .LVU308
 982              		.loc 1 91 27 is_stmt 0 view .LVU309
 983 0002 0468     		ldr	r4, [r0]
 984              	.LVL82:
  92:/mnt/c/Users/31740/Desktop/newcore/block/request_queue.c ****     spin_lock(&q->queue_lock);
 985              		.loc 1 92 5 is_stmt 1 view .LVU310
 986 0004 04F10805 		add	r5, r4, #8
ARM GAS  /tmp/ccnrTkjK.s 			page 38


 987 0008 2846     		mov	r0, r5
 988              	.LVL83:
 989              		.loc 1 92 5 is_stmt 0 view .LVU311
 990 000a FFF7FEFF 		bl	spin_lock
 991              	.LVL84:
  93:/mnt/c/Users/31740/Desktop/newcore/block/request_queue.c ****     int is_last = list_is_singular(&q->icq_list) || list_empty(&q->icq_list);
 992              		.loc 1 93 5 is_stmt 1 view .LVU312
 993              		.loc 1 93 36 is_stmt 0 view .LVU313
 994 000e 04F1CC03 		add	r3, r4, #204
 995              	.LVL85:
 996              	.LBB147:
 997              	.LBI147:
 374:/mnt/c/Users/31740/Desktop/newcore/include/linux/list.h **** }
 375:/mnt/c/Users/31740/Desktop/newcore/include/linux/list.h **** 
 376:/mnt/c/Users/31740/Desktop/newcore/include/linux/list.h **** /**
 377:/mnt/c/Users/31740/Desktop/newcore/include/linux/list.h ****  * list_del_init_careful - deletes entry from list and reinitialize it.
 378:/mnt/c/Users/31740/Desktop/newcore/include/linux/list.h ****  * @entry: the element to delete from the list.
 379:/mnt/c/Users/31740/Desktop/newcore/include/linux/list.h ****  *
 380:/mnt/c/Users/31740/Desktop/newcore/include/linux/list.h ****  * This is the same as list_del_init(), except designed to be used
 381:/mnt/c/Users/31740/Desktop/newcore/include/linux/list.h ****  * together with list_empty_careful() in a way to guarantee ordering
 382:/mnt/c/Users/31740/Desktop/newcore/include/linux/list.h ****  * of other memory operations.
 383:/mnt/c/Users/31740/Desktop/newcore/include/linux/list.h ****  *
 384:/mnt/c/Users/31740/Desktop/newcore/include/linux/list.h ****  * Any memory operations done before a list_del_init_careful() are
 385:/mnt/c/Users/31740/Desktop/newcore/include/linux/list.h ****  * guaranteed to be visible after a list_empty_careful() test.
 386:/mnt/c/Users/31740/Desktop/newcore/include/linux/list.h ****  */
 387:/mnt/c/Users/31740/Desktop/newcore/include/linux/list.h **** static inline void list_del_init_careful(struct list_head *entry)
 388:/mnt/c/Users/31740/Desktop/newcore/include/linux/list.h **** {
 389:/mnt/c/Users/31740/Desktop/newcore/include/linux/list.h **** 	__list_del_entry(entry);
 390:/mnt/c/Users/31740/Desktop/newcore/include/linux/list.h **** 	WRITE_ONCE(entry->prev, entry);
 391:/mnt/c/Users/31740/Desktop/newcore/include/linux/list.h **** 	smp_store_release(&entry->next, entry);
 392:/mnt/c/Users/31740/Desktop/newcore/include/linux/list.h **** }
 393:/mnt/c/Users/31740/Desktop/newcore/include/linux/list.h **** 
 394:/mnt/c/Users/31740/Desktop/newcore/include/linux/list.h **** /**
 395:/mnt/c/Users/31740/Desktop/newcore/include/linux/list.h ****  * list_empty_careful - tests whether a list is empty and not being modified
 396:/mnt/c/Users/31740/Desktop/newcore/include/linux/list.h ****  * @head: the list to test
 397:/mnt/c/Users/31740/Desktop/newcore/include/linux/list.h ****  *
 398:/mnt/c/Users/31740/Desktop/newcore/include/linux/list.h ****  * Description:
 399:/mnt/c/Users/31740/Desktop/newcore/include/linux/list.h ****  * tests whether a list is empty _and_ checks that no other CPU might be
 400:/mnt/c/Users/31740/Desktop/newcore/include/linux/list.h ****  * in the process of modifying either member (next or prev)
 401:/mnt/c/Users/31740/Desktop/newcore/include/linux/list.h ****  *
 402:/mnt/c/Users/31740/Desktop/newcore/include/linux/list.h ****  * NOTE: using list_empty_careful() without synchronization
 403:/mnt/c/Users/31740/Desktop/newcore/include/linux/list.h ****  * can only be safe if the only activity that can happen
 404:/mnt/c/Users/31740/Desktop/newcore/include/linux/list.h ****  * to the list entry is list_del_init(). Eg. it cannot be used
 405:/mnt/c/Users/31740/Desktop/newcore/include/linux/list.h ****  * if another CPU could re-list_add() it.
 406:/mnt/c/Users/31740/Desktop/newcore/include/linux/list.h ****  */
 407:/mnt/c/Users/31740/Desktop/newcore/include/linux/list.h **** static inline int list_empty_careful(const struct list_head *head)
 408:/mnt/c/Users/31740/Desktop/newcore/include/linux/list.h **** {
 409:/mnt/c/Users/31740/Desktop/newcore/include/linux/list.h **** 	struct list_head *next = smp_load_acquire(&head->next);
 410:/mnt/c/Users/31740/Desktop/newcore/include/linux/list.h **** 	return list_is_head(next, head) && (next == READ_ONCE(head->prev));
 411:/mnt/c/Users/31740/Desktop/newcore/include/linux/list.h **** }
 412:/mnt/c/Users/31740/Desktop/newcore/include/linux/list.h **** 
 413:/mnt/c/Users/31740/Desktop/newcore/include/linux/list.h **** /**
 414:/mnt/c/Users/31740/Desktop/newcore/include/linux/list.h ****  * list_rotate_left - rotate the list to the left
 415:/mnt/c/Users/31740/Desktop/newcore/include/linux/list.h ****  * @head: the head of the list
 416:/mnt/c/Users/31740/Desktop/newcore/include/linux/list.h ****  */
 417:/mnt/c/Users/31740/Desktop/newcore/include/linux/list.h **** static inline void list_rotate_left(struct list_head *head)
 418:/mnt/c/Users/31740/Desktop/newcore/include/linux/list.h **** {
ARM GAS  /tmp/ccnrTkjK.s 			page 39


 419:/mnt/c/Users/31740/Desktop/newcore/include/linux/list.h **** 	struct list_head *first;
 420:/mnt/c/Users/31740/Desktop/newcore/include/linux/list.h **** 
 421:/mnt/c/Users/31740/Desktop/newcore/include/linux/list.h **** 	if (!list_empty(head)) {
 422:/mnt/c/Users/31740/Desktop/newcore/include/linux/list.h **** 		first = head->next;
 423:/mnt/c/Users/31740/Desktop/newcore/include/linux/list.h **** 		list_move_tail(first, head);
 424:/mnt/c/Users/31740/Desktop/newcore/include/linux/list.h **** 	}
 425:/mnt/c/Users/31740/Desktop/newcore/include/linux/list.h **** }
 426:/mnt/c/Users/31740/Desktop/newcore/include/linux/list.h **** 
 427:/mnt/c/Users/31740/Desktop/newcore/include/linux/list.h **** /**
 428:/mnt/c/Users/31740/Desktop/newcore/include/linux/list.h ****  * list_rotate_to_front() - Rotate list to specific item.
 429:/mnt/c/Users/31740/Desktop/newcore/include/linux/list.h ****  * @list: The desired new front of the list.
 430:/mnt/c/Users/31740/Desktop/newcore/include/linux/list.h ****  * @head: The head of the list.
 431:/mnt/c/Users/31740/Desktop/newcore/include/linux/list.h ****  *
 432:/mnt/c/Users/31740/Desktop/newcore/include/linux/list.h ****  * Rotates list so that @list becomes the new front of the list.
 433:/mnt/c/Users/31740/Desktop/newcore/include/linux/list.h ****  */
 434:/mnt/c/Users/31740/Desktop/newcore/include/linux/list.h **** static inline void list_rotate_to_front(struct list_head *list,
 435:/mnt/c/Users/31740/Desktop/newcore/include/linux/list.h **** 					struct list_head *head)
 436:/mnt/c/Users/31740/Desktop/newcore/include/linux/list.h **** {
 437:/mnt/c/Users/31740/Desktop/newcore/include/linux/list.h **** 	/*
 438:/mnt/c/Users/31740/Desktop/newcore/include/linux/list.h **** 	 * Deletes the list head from the list denoted by @head and
 439:/mnt/c/Users/31740/Desktop/newcore/include/linux/list.h **** 	 * places it as the tail of @list, this effectively rotates the
 440:/mnt/c/Users/31740/Desktop/newcore/include/linux/list.h **** 	 * list so that @list is at the front.
 441:/mnt/c/Users/31740/Desktop/newcore/include/linux/list.h **** 	 */
 442:/mnt/c/Users/31740/Desktop/newcore/include/linux/list.h **** 	list_move_tail(head, list);
 443:/mnt/c/Users/31740/Desktop/newcore/include/linux/list.h **** }
 444:/mnt/c/Users/31740/Desktop/newcore/include/linux/list.h **** 
 445:/mnt/c/Users/31740/Desktop/newcore/include/linux/list.h **** /**
 446:/mnt/c/Users/31740/Desktop/newcore/include/linux/list.h ****  * list_is_singular - tests whether a list has just one entry.
 447:/mnt/c/Users/31740/Desktop/newcore/include/linux/list.h ****  * @head: the list to test.
 448:/mnt/c/Users/31740/Desktop/newcore/include/linux/list.h ****  */
 449:/mnt/c/Users/31740/Desktop/newcore/include/linux/list.h **** static inline int list_is_singular(const struct list_head *head)
 998              		.loc 4 449 19 is_stmt 1 view .LVU314
 999              	.LBB148:
 450:/mnt/c/Users/31740/Desktop/newcore/include/linux/list.h **** {
 451:/mnt/c/Users/31740/Desktop/newcore/include/linux/list.h **** 	return !list_empty(head) && (head->next == head->prev);
 1000              		.loc 4 451 2 view .LVU315
 1001              	.LBB149:
 1002              	.LBI149:
 371:/mnt/c/Users/31740/Desktop/newcore/include/linux/list.h **** {
 1003              		.loc 4 371 19 view .LVU316
 373:/mnt/c/Users/31740/Desktop/newcore/include/linux/list.h **** }
 1004              		.loc 4 373 2 view .LVU317
 1005              	.LBB150:
 373:/mnt/c/Users/31740/Desktop/newcore/include/linux/list.h **** }
 1006              		.loc 4 373 9 view .LVU318
 1007              	.LBB151:
 373:/mnt/c/Users/31740/Desktop/newcore/include/linux/list.h **** }
 1008              		.loc 4 373 9 view .LVU319
 373:/mnt/c/Users/31740/Desktop/newcore/include/linux/list.h **** }
 1009              		.loc 4 373 9 view .LVU320
 1010              	.LBE151:
 373:/mnt/c/Users/31740/Desktop/newcore/include/linux/list.h **** }
 1011              		.loc 4 373 9 discriminator 2 view .LVU321
 373:/mnt/c/Users/31740/Desktop/newcore/include/linux/list.h **** }
 1012              		.loc 4 373 9 discriminator 2 view .LVU322
 1013 0012 D4F8CC20 		ldr	r2, [r4, #204]
 1014              	.LVL86:
ARM GAS  /tmp/ccnrTkjK.s 			page 40


 373:/mnt/c/Users/31740/Desktop/newcore/include/linux/list.h **** }
 1015              		.loc 4 373 9 is_stmt 0 discriminator 2 view .LVU323
 1016              	.LBE150:
 1017              	.LBE149:
 1018              		.loc 4 451 27 discriminator 1 view .LVU324
 1019 0016 9342     		cmp	r3, r2
 1020 0018 05D0     		beq	.L43
 1021              		.loc 4 451 35 discriminator 1 view .LVU325
 1022 001a D4F8CC10 		ldr	r1, [r4, #204]
 1023              		.loc 4 451 49 discriminator 1 view .LVU326
 1024 001e D4F8D020 		ldr	r2, [r4, #208]
 1025              		.loc 4 451 27 discriminator 1 view .LVU327
 1026 0022 9142     		cmp	r1, r2
 1027 0024 09D0     		beq	.L45
 1028              	.L43:
 1029              	.LVL87:
 1030              		.loc 4 451 27 discriminator 1 view .LVU328
 1031              	.LBE148:
 1032              	.LBE147:
 1033              	.LBB152:
 1034              	.LBI152:
 371:/mnt/c/Users/31740/Desktop/newcore/include/linux/list.h **** {
 1035              		.loc 4 371 19 is_stmt 1 view .LVU329
 373:/mnt/c/Users/31740/Desktop/newcore/include/linux/list.h **** }
 1036              		.loc 4 373 2 view .LVU330
 1037              	.LBB153:
 373:/mnt/c/Users/31740/Desktop/newcore/include/linux/list.h **** }
 1038              		.loc 4 373 9 view .LVU331
 1039              	.LBB154:
 373:/mnt/c/Users/31740/Desktop/newcore/include/linux/list.h **** }
 1040              		.loc 4 373 9 view .LVU332
 373:/mnt/c/Users/31740/Desktop/newcore/include/linux/list.h **** }
 1041              		.loc 4 373 9 view .LVU333
 1042              	.LBE154:
 373:/mnt/c/Users/31740/Desktop/newcore/include/linux/list.h **** }
 1043              		.loc 4 373 9 discriminator 2 view .LVU334
 373:/mnt/c/Users/31740/Desktop/newcore/include/linux/list.h **** }
 1044              		.loc 4 373 9 discriminator 2 view .LVU335
 1045 0026 D4F8CC20 		ldr	r2, [r4, #204]
 1046              	.LVL88:
 373:/mnt/c/Users/31740/Desktop/newcore/include/linux/list.h **** }
 1047              		.loc 4 373 9 is_stmt 0 discriminator 2 view .LVU336
 1048              	.LBE153:
 1049              	.LBE152:
 1050              		.loc 1 93 50 discriminator 1 view .LVU337
 1051 002a 9342     		cmp	r3, r2
 1052 002c 07D0     		beq	.L46
 1053              		.loc 1 93 50 discriminator 4 view .LVU338
 1054 002e 0024     		movs	r4, #0
 1055              	.LVL89:
 1056              	.L44:
  94:/mnt/c/Users/31740/Desktop/newcore/block/request_queue.c ****     spin_unlock(&q->queue_lock);
 1057              		.loc 1 94 5 is_stmt 1 view .LVU339
 1058 0030 2846     		mov	r0, r5
 1059 0032 FFF7FEFF 		bl	spin_unlock
 1060              	.LVL90:
  95:/mnt/c/Users/31740/Desktop/newcore/block/request_queue.c ****     return is_last;
ARM GAS  /tmp/ccnrTkjK.s 			page 41


 1061              		.loc 1 95 5 view .LVU340
  96:/mnt/c/Users/31740/Desktop/newcore/block/request_queue.c **** }...
 1062              		.loc 1 96 1 is_stmt 0 view .LVU341
 1063 0036 2046     		mov	r0, r4
 1064 0038 38BD     		pop	{r3, r4, r5, pc}
 1065              	.LVL91:
 1066              	.L45:
  93:/mnt/c/Users/31740/Desktop/newcore/block/request_queue.c ****     int is_last = list_is_singular(&q->icq_list) || list_empty(&q->icq_list);
 1067              		.loc 1 93 50 discriminator 3 view .LVU342
 1068 003a 0124     		movs	r4, #1
 1069              	.LVL92:
  93:/mnt/c/Users/31740/Desktop/newcore/block/request_queue.c ****     int is_last = list_is_singular(&q->icq_list) || list_empty(&q->icq_list);
 1070              		.loc 1 93 50 discriminator 3 view .LVU343
 1071 003c F8E7     		b	.L44
 1072              	.LVL93:
 1073              	.L46:
  93:/mnt/c/Users/31740/Desktop/newcore/block/request_queue.c ****     int is_last = list_is_singular(&q->icq_list) || list_empty(&q->icq_list);
 1074              		.loc 1 93 50 discriminator 3 view .LVU344
 1075 003e 0124     		movs	r4, #1
 1076              	.LVL94:
  93:/mnt/c/Users/31740/Desktop/newcore/block/request_queue.c ****     int is_last = list_is_singular(&q->icq_list) || list_empty(&q->icq_list);
 1077              		.loc 1 93 50 discriminator 3 view .LVU345
 1078 0040 F6E7     		b	.L44
 1079              		.cfi_endproc
 1080              	.LFE1039:
 1082              		.section	.rodata.str1.4,"aMS",%progbits,1
 1083              		.align	2
 1084              	.LC1:
 1085 0000 626C6B5F 		.ascii	"blk_fetch_request\000"
 1085      66657463 
 1085      685F7265 
 1085      71756573 
 1085      7400
 1086 0012 0000     		.align	2
 1087              	.LC2:
 1088 0014 00       		.ascii	"\000"
 1089              		.section	.export_table,"aw"
 1090              		.align	2
 1093              	blk_fetch_request_export_struct:
 1094 0000 00000000 		.word	.LC1
 1095 0004 14000000 		.word	.LC2
 1096 0008 00000000 		.word	blk_fetch_request
 1097              		.section	.rodata.str1.4
 1098 0015 000000   		.align	2
 1099              	.LC3:
 1100 0018 70726F63 		.ascii	"process_requests_in_queue\000"
 1100      6573735F 
 1100      72657175 
 1100      65737473 
 1100      5F696E5F 
 1101              		.section	.export_table
 1102              		.align	2
 1105              	process_requests_in_queue_export_struct:
 1106 000c 18000000 		.word	.LC3
 1107 0010 14000000 		.word	.LC2
 1108 0014 00000000 		.word	process_requests_in_queue
 1109              		.section	.rodata.str1.4
ARM GAS  /tmp/ccnrTkjK.s 			page 42


 1110 0032 0000     		.align	2
 1111              	.LC4:
 1112 0034 72657175 		.ascii	"request_queue_remove\000"
 1112      6573745F 
 1112      71756575 
 1112      655F7265 
 1112      6D6F7665 
 1113              		.section	.export_table
 1114              		.align	2
 1117              	request_queue_remove_export_struct:
 1118 0018 34000000 		.word	.LC4
 1119 001c 14000000 		.word	.LC2
 1120 0020 00000000 		.word	request_queue_remove
 1121              		.section	.rodata.str1.4
 1122 0049 000000   		.align	2
 1123              	.LC5:
 1124 004c 72657175 		.ascii	"request_queue_add\000"
 1124      6573745F 
 1124      71756575 
 1124      655F6164 
 1124      6400
 1125              		.section	.export_table
 1126              		.align	2
 1129              	request_queue_add_export_struct:
 1130 0024 4C000000 		.word	.LC5
 1131 0028 14000000 		.word	.LC2
 1132 002c 00000000 		.word	request_queue_add
 1133              		.section	.rodata.str1.4
 1134 005e 0000     		.align	2
 1135              	.LC6:
 1136 0060 72657175 		.ascii	"request_queue_init\000"
 1136      6573745F 
 1136      71756575 
 1136      655F696E 
 1136      697400
 1137              		.section	.export_table
 1138              		.align	2
 1141              	request_queue_init_export_struct:
 1142 0030 60000000 		.word	.LC6
 1143 0034 14000000 		.word	.LC2
 1144 0038 00000000 		.word	request_queue_init
 1145              		.text
 1146              	.Letext0:
 1147              		.file 6 "/mnt/c/Users/31740/Desktop/newcore/include/asm-generic/int-l64.h"
 1148              		.file 7 "/mnt/c/Users/31740/Desktop/newcore/include/asm-generic/posix_types.h"
 1149              		.file 8 "/mnt/c/Users/31740/Desktop/newcore/include/uapi/linux/types.h"
 1150              		.file 9 "/mnt/c/Users/31740/Desktop/newcore/include/linux/types.h"
 1151              		.file 10 "/mnt/c/Users/31740/Desktop/newcore/include/linux/export.h"
 1152              		.file 11 "/mnt/c/Users/31740/Desktop/newcore/include/linux/time64.h"
 1153              		.file 12 "/mnt/c/Users/31740/Desktop/newcore/arch/arm_m/include/asm/sched.h"
 1154              		.file 13 "/mnt/c/Users/31740/Desktop/newcore/include/linux/sched.h"
 1155              		.file 14 "/mnt/c/Users/31740/Desktop/newcore/include/linux/spinlock_types_raw.h"
 1156              		.file 15 "/mnt/c/Users/31740/Desktop/newcore/include/linux/spinlock_types.h"
 1157              		.file 16 "/mnt/c/Users/31740/Desktop/newcore/include/linux/mutex.h"
 1158              		.file 17 "/mnt/c/Users/31740/Desktop/newcore/include/linux/errseq.h"
 1159              		.file 18 "/mnt/c/Users/31740/Desktop/newcore/include/linux/rbtree_types.h"
 1160              		.file 19 "/mnt/c/Users/31740/Desktop/newcore/include/linux/uidgid_types.h"
ARM GAS  /tmp/ccnrTkjK.s 			page 43


 1161              		.file 20 "/mnt/c/Users/31740/Desktop/newcore/include/linux/projid.h"
 1162              		.file 21 "/mnt/c/Users/31740/Desktop/newcore/include/linux/fs.h"
 1163              		.file 22 "/mnt/c/Users/31740/Desktop/newcore/include/linux/mnt_idmapping.h"
 1164              		.file 23 "/mnt/c/Users/31740/Desktop/newcore/include/linux/uio.h"
 1165              		.file 24 "/mnt/c/Users/31740/Desktop/newcore/include/linux/migrate_mode.h"
 1166              		.file 25 "/mnt/c/Users/31740/Desktop/newcore/include/linux/wait.h"
 1167              		.file 26 "/mnt/c/Users/31740/Desktop/newcore/include/linux/xarray.h"
 1168              		.file 27 "/mnt/c/Users/31740/Desktop/newcore/include/linux/lockref.h"
 1169              		.file 28 "/mnt/c/Users/31740/Desktop/newcore/include/linux/dcache.h"
 1170              		.file 29 "/mnt/c/Users/31740/Desktop/newcore/include/linux/path.h"
 1171              		.file 30 "/mnt/c/Users/31740/Desktop/newcore/include/linux/stddef.h"
 1172              		.file 31 "/mnt/c/Users/31740/Desktop/newcore/include/linux/gfp_types.h"
 1173              		.file 32 "/mnt/c/Users/31740/Desktop/newcore/include/linux/reciprocal_div.h"
 1174              		.file 33 "/mnt/c/Users/31740/Desktop/newcore/include/linux/mm_type.h"
 1175              		.file 34 "/mnt/c/Users/31740/Desktop/newcore/include/linux/statfs.h"
 1176              		.file 35 "/mnt/c/Users/31740/Desktop/newcore/include/linux/stat.h"
 1177              		.file 36 "/mnt/c/Users/31740/Desktop/newcore/include/linux/bvec.h"
 1178              		.file 37 "/mnt/c/Users/31740/Desktop/newcore/include/linux/blk_types.h"
 1179              		.file 38 "/mnt/c/Users/31740/Desktop/newcore/include/linux/rw_hint.h"
 1180              		.file 39 "/mnt/c/Users/31740/Desktop/newcore/include/linux/blkdev.h"
 1181              		.file 40 "/mnt/c/Users/31740/Desktop/newcore/include/linux/bio.h"
 1182              		.file 41 "/mnt/c/Users/31740/Desktop/newcore/include/linux/mempool_super_haper.h"
 1183              		.file 42 "/mnt/c/Users/31740/Desktop/newcore/include/linux/mempool.h"
 1184              		.file 43 "/mnt/c/Users/31740/Desktop/newcore/include/linux/lockdep_types.h"
 1185              		.file 44 "/mnt/c/Users/31740/Desktop/newcore/include/linux/workqueue_types.h"
 1186              		.file 45 "/mnt/c/Users/31740/Desktop/newcore/include/linux/blk-mq.h"
 1187              		.file 46 "/mnt/c/Users/31740/Desktop/newcore/include/uapi/linux/pr.h"
 1188              		.file 47 "/mnt/c/Users/31740/Desktop/newcore/include/linux/pr.h"
 1189              		.file 48 "/mnt/c/Users/31740/Desktop/newcore/include/linux/hdreg.h"
 1190              		.file 49 "/mnt/c/Users/31740/Desktop/newcore/include/linux/printk.h"
ARM GAS  /tmp/ccnrTkjK.s 			page 44


DEFINED SYMBOLS
                            *ABS*:00000000 request_queue.c
     /tmp/ccnrTkjK.s:21     .text.__spin_init:00000000 $t
     /tmp/ccnrTkjK.s:26     .text.__spin_init:00000000 __spin_init
     /tmp/ccnrTkjK.s:46     .text.__spin_unlock:00000000 $t
     /tmp/ccnrTkjK.s:51     .text.__spin_unlock:00000000 __spin_unlock
     /tmp/ccnrTkjK.s:69     .text.spin_lock_init:00000000 $t
     /tmp/ccnrTkjK.s:74     .text.spin_lock_init:00000000 spin_lock_init
     /tmp/ccnrTkjK.s:97     .text.spin_unlock:00000000 $t
     /tmp/ccnrTkjK.s:102    .text.spin_unlock:00000000 spin_unlock
     /tmp/ccnrTkjK.s:124    .text.request_queue_add:00000000 $t
     /tmp/ccnrTkjK.s:130    .text.request_queue_add:00000000 request_queue_add
     /tmp/ccnrTkjK.s:197    .text.request_queue_init:00000000 $t
     /tmp/ccnrTkjK.s:203    .text.request_queue_init:00000000 request_queue_init
     /tmp/ccnrTkjK.s:329    .text.__spin_lock:00000000 $t
     /tmp/ccnrTkjK.s:334    .text.__spin_lock:00000000 __spin_lock
     /tmp/ccnrTkjK.s:384    .text.spin_lock:00000000 $t
     /tmp/ccnrTkjK.s:389    .text.spin_lock:00000000 spin_lock
     /tmp/ccnrTkjK.s:449    .text.request_queue_remove:00000000 $t
     /tmp/ccnrTkjK.s:455    .text.request_queue_remove:00000000 request_queue_remove
     /tmp/ccnrTkjK.s:600    .text.blk_fetch_request:00000000 $t
     /tmp/ccnrTkjK.s:606    .text.blk_fetch_request:00000000 blk_fetch_request
     /tmp/ccnrTkjK.s:740    .rodata.process_requests_in_queue.str1.4:00000000 $d
     /tmp/ccnrTkjK.s:744    .text.process_requests_in_queue:00000000 $t
     /tmp/ccnrTkjK.s:750    .text.process_requests_in_queue:00000000 process_requests_in_queue
     /tmp/ccnrTkjK.s:907    .text.process_requests_in_queue:00000068 $d
     /tmp/ccnrTkjK.s:912    .text.__blk_cleanup_queue:00000000 $t
     /tmp/ccnrTkjK.s:918    .text.__blk_cleanup_queue:00000000 __blk_cleanup_queue
     /tmp/ccnrTkjK.s:960    .text.__blk_end_request_cur:00000000 $t
     /tmp/ccnrTkjK.s:966    .text.__blk_end_request_cur:00000000 __blk_end_request_cur
     /tmp/ccnrTkjK.s:1083   .rodata.str1.4:00000000 $d
     /tmp/ccnrTkjK.s:1090   .export_table:00000000 $d
     /tmp/ccnrTkjK.s:1093   .export_table:00000000 blk_fetch_request_export_struct
     /tmp/ccnrTkjK.s:1105   .export_table:0000000c process_requests_in_queue_export_struct
     /tmp/ccnrTkjK.s:1117   .export_table:00000018 request_queue_remove_export_struct
     /tmp/ccnrTkjK.s:1129   .export_table:00000024 request_queue_add_export_struct
     /tmp/ccnrTkjK.s:1141   .export_table:00000030 request_queue_init_export_struct

UNDEFINED SYMBOLS
__smalloc__
stop_all_scheduler
start_all_scheduler
get_current_task
__delay
__sfree__
printk
