ARM GAS  /tmp/ccLMXO31.s 			page 1


   1              		.cpu cortex-m33
   2              		.arch armv8-m.main
   3              		.fpu fpv4-sp-d16
   4              		.arch_extension dsp
   5              		.eabi_attribute 27, 1
   6              		.eabi_attribute 28, 1
   7              		.eabi_attribute 20, 1
   8              		.eabi_attribute 21, 1
   9              		.eabi_attribute 23, 3
  10              		.eabi_attribute 24, 1
  11              		.eabi_attribute 25, 1
  12              		.eabi_attribute 26, 1
  13              		.eabi_attribute 30, 1
  14              		.eabi_attribute 34, 1
  15              		.eabi_attribute 18, 4
  16              		.file	"request_queue.c"
  17              		.text
  18              	.Ltext0:
  19              		.cfi_sections	.debug_frame
  20              		.file 1 "/mnt/c/Users/31740/Documents/codes/newcore-rp2350/block/request_queue.c"
  21              		.section	.text.spin_lock_init,"ax",%progbits
  22              		.align	1
  23              		.syntax unified
  24              		.thumb
  25              		.thumb_func
  27              	spin_lock_init:
  28              	.LVL0:
  29              	.LFB228:
  30              		.file 2 "/mnt/c/Users/31740/Documents/codes/newcore-rp2350/include/linux/spinlock.h"
   1:/mnt/c/Users/31740/Documents/codes/newcore-rp2350/include/linux/spinlock.h **** #ifndef __SPINLOCK_H__
   2:/mnt/c/Users/31740/Documents/codes/newcore-rp2350/include/linux/spinlock.h **** #define __SPINLOCK_H__
   3:/mnt/c/Users/31740/Documents/codes/newcore-rp2350/include/linux/spinlock.h **** 
   4:/mnt/c/Users/31740/Documents/codes/newcore-rp2350/include/linux/spinlock.h **** #include <linux/types.h>
   5:/mnt/c/Users/31740/Documents/codes/newcore-rp2350/include/linux/spinlock.h **** #include <linux/spinlock_types.h>
   6:/mnt/c/Users/31740/Documents/codes/newcore-rp2350/include/linux/spinlock.h **** #include <asm/irqflags.h>
   7:/mnt/c/Users/31740/Documents/codes/newcore-rp2350/include/linux/spinlock.h **** 
   8:/mnt/c/Users/31740/Documents/codes/newcore-rp2350/include/linux/spinlock.h **** struct task_struct;
   9:/mnt/c/Users/31740/Documents/codes/newcore-rp2350/include/linux/spinlock.h **** struct task_struct* get_current_task(void);
  10:/mnt/c/Users/31740/Documents/codes/newcore-rp2350/include/linux/spinlock.h **** void __delay(uint32_t time);
  11:/mnt/c/Users/31740/Documents/codes/newcore-rp2350/include/linux/spinlock.h **** 
  12:/mnt/c/Users/31740/Documents/codes/newcore-rp2350/include/linux/spinlock.h **** 
  13:/mnt/c/Users/31740/Documents/codes/newcore-rp2350/include/linux/spinlock.h **** 
  14:/mnt/c/Users/31740/Documents/codes/newcore-rp2350/include/linux/spinlock.h **** void _spin_lock(spinlock_t* lock);
  15:/mnt/c/Users/31740/Documents/codes/newcore-rp2350/include/linux/spinlock.h **** void _spin_unlock(spinlock_t* lock);
  16:/mnt/c/Users/31740/Documents/codes/newcore-rp2350/include/linux/spinlock.h **** 
  17:/mnt/c/Users/31740/Documents/codes/newcore-rp2350/include/linux/spinlock.h **** static void spin_lock_init(spinlock_t* lock){
  31              		.loc 2 17 45 view -0
  32              		.cfi_startproc
  33              		@ args = 0, pretend = 0, frame = 0
  34              		@ frame_needed = 0, uses_anonymous_args = 0
  35              		@ link register save eliminated.
  18:/mnt/c/Users/31740/Documents/codes/newcore-rp2350/include/linux/spinlock.h ****     lock->flag = 0;
  36              		.loc 2 18 5 view .LVU1
  37              		.loc 2 18 16 is_stmt 0 view .LVU2
  38 0000 0023     		movs	r3, #0
  39 0002 0360     		str	r3, [r0]
  19:/mnt/c/Users/31740/Documents/codes/newcore-rp2350/include/linux/spinlock.h **** }
ARM GAS  /tmp/ccLMXO31.s 			page 2


  40              		.loc 2 19 1 view .LVU3
  41 0004 7047     		bx	lr
  42              		.cfi_endproc
  43              	.LFE228:
  45              		.section	.text.request_queue_add,"ax",%progbits
  46              		.align	1
  47              		.global	request_queue_add
  48              		.syntax unified
  49              		.thumb
  50              		.thumb_func
  52              	request_queue_add:
  53              	.LVL1:
  54              	.LFB1034:
   1:/mnt/c/Users/31740/Documents/codes/newcore-rp2350/block/request_queue.c **** #include <linux/kernel.h>
   2:/mnt/c/Users/31740/Documents/codes/newcore-rp2350/block/request_queue.c **** #include <linux/types.h>
   3:/mnt/c/Users/31740/Documents/codes/newcore-rp2350/block/request_queue.c **** #include <linux/blkdev.h>
   4:/mnt/c/Users/31740/Documents/codes/newcore-rp2350/block/request_queue.c **** #include <linux/list.h>
   5:/mnt/c/Users/31740/Documents/codes/newcore-rp2350/block/request_queue.c **** 
   6:/mnt/c/Users/31740/Documents/codes/newcore-rp2350/block/request_queue.c **** 
   7:/mnt/c/Users/31740/Documents/codes/newcore-rp2350/block/request_queue.c **** 
   8:/mnt/c/Users/31740/Documents/codes/newcore-rp2350/block/request_queue.c **** struct request_queue *request_queue_init(int id, struct gendisk *gd,gfp_t flags)
   9:/mnt/c/Users/31740/Documents/codes/newcore-rp2350/block/request_queue.c **** {
  10:/mnt/c/Users/31740/Documents/codes/newcore-rp2350/block/request_queue.c ****     struct request_queue *q;
  11:/mnt/c/Users/31740/Documents/codes/newcore-rp2350/block/request_queue.c **** 
  12:/mnt/c/Users/31740/Documents/codes/newcore-rp2350/block/request_queue.c ****     q = kmalloc(sizeof(*q), GFP_KERNEL);  // 分配内存
  13:/mnt/c/Users/31740/Documents/codes/newcore-rp2350/block/request_queue.c ****     if (!q)
  14:/mnt/c/Users/31740/Documents/codes/newcore-rp2350/block/request_queue.c ****         return NULL;
  15:/mnt/c/Users/31740/Documents/codes/newcore-rp2350/block/request_queue.c ****     q->queuedata = NULL;               // 初始化为 NULL，后期可分配数据
  16:/mnt/c/Users/31740/Documents/codes/newcore-rp2350/block/request_queue.c ****     q->last_merge = NULL;              // 无合并请求
  17:/mnt/c/Users/31740/Documents/codes/newcore-rp2350/block/request_queue.c ****     spin_lock_init(&q->queue_lock);    // 初始化自旋锁
  18:/mnt/c/Users/31740/Documents/codes/newcore-rp2350/block/request_queue.c ****     q->quiesce_depth = 0;              // 初始静止深度为 0
  19:/mnt/c/Users/31740/Documents/codes/newcore-rp2350/block/request_queue.c ****     q->disk = gd;                      // 关联的磁盘设备
  20:/mnt/c/Users/31740/Documents/codes/newcore-rp2350/block/request_queue.c ****     q->limits.max_sectors = 128;       // 假设队列的最大扇区数为 128
  21:/mnt/c/Users/31740/Documents/codes/newcore-rp2350/block/request_queue.c ****     q->limits.max_segment_size = 32;   // 假设最大段数为 32
  22:/mnt/c/Users/31740/Documents/codes/newcore-rp2350/block/request_queue.c ****     q->id = id;                        // 队列的唯一标识符
  23:/mnt/c/Users/31740/Documents/codes/newcore-rp2350/block/request_queue.c ****     q->nr_requests = 1000;             // 队列支持的最大请求数
  24:/mnt/c/Users/31740/Documents/codes/newcore-rp2350/block/request_queue.c ****     INIT_LIST_HEAD(&q->icq_list);      // 初始化链表头
  25:/mnt/c/Users/31740/Documents/codes/newcore-rp2350/block/request_queue.c ****     q->node = 0;                       // 默认 NUMA 节点为 0
  26:/mnt/c/Users/31740/Documents/codes/newcore-rp2350/block/request_queue.c ****     return q;
  27:/mnt/c/Users/31740/Documents/codes/newcore-rp2350/block/request_queue.c **** }
  28:/mnt/c/Users/31740/Documents/codes/newcore-rp2350/block/request_queue.c **** EXPORT_SYMBOL(request_queue_init);
  29:/mnt/c/Users/31740/Documents/codes/newcore-rp2350/block/request_queue.c **** 
  30:/mnt/c/Users/31740/Documents/codes/newcore-rp2350/block/request_queue.c **** void __blk_cleanup_queue(struct request_queue *q){
  31:/mnt/c/Users/31740/Documents/codes/newcore-rp2350/block/request_queue.c ****     if(q) kfree(q);
  32:/mnt/c/Users/31740/Documents/codes/newcore-rp2350/block/request_queue.c **** }
  33:/mnt/c/Users/31740/Documents/codes/newcore-rp2350/block/request_queue.c ****  
  34:/mnt/c/Users/31740/Documents/codes/newcore-rp2350/block/request_queue.c **** void request_queue_add(struct request_queue *q, struct request *req)
  35:/mnt/c/Users/31740/Documents/codes/newcore-rp2350/block/request_queue.c **** {
  55              		.loc 1 35 1 is_stmt 1 view -0
  56              		.cfi_startproc
  57              		@ args = 0, pretend = 0, frame = 0
  58              		@ frame_needed = 0, uses_anonymous_args = 0
  59              		@ link register save eliminated.
  60              		.loc 1 35 1 is_stmt 0 view .LVU5
  61 0000 10B4     		push	{r4}
  62              	.LCFI0:
  63              		.cfi_def_cfa_offset 4
ARM GAS  /tmp/ccLMXO31.s 			page 3


  64              		.cfi_offset 4, -4
  36:/mnt/c/Users/31740/Documents/codes/newcore-rp2350/block/request_queue.c ****     list_add_tail(&req->queuelist, &q->icq_list);  // 将请求添加到队列末尾
  65              		.loc 1 36 5 is_stmt 1 view .LVU6
  66 0002 01F12802 		add	r2, r1, #40
  67 0006 00F1CC04 		add	r4, r0, #204
  68              	.LVL2:
  69              	.LBB96:
  70              	.LBI96:
  71              		.file 3 "/mnt/c/Users/31740/Documents/codes/newcore-rp2350/include/linux/list.h"
   1:/mnt/c/Users/31740/Documents/codes/newcore-rp2350/include/linux/list.h **** /* SPDX-License-Identifier: GPL-2.0 */
   2:/mnt/c/Users/31740/Documents/codes/newcore-rp2350/include/linux/list.h **** #ifndef _LINUX_LIST_H
   3:/mnt/c/Users/31740/Documents/codes/newcore-rp2350/include/linux/list.h **** #define _LINUX_LIST_H
   4:/mnt/c/Users/31740/Documents/codes/newcore-rp2350/include/linux/list.h **** 
   5:/mnt/c/Users/31740/Documents/codes/newcore-rp2350/include/linux/list.h **** #include <linux/container_of.h>
   6:/mnt/c/Users/31740/Documents/codes/newcore-rp2350/include/linux/list.h **** #include <linux/types.h>
   7:/mnt/c/Users/31740/Documents/codes/newcore-rp2350/include/linux/list.h **** #include <linux/stddef.h>
   8:/mnt/c/Users/31740/Documents/codes/newcore-rp2350/include/linux/list.h **** #include <linux/poison.h>
   9:/mnt/c/Users/31740/Documents/codes/newcore-rp2350/include/linux/list.h **** #include <linux/const.h>
  10:/mnt/c/Users/31740/Documents/codes/newcore-rp2350/include/linux/list.h **** 
  11:/mnt/c/Users/31740/Documents/codes/newcore-rp2350/include/linux/list.h **** #include <asm/barrier.h>
  12:/mnt/c/Users/31740/Documents/codes/newcore-rp2350/include/linux/list.h **** #include <linux/rwonce.h>
  13:/mnt/c/Users/31740/Documents/codes/newcore-rp2350/include/linux/list.h **** /*
  14:/mnt/c/Users/31740/Documents/codes/newcore-rp2350/include/linux/list.h ****  * Circular doubly linked list implementation.
  15:/mnt/c/Users/31740/Documents/codes/newcore-rp2350/include/linux/list.h ****  *
  16:/mnt/c/Users/31740/Documents/codes/newcore-rp2350/include/linux/list.h ****  * Some of the internal functions ("__xxx") are useful when
  17:/mnt/c/Users/31740/Documents/codes/newcore-rp2350/include/linux/list.h ****  * manipulating whole lists rather than single entries, as
  18:/mnt/c/Users/31740/Documents/codes/newcore-rp2350/include/linux/list.h ****  * sometimes we already know the next/prev entries and we can
  19:/mnt/c/Users/31740/Documents/codes/newcore-rp2350/include/linux/list.h ****  * generate better code by using them directly rather than
  20:/mnt/c/Users/31740/Documents/codes/newcore-rp2350/include/linux/list.h ****  * using the generic single-entry routines.
  21:/mnt/c/Users/31740/Documents/codes/newcore-rp2350/include/linux/list.h ****  */
  22:/mnt/c/Users/31740/Documents/codes/newcore-rp2350/include/linux/list.h **** 
  23:/mnt/c/Users/31740/Documents/codes/newcore-rp2350/include/linux/list.h **** #define LIST_HEAD_INIT(name) { &(name), &(name) }
  24:/mnt/c/Users/31740/Documents/codes/newcore-rp2350/include/linux/list.h **** 
  25:/mnt/c/Users/31740/Documents/codes/newcore-rp2350/include/linux/list.h **** #define LIST_HEAD(name) \
  26:/mnt/c/Users/31740/Documents/codes/newcore-rp2350/include/linux/list.h **** 	struct list_head name = LIST_HEAD_INIT(name)
  27:/mnt/c/Users/31740/Documents/codes/newcore-rp2350/include/linux/list.h **** 
  28:/mnt/c/Users/31740/Documents/codes/newcore-rp2350/include/linux/list.h **** /**
  29:/mnt/c/Users/31740/Documents/codes/newcore-rp2350/include/linux/list.h ****  * INIT_LIST_HEAD - Initialize a list_head structure
  30:/mnt/c/Users/31740/Documents/codes/newcore-rp2350/include/linux/list.h ****  * @list: list_head structure to be initialized.
  31:/mnt/c/Users/31740/Documents/codes/newcore-rp2350/include/linux/list.h ****  *
  32:/mnt/c/Users/31740/Documents/codes/newcore-rp2350/include/linux/list.h ****  * Initializes the list_head to point to itself.  If it is a list header,
  33:/mnt/c/Users/31740/Documents/codes/newcore-rp2350/include/linux/list.h ****  * the result is an empty list.
  34:/mnt/c/Users/31740/Documents/codes/newcore-rp2350/include/linux/list.h ****  */
  35:/mnt/c/Users/31740/Documents/codes/newcore-rp2350/include/linux/list.h **** static inline void INIT_LIST_HEAD(struct list_head *list)
  36:/mnt/c/Users/31740/Documents/codes/newcore-rp2350/include/linux/list.h **** {
  37:/mnt/c/Users/31740/Documents/codes/newcore-rp2350/include/linux/list.h **** 	WRITE_ONCE(list->next, list);
  38:/mnt/c/Users/31740/Documents/codes/newcore-rp2350/include/linux/list.h **** 	WRITE_ONCE(list->prev, list);
  39:/mnt/c/Users/31740/Documents/codes/newcore-rp2350/include/linux/list.h **** }
  40:/mnt/c/Users/31740/Documents/codes/newcore-rp2350/include/linux/list.h **** 
  41:/mnt/c/Users/31740/Documents/codes/newcore-rp2350/include/linux/list.h **** #ifdef CONFIG_LIST_HARDENED
  42:/mnt/c/Users/31740/Documents/codes/newcore-rp2350/include/linux/list.h **** 
  43:/mnt/c/Users/31740/Documents/codes/newcore-rp2350/include/linux/list.h **** #ifdef CONFIG_DEBUG_LIST
  44:/mnt/c/Users/31740/Documents/codes/newcore-rp2350/include/linux/list.h **** # define __list_valid_slowpath
  45:/mnt/c/Users/31740/Documents/codes/newcore-rp2350/include/linux/list.h **** #else
  46:/mnt/c/Users/31740/Documents/codes/newcore-rp2350/include/linux/list.h **** # define __list_valid_slowpath __cold __preserve_most
  47:/mnt/c/Users/31740/Documents/codes/newcore-rp2350/include/linux/list.h **** #endif
  48:/mnt/c/Users/31740/Documents/codes/newcore-rp2350/include/linux/list.h **** 
ARM GAS  /tmp/ccLMXO31.s 			page 4


  49:/mnt/c/Users/31740/Documents/codes/newcore-rp2350/include/linux/list.h **** /*
  50:/mnt/c/Users/31740/Documents/codes/newcore-rp2350/include/linux/list.h ****  * Performs the full set of list corruption checks before __list_add().
  51:/mnt/c/Users/31740/Documents/codes/newcore-rp2350/include/linux/list.h ****  * On list corruption reports a warning, and returns false.
  52:/mnt/c/Users/31740/Documents/codes/newcore-rp2350/include/linux/list.h ****  */
  53:/mnt/c/Users/31740/Documents/codes/newcore-rp2350/include/linux/list.h **** extern bool __list_valid_slowpath __list_add_valid_or_report(struct list_head *new,
  54:/mnt/c/Users/31740/Documents/codes/newcore-rp2350/include/linux/list.h **** 							     struct list_head *prev,
  55:/mnt/c/Users/31740/Documents/codes/newcore-rp2350/include/linux/list.h **** 							     struct list_head *next);
  56:/mnt/c/Users/31740/Documents/codes/newcore-rp2350/include/linux/list.h **** 
  57:/mnt/c/Users/31740/Documents/codes/newcore-rp2350/include/linux/list.h **** /*
  58:/mnt/c/Users/31740/Documents/codes/newcore-rp2350/include/linux/list.h ****  * Performs list corruption checks before __list_add(). Returns false if a
  59:/mnt/c/Users/31740/Documents/codes/newcore-rp2350/include/linux/list.h ****  * corruption is detected, true otherwise.
  60:/mnt/c/Users/31740/Documents/codes/newcore-rp2350/include/linux/list.h ****  *
  61:/mnt/c/Users/31740/Documents/codes/newcore-rp2350/include/linux/list.h ****  * With CONFIG_LIST_HARDENED only, performs minimal list integrity checking
  62:/mnt/c/Users/31740/Documents/codes/newcore-rp2350/include/linux/list.h ****  * inline to catch non-faulting corruptions, and only if a corruption is
  63:/mnt/c/Users/31740/Documents/codes/newcore-rp2350/include/linux/list.h ****  * detected calls the reporting function __list_add_valid_or_report().
  64:/mnt/c/Users/31740/Documents/codes/newcore-rp2350/include/linux/list.h ****  */
  65:/mnt/c/Users/31740/Documents/codes/newcore-rp2350/include/linux/list.h **** static __always_inline bool __list_add_valid(struct list_head *new,
  66:/mnt/c/Users/31740/Documents/codes/newcore-rp2350/include/linux/list.h **** 					     struct list_head *prev,
  67:/mnt/c/Users/31740/Documents/codes/newcore-rp2350/include/linux/list.h **** 					     struct list_head *next)
  68:/mnt/c/Users/31740/Documents/codes/newcore-rp2350/include/linux/list.h **** {
  69:/mnt/c/Users/31740/Documents/codes/newcore-rp2350/include/linux/list.h **** 	bool ret = true;
  70:/mnt/c/Users/31740/Documents/codes/newcore-rp2350/include/linux/list.h **** 
  71:/mnt/c/Users/31740/Documents/codes/newcore-rp2350/include/linux/list.h **** 	if (!IS_ENABLED(CONFIG_DEBUG_LIST)) {
  72:/mnt/c/Users/31740/Documents/codes/newcore-rp2350/include/linux/list.h **** 		/*
  73:/mnt/c/Users/31740/Documents/codes/newcore-rp2350/include/linux/list.h **** 		 * With the hardening version, elide checking if next and prev
  74:/mnt/c/Users/31740/Documents/codes/newcore-rp2350/include/linux/list.h **** 		 * are NULL, since the immediate dereference of them below would
  75:/mnt/c/Users/31740/Documents/codes/newcore-rp2350/include/linux/list.h **** 		 * result in a fault if NULL.
  76:/mnt/c/Users/31740/Documents/codes/newcore-rp2350/include/linux/list.h **** 		 *
  77:/mnt/c/Users/31740/Documents/codes/newcore-rp2350/include/linux/list.h **** 		 * With the reduced set of checks, we can afford to inline the
  78:/mnt/c/Users/31740/Documents/codes/newcore-rp2350/include/linux/list.h **** 		 * checks, which also gives the compiler a chance to elide some
  79:/mnt/c/Users/31740/Documents/codes/newcore-rp2350/include/linux/list.h **** 		 * of them completely if they can be proven at compile-time. If
  80:/mnt/c/Users/31740/Documents/codes/newcore-rp2350/include/linux/list.h **** 		 * one of the pre-conditions does not hold, the slow-path will
  81:/mnt/c/Users/31740/Documents/codes/newcore-rp2350/include/linux/list.h **** 		 * show a report which pre-condition failed.
  82:/mnt/c/Users/31740/Documents/codes/newcore-rp2350/include/linux/list.h **** 		 */
  83:/mnt/c/Users/31740/Documents/codes/newcore-rp2350/include/linux/list.h **** 		if (likely(next->prev == prev && prev->next == next && new != prev && new != next))
  84:/mnt/c/Users/31740/Documents/codes/newcore-rp2350/include/linux/list.h **** 			return true;
  85:/mnt/c/Users/31740/Documents/codes/newcore-rp2350/include/linux/list.h **** 		ret = false;
  86:/mnt/c/Users/31740/Documents/codes/newcore-rp2350/include/linux/list.h **** 	}
  87:/mnt/c/Users/31740/Documents/codes/newcore-rp2350/include/linux/list.h **** 
  88:/mnt/c/Users/31740/Documents/codes/newcore-rp2350/include/linux/list.h **** 	ret &= __list_add_valid_or_report(new, prev, next);
  89:/mnt/c/Users/31740/Documents/codes/newcore-rp2350/include/linux/list.h **** 	return ret;
  90:/mnt/c/Users/31740/Documents/codes/newcore-rp2350/include/linux/list.h **** }
  91:/mnt/c/Users/31740/Documents/codes/newcore-rp2350/include/linux/list.h **** 
  92:/mnt/c/Users/31740/Documents/codes/newcore-rp2350/include/linux/list.h **** /*
  93:/mnt/c/Users/31740/Documents/codes/newcore-rp2350/include/linux/list.h ****  * Performs the full set of list corruption checks before __list_del_entry().
  94:/mnt/c/Users/31740/Documents/codes/newcore-rp2350/include/linux/list.h ****  * On list corruption reports a warning, and returns false.
  95:/mnt/c/Users/31740/Documents/codes/newcore-rp2350/include/linux/list.h ****  */
  96:/mnt/c/Users/31740/Documents/codes/newcore-rp2350/include/linux/list.h **** extern bool __list_valid_slowpath __list_del_entry_valid_or_report(struct list_head *entry);
  97:/mnt/c/Users/31740/Documents/codes/newcore-rp2350/include/linux/list.h **** 
  98:/mnt/c/Users/31740/Documents/codes/newcore-rp2350/include/linux/list.h **** /*
  99:/mnt/c/Users/31740/Documents/codes/newcore-rp2350/include/linux/list.h ****  * Performs list corruption checks before __list_del_entry(). Returns false if a
 100:/mnt/c/Users/31740/Documents/codes/newcore-rp2350/include/linux/list.h ****  * corruption is detected, true otherwise.
 101:/mnt/c/Users/31740/Documents/codes/newcore-rp2350/include/linux/list.h ****  *
 102:/mnt/c/Users/31740/Documents/codes/newcore-rp2350/include/linux/list.h ****  * With CONFIG_LIST_HARDENED only, performs minimal list integrity checking
 103:/mnt/c/Users/31740/Documents/codes/newcore-rp2350/include/linux/list.h ****  * inline to catch non-faulting corruptions, and only if a corruption is
 104:/mnt/c/Users/31740/Documents/codes/newcore-rp2350/include/linux/list.h ****  * detected calls the reporting function __list_del_entry_valid_or_report().
 105:/mnt/c/Users/31740/Documents/codes/newcore-rp2350/include/linux/list.h ****  */
ARM GAS  /tmp/ccLMXO31.s 			page 5


 106:/mnt/c/Users/31740/Documents/codes/newcore-rp2350/include/linux/list.h **** static __always_inline bool __list_del_entry_valid(struct list_head *entry)
 107:/mnt/c/Users/31740/Documents/codes/newcore-rp2350/include/linux/list.h **** {
 108:/mnt/c/Users/31740/Documents/codes/newcore-rp2350/include/linux/list.h **** 	bool ret = true;
 109:/mnt/c/Users/31740/Documents/codes/newcore-rp2350/include/linux/list.h **** 
 110:/mnt/c/Users/31740/Documents/codes/newcore-rp2350/include/linux/list.h **** 	if (!IS_ENABLED(CONFIG_DEBUG_LIST)) {
 111:/mnt/c/Users/31740/Documents/codes/newcore-rp2350/include/linux/list.h **** 		struct list_head *prev = entry->prev;
 112:/mnt/c/Users/31740/Documents/codes/newcore-rp2350/include/linux/list.h **** 		struct list_head *next = entry->next;
 113:/mnt/c/Users/31740/Documents/codes/newcore-rp2350/include/linux/list.h **** 
 114:/mnt/c/Users/31740/Documents/codes/newcore-rp2350/include/linux/list.h **** 		/*
 115:/mnt/c/Users/31740/Documents/codes/newcore-rp2350/include/linux/list.h **** 		 * With the hardening version, elide checking if next and prev
 116:/mnt/c/Users/31740/Documents/codes/newcore-rp2350/include/linux/list.h **** 		 * are NULL, LIST_POISON1 or LIST_POISON2, since the immediate
 117:/mnt/c/Users/31740/Documents/codes/newcore-rp2350/include/linux/list.h **** 		 * dereference of them below would result in a fault.
 118:/mnt/c/Users/31740/Documents/codes/newcore-rp2350/include/linux/list.h **** 		 */
 119:/mnt/c/Users/31740/Documents/codes/newcore-rp2350/include/linux/list.h **** 		if (likely(prev->next == entry && next->prev == entry))
 120:/mnt/c/Users/31740/Documents/codes/newcore-rp2350/include/linux/list.h **** 			return true;
 121:/mnt/c/Users/31740/Documents/codes/newcore-rp2350/include/linux/list.h **** 		ret = false;
 122:/mnt/c/Users/31740/Documents/codes/newcore-rp2350/include/linux/list.h **** 	}
 123:/mnt/c/Users/31740/Documents/codes/newcore-rp2350/include/linux/list.h **** 
 124:/mnt/c/Users/31740/Documents/codes/newcore-rp2350/include/linux/list.h **** 	ret &= __list_del_entry_valid_or_report(entry);
 125:/mnt/c/Users/31740/Documents/codes/newcore-rp2350/include/linux/list.h **** 	return ret;
 126:/mnt/c/Users/31740/Documents/codes/newcore-rp2350/include/linux/list.h **** }
 127:/mnt/c/Users/31740/Documents/codes/newcore-rp2350/include/linux/list.h **** #else
 128:/mnt/c/Users/31740/Documents/codes/newcore-rp2350/include/linux/list.h **** static inline bool __list_add_valid(struct list_head *new,
 129:/mnt/c/Users/31740/Documents/codes/newcore-rp2350/include/linux/list.h **** 				struct list_head *prev,
 130:/mnt/c/Users/31740/Documents/codes/newcore-rp2350/include/linux/list.h **** 				struct list_head *next)
 131:/mnt/c/Users/31740/Documents/codes/newcore-rp2350/include/linux/list.h **** {
 132:/mnt/c/Users/31740/Documents/codes/newcore-rp2350/include/linux/list.h **** 	return true;
 133:/mnt/c/Users/31740/Documents/codes/newcore-rp2350/include/linux/list.h **** }
 134:/mnt/c/Users/31740/Documents/codes/newcore-rp2350/include/linux/list.h **** static inline bool __list_del_entry_valid(struct list_head *entry)
 135:/mnt/c/Users/31740/Documents/codes/newcore-rp2350/include/linux/list.h **** {
 136:/mnt/c/Users/31740/Documents/codes/newcore-rp2350/include/linux/list.h **** 	return true;
 137:/mnt/c/Users/31740/Documents/codes/newcore-rp2350/include/linux/list.h **** }
 138:/mnt/c/Users/31740/Documents/codes/newcore-rp2350/include/linux/list.h **** #endif
 139:/mnt/c/Users/31740/Documents/codes/newcore-rp2350/include/linux/list.h **** 
 140:/mnt/c/Users/31740/Documents/codes/newcore-rp2350/include/linux/list.h **** /*
 141:/mnt/c/Users/31740/Documents/codes/newcore-rp2350/include/linux/list.h ****  * Insert a new entry between two known consecutive entries.
 142:/mnt/c/Users/31740/Documents/codes/newcore-rp2350/include/linux/list.h ****  *
 143:/mnt/c/Users/31740/Documents/codes/newcore-rp2350/include/linux/list.h ****  * This is only for internal list manipulation where we know
 144:/mnt/c/Users/31740/Documents/codes/newcore-rp2350/include/linux/list.h ****  * the prev/next entries already!
 145:/mnt/c/Users/31740/Documents/codes/newcore-rp2350/include/linux/list.h ****  */
 146:/mnt/c/Users/31740/Documents/codes/newcore-rp2350/include/linux/list.h **** static inline void __list_add(struct list_head *new,
 147:/mnt/c/Users/31740/Documents/codes/newcore-rp2350/include/linux/list.h **** 			      struct list_head *prev,
 148:/mnt/c/Users/31740/Documents/codes/newcore-rp2350/include/linux/list.h **** 			      struct list_head *next)
 149:/mnt/c/Users/31740/Documents/codes/newcore-rp2350/include/linux/list.h **** {
 150:/mnt/c/Users/31740/Documents/codes/newcore-rp2350/include/linux/list.h **** 	if (!__list_add_valid(new, prev, next))
 151:/mnt/c/Users/31740/Documents/codes/newcore-rp2350/include/linux/list.h **** 		return;
 152:/mnt/c/Users/31740/Documents/codes/newcore-rp2350/include/linux/list.h **** 
 153:/mnt/c/Users/31740/Documents/codes/newcore-rp2350/include/linux/list.h **** 	next->prev = new;
 154:/mnt/c/Users/31740/Documents/codes/newcore-rp2350/include/linux/list.h **** 	new->next = next;
 155:/mnt/c/Users/31740/Documents/codes/newcore-rp2350/include/linux/list.h **** 	new->prev = prev;
 156:/mnt/c/Users/31740/Documents/codes/newcore-rp2350/include/linux/list.h **** 	WRITE_ONCE(prev->next, new);
 157:/mnt/c/Users/31740/Documents/codes/newcore-rp2350/include/linux/list.h **** }
 158:/mnt/c/Users/31740/Documents/codes/newcore-rp2350/include/linux/list.h **** 
 159:/mnt/c/Users/31740/Documents/codes/newcore-rp2350/include/linux/list.h **** /**
 160:/mnt/c/Users/31740/Documents/codes/newcore-rp2350/include/linux/list.h ****  * list_add - add a new entry
 161:/mnt/c/Users/31740/Documents/codes/newcore-rp2350/include/linux/list.h ****  * @new: new entry to be added
 162:/mnt/c/Users/31740/Documents/codes/newcore-rp2350/include/linux/list.h ****  * @head: list head to add it after
ARM GAS  /tmp/ccLMXO31.s 			page 6


 163:/mnt/c/Users/31740/Documents/codes/newcore-rp2350/include/linux/list.h ****  *
 164:/mnt/c/Users/31740/Documents/codes/newcore-rp2350/include/linux/list.h ****  * Insert a new entry after the specified head.
 165:/mnt/c/Users/31740/Documents/codes/newcore-rp2350/include/linux/list.h ****  * This is good for implementing stacks.
 166:/mnt/c/Users/31740/Documents/codes/newcore-rp2350/include/linux/list.h ****  */
 167:/mnt/c/Users/31740/Documents/codes/newcore-rp2350/include/linux/list.h **** static inline void list_add(struct list_head *new, struct list_head *head)
 168:/mnt/c/Users/31740/Documents/codes/newcore-rp2350/include/linux/list.h **** {
 169:/mnt/c/Users/31740/Documents/codes/newcore-rp2350/include/linux/list.h **** 	__list_add(new, head, head->next);
 170:/mnt/c/Users/31740/Documents/codes/newcore-rp2350/include/linux/list.h **** }
 171:/mnt/c/Users/31740/Documents/codes/newcore-rp2350/include/linux/list.h **** 
 172:/mnt/c/Users/31740/Documents/codes/newcore-rp2350/include/linux/list.h **** 
 173:/mnt/c/Users/31740/Documents/codes/newcore-rp2350/include/linux/list.h **** /**
 174:/mnt/c/Users/31740/Documents/codes/newcore-rp2350/include/linux/list.h ****  * list_add_tail - add a new entry
 175:/mnt/c/Users/31740/Documents/codes/newcore-rp2350/include/linux/list.h ****  * @new: new entry to be added
 176:/mnt/c/Users/31740/Documents/codes/newcore-rp2350/include/linux/list.h ****  * @head: list head to add it before
 177:/mnt/c/Users/31740/Documents/codes/newcore-rp2350/include/linux/list.h ****  *
 178:/mnt/c/Users/31740/Documents/codes/newcore-rp2350/include/linux/list.h ****  * Insert a new entry before the specified head.
 179:/mnt/c/Users/31740/Documents/codes/newcore-rp2350/include/linux/list.h ****  * This is useful for implementing queues.
 180:/mnt/c/Users/31740/Documents/codes/newcore-rp2350/include/linux/list.h ****  */
 181:/mnt/c/Users/31740/Documents/codes/newcore-rp2350/include/linux/list.h **** static inline void list_add_tail(struct list_head *new, struct list_head *head)
  72              		.loc 3 181 20 view .LVU7
  73              	.LBB97:
 182:/mnt/c/Users/31740/Documents/codes/newcore-rp2350/include/linux/list.h **** {
 183:/mnt/c/Users/31740/Documents/codes/newcore-rp2350/include/linux/list.h **** 	__list_add(new, head->prev, head);
  74              		.loc 3 183 2 view .LVU8
  75 000a D0F8D030 		ldr	r3, [r0, #208]
  76              	.LVL3:
  77              	.LBB98:
  78              	.LBI98:
 146:/mnt/c/Users/31740/Documents/codes/newcore-rp2350/include/linux/list.h **** 			      struct list_head *prev,
  79              		.loc 3 146 20 view .LVU9
  80              	.LBB99:
 150:/mnt/c/Users/31740/Documents/codes/newcore-rp2350/include/linux/list.h **** 		return;
  81              		.loc 3 150 2 view .LVU10
 153:/mnt/c/Users/31740/Documents/codes/newcore-rp2350/include/linux/list.h **** 	new->next = next;
  82              		.loc 3 153 2 view .LVU11
 153:/mnt/c/Users/31740/Documents/codes/newcore-rp2350/include/linux/list.h **** 	new->next = next;
  83              		.loc 3 153 13 is_stmt 0 view .LVU12
  84 000e C0F8D020 		str	r2, [r0, #208]
 154:/mnt/c/Users/31740/Documents/codes/newcore-rp2350/include/linux/list.h **** 	new->prev = prev;
  85              		.loc 3 154 2 is_stmt 1 view .LVU13
 154:/mnt/c/Users/31740/Documents/codes/newcore-rp2350/include/linux/list.h **** 	new->prev = prev;
  86              		.loc 3 154 12 is_stmt 0 view .LVU14
  87 0012 8C62     		str	r4, [r1, #40]
 155:/mnt/c/Users/31740/Documents/codes/newcore-rp2350/include/linux/list.h **** 	WRITE_ONCE(prev->next, new);
  88              		.loc 3 155 2 is_stmt 1 view .LVU15
 155:/mnt/c/Users/31740/Documents/codes/newcore-rp2350/include/linux/list.h **** 	WRITE_ONCE(prev->next, new);
  89              		.loc 3 155 12 is_stmt 0 view .LVU16
  90 0014 CB62     		str	r3, [r1, #44]
 156:/mnt/c/Users/31740/Documents/codes/newcore-rp2350/include/linux/list.h **** }
  91              		.loc 3 156 2 is_stmt 1 view .LVU17
 156:/mnt/c/Users/31740/Documents/codes/newcore-rp2350/include/linux/list.h **** }
  92              		.loc 3 156 2 view .LVU18
  93              	.LBB100:
 156:/mnt/c/Users/31740/Documents/codes/newcore-rp2350/include/linux/list.h **** }
  94              		.loc 3 156 2 view .LVU19
 156:/mnt/c/Users/31740/Documents/codes/newcore-rp2350/include/linux/list.h **** }
  95              		.loc 3 156 2 view .LVU20
ARM GAS  /tmp/ccLMXO31.s 			page 7


  96              	.LBE100:
 156:/mnt/c/Users/31740/Documents/codes/newcore-rp2350/include/linux/list.h **** }
  97              		.loc 3 156 2 discriminator 2 view .LVU21
 156:/mnt/c/Users/31740/Documents/codes/newcore-rp2350/include/linux/list.h **** }
  98              		.loc 3 156 2 discriminator 2 view .LVU22
 156:/mnt/c/Users/31740/Documents/codes/newcore-rp2350/include/linux/list.h **** }
  99              		.loc 3 156 2 discriminator 2 view .LVU23
 100 0016 1A60     		str	r2, [r3]
 156:/mnt/c/Users/31740/Documents/codes/newcore-rp2350/include/linux/list.h **** }
 101              		.loc 3 156 2 discriminator 3 view .LVU24
 156:/mnt/c/Users/31740/Documents/codes/newcore-rp2350/include/linux/list.h **** }
 102              		.loc 3 156 2 discriminator 3 view .LVU25
 103              	.LVL4:
 156:/mnt/c/Users/31740/Documents/codes/newcore-rp2350/include/linux/list.h **** }
 104              		.loc 3 156 2 is_stmt 0 discriminator 3 view .LVU26
 105              	.LBE99:
 106              	.LBE98:
 107              	.LBE97:
 108              	.LBE96:
  37:/mnt/c/Users/31740/Documents/codes/newcore-rp2350/block/request_queue.c **** }
 109              		.loc 1 37 1 view .LVU27
 110 0018 5DF8044B 		ldr	r4, [sp], #4
 111              	.LCFI1:
 112              		.cfi_restore 4
 113              		.cfi_def_cfa_offset 0
 114 001c 7047     		bx	lr
 115              		.cfi_endproc
 116              	.LFE1034:
 118              		.section	.text.request_queue_init,"ax",%progbits
 119              		.align	1
 120              		.global	request_queue_init
 121              		.syntax unified
 122              		.thumb
 123              		.thumb_func
 125              	request_queue_init:
 126              	.LVL5:
 127              	.LFB1032:
   9:/mnt/c/Users/31740/Documents/codes/newcore-rp2350/block/request_queue.c ****     struct request_queue *q;
 128              		.loc 1 9 1 is_stmt 1 view -0
 129              		.cfi_startproc
 130              		@ args = 0, pretend = 0, frame = 0
 131              		@ frame_needed = 0, uses_anonymous_args = 0
   9:/mnt/c/Users/31740/Documents/codes/newcore-rp2350/block/request_queue.c ****     struct request_queue *q;
 132              		.loc 1 9 1 is_stmt 0 view .LVU29
 133 0000 F8B5     		push	{r3, r4, r5, r6, r7, lr}
 134              	.LCFI2:
 135              		.cfi_def_cfa_offset 24
 136              		.cfi_offset 3, -24
 137              		.cfi_offset 4, -20
 138              		.cfi_offset 5, -16
 139              		.cfi_offset 6, -12
 140              		.cfi_offset 7, -8
 141              		.cfi_offset 14, -4
 142 0002 0546     		mov	r5, r0
 143 0004 0E46     		mov	r6, r1
  10:/mnt/c/Users/31740/Documents/codes/newcore-rp2350/block/request_queue.c **** 
 144              		.loc 1 10 5 is_stmt 1 view .LVU30
ARM GAS  /tmp/ccLMXO31.s 			page 8


  12:/mnt/c/Users/31740/Documents/codes/newcore-rp2350/block/request_queue.c ****     if (!q)
 145              		.loc 1 12 5 view .LVU31
 146              	.LVL6:
 147              	.LBB101:
 148              	.LBI101:
 149              		.file 4 "/mnt/c/Users/31740/Documents/codes/newcore-rp2350/include/linux/slab.h"
   1:/mnt/c/Users/31740/Documents/codes/newcore-rp2350/include/linux/slab.h **** /* SPDX-License-Identifier: GPL-2.0 */
   2:/mnt/c/Users/31740/Documents/codes/newcore-rp2350/include/linux/slab.h **** /*
   3:/mnt/c/Users/31740/Documents/codes/newcore-rp2350/include/linux/slab.h ****  * Written by Mark Hemment, 1996 (markhe@nextd.demon.co.uk).
   4:/mnt/c/Users/31740/Documents/codes/newcore-rp2350/include/linux/slab.h ****  *
   5:/mnt/c/Users/31740/Documents/codes/newcore-rp2350/include/linux/slab.h ****  * (C) SGI 2006, Christoph Lameter
   6:/mnt/c/Users/31740/Documents/codes/newcore-rp2350/include/linux/slab.h ****  * 	Cleaned up and restructured to ease the addition of alternative
   7:/mnt/c/Users/31740/Documents/codes/newcore-rp2350/include/linux/slab.h ****  * 	implementations of SLAB allocators.
   8:/mnt/c/Users/31740/Documents/codes/newcore-rp2350/include/linux/slab.h ****  * (C) Linux Foundation 2008-2013
   9:/mnt/c/Users/31740/Documents/codes/newcore-rp2350/include/linux/slab.h ****  *      Unified interface for all slab allocators
  10:/mnt/c/Users/31740/Documents/codes/newcore-rp2350/include/linux/slab.h ****  */
  11:/mnt/c/Users/31740/Documents/codes/newcore-rp2350/include/linux/slab.h **** 
  12:/mnt/c/Users/31740/Documents/codes/newcore-rp2350/include/linux/slab.h **** #ifndef _LINUX_SLAB_H
  13:/mnt/c/Users/31740/Documents/codes/newcore-rp2350/include/linux/slab.h **** #define	_LINUX_SLAB_H
  14:/mnt/c/Users/31740/Documents/codes/newcore-rp2350/include/linux/slab.h **** 
  15:/mnt/c/Users/31740/Documents/codes/newcore-rp2350/include/linux/slab.h **** #include <linux/cache.h>
  16:/mnt/c/Users/31740/Documents/codes/newcore-rp2350/include/linux/slab.h **** #include <linux/overflow.h>
  17:/mnt/c/Users/31740/Documents/codes/newcore-rp2350/include/linux/slab.h **** #include <linux/types.h>
  18:/mnt/c/Users/31740/Documents/codes/newcore-rp2350/include/linux/slab.h **** #include <linux/raid/pq.h>
  19:/mnt/c/Users/31740/Documents/codes/newcore-rp2350/include/linux/slab.h **** #include <linux/gfp_types.h>
  20:/mnt/c/Users/31740/Documents/codes/newcore-rp2350/include/linux/slab.h **** #include <linux/numa.h>
  21:/mnt/c/Users/31740/Documents/codes/newcore-rp2350/include/linux/slab.h **** #include <linux/reciprocal_div.h>
  22:/mnt/c/Users/31740/Documents/codes/newcore-rp2350/include/linux/slab.h **** #include <linux/spinlock.h>
  23:/mnt/c/Users/31740/Documents/codes/newcore-rp2350/include/linux/slab.h **** 
  24:/mnt/c/Users/31740/Documents/codes/newcore-rp2350/include/linux/slab.h **** enum _slab_flag_bits {
  25:/mnt/c/Users/31740/Documents/codes/newcore-rp2350/include/linux/slab.h **** 	_SLAB_CONSISTENCY_CHECKS,
  26:/mnt/c/Users/31740/Documents/codes/newcore-rp2350/include/linux/slab.h **** 	_SLAB_RED_ZONE,
  27:/mnt/c/Users/31740/Documents/codes/newcore-rp2350/include/linux/slab.h **** 	_SLAB_POISON,
  28:/mnt/c/Users/31740/Documents/codes/newcore-rp2350/include/linux/slab.h **** 	_SLAB_KMALLOC,
  29:/mnt/c/Users/31740/Documents/codes/newcore-rp2350/include/linux/slab.h **** 	_SLAB_HWCACHE_ALIGN,
  30:/mnt/c/Users/31740/Documents/codes/newcore-rp2350/include/linux/slab.h **** 	_SLAB_CACHE_DMA,
  31:/mnt/c/Users/31740/Documents/codes/newcore-rp2350/include/linux/slab.h **** 	_SLAB_CACHE_DMA32,
  32:/mnt/c/Users/31740/Documents/codes/newcore-rp2350/include/linux/slab.h **** 	_SLAB_STORE_USER,
  33:/mnt/c/Users/31740/Documents/codes/newcore-rp2350/include/linux/slab.h **** 	_SLAB_PANIC,
  34:/mnt/c/Users/31740/Documents/codes/newcore-rp2350/include/linux/slab.h **** 	_SLAB_TYPESAFE_BY_RCU,
  35:/mnt/c/Users/31740/Documents/codes/newcore-rp2350/include/linux/slab.h **** 	_SLAB_TRACE,
  36:/mnt/c/Users/31740/Documents/codes/newcore-rp2350/include/linux/slab.h **** #ifdef CONFIG_DEBUG_OBJECTS
  37:/mnt/c/Users/31740/Documents/codes/newcore-rp2350/include/linux/slab.h **** 	_SLAB_DEBUG_OBJECTS,
  38:/mnt/c/Users/31740/Documents/codes/newcore-rp2350/include/linux/slab.h **** #endif
  39:/mnt/c/Users/31740/Documents/codes/newcore-rp2350/include/linux/slab.h **** 	_SLAB_NOLEAKTRACE,
  40:/mnt/c/Users/31740/Documents/codes/newcore-rp2350/include/linux/slab.h **** 	_SLAB_NO_MERGE,
  41:/mnt/c/Users/31740/Documents/codes/newcore-rp2350/include/linux/slab.h **** #ifdef CONFIG_FAILSLAB
  42:/mnt/c/Users/31740/Documents/codes/newcore-rp2350/include/linux/slab.h **** 	_SLAB_FAILSLAB,
  43:/mnt/c/Users/31740/Documents/codes/newcore-rp2350/include/linux/slab.h **** #endif
  44:/mnt/c/Users/31740/Documents/codes/newcore-rp2350/include/linux/slab.h **** #ifdef CONFIG_MEMCG
  45:/mnt/c/Users/31740/Documents/codes/newcore-rp2350/include/linux/slab.h **** 	_SLAB_ACCOUNT,
  46:/mnt/c/Users/31740/Documents/codes/newcore-rp2350/include/linux/slab.h **** #endif
  47:/mnt/c/Users/31740/Documents/codes/newcore-rp2350/include/linux/slab.h **** #ifdef CONFIG_KASAN_GENERIC
  48:/mnt/c/Users/31740/Documents/codes/newcore-rp2350/include/linux/slab.h **** 	_SLAB_KASAN,
  49:/mnt/c/Users/31740/Documents/codes/newcore-rp2350/include/linux/slab.h **** #endif
  50:/mnt/c/Users/31740/Documents/codes/newcore-rp2350/include/linux/slab.h **** 	_SLAB_NO_USER_FLAGS,
  51:/mnt/c/Users/31740/Documents/codes/newcore-rp2350/include/linux/slab.h **** #ifdef CONFIG_KFENCE
ARM GAS  /tmp/ccLMXO31.s 			page 9


  52:/mnt/c/Users/31740/Documents/codes/newcore-rp2350/include/linux/slab.h **** 	_SLAB_SKIP_KFENCE,
  53:/mnt/c/Users/31740/Documents/codes/newcore-rp2350/include/linux/slab.h **** #endif
  54:/mnt/c/Users/31740/Documents/codes/newcore-rp2350/include/linux/slab.h **** #ifndef CONFIG_SLUB_TINY
  55:/mnt/c/Users/31740/Documents/codes/newcore-rp2350/include/linux/slab.h **** 	_SLAB_RECLAIM_ACCOUNT,
  56:/mnt/c/Users/31740/Documents/codes/newcore-rp2350/include/linux/slab.h **** #endif
  57:/mnt/c/Users/31740/Documents/codes/newcore-rp2350/include/linux/slab.h **** 	_SLAB_OBJECT_POISON,
  58:/mnt/c/Users/31740/Documents/codes/newcore-rp2350/include/linux/slab.h **** 	_SLAB_CMPXCHG_DOUBLE,
  59:/mnt/c/Users/31740/Documents/codes/newcore-rp2350/include/linux/slab.h **** #ifdef CONFIG_SLAB_OBJ_EXT
  60:/mnt/c/Users/31740/Documents/codes/newcore-rp2350/include/linux/slab.h **** 	_SLAB_NO_OBJ_EXT,
  61:/mnt/c/Users/31740/Documents/codes/newcore-rp2350/include/linux/slab.h **** #endif
  62:/mnt/c/Users/31740/Documents/codes/newcore-rp2350/include/linux/slab.h **** 	_SLAB_FLAGS_LAST_BIT
  63:/mnt/c/Users/31740/Documents/codes/newcore-rp2350/include/linux/slab.h **** };
  64:/mnt/c/Users/31740/Documents/codes/newcore-rp2350/include/linux/slab.h **** 
  65:/mnt/c/Users/31740/Documents/codes/newcore-rp2350/include/linux/slab.h **** 
  66:/mnt/c/Users/31740/Documents/codes/newcore-rp2350/include/linux/slab.h **** 
  67:/mnt/c/Users/31740/Documents/codes/newcore-rp2350/include/linux/slab.h **** #define __SLAB_FLAG_BIT(nr)	((slab_flags_t __force)(1U << (nr)))
  68:/mnt/c/Users/31740/Documents/codes/newcore-rp2350/include/linux/slab.h **** #define __SLAB_FLAG_UNUSED	((slab_flags_t __force)(0U))
  69:/mnt/c/Users/31740/Documents/codes/newcore-rp2350/include/linux/slab.h **** 
  70:/mnt/c/Users/31740/Documents/codes/newcore-rp2350/include/linux/slab.h **** /*
  71:/mnt/c/Users/31740/Documents/codes/newcore-rp2350/include/linux/slab.h ****  * Flags to pass to kmem_cache_create().
  72:/mnt/c/Users/31740/Documents/codes/newcore-rp2350/include/linux/slab.h ****  * The ones marked DEBUG need CONFIG_SLUB_DEBUG enabled, otherwise are no-op
  73:/mnt/c/Users/31740/Documents/codes/newcore-rp2350/include/linux/slab.h ****  */
  74:/mnt/c/Users/31740/Documents/codes/newcore-rp2350/include/linux/slab.h **** /* DEBUG: Perform (expensive) checks on alloc/free */
  75:/mnt/c/Users/31740/Documents/codes/newcore-rp2350/include/linux/slab.h **** #define SLAB_CONSISTENCY_CHECKS	__SLAB_FLAG_BIT(_SLAB_CONSISTENCY_CHECKS)
  76:/mnt/c/Users/31740/Documents/codes/newcore-rp2350/include/linux/slab.h **** /* DEBUG: Red zone objs in a cache */
  77:/mnt/c/Users/31740/Documents/codes/newcore-rp2350/include/linux/slab.h **** #define SLAB_RED_ZONE		__SLAB_FLAG_BIT(_SLAB_RED_ZONE)
  78:/mnt/c/Users/31740/Documents/codes/newcore-rp2350/include/linux/slab.h **** /* DEBUG: Poison objects */
  79:/mnt/c/Users/31740/Documents/codes/newcore-rp2350/include/linux/slab.h **** #define SLAB_POISON		__SLAB_FLAG_BIT(_SLAB_POISON)
  80:/mnt/c/Users/31740/Documents/codes/newcore-rp2350/include/linux/slab.h **** /* Indicate a kmalloc slab */
  81:/mnt/c/Users/31740/Documents/codes/newcore-rp2350/include/linux/slab.h **** #define SLAB_KMALLOC		__SLAB_FLAG_BIT(_SLAB_KMALLOC)
  82:/mnt/c/Users/31740/Documents/codes/newcore-rp2350/include/linux/slab.h **** /**
  83:/mnt/c/Users/31740/Documents/codes/newcore-rp2350/include/linux/slab.h ****  * define SLAB_HWCACHE_ALIGN - Align objects on cache line boundaries.
  84:/mnt/c/Users/31740/Documents/codes/newcore-rp2350/include/linux/slab.h ****  *
  85:/mnt/c/Users/31740/Documents/codes/newcore-rp2350/include/linux/slab.h ****  * Sufficiently large objects are aligned on cache line boundary. For object
  86:/mnt/c/Users/31740/Documents/codes/newcore-rp2350/include/linux/slab.h ****  * size smaller than a half of cache line size, the alignment is on the half of
  87:/mnt/c/Users/31740/Documents/codes/newcore-rp2350/include/linux/slab.h ****  * cache line size. In general, if object size is smaller than 1/2^n of cache
  88:/mnt/c/Users/31740/Documents/codes/newcore-rp2350/include/linux/slab.h ****  * line size, the alignment is adjusted to 1/2^n.
  89:/mnt/c/Users/31740/Documents/codes/newcore-rp2350/include/linux/slab.h ****  *
  90:/mnt/c/Users/31740/Documents/codes/newcore-rp2350/include/linux/slab.h ****  * If explicit alignment is also requested by the respective
  91:/mnt/c/Users/31740/Documents/codes/newcore-rp2350/include/linux/slab.h ****  * &struct kmem_cache_args field, the greater of both is alignments is applied.
  92:/mnt/c/Users/31740/Documents/codes/newcore-rp2350/include/linux/slab.h ****  */
  93:/mnt/c/Users/31740/Documents/codes/newcore-rp2350/include/linux/slab.h **** #define SLAB_HWCACHE_ALIGN	__SLAB_FLAG_BIT(_SLAB_HWCACHE_ALIGN)
  94:/mnt/c/Users/31740/Documents/codes/newcore-rp2350/include/linux/slab.h **** /* Use GFP_DMA memory */
  95:/mnt/c/Users/31740/Documents/codes/newcore-rp2350/include/linux/slab.h **** #define SLAB_CACHE_DMA		__SLAB_FLAG_BIT(_SLAB_CACHE_DMA)
  96:/mnt/c/Users/31740/Documents/codes/newcore-rp2350/include/linux/slab.h **** /* Use GFP_DMA32 memory */
  97:/mnt/c/Users/31740/Documents/codes/newcore-rp2350/include/linux/slab.h **** #define SLAB_CACHE_DMA32	__SLAB_FLAG_BIT(_SLAB_CACHE_DMA32)
  98:/mnt/c/Users/31740/Documents/codes/newcore-rp2350/include/linux/slab.h **** /* DEBUG: Store the last owner for bug hunting */
  99:/mnt/c/Users/31740/Documents/codes/newcore-rp2350/include/linux/slab.h **** #define SLAB_STORE_USER		__SLAB_FLAG_BIT(_SLAB_STORE_USER)
 100:/mnt/c/Users/31740/Documents/codes/newcore-rp2350/include/linux/slab.h **** /* Panic if kmem_cache_create() fails */
 101:/mnt/c/Users/31740/Documents/codes/newcore-rp2350/include/linux/slab.h **** #define SLAB_PANIC		__SLAB_FLAG_BIT(_SLAB_PANIC)
 102:/mnt/c/Users/31740/Documents/codes/newcore-rp2350/include/linux/slab.h **** /**
 103:/mnt/c/Users/31740/Documents/codes/newcore-rp2350/include/linux/slab.h ****  * define SLAB_TYPESAFE_BY_RCU - **WARNING** READ THIS!
 104:/mnt/c/Users/31740/Documents/codes/newcore-rp2350/include/linux/slab.h ****  *
 105:/mnt/c/Users/31740/Documents/codes/newcore-rp2350/include/linux/slab.h ****  * This delays freeing the SLAB page by a grace period, it does _NOT_
 106:/mnt/c/Users/31740/Documents/codes/newcore-rp2350/include/linux/slab.h ****  * delay object freeing. This means that if you do kmem_cache_free()
 107:/mnt/c/Users/31740/Documents/codes/newcore-rp2350/include/linux/slab.h ****  * that memory location is free to be reused at any time. Thus it may
 108:/mnt/c/Users/31740/Documents/codes/newcore-rp2350/include/linux/slab.h ****  * be possible to see another object there in the same RCU grace period.
ARM GAS  /tmp/ccLMXO31.s 			page 10


 109:/mnt/c/Users/31740/Documents/codes/newcore-rp2350/include/linux/slab.h ****  *
 110:/mnt/c/Users/31740/Documents/codes/newcore-rp2350/include/linux/slab.h ****  * This feature only ensures the memory location backing the object
 111:/mnt/c/Users/31740/Documents/codes/newcore-rp2350/include/linux/slab.h ****  * stays valid, the trick to using this is relying on an independent
 112:/mnt/c/Users/31740/Documents/codes/newcore-rp2350/include/linux/slab.h ****  * object validation pass. Something like:
 113:/mnt/c/Users/31740/Documents/codes/newcore-rp2350/include/linux/slab.h ****  *
 114:/mnt/c/Users/31740/Documents/codes/newcore-rp2350/include/linux/slab.h ****  * ::
 115:/mnt/c/Users/31740/Documents/codes/newcore-rp2350/include/linux/slab.h ****  *
 116:/mnt/c/Users/31740/Documents/codes/newcore-rp2350/include/linux/slab.h ****  *  begin:
 117:/mnt/c/Users/31740/Documents/codes/newcore-rp2350/include/linux/slab.h ****  *   rcu_read_lock();
 118:/mnt/c/Users/31740/Documents/codes/newcore-rp2350/include/linux/slab.h ****  *   obj = lockless_lookup(key);
 119:/mnt/c/Users/31740/Documents/codes/newcore-rp2350/include/linux/slab.h ****  *   if (obj) {
 120:/mnt/c/Users/31740/Documents/codes/newcore-rp2350/include/linux/slab.h ****  *     if (!try_get_ref(obj)) // might fail for free objects
 121:/mnt/c/Users/31740/Documents/codes/newcore-rp2350/include/linux/slab.h ****  *       rcu_read_unlock();
 122:/mnt/c/Users/31740/Documents/codes/newcore-rp2350/include/linux/slab.h ****  *       goto begin;
 123:/mnt/c/Users/31740/Documents/codes/newcore-rp2350/include/linux/slab.h ****  *
 124:/mnt/c/Users/31740/Documents/codes/newcore-rp2350/include/linux/slab.h ****  *     if (obj->key != key) { // not the object we expected
 125:/mnt/c/Users/31740/Documents/codes/newcore-rp2350/include/linux/slab.h ****  *       put_ref(obj);
 126:/mnt/c/Users/31740/Documents/codes/newcore-rp2350/include/linux/slab.h ****  *       rcu_read_unlock();
 127:/mnt/c/Users/31740/Documents/codes/newcore-rp2350/include/linux/slab.h ****  *       goto begin;
 128:/mnt/c/Users/31740/Documents/codes/newcore-rp2350/include/linux/slab.h ****  *     }
 129:/mnt/c/Users/31740/Documents/codes/newcore-rp2350/include/linux/slab.h ****  *   }
 130:/mnt/c/Users/31740/Documents/codes/newcore-rp2350/include/linux/slab.h ****  *  rcu_read_unlock();
 131:/mnt/c/Users/31740/Documents/codes/newcore-rp2350/include/linux/slab.h ****  *
 132:/mnt/c/Users/31740/Documents/codes/newcore-rp2350/include/linux/slab.h ****  * This is useful if we need to approach a kernel structure obliquely,
 133:/mnt/c/Users/31740/Documents/codes/newcore-rp2350/include/linux/slab.h ****  * from its address obtained without the usual locking. We can lock
 134:/mnt/c/Users/31740/Documents/codes/newcore-rp2350/include/linux/slab.h ****  * the structure to stabilize it and check it's still at the given address,
 135:/mnt/c/Users/31740/Documents/codes/newcore-rp2350/include/linux/slab.h ****  * only if we can be sure that the memory has not been meanwhile reused
 136:/mnt/c/Users/31740/Documents/codes/newcore-rp2350/include/linux/slab.h ****  * for some other kind of object (which our subsystem's lock might corrupt).
 137:/mnt/c/Users/31740/Documents/codes/newcore-rp2350/include/linux/slab.h ****  *
 138:/mnt/c/Users/31740/Documents/codes/newcore-rp2350/include/linux/slab.h ****  * rcu_read_lock before reading the address, then rcu_read_unlock after
 139:/mnt/c/Users/31740/Documents/codes/newcore-rp2350/include/linux/slab.h ****  * taking the spinlock within the structure expected at that address.
 140:/mnt/c/Users/31740/Documents/codes/newcore-rp2350/include/linux/slab.h ****  *
 141:/mnt/c/Users/31740/Documents/codes/newcore-rp2350/include/linux/slab.h ****  * Note that it is not possible to acquire a lock within a structure
 142:/mnt/c/Users/31740/Documents/codes/newcore-rp2350/include/linux/slab.h ****  * allocated with SLAB_TYPESAFE_BY_RCU without first acquiring a reference
 143:/mnt/c/Users/31740/Documents/codes/newcore-rp2350/include/linux/slab.h ****  * as described above.  The reason is that SLAB_TYPESAFE_BY_RCU pages
 144:/mnt/c/Users/31740/Documents/codes/newcore-rp2350/include/linux/slab.h ****  * are not zeroed before being given to the slab, which means that any
 145:/mnt/c/Users/31740/Documents/codes/newcore-rp2350/include/linux/slab.h ****  * locks must be initialized after each and every kmem_struct_alloc().
 146:/mnt/c/Users/31740/Documents/codes/newcore-rp2350/include/linux/slab.h ****  * Alternatively, make the ctor passed to kmem_cache_create() initialize
 147:/mnt/c/Users/31740/Documents/codes/newcore-rp2350/include/linux/slab.h ****  * the locks at page-allocation time, as is done in __i915_request_ctor(),
 148:/mnt/c/Users/31740/Documents/codes/newcore-rp2350/include/linux/slab.h ****  * sighand_ctor(), and anon_vma_ctor().  Such a ctor permits readers
 149:/mnt/c/Users/31740/Documents/codes/newcore-rp2350/include/linux/slab.h ****  * to safely acquire those ctor-initialized locks under rcu_read_lock()
 150:/mnt/c/Users/31740/Documents/codes/newcore-rp2350/include/linux/slab.h ****  * protection.
 151:/mnt/c/Users/31740/Documents/codes/newcore-rp2350/include/linux/slab.h ****  *
 152:/mnt/c/Users/31740/Documents/codes/newcore-rp2350/include/linux/slab.h ****  * Note that SLAB_TYPESAFE_BY_RCU was originally named SLAB_DESTROY_BY_RCU.
 153:/mnt/c/Users/31740/Documents/codes/newcore-rp2350/include/linux/slab.h ****  */
 154:/mnt/c/Users/31740/Documents/codes/newcore-rp2350/include/linux/slab.h **** #define SLAB_TYPESAFE_BY_RCU	__SLAB_FLAG_BIT(_SLAB_TYPESAFE_BY_RCU)
 155:/mnt/c/Users/31740/Documents/codes/newcore-rp2350/include/linux/slab.h **** /* Trace allocations and frees */
 156:/mnt/c/Users/31740/Documents/codes/newcore-rp2350/include/linux/slab.h **** #define SLAB_TRACE		__SLAB_FLAG_BIT(_SLAB_TRACE)
 157:/mnt/c/Users/31740/Documents/codes/newcore-rp2350/include/linux/slab.h **** 
 158:/mnt/c/Users/31740/Documents/codes/newcore-rp2350/include/linux/slab.h **** /* Flag to prevent checks on free */
 159:/mnt/c/Users/31740/Documents/codes/newcore-rp2350/include/linux/slab.h **** #ifdef CONFIG_DEBUG_OBJECTS
 160:/mnt/c/Users/31740/Documents/codes/newcore-rp2350/include/linux/slab.h **** # define SLAB_DEBUG_OBJECTS	__SLAB_FLAG_BIT(_SLAB_DEBUG_OBJECTS)
 161:/mnt/c/Users/31740/Documents/codes/newcore-rp2350/include/linux/slab.h **** #else
 162:/mnt/c/Users/31740/Documents/codes/newcore-rp2350/include/linux/slab.h **** # define SLAB_DEBUG_OBJECTS	__SLAB_FLAG_UNUSED
 163:/mnt/c/Users/31740/Documents/codes/newcore-rp2350/include/linux/slab.h **** #endif
 164:/mnt/c/Users/31740/Documents/codes/newcore-rp2350/include/linux/slab.h **** 
 165:/mnt/c/Users/31740/Documents/codes/newcore-rp2350/include/linux/slab.h **** /* Avoid kmemleak tracing */
ARM GAS  /tmp/ccLMXO31.s 			page 11


 166:/mnt/c/Users/31740/Documents/codes/newcore-rp2350/include/linux/slab.h **** #define SLAB_NOLEAKTRACE	__SLAB_FLAG_BIT(_SLAB_NOLEAKTRACE)
 167:/mnt/c/Users/31740/Documents/codes/newcore-rp2350/include/linux/slab.h **** 
 168:/mnt/c/Users/31740/Documents/codes/newcore-rp2350/include/linux/slab.h **** /*
 169:/mnt/c/Users/31740/Documents/codes/newcore-rp2350/include/linux/slab.h ****  * Prevent merging with compatible kmem caches. This flag should be used
 170:/mnt/c/Users/31740/Documents/codes/newcore-rp2350/include/linux/slab.h ****  * cautiously. Valid use cases:
 171:/mnt/c/Users/31740/Documents/codes/newcore-rp2350/include/linux/slab.h ****  *
 172:/mnt/c/Users/31740/Documents/codes/newcore-rp2350/include/linux/slab.h ****  * - caches created for self-tests (e.g. kunit)
 173:/mnt/c/Users/31740/Documents/codes/newcore-rp2350/include/linux/slab.h ****  * - general caches created and used by a subsystem, only when a
 174:/mnt/c/Users/31740/Documents/codes/newcore-rp2350/include/linux/slab.h ****  *   (subsystem-specific) debug option is enabled
 175:/mnt/c/Users/31740/Documents/codes/newcore-rp2350/include/linux/slab.h ****  * - performance critical caches, should be very rare and consulted with slab
 176:/mnt/c/Users/31740/Documents/codes/newcore-rp2350/include/linux/slab.h ****  *   maintainers, and not used together with CONFIG_SLUB_TINY
 177:/mnt/c/Users/31740/Documents/codes/newcore-rp2350/include/linux/slab.h ****  */
 178:/mnt/c/Users/31740/Documents/codes/newcore-rp2350/include/linux/slab.h **** #define SLAB_NO_MERGE		__SLAB_FLAG_BIT(_SLAB_NO_MERGE)
 179:/mnt/c/Users/31740/Documents/codes/newcore-rp2350/include/linux/slab.h **** 
 180:/mnt/c/Users/31740/Documents/codes/newcore-rp2350/include/linux/slab.h **** /* Fault injection mark */
 181:/mnt/c/Users/31740/Documents/codes/newcore-rp2350/include/linux/slab.h **** #ifdef CONFIG_FAILSLAB
 182:/mnt/c/Users/31740/Documents/codes/newcore-rp2350/include/linux/slab.h **** # define SLAB_FAILSLAB		__SLAB_FLAG_BIT(_SLAB_FAILSLAB)
 183:/mnt/c/Users/31740/Documents/codes/newcore-rp2350/include/linux/slab.h **** #else
 184:/mnt/c/Users/31740/Documents/codes/newcore-rp2350/include/linux/slab.h **** # define SLAB_FAILSLAB		__SLAB_FLAG_UNUSED
 185:/mnt/c/Users/31740/Documents/codes/newcore-rp2350/include/linux/slab.h **** #endif
 186:/mnt/c/Users/31740/Documents/codes/newcore-rp2350/include/linux/slab.h **** /**
 187:/mnt/c/Users/31740/Documents/codes/newcore-rp2350/include/linux/slab.h ****  * define SLAB_ACCOUNT - Account allocations to memcg.
 188:/mnt/c/Users/31740/Documents/codes/newcore-rp2350/include/linux/slab.h ****  *
 189:/mnt/c/Users/31740/Documents/codes/newcore-rp2350/include/linux/slab.h ****  * All object allocations from this cache will be memcg accounted, regardless of
 190:/mnt/c/Users/31740/Documents/codes/newcore-rp2350/include/linux/slab.h ****  * __GFP_ACCOUNT being or not being passed to individual allocations.
 191:/mnt/c/Users/31740/Documents/codes/newcore-rp2350/include/linux/slab.h ****  */
 192:/mnt/c/Users/31740/Documents/codes/newcore-rp2350/include/linux/slab.h **** #ifdef CONFIG_MEMCG
 193:/mnt/c/Users/31740/Documents/codes/newcore-rp2350/include/linux/slab.h **** # define SLAB_ACCOUNT		__SLAB_FLAG_BIT(_SLAB_ACCOUNT)
 194:/mnt/c/Users/31740/Documents/codes/newcore-rp2350/include/linux/slab.h **** #else
 195:/mnt/c/Users/31740/Documents/codes/newcore-rp2350/include/linux/slab.h **** # define SLAB_ACCOUNT		__SLAB_FLAG_UNUSED
 196:/mnt/c/Users/31740/Documents/codes/newcore-rp2350/include/linux/slab.h **** #endif
 197:/mnt/c/Users/31740/Documents/codes/newcore-rp2350/include/linux/slab.h **** 
 198:/mnt/c/Users/31740/Documents/codes/newcore-rp2350/include/linux/slab.h **** #ifdef CONFIG_KASAN_GENERIC
 199:/mnt/c/Users/31740/Documents/codes/newcore-rp2350/include/linux/slab.h **** #define SLAB_KASAN		__SLAB_FLAG_BIT(_SLAB_KASAN)
 200:/mnt/c/Users/31740/Documents/codes/newcore-rp2350/include/linux/slab.h **** #else
 201:/mnt/c/Users/31740/Documents/codes/newcore-rp2350/include/linux/slab.h **** #define SLAB_KASAN		__SLAB_FLAG_UNUSED
 202:/mnt/c/Users/31740/Documents/codes/newcore-rp2350/include/linux/slab.h **** #endif
 203:/mnt/c/Users/31740/Documents/codes/newcore-rp2350/include/linux/slab.h **** 
 204:/mnt/c/Users/31740/Documents/codes/newcore-rp2350/include/linux/slab.h **** /*
 205:/mnt/c/Users/31740/Documents/codes/newcore-rp2350/include/linux/slab.h ****  * Ignore user specified debugging flags.
 206:/mnt/c/Users/31740/Documents/codes/newcore-rp2350/include/linux/slab.h ****  * Intended for caches created for self-tests so they have only flags
 207:/mnt/c/Users/31740/Documents/codes/newcore-rp2350/include/linux/slab.h ****  * specified in the code and other flags are ignored.
 208:/mnt/c/Users/31740/Documents/codes/newcore-rp2350/include/linux/slab.h ****  */
 209:/mnt/c/Users/31740/Documents/codes/newcore-rp2350/include/linux/slab.h **** #define SLAB_NO_USER_FLAGS	__SLAB_FLAG_BIT(_SLAB_NO_USER_FLAGS)
 210:/mnt/c/Users/31740/Documents/codes/newcore-rp2350/include/linux/slab.h **** 
 211:/mnt/c/Users/31740/Documents/codes/newcore-rp2350/include/linux/slab.h **** #ifdef CONFIG_KFENCE
 212:/mnt/c/Users/31740/Documents/codes/newcore-rp2350/include/linux/slab.h **** #define SLAB_SKIP_KFENCE	__SLAB_FLAG_BIT(_SLAB_SKIP_KFENCE)
 213:/mnt/c/Users/31740/Documents/codes/newcore-rp2350/include/linux/slab.h **** #else
 214:/mnt/c/Users/31740/Documents/codes/newcore-rp2350/include/linux/slab.h **** #define SLAB_SKIP_KFENCE	__SLAB_FLAG_UNUSED
 215:/mnt/c/Users/31740/Documents/codes/newcore-rp2350/include/linux/slab.h **** #endif
 216:/mnt/c/Users/31740/Documents/codes/newcore-rp2350/include/linux/slab.h **** 
 217:/mnt/c/Users/31740/Documents/codes/newcore-rp2350/include/linux/slab.h **** /* The following flags affect the page allocator grouping pages by mobility */
 218:/mnt/c/Users/31740/Documents/codes/newcore-rp2350/include/linux/slab.h **** /**
 219:/mnt/c/Users/31740/Documents/codes/newcore-rp2350/include/linux/slab.h ****  * define SLAB_RECLAIM_ACCOUNT - Objects are reclaimable.
 220:/mnt/c/Users/31740/Documents/codes/newcore-rp2350/include/linux/slab.h ****  *
 221:/mnt/c/Users/31740/Documents/codes/newcore-rp2350/include/linux/slab.h ****  * Use this flag for caches that have an associated shrinker. As a result, slab
 222:/mnt/c/Users/31740/Documents/codes/newcore-rp2350/include/linux/slab.h ****  * pages are allocated with __GFP_RECLAIMABLE, which affects grouping pages by
ARM GAS  /tmp/ccLMXO31.s 			page 12


 223:/mnt/c/Users/31740/Documents/codes/newcore-rp2350/include/linux/slab.h ****  * mobility, and are accounted in SReclaimable counter in /proc/meminfo
 224:/mnt/c/Users/31740/Documents/codes/newcore-rp2350/include/linux/slab.h ****  */
 225:/mnt/c/Users/31740/Documents/codes/newcore-rp2350/include/linux/slab.h **** #ifndef CONFIG_SLUB_TINY
 226:/mnt/c/Users/31740/Documents/codes/newcore-rp2350/include/linux/slab.h **** #define SLAB_RECLAIM_ACCOUNT	__SLAB_FLAG_BIT(_SLAB_RECLAIM_ACCOUNT)
 227:/mnt/c/Users/31740/Documents/codes/newcore-rp2350/include/linux/slab.h **** #else
 228:/mnt/c/Users/31740/Documents/codes/newcore-rp2350/include/linux/slab.h **** #define SLAB_RECLAIM_ACCOUNT	__SLAB_FLAG_UNUSED
 229:/mnt/c/Users/31740/Documents/codes/newcore-rp2350/include/linux/slab.h **** #endif
 230:/mnt/c/Users/31740/Documents/codes/newcore-rp2350/include/linux/slab.h **** #define SLAB_TEMPORARY		SLAB_RECLAIM_ACCOUNT	/* Objects are short-lived */
 231:/mnt/c/Users/31740/Documents/codes/newcore-rp2350/include/linux/slab.h **** 
 232:/mnt/c/Users/31740/Documents/codes/newcore-rp2350/include/linux/slab.h **** /* Slab created using create_boot_cache */
 233:/mnt/c/Users/31740/Documents/codes/newcore-rp2350/include/linux/slab.h **** #ifdef CONFIG_SLAB_OBJ_EXT
 234:/mnt/c/Users/31740/Documents/codes/newcore-rp2350/include/linux/slab.h **** #define SLAB_NO_OBJ_EXT		__SLAB_FLAG_BIT(_SLAB_NO_OBJ_EXT)
 235:/mnt/c/Users/31740/Documents/codes/newcore-rp2350/include/linux/slab.h **** #else
 236:/mnt/c/Users/31740/Documents/codes/newcore-rp2350/include/linux/slab.h **** #define SLAB_NO_OBJ_EXT		__SLAB_FLAG_UNUSED
 237:/mnt/c/Users/31740/Documents/codes/newcore-rp2350/include/linux/slab.h **** #endif
 238:/mnt/c/Users/31740/Documents/codes/newcore-rp2350/include/linux/slab.h **** 
 239:/mnt/c/Users/31740/Documents/codes/newcore-rp2350/include/linux/slab.h **** /*
 240:/mnt/c/Users/31740/Documents/codes/newcore-rp2350/include/linux/slab.h ****  * freeptr_t represents a SLUB freelist pointer, which might be encoded
 241:/mnt/c/Users/31740/Documents/codes/newcore-rp2350/include/linux/slab.h ****  * and not dereferenceable if CONFIG_SLAB_FREELIST_HARDENED is enabled.
 242:/mnt/c/Users/31740/Documents/codes/newcore-rp2350/include/linux/slab.h ****  */
 243:/mnt/c/Users/31740/Documents/codes/newcore-rp2350/include/linux/slab.h **** typedef struct { unsigned long v; } freeptr_t;
 244:/mnt/c/Users/31740/Documents/codes/newcore-rp2350/include/linux/slab.h **** 
 245:/mnt/c/Users/31740/Documents/codes/newcore-rp2350/include/linux/slab.h **** /*
 246:/mnt/c/Users/31740/Documents/codes/newcore-rp2350/include/linux/slab.h ****  * ZERO_SIZE_PTR will be returned for zero sized kmalloc requests.
 247:/mnt/c/Users/31740/Documents/codes/newcore-rp2350/include/linux/slab.h ****  *
 248:/mnt/c/Users/31740/Documents/codes/newcore-rp2350/include/linux/slab.h ****  * Dereferencing ZERO_SIZE_PTR will lead to a distinct access fault.
 249:/mnt/c/Users/31740/Documents/codes/newcore-rp2350/include/linux/slab.h ****  *
 250:/mnt/c/Users/31740/Documents/codes/newcore-rp2350/include/linux/slab.h ****  * ZERO_SIZE_PTR can be passed to kfree though in the same way that NULL can.
 251:/mnt/c/Users/31740/Documents/codes/newcore-rp2350/include/linux/slab.h ****  * Both make kfree a no-op.
 252:/mnt/c/Users/31740/Documents/codes/newcore-rp2350/include/linux/slab.h ****  */
 253:/mnt/c/Users/31740/Documents/codes/newcore-rp2350/include/linux/slab.h **** #define ZERO_SIZE_PTR ((void *)16)
 254:/mnt/c/Users/31740/Documents/codes/newcore-rp2350/include/linux/slab.h **** 
 255:/mnt/c/Users/31740/Documents/codes/newcore-rp2350/include/linux/slab.h **** #define ZERO_OR_NULL_PTR(x) ((unsigned long)(x) <= \
 256:/mnt/c/Users/31740/Documents/codes/newcore-rp2350/include/linux/slab.h **** 				(unsigned long)ZERO_SIZE_PTR)
 257:/mnt/c/Users/31740/Documents/codes/newcore-rp2350/include/linux/slab.h **** 
 258:/mnt/c/Users/31740/Documents/codes/newcore-rp2350/include/linux/slab.h **** 
 259:/mnt/c/Users/31740/Documents/codes/newcore-rp2350/include/linux/slab.h **** 
 260:/mnt/c/Users/31740/Documents/codes/newcore-rp2350/include/linux/slab.h **** 
 261:/mnt/c/Users/31740/Documents/codes/newcore-rp2350/include/linux/slab.h **** 
 262:/mnt/c/Users/31740/Documents/codes/newcore-rp2350/include/linux/slab.h **** #ifdef CONFIG_SLUB_CPU_PARTIAL
 263:/mnt/c/Users/31740/Documents/codes/newcore-rp2350/include/linux/slab.h **** #define slub_percpu_partial(c)			((c)->partial)
 264:/mnt/c/Users/31740/Documents/codes/newcore-rp2350/include/linux/slab.h **** 
 265:/mnt/c/Users/31740/Documents/codes/newcore-rp2350/include/linux/slab.h **** #define slub_set_percpu_partial(c, p)		\
 266:/mnt/c/Users/31740/Documents/codes/newcore-rp2350/include/linux/slab.h **** ({						\
 267:/mnt/c/Users/31740/Documents/codes/newcore-rp2350/include/linux/slab.h **** 	slub_percpu_partial(c) = (p)->next;	\
 268:/mnt/c/Users/31740/Documents/codes/newcore-rp2350/include/linux/slab.h **** })
 269:/mnt/c/Users/31740/Documents/codes/newcore-rp2350/include/linux/slab.h **** 
 270:/mnt/c/Users/31740/Documents/codes/newcore-rp2350/include/linux/slab.h **** #define slub_percpu_partial_read_once(c)	READ_ONCE(slub_percpu_partial(c))
 271:/mnt/c/Users/31740/Documents/codes/newcore-rp2350/include/linux/slab.h **** #else
 272:/mnt/c/Users/31740/Documents/codes/newcore-rp2350/include/linux/slab.h **** #define slub_percpu_partial(c)			NULL
 273:/mnt/c/Users/31740/Documents/codes/newcore-rp2350/include/linux/slab.h **** 
 274:/mnt/c/Users/31740/Documents/codes/newcore-rp2350/include/linux/slab.h **** #define slub_set_percpu_partial(c, p)
 275:/mnt/c/Users/31740/Documents/codes/newcore-rp2350/include/linux/slab.h **** 
 276:/mnt/c/Users/31740/Documents/codes/newcore-rp2350/include/linux/slab.h **** #define slub_percpu_partial_read_once(c)	NULL
 277:/mnt/c/Users/31740/Documents/codes/newcore-rp2350/include/linux/slab.h **** 
 278:/mnt/c/Users/31740/Documents/codes/newcore-rp2350/include/linux/slab.h **** 
 279:/mnt/c/Users/31740/Documents/codes/newcore-rp2350/include/linux/slab.h **** #endif // CONFIG_SLUB_CPU_PARTIAL
ARM GAS  /tmp/ccLMXO31.s 			page 13


 280:/mnt/c/Users/31740/Documents/codes/newcore-rp2350/include/linux/slab.h **** 
 281:/mnt/c/Users/31740/Documents/codes/newcore-rp2350/include/linux/slab.h **** /*
 282:/mnt/c/Users/31740/Documents/codes/newcore-rp2350/include/linux/slab.h **** 	* Word size structure that can be atomically updated or read and that
 283:/mnt/c/Users/31740/Documents/codes/newcore-rp2350/include/linux/slab.h **** 	* contains both the order and the number of objects that a slab of the
 284:/mnt/c/Users/31740/Documents/codes/newcore-rp2350/include/linux/slab.h **** 	* given order would contain.
 285:/mnt/c/Users/31740/Documents/codes/newcore-rp2350/include/linux/slab.h **** 	*/				
 286:/mnt/c/Users/31740/Documents/codes/newcore-rp2350/include/linux/slab.h **** struct kmem_cache_order_objects {
 287:/mnt/c/Users/31740/Documents/codes/newcore-rp2350/include/linux/slab.h **** 	unsigned int x;
 288:/mnt/c/Users/31740/Documents/codes/newcore-rp2350/include/linux/slab.h **** };
 289:/mnt/c/Users/31740/Documents/codes/newcore-rp2350/include/linux/slab.h **** 
 290:/mnt/c/Users/31740/Documents/codes/newcore-rp2350/include/linux/slab.h **** struct kmem_cache_node {
 291:/mnt/c/Users/31740/Documents/codes/newcore-rp2350/include/linux/slab.h **** 	spinlock_t list_lock;
 292:/mnt/c/Users/31740/Documents/codes/newcore-rp2350/include/linux/slab.h **** 	unsigned long nr_partial;
 293:/mnt/c/Users/31740/Documents/codes/newcore-rp2350/include/linux/slab.h **** 	struct list_head partial;
 294:/mnt/c/Users/31740/Documents/codes/newcore-rp2350/include/linux/slab.h **** #ifdef CONFIG_SLUB_DEBUG
 295:/mnt/c/Users/31740/Documents/codes/newcore-rp2350/include/linux/slab.h **** 	atomic_long_t nr_slabs;
 296:/mnt/c/Users/31740/Documents/codes/newcore-rp2350/include/linux/slab.h **** 	atomic_long_t total_objects;
 297:/mnt/c/Users/31740/Documents/codes/newcore-rp2350/include/linux/slab.h **** 	struct list_head full;
 298:/mnt/c/Users/31740/Documents/codes/newcore-rp2350/include/linux/slab.h **** #endif
 299:/mnt/c/Users/31740/Documents/codes/newcore-rp2350/include/linux/slab.h **** };
 300:/mnt/c/Users/31740/Documents/codes/newcore-rp2350/include/linux/slab.h **** 
 301:/mnt/c/Users/31740/Documents/codes/newcore-rp2350/include/linux/slab.h **** struct kmem_cache {
 302:/mnt/c/Users/31740/Documents/codes/newcore-rp2350/include/linux/slab.h **** 	#ifndef CONFIG_SLUB_TINY
 303:/mnt/c/Users/31740/Documents/codes/newcore-rp2350/include/linux/slab.h **** 	//	struct kmem_cache_cpu __percpu *cpu_slab;
 304:/mnt/c/Users/31740/Documents/codes/newcore-rp2350/include/linux/slab.h **** 	#endif
 305:/mnt/c/Users/31740/Documents/codes/newcore-rp2350/include/linux/slab.h **** 		/* Used for retrieving partial slabs, etc. */
 306:/mnt/c/Users/31740/Documents/codes/newcore-rp2350/include/linux/slab.h **** 		slab_flags_t flags;
 307:/mnt/c/Users/31740/Documents/codes/newcore-rp2350/include/linux/slab.h **** 		unsigned long min_partial;
 308:/mnt/c/Users/31740/Documents/codes/newcore-rp2350/include/linux/slab.h **** 		unsigned int size;		/* Object size including metadata */
 309:/mnt/c/Users/31740/Documents/codes/newcore-rp2350/include/linux/slab.h **** 		unsigned int object_size;	/* Object size without metadata */
 310:/mnt/c/Users/31740/Documents/codes/newcore-rp2350/include/linux/slab.h **** 		struct reciprocal_value reciprocal_size;
 311:/mnt/c/Users/31740/Documents/codes/newcore-rp2350/include/linux/slab.h **** 		unsigned int offset;		/* Free pointer offset */
 312:/mnt/c/Users/31740/Documents/codes/newcore-rp2350/include/linux/slab.h **** 	#ifdef CONFIG_SLUB_CPU_PARTIAL
 313:/mnt/c/Users/31740/Documents/codes/newcore-rp2350/include/linux/slab.h **** 		/* Number of per cpu partial objects to keep around */
 314:/mnt/c/Users/31740/Documents/codes/newcore-rp2350/include/linux/slab.h **** 		unsigned int cpu_partial;
 315:/mnt/c/Users/31740/Documents/codes/newcore-rp2350/include/linux/slab.h **** 		/* Number of per cpu partial slabs to keep around */
 316:/mnt/c/Users/31740/Documents/codes/newcore-rp2350/include/linux/slab.h **** 		unsigned int cpu_partial_slabs;
 317:/mnt/c/Users/31740/Documents/codes/newcore-rp2350/include/linux/slab.h **** 	#endif
 318:/mnt/c/Users/31740/Documents/codes/newcore-rp2350/include/linux/slab.h **** 		struct kmem_cache_order_objects oo;
 319:/mnt/c/Users/31740/Documents/codes/newcore-rp2350/include/linux/slab.h **** 	
 320:/mnt/c/Users/31740/Documents/codes/newcore-rp2350/include/linux/slab.h **** 		/* Allocation and freeing of slabs */
 321:/mnt/c/Users/31740/Documents/codes/newcore-rp2350/include/linux/slab.h **** 		struct kmem_cache_order_objects min;
 322:/mnt/c/Users/31740/Documents/codes/newcore-rp2350/include/linux/slab.h **** 		gfp_t allocflags;		/* gfp flags to use on each alloc */
 323:/mnt/c/Users/31740/Documents/codes/newcore-rp2350/include/linux/slab.h **** 		int refcount;			/* Refcount for slab cache destroy */
 324:/mnt/c/Users/31740/Documents/codes/newcore-rp2350/include/linux/slab.h **** 		void (*ctor)(void *object);	/* Object constructor */
 325:/mnt/c/Users/31740/Documents/codes/newcore-rp2350/include/linux/slab.h **** 		unsigned int inuse;		/* Offset to metadata */
 326:/mnt/c/Users/31740/Documents/codes/newcore-rp2350/include/linux/slab.h **** 		unsigned int align;		/* Alignment */
 327:/mnt/c/Users/31740/Documents/codes/newcore-rp2350/include/linux/slab.h **** 		unsigned int red_left_pad;	/* Left redzone padding size */
 328:/mnt/c/Users/31740/Documents/codes/newcore-rp2350/include/linux/slab.h **** 		const char *name;		/* Name (only for display!) */
 329:/mnt/c/Users/31740/Documents/codes/newcore-rp2350/include/linux/slab.h **** 		struct list_head list;		/* List of slab caches */
 330:/mnt/c/Users/31740/Documents/codes/newcore-rp2350/include/linux/slab.h **** 	#ifdef CONFIG_SYSFS
 331:/mnt/c/Users/31740/Documents/codes/newcore-rp2350/include/linux/slab.h **** 		struct kobject kobj;		/* For sysfs */
 332:/mnt/c/Users/31740/Documents/codes/newcore-rp2350/include/linux/slab.h **** 	#endif
 333:/mnt/c/Users/31740/Documents/codes/newcore-rp2350/include/linux/slab.h **** 	#ifdef CONFIG_SLAB_FREELIST_HARDENED
 334:/mnt/c/Users/31740/Documents/codes/newcore-rp2350/include/linux/slab.h **** 		unsigned long random;
 335:/mnt/c/Users/31740/Documents/codes/newcore-rp2350/include/linux/slab.h **** 	#endif
 336:/mnt/c/Users/31740/Documents/codes/newcore-rp2350/include/linux/slab.h **** 	
ARM GAS  /tmp/ccLMXO31.s 			page 14


 337:/mnt/c/Users/31740/Documents/codes/newcore-rp2350/include/linux/slab.h **** 	#ifdef CONFIG_NUMA
 338:/mnt/c/Users/31740/Documents/codes/newcore-rp2350/include/linux/slab.h **** 		/*
 339:/mnt/c/Users/31740/Documents/codes/newcore-rp2350/include/linux/slab.h **** 			* Defragmentation by allocating from a remote node.
 340:/mnt/c/Users/31740/Documents/codes/newcore-rp2350/include/linux/slab.h **** 			*/
 341:/mnt/c/Users/31740/Documents/codes/newcore-rp2350/include/linux/slab.h **** 		unsigned int remote_node_defrag_ratio;
 342:/mnt/c/Users/31740/Documents/codes/newcore-rp2350/include/linux/slab.h **** 	#endif
 343:/mnt/c/Users/31740/Documents/codes/newcore-rp2350/include/linux/slab.h **** 	
 344:/mnt/c/Users/31740/Documents/codes/newcore-rp2350/include/linux/slab.h **** 	#ifdef CONFIG_SLAB_FREELIST_RANDOM
 345:/mnt/c/Users/31740/Documents/codes/newcore-rp2350/include/linux/slab.h **** 		unsigned int *random_seq;
 346:/mnt/c/Users/31740/Documents/codes/newcore-rp2350/include/linux/slab.h **** 	#endif
 347:/mnt/c/Users/31740/Documents/codes/newcore-rp2350/include/linux/slab.h **** 	
 348:/mnt/c/Users/31740/Documents/codes/newcore-rp2350/include/linux/slab.h **** 	#ifdef CONFIG_KASAN_GENERIC
 349:/mnt/c/Users/31740/Documents/codes/newcore-rp2350/include/linux/slab.h **** 		struct kasan_cache kasan_info;
 350:/mnt/c/Users/31740/Documents/codes/newcore-rp2350/include/linux/slab.h **** 	#endif
 351:/mnt/c/Users/31740/Documents/codes/newcore-rp2350/include/linux/slab.h **** 	
 352:/mnt/c/Users/31740/Documents/codes/newcore-rp2350/include/linux/slab.h **** 	#ifdef CONFIG_HARDENED_USERCOPY
 353:/mnt/c/Users/31740/Documents/codes/newcore-rp2350/include/linux/slab.h **** 		unsigned int useroffset;	/* Usercopy region offset */
 354:/mnt/c/Users/31740/Documents/codes/newcore-rp2350/include/linux/slab.h **** 		unsigned int usersize;		/* Usercopy region size */
 355:/mnt/c/Users/31740/Documents/codes/newcore-rp2350/include/linux/slab.h **** 	#endif
 356:/mnt/c/Users/31740/Documents/codes/newcore-rp2350/include/linux/slab.h **** 	
 357:/mnt/c/Users/31740/Documents/codes/newcore-rp2350/include/linux/slab.h **** 		struct kmem_cache_node *node[MAX_NUMNODES];
 358:/mnt/c/Users/31740/Documents/codes/newcore-rp2350/include/linux/slab.h **** 	};
 359:/mnt/c/Users/31740/Documents/codes/newcore-rp2350/include/linux/slab.h **** 					
 360:/mnt/c/Users/31740/Documents/codes/newcore-rp2350/include/linux/slab.h **** 
 361:/mnt/c/Users/31740/Documents/codes/newcore-rp2350/include/linux/slab.h **** 
 362:/mnt/c/Users/31740/Documents/codes/newcore-rp2350/include/linux/slab.h **** 
 363:/mnt/c/Users/31740/Documents/codes/newcore-rp2350/include/linux/slab.h **** 
 364:/mnt/c/Users/31740/Documents/codes/newcore-rp2350/include/linux/slab.h **** #define KMALLOC_WAIT 1
 365:/mnt/c/Users/31740/Documents/codes/newcore-rp2350/include/linux/slab.h **** 
 366:/mnt/c/Users/31740/Documents/codes/newcore-rp2350/include/linux/slab.h **** 
 367:/mnt/c/Users/31740/Documents/codes/newcore-rp2350/include/linux/slab.h **** extern void* __smalloc__(u32 size, gfp_t flags);
 368:/mnt/c/Users/31740/Documents/codes/newcore-rp2350/include/linux/slab.h **** extern void  __sfree__(void* addr);
 369:/mnt/c/Users/31740/Documents/codes/newcore-rp2350/include/linux/slab.h **** 
 370:/mnt/c/Users/31740/Documents/codes/newcore-rp2350/include/linux/slab.h **** 
 371:/mnt/c/Users/31740/Documents/codes/newcore-rp2350/include/linux/slab.h **** static void inline *vmalloc(unsigned long size){
 372:/mnt/c/Users/31740/Documents/codes/newcore-rp2350/include/linux/slab.h **** 	return __smalloc__(size,GFP_TRANSHUGE_LIGHT);
 373:/mnt/c/Users/31740/Documents/codes/newcore-rp2350/include/linux/slab.h **** }
 374:/mnt/c/Users/31740/Documents/codes/newcore-rp2350/include/linux/slab.h **** 
 375:/mnt/c/Users/31740/Documents/codes/newcore-rp2350/include/linux/slab.h **** static void inline vfree(void *addr){
 376:/mnt/c/Users/31740/Documents/codes/newcore-rp2350/include/linux/slab.h **** 	__sfree__(addr);
 377:/mnt/c/Users/31740/Documents/codes/newcore-rp2350/include/linux/slab.h **** }
 378:/mnt/c/Users/31740/Documents/codes/newcore-rp2350/include/linux/slab.h **** 
 379:/mnt/c/Users/31740/Documents/codes/newcore-rp2350/include/linux/slab.h **** static void inline *kmalloc(size_t size, gfp_t flags){
 150              		.loc 4 379 21 view .LVU32
 151              	.LBB102:
 380:/mnt/c/Users/31740/Documents/codes/newcore-rp2350/include/linux/slab.h **** 	return __smalloc__((u32)size,flags);
 152              		.loc 4 380 2 view .LVU33
 153              		.loc 4 380 9 is_stmt 0 view .LVU34
 154 0006 4FF44C61 		mov	r1, #3264
 155              	.LVL7:
 156              		.loc 4 380 9 view .LVU35
 157 000a E020     		movs	r0, #224
 158              	.LVL8:
 159              		.loc 4 380 9 view .LVU36
 160 000c FFF7FEFF 		bl	__smalloc__
 161              	.LVL9:
 162              		.loc 4 380 9 view .LVU37
ARM GAS  /tmp/ccLMXO31.s 			page 15


 163              	.LBE102:
 164              	.LBE101:
  13:/mnt/c/Users/31740/Documents/codes/newcore-rp2350/block/request_queue.c ****         return NULL;
 165              		.loc 1 13 5 is_stmt 1 view .LVU38
  13:/mnt/c/Users/31740/Documents/codes/newcore-rp2350/block/request_queue.c ****         return NULL;
 166              		.loc 1 13 8 is_stmt 0 view .LVU39
 167 0010 0446     		mov	r4, r0
 168 0012 C8B1     		cbz	r0, .L4
  15:/mnt/c/Users/31740/Documents/codes/newcore-rp2350/block/request_queue.c ****     q->last_merge = NULL;              // 无合并请求
 169              		.loc 1 15 5 is_stmt 1 view .LVU40
  15:/mnt/c/Users/31740/Documents/codes/newcore-rp2350/block/request_queue.c ****     q->last_merge = NULL;              // 无合并请求
 170              		.loc 1 15 18 is_stmt 0 view .LVU41
 171 0014 0027     		movs	r7, #0
 172 0016 0760     		str	r7, [r0]
  16:/mnt/c/Users/31740/Documents/codes/newcore-rp2350/block/request_queue.c ****     spin_lock_init(&q->queue_lock);    // 初始化自旋锁
 173              		.loc 1 16 5 is_stmt 1 view .LVU42
  16:/mnt/c/Users/31740/Documents/codes/newcore-rp2350/block/request_queue.c ****     spin_lock_init(&q->queue_lock);    // 初始化自旋锁
 174              		.loc 1 16 19 is_stmt 0 view .LVU43
 175 0018 4760     		str	r7, [r0, #4]
  17:/mnt/c/Users/31740/Documents/codes/newcore-rp2350/block/request_queue.c ****     q->quiesce_depth = 0;              // 初始静止深度为 0
 176              		.loc 1 17 5 is_stmt 1 view .LVU44
 177 001a 0830     		adds	r0, r0, #8
 178              	.LVL10:
  17:/mnt/c/Users/31740/Documents/codes/newcore-rp2350/block/request_queue.c ****     q->quiesce_depth = 0;              // 初始静止深度为 0
 179              		.loc 1 17 5 is_stmt 0 view .LVU45
 180 001c FFF7FEFF 		bl	spin_lock_init
 181              	.LVL11:
  18:/mnt/c/Users/31740/Documents/codes/newcore-rp2350/block/request_queue.c ****     q->disk = gd;                      // 关联的磁盘设备
 182              		.loc 1 18 5 is_stmt 1 view .LVU46
  18:/mnt/c/Users/31740/Documents/codes/newcore-rp2350/block/request_queue.c ****     q->disk = gd;                      // 关联的磁盘设备
 183              		.loc 1 18 22 is_stmt 0 view .LVU47
 184 0020 A761     		str	r7, [r4, #24]
  19:/mnt/c/Users/31740/Documents/codes/newcore-rp2350/block/request_queue.c ****     q->limits.max_sectors = 128;       // 假设队列的最大扇区数为 128
 185              		.loc 1 19 5 is_stmt 1 view .LVU48
  19:/mnt/c/Users/31740/Documents/codes/newcore-rp2350/block/request_queue.c ****     q->limits.max_sectors = 128;       // 假设队列的最大扇区数为 128
 186              		.loc 1 19 13 is_stmt 0 view .LVU49
 187 0022 E661     		str	r6, [r4, #28]
  20:/mnt/c/Users/31740/Documents/codes/newcore-rp2350/block/request_queue.c ****     q->limits.max_segment_size = 32;   // 假设最大段数为 32
 188              		.loc 1 20 5 is_stmt 1 view .LVU50
  20:/mnt/c/Users/31740/Documents/codes/newcore-rp2350/block/request_queue.c ****     q->limits.max_segment_size = 32;   // 假设最大段数为 32
 189              		.loc 1 20 27 is_stmt 0 view .LVU51
 190 0024 8023     		movs	r3, #128
 191 0026 E363     		str	r3, [r4, #60]
  21:/mnt/c/Users/31740/Documents/codes/newcore-rp2350/block/request_queue.c ****     q->id = id;                        // 队列的唯一标识符
 192              		.loc 1 21 5 is_stmt 1 view .LVU52
  21:/mnt/c/Users/31740/Documents/codes/newcore-rp2350/block/request_queue.c ****     q->id = id;                        // 队列的唯一标识符
 193              		.loc 1 21 32 is_stmt 0 view .LVU53
 194 0028 2023     		movs	r3, #32
 195 002a 6364     		str	r3, [r4, #68]
  22:/mnt/c/Users/31740/Documents/codes/newcore-rp2350/block/request_queue.c ****     q->nr_requests = 1000;             // 队列支持的最大请求数
 196              		.loc 1 22 5 is_stmt 1 view .LVU54
  22:/mnt/c/Users/31740/Documents/codes/newcore-rp2350/block/request_queue.c ****     q->nr_requests = 1000;             // 队列支持的最大请求数
 197              		.loc 1 22 11 is_stmt 0 view .LVU55
 198 002c C4F8C450 		str	r5, [r4, #196]
  23:/mnt/c/Users/31740/Documents/codes/newcore-rp2350/block/request_queue.c ****     INIT_LIST_HEAD(&q->icq_list);      // 初始化链表头
 199              		.loc 1 23 5 is_stmt 1 view .LVU56
  23:/mnt/c/Users/31740/Documents/codes/newcore-rp2350/block/request_queue.c ****     INIT_LIST_HEAD(&q->icq_list);      // 初始化链表头
ARM GAS  /tmp/ccLMXO31.s 			page 16


 200              		.loc 1 23 20 is_stmt 0 view .LVU57
 201 0030 4FF47A73 		mov	r3, #1000
 202 0034 C4F8C830 		str	r3, [r4, #200]
  24:/mnt/c/Users/31740/Documents/codes/newcore-rp2350/block/request_queue.c ****     q->node = 0;                       // 默认 NUMA 节点为 0
 203              		.loc 1 24 5 is_stmt 1 view .LVU58
 204 0038 04F1CC03 		add	r3, r4, #204
 205              	.LVL12:
 206              	.LBB103:
 207              	.LBI103:
  35:/mnt/c/Users/31740/Documents/codes/newcore-rp2350/include/linux/list.h **** {
 208              		.loc 3 35 20 view .LVU59
 209              	.LBB104:
  37:/mnt/c/Users/31740/Documents/codes/newcore-rp2350/include/linux/list.h **** 	WRITE_ONCE(list->prev, list);
 210              		.loc 3 37 2 view .LVU60
  37:/mnt/c/Users/31740/Documents/codes/newcore-rp2350/include/linux/list.h **** 	WRITE_ONCE(list->prev, list);
 211              		.loc 3 37 2 view .LVU61
 212              	.LBB105:
  37:/mnt/c/Users/31740/Documents/codes/newcore-rp2350/include/linux/list.h **** 	WRITE_ONCE(list->prev, list);
 213              		.loc 3 37 2 view .LVU62
  37:/mnt/c/Users/31740/Documents/codes/newcore-rp2350/include/linux/list.h **** 	WRITE_ONCE(list->prev, list);
 214              		.loc 3 37 2 view .LVU63
 215              	.LBE105:
  37:/mnt/c/Users/31740/Documents/codes/newcore-rp2350/include/linux/list.h **** 	WRITE_ONCE(list->prev, list);
 216              		.loc 3 37 2 discriminator 2 view .LVU64
  37:/mnt/c/Users/31740/Documents/codes/newcore-rp2350/include/linux/list.h **** 	WRITE_ONCE(list->prev, list);
 217              		.loc 3 37 2 discriminator 2 view .LVU65
  37:/mnt/c/Users/31740/Documents/codes/newcore-rp2350/include/linux/list.h **** 	WRITE_ONCE(list->prev, list);
 218              		.loc 3 37 2 discriminator 2 view .LVU66
 219 003c C4F8CC30 		str	r3, [r4, #204]
  37:/mnt/c/Users/31740/Documents/codes/newcore-rp2350/include/linux/list.h **** 	WRITE_ONCE(list->prev, list);
 220              		.loc 3 37 2 discriminator 2 view .LVU67
  37:/mnt/c/Users/31740/Documents/codes/newcore-rp2350/include/linux/list.h **** 	WRITE_ONCE(list->prev, list);
 221              		.loc 3 37 2 discriminator 2 view .LVU68
  38:/mnt/c/Users/31740/Documents/codes/newcore-rp2350/include/linux/list.h **** }
 222              		.loc 3 38 2 view .LVU69
  38:/mnt/c/Users/31740/Documents/codes/newcore-rp2350/include/linux/list.h **** }
 223              		.loc 3 38 2 view .LVU70
 224              	.LBB106:
  38:/mnt/c/Users/31740/Documents/codes/newcore-rp2350/include/linux/list.h **** }
 225              		.loc 3 38 2 view .LVU71
  38:/mnt/c/Users/31740/Documents/codes/newcore-rp2350/include/linux/list.h **** }
 226              		.loc 3 38 2 view .LVU72
 227              	.LBE106:
  38:/mnt/c/Users/31740/Documents/codes/newcore-rp2350/include/linux/list.h **** }
 228              		.loc 3 38 2 discriminator 2 view .LVU73
  38:/mnt/c/Users/31740/Documents/codes/newcore-rp2350/include/linux/list.h **** }
 229              		.loc 3 38 2 discriminator 2 view .LVU74
  38:/mnt/c/Users/31740/Documents/codes/newcore-rp2350/include/linux/list.h **** }
 230              		.loc 3 38 2 discriminator 2 view .LVU75
 231 0040 C4F8D030 		str	r3, [r4, #208]
  38:/mnt/c/Users/31740/Documents/codes/newcore-rp2350/include/linux/list.h **** }
 232              		.loc 3 38 2 discriminator 2 view .LVU76
  38:/mnt/c/Users/31740/Documents/codes/newcore-rp2350/include/linux/list.h **** }
 233              		.loc 3 38 2 discriminator 2 view .LVU77
 234              	.LVL13:
  38:/mnt/c/Users/31740/Documents/codes/newcore-rp2350/include/linux/list.h **** }
 235              		.loc 3 38 2 is_stmt 0 discriminator 2 view .LVU78
ARM GAS  /tmp/ccLMXO31.s 			page 17


 236              	.LBE104:
 237              	.LBE103:
  25:/mnt/c/Users/31740/Documents/codes/newcore-rp2350/block/request_queue.c ****     return q;
 238              		.loc 1 25 5 is_stmt 1 view .LVU79
  25:/mnt/c/Users/31740/Documents/codes/newcore-rp2350/block/request_queue.c ****     return q;
 239              		.loc 1 25 13 is_stmt 0 view .LVU80
 240 0044 C4F8D470 		str	r7, [r4, #212]
  26:/mnt/c/Users/31740/Documents/codes/newcore-rp2350/block/request_queue.c **** }
 241              		.loc 1 26 5 is_stmt 1 view .LVU81
 242              	.L4:
  27:/mnt/c/Users/31740/Documents/codes/newcore-rp2350/block/request_queue.c **** EXPORT_SYMBOL(request_queue_init);
 243              		.loc 1 27 1 is_stmt 0 view .LVU82
 244 0048 2046     		mov	r0, r4
 245 004a F8BD     		pop	{r3, r4, r5, r6, r7, pc}
  27:/mnt/c/Users/31740/Documents/codes/newcore-rp2350/block/request_queue.c **** EXPORT_SYMBOL(request_queue_init);
 246              		.loc 1 27 1 view .LVU83
 247              		.cfi_endproc
 248              	.LFE1032:
 250              		.section	.text.spin_lock,"ax",%progbits
 251              		.align	1
 252              		.syntax unified
 253              		.thumb
 254              		.thumb_func
 256              	spin_lock:
 257              	.LVL14:
 258              	.LFB229:
  20:/mnt/c/Users/31740/Documents/codes/newcore-rp2350/include/linux/spinlock.h **** 
  21:/mnt/c/Users/31740/Documents/codes/newcore-rp2350/include/linux/spinlock.h **** static void spin_lock(spinlock_t* lock)
  22:/mnt/c/Users/31740/Documents/codes/newcore-rp2350/include/linux/spinlock.h **** {  
 259              		.loc 2 22 1 is_stmt 1 view -0
 260              		.cfi_startproc
 261              		@ args = 0, pretend = 0, frame = 0
 262              		@ frame_needed = 0, uses_anonymous_args = 0
 263              		.loc 2 22 1 is_stmt 0 view .LVU85
 264 0000 08B5     		push	{r3, lr}
 265              	.LCFI3:
 266              		.cfi_def_cfa_offset 8
 267              		.cfi_offset 3, -8
 268              		.cfi_offset 14, -4
  23:/mnt/c/Users/31740/Documents/codes/newcore-rp2350/include/linux/spinlock.h ****     _spin_lock(lock);
 269              		.loc 2 23 5 is_stmt 1 view .LVU86
 270 0002 FFF7FEFF 		bl	_spin_lock
 271              	.LVL15:
  24:/mnt/c/Users/31740/Documents/codes/newcore-rp2350/include/linux/spinlock.h **** }
 272              		.loc 2 24 1 is_stmt 0 view .LVU87
 273 0006 08BD     		pop	{r3, pc}
 274              		.cfi_endproc
 275              	.LFE229:
 277              		.section	.text.spin_unlock,"ax",%progbits
 278              		.align	1
 279              		.syntax unified
 280              		.thumb
 281              		.thumb_func
 283              	spin_unlock:
 284              	.LVL16:
 285              	.LFB230:
  25:/mnt/c/Users/31740/Documents/codes/newcore-rp2350/include/linux/spinlock.h **** static void spin_unlock(spinlock_t* lock)
ARM GAS  /tmp/ccLMXO31.s 			page 18


  26:/mnt/c/Users/31740/Documents/codes/newcore-rp2350/include/linux/spinlock.h **** {
 286              		.loc 2 26 1 is_stmt 1 view -0
 287              		.cfi_startproc
 288              		@ args = 0, pretend = 0, frame = 0
 289              		@ frame_needed = 0, uses_anonymous_args = 0
 290              		.loc 2 26 1 is_stmt 0 view .LVU89
 291 0000 08B5     		push	{r3, lr}
 292              	.LCFI4:
 293              		.cfi_def_cfa_offset 8
 294              		.cfi_offset 3, -8
 295              		.cfi_offset 14, -4
  27:/mnt/c/Users/31740/Documents/codes/newcore-rp2350/include/linux/spinlock.h ****     _spin_unlock(lock);
 296              		.loc 2 27 5 is_stmt 1 view .LVU90
 297 0002 FFF7FEFF 		bl	_spin_unlock
 298              	.LVL17:
  28:/mnt/c/Users/31740/Documents/codes/newcore-rp2350/include/linux/spinlock.h **** }
 299              		.loc 2 28 1 is_stmt 0 view .LVU91
 300 0006 08BD     		pop	{r3, pc}
 301              		.cfi_endproc
 302              	.LFE230:
 304              		.section	.text.request_queue_remove,"ax",%progbits
 305              		.align	1
 306              		.global	request_queue_remove
 307              		.syntax unified
 308              		.thumb
 309              		.thumb_func
 311              	request_queue_remove:
 312              	.LVL18:
 313              	.LFB1035:
  38:/mnt/c/Users/31740/Documents/codes/newcore-rp2350/block/request_queue.c **** EXPORT_SYMBOL(request_queue_add);
  39:/mnt/c/Users/31740/Documents/codes/newcore-rp2350/block/request_queue.c **** 
  40:/mnt/c/Users/31740/Documents/codes/newcore-rp2350/block/request_queue.c **** void request_queue_remove(struct request_queue *q, struct request *req)
  41:/mnt/c/Users/31740/Documents/codes/newcore-rp2350/block/request_queue.c **** {
 314              		.loc 1 41 1 is_stmt 1 view -0
 315              		.cfi_startproc
 316              		@ args = 0, pretend = 0, frame = 0
 317              		@ frame_needed = 0, uses_anonymous_args = 0
 318              		.loc 1 41 1 is_stmt 0 view .LVU93
 319 0000 38B5     		push	{r3, r4, r5, lr}
 320              	.LCFI5:
 321              		.cfi_def_cfa_offset 16
 322              		.cfi_offset 3, -16
 323              		.cfi_offset 4, -12
 324              		.cfi_offset 5, -8
 325              		.cfi_offset 14, -4
 326 0002 0C46     		mov	r4, r1
  42:/mnt/c/Users/31740/Documents/codes/newcore-rp2350/block/request_queue.c ****     spin_lock(&q->queue_lock);
 327              		.loc 1 42 5 is_stmt 1 view .LVU94
 328 0004 00F10805 		add	r5, r0, #8
 329 0008 2846     		mov	r0, r5
 330              	.LVL19:
 331              		.loc 1 42 5 is_stmt 0 view .LVU95
 332 000a FFF7FEFF 		bl	spin_lock
 333              	.LVL20:
  43:/mnt/c/Users/31740/Documents/codes/newcore-rp2350/block/request_queue.c ****     if (!list_empty(&req->queuelist)) {
 334              		.loc 1 43 5 is_stmt 1 view .LVU96
 335              		.loc 1 43 21 is_stmt 0 view .LVU97
ARM GAS  /tmp/ccLMXO31.s 			page 19


 336 000e 04F12803 		add	r3, r4, #40
 337              	.LVL21:
 338              	.LBB107:
 339              	.LBI107:
 184:/mnt/c/Users/31740/Documents/codes/newcore-rp2350/include/linux/list.h **** }
 185:/mnt/c/Users/31740/Documents/codes/newcore-rp2350/include/linux/list.h **** 
 186:/mnt/c/Users/31740/Documents/codes/newcore-rp2350/include/linux/list.h **** /*
 187:/mnt/c/Users/31740/Documents/codes/newcore-rp2350/include/linux/list.h ****  * Delete a list entry by making the prev/next entries
 188:/mnt/c/Users/31740/Documents/codes/newcore-rp2350/include/linux/list.h ****  * point to each other.
 189:/mnt/c/Users/31740/Documents/codes/newcore-rp2350/include/linux/list.h ****  *
 190:/mnt/c/Users/31740/Documents/codes/newcore-rp2350/include/linux/list.h ****  * This is only for internal list manipulation where we know
 191:/mnt/c/Users/31740/Documents/codes/newcore-rp2350/include/linux/list.h ****  * the prev/next entries already!
 192:/mnt/c/Users/31740/Documents/codes/newcore-rp2350/include/linux/list.h ****  */
 193:/mnt/c/Users/31740/Documents/codes/newcore-rp2350/include/linux/list.h **** static inline void __list_del(struct list_head * prev, struct list_head * next)
 194:/mnt/c/Users/31740/Documents/codes/newcore-rp2350/include/linux/list.h **** {
 195:/mnt/c/Users/31740/Documents/codes/newcore-rp2350/include/linux/list.h **** 	next->prev = prev;
 196:/mnt/c/Users/31740/Documents/codes/newcore-rp2350/include/linux/list.h **** 	WRITE_ONCE(prev->next, next);
 197:/mnt/c/Users/31740/Documents/codes/newcore-rp2350/include/linux/list.h **** }
 198:/mnt/c/Users/31740/Documents/codes/newcore-rp2350/include/linux/list.h **** 
 199:/mnt/c/Users/31740/Documents/codes/newcore-rp2350/include/linux/list.h **** /*
 200:/mnt/c/Users/31740/Documents/codes/newcore-rp2350/include/linux/list.h ****  * Delete a list entry and clear the 'prev' pointer.
 201:/mnt/c/Users/31740/Documents/codes/newcore-rp2350/include/linux/list.h ****  *
 202:/mnt/c/Users/31740/Documents/codes/newcore-rp2350/include/linux/list.h ****  * This is a special-purpose list clearing method used in the networking code
 203:/mnt/c/Users/31740/Documents/codes/newcore-rp2350/include/linux/list.h ****  * for lists allocated as per-cpu, where we don't want to incur the extra
 204:/mnt/c/Users/31740/Documents/codes/newcore-rp2350/include/linux/list.h ****  * WRITE_ONCE() overhead of a regular list_del_init(). The code that uses this
 205:/mnt/c/Users/31740/Documents/codes/newcore-rp2350/include/linux/list.h ****  * needs to check the node 'prev' pointer instead of calling list_empty().
 206:/mnt/c/Users/31740/Documents/codes/newcore-rp2350/include/linux/list.h ****  */
 207:/mnt/c/Users/31740/Documents/codes/newcore-rp2350/include/linux/list.h **** static inline void __list_del_clearprev(struct list_head *entry)
 208:/mnt/c/Users/31740/Documents/codes/newcore-rp2350/include/linux/list.h **** {
 209:/mnt/c/Users/31740/Documents/codes/newcore-rp2350/include/linux/list.h **** 	__list_del(entry->prev, entry->next);
 210:/mnt/c/Users/31740/Documents/codes/newcore-rp2350/include/linux/list.h **** 	entry->prev = NULL;
 211:/mnt/c/Users/31740/Documents/codes/newcore-rp2350/include/linux/list.h **** }
 212:/mnt/c/Users/31740/Documents/codes/newcore-rp2350/include/linux/list.h **** 
 213:/mnt/c/Users/31740/Documents/codes/newcore-rp2350/include/linux/list.h **** static inline void __list_del_entry(struct list_head *entry)
 214:/mnt/c/Users/31740/Documents/codes/newcore-rp2350/include/linux/list.h **** {
 215:/mnt/c/Users/31740/Documents/codes/newcore-rp2350/include/linux/list.h **** 	if (!__list_del_entry_valid(entry))
 216:/mnt/c/Users/31740/Documents/codes/newcore-rp2350/include/linux/list.h **** 		return;
 217:/mnt/c/Users/31740/Documents/codes/newcore-rp2350/include/linux/list.h **** 
 218:/mnt/c/Users/31740/Documents/codes/newcore-rp2350/include/linux/list.h **** 	__list_del(entry->prev, entry->next);
 219:/mnt/c/Users/31740/Documents/codes/newcore-rp2350/include/linux/list.h **** }
 220:/mnt/c/Users/31740/Documents/codes/newcore-rp2350/include/linux/list.h **** 
 221:/mnt/c/Users/31740/Documents/codes/newcore-rp2350/include/linux/list.h **** /**
 222:/mnt/c/Users/31740/Documents/codes/newcore-rp2350/include/linux/list.h ****  * list_del - deletes entry from list.
 223:/mnt/c/Users/31740/Documents/codes/newcore-rp2350/include/linux/list.h ****  * @entry: the element to delete from the list.
 224:/mnt/c/Users/31740/Documents/codes/newcore-rp2350/include/linux/list.h ****  * Note: list_empty() on entry does not return true after this, the entry is
 225:/mnt/c/Users/31740/Documents/codes/newcore-rp2350/include/linux/list.h ****  * in an undefined state.
 226:/mnt/c/Users/31740/Documents/codes/newcore-rp2350/include/linux/list.h ****  */
 227:/mnt/c/Users/31740/Documents/codes/newcore-rp2350/include/linux/list.h **** static inline void list_del(struct list_head *entry)
 228:/mnt/c/Users/31740/Documents/codes/newcore-rp2350/include/linux/list.h **** {
 229:/mnt/c/Users/31740/Documents/codes/newcore-rp2350/include/linux/list.h **** 	__list_del_entry(entry);
 230:/mnt/c/Users/31740/Documents/codes/newcore-rp2350/include/linux/list.h **** 	entry->next = LIST_POISON1;
 231:/mnt/c/Users/31740/Documents/codes/newcore-rp2350/include/linux/list.h **** 	entry->prev = LIST_POISON2;
 232:/mnt/c/Users/31740/Documents/codes/newcore-rp2350/include/linux/list.h **** }
 233:/mnt/c/Users/31740/Documents/codes/newcore-rp2350/include/linux/list.h **** 
 234:/mnt/c/Users/31740/Documents/codes/newcore-rp2350/include/linux/list.h **** /**
 235:/mnt/c/Users/31740/Documents/codes/newcore-rp2350/include/linux/list.h ****  * list_replace - replace old entry by new one
 236:/mnt/c/Users/31740/Documents/codes/newcore-rp2350/include/linux/list.h ****  * @old : the element to be replaced
ARM GAS  /tmp/ccLMXO31.s 			page 20


 237:/mnt/c/Users/31740/Documents/codes/newcore-rp2350/include/linux/list.h ****  * @new : the new element to insert
 238:/mnt/c/Users/31740/Documents/codes/newcore-rp2350/include/linux/list.h ****  *
 239:/mnt/c/Users/31740/Documents/codes/newcore-rp2350/include/linux/list.h ****  * If @old was empty, it will be overwritten.
 240:/mnt/c/Users/31740/Documents/codes/newcore-rp2350/include/linux/list.h ****  */
 241:/mnt/c/Users/31740/Documents/codes/newcore-rp2350/include/linux/list.h **** static inline void list_replace(struct list_head *old,
 242:/mnt/c/Users/31740/Documents/codes/newcore-rp2350/include/linux/list.h **** 				struct list_head *new)
 243:/mnt/c/Users/31740/Documents/codes/newcore-rp2350/include/linux/list.h **** {
 244:/mnt/c/Users/31740/Documents/codes/newcore-rp2350/include/linux/list.h **** 	new->next = old->next;
 245:/mnt/c/Users/31740/Documents/codes/newcore-rp2350/include/linux/list.h **** 	new->next->prev = new;
 246:/mnt/c/Users/31740/Documents/codes/newcore-rp2350/include/linux/list.h **** 	new->prev = old->prev;
 247:/mnt/c/Users/31740/Documents/codes/newcore-rp2350/include/linux/list.h **** 	new->prev->next = new;
 248:/mnt/c/Users/31740/Documents/codes/newcore-rp2350/include/linux/list.h **** }
 249:/mnt/c/Users/31740/Documents/codes/newcore-rp2350/include/linux/list.h **** 
 250:/mnt/c/Users/31740/Documents/codes/newcore-rp2350/include/linux/list.h **** /**
 251:/mnt/c/Users/31740/Documents/codes/newcore-rp2350/include/linux/list.h ****  * list_replace_init - replace old entry by new one and initialize the old one
 252:/mnt/c/Users/31740/Documents/codes/newcore-rp2350/include/linux/list.h ****  * @old : the element to be replaced
 253:/mnt/c/Users/31740/Documents/codes/newcore-rp2350/include/linux/list.h ****  * @new : the new element to insert
 254:/mnt/c/Users/31740/Documents/codes/newcore-rp2350/include/linux/list.h ****  *
 255:/mnt/c/Users/31740/Documents/codes/newcore-rp2350/include/linux/list.h ****  * If @old was empty, it will be overwritten.
 256:/mnt/c/Users/31740/Documents/codes/newcore-rp2350/include/linux/list.h ****  */
 257:/mnt/c/Users/31740/Documents/codes/newcore-rp2350/include/linux/list.h **** static inline void list_replace_init(struct list_head *old,
 258:/mnt/c/Users/31740/Documents/codes/newcore-rp2350/include/linux/list.h **** 				     struct list_head *new)
 259:/mnt/c/Users/31740/Documents/codes/newcore-rp2350/include/linux/list.h **** {
 260:/mnt/c/Users/31740/Documents/codes/newcore-rp2350/include/linux/list.h **** 	list_replace(old, new);
 261:/mnt/c/Users/31740/Documents/codes/newcore-rp2350/include/linux/list.h **** 	INIT_LIST_HEAD(old);
 262:/mnt/c/Users/31740/Documents/codes/newcore-rp2350/include/linux/list.h **** }
 263:/mnt/c/Users/31740/Documents/codes/newcore-rp2350/include/linux/list.h **** 
 264:/mnt/c/Users/31740/Documents/codes/newcore-rp2350/include/linux/list.h **** /**
 265:/mnt/c/Users/31740/Documents/codes/newcore-rp2350/include/linux/list.h ****  * list_swap - replace entry1 with entry2 and re-add entry1 at entry2's position
 266:/mnt/c/Users/31740/Documents/codes/newcore-rp2350/include/linux/list.h ****  * @entry1: the location to place entry2
 267:/mnt/c/Users/31740/Documents/codes/newcore-rp2350/include/linux/list.h ****  * @entry2: the location to place entry1
 268:/mnt/c/Users/31740/Documents/codes/newcore-rp2350/include/linux/list.h ****  */
 269:/mnt/c/Users/31740/Documents/codes/newcore-rp2350/include/linux/list.h **** static inline void list_swap(struct list_head *entry1,
 270:/mnt/c/Users/31740/Documents/codes/newcore-rp2350/include/linux/list.h **** 			     struct list_head *entry2)
 271:/mnt/c/Users/31740/Documents/codes/newcore-rp2350/include/linux/list.h **** {
 272:/mnt/c/Users/31740/Documents/codes/newcore-rp2350/include/linux/list.h **** 	struct list_head *pos = entry2->prev;
 273:/mnt/c/Users/31740/Documents/codes/newcore-rp2350/include/linux/list.h **** 
 274:/mnt/c/Users/31740/Documents/codes/newcore-rp2350/include/linux/list.h **** 	list_del(entry2);
 275:/mnt/c/Users/31740/Documents/codes/newcore-rp2350/include/linux/list.h **** 	list_replace(entry1, entry2);
 276:/mnt/c/Users/31740/Documents/codes/newcore-rp2350/include/linux/list.h **** 	if (pos == entry1)
 277:/mnt/c/Users/31740/Documents/codes/newcore-rp2350/include/linux/list.h **** 		pos = entry2;
 278:/mnt/c/Users/31740/Documents/codes/newcore-rp2350/include/linux/list.h **** 	list_add(entry1, pos);
 279:/mnt/c/Users/31740/Documents/codes/newcore-rp2350/include/linux/list.h **** }
 280:/mnt/c/Users/31740/Documents/codes/newcore-rp2350/include/linux/list.h **** 
 281:/mnt/c/Users/31740/Documents/codes/newcore-rp2350/include/linux/list.h **** /**
 282:/mnt/c/Users/31740/Documents/codes/newcore-rp2350/include/linux/list.h ****  * list_del_init - deletes entry from list and reinitialize it.
 283:/mnt/c/Users/31740/Documents/codes/newcore-rp2350/include/linux/list.h ****  * @entry: the element to delete from the list.
 284:/mnt/c/Users/31740/Documents/codes/newcore-rp2350/include/linux/list.h ****  */
 285:/mnt/c/Users/31740/Documents/codes/newcore-rp2350/include/linux/list.h **** static inline void list_del_init(struct list_head *entry)
 286:/mnt/c/Users/31740/Documents/codes/newcore-rp2350/include/linux/list.h **** {
 287:/mnt/c/Users/31740/Documents/codes/newcore-rp2350/include/linux/list.h **** 	__list_del_entry(entry);
 288:/mnt/c/Users/31740/Documents/codes/newcore-rp2350/include/linux/list.h **** 	INIT_LIST_HEAD(entry);
 289:/mnt/c/Users/31740/Documents/codes/newcore-rp2350/include/linux/list.h **** }
 290:/mnt/c/Users/31740/Documents/codes/newcore-rp2350/include/linux/list.h **** 
 291:/mnt/c/Users/31740/Documents/codes/newcore-rp2350/include/linux/list.h **** /**
 292:/mnt/c/Users/31740/Documents/codes/newcore-rp2350/include/linux/list.h ****  * list_move - delete from one list and add as another's head
 293:/mnt/c/Users/31740/Documents/codes/newcore-rp2350/include/linux/list.h ****  * @list: the entry to move
ARM GAS  /tmp/ccLMXO31.s 			page 21


 294:/mnt/c/Users/31740/Documents/codes/newcore-rp2350/include/linux/list.h ****  * @head: the head that will precede our entry
 295:/mnt/c/Users/31740/Documents/codes/newcore-rp2350/include/linux/list.h ****  */
 296:/mnt/c/Users/31740/Documents/codes/newcore-rp2350/include/linux/list.h **** static inline void list_move(struct list_head *list, struct list_head *head)
 297:/mnt/c/Users/31740/Documents/codes/newcore-rp2350/include/linux/list.h **** {
 298:/mnt/c/Users/31740/Documents/codes/newcore-rp2350/include/linux/list.h **** 	__list_del_entry(list);
 299:/mnt/c/Users/31740/Documents/codes/newcore-rp2350/include/linux/list.h **** 	list_add(list, head);
 300:/mnt/c/Users/31740/Documents/codes/newcore-rp2350/include/linux/list.h **** }
 301:/mnt/c/Users/31740/Documents/codes/newcore-rp2350/include/linux/list.h **** 
 302:/mnt/c/Users/31740/Documents/codes/newcore-rp2350/include/linux/list.h **** /**
 303:/mnt/c/Users/31740/Documents/codes/newcore-rp2350/include/linux/list.h ****  * list_move_tail - delete from one list and add as another's tail
 304:/mnt/c/Users/31740/Documents/codes/newcore-rp2350/include/linux/list.h ****  * @list: the entry to move
 305:/mnt/c/Users/31740/Documents/codes/newcore-rp2350/include/linux/list.h ****  * @head: the head that will follow our entry
 306:/mnt/c/Users/31740/Documents/codes/newcore-rp2350/include/linux/list.h ****  */
 307:/mnt/c/Users/31740/Documents/codes/newcore-rp2350/include/linux/list.h **** static inline void list_move_tail(struct list_head *list,
 308:/mnt/c/Users/31740/Documents/codes/newcore-rp2350/include/linux/list.h **** 				  struct list_head *head)
 309:/mnt/c/Users/31740/Documents/codes/newcore-rp2350/include/linux/list.h **** {
 310:/mnt/c/Users/31740/Documents/codes/newcore-rp2350/include/linux/list.h **** 	__list_del_entry(list);
 311:/mnt/c/Users/31740/Documents/codes/newcore-rp2350/include/linux/list.h **** 	list_add_tail(list, head);
 312:/mnt/c/Users/31740/Documents/codes/newcore-rp2350/include/linux/list.h **** }
 313:/mnt/c/Users/31740/Documents/codes/newcore-rp2350/include/linux/list.h **** 
 314:/mnt/c/Users/31740/Documents/codes/newcore-rp2350/include/linux/list.h **** /**
 315:/mnt/c/Users/31740/Documents/codes/newcore-rp2350/include/linux/list.h ****  * list_bulk_move_tail - move a subsection of a list to its tail
 316:/mnt/c/Users/31740/Documents/codes/newcore-rp2350/include/linux/list.h ****  * @head: the head that will follow our entry
 317:/mnt/c/Users/31740/Documents/codes/newcore-rp2350/include/linux/list.h ****  * @first: first entry to move
 318:/mnt/c/Users/31740/Documents/codes/newcore-rp2350/include/linux/list.h ****  * @last: last entry to move, can be the same as first
 319:/mnt/c/Users/31740/Documents/codes/newcore-rp2350/include/linux/list.h ****  *
 320:/mnt/c/Users/31740/Documents/codes/newcore-rp2350/include/linux/list.h ****  * Move all entries between @first and including @last before @head.
 321:/mnt/c/Users/31740/Documents/codes/newcore-rp2350/include/linux/list.h ****  * All three entries must belong to the same linked list.
 322:/mnt/c/Users/31740/Documents/codes/newcore-rp2350/include/linux/list.h ****  */
 323:/mnt/c/Users/31740/Documents/codes/newcore-rp2350/include/linux/list.h **** static inline void list_bulk_move_tail(struct list_head *head,
 324:/mnt/c/Users/31740/Documents/codes/newcore-rp2350/include/linux/list.h **** 				       struct list_head *first,
 325:/mnt/c/Users/31740/Documents/codes/newcore-rp2350/include/linux/list.h **** 				       struct list_head *last)
 326:/mnt/c/Users/31740/Documents/codes/newcore-rp2350/include/linux/list.h **** {
 327:/mnt/c/Users/31740/Documents/codes/newcore-rp2350/include/linux/list.h **** 	first->prev->next = last->next;
 328:/mnt/c/Users/31740/Documents/codes/newcore-rp2350/include/linux/list.h **** 	last->next->prev = first->prev;
 329:/mnt/c/Users/31740/Documents/codes/newcore-rp2350/include/linux/list.h **** 
 330:/mnt/c/Users/31740/Documents/codes/newcore-rp2350/include/linux/list.h **** 	head->prev->next = first;
 331:/mnt/c/Users/31740/Documents/codes/newcore-rp2350/include/linux/list.h **** 	first->prev = head->prev;
 332:/mnt/c/Users/31740/Documents/codes/newcore-rp2350/include/linux/list.h **** 
 333:/mnt/c/Users/31740/Documents/codes/newcore-rp2350/include/linux/list.h **** 	last->next = head;
 334:/mnt/c/Users/31740/Documents/codes/newcore-rp2350/include/linux/list.h **** 	head->prev = last;
 335:/mnt/c/Users/31740/Documents/codes/newcore-rp2350/include/linux/list.h **** }
 336:/mnt/c/Users/31740/Documents/codes/newcore-rp2350/include/linux/list.h **** 
 337:/mnt/c/Users/31740/Documents/codes/newcore-rp2350/include/linux/list.h **** /**
 338:/mnt/c/Users/31740/Documents/codes/newcore-rp2350/include/linux/list.h ****  * list_is_first -- tests whether @list is the first entry in list @head
 339:/mnt/c/Users/31740/Documents/codes/newcore-rp2350/include/linux/list.h ****  * @list: the entry to test
 340:/mnt/c/Users/31740/Documents/codes/newcore-rp2350/include/linux/list.h ****  * @head: the head of the list
 341:/mnt/c/Users/31740/Documents/codes/newcore-rp2350/include/linux/list.h ****  */
 342:/mnt/c/Users/31740/Documents/codes/newcore-rp2350/include/linux/list.h **** static inline int list_is_first(const struct list_head *list, const struct list_head *head)
 343:/mnt/c/Users/31740/Documents/codes/newcore-rp2350/include/linux/list.h **** {
 344:/mnt/c/Users/31740/Documents/codes/newcore-rp2350/include/linux/list.h **** 	return list->prev == head;
 345:/mnt/c/Users/31740/Documents/codes/newcore-rp2350/include/linux/list.h **** }
 346:/mnt/c/Users/31740/Documents/codes/newcore-rp2350/include/linux/list.h **** 
 347:/mnt/c/Users/31740/Documents/codes/newcore-rp2350/include/linux/list.h **** /**
 348:/mnt/c/Users/31740/Documents/codes/newcore-rp2350/include/linux/list.h ****  * list_is_last - tests whether @list is the last entry in list @head
 349:/mnt/c/Users/31740/Documents/codes/newcore-rp2350/include/linux/list.h ****  * @list: the entry to test
 350:/mnt/c/Users/31740/Documents/codes/newcore-rp2350/include/linux/list.h ****  * @head: the head of the list
ARM GAS  /tmp/ccLMXO31.s 			page 22


 351:/mnt/c/Users/31740/Documents/codes/newcore-rp2350/include/linux/list.h ****  */
 352:/mnt/c/Users/31740/Documents/codes/newcore-rp2350/include/linux/list.h **** static inline int list_is_last(const struct list_head *list, const struct list_head *head)
 353:/mnt/c/Users/31740/Documents/codes/newcore-rp2350/include/linux/list.h **** {
 354:/mnt/c/Users/31740/Documents/codes/newcore-rp2350/include/linux/list.h **** 	return list->next == head;
 355:/mnt/c/Users/31740/Documents/codes/newcore-rp2350/include/linux/list.h **** }
 356:/mnt/c/Users/31740/Documents/codes/newcore-rp2350/include/linux/list.h **** 
 357:/mnt/c/Users/31740/Documents/codes/newcore-rp2350/include/linux/list.h **** /**
 358:/mnt/c/Users/31740/Documents/codes/newcore-rp2350/include/linux/list.h ****  * list_is_head - tests whether @list is the list @head
 359:/mnt/c/Users/31740/Documents/codes/newcore-rp2350/include/linux/list.h ****  * @list: the entry to test
 360:/mnt/c/Users/31740/Documents/codes/newcore-rp2350/include/linux/list.h ****  * @head: the head of the list
 361:/mnt/c/Users/31740/Documents/codes/newcore-rp2350/include/linux/list.h ****  */
 362:/mnt/c/Users/31740/Documents/codes/newcore-rp2350/include/linux/list.h **** static inline int list_is_head(const struct list_head *list, const struct list_head *head)
 363:/mnt/c/Users/31740/Documents/codes/newcore-rp2350/include/linux/list.h **** {
 364:/mnt/c/Users/31740/Documents/codes/newcore-rp2350/include/linux/list.h **** 	return list == head;
 365:/mnt/c/Users/31740/Documents/codes/newcore-rp2350/include/linux/list.h **** }
 366:/mnt/c/Users/31740/Documents/codes/newcore-rp2350/include/linux/list.h **** 
 367:/mnt/c/Users/31740/Documents/codes/newcore-rp2350/include/linux/list.h **** /**
 368:/mnt/c/Users/31740/Documents/codes/newcore-rp2350/include/linux/list.h ****  * list_empty - tests whether a list is empty
 369:/mnt/c/Users/31740/Documents/codes/newcore-rp2350/include/linux/list.h ****  * @head: the list to test.
 370:/mnt/c/Users/31740/Documents/codes/newcore-rp2350/include/linux/list.h ****  */
 371:/mnt/c/Users/31740/Documents/codes/newcore-rp2350/include/linux/list.h **** static inline int list_empty(const struct list_head *head)
 340              		.loc 3 371 19 is_stmt 1 view .LVU98
 372:/mnt/c/Users/31740/Documents/codes/newcore-rp2350/include/linux/list.h **** {
 373:/mnt/c/Users/31740/Documents/codes/newcore-rp2350/include/linux/list.h **** 	return READ_ONCE(head->next) == head;
 341              		.loc 3 373 2 view .LVU99
 342              	.LBB108:
 343              		.loc 3 373 9 view .LVU100
 344              	.LBB109:
 345              		.loc 3 373 9 view .LVU101
 346              		.loc 3 373 9 view .LVU102
 347              	.LBE109:
 348              		.loc 3 373 9 discriminator 2 view .LVU103
 349              		.loc 3 373 9 discriminator 2 view .LVU104
 350 0012 A26A     		ldr	r2, [r4, #40]
 351              	.LVL22:
 352              		.loc 3 373 9 is_stmt 0 discriminator 2 view .LVU105
 353              	.LBE108:
 354              	.LBE107:
 355              		.loc 1 43 8 discriminator 1 view .LVU106
 356 0014 9342     		cmp	r3, r2
 357 0016 08D0     		beq	.L12
  44:/mnt/c/Users/31740/Documents/codes/newcore-rp2350/block/request_queue.c ****         list_del_init(&req->queuelist);  // 确保 `req->queuelist` 变为未使用状态
 358              		.loc 1 44 9 is_stmt 1 view .LVU107
 359              	.LVL23:
 360              	.LBB110:
 361              	.LBI110:
 285:/mnt/c/Users/31740/Documents/codes/newcore-rp2350/include/linux/list.h **** {
 362              		.loc 3 285 20 view .LVU108
 287:/mnt/c/Users/31740/Documents/codes/newcore-rp2350/include/linux/list.h **** 	INIT_LIST_HEAD(entry);
 363              		.loc 3 287 2 view .LVU109
 364              	.LBB111:
 365              	.LBI111:
 213:/mnt/c/Users/31740/Documents/codes/newcore-rp2350/include/linux/list.h **** {
 366              		.loc 3 213 20 view .LVU110
 367              	.LBB112:
 215:/mnt/c/Users/31740/Documents/codes/newcore-rp2350/include/linux/list.h **** 		return;
 368              		.loc 3 215 2 view .LVU111
ARM GAS  /tmp/ccLMXO31.s 			page 23


 218:/mnt/c/Users/31740/Documents/codes/newcore-rp2350/include/linux/list.h **** }
 369              		.loc 3 218 2 view .LVU112
 370 0018 E26A     		ldr	r2, [r4, #44]
 371 001a A16A     		ldr	r1, [r4, #40]
 372              	.LVL24:
 373              	.LBB113:
 374              	.LBI113:
 193:/mnt/c/Users/31740/Documents/codes/newcore-rp2350/include/linux/list.h **** {
 375              		.loc 3 193 20 view .LVU113
 376              	.LBB114:
 195:/mnt/c/Users/31740/Documents/codes/newcore-rp2350/include/linux/list.h **** 	WRITE_ONCE(prev->next, next);
 377              		.loc 3 195 2 view .LVU114
 195:/mnt/c/Users/31740/Documents/codes/newcore-rp2350/include/linux/list.h **** 	WRITE_ONCE(prev->next, next);
 378              		.loc 3 195 13 is_stmt 0 view .LVU115
 379 001c 4A60     		str	r2, [r1, #4]
 196:/mnt/c/Users/31740/Documents/codes/newcore-rp2350/include/linux/list.h **** }
 380              		.loc 3 196 2 is_stmt 1 view .LVU116
 196:/mnt/c/Users/31740/Documents/codes/newcore-rp2350/include/linux/list.h **** }
 381              		.loc 3 196 2 view .LVU117
 382              	.LBB115:
 196:/mnt/c/Users/31740/Documents/codes/newcore-rp2350/include/linux/list.h **** }
 383              		.loc 3 196 2 view .LVU118
 196:/mnt/c/Users/31740/Documents/codes/newcore-rp2350/include/linux/list.h **** }
 384              		.loc 3 196 2 view .LVU119
 385              	.LBE115:
 196:/mnt/c/Users/31740/Documents/codes/newcore-rp2350/include/linux/list.h **** }
 386              		.loc 3 196 2 discriminator 2 view .LVU120
 196:/mnt/c/Users/31740/Documents/codes/newcore-rp2350/include/linux/list.h **** }
 387              		.loc 3 196 2 discriminator 2 view .LVU121
 196:/mnt/c/Users/31740/Documents/codes/newcore-rp2350/include/linux/list.h **** }
 388              		.loc 3 196 2 discriminator 2 view .LVU122
 389 001e 1160     		str	r1, [r2]
 196:/mnt/c/Users/31740/Documents/codes/newcore-rp2350/include/linux/list.h **** }
 390              		.loc 3 196 2 discriminator 2 view .LVU123
 196:/mnt/c/Users/31740/Documents/codes/newcore-rp2350/include/linux/list.h **** }
 391              		.loc 3 196 2 discriminator 2 view .LVU124
 392              	.LVL25:
 196:/mnt/c/Users/31740/Documents/codes/newcore-rp2350/include/linux/list.h **** }
 393              		.loc 3 196 2 is_stmt 0 discriminator 2 view .LVU125
 394              	.LBE114:
 395              	.LBE113:
 396              	.LBE112:
 397              	.LBE111:
 288:/mnt/c/Users/31740/Documents/codes/newcore-rp2350/include/linux/list.h **** }
 398              		.loc 3 288 2 is_stmt 1 view .LVU126
 399              	.LBB116:
 400              	.LBI116:
  35:/mnt/c/Users/31740/Documents/codes/newcore-rp2350/include/linux/list.h **** {
 401              		.loc 3 35 20 view .LVU127
 402              	.LBB117:
  37:/mnt/c/Users/31740/Documents/codes/newcore-rp2350/include/linux/list.h **** 	WRITE_ONCE(list->prev, list);
 403              		.loc 3 37 2 view .LVU128
  37:/mnt/c/Users/31740/Documents/codes/newcore-rp2350/include/linux/list.h **** 	WRITE_ONCE(list->prev, list);
 404              		.loc 3 37 2 view .LVU129
 405              	.LBB118:
  37:/mnt/c/Users/31740/Documents/codes/newcore-rp2350/include/linux/list.h **** 	WRITE_ONCE(list->prev, list);
 406              		.loc 3 37 2 view .LVU130
ARM GAS  /tmp/ccLMXO31.s 			page 24


  37:/mnt/c/Users/31740/Documents/codes/newcore-rp2350/include/linux/list.h **** 	WRITE_ONCE(list->prev, list);
 407              		.loc 3 37 2 view .LVU131
 408              	.LBE118:
  37:/mnt/c/Users/31740/Documents/codes/newcore-rp2350/include/linux/list.h **** 	WRITE_ONCE(list->prev, list);
 409              		.loc 3 37 2 discriminator 2 view .LVU132
  37:/mnt/c/Users/31740/Documents/codes/newcore-rp2350/include/linux/list.h **** 	WRITE_ONCE(list->prev, list);
 410              		.loc 3 37 2 discriminator 2 view .LVU133
  37:/mnt/c/Users/31740/Documents/codes/newcore-rp2350/include/linux/list.h **** 	WRITE_ONCE(list->prev, list);
 411              		.loc 3 37 2 discriminator 2 view .LVU134
 412 0020 A362     		str	r3, [r4, #40]
  37:/mnt/c/Users/31740/Documents/codes/newcore-rp2350/include/linux/list.h **** 	WRITE_ONCE(list->prev, list);
 413              		.loc 3 37 2 discriminator 2 view .LVU135
  37:/mnt/c/Users/31740/Documents/codes/newcore-rp2350/include/linux/list.h **** 	WRITE_ONCE(list->prev, list);
 414              		.loc 3 37 2 discriminator 2 view .LVU136
  38:/mnt/c/Users/31740/Documents/codes/newcore-rp2350/include/linux/list.h **** }
 415              		.loc 3 38 2 view .LVU137
  38:/mnt/c/Users/31740/Documents/codes/newcore-rp2350/include/linux/list.h **** }
 416              		.loc 3 38 2 view .LVU138
 417              	.LBB119:
  38:/mnt/c/Users/31740/Documents/codes/newcore-rp2350/include/linux/list.h **** }
 418              		.loc 3 38 2 view .LVU139
  38:/mnt/c/Users/31740/Documents/codes/newcore-rp2350/include/linux/list.h **** }
 419              		.loc 3 38 2 view .LVU140
 420              	.LBE119:
  38:/mnt/c/Users/31740/Documents/codes/newcore-rp2350/include/linux/list.h **** }
 421              		.loc 3 38 2 discriminator 2 view .LVU141
  38:/mnt/c/Users/31740/Documents/codes/newcore-rp2350/include/linux/list.h **** }
 422              		.loc 3 38 2 discriminator 2 view .LVU142
  38:/mnt/c/Users/31740/Documents/codes/newcore-rp2350/include/linux/list.h **** }
 423              		.loc 3 38 2 discriminator 2 view .LVU143
 424 0022 E362     		str	r3, [r4, #44]
  38:/mnt/c/Users/31740/Documents/codes/newcore-rp2350/include/linux/list.h **** }
 425              		.loc 3 38 2 discriminator 2 view .LVU144
  38:/mnt/c/Users/31740/Documents/codes/newcore-rp2350/include/linux/list.h **** }
 426              		.loc 3 38 2 discriminator 2 view .LVU145
 427              	.LVL26:
  38:/mnt/c/Users/31740/Documents/codes/newcore-rp2350/include/linux/list.h **** }
 428              		.loc 3 38 2 is_stmt 0 discriminator 2 view .LVU146
 429              	.LBE117:
 430              	.LBE116:
 431              	.LBE110:
  45:/mnt/c/Users/31740/Documents/codes/newcore-rp2350/block/request_queue.c ****         vfree(req);
 432              		.loc 1 45 9 is_stmt 1 view .LVU147
 433              	.LBB120:
 434              	.LBI120:
 375:/mnt/c/Users/31740/Documents/codes/newcore-rp2350/include/linux/slab.h **** 	__sfree__(addr);
 435              		.loc 4 375 20 view .LVU148
 436              	.LBB121:
 376:/mnt/c/Users/31740/Documents/codes/newcore-rp2350/include/linux/slab.h **** }
 437              		.loc 4 376 2 view .LVU149
 438 0024 2046     		mov	r0, r4
 439 0026 FFF7FEFF 		bl	__sfree__
 440              	.LVL27:
 441              	.L12:
 376:/mnt/c/Users/31740/Documents/codes/newcore-rp2350/include/linux/slab.h **** }
 442              		.loc 4 376 2 is_stmt 0 view .LVU150
 443              	.LBE121:
ARM GAS  /tmp/ccLMXO31.s 			page 25


 444              	.LBE120:
  46:/mnt/c/Users/31740/Documents/codes/newcore-rp2350/block/request_queue.c ****     } 
  47:/mnt/c/Users/31740/Documents/codes/newcore-rp2350/block/request_queue.c ****     spin_unlock(&q->queue_lock);
 445              		.loc 1 47 5 is_stmt 1 view .LVU151
 446 002a 2846     		mov	r0, r5
 447 002c FFF7FEFF 		bl	spin_unlock
 448              	.LVL28:
  48:/mnt/c/Users/31740/Documents/codes/newcore-rp2350/block/request_queue.c **** }
 449              		.loc 1 48 1 is_stmt 0 view .LVU152
 450 0030 38BD     		pop	{r3, r4, r5, pc}
 451              		.loc 1 48 1 view .LVU153
 452              		.cfi_endproc
 453              	.LFE1035:
 455              		.section	.text.blk_fetch_request,"ax",%progbits
 456              		.align	1
 457              		.global	blk_fetch_request
 458              		.syntax unified
 459              		.thumb
 460              		.thumb_func
 462              	blk_fetch_request:
 463              	.LVL29:
 464              	.LFB1037:
  49:/mnt/c/Users/31740/Documents/codes/newcore-rp2350/block/request_queue.c **** EXPORT_SYMBOL(request_queue_remove);
  50:/mnt/c/Users/31740/Documents/codes/newcore-rp2350/block/request_queue.c **** 
  51:/mnt/c/Users/31740/Documents/codes/newcore-rp2350/block/request_queue.c **** 
  52:/mnt/c/Users/31740/Documents/codes/newcore-rp2350/block/request_queue.c **** void process_requests_in_queue(struct request_queue *q)
  53:/mnt/c/Users/31740/Documents/codes/newcore-rp2350/block/request_queue.c **** {
  54:/mnt/c/Users/31740/Documents/codes/newcore-rp2350/block/request_queue.c ****     struct request *req, *tmp;
  55:/mnt/c/Users/31740/Documents/codes/newcore-rp2350/block/request_queue.c **** 
  56:/mnt/c/Users/31740/Documents/codes/newcore-rp2350/block/request_queue.c ****     spin_lock(&q->queue_lock);
  57:/mnt/c/Users/31740/Documents/codes/newcore-rp2350/block/request_queue.c **** 
  58:/mnt/c/Users/31740/Documents/codes/newcore-rp2350/block/request_queue.c ****     list_for_each_entry_safe(req, tmp, &q->icq_list, queuelist) {
  59:/mnt/c/Users/31740/Documents/codes/newcore-rp2350/block/request_queue.c ****         list_del(&req->queuelist);
  60:/mnt/c/Users/31740/Documents/codes/newcore-rp2350/block/request_queue.c ****         spin_unlock(&q->queue_lock);
  61:/mnt/c/Users/31740/Documents/codes/newcore-rp2350/block/request_queue.c **** 
  62:/mnt/c/Users/31740/Documents/codes/newcore-rp2350/block/request_queue.c ****         // 处理请求
  63:/mnt/c/Users/31740/Documents/codes/newcore-rp2350/block/request_queue.c ****         printk(KERN_INFO "Processing request: %p\n", req);
  64:/mnt/c/Users/31740/Documents/codes/newcore-rp2350/block/request_queue.c ****         kfree(req);  // 释放请求
  65:/mnt/c/Users/31740/Documents/codes/newcore-rp2350/block/request_queue.c **** 
  66:/mnt/c/Users/31740/Documents/codes/newcore-rp2350/block/request_queue.c ****         spin_lock(&q->queue_lock);
  67:/mnt/c/Users/31740/Documents/codes/newcore-rp2350/block/request_queue.c ****     }
  68:/mnt/c/Users/31740/Documents/codes/newcore-rp2350/block/request_queue.c **** 
  69:/mnt/c/Users/31740/Documents/codes/newcore-rp2350/block/request_queue.c ****     spin_unlock(&q->queue_lock);
  70:/mnt/c/Users/31740/Documents/codes/newcore-rp2350/block/request_queue.c **** }
  71:/mnt/c/Users/31740/Documents/codes/newcore-rp2350/block/request_queue.c **** EXPORT_SYMBOL(process_requests_in_queue);
  72:/mnt/c/Users/31740/Documents/codes/newcore-rp2350/block/request_queue.c **** 
  73:/mnt/c/Users/31740/Documents/codes/newcore-rp2350/block/request_queue.c **** 
  74:/mnt/c/Users/31740/Documents/codes/newcore-rp2350/block/request_queue.c **** struct request *blk_fetch_request(struct request_queue *q)
  75:/mnt/c/Users/31740/Documents/codes/newcore-rp2350/block/request_queue.c **** {
 465              		.loc 1 75 1 is_stmt 1 view -0
 466              		.cfi_startproc
 467              		@ args = 0, pretend = 0, frame = 0
 468              		@ frame_needed = 0, uses_anonymous_args = 0
 469              		.loc 1 75 1 is_stmt 0 view .LVU155
 470 0000 38B5     		push	{r3, r4, r5, lr}
 471              	.LCFI6:
 472              		.cfi_def_cfa_offset 16
ARM GAS  /tmp/ccLMXO31.s 			page 26


 473              		.cfi_offset 3, -16
 474              		.cfi_offset 4, -12
 475              		.cfi_offset 5, -8
 476              		.cfi_offset 14, -4
 477 0002 0446     		mov	r4, r0
  76:/mnt/c/Users/31740/Documents/codes/newcore-rp2350/block/request_queue.c ****     struct request *req = NULL;
 478              		.loc 1 76 5 is_stmt 1 view .LVU156
 479              	.LVL30:
  77:/mnt/c/Users/31740/Documents/codes/newcore-rp2350/block/request_queue.c ****     spin_lock(&q->queue_lock);
 480              		.loc 1 77 5 view .LVU157
 481 0004 00F10805 		add	r5, r0, #8
 482 0008 2846     		mov	r0, r5
 483              	.LVL31:
 484              		.loc 1 77 5 is_stmt 0 view .LVU158
 485 000a FFF7FEFF 		bl	spin_lock
 486              	.LVL32:
  78:/mnt/c/Users/31740/Documents/codes/newcore-rp2350/block/request_queue.c **** 
  79:/mnt/c/Users/31740/Documents/codes/newcore-rp2350/block/request_queue.c ****     if (!list_empty(&q->icq_list)) {
 487              		.loc 1 79 5 is_stmt 1 view .LVU159
 488              		.loc 1 79 21 is_stmt 0 view .LVU160
 489 000e 04F1CC02 		add	r2, r4, #204
 490              	.LVL33:
 491              	.LBB122:
 492              	.LBI122:
 371:/mnt/c/Users/31740/Documents/codes/newcore-rp2350/include/linux/list.h **** {
 493              		.loc 3 371 19 is_stmt 1 view .LVU161
 494              		.loc 3 373 2 view .LVU162
 495              	.LBB123:
 496              		.loc 3 373 9 view .LVU163
 497              	.LBB124:
 498              		.loc 3 373 9 view .LVU164
 499              		.loc 3 373 9 view .LVU165
 500              	.LBE124:
 501              		.loc 3 373 9 discriminator 2 view .LVU166
 502              		.loc 3 373 9 discriminator 2 view .LVU167
 503 0012 D4F8CC30 		ldr	r3, [r4, #204]
 504              	.LVL34:
 505              		.loc 3 373 9 is_stmt 0 discriminator 2 view .LVU168
 506              	.LBE123:
 507              	.LBE122:
 508              		.loc 1 79 8 discriminator 1 view .LVU169
 509 0016 9A42     		cmp	r2, r3
 510 0018 12D0     		beq	.L16
  80:/mnt/c/Users/31740/Documents/codes/newcore-rp2350/block/request_queue.c ****         req = list_first_entry(&q->icq_list, struct request, queuelist);
 511              		.loc 1 80 9 is_stmt 1 view .LVU170
 512              	.LBB125:
 513              		.loc 1 80 15 view .LVU171
 514 001a D4F8CC30 		ldr	r3, [r4, #204]
 515              	.LVL35:
 516              		.loc 1 80 15 view .LVU172
 517              		.loc 1 80 15 view .LVU173
 518 001e A3F12804 		sub	r4, r3, #40
 519              	.LVL36:
 520              		.loc 1 80 15 is_stmt 0 view .LVU174
 521              	.LBE125:
  81:/mnt/c/Users/31740/Documents/codes/newcore-rp2350/block/request_queue.c ****         list_del(&req->queuelist);
 522              		.loc 1 81 9 is_stmt 1 view .LVU175
ARM GAS  /tmp/ccLMXO31.s 			page 27


 523              	.LBB126:
 524              	.LBI126:
 227:/mnt/c/Users/31740/Documents/codes/newcore-rp2350/include/linux/list.h **** {
 525              		.loc 3 227 20 view .LVU176
 526              	.LBB127:
 229:/mnt/c/Users/31740/Documents/codes/newcore-rp2350/include/linux/list.h **** 	entry->next = LIST_POISON1;
 527              		.loc 3 229 2 view .LVU177
 528              	.LBB128:
 529              	.LBI128:
 213:/mnt/c/Users/31740/Documents/codes/newcore-rp2350/include/linux/list.h **** {
 530              		.loc 3 213 20 view .LVU178
 531              	.LBB129:
 215:/mnt/c/Users/31740/Documents/codes/newcore-rp2350/include/linux/list.h **** 		return;
 532              		.loc 3 215 2 view .LVU179
 218:/mnt/c/Users/31740/Documents/codes/newcore-rp2350/include/linux/list.h **** }
 533              		.loc 3 218 2 view .LVU180
 534 0022 5A68     		ldr	r2, [r3, #4]
 535              	.LVL37:
 218:/mnt/c/Users/31740/Documents/codes/newcore-rp2350/include/linux/list.h **** }
 536              		.loc 3 218 2 is_stmt 0 view .LVU181
 537 0024 1968     		ldr	r1, [r3]
 538              	.LVL38:
 539              	.LBB130:
 540              	.LBI130:
 193:/mnt/c/Users/31740/Documents/codes/newcore-rp2350/include/linux/list.h **** {
 541              		.loc 3 193 20 is_stmt 1 view .LVU182
 542              	.LBB131:
 195:/mnt/c/Users/31740/Documents/codes/newcore-rp2350/include/linux/list.h **** 	WRITE_ONCE(prev->next, next);
 543              		.loc 3 195 2 view .LVU183
 195:/mnt/c/Users/31740/Documents/codes/newcore-rp2350/include/linux/list.h **** 	WRITE_ONCE(prev->next, next);
 544              		.loc 3 195 13 is_stmt 0 view .LVU184
 545 0026 4A60     		str	r2, [r1, #4]
 196:/mnt/c/Users/31740/Documents/codes/newcore-rp2350/include/linux/list.h **** }
 546              		.loc 3 196 2 is_stmt 1 view .LVU185
 196:/mnt/c/Users/31740/Documents/codes/newcore-rp2350/include/linux/list.h **** }
 547              		.loc 3 196 2 view .LVU186
 548              	.LBB132:
 196:/mnt/c/Users/31740/Documents/codes/newcore-rp2350/include/linux/list.h **** }
 549              		.loc 3 196 2 view .LVU187
 196:/mnt/c/Users/31740/Documents/codes/newcore-rp2350/include/linux/list.h **** }
 550              		.loc 3 196 2 view .LVU188
 551              	.LBE132:
 196:/mnt/c/Users/31740/Documents/codes/newcore-rp2350/include/linux/list.h **** }
 552              		.loc 3 196 2 discriminator 2 view .LVU189
 196:/mnt/c/Users/31740/Documents/codes/newcore-rp2350/include/linux/list.h **** }
 553              		.loc 3 196 2 discriminator 2 view .LVU190
 196:/mnt/c/Users/31740/Documents/codes/newcore-rp2350/include/linux/list.h **** }
 554              		.loc 3 196 2 discriminator 2 view .LVU191
 555 0028 1160     		str	r1, [r2]
 196:/mnt/c/Users/31740/Documents/codes/newcore-rp2350/include/linux/list.h **** }
 556              		.loc 3 196 2 discriminator 2 view .LVU192
 196:/mnt/c/Users/31740/Documents/codes/newcore-rp2350/include/linux/list.h **** }
 557              		.loc 3 196 2 discriminator 2 view .LVU193
 558              	.LVL39:
 196:/mnt/c/Users/31740/Documents/codes/newcore-rp2350/include/linux/list.h **** }
 559              		.loc 3 196 2 is_stmt 0 discriminator 2 view .LVU194
 560              	.LBE131:
ARM GAS  /tmp/ccLMXO31.s 			page 28


 561              	.LBE130:
 562              	.LBE129:
 563              	.LBE128:
 230:/mnt/c/Users/31740/Documents/codes/newcore-rp2350/include/linux/list.h **** 	entry->prev = LIST_POISON2;
 564              		.loc 3 230 2 is_stmt 1 view .LVU195
 230:/mnt/c/Users/31740/Documents/codes/newcore-rp2350/include/linux/list.h **** 	entry->prev = LIST_POISON2;
 565              		.loc 3 230 14 is_stmt 0 view .LVU196
 566 002a 4FF48072 		mov	r2, #256
 567 002e 1A60     		str	r2, [r3]
 231:/mnt/c/Users/31740/Documents/codes/newcore-rp2350/include/linux/list.h **** }
 568              		.loc 3 231 2 is_stmt 1 view .LVU197
 231:/mnt/c/Users/31740/Documents/codes/newcore-rp2350/include/linux/list.h **** }
 569              		.loc 3 231 14 is_stmt 0 view .LVU198
 570 0030 4FF49172 		mov	r2, #290
 571 0034 5A60     		str	r2, [r3, #4]
 572              	.LVL40:
 573              	.L15:
 231:/mnt/c/Users/31740/Documents/codes/newcore-rp2350/include/linux/list.h **** }
 574              		.loc 3 231 14 view .LVU199
 575              	.LBE127:
 576              	.LBE126:
  82:/mnt/c/Users/31740/Documents/codes/newcore-rp2350/block/request_queue.c ****     }
  83:/mnt/c/Users/31740/Documents/codes/newcore-rp2350/block/request_queue.c ****     spin_unlock(&q->queue_lock);
 577              		.loc 1 83 5 is_stmt 1 view .LVU200
 578 0036 2846     		mov	r0, r5
 579 0038 FFF7FEFF 		bl	spin_unlock
 580              	.LVL41:
  84:/mnt/c/Users/31740/Documents/codes/newcore-rp2350/block/request_queue.c ****     return req; 
 581              		.loc 1 84 5 view .LVU201
  85:/mnt/c/Users/31740/Documents/codes/newcore-rp2350/block/request_queue.c **** }
 582              		.loc 1 85 1 is_stmt 0 view .LVU202
 583 003c 2046     		mov	r0, r4
 584 003e 38BD     		pop	{r3, r4, r5, pc}
 585              	.LVL42:
 586              	.L16:
  76:/mnt/c/Users/31740/Documents/codes/newcore-rp2350/block/request_queue.c ****     spin_lock(&q->queue_lock);
 587              		.loc 1 76 21 view .LVU203
 588 0040 0024     		movs	r4, #0
 589              	.LVL43:
  76:/mnt/c/Users/31740/Documents/codes/newcore-rp2350/block/request_queue.c ****     spin_lock(&q->queue_lock);
 590              		.loc 1 76 21 view .LVU204
 591 0042 F8E7     		b	.L15
 592              		.cfi_endproc
 593              	.LFE1037:
 595              		.section	.rodata.process_requests_in_queue.str1.4,"aMS",%progbits,1
 596              		.align	2
 597              	.LC0:
 598 0000 50726F63 		.ascii	"Processing request: %p\012\000"
 598      65737369 
 598      6E672072 
 598      65717565 
 598      73743A20 
 599              		.section	.text.process_requests_in_queue,"ax",%progbits
 600              		.align	1
 601              		.global	process_requests_in_queue
 602              		.syntax unified
 603              		.thumb
ARM GAS  /tmp/ccLMXO31.s 			page 29


 604              		.thumb_func
 606              	process_requests_in_queue:
 607              	.LVL44:
 608              	.LFB1036:
  53:/mnt/c/Users/31740/Documents/codes/newcore-rp2350/block/request_queue.c ****     struct request *req, *tmp;
 609              		.loc 1 53 1 is_stmt 1 view -0
 610              		.cfi_startproc
 611              		@ args = 0, pretend = 0, frame = 0
 612              		@ frame_needed = 0, uses_anonymous_args = 0
  53:/mnt/c/Users/31740/Documents/codes/newcore-rp2350/block/request_queue.c ****     struct request *req, *tmp;
 613              		.loc 1 53 1 is_stmt 0 view .LVU206
 614 0000 F8B5     		push	{r3, r4, r5, r6, r7, lr}
 615              	.LCFI7:
 616              		.cfi_def_cfa_offset 24
 617              		.cfi_offset 3, -24
 618              		.cfi_offset 4, -20
 619              		.cfi_offset 5, -16
 620              		.cfi_offset 6, -12
 621              		.cfi_offset 7, -8
 622              		.cfi_offset 14, -4
 623 0002 0746     		mov	r7, r0
  54:/mnt/c/Users/31740/Documents/codes/newcore-rp2350/block/request_queue.c **** 
 624              		.loc 1 54 5 is_stmt 1 view .LVU207
  56:/mnt/c/Users/31740/Documents/codes/newcore-rp2350/block/request_queue.c **** 
 625              		.loc 1 56 5 view .LVU208
 626 0004 00F10806 		add	r6, r0, #8
 627 0008 3046     		mov	r0, r6
 628              	.LVL45:
  56:/mnt/c/Users/31740/Documents/codes/newcore-rp2350/block/request_queue.c **** 
 629              		.loc 1 56 5 is_stmt 0 view .LVU209
 630 000a FFF7FEFF 		bl	spin_lock
 631              	.LVL46:
  58:/mnt/c/Users/31740/Documents/codes/newcore-rp2350/block/request_queue.c ****         list_del(&req->queuelist);
 632              		.loc 1 58 5 is_stmt 1 view .LVU210
 633              	.LBB133:
  58:/mnt/c/Users/31740/Documents/codes/newcore-rp2350/block/request_queue.c ****         list_del(&req->queuelist);
 634              		.loc 1 58 5 view .LVU211
  58:/mnt/c/Users/31740/Documents/codes/newcore-rp2350/block/request_queue.c ****         list_del(&req->queuelist);
 635              		.loc 1 58 5 view .LVU212
  58:/mnt/c/Users/31740/Documents/codes/newcore-rp2350/block/request_queue.c ****         list_del(&req->queuelist);
 636              		.loc 1 58 5 view .LVU213
 637 000e D7F8CC40 		ldr	r4, [r7, #204]
 638              	.LVL47:
  58:/mnt/c/Users/31740/Documents/codes/newcore-rp2350/block/request_queue.c ****         list_del(&req->queuelist);
 639              		.loc 1 58 5 is_stmt 0 view .LVU214
 640              	.LBE133:
 641              	.LBB134:
  58:/mnt/c/Users/31740/Documents/codes/newcore-rp2350/block/request_queue.c ****         list_del(&req->queuelist);
 642              		.loc 1 58 5 is_stmt 1 view .LVU215
 643 0012 54F82859 		ldr	r5, [r4], #-40
 644              	.LVL48:
  58:/mnt/c/Users/31740/Documents/codes/newcore-rp2350/block/request_queue.c ****         list_del(&req->queuelist);
 645              		.loc 1 58 5 view .LVU216
  58:/mnt/c/Users/31740/Documents/codes/newcore-rp2350/block/request_queue.c ****         list_del(&req->queuelist);
 646              		.loc 1 58 5 view .LVU217
 647 0016 283D     		subs	r5, r5, #40
 648              	.LVL49:
ARM GAS  /tmp/ccLMXO31.s 			page 30


  58:/mnt/c/Users/31740/Documents/codes/newcore-rp2350/block/request_queue.c ****         list_del(&req->queuelist);
 649              		.loc 1 58 5 is_stmt 0 view .LVU218
 650              	.LBE134:
 651 0018 1BE0     		b	.L19
 652              	.LVL50:
 653              	.L20:
  59:/mnt/c/Users/31740/Documents/codes/newcore-rp2350/block/request_queue.c ****         spin_unlock(&q->queue_lock);
 654              		.loc 1 59 9 is_stmt 1 view .LVU219
 655              	.LBB135:
 656              	.LBI135:
 227:/mnt/c/Users/31740/Documents/codes/newcore-rp2350/include/linux/list.h **** {
 657              		.loc 3 227 20 view .LVU220
 658              	.LBB136:
 229:/mnt/c/Users/31740/Documents/codes/newcore-rp2350/include/linux/list.h **** 	entry->next = LIST_POISON1;
 659              		.loc 3 229 2 view .LVU221
 660              	.LBB137:
 661              	.LBI137:
 213:/mnt/c/Users/31740/Documents/codes/newcore-rp2350/include/linux/list.h **** {
 662              		.loc 3 213 20 view .LVU222
 663              	.LBB138:
 215:/mnt/c/Users/31740/Documents/codes/newcore-rp2350/include/linux/list.h **** 		return;
 664              		.loc 3 215 2 view .LVU223
 218:/mnt/c/Users/31740/Documents/codes/newcore-rp2350/include/linux/list.h **** }
 665              		.loc 3 218 2 view .LVU224
 666 001a E36A     		ldr	r3, [r4, #44]
 667              	.LVL51:
 218:/mnt/c/Users/31740/Documents/codes/newcore-rp2350/include/linux/list.h **** }
 668              		.loc 3 218 2 is_stmt 0 view .LVU225
 669 001c A26A     		ldr	r2, [r4, #40]
 670              	.LVL52:
 671              	.LBB139:
 672              	.LBI139:
 193:/mnt/c/Users/31740/Documents/codes/newcore-rp2350/include/linux/list.h **** {
 673              		.loc 3 193 20 is_stmt 1 view .LVU226
 674              	.LBB140:
 195:/mnt/c/Users/31740/Documents/codes/newcore-rp2350/include/linux/list.h **** 	WRITE_ONCE(prev->next, next);
 675              		.loc 3 195 2 view .LVU227
 195:/mnt/c/Users/31740/Documents/codes/newcore-rp2350/include/linux/list.h **** 	WRITE_ONCE(prev->next, next);
 676              		.loc 3 195 13 is_stmt 0 view .LVU228
 677 001e 5360     		str	r3, [r2, #4]
 196:/mnt/c/Users/31740/Documents/codes/newcore-rp2350/include/linux/list.h **** }
 678              		.loc 3 196 2 is_stmt 1 view .LVU229
 196:/mnt/c/Users/31740/Documents/codes/newcore-rp2350/include/linux/list.h **** }
 679              		.loc 3 196 2 view .LVU230
 680              	.LBB141:
 196:/mnt/c/Users/31740/Documents/codes/newcore-rp2350/include/linux/list.h **** }
 681              		.loc 3 196 2 view .LVU231
 196:/mnt/c/Users/31740/Documents/codes/newcore-rp2350/include/linux/list.h **** }
 682              		.loc 3 196 2 view .LVU232
 683              	.LBE141:
 196:/mnt/c/Users/31740/Documents/codes/newcore-rp2350/include/linux/list.h **** }
 684              		.loc 3 196 2 discriminator 2 view .LVU233
 196:/mnt/c/Users/31740/Documents/codes/newcore-rp2350/include/linux/list.h **** }
 685              		.loc 3 196 2 discriminator 2 view .LVU234
 196:/mnt/c/Users/31740/Documents/codes/newcore-rp2350/include/linux/list.h **** }
 686              		.loc 3 196 2 discriminator 2 view .LVU235
 687 0020 1A60     		str	r2, [r3]
ARM GAS  /tmp/ccLMXO31.s 			page 31


 196:/mnt/c/Users/31740/Documents/codes/newcore-rp2350/include/linux/list.h **** }
 688              		.loc 3 196 2 discriminator 2 view .LVU236
 196:/mnt/c/Users/31740/Documents/codes/newcore-rp2350/include/linux/list.h **** }
 689              		.loc 3 196 2 discriminator 2 view .LVU237
 690              	.LVL53:
 196:/mnt/c/Users/31740/Documents/codes/newcore-rp2350/include/linux/list.h **** }
 691              		.loc 3 196 2 is_stmt 0 discriminator 2 view .LVU238
 692              	.LBE140:
 693              	.LBE139:
 694              	.LBE138:
 695              	.LBE137:
 230:/mnt/c/Users/31740/Documents/codes/newcore-rp2350/include/linux/list.h **** 	entry->prev = LIST_POISON2;
 696              		.loc 3 230 2 is_stmt 1 view .LVU239
 230:/mnt/c/Users/31740/Documents/codes/newcore-rp2350/include/linux/list.h **** 	entry->prev = LIST_POISON2;
 697              		.loc 3 230 14 is_stmt 0 view .LVU240
 698 0022 4FF48073 		mov	r3, #256
 699 0026 A362     		str	r3, [r4, #40]
 231:/mnt/c/Users/31740/Documents/codes/newcore-rp2350/include/linux/list.h **** }
 700              		.loc 3 231 2 is_stmt 1 view .LVU241
 231:/mnt/c/Users/31740/Documents/codes/newcore-rp2350/include/linux/list.h **** }
 701              		.loc 3 231 14 is_stmt 0 view .LVU242
 702 0028 4FF49173 		mov	r3, #290
 703 002c E362     		str	r3, [r4, #44]
 704              	.LVL54:
 231:/mnt/c/Users/31740/Documents/codes/newcore-rp2350/include/linux/list.h **** }
 705              		.loc 3 231 14 view .LVU243
 706              	.LBE136:
 707              	.LBE135:
  60:/mnt/c/Users/31740/Documents/codes/newcore-rp2350/block/request_queue.c **** 
 708              		.loc 1 60 9 is_stmt 1 view .LVU244
 709 002e 3046     		mov	r0, r6
 710 0030 FFF7FEFF 		bl	spin_unlock
 711              	.LVL55:
  63:/mnt/c/Users/31740/Documents/codes/newcore-rp2350/block/request_queue.c ****         kfree(req);  // 释放请求
 712              		.loc 1 63 9 view .LVU245
 713 0034 2246     		mov	r2, r4
 714 0036 0C49     		ldr	r1, .L22
 715 0038 0620     		movs	r0, #6
 716 003a FFF7FEFF 		bl	printk
 717              	.LVL56:
  64:/mnt/c/Users/31740/Documents/codes/newcore-rp2350/block/request_queue.c **** 
 718              		.loc 1 64 9 view .LVU246
 719              	.LBB142:
 720              	.LBI142:
 381:/mnt/c/Users/31740/Documents/codes/newcore-rp2350/include/linux/slab.h **** }
 382:/mnt/c/Users/31740/Documents/codes/newcore-rp2350/include/linux/slab.h **** 
 383:/mnt/c/Users/31740/Documents/codes/newcore-rp2350/include/linux/slab.h **** static void inline kfree(const void *ptr){
 721              		.loc 4 383 20 view .LVU247
 722              	.LBB143:
 384:/mnt/c/Users/31740/Documents/codes/newcore-rp2350/include/linux/slab.h **** 	__sfree__((void*)ptr);
 723              		.loc 4 384 2 view .LVU248
 724 003e 2046     		mov	r0, r4
 725 0040 FFF7FEFF 		bl	__sfree__
 726              	.LVL57:
 727              		.loc 4 384 2 is_stmt 0 view .LVU249
 728              	.LBE143:
 729              	.LBE142:
ARM GAS  /tmp/ccLMXO31.s 			page 32


  66:/mnt/c/Users/31740/Documents/codes/newcore-rp2350/block/request_queue.c ****     }
 730              		.loc 1 66 9 is_stmt 1 view .LVU250
 731 0044 3046     		mov	r0, r6
 732 0046 FFF7FEFF 		bl	spin_lock
 733              	.LVL58:
  58:/mnt/c/Users/31740/Documents/codes/newcore-rp2350/block/request_queue.c ****         list_del(&req->queuelist);
 734              		.loc 1 58 5 discriminator 3 view .LVU251
 735              	.LBB144:
  58:/mnt/c/Users/31740/Documents/codes/newcore-rp2350/block/request_queue.c ****         list_del(&req->queuelist);
 736              		.loc 1 58 5 discriminator 3 view .LVU252
 737 004a AB6A     		ldr	r3, [r5, #40]
 738              	.LVL59:
  58:/mnt/c/Users/31740/Documents/codes/newcore-rp2350/block/request_queue.c ****         list_del(&req->queuelist);
 739              		.loc 1 58 5 discriminator 3 view .LVU253
  58:/mnt/c/Users/31740/Documents/codes/newcore-rp2350/block/request_queue.c ****         list_del(&req->queuelist);
 740              		.loc 1 58 5 discriminator 3 view .LVU254
  58:/mnt/c/Users/31740/Documents/codes/newcore-rp2350/block/request_queue.c ****         list_del(&req->queuelist);
 741              		.loc 1 58 5 is_stmt 0 discriminator 3 view .LVU255
 742              	.LBE144:
 743 004c 2C46     		mov	r4, r5
 744 004e A3F12805 		sub	r5, r3, #40
 745              	.LVL60:
 746              	.L19:
  58:/mnt/c/Users/31740/Documents/codes/newcore-rp2350/block/request_queue.c ****         list_del(&req->queuelist);
 747              		.loc 1 58 5 is_stmt 1 discriminator 1 view .LVU256
 748 0052 04F12803 		add	r3, r4, #40
 749 0056 07F1CC02 		add	r2, r7, #204
 750 005a 9342     		cmp	r3, r2
 751 005c DDD1     		bne	.L20
  69:/mnt/c/Users/31740/Documents/codes/newcore-rp2350/block/request_queue.c **** }
 752              		.loc 1 69 5 view .LVU257
 753 005e 3046     		mov	r0, r6
 754 0060 FFF7FEFF 		bl	spin_unlock
 755              	.LVL61:
  70:/mnt/c/Users/31740/Documents/codes/newcore-rp2350/block/request_queue.c **** EXPORT_SYMBOL(process_requests_in_queue);
 756              		.loc 1 70 1 is_stmt 0 view .LVU258
 757 0064 F8BD     		pop	{r3, r4, r5, r6, r7, pc}
 758              	.LVL62:
 759              	.L23:
  70:/mnt/c/Users/31740/Documents/codes/newcore-rp2350/block/request_queue.c **** EXPORT_SYMBOL(process_requests_in_queue);
 760              		.loc 1 70 1 view .LVU259
 761 0066 00BF     		.align	2
 762              	.L22:
 763 0068 00000000 		.word	.LC0
 764              		.cfi_endproc
 765              	.LFE1036:
 767              		.section	.text.__blk_cleanup_queue,"ax",%progbits
 768              		.align	1
 769              		.global	__blk_cleanup_queue
 770              		.syntax unified
 771              		.thumb
 772              		.thumb_func
 774              	__blk_cleanup_queue:
 775              	.LVL63:
 776              	.LFB1033:
  30:/mnt/c/Users/31740/Documents/codes/newcore-rp2350/block/request_queue.c ****     if(q) kfree(q);
 777              		.loc 1 30 50 is_stmt 1 view -0
ARM GAS  /tmp/ccLMXO31.s 			page 33


 778              		.cfi_startproc
 779              		@ args = 0, pretend = 0, frame = 0
 780              		@ frame_needed = 0, uses_anonymous_args = 0
  31:/mnt/c/Users/31740/Documents/codes/newcore-rp2350/block/request_queue.c **** }
 781              		.loc 1 31 5 view .LVU261
  31:/mnt/c/Users/31740/Documents/codes/newcore-rp2350/block/request_queue.c **** }
 782              		.loc 1 31 7 is_stmt 0 view .LVU262
 783 0000 18B1     		cbz	r0, .L27
  30:/mnt/c/Users/31740/Documents/codes/newcore-rp2350/block/request_queue.c ****     if(q) kfree(q);
 784              		.loc 1 30 50 view .LVU263
 785 0002 08B5     		push	{r3, lr}
 786              	.LCFI8:
 787              		.cfi_def_cfa_offset 8
 788              		.cfi_offset 3, -8
 789              		.cfi_offset 14, -4
  31:/mnt/c/Users/31740/Documents/codes/newcore-rp2350/block/request_queue.c **** }
 790              		.loc 1 31 11 is_stmt 1 discriminator 1 view .LVU264
 791              	.LVL64:
 792              	.LBB145:
 793              	.LBI145:
 383:/mnt/c/Users/31740/Documents/codes/newcore-rp2350/include/linux/slab.h **** 	__sfree__((void*)ptr);
 794              		.loc 4 383 20 view .LVU265
 795              	.LBB146:
 796              		.loc 4 384 2 view .LVU266
 797 0004 FFF7FEFF 		bl	__sfree__
 798              	.LVL65:
 799              		.loc 4 384 2 is_stmt 0 view .LVU267
 800              	.LBE146:
 801              	.LBE145:
  32:/mnt/c/Users/31740/Documents/codes/newcore-rp2350/block/request_queue.c ****  
 802              		.loc 1 32 1 view .LVU268
 803 0008 08BD     		pop	{r3, pc}
 804              	.LVL66:
 805              	.L27:
 806              	.LCFI9:
 807              		.cfi_def_cfa_offset 0
 808              		.cfi_restore 3
 809              		.cfi_restore 14
  32:/mnt/c/Users/31740/Documents/codes/newcore-rp2350/block/request_queue.c ****  
 810              		.loc 1 32 1 view .LVU269
 811 000a 7047     		bx	lr
 812              		.cfi_endproc
 813              	.LFE1033:
 815              		.section	.text.__blk_end_request_cur,"ax",%progbits
 816              		.align	1
 817              		.global	__blk_end_request_cur
 818              		.syntax unified
 819              		.thumb
 820              		.thumb_func
 822              	__blk_end_request_cur:
 823              	.LVL67:
 824              	.LFB1038:
  86:/mnt/c/Users/31740/Documents/codes/newcore-rp2350/block/request_queue.c **** EXPORT_SYMBOL(blk_fetch_request);
  87:/mnt/c/Users/31740/Documents/codes/newcore-rp2350/block/request_queue.c **** 
  88:/mnt/c/Users/31740/Documents/codes/newcore-rp2350/block/request_queue.c **** 
  89:/mnt/c/Users/31740/Documents/codes/newcore-rp2350/block/request_queue.c **** int __blk_end_request_cur(struct request *req, int error)
  90:/mnt/c/Users/31740/Documents/codes/newcore-rp2350/block/request_queue.c **** {
ARM GAS  /tmp/ccLMXO31.s 			page 34


 825              		.loc 1 90 1 is_stmt 1 view -0
 826              		.cfi_startproc
 827              		@ args = 0, pretend = 0, frame = 0
 828              		@ frame_needed = 0, uses_anonymous_args = 0
 829              		.loc 1 90 1 is_stmt 0 view .LVU271
 830 0000 38B5     		push	{r3, r4, r5, lr}
 831              	.LCFI10:
 832              		.cfi_def_cfa_offset 16
 833              		.cfi_offset 3, -16
 834              		.cfi_offset 4, -12
 835              		.cfi_offset 5, -8
 836              		.cfi_offset 14, -4
  91:/mnt/c/Users/31740/Documents/codes/newcore-rp2350/block/request_queue.c ****     struct request_queue *q = req->q;
 837              		.loc 1 91 5 is_stmt 1 view .LVU272
 838              		.loc 1 91 27 is_stmt 0 view .LVU273
 839 0002 0468     		ldr	r4, [r0]
 840              	.LVL68:
  92:/mnt/c/Users/31740/Documents/codes/newcore-rp2350/block/request_queue.c ****     spin_lock(&q->queue_lock);
 841              		.loc 1 92 5 is_stmt 1 view .LVU274
 842 0004 04F10805 		add	r5, r4, #8
 843 0008 2846     		mov	r0, r5
 844              	.LVL69:
 845              		.loc 1 92 5 is_stmt 0 view .LVU275
 846 000a FFF7FEFF 		bl	spin_lock
 847              	.LVL70:
  93:/mnt/c/Users/31740/Documents/codes/newcore-rp2350/block/request_queue.c ****     int is_last = list_is_singular(&q->icq_list) || list_empty(&q->icq_list);
 848              		.loc 1 93 5 is_stmt 1 view .LVU276
 849              		.loc 1 93 36 is_stmt 0 view .LVU277
 850 000e 04F1CC03 		add	r3, r4, #204
 851              	.LVL71:
 852              	.LBB147:
 853              	.LBI147:
 374:/mnt/c/Users/31740/Documents/codes/newcore-rp2350/include/linux/list.h **** }
 375:/mnt/c/Users/31740/Documents/codes/newcore-rp2350/include/linux/list.h **** 
 376:/mnt/c/Users/31740/Documents/codes/newcore-rp2350/include/linux/list.h **** /**
 377:/mnt/c/Users/31740/Documents/codes/newcore-rp2350/include/linux/list.h ****  * list_del_init_careful - deletes entry from list and reinitialize it.
 378:/mnt/c/Users/31740/Documents/codes/newcore-rp2350/include/linux/list.h ****  * @entry: the element to delete from the list.
 379:/mnt/c/Users/31740/Documents/codes/newcore-rp2350/include/linux/list.h ****  *
 380:/mnt/c/Users/31740/Documents/codes/newcore-rp2350/include/linux/list.h ****  * This is the same as list_del_init(), except designed to be used
 381:/mnt/c/Users/31740/Documents/codes/newcore-rp2350/include/linux/list.h ****  * together with list_empty_careful() in a way to guarantee ordering
 382:/mnt/c/Users/31740/Documents/codes/newcore-rp2350/include/linux/list.h ****  * of other memory operations.
 383:/mnt/c/Users/31740/Documents/codes/newcore-rp2350/include/linux/list.h ****  *
 384:/mnt/c/Users/31740/Documents/codes/newcore-rp2350/include/linux/list.h ****  * Any memory operations done before a list_del_init_careful() are
 385:/mnt/c/Users/31740/Documents/codes/newcore-rp2350/include/linux/list.h ****  * guaranteed to be visible after a list_empty_careful() test.
 386:/mnt/c/Users/31740/Documents/codes/newcore-rp2350/include/linux/list.h ****  */
 387:/mnt/c/Users/31740/Documents/codes/newcore-rp2350/include/linux/list.h **** static inline void list_del_init_careful(struct list_head *entry)
 388:/mnt/c/Users/31740/Documents/codes/newcore-rp2350/include/linux/list.h **** {
 389:/mnt/c/Users/31740/Documents/codes/newcore-rp2350/include/linux/list.h **** 	__list_del_entry(entry);
 390:/mnt/c/Users/31740/Documents/codes/newcore-rp2350/include/linux/list.h **** 	WRITE_ONCE(entry->prev, entry);
 391:/mnt/c/Users/31740/Documents/codes/newcore-rp2350/include/linux/list.h **** 	smp_store_release(&entry->next, entry);
 392:/mnt/c/Users/31740/Documents/codes/newcore-rp2350/include/linux/list.h **** }
 393:/mnt/c/Users/31740/Documents/codes/newcore-rp2350/include/linux/list.h **** 
 394:/mnt/c/Users/31740/Documents/codes/newcore-rp2350/include/linux/list.h **** /**
 395:/mnt/c/Users/31740/Documents/codes/newcore-rp2350/include/linux/list.h ****  * list_empty_careful - tests whether a list is empty and not being modified
 396:/mnt/c/Users/31740/Documents/codes/newcore-rp2350/include/linux/list.h ****  * @head: the list to test
 397:/mnt/c/Users/31740/Documents/codes/newcore-rp2350/include/linux/list.h ****  *
 398:/mnt/c/Users/31740/Documents/codes/newcore-rp2350/include/linux/list.h ****  * Description:
ARM GAS  /tmp/ccLMXO31.s 			page 35


 399:/mnt/c/Users/31740/Documents/codes/newcore-rp2350/include/linux/list.h ****  * tests whether a list is empty _and_ checks that no other CPU might be
 400:/mnt/c/Users/31740/Documents/codes/newcore-rp2350/include/linux/list.h ****  * in the process of modifying either member (next or prev)
 401:/mnt/c/Users/31740/Documents/codes/newcore-rp2350/include/linux/list.h ****  *
 402:/mnt/c/Users/31740/Documents/codes/newcore-rp2350/include/linux/list.h ****  * NOTE: using list_empty_careful() without synchronization
 403:/mnt/c/Users/31740/Documents/codes/newcore-rp2350/include/linux/list.h ****  * can only be safe if the only activity that can happen
 404:/mnt/c/Users/31740/Documents/codes/newcore-rp2350/include/linux/list.h ****  * to the list entry is list_del_init(). Eg. it cannot be used
 405:/mnt/c/Users/31740/Documents/codes/newcore-rp2350/include/linux/list.h ****  * if another CPU could re-list_add() it.
 406:/mnt/c/Users/31740/Documents/codes/newcore-rp2350/include/linux/list.h ****  */
 407:/mnt/c/Users/31740/Documents/codes/newcore-rp2350/include/linux/list.h **** static inline int list_empty_careful(const struct list_head *head)
 408:/mnt/c/Users/31740/Documents/codes/newcore-rp2350/include/linux/list.h **** {
 409:/mnt/c/Users/31740/Documents/codes/newcore-rp2350/include/linux/list.h **** 	struct list_head *next = smp_load_acquire(&head->next);
 410:/mnt/c/Users/31740/Documents/codes/newcore-rp2350/include/linux/list.h **** 	return list_is_head(next, head) && (next == READ_ONCE(head->prev));
 411:/mnt/c/Users/31740/Documents/codes/newcore-rp2350/include/linux/list.h **** }
 412:/mnt/c/Users/31740/Documents/codes/newcore-rp2350/include/linux/list.h **** 
 413:/mnt/c/Users/31740/Documents/codes/newcore-rp2350/include/linux/list.h **** /**
 414:/mnt/c/Users/31740/Documents/codes/newcore-rp2350/include/linux/list.h ****  * list_rotate_left - rotate the list to the left
 415:/mnt/c/Users/31740/Documents/codes/newcore-rp2350/include/linux/list.h ****  * @head: the head of the list
 416:/mnt/c/Users/31740/Documents/codes/newcore-rp2350/include/linux/list.h ****  */
 417:/mnt/c/Users/31740/Documents/codes/newcore-rp2350/include/linux/list.h **** static inline void list_rotate_left(struct list_head *head)
 418:/mnt/c/Users/31740/Documents/codes/newcore-rp2350/include/linux/list.h **** {
 419:/mnt/c/Users/31740/Documents/codes/newcore-rp2350/include/linux/list.h **** 	struct list_head *first;
 420:/mnt/c/Users/31740/Documents/codes/newcore-rp2350/include/linux/list.h **** 
 421:/mnt/c/Users/31740/Documents/codes/newcore-rp2350/include/linux/list.h **** 	if (!list_empty(head)) {
 422:/mnt/c/Users/31740/Documents/codes/newcore-rp2350/include/linux/list.h **** 		first = head->next;
 423:/mnt/c/Users/31740/Documents/codes/newcore-rp2350/include/linux/list.h **** 		list_move_tail(first, head);
 424:/mnt/c/Users/31740/Documents/codes/newcore-rp2350/include/linux/list.h **** 	}
 425:/mnt/c/Users/31740/Documents/codes/newcore-rp2350/include/linux/list.h **** }
 426:/mnt/c/Users/31740/Documents/codes/newcore-rp2350/include/linux/list.h **** 
 427:/mnt/c/Users/31740/Documents/codes/newcore-rp2350/include/linux/list.h **** /**
 428:/mnt/c/Users/31740/Documents/codes/newcore-rp2350/include/linux/list.h ****  * list_rotate_to_front() - Rotate list to specific item.
 429:/mnt/c/Users/31740/Documents/codes/newcore-rp2350/include/linux/list.h ****  * @list: The desired new front of the list.
 430:/mnt/c/Users/31740/Documents/codes/newcore-rp2350/include/linux/list.h ****  * @head: The head of the list.
 431:/mnt/c/Users/31740/Documents/codes/newcore-rp2350/include/linux/list.h ****  *
 432:/mnt/c/Users/31740/Documents/codes/newcore-rp2350/include/linux/list.h ****  * Rotates list so that @list becomes the new front of the list.
 433:/mnt/c/Users/31740/Documents/codes/newcore-rp2350/include/linux/list.h ****  */
 434:/mnt/c/Users/31740/Documents/codes/newcore-rp2350/include/linux/list.h **** static inline void list_rotate_to_front(struct list_head *list,
 435:/mnt/c/Users/31740/Documents/codes/newcore-rp2350/include/linux/list.h **** 					struct list_head *head)
 436:/mnt/c/Users/31740/Documents/codes/newcore-rp2350/include/linux/list.h **** {
 437:/mnt/c/Users/31740/Documents/codes/newcore-rp2350/include/linux/list.h **** 	/*
 438:/mnt/c/Users/31740/Documents/codes/newcore-rp2350/include/linux/list.h **** 	 * Deletes the list head from the list denoted by @head and
 439:/mnt/c/Users/31740/Documents/codes/newcore-rp2350/include/linux/list.h **** 	 * places it as the tail of @list, this effectively rotates the
 440:/mnt/c/Users/31740/Documents/codes/newcore-rp2350/include/linux/list.h **** 	 * list so that @list is at the front.
 441:/mnt/c/Users/31740/Documents/codes/newcore-rp2350/include/linux/list.h **** 	 */
 442:/mnt/c/Users/31740/Documents/codes/newcore-rp2350/include/linux/list.h **** 	list_move_tail(head, list);
 443:/mnt/c/Users/31740/Documents/codes/newcore-rp2350/include/linux/list.h **** }
 444:/mnt/c/Users/31740/Documents/codes/newcore-rp2350/include/linux/list.h **** 
 445:/mnt/c/Users/31740/Documents/codes/newcore-rp2350/include/linux/list.h **** /**
 446:/mnt/c/Users/31740/Documents/codes/newcore-rp2350/include/linux/list.h ****  * list_is_singular - tests whether a list has just one entry.
 447:/mnt/c/Users/31740/Documents/codes/newcore-rp2350/include/linux/list.h ****  * @head: the list to test.
 448:/mnt/c/Users/31740/Documents/codes/newcore-rp2350/include/linux/list.h ****  */
 449:/mnt/c/Users/31740/Documents/codes/newcore-rp2350/include/linux/list.h **** static inline int list_is_singular(const struct list_head *head)
 854              		.loc 3 449 19 is_stmt 1 view .LVU278
 855              	.LBB148:
 450:/mnt/c/Users/31740/Documents/codes/newcore-rp2350/include/linux/list.h **** {
 451:/mnt/c/Users/31740/Documents/codes/newcore-rp2350/include/linux/list.h **** 	return !list_empty(head) && (head->next == head->prev);
 856              		.loc 3 451 2 view .LVU279
 857              	.LBB149:
ARM GAS  /tmp/ccLMXO31.s 			page 36


 858              	.LBI149:
 371:/mnt/c/Users/31740/Documents/codes/newcore-rp2350/include/linux/list.h **** {
 859              		.loc 3 371 19 view .LVU280
 373:/mnt/c/Users/31740/Documents/codes/newcore-rp2350/include/linux/list.h **** }
 860              		.loc 3 373 2 view .LVU281
 861              	.LBB150:
 373:/mnt/c/Users/31740/Documents/codes/newcore-rp2350/include/linux/list.h **** }
 862              		.loc 3 373 9 view .LVU282
 863              	.LBB151:
 373:/mnt/c/Users/31740/Documents/codes/newcore-rp2350/include/linux/list.h **** }
 864              		.loc 3 373 9 view .LVU283
 373:/mnt/c/Users/31740/Documents/codes/newcore-rp2350/include/linux/list.h **** }
 865              		.loc 3 373 9 view .LVU284
 866              	.LBE151:
 373:/mnt/c/Users/31740/Documents/codes/newcore-rp2350/include/linux/list.h **** }
 867              		.loc 3 373 9 discriminator 2 view .LVU285
 373:/mnt/c/Users/31740/Documents/codes/newcore-rp2350/include/linux/list.h **** }
 868              		.loc 3 373 9 discriminator 2 view .LVU286
 869 0012 D4F8CC20 		ldr	r2, [r4, #204]
 870              	.LVL72:
 373:/mnt/c/Users/31740/Documents/codes/newcore-rp2350/include/linux/list.h **** }
 871              		.loc 3 373 9 is_stmt 0 discriminator 2 view .LVU287
 872              	.LBE150:
 873              	.LBE149:
 874              		.loc 3 451 27 discriminator 1 view .LVU288
 875 0016 9342     		cmp	r3, r2
 876 0018 05D0     		beq	.L31
 877              		.loc 3 451 35 discriminator 1 view .LVU289
 878 001a D4F8CC10 		ldr	r1, [r4, #204]
 879              		.loc 3 451 49 discriminator 1 view .LVU290
 880 001e D4F8D020 		ldr	r2, [r4, #208]
 881              		.loc 3 451 27 discriminator 1 view .LVU291
 882 0022 9142     		cmp	r1, r2
 883 0024 09D0     		beq	.L33
 884              	.L31:
 885              	.LVL73:
 886              		.loc 3 451 27 discriminator 1 view .LVU292
 887              	.LBE148:
 888              	.LBE147:
 889              	.LBB152:
 890              	.LBI152:
 371:/mnt/c/Users/31740/Documents/codes/newcore-rp2350/include/linux/list.h **** {
 891              		.loc 3 371 19 is_stmt 1 view .LVU293
 373:/mnt/c/Users/31740/Documents/codes/newcore-rp2350/include/linux/list.h **** }
 892              		.loc 3 373 2 view .LVU294
 893              	.LBB153:
 373:/mnt/c/Users/31740/Documents/codes/newcore-rp2350/include/linux/list.h **** }
 894              		.loc 3 373 9 view .LVU295
 895              	.LBB154:
 373:/mnt/c/Users/31740/Documents/codes/newcore-rp2350/include/linux/list.h **** }
 896              		.loc 3 373 9 view .LVU296
 373:/mnt/c/Users/31740/Documents/codes/newcore-rp2350/include/linux/list.h **** }
 897              		.loc 3 373 9 view .LVU297
 898              	.LBE154:
 373:/mnt/c/Users/31740/Documents/codes/newcore-rp2350/include/linux/list.h **** }
 899              		.loc 3 373 9 discriminator 2 view .LVU298
 373:/mnt/c/Users/31740/Documents/codes/newcore-rp2350/include/linux/list.h **** }
ARM GAS  /tmp/ccLMXO31.s 			page 37


 900              		.loc 3 373 9 discriminator 2 view .LVU299
 901 0026 D4F8CC20 		ldr	r2, [r4, #204]
 902              	.LVL74:
 373:/mnt/c/Users/31740/Documents/codes/newcore-rp2350/include/linux/list.h **** }
 903              		.loc 3 373 9 is_stmt 0 discriminator 2 view .LVU300
 904              	.LBE153:
 905              	.LBE152:
 906              		.loc 1 93 50 discriminator 1 view .LVU301
 907 002a 9342     		cmp	r3, r2
 908 002c 07D0     		beq	.L34
 909              		.loc 1 93 50 discriminator 4 view .LVU302
 910 002e 0024     		movs	r4, #0
 911              	.LVL75:
 912              	.L32:
  94:/mnt/c/Users/31740/Documents/codes/newcore-rp2350/block/request_queue.c ****     spin_unlock(&q->queue_lock);
 913              		.loc 1 94 5 is_stmt 1 view .LVU303
 914 0030 2846     		mov	r0, r5
 915 0032 FFF7FEFF 		bl	spin_unlock
 916              	.LVL76:
  95:/mnt/c/Users/31740/Documents/codes/newcore-rp2350/block/request_queue.c ****     return is_last;
 917              		.loc 1 95 5 view .LVU304
  96:/mnt/c/Users/31740/Documents/codes/newcore-rp2350/block/request_queue.c **** }...
 918              		.loc 1 96 1 is_stmt 0 view .LVU305
 919 0036 2046     		mov	r0, r4
 920 0038 38BD     		pop	{r3, r4, r5, pc}
 921              	.LVL77:
 922              	.L33:
  93:/mnt/c/Users/31740/Documents/codes/newcore-rp2350/block/request_queue.c ****     int is_last = list_is_singular(&q->icq_list) || list_empty(&q->icq_list);
 923              		.loc 1 93 50 discriminator 3 view .LVU306
 924 003a 0124     		movs	r4, #1
 925              	.LVL78:
  93:/mnt/c/Users/31740/Documents/codes/newcore-rp2350/block/request_queue.c ****     int is_last = list_is_singular(&q->icq_list) || list_empty(&q->icq_list);
 926              		.loc 1 93 50 discriminator 3 view .LVU307
 927 003c F8E7     		b	.L32
 928              	.LVL79:
 929              	.L34:
  93:/mnt/c/Users/31740/Documents/codes/newcore-rp2350/block/request_queue.c ****     int is_last = list_is_singular(&q->icq_list) || list_empty(&q->icq_list);
 930              		.loc 1 93 50 discriminator 3 view .LVU308
 931 003e 0124     		movs	r4, #1
 932              	.LVL80:
  93:/mnt/c/Users/31740/Documents/codes/newcore-rp2350/block/request_queue.c ****     int is_last = list_is_singular(&q->icq_list) || list_empty(&q->icq_list);
 933              		.loc 1 93 50 discriminator 3 view .LVU309
 934 0040 F6E7     		b	.L32
 935              		.cfi_endproc
 936              	.LFE1038:
 938              		.section	.rodata.str1.4,"aMS",%progbits,1
 939              		.align	2
 940              	.LC1:
 941 0000 626C6B5F 		.ascii	"blk_fetch_request\000"
 941      66657463 
 941      685F7265 
 941      71756573 
 941      7400
 942 0012 0000     		.align	2
 943              	.LC2:
 944 0014 00       		.ascii	"\000"
 945              		.section	.export_table,"aw"
ARM GAS  /tmp/ccLMXO31.s 			page 38


 946              		.align	2
 949              	blk_fetch_request_export_struct:
 950 0000 00000000 		.word	.LC1
 951 0004 14000000 		.word	.LC2
 952 0008 00000000 		.word	blk_fetch_request
 953              		.section	.rodata.str1.4
 954 0015 000000   		.align	2
 955              	.LC3:
 956 0018 70726F63 		.ascii	"process_requests_in_queue\000"
 956      6573735F 
 956      72657175 
 956      65737473 
 956      5F696E5F 
 957              		.section	.export_table
 958              		.align	2
 961              	process_requests_in_queue_export_struct:
 962 000c 18000000 		.word	.LC3
 963 0010 14000000 		.word	.LC2
 964 0014 00000000 		.word	process_requests_in_queue
 965              		.section	.rodata.str1.4
 966 0032 0000     		.align	2
 967              	.LC4:
 968 0034 72657175 		.ascii	"request_queue_remove\000"
 968      6573745F 
 968      71756575 
 968      655F7265 
 968      6D6F7665 
 969              		.section	.export_table
 970              		.align	2
 973              	request_queue_remove_export_struct:
 974 0018 34000000 		.word	.LC4
 975 001c 14000000 		.word	.LC2
 976 0020 00000000 		.word	request_queue_remove
 977              		.section	.rodata.str1.4
 978 0049 000000   		.align	2
 979              	.LC5:
 980 004c 72657175 		.ascii	"request_queue_add\000"
 980      6573745F 
 980      71756575 
 980      655F6164 
 980      6400
 981              		.section	.export_table
 982              		.align	2
 985              	request_queue_add_export_struct:
 986 0024 4C000000 		.word	.LC5
 987 0028 14000000 		.word	.LC2
 988 002c 00000000 		.word	request_queue_add
 989              		.section	.rodata.str1.4
 990 005e 0000     		.align	2
 991              	.LC6:
 992 0060 72657175 		.ascii	"request_queue_init\000"
 992      6573745F 
 992      71756575 
 992      655F696E 
 992      697400
 993              		.section	.export_table
 994              		.align	2
ARM GAS  /tmp/ccLMXO31.s 			page 39


 997              	request_queue_init_export_struct:
 998 0030 60000000 		.word	.LC6
 999 0034 14000000 		.word	.LC2
 1000 0038 00000000 		.word	request_queue_init
 1001              		.text
 1002              	.Letext0:
 1003              		.file 5 "/mnt/c/Users/31740/Documents/codes/newcore-rp2350/include/asm-generic/int-l64.h"
 1004              		.file 6 "/mnt/c/Users/31740/Documents/codes/newcore-rp2350/include/asm-generic/posix_types.h"
 1005              		.file 7 "/mnt/c/Users/31740/Documents/codes/newcore-rp2350/include/uapi/linux/types.h"
 1006              		.file 8 "/mnt/c/Users/31740/Documents/codes/newcore-rp2350/include/linux/types.h"
 1007              		.file 9 "/mnt/c/Users/31740/Documents/codes/newcore-rp2350/include/linux/export.h"
 1008              		.file 10 "/mnt/c/Users/31740/Documents/codes/newcore-rp2350/include/linux/time64.h"
 1009              		.file 11 "/mnt/c/Users/31740/Documents/codes/newcore-rp2350/arch/arm_m/include/asm/spinlock.h"
 1010              		.file 12 "/mnt/c/Users/31740/Documents/codes/newcore-rp2350/include/linux/spinlock_types_raw.h"
 1011              		.file 13 "/mnt/c/Users/31740/Documents/codes/newcore-rp2350/include/linux/spinlock_types.h"
 1012              		.file 14 "/mnt/c/Users/31740/Documents/codes/newcore-rp2350/include/linux/mutex.h"
 1013              		.file 15 "/mnt/c/Users/31740/Documents/codes/newcore-rp2350/include/linux/errseq.h"
 1014              		.file 16 "/mnt/c/Users/31740/Documents/codes/newcore-rp2350/include/linux/rbtree_types.h"
 1015              		.file 17 "/mnt/c/Users/31740/Documents/codes/newcore-rp2350/include/linux/uidgid_types.h"
 1016              		.file 18 "/mnt/c/Users/31740/Documents/codes/newcore-rp2350/include/linux/projid.h"
 1017              		.file 19 "/mnt/c/Users/31740/Documents/codes/newcore-rp2350/include/linux/fs.h"
 1018              		.file 20 "/mnt/c/Users/31740/Documents/codes/newcore-rp2350/include/linux/mnt_idmapping.h"
 1019              		.file 21 "/mnt/c/Users/31740/Documents/codes/newcore-rp2350/include/linux/uio.h"
 1020              		.file 22 "/mnt/c/Users/31740/Documents/codes/newcore-rp2350/include/linux/wait.h"
 1021              		.file 23 "/mnt/c/Users/31740/Documents/codes/newcore-rp2350/include/linux/xarray.h"
 1022              		.file 24 "/mnt/c/Users/31740/Documents/codes/newcore-rp2350/include/linux/lockref.h"
 1023              		.file 25 "/mnt/c/Users/31740/Documents/codes/newcore-rp2350/include/linux/dcache.h"
 1024              		.file 26 "/mnt/c/Users/31740/Documents/codes/newcore-rp2350/include/linux/migrate_mode.h"
 1025              		.file 27 "/mnt/c/Users/31740/Documents/codes/newcore-rp2350/include/linux/path.h"
 1026              		.file 28 "/mnt/c/Users/31740/Documents/codes/newcore-rp2350/include/linux/stddef.h"
 1027              		.file 29 "/mnt/c/Users/31740/Documents/codes/newcore-rp2350/include/linux/gfp_types.h"
 1028              		.file 30 "/mnt/c/Users/31740/Documents/codes/newcore-rp2350/include/linux/reciprocal_div.h"
 1029              		.file 31 "/mnt/c/Users/31740/Documents/codes/newcore-rp2350/include/linux/mm_type.h"
 1030              		.file 32 "/mnt/c/Users/31740/Documents/codes/newcore-rp2350/include/linux/statfs.h"
 1031              		.file 33 "/mnt/c/Users/31740/Documents/codes/newcore-rp2350/include/linux/stat.h"
 1032              		.file 34 "/mnt/c/Users/31740/Documents/codes/newcore-rp2350/include/linux/bvec.h"
 1033              		.file 35 "/mnt/c/Users/31740/Documents/codes/newcore-rp2350/include/linux/blk_types.h"
 1034              		.file 36 "/mnt/c/Users/31740/Documents/codes/newcore-rp2350/include/linux/rw_hint.h"
 1035              		.file 37 "/mnt/c/Users/31740/Documents/codes/newcore-rp2350/include/linux/blkdev.h"
 1036              		.file 38 "/mnt/c/Users/31740/Documents/codes/newcore-rp2350/include/linux/bio.h"
 1037              		.file 39 "/mnt/c/Users/31740/Documents/codes/newcore-rp2350/include/linux/mempool_super_haper.h"
 1038              		.file 40 "/mnt/c/Users/31740/Documents/codes/newcore-rp2350/include/linux/mempool.h"
 1039              		.file 41 "/mnt/c/Users/31740/Documents/codes/newcore-rp2350/include/linux/lockdep_types.h"
 1040              		.file 42 "/mnt/c/Users/31740/Documents/codes/newcore-rp2350/include/linux/workqueue_types.h"
 1041              		.file 43 "/mnt/c/Users/31740/Documents/codes/newcore-rp2350/include/linux/blk-mq.h"
 1042              		.file 44 "/mnt/c/Users/31740/Documents/codes/newcore-rp2350/include/uapi/linux/pr.h"
 1043              		.file 45 "/mnt/c/Users/31740/Documents/codes/newcore-rp2350/include/linux/pr.h"
 1044              		.file 46 "/mnt/c/Users/31740/Documents/codes/newcore-rp2350/include/linux/hdreg.h"
 1045              		.file 47 "/mnt/c/Users/31740/Documents/codes/newcore-rp2350/include/linux/printk.h"
ARM GAS  /tmp/ccLMXO31.s 			page 40


DEFINED SYMBOLS
                            *ABS*:00000000 request_queue.c
     /tmp/ccLMXO31.s:22     .text.spin_lock_init:00000000 $t
     /tmp/ccLMXO31.s:27     .text.spin_lock_init:00000000 spin_lock_init
     /tmp/ccLMXO31.s:46     .text.request_queue_add:00000000 $t
     /tmp/ccLMXO31.s:52     .text.request_queue_add:00000000 request_queue_add
     /tmp/ccLMXO31.s:119    .text.request_queue_init:00000000 $t
     /tmp/ccLMXO31.s:125    .text.request_queue_init:00000000 request_queue_init
     /tmp/ccLMXO31.s:251    .text.spin_lock:00000000 $t
     /tmp/ccLMXO31.s:256    .text.spin_lock:00000000 spin_lock
     /tmp/ccLMXO31.s:278    .text.spin_unlock:00000000 $t
     /tmp/ccLMXO31.s:283    .text.spin_unlock:00000000 spin_unlock
     /tmp/ccLMXO31.s:305    .text.request_queue_remove:00000000 $t
     /tmp/ccLMXO31.s:311    .text.request_queue_remove:00000000 request_queue_remove
     /tmp/ccLMXO31.s:456    .text.blk_fetch_request:00000000 $t
     /tmp/ccLMXO31.s:462    .text.blk_fetch_request:00000000 blk_fetch_request
     /tmp/ccLMXO31.s:596    .rodata.process_requests_in_queue.str1.4:00000000 $d
     /tmp/ccLMXO31.s:600    .text.process_requests_in_queue:00000000 $t
     /tmp/ccLMXO31.s:606    .text.process_requests_in_queue:00000000 process_requests_in_queue
     /tmp/ccLMXO31.s:763    .text.process_requests_in_queue:00000068 $d
     /tmp/ccLMXO31.s:768    .text.__blk_cleanup_queue:00000000 $t
     /tmp/ccLMXO31.s:774    .text.__blk_cleanup_queue:00000000 __blk_cleanup_queue
     /tmp/ccLMXO31.s:816    .text.__blk_end_request_cur:00000000 $t
     /tmp/ccLMXO31.s:822    .text.__blk_end_request_cur:00000000 __blk_end_request_cur
     /tmp/ccLMXO31.s:939    .rodata.str1.4:00000000 $d
     /tmp/ccLMXO31.s:946    .export_table:00000000 $d
     /tmp/ccLMXO31.s:949    .export_table:00000000 blk_fetch_request_export_struct
     /tmp/ccLMXO31.s:961    .export_table:0000000c process_requests_in_queue_export_struct
     /tmp/ccLMXO31.s:973    .export_table:00000018 request_queue_remove_export_struct
     /tmp/ccLMXO31.s:985    .export_table:00000024 request_queue_add_export_struct
     /tmp/ccLMXO31.s:997    .export_table:00000030 request_queue_init_export_struct

UNDEFINED SYMBOLS
__smalloc__
_spin_lock
_spin_unlock
__sfree__
printk
