ARM GAS  /tmp/ccaQsqPk.s 			page 1


   1              		.cpu cortex-m4
   2              		.arch armv7e-m
   3              		.fpu fpv4-sp-d16
   4              		.eabi_attribute 27, 1
   5              		.eabi_attribute 28, 1
   6              		.eabi_attribute 20, 1
   7              		.eabi_attribute 21, 1
   8              		.eabi_attribute 23, 3
   9              		.eabi_attribute 24, 1
  10              		.eabi_attribute 25, 1
  11              		.eabi_attribute 26, 1
  12              		.eabi_attribute 30, 1
  13              		.eabi_attribute 34, 1
  14              		.eabi_attribute 18, 4
  15              		.file	"stm32f4_gpio.c"
  16              		.text
  17              	.Ltext0:
  18              		.cfi_sections	.debug_frame
  19              		.file 1 "/mnt/c/Users/31740/Desktop/newcore/drivers/gpio/stm32f4_gpio.c"
  20              		.section	.text.GPIO_SetAF,"ax",%progbits
  21              		.align	1
  22              		.syntax unified
  23              		.thumb
  24              		.thumb_func
  26              	GPIO_SetAF:
  27              	.LVL0:
  28              	.LFB1037:
   1:/mnt/c/Users/31740/Desktop/newcore/drivers/gpio/stm32f4_gpio.c **** #include <linux/kernel.h>
   2:/mnt/c/Users/31740/Desktop/newcore/drivers/gpio/stm32f4_gpio.c **** #include <linux/uaccess.h>
   3:/mnt/c/Users/31740/Desktop/newcore/drivers/gpio/stm32f4_gpio.c **** #include <linux/fs.h>
   4:/mnt/c/Users/31740/Desktop/newcore/drivers/gpio/stm32f4_gpio.c **** #include <linux/init.h>
   5:/mnt/c/Users/31740/Desktop/newcore/drivers/gpio/stm32f4_gpio.c **** #include <linux/slab.h>
   6:/mnt/c/Users/31740/Desktop/newcore/drivers/gpio/stm32f4_gpio.c **** #include <linux/device.h>
   7:/mnt/c/Users/31740/Desktop/newcore/drivers/gpio/stm32f4_gpio.c **** #include <linux/gpio/gpio.h>
   8:/mnt/c/Users/31740/Desktop/newcore/drivers/gpio/stm32f4_gpio.c **** 
   9:/mnt/c/Users/31740/Desktop/newcore/drivers/gpio/stm32f4_gpio.c **** typedef enum {
  10:/mnt/c/Users/31740/Desktop/newcore/drivers/gpio/stm32f4_gpio.c ****     DISABLE = 0, 
  11:/mnt/c/Users/31740/Desktop/newcore/drivers/gpio/stm32f4_gpio.c ****     ENABLE = !DISABLE
  12:/mnt/c/Users/31740/Desktop/newcore/drivers/gpio/stm32f4_gpio.c **** } FunctionalState;
  13:/mnt/c/Users/31740/Desktop/newcore/drivers/gpio/stm32f4_gpio.c **** 
  14:/mnt/c/Users/31740/Desktop/newcore/drivers/gpio/stm32f4_gpio.c **** // 寄存器地址定义
  15:/mnt/c/Users/31740/Desktop/newcore/drivers/gpio/stm32f4_gpio.c **** #define PERIPH_BASE           (0x40000000UL)
  16:/mnt/c/Users/31740/Desktop/newcore/drivers/gpio/stm32f4_gpio.c **** #define AHB1PERIPH_BASE       (PERIPH_BASE + 0x00020000UL)
  17:/mnt/c/Users/31740/Desktop/newcore/drivers/gpio/stm32f4_gpio.c **** 
  18:/mnt/c/Users/31740/Desktop/newcore/drivers/gpio/stm32f4_gpio.c **** #define GPIOA_BASE            (AHB1PERIPH_BASE + 0x0000UL)
  19:/mnt/c/Users/31740/Desktop/newcore/drivers/gpio/stm32f4_gpio.c **** #define GPIOB_BASE            (AHB1PERIPH_BASE + 0x0400UL)
  20:/mnt/c/Users/31740/Desktop/newcore/drivers/gpio/stm32f4_gpio.c **** #define GPIOC_BASE            (AHB1PERIPH_BASE + 0x0800UL)
  21:/mnt/c/Users/31740/Desktop/newcore/drivers/gpio/stm32f4_gpio.c **** #define GPIOD_BASE            (AHB1PERIPH_BASE + 0x0C00UL)
  22:/mnt/c/Users/31740/Desktop/newcore/drivers/gpio/stm32f4_gpio.c **** #define GPIOE_BASE            (AHB1PERIPH_BASE + 0x1000UL)
  23:/mnt/c/Users/31740/Desktop/newcore/drivers/gpio/stm32f4_gpio.c **** #define GPIOF_BASE            (AHB1PERIPH_BASE + 0x1400UL)
  24:/mnt/c/Users/31740/Desktop/newcore/drivers/gpio/stm32f4_gpio.c **** #define GPIOG_BASE            (AHB1PERIPH_BASE + 0x1800UL)
  25:/mnt/c/Users/31740/Desktop/newcore/drivers/gpio/stm32f4_gpio.c **** #define GPIOH_BASE            (AHB1PERIPH_BASE + 0x1C00UL)
  26:/mnt/c/Users/31740/Desktop/newcore/drivers/gpio/stm32f4_gpio.c **** #define GPIOI_BASE            (AHB1PERIPH_BASE + 0x2000UL)
  27:/mnt/c/Users/31740/Desktop/newcore/drivers/gpio/stm32f4_gpio.c **** #define GPIOJ_BASE            (AHB1PERIPH_BASE + 0x2400UL)
  28:/mnt/c/Users/31740/Desktop/newcore/drivers/gpio/stm32f4_gpio.c **** #define GPIOK_BASE            (AHB1PERIPH_BASE + 0x2800UL)
  29:/mnt/c/Users/31740/Desktop/newcore/drivers/gpio/stm32f4_gpio.c **** 
  30:/mnt/c/Users/31740/Desktop/newcore/drivers/gpio/stm32f4_gpio.c **** #define RCC_BASE              (AHB1PERIPH_BASE + 0x3800UL)
ARM GAS  /tmp/ccaQsqPk.s 			page 2


  31:/mnt/c/Users/31740/Desktop/newcore/drivers/gpio/stm32f4_gpio.c **** 
  32:/mnt/c/Users/31740/Desktop/newcore/drivers/gpio/stm32f4_gpio.c **** // GPIO 寄存器结构体
  33:/mnt/c/Users/31740/Desktop/newcore/drivers/gpio/stm32f4_gpio.c **** typedef struct {
  34:/mnt/c/Users/31740/Desktop/newcore/drivers/gpio/stm32f4_gpio.c ****     volatile uint32_t MODER;    // 模式寄存器
  35:/mnt/c/Users/31740/Desktop/newcore/drivers/gpio/stm32f4_gpio.c ****     volatile uint32_t OTYPER;   // 输出类型寄存器
  36:/mnt/c/Users/31740/Desktop/newcore/drivers/gpio/stm32f4_gpio.c ****     volatile uint32_t OSPEEDR;  // 输出速度寄存器
  37:/mnt/c/Users/31740/Desktop/newcore/drivers/gpio/stm32f4_gpio.c ****     volatile uint32_t PUPDR;    // 上拉/下拉寄存器
  38:/mnt/c/Users/31740/Desktop/newcore/drivers/gpio/stm32f4_gpio.c ****     volatile uint32_t IDR;      // 输入数据寄存器
  39:/mnt/c/Users/31740/Desktop/newcore/drivers/gpio/stm32f4_gpio.c ****     volatile uint32_t ODR;      // 输出数据寄存器
  40:/mnt/c/Users/31740/Desktop/newcore/drivers/gpio/stm32f4_gpio.c ****     volatile uint32_t BSRR;     // 置位/复位寄存器
  41:/mnt/c/Users/31740/Desktop/newcore/drivers/gpio/stm32f4_gpio.c ****     volatile uint32_t LCKR;     // 锁定寄存器
  42:/mnt/c/Users/31740/Desktop/newcore/drivers/gpio/stm32f4_gpio.c ****     volatile uint32_t AFR[2];   // 复用功能寄存器
  43:/mnt/c/Users/31740/Desktop/newcore/drivers/gpio/stm32f4_gpio.c **** } GPIO_TypeDef;
  44:/mnt/c/Users/31740/Desktop/newcore/drivers/gpio/stm32f4_gpio.c **** 
  45:/mnt/c/Users/31740/Desktop/newcore/drivers/gpio/stm32f4_gpio.c **** // RCC 寄存器
  46:/mnt/c/Users/31740/Desktop/newcore/drivers/gpio/stm32f4_gpio.c **** #define RCC_AHB1ENR           (*((volatile uint32_t *)(RCC_BASE + 0x30)))
  47:/mnt/c/Users/31740/Desktop/newcore/drivers/gpio/stm32f4_gpio.c **** 
  48:/mnt/c/Users/31740/Desktop/newcore/drivers/gpio/stm32f4_gpio.c **** // GPIO 指针定义
  49:/mnt/c/Users/31740/Desktop/newcore/drivers/gpio/stm32f4_gpio.c **** #define GPIOA                 ((GPIO_TypeDef *)GPIOA_BASE)
  50:/mnt/c/Users/31740/Desktop/newcore/drivers/gpio/stm32f4_gpio.c **** #define GPIOB                 ((GPIO_TypeDef *)GPIOB_BASE)
  51:/mnt/c/Users/31740/Desktop/newcore/drivers/gpio/stm32f4_gpio.c **** #define GPIOC                 ((GPIO_TypeDef *)GPIOC_BASE)
  52:/mnt/c/Users/31740/Desktop/newcore/drivers/gpio/stm32f4_gpio.c **** #define GPIOD                 ((GPIO_TypeDef *)GPIOD_BASE)
  53:/mnt/c/Users/31740/Desktop/newcore/drivers/gpio/stm32f4_gpio.c **** #define GPIOE                 ((GPIO_TypeDef *)GPIOE_BASE)
  54:/mnt/c/Users/31740/Desktop/newcore/drivers/gpio/stm32f4_gpio.c **** #define GPIOF                 ((GPIO_TypeDef *)GPIOF_BASE)
  55:/mnt/c/Users/31740/Desktop/newcore/drivers/gpio/stm32f4_gpio.c **** #define GPIOG                 ((GPIO_TypeDef *)GPIOG_BASE)
  56:/mnt/c/Users/31740/Desktop/newcore/drivers/gpio/stm32f4_gpio.c **** #define GPIOH                 ((GPIO_TypeDef *)GPIOH_BASE)
  57:/mnt/c/Users/31740/Desktop/newcore/drivers/gpio/stm32f4_gpio.c **** #define GPIOI                 ((GPIO_TypeDef *)GPIOI_BASE)
  58:/mnt/c/Users/31740/Desktop/newcore/drivers/gpio/stm32f4_gpio.c **** #define GPIOJ                 ((GPIO_TypeDef *)GPIOJ_BASE)
  59:/mnt/c/Users/31740/Desktop/newcore/drivers/gpio/stm32f4_gpio.c **** #define GPIOK                 ((GPIO_TypeDef *)GPIOK_BASE)
  60:/mnt/c/Users/31740/Desktop/newcore/drivers/gpio/stm32f4_gpio.c **** 
  61:/mnt/c/Users/31740/Desktop/newcore/drivers/gpio/stm32f4_gpio.c **** // GPIO 引脚定义
  62:/mnt/c/Users/31740/Desktop/newcore/drivers/gpio/stm32f4_gpio.c **** #define GPIO_Pin_0            (0x0001)
  63:/mnt/c/Users/31740/Desktop/newcore/drivers/gpio/stm32f4_gpio.c **** #define GPIO_Pin_1            (0x0002)
  64:/mnt/c/Users/31740/Desktop/newcore/drivers/gpio/stm32f4_gpio.c **** #define GPIO_Pin_2            (0x0004)
  65:/mnt/c/Users/31740/Desktop/newcore/drivers/gpio/stm32f4_gpio.c **** #define GPIO_Pin_3            (0x0008)
  66:/mnt/c/Users/31740/Desktop/newcore/drivers/gpio/stm32f4_gpio.c **** #define GPIO_Pin_4            (0x0010)
  67:/mnt/c/Users/31740/Desktop/newcore/drivers/gpio/stm32f4_gpio.c **** #define GPIO_Pin_5            (0x0020)
  68:/mnt/c/Users/31740/Desktop/newcore/drivers/gpio/stm32f4_gpio.c **** #define GPIO_Pin_6            (0x0040)
  69:/mnt/c/Users/31740/Desktop/newcore/drivers/gpio/stm32f4_gpio.c **** #define GPIO_Pin_7            (0x0080)
  70:/mnt/c/Users/31740/Desktop/newcore/drivers/gpio/stm32f4_gpio.c **** #define GPIO_Pin_8            (0x0100)
  71:/mnt/c/Users/31740/Desktop/newcore/drivers/gpio/stm32f4_gpio.c **** #define GPIO_Pin_9            (0x0200)
  72:/mnt/c/Users/31740/Desktop/newcore/drivers/gpio/stm32f4_gpio.c **** #define GPIO_Pin_10           (0x0400)
  73:/mnt/c/Users/31740/Desktop/newcore/drivers/gpio/stm32f4_gpio.c **** #define GPIO_Pin_11           (0x0800)
  74:/mnt/c/Users/31740/Desktop/newcore/drivers/gpio/stm32f4_gpio.c **** #define GPIO_Pin_12           (0x1000)
  75:/mnt/c/Users/31740/Desktop/newcore/drivers/gpio/stm32f4_gpio.c **** #define GPIO_Pin_13           (0x2000)
  76:/mnt/c/Users/31740/Desktop/newcore/drivers/gpio/stm32f4_gpio.c **** #define GPIO_Pin_14           (0x4000)
  77:/mnt/c/Users/31740/Desktop/newcore/drivers/gpio/stm32f4_gpio.c **** #define GPIO_Pin_15           (0x8000)
  78:/mnt/c/Users/31740/Desktop/newcore/drivers/gpio/stm32f4_gpio.c **** 
  79:/mnt/c/Users/31740/Desktop/newcore/drivers/gpio/stm32f4_gpio.c **** // GPIO 模式定义
  80:/mnt/c/Users/31740/Desktop/newcore/drivers/gpio/stm32f4_gpio.c **** #define GPIO_Mode_IN          (0x00)  // 输入模式
  81:/mnt/c/Users/31740/Desktop/newcore/drivers/gpio/stm32f4_gpio.c **** #define GPIO_Mode_OUT         (0x01)  // 输出模式
  82:/mnt/c/Users/31740/Desktop/newcore/drivers/gpio/stm32f4_gpio.c **** #define GPIO_Mode_AF          (0x02)  // 复用功能模式
  83:/mnt/c/Users/31740/Desktop/newcore/drivers/gpio/stm32f4_gpio.c **** #define GPIO_Mode_AN          (0x03)  // 模拟模式
  84:/mnt/c/Users/31740/Desktop/newcore/drivers/gpio/stm32f4_gpio.c **** 
  85:/mnt/c/Users/31740/Desktop/newcore/drivers/gpio/stm32f4_gpio.c **** // 输出类型定义
  86:/mnt/c/Users/31740/Desktop/newcore/drivers/gpio/stm32f4_gpio.c **** #define GPIO_OType_PP         (0x00)  // 推挽输出
  87:/mnt/c/Users/31740/Desktop/newcore/drivers/gpio/stm32f4_gpio.c **** #define GPIO_OType_OD         (0x01)  // 开漏输出
ARM GAS  /tmp/ccaQsqPk.s 			page 3


  88:/mnt/c/Users/31740/Desktop/newcore/drivers/gpio/stm32f4_gpio.c **** 
  89:/mnt/c/Users/31740/Desktop/newcore/drivers/gpio/stm32f4_gpio.c **** // 上拉/下拉定义
  90:/mnt/c/Users/31740/Desktop/newcore/drivers/gpio/stm32f4_gpio.c **** #define GPIO_PuPd_NOPULL      (0x00)  // 无上拉下拉
  91:/mnt/c/Users/31740/Desktop/newcore/drivers/gpio/stm32f4_gpio.c **** #define GPIO_PuPd_UP          (0x01)  // 上拉
  92:/mnt/c/Users/31740/Desktop/newcore/drivers/gpio/stm32f4_gpio.c **** #define GPIO_PuPd_DOWN        (0x02)  // 下拉
  93:/mnt/c/Users/31740/Desktop/newcore/drivers/gpio/stm32f4_gpio.c **** 
  94:/mnt/c/Users/31740/Desktop/newcore/drivers/gpio/stm32f4_gpio.c **** // 速度定义
  95:/mnt/c/Users/31740/Desktop/newcore/drivers/gpio/stm32f4_gpio.c **** #define GPIO_Speed_2MHz       (0x00)  // 低速
  96:/mnt/c/Users/31740/Desktop/newcore/drivers/gpio/stm32f4_gpio.c **** #define GPIO_Speed_25MHz      (0x01)  // 中速
  97:/mnt/c/Users/31740/Desktop/newcore/drivers/gpio/stm32f4_gpio.c **** #define GPIO_Speed_50MHz      (0x02)  // 高速
  98:/mnt/c/Users/31740/Desktop/newcore/drivers/gpio/stm32f4_gpio.c **** #define GPIO_Speed_100MHz     (0x03)  // 超高速
  99:/mnt/c/Users/31740/Desktop/newcore/drivers/gpio/stm32f4_gpio.c **** 
 100:/mnt/c/Users/31740/Desktop/newcore/drivers/gpio/stm32f4_gpio.c **** // RCC AHB1 外设时钟使能
 101:/mnt/c/Users/31740/Desktop/newcore/drivers/gpio/stm32f4_gpio.c **** #define RCC_AHB1Periph_GPIOA  (0x00000001)
 102:/mnt/c/Users/31740/Desktop/newcore/drivers/gpio/stm32f4_gpio.c **** #define RCC_AHB1Periph_GPIOB  (0x00000002)
 103:/mnt/c/Users/31740/Desktop/newcore/drivers/gpio/stm32f4_gpio.c **** #define RCC_AHB1Periph_GPIOC  (0x00000004)
 104:/mnt/c/Users/31740/Desktop/newcore/drivers/gpio/stm32f4_gpio.c **** #define RCC_AHB1Periph_GPIOD  (0x00000008)
 105:/mnt/c/Users/31740/Desktop/newcore/drivers/gpio/stm32f4_gpio.c **** #define RCC_AHB1Periph_GPIOE  (0x00000010)
 106:/mnt/c/Users/31740/Desktop/newcore/drivers/gpio/stm32f4_gpio.c **** #define RCC_AHB1Periph_GPIOF  (0x00000020)
 107:/mnt/c/Users/31740/Desktop/newcore/drivers/gpio/stm32f4_gpio.c **** #define RCC_AHB1Periph_GPIOG  (0x00000040)
 108:/mnt/c/Users/31740/Desktop/newcore/drivers/gpio/stm32f4_gpio.c **** #define RCC_AHB1Periph_GPIOH  (0x00000080)
 109:/mnt/c/Users/31740/Desktop/newcore/drivers/gpio/stm32f4_gpio.c **** #define RCC_AHB1Periph_GPIOI  (0x00000100)
 110:/mnt/c/Users/31740/Desktop/newcore/drivers/gpio/stm32f4_gpio.c **** #define RCC_AHB1Periph_GPIOJ  (0x00000200)
 111:/mnt/c/Users/31740/Desktop/newcore/drivers/gpio/stm32f4_gpio.c **** #define RCC_AHB1Periph_GPIOK  (0x00000400)
 112:/mnt/c/Users/31740/Desktop/newcore/drivers/gpio/stm32f4_gpio.c **** 
 113:/mnt/c/Users/31740/Desktop/newcore/drivers/gpio/stm32f4_gpio.c **** // 新增的复用功能定义
 114:/mnt/c/Users/31740/Desktop/newcore/drivers/gpio/stm32f4_gpio.c **** #define GPIO_AF0              (0x0)
 115:/mnt/c/Users/31740/Desktop/newcore/drivers/gpio/stm32f4_gpio.c **** #define GPIO_AF1              (0x1)
 116:/mnt/c/Users/31740/Desktop/newcore/drivers/gpio/stm32f4_gpio.c **** #define GPIO_AF2              (0x2)
 117:/mnt/c/Users/31740/Desktop/newcore/drivers/gpio/stm32f4_gpio.c **** #define GPIO_AF3              (0x3)
 118:/mnt/c/Users/31740/Desktop/newcore/drivers/gpio/stm32f4_gpio.c **** #define GPIO_AF4              (0x4)
 119:/mnt/c/Users/31740/Desktop/newcore/drivers/gpio/stm32f4_gpio.c **** #define GPIO_AF5              (0x5)
 120:/mnt/c/Users/31740/Desktop/newcore/drivers/gpio/stm32f4_gpio.c **** #define GPIO_AF6              (0x6)
 121:/mnt/c/Users/31740/Desktop/newcore/drivers/gpio/stm32f4_gpio.c **** #define GPIO_AF7              (0x7)
 122:/mnt/c/Users/31740/Desktop/newcore/drivers/gpio/stm32f4_gpio.c **** #define GPIO_AF8              (0x8)
 123:/mnt/c/Users/31740/Desktop/newcore/drivers/gpio/stm32f4_gpio.c **** #define GPIO_AF9              (0x9)
 124:/mnt/c/Users/31740/Desktop/newcore/drivers/gpio/stm32f4_gpio.c **** #define GPIO_AF10             (0xA)
 125:/mnt/c/Users/31740/Desktop/newcore/drivers/gpio/stm32f4_gpio.c **** #define GPIO_AF11             (0xB)
 126:/mnt/c/Users/31740/Desktop/newcore/drivers/gpio/stm32f4_gpio.c **** #define GPIO_AF12             (0xC)
 127:/mnt/c/Users/31740/Desktop/newcore/drivers/gpio/stm32f4_gpio.c **** #define GPIO_AF13             (0xD)
 128:/mnt/c/Users/31740/Desktop/newcore/drivers/gpio/stm32f4_gpio.c **** #define GPIO_AF14             (0xE)
 129:/mnt/c/Users/31740/Desktop/newcore/drivers/gpio/stm32f4_gpio.c **** #define GPIO_AF15             (0xF)
 130:/mnt/c/Users/31740/Desktop/newcore/drivers/gpio/stm32f4_gpio.c **** 
 131:/mnt/c/Users/31740/Desktop/newcore/drivers/gpio/stm32f4_gpio.c **** 
 132:/mnt/c/Users/31740/Desktop/newcore/drivers/gpio/stm32f4_gpio.c **** // GPIO 初始化结构体
 133:/mnt/c/Users/31740/Desktop/newcore/drivers/gpio/stm32f4_gpio.c **** typedef struct {
 134:/mnt/c/Users/31740/Desktop/newcore/drivers/gpio/stm32f4_gpio.c ****     uint16_t GPIO_Pin;
 135:/mnt/c/Users/31740/Desktop/newcore/drivers/gpio/stm32f4_gpio.c ****     uint16_t GPIO_Mode;
 136:/mnt/c/Users/31740/Desktop/newcore/drivers/gpio/stm32f4_gpio.c ****     uint16_t GPIO_Speed;
 137:/mnt/c/Users/31740/Desktop/newcore/drivers/gpio/stm32f4_gpio.c ****     uint16_t GPIO_OType;
 138:/mnt/c/Users/31740/Desktop/newcore/drivers/gpio/stm32f4_gpio.c ****     uint16_t GPIO_PuPd;
 139:/mnt/c/Users/31740/Desktop/newcore/drivers/gpio/stm32f4_gpio.c ****     uint8_t GPIO_AF;    
 140:/mnt/c/Users/31740/Desktop/newcore/drivers/gpio/stm32f4_gpio.c **** } GPIO_InitTypeDef;
 141:/mnt/c/Users/31740/Desktop/newcore/drivers/gpio/stm32f4_gpio.c **** 
 142:/mnt/c/Users/31740/Desktop/newcore/drivers/gpio/stm32f4_gpio.c **** // 设备结构体
 143:/mnt/c/Users/31740/Desktop/newcore/drivers/gpio/stm32f4_gpio.c **** static struct gpio_device {
 144:/mnt/c/Users/31740/Desktop/newcore/drivers/gpio/stm32f4_gpio.c ****     uint16_t gpio_number;
ARM GAS  /tmp/ccaQsqPk.s 			page 4


 145:/mnt/c/Users/31740/Desktop/newcore/drivers/gpio/stm32f4_gpio.c ****     GPIO_TypeDef *gpio_type;
 146:/mnt/c/Users/31740/Desktop/newcore/drivers/gpio/stm32f4_gpio.c ****     GPIO_InitTypeDef GPIO_InitStructure;
 147:/mnt/c/Users/31740/Desktop/newcore/drivers/gpio/stm32f4_gpio.c **** };
 148:/mnt/c/Users/31740/Desktop/newcore/drivers/gpio/stm32f4_gpio.c **** 
 149:/mnt/c/Users/31740/Desktop/newcore/drivers/gpio/stm32f4_gpio.c **** 
 150:/mnt/c/Users/31740/Desktop/newcore/drivers/gpio/stm32f4_gpio.c **** void print_gpio_number(uint16_t pin) {
 151:/mnt/c/Users/31740/Desktop/newcore/drivers/gpio/stm32f4_gpio.c ****     static const char prefix[] = "export gpio: GPIO_Pin_";
 152:/mnt/c/Users/31740/Desktop/newcore/drivers/gpio/stm32f4_gpio.c ****     static const char suffix[] = "\n\r";
 153:/mnt/c/Users/31740/Desktop/newcore/drivers/gpio/stm32f4_gpio.c ****     if(pin >= GPIO_Pin_0 && pin <= GPIO_Pin_15) {
 154:/mnt/c/Users/31740/Desktop/newcore/drivers/gpio/stm32f4_gpio.c ****         // 计算引脚号(0-15)
 155:/mnt/c/Users/31740/Desktop/newcore/drivers/gpio/stm32f4_gpio.c ****         uint8_t pin_num = 0;
 156:/mnt/c/Users/31740/Desktop/newcore/drivers/gpio/stm32f4_gpio.c ****         while(pin >>= 1) { pin_num++; }
 157:/mnt/c/Users/31740/Desktop/newcore/drivers/gpio/stm32f4_gpio.c ****         char buf[5] = {0}; // 最大存储"15"+null
 158:/mnt/c/Users/31740/Desktop/newcore/drivers/gpio/stm32f4_gpio.c ****         if(pin_num < 10) {
 159:/mnt/c/Users/31740/Desktop/newcore/drivers/gpio/stm32f4_gpio.c ****             buf[0] = '0' + pin_num;
 160:/mnt/c/Users/31740/Desktop/newcore/drivers/gpio/stm32f4_gpio.c ****         } else {
 161:/mnt/c/Users/31740/Desktop/newcore/drivers/gpio/stm32f4_gpio.c ****             buf[0] = '1';
 162:/mnt/c/Users/31740/Desktop/newcore/drivers/gpio/stm32f4_gpio.c ****             buf[1] = '0' + (pin_num - 10);
 163:/mnt/c/Users/31740/Desktop/newcore/drivers/gpio/stm32f4_gpio.c ****         }       
 164:/mnt/c/Users/31740/Desktop/newcore/drivers/gpio/stm32f4_gpio.c ****         pr_info("%s%s%s", prefix, buf, suffix);
 165:/mnt/c/Users/31740/Desktop/newcore/drivers/gpio/stm32f4_gpio.c ****     } else {
 166:/mnt/c/Users/31740/Desktop/newcore/drivers/gpio/stm32f4_gpio.c ****         pr_info("error pin number: %d%s", pin, suffix);
 167:/mnt/c/Users/31740/Desktop/newcore/drivers/gpio/stm32f4_gpio.c ****     }
 168:/mnt/c/Users/31740/Desktop/newcore/drivers/gpio/stm32f4_gpio.c **** }
 169:/mnt/c/Users/31740/Desktop/newcore/drivers/gpio/stm32f4_gpio.c **** 
 170:/mnt/c/Users/31740/Desktop/newcore/drivers/gpio/stm32f4_gpio.c **** void print_gpio_type(GPIO_TypeDef *type) {
 171:/mnt/c/Users/31740/Desktop/newcore/drivers/gpio/stm32f4_gpio.c ****     static const char prefix[] = "gpio type is :GPIO";
 172:/mnt/c/Users/31740/Desktop/newcore/drivers/gpio/stm32f4_gpio.c ****     static const char suffix[] = "\n\r";
 173:/mnt/c/Users/31740/Desktop/newcore/drivers/gpio/stm32f4_gpio.c ****     
 174:/mnt/c/Users/31740/Desktop/newcore/drivers/gpio/stm32f4_gpio.c ****     if(type >= GPIOA && type <= GPIOK) {
 175:/mnt/c/Users/31740/Desktop/newcore/drivers/gpio/stm32f4_gpio.c ****         char port = 'A' + ((uint32_t)type - (uint32_t)GPIOA) / 0x400;
 176:/mnt/c/Users/31740/Desktop/newcore/drivers/gpio/stm32f4_gpio.c ****         pr_info("%s%c%s", prefix, port, suffix);
 177:/mnt/c/Users/31740/Desktop/newcore/drivers/gpio/stm32f4_gpio.c ****     } else {
 178:/mnt/c/Users/31740/Desktop/newcore/drivers/gpio/stm32f4_gpio.c ****         pr_info("error gpio type%s", suffix);
 179:/mnt/c/Users/31740/Desktop/newcore/drivers/gpio/stm32f4_gpio.c ****     }
 180:/mnt/c/Users/31740/Desktop/newcore/drivers/gpio/stm32f4_gpio.c **** }
 181:/mnt/c/Users/31740/Desktop/newcore/drivers/gpio/stm32f4_gpio.c **** 
 182:/mnt/c/Users/31740/Desktop/newcore/drivers/gpio/stm32f4_gpio.c **** 
 183:/mnt/c/Users/31740/Desktop/newcore/drivers/gpio/stm32f4_gpio.c **** 
 184:/mnt/c/Users/31740/Desktop/newcore/drivers/gpio/stm32f4_gpio.c **** 
 185:/mnt/c/Users/31740/Desktop/newcore/drivers/gpio/stm32f4_gpio.c **** // 设置引脚复用功能
 186:/mnt/c/Users/31740/Desktop/newcore/drivers/gpio/stm32f4_gpio.c **** static void GPIO_SetAF(GPIO_TypeDef *GPIOx, uint16_t GPIO_Pin, uint8_t AF) {
  29              		.loc 1 186 76 view -0
  30              		.cfi_startproc
  31              		@ args = 0, pretend = 0, frame = 0
  32              		@ frame_needed = 0, uses_anonymous_args = 0
  33              		@ link register save eliminated.
 187:/mnt/c/Users/31740/Desktop/newcore/drivers/gpio/stm32f4_gpio.c ****     uint32_t pinpos = 0;
  34              		.loc 1 187 5 view .LVU1
 188:/mnt/c/Users/31740/Desktop/newcore/drivers/gpio/stm32f4_gpio.c ****     while((GPIO_Pin >> pinpos) != 1) { pinpos++; }
  35              		.loc 1 188 5 view .LVU2
 187:/mnt/c/Users/31740/Desktop/newcore/drivers/gpio/stm32f4_gpio.c ****     uint32_t pinpos = 0;
  36              		.loc 1 187 14 is_stmt 0 view .LVU3
  37 0000 0023     		movs	r3, #0
  38              		.loc 1 188 10 view .LVU4
  39 0002 00E0     		b	.L2
  40              	.LVL1:
ARM GAS  /tmp/ccaQsqPk.s 			page 5


  41              	.L3:
  42              		.loc 1 188 40 is_stmt 1 discriminator 2 view .LVU5
  43              		.loc 1 188 46 is_stmt 0 discriminator 2 view .LVU6
  44 0004 0133     		adds	r3, r3, #1
  45              	.LVL2:
  46              	.L2:
  47              		.loc 1 188 32 is_stmt 1 discriminator 1 view .LVU7
  48              		.loc 1 188 21 is_stmt 0 discriminator 1 view .LVU8
  49 0006 41FA03FC 		asr	ip, r1, r3
  50              		.loc 1 188 32 discriminator 1 view .LVU9
  51 000a BCF1010F 		cmp	ip, #1
  52 000e F9D1     		bne	.L3
 189:/mnt/c/Users/31740/Desktop/newcore/drivers/gpio/stm32f4_gpio.c ****     
 190:/mnt/c/Users/31740/Desktop/newcore/drivers/gpio/stm32f4_gpio.c ****     if(pinpos < 8) {
  53              		.loc 1 190 5 is_stmt 1 view .LVU10
  54              		.loc 1 190 7 is_stmt 0 view .LVU11
  55 0010 072B     		cmp	r3, #7
  56 0012 0ED8     		bhi	.L4
 191:/mnt/c/Users/31740/Desktop/newcore/drivers/gpio/stm32f4_gpio.c ****         GPIOx->AFR[0] &= ~(0xF << (pinpos * 4));
  57              		.loc 1 191 9 is_stmt 1 view .LVU12
  58              		.loc 1 191 19 is_stmt 0 view .LVU13
  59 0014 016A     		ldr	r1, [r0, #32]
  60              	.LVL3:
  61              		.loc 1 191 43 view .LVU14
  62 0016 9B00     		lsls	r3, r3, #2
  63              	.LVL4:
  64              		.loc 1 191 32 view .LVU15
  65 0018 4FF00F0C 		mov	ip, #15
  66 001c 0CFA03FC 		lsl	ip, ip, r3
  67              		.loc 1 191 23 view .LVU16
  68 0020 21EA0C01 		bic	r1, r1, ip
  69 0024 0162     		str	r1, [r0, #32]
 192:/mnt/c/Users/31740/Desktop/newcore/drivers/gpio/stm32f4_gpio.c ****         GPIOx->AFR[0] |= (AF << (pinpos * 4));
  70              		.loc 1 192 9 is_stmt 1 view .LVU17
  71              		.loc 1 192 19 is_stmt 0 view .LVU18
  72 0026 016A     		ldr	r1, [r0, #32]
  73              		.loc 1 192 30 view .LVU19
  74 0028 02FA03F3 		lsl	r3, r2, r3
  75              		.loc 1 192 23 view .LVU20
  76 002c 0B43     		orrs	r3, r3, r1
  77 002e 0362     		str	r3, [r0, #32]
  78 0030 7047     		bx	lr
  79              	.LVL5:
  80              	.L4:
 193:/mnt/c/Users/31740/Desktop/newcore/drivers/gpio/stm32f4_gpio.c ****     } else {
 194:/mnt/c/Users/31740/Desktop/newcore/drivers/gpio/stm32f4_gpio.c ****         GPIOx->AFR[1] &= ~(0xF << ((pinpos-8) * 4));
  81              		.loc 1 194 9 is_stmt 1 view .LVU21
  82              		.loc 1 194 19 is_stmt 0 view .LVU22
  83 0032 416A     		ldr	r1, [r0, #36]
  84              	.LVL6:
  85              		.loc 1 194 43 view .LVU23
  86 0034 083B     		subs	r3, r3, #8
  87              	.LVL7:
  88              		.loc 1 194 47 view .LVU24
  89 0036 9B00     		lsls	r3, r3, #2
  90              	.LVL8:
  91              		.loc 1 194 32 view .LVU25
ARM GAS  /tmp/ccaQsqPk.s 			page 6


  92 0038 4FF00F0C 		mov	ip, #15
  93 003c 0CFA03FC 		lsl	ip, ip, r3
  94              		.loc 1 194 23 view .LVU26
  95 0040 21EA0C01 		bic	r1, r1, ip
  96 0044 4162     		str	r1, [r0, #36]
 195:/mnt/c/Users/31740/Desktop/newcore/drivers/gpio/stm32f4_gpio.c ****         GPIOx->AFR[1] |= (AF << ((pinpos-8) * 4));
  97              		.loc 1 195 9 is_stmt 1 view .LVU27
  98              		.loc 1 195 19 is_stmt 0 view .LVU28
  99 0046 416A     		ldr	r1, [r0, #36]
 100              		.loc 1 195 30 view .LVU29
 101 0048 9A40     		lsls	r2, r2, r3
 102              	.LVL9:
 103              		.loc 1 195 23 view .LVU30
 104 004a 0A43     		orrs	r2, r2, r1
 105 004c 4262     		str	r2, [r0, #36]
 196:/mnt/c/Users/31740/Desktop/newcore/drivers/gpio/stm32f4_gpio.c ****     }
 197:/mnt/c/Users/31740/Desktop/newcore/drivers/gpio/stm32f4_gpio.c **** }
 106              		.loc 1 197 1 view .LVU31
 107 004e 7047     		bx	lr
 108              		.cfi_endproc
 109              	.LFE1037:
 111              		.section	.text.GPIO_Init,"ax",%progbits
 112              		.align	1
 113              		.syntax unified
 114              		.thumb
 115              		.thumb_func
 117              	GPIO_Init:
 118              	.LVL10:
 119              	.LFB1038:
 198:/mnt/c/Users/31740/Desktop/newcore/drivers/gpio/stm32f4_gpio.c **** 
 199:/mnt/c/Users/31740/Desktop/newcore/drivers/gpio/stm32f4_gpio.c **** static void GPIO_Init(GPIO_TypeDef *GPIOx, GPIO_InitTypeDef *GPIO_InitStruct) {
 120              		.loc 1 199 79 is_stmt 1 view -0
 121              		.cfi_startproc
 122              		@ args = 0, pretend = 0, frame = 0
 123              		@ frame_needed = 0, uses_anonymous_args = 0
 124              		.loc 1 199 79 is_stmt 0 view .LVU33
 125 0000 F8B5     		push	{r3, r4, r5, r6, r7, lr}
 126              	.LCFI0:
 127              		.cfi_def_cfa_offset 24
 128              		.cfi_offset 3, -24
 129              		.cfi_offset 4, -20
 130              		.cfi_offset 5, -16
 131              		.cfi_offset 6, -12
 132              		.cfi_offset 7, -8
 133              		.cfi_offset 14, -4
 134 0002 0546     		mov	r5, r0
 135 0004 0E46     		mov	r6, r1
 200:/mnt/c/Users/31740/Desktop/newcore/drivers/gpio/stm32f4_gpio.c ****     uint32_t pinpos, pos, currentpin;
 136              		.loc 1 200 5 is_stmt 1 view .LVU34
 201:/mnt/c/Users/31740/Desktop/newcore/drivers/gpio/stm32f4_gpio.c ****     
 202:/mnt/c/Users/31740/Desktop/newcore/drivers/gpio/stm32f4_gpio.c ****     for(pinpos = 0; pinpos < 16; pinpos++) {
 137              		.loc 1 202 5 view .LVU35
 138              	.LVL11:
 139              		.loc 1 202 16 is_stmt 0 view .LVU36
 140 0006 0024     		movs	r4, #0
 141              		.loc 1 202 5 view .LVU37
 142 0008 0CE0     		b	.L7
ARM GAS  /tmp/ccaQsqPk.s 			page 7


 143              	.LVL12:
 144              	.L9:
 203:/mnt/c/Users/31740/Desktop/newcore/drivers/gpio/stm32f4_gpio.c ****         pos = (0x1 << pinpos);
 204:/mnt/c/Users/31740/Desktop/newcore/drivers/gpio/stm32f4_gpio.c ****         currentpin = (GPIO_InitStruct->GPIO_Pin) & pos;
 205:/mnt/c/Users/31740/Desktop/newcore/drivers/gpio/stm32f4_gpio.c ****         
 206:/mnt/c/Users/31740/Desktop/newcore/drivers/gpio/stm32f4_gpio.c ****         if(currentpin == pos) {
 207:/mnt/c/Users/31740/Desktop/newcore/drivers/gpio/stm32f4_gpio.c ****             // 配置模式
 208:/mnt/c/Users/31740/Desktop/newcore/drivers/gpio/stm32f4_gpio.c ****             GPIOx->MODER &= ~(0x3 << (pinpos * 2));
 209:/mnt/c/Users/31740/Desktop/newcore/drivers/gpio/stm32f4_gpio.c ****             GPIOx->MODER |= (GPIO_InitStruct->GPIO_Mode << (pinpos * 2));
 210:/mnt/c/Users/31740/Desktop/newcore/drivers/gpio/stm32f4_gpio.c ****             
 211:/mnt/c/Users/31740/Desktop/newcore/drivers/gpio/stm32f4_gpio.c ****             // 如果是复用模式或输出模式，配置其他参数
 212:/mnt/c/Users/31740/Desktop/newcore/drivers/gpio/stm32f4_gpio.c ****             if(GPIO_InitStruct->GPIO_Mode == GPIO_Mode_OUT || 
 213:/mnt/c/Users/31740/Desktop/newcore/drivers/gpio/stm32f4_gpio.c ****                GPIO_InitStruct->GPIO_Mode == GPIO_Mode_AF) {
 214:/mnt/c/Users/31740/Desktop/newcore/drivers/gpio/stm32f4_gpio.c ****                 // 配置输出类型
 215:/mnt/c/Users/31740/Desktop/newcore/drivers/gpio/stm32f4_gpio.c ****                 GPIOx->OTYPER &= ~(0x1 << pinpos);
 216:/mnt/c/Users/31740/Desktop/newcore/drivers/gpio/stm32f4_gpio.c ****                 GPIOx->OTYPER |= (GPIO_InitStruct->GPIO_OType << pinpos);
 217:/mnt/c/Users/31740/Desktop/newcore/drivers/gpio/stm32f4_gpio.c ****                 
 218:/mnt/c/Users/31740/Desktop/newcore/drivers/gpio/stm32f4_gpio.c ****                 // 配置速度
 219:/mnt/c/Users/31740/Desktop/newcore/drivers/gpio/stm32f4_gpio.c ****                 GPIOx->OSPEEDR &= ~(0x3 << (pinpos * 2));
 220:/mnt/c/Users/31740/Desktop/newcore/drivers/gpio/stm32f4_gpio.c ****                 GPIOx->OSPEEDR |= (GPIO_InitStruct->GPIO_Speed << (pinpos * 2));
 221:/mnt/c/Users/31740/Desktop/newcore/drivers/gpio/stm32f4_gpio.c ****             }
 222:/mnt/c/Users/31740/Desktop/newcore/drivers/gpio/stm32f4_gpio.c ****             
 223:/mnt/c/Users/31740/Desktop/newcore/drivers/gpio/stm32f4_gpio.c ****             // 配置上拉/下拉
 224:/mnt/c/Users/31740/Desktop/newcore/drivers/gpio/stm32f4_gpio.c ****             GPIOx->PUPDR &= ~(0x3 << (pinpos * 2));
 145              		.loc 1 224 13 is_stmt 1 view .LVU38
 146              		.loc 1 224 18 is_stmt 0 view .LVU39
 147 000a EA68     		ldr	r2, [r5, #12]
 148              		.loc 1 224 26 view .LVU40
 149 000c 1040     		ands	r0, r0, r2
 150 000e E860     		str	r0, [r5, #12]
 225:/mnt/c/Users/31740/Desktop/newcore/drivers/gpio/stm32f4_gpio.c ****             GPIOx->PUPDR |= (GPIO_InitStruct->GPIO_PuPd << (pinpos * 2));
 151              		.loc 1 225 13 is_stmt 1 view .LVU41
 152              		.loc 1 225 18 is_stmt 0 view .LVU42
 153 0010 EA68     		ldr	r2, [r5, #12]
 154              		.loc 1 225 45 view .LVU43
 155 0012 3089     		ldrh	r0, [r6, #8]
 156              		.loc 1 225 57 view .LVU44
 157 0014 00FA01F1 		lsl	r1, r0, r1
 158              		.loc 1 225 26 view .LVU45
 159 0018 0A43     		orrs	r2, r2, r1
 160 001a EA60     		str	r2, [r5, #12]
 226:/mnt/c/Users/31740/Desktop/newcore/drivers/gpio/stm32f4_gpio.c ****             
 227:/mnt/c/Users/31740/Desktop/newcore/drivers/gpio/stm32f4_gpio.c ****             // 如果是复用模式，配置复用功能
 228:/mnt/c/Users/31740/Desktop/newcore/drivers/gpio/stm32f4_gpio.c ****             if(GPIO_InitStruct->GPIO_Mode == GPIO_Mode_AF) {
 161              		.loc 1 228 13 is_stmt 1 view .LVU46
 162              		.loc 1 228 31 is_stmt 0 view .LVU47
 163 001c 7288     		ldrh	r2, [r6, #2]
 164              		.loc 1 228 15 view .LVU48
 165 001e 022A     		cmp	r2, #2
 166 0020 2FD0     		beq	.L12
 167              	.LVL13:
 168              	.L8:
 202:/mnt/c/Users/31740/Desktop/newcore/drivers/gpio/stm32f4_gpio.c ****         pos = (0x1 << pinpos);
 169              		.loc 1 202 40 is_stmt 1 discriminator 2 view .LVU49
 170 0022 0134     		adds	r4, r4, #1
 171              	.LVL14:
 172              	.L7:
ARM GAS  /tmp/ccaQsqPk.s 			page 8


 202:/mnt/c/Users/31740/Desktop/newcore/drivers/gpio/stm32f4_gpio.c ****         pos = (0x1 << pinpos);
 173              		.loc 1 202 28 discriminator 1 view .LVU50
 174 0024 0F2C     		cmp	r4, #15
 175 0026 32D8     		bhi	.L13
 203:/mnt/c/Users/31740/Desktop/newcore/drivers/gpio/stm32f4_gpio.c ****         currentpin = (GPIO_InitStruct->GPIO_Pin) & pos;
 176              		.loc 1 203 9 view .LVU51
 203:/mnt/c/Users/31740/Desktop/newcore/drivers/gpio/stm32f4_gpio.c ****         currentpin = (GPIO_InitStruct->GPIO_Pin) & pos;
 177              		.loc 1 203 20 is_stmt 0 view .LVU52
 178 0028 0123     		movs	r3, #1
 179 002a A340     		lsls	r3, r3, r4
 180              	.LVL15:
 204:/mnt/c/Users/31740/Desktop/newcore/drivers/gpio/stm32f4_gpio.c ****         
 181              		.loc 1 204 9 is_stmt 1 view .LVU53
 204:/mnt/c/Users/31740/Desktop/newcore/drivers/gpio/stm32f4_gpio.c ****         
 182              		.loc 1 204 38 is_stmt 0 view .LVU54
 183 002c 3288     		ldrh	r2, [r6]
 184              	.LVL16:
 206:/mnt/c/Users/31740/Desktop/newcore/drivers/gpio/stm32f4_gpio.c ****             // 配置模式
 185              		.loc 1 206 9 is_stmt 1 view .LVU55
 206:/mnt/c/Users/31740/Desktop/newcore/drivers/gpio/stm32f4_gpio.c ****             // 配置模式
 186              		.loc 1 206 11 is_stmt 0 view .LVU56
 187 002e 33EA0202 		bics	r2, r3, r2
 188              	.LVL17:
 206:/mnt/c/Users/31740/Desktop/newcore/drivers/gpio/stm32f4_gpio.c ****             // 配置模式
 189              		.loc 1 206 11 view .LVU57
 190 0032 F6D1     		bne	.L8
 208:/mnt/c/Users/31740/Desktop/newcore/drivers/gpio/stm32f4_gpio.c ****             GPIOx->MODER |= (GPIO_InitStruct->GPIO_Mode << (pinpos * 2));
 191              		.loc 1 208 13 is_stmt 1 view .LVU58
 208:/mnt/c/Users/31740/Desktop/newcore/drivers/gpio/stm32f4_gpio.c ****             GPIOx->MODER |= (GPIO_InitStruct->GPIO_Mode << (pinpos * 2));
 192              		.loc 1 208 18 is_stmt 0 view .LVU59
 193 0034 2F68     		ldr	r7, [r5]
 208:/mnt/c/Users/31740/Desktop/newcore/drivers/gpio/stm32f4_gpio.c ****             GPIOx->MODER |= (GPIO_InitStruct->GPIO_Mode << (pinpos * 2));
 194              		.loc 1 208 46 view .LVU60
 195 0036 6100     		lsls	r1, r4, #1
 208:/mnt/c/Users/31740/Desktop/newcore/drivers/gpio/stm32f4_gpio.c ****             GPIOx->MODER |= (GPIO_InitStruct->GPIO_Mode << (pinpos * 2));
 196              		.loc 1 208 35 view .LVU61
 197 0038 0322     		movs	r2, #3
 198 003a 8A40     		lsls	r2, r2, r1
 208:/mnt/c/Users/31740/Desktop/newcore/drivers/gpio/stm32f4_gpio.c ****             GPIOx->MODER |= (GPIO_InitStruct->GPIO_Mode << (pinpos * 2));
 199              		.loc 1 208 29 view .LVU62
 200 003c D043     		mvns	r0, r2
 208:/mnt/c/Users/31740/Desktop/newcore/drivers/gpio/stm32f4_gpio.c ****             GPIOx->MODER |= (GPIO_InitStruct->GPIO_Mode << (pinpos * 2));
 201              		.loc 1 208 26 view .LVU63
 202 003e 27EA0202 		bic	r2, r7, r2
 203 0042 2A60     		str	r2, [r5]
 204              	.LVL18:
 209:/mnt/c/Users/31740/Desktop/newcore/drivers/gpio/stm32f4_gpio.c ****             
 205              		.loc 1 209 13 is_stmt 1 view .LVU64
 209:/mnt/c/Users/31740/Desktop/newcore/drivers/gpio/stm32f4_gpio.c ****             
 206              		.loc 1 209 18 is_stmt 0 view .LVU65
 207 0044 2A68     		ldr	r2, [r5]
 209:/mnt/c/Users/31740/Desktop/newcore/drivers/gpio/stm32f4_gpio.c ****             
 208              		.loc 1 209 45 view .LVU66
 209 0046 B6F802C0 		ldrh	ip, [r6, #2]
 209:/mnt/c/Users/31740/Desktop/newcore/drivers/gpio/stm32f4_gpio.c ****             
 210              		.loc 1 209 57 view .LVU67
 211 004a 0CFA01FC 		lsl	ip, ip, r1
ARM GAS  /tmp/ccaQsqPk.s 			page 9


 209:/mnt/c/Users/31740/Desktop/newcore/drivers/gpio/stm32f4_gpio.c ****             
 212              		.loc 1 209 26 view .LVU68
 213 004e 42EA0C02 		orr	r2, r2, ip
 214 0052 2A60     		str	r2, [r5]
 212:/mnt/c/Users/31740/Desktop/newcore/drivers/gpio/stm32f4_gpio.c ****                GPIO_InitStruct->GPIO_Mode == GPIO_Mode_AF) {
 215              		.loc 1 212 13 is_stmt 1 view .LVU69
 212:/mnt/c/Users/31740/Desktop/newcore/drivers/gpio/stm32f4_gpio.c ****                GPIO_InitStruct->GPIO_Mode == GPIO_Mode_AF) {
 216              		.loc 1 212 31 is_stmt 0 view .LVU70
 217 0054 7288     		ldrh	r2, [r6, #2]
 212:/mnt/c/Users/31740/Desktop/newcore/drivers/gpio/stm32f4_gpio.c ****                GPIO_InitStruct->GPIO_Mode == GPIO_Mode_AF) {
 218              		.loc 1 212 60 view .LVU71
 219 0056 013A     		subs	r2, r2, #1
 220 0058 92B2     		uxth	r2, r2
 212:/mnt/c/Users/31740/Desktop/newcore/drivers/gpio/stm32f4_gpio.c ****                GPIO_InitStruct->GPIO_Mode == GPIO_Mode_AF) {
 221              		.loc 1 212 15 view .LVU72
 222 005a 012A     		cmp	r2, #1
 223 005c D5D8     		bhi	.L9
 215:/mnt/c/Users/31740/Desktop/newcore/drivers/gpio/stm32f4_gpio.c ****                 GPIOx->OTYPER |= (GPIO_InitStruct->GPIO_OType << pinpos);
 224              		.loc 1 215 17 is_stmt 1 view .LVU73
 215:/mnt/c/Users/31740/Desktop/newcore/drivers/gpio/stm32f4_gpio.c ****                 GPIOx->OTYPER |= (GPIO_InitStruct->GPIO_OType << pinpos);
 225              		.loc 1 215 22 is_stmt 0 view .LVU74
 226 005e 6A68     		ldr	r2, [r5, #4]
 215:/mnt/c/Users/31740/Desktop/newcore/drivers/gpio/stm32f4_gpio.c ****                 GPIOx->OTYPER |= (GPIO_InitStruct->GPIO_OType << pinpos);
 227              		.loc 1 215 31 view .LVU75
 228 0060 22EA0302 		bic	r2, r2, r3
 229 0064 6A60     		str	r2, [r5, #4]
 216:/mnt/c/Users/31740/Desktop/newcore/drivers/gpio/stm32f4_gpio.c ****                 
 230              		.loc 1 216 17 is_stmt 1 view .LVU76
 216:/mnt/c/Users/31740/Desktop/newcore/drivers/gpio/stm32f4_gpio.c ****                 
 231              		.loc 1 216 22 is_stmt 0 view .LVU77
 232 0066 6A68     		ldr	r2, [r5, #4]
 216:/mnt/c/Users/31740/Desktop/newcore/drivers/gpio/stm32f4_gpio.c ****                 
 233              		.loc 1 216 50 view .LVU78
 234 0068 F788     		ldrh	r7, [r6, #6]
 216:/mnt/c/Users/31740/Desktop/newcore/drivers/gpio/stm32f4_gpio.c ****                 
 235              		.loc 1 216 63 view .LVU79
 236 006a A740     		lsls	r7, r7, r4
 216:/mnt/c/Users/31740/Desktop/newcore/drivers/gpio/stm32f4_gpio.c ****                 
 237              		.loc 1 216 31 view .LVU80
 238 006c 3A43     		orrs	r2, r2, r7
 239 006e 6A60     		str	r2, [r5, #4]
 219:/mnt/c/Users/31740/Desktop/newcore/drivers/gpio/stm32f4_gpio.c ****                 GPIOx->OSPEEDR |= (GPIO_InitStruct->GPIO_Speed << (pinpos * 2));
 240              		.loc 1 219 17 is_stmt 1 view .LVU81
 219:/mnt/c/Users/31740/Desktop/newcore/drivers/gpio/stm32f4_gpio.c ****                 GPIOx->OSPEEDR |= (GPIO_InitStruct->GPIO_Speed << (pinpos * 2));
 241              		.loc 1 219 22 is_stmt 0 view .LVU82
 242 0070 AA68     		ldr	r2, [r5, #8]
 219:/mnt/c/Users/31740/Desktop/newcore/drivers/gpio/stm32f4_gpio.c ****                 GPIOx->OSPEEDR |= (GPIO_InitStruct->GPIO_Speed << (pinpos * 2));
 243              		.loc 1 219 32 view .LVU83
 244 0072 0240     		ands	r2, r2, r0
 245 0074 AA60     		str	r2, [r5, #8]
 220:/mnt/c/Users/31740/Desktop/newcore/drivers/gpio/stm32f4_gpio.c ****             }
 246              		.loc 1 220 17 is_stmt 1 view .LVU84
 220:/mnt/c/Users/31740/Desktop/newcore/drivers/gpio/stm32f4_gpio.c ****             }
 247              		.loc 1 220 22 is_stmt 0 view .LVU85
 248 0076 AA68     		ldr	r2, [r5, #8]
 220:/mnt/c/Users/31740/Desktop/newcore/drivers/gpio/stm32f4_gpio.c ****             }
 249              		.loc 1 220 51 view .LVU86
ARM GAS  /tmp/ccaQsqPk.s 			page 10


 250 0078 B788     		ldrh	r7, [r6, #4]
 220:/mnt/c/Users/31740/Desktop/newcore/drivers/gpio/stm32f4_gpio.c ****             }
 251              		.loc 1 220 64 view .LVU87
 252 007a 8F40     		lsls	r7, r7, r1
 220:/mnt/c/Users/31740/Desktop/newcore/drivers/gpio/stm32f4_gpio.c ****             }
 253              		.loc 1 220 32 view .LVU88
 254 007c 3A43     		orrs	r2, r2, r7
 255 007e AA60     		str	r2, [r5, #8]
 256 0080 C3E7     		b	.L9
 257              	.L12:
 229:/mnt/c/Users/31740/Desktop/newcore/drivers/gpio/stm32f4_gpio.c ****                 GPIO_SetAF(GPIOx, pos, GPIO_InitStruct->GPIO_AF);
 258              		.loc 1 229 17 is_stmt 1 view .LVU89
 259 0082 B27A     		ldrb	r2, [r6, #10]	@ zero_extendqisi2
 260 0084 99B2     		uxth	r1, r3
 261 0086 2846     		mov	r0, r5
 262 0088 FFF7FEFF 		bl	GPIO_SetAF
 263              	.LVL19:
 264              		.loc 1 229 17 is_stmt 0 view .LVU90
 265 008c C9E7     		b	.L8
 266              	.LVL20:
 267              	.L13:
 230:/mnt/c/Users/31740/Desktop/newcore/drivers/gpio/stm32f4_gpio.c ****             }
 231:/mnt/c/Users/31740/Desktop/newcore/drivers/gpio/stm32f4_gpio.c ****         }
 232:/mnt/c/Users/31740/Desktop/newcore/drivers/gpio/stm32f4_gpio.c ****     }
 233:/mnt/c/Users/31740/Desktop/newcore/drivers/gpio/stm32f4_gpio.c **** }
 268              		.loc 1 233 1 view .LVU91
 269 008e F8BD     		pop	{r3, r4, r5, r6, r7, pc}
 270              		.loc 1 233 1 view .LVU92
 271              		.cfi_endproc
 272              	.LFE1038:
 274              		.section	.text.GPIO_SetBits,"ax",%progbits
 275              		.align	1
 276              		.syntax unified
 277              		.thumb
 278              		.thumb_func
 280              	GPIO_SetBits:
 281              	.LVL21:
 282              	.LFB1039:
 234:/mnt/c/Users/31740/Desktop/newcore/drivers/gpio/stm32f4_gpio.c **** 
 235:/mnt/c/Users/31740/Desktop/newcore/drivers/gpio/stm32f4_gpio.c **** // 设置GPIO引脚
 236:/mnt/c/Users/31740/Desktop/newcore/drivers/gpio/stm32f4_gpio.c **** static void GPIO_SetBits(GPIO_TypeDef *GPIOx, uint16_t GPIO_Pin) {
 283              		.loc 1 236 66 is_stmt 1 view -0
 284              		.cfi_startproc
 285              		@ args = 0, pretend = 0, frame = 0
 286              		@ frame_needed = 0, uses_anonymous_args = 0
 287              		@ link register save eliminated.
 237:/mnt/c/Users/31740/Desktop/newcore/drivers/gpio/stm32f4_gpio.c ****     GPIOx->BSRR = GPIO_Pin;
 288              		.loc 1 237 5 view .LVU94
 289              		.loc 1 237 17 is_stmt 0 view .LVU95
 290 0000 8161     		str	r1, [r0, #24]
 238:/mnt/c/Users/31740/Desktop/newcore/drivers/gpio/stm32f4_gpio.c **** }
 291              		.loc 1 238 1 view .LVU96
 292 0002 7047     		bx	lr
 293              		.cfi_endproc
 294              	.LFE1039:
 296              		.section	.text.GPIO_ResetBits,"ax",%progbits
 297              		.align	1
ARM GAS  /tmp/ccaQsqPk.s 			page 11


 298              		.syntax unified
 299              		.thumb
 300              		.thumb_func
 302              	GPIO_ResetBits:
 303              	.LVL22:
 304              	.LFB1040:
 239:/mnt/c/Users/31740/Desktop/newcore/drivers/gpio/stm32f4_gpio.c **** 
 240:/mnt/c/Users/31740/Desktop/newcore/drivers/gpio/stm32f4_gpio.c **** // 复位GPIO引脚
 241:/mnt/c/Users/31740/Desktop/newcore/drivers/gpio/stm32f4_gpio.c **** static void GPIO_ResetBits(GPIO_TypeDef *GPIOx, uint16_t GPIO_Pin) {
 305              		.loc 1 241 68 is_stmt 1 view -0
 306              		.cfi_startproc
 307              		@ args = 0, pretend = 0, frame = 0
 308              		@ frame_needed = 0, uses_anonymous_args = 0
 309              		@ link register save eliminated.
 242:/mnt/c/Users/31740/Desktop/newcore/drivers/gpio/stm32f4_gpio.c ****     GPIOx->BSRR = (uint32_t)GPIO_Pin << 16;
 310              		.loc 1 242 5 view .LVU98
 311              		.loc 1 242 38 is_stmt 0 view .LVU99
 312 0000 0904     		lsls	r1, r1, #16
 313              	.LVL23:
 314              		.loc 1 242 17 view .LVU100
 315 0002 8161     		str	r1, [r0, #24]
 243:/mnt/c/Users/31740/Desktop/newcore/drivers/gpio/stm32f4_gpio.c **** }
 316              		.loc 1 243 1 view .LVU101
 317 0004 7047     		bx	lr
 318              		.cfi_endproc
 319              	.LFE1040:
 321              		.section	.text.GPIO_ReadInputDataBit,"ax",%progbits
 322              		.align	1
 323              		.syntax unified
 324              		.thumb
 325              		.thumb_func
 327              	GPIO_ReadInputDataBit:
 328              	.LVL24:
 329              	.LFB1041:
 244:/mnt/c/Users/31740/Desktop/newcore/drivers/gpio/stm32f4_gpio.c **** 
 245:/mnt/c/Users/31740/Desktop/newcore/drivers/gpio/stm32f4_gpio.c **** // 读取输入数据位
 246:/mnt/c/Users/31740/Desktop/newcore/drivers/gpio/stm32f4_gpio.c **** static uint8_t GPIO_ReadInputDataBit(GPIO_TypeDef *GPIOx, uint16_t GPIO_Pin) {
 330              		.loc 1 246 78 is_stmt 1 view -0
 331              		.cfi_startproc
 332              		@ args = 0, pretend = 0, frame = 0
 333              		@ frame_needed = 0, uses_anonymous_args = 0
 334              		@ link register save eliminated.
 247:/mnt/c/Users/31740/Desktop/newcore/drivers/gpio/stm32f4_gpio.c ****     return ((GPIOx->IDR & GPIO_Pin) != 0) ? 1 : 0;
 335              		.loc 1 247 5 view .LVU103
 336              		.loc 1 247 19 is_stmt 0 view .LVU104
 337 0000 0369     		ldr	r3, [r0, #16]
 338              		.loc 1 247 47 view .LVU105
 339 0002 1942     		tst	r1, r3
 248:/mnt/c/Users/31740/Desktop/newcore/drivers/gpio/stm32f4_gpio.c **** }
 340              		.loc 1 248 1 view .LVU106
 341 0004 14BF     		ite	ne
 342 0006 0120     		movne	r0, #1
 343              	.LVL25:
 344              		.loc 1 248 1 view .LVU107
 345 0008 0020     		moveq	r0, #0
 346 000a 7047     		bx	lr
 347              		.cfi_endproc
ARM GAS  /tmp/ccaQsqPk.s 			page 12


 348              	.LFE1041:
 350              		.section	.text.RCC_AHB1PeriphClockCmd,"ax",%progbits
 351              		.align	1
 352              		.syntax unified
 353              		.thumb
 354              		.thumb_func
 356              	RCC_AHB1PeriphClockCmd:
 357              	.LVL26:
 358              	.LFB1042:
 249:/mnt/c/Users/31740/Desktop/newcore/drivers/gpio/stm32f4_gpio.c **** 
 250:/mnt/c/Users/31740/Desktop/newcore/drivers/gpio/stm32f4_gpio.c **** // 使能GPIO时钟
 251:/mnt/c/Users/31740/Desktop/newcore/drivers/gpio/stm32f4_gpio.c **** static void RCC_AHB1PeriphClockCmd(uint32_t RCC_AHB1Periph, uint8_t NewState) {
 359              		.loc 1 251 79 is_stmt 1 view -0
 360              		.cfi_startproc
 361              		@ args = 0, pretend = 0, frame = 0
 362              		@ frame_needed = 0, uses_anonymous_args = 0
 363              		@ link register save eliminated.
 252:/mnt/c/Users/31740/Desktop/newcore/drivers/gpio/stm32f4_gpio.c ****     if(NewState!= DISABLE) {
 364              		.loc 1 252 5 view .LVU109
 365              		.loc 1 252 7 is_stmt 0 view .LVU110
 366 0000 31B1     		cbz	r1, .L18
 253:/mnt/c/Users/31740/Desktop/newcore/drivers/gpio/stm32f4_gpio.c ****         RCC_AHB1ENR |= RCC_AHB1Periph;
 367              		.loc 1 253 9 is_stmt 1 view .LVU111
 368 0002 074A     		ldr	r2, .L20
 369 0004 D2F83038 		ldr	r3, [r2, #2096]
 370              		.loc 1 253 21 is_stmt 0 view .LVU112
 371 0008 0343     		orrs	r3, r3, r0
 372 000a C2F83038 		str	r3, [r2, #2096]
 373 000e 7047     		bx	lr
 374              	.L18:
 254:/mnt/c/Users/31740/Desktop/newcore/drivers/gpio/stm32f4_gpio.c ****     } else {
 255:/mnt/c/Users/31740/Desktop/newcore/drivers/gpio/stm32f4_gpio.c ****         RCC_AHB1ENR &= ~RCC_AHB1Periph;
 375              		.loc 1 255 9 is_stmt 1 view .LVU113
 376 0010 034A     		ldr	r2, .L20
 377 0012 D2F83038 		ldr	r3, [r2, #2096]
 378              		.loc 1 255 21 is_stmt 0 view .LVU114
 379 0016 23EA0003 		bic	r3, r3, r0
 380 001a C2F83038 		str	r3, [r2, #2096]
 256:/mnt/c/Users/31740/Desktop/newcore/drivers/gpio/stm32f4_gpio.c ****     }
 257:/mnt/c/Users/31740/Desktop/newcore/drivers/gpio/stm32f4_gpio.c **** }
 381              		.loc 1 257 1 view .LVU115
 382 001e 7047     		bx	lr
 383              	.L21:
 384              		.align	2
 385              	.L20:
 386 0020 00300240 		.word	1073885184
 387              		.cfi_endproc
 388              	.LFE1042:
 390              		.section	.text.get_gpio_number,"ax",%progbits
 391              		.align	1
 392              		.syntax unified
 393              		.thumb
 394              		.thumb_func
 396              	get_gpio_number:
 397              	.LVL27:
 398              	.LFB1043:
 258:/mnt/c/Users/31740/Desktop/newcore/drivers/gpio/stm32f4_gpio.c **** 
ARM GAS  /tmp/ccaQsqPk.s 			page 13


 259:/mnt/c/Users/31740/Desktop/newcore/drivers/gpio/stm32f4_gpio.c **** // 获取GPIO编号
 260:/mnt/c/Users/31740/Desktop/newcore/drivers/gpio/stm32f4_gpio.c **** static uint16_t gpio_pins[16] = {
 261:/mnt/c/Users/31740/Desktop/newcore/drivers/gpio/stm32f4_gpio.c ****     GPIO_Pin_0, GPIO_Pin_1, GPIO_Pin_2, GPIO_Pin_3,
 262:/mnt/c/Users/31740/Desktop/newcore/drivers/gpio/stm32f4_gpio.c ****     GPIO_Pin_4, GPIO_Pin_5, GPIO_Pin_6, GPIO_Pin_7,
 263:/mnt/c/Users/31740/Desktop/newcore/drivers/gpio/stm32f4_gpio.c ****     GPIO_Pin_8, GPIO_Pin_9, GPIO_Pin_10, GPIO_Pin_11,
 264:/mnt/c/Users/31740/Desktop/newcore/drivers/gpio/stm32f4_gpio.c ****     GPIO_Pin_12, GPIO_Pin_13, GPIO_Pin_14, GPIO_Pin_15
 265:/mnt/c/Users/31740/Desktop/newcore/drivers/gpio/stm32f4_gpio.c **** };
 266:/mnt/c/Users/31740/Desktop/newcore/drivers/gpio/stm32f4_gpio.c **** 
 267:/mnt/c/Users/31740/Desktop/newcore/drivers/gpio/stm32f4_gpio.c **** static uint16_t get_gpio_number(uint16_t pin) {
 399              		.loc 1 267 47 is_stmt 1 view -0
 400              		.cfi_startproc
 401              		@ args = 0, pretend = 0, frame = 0
 402              		@ frame_needed = 0, uses_anonymous_args = 0
 403              		@ link register save eliminated.
 268:/mnt/c/Users/31740/Desktop/newcore/drivers/gpio/stm32f4_gpio.c ****     int i = pin % 16;
 404              		.loc 1 268 5 view .LVU117
 405              		.loc 1 268 9 is_stmt 0 view .LVU118
 406 0000 00F00F00 		and	r0, r0, #15
 407              	.LVL28:
 269:/mnt/c/Users/31740/Desktop/newcore/drivers/gpio/stm32f4_gpio.c ****     return gpio_pins[i];
 408              		.loc 1 269 5 is_stmt 1 view .LVU119
 270:/mnt/c/Users/31740/Desktop/newcore/drivers/gpio/stm32f4_gpio.c **** }
 409              		.loc 1 270 1 is_stmt 0 view .LVU120
 410 0004 014B     		ldr	r3, .L23
 411 0006 33F81000 		ldrh	r0, [r3, r0, lsl #1]
 412              	.LVL29:
 413              		.loc 1 270 1 view .LVU121
 414 000a 7047     		bx	lr
 415              	.L24:
 416              		.align	2
 417              	.L23:
 418 000c 00000000 		.word	gpio_pins
 419              		.cfi_endproc
 420              	.LFE1043:
 422              		.section	.text.get_gpio_type,"ax",%progbits
 423              		.align	1
 424              		.syntax unified
 425              		.thumb
 426              		.thumb_func
 428              	get_gpio_type:
 429              	.LVL30:
 430              	.LFB1044:
 271:/mnt/c/Users/31740/Desktop/newcore/drivers/gpio/stm32f4_gpio.c **** 
 272:/mnt/c/Users/31740/Desktop/newcore/drivers/gpio/stm32f4_gpio.c **** // 获取GPIO类型
 273:/mnt/c/Users/31740/Desktop/newcore/drivers/gpio/stm32f4_gpio.c **** static GPIO_TypeDef* gpio_Types[11] = {
 274:/mnt/c/Users/31740/Desktop/newcore/drivers/gpio/stm32f4_gpio.c ****     GPIOA, GPIOB, GPIOC, GPIOD,
 275:/mnt/c/Users/31740/Desktop/newcore/drivers/gpio/stm32f4_gpio.c ****     GPIOE, GPIOF, GPIOG, GPIOH,
 276:/mnt/c/Users/31740/Desktop/newcore/drivers/gpio/stm32f4_gpio.c ****     GPIOI, GPIOJ, GPIOK
 277:/mnt/c/Users/31740/Desktop/newcore/drivers/gpio/stm32f4_gpio.c **** };
 278:/mnt/c/Users/31740/Desktop/newcore/drivers/gpio/stm32f4_gpio.c **** 
 279:/mnt/c/Users/31740/Desktop/newcore/drivers/gpio/stm32f4_gpio.c **** static GPIO_TypeDef *get_gpio_type(uint16_t pin) {
 431              		.loc 1 279 50 is_stmt 1 view -0
 432              		.cfi_startproc
 433              		@ args = 0, pretend = 0, frame = 0
 434              		@ frame_needed = 0, uses_anonymous_args = 0
 435              		@ link register save eliminated.
 280:/mnt/c/Users/31740/Desktop/newcore/drivers/gpio/stm32f4_gpio.c ****     int i = pin / 16;
ARM GAS  /tmp/ccaQsqPk.s 			page 14


 436              		.loc 1 280 5 view .LVU123
 437              		.loc 1 280 17 is_stmt 0 view .LVU124
 438 0000 0309     		lsrs	r3, r0, #4
 439              	.LVL31:
 281:/mnt/c/Users/31740/Desktop/newcore/drivers/gpio/stm32f4_gpio.c ****     if(i < 11) {
 440              		.loc 1 281 5 is_stmt 1 view .LVU125
 441              		.loc 1 281 7 is_stmt 0 view .LVU126
 442 0002 AF28     		cmp	r0, #175
 443 0004 03D8     		bhi	.L27
 282:/mnt/c/Users/31740/Desktop/newcore/drivers/gpio/stm32f4_gpio.c ****         return gpio_Types[i];
 444              		.loc 1 282 9 is_stmt 1 view .LVU127
 445              		.loc 1 282 26 is_stmt 0 view .LVU128
 446 0006 034A     		ldr	r2, .L28
 447 0008 52F82300 		ldr	r0, [r2, r3, lsl #2]
 448              	.LVL32:
 449              		.loc 1 282 26 view .LVU129
 450 000c 7047     		bx	lr
 451              	.LVL33:
 452              	.L27:
 283:/mnt/c/Users/31740/Desktop/newcore/drivers/gpio/stm32f4_gpio.c ****     }
 284:/mnt/c/Users/31740/Desktop/newcore/drivers/gpio/stm32f4_gpio.c ****     else return NULL;
 453              		.loc 1 284 17 view .LVU130
 454 000e 0020     		movs	r0, #0
 455              	.LVL34:
 285:/mnt/c/Users/31740/Desktop/newcore/drivers/gpio/stm32f4_gpio.c **** }
 456              		.loc 1 285 1 view .LVU131
 457 0010 7047     		bx	lr
 458              	.L29:
 459 0012 00BF     		.align	2
 460              	.L28:
 461 0014 00000000 		.word	gpio_Types
 462              		.cfi_endproc
 463              	.LFE1044:
 465              		.section	.text.Get_APB_RCC_Source,"ax",%progbits
 466              		.align	1
 467              		.syntax unified
 468              		.thumb
 469              		.thumb_func
 471              	Get_APB_RCC_Source:
 472              	.LVL35:
 473              	.LFB1045:
 286:/mnt/c/Users/31740/Desktop/newcore/drivers/gpio/stm32f4_gpio.c **** 
 287:/mnt/c/Users/31740/Desktop/newcore/drivers/gpio/stm32f4_gpio.c **** // 获取RCC时钟源
 288:/mnt/c/Users/31740/Desktop/newcore/drivers/gpio/stm32f4_gpio.c **** static uint32_t Get_APB_RCC_Source(GPIO_TypeDef *type) {
 474              		.loc 1 288 56 is_stmt 1 view -0
 475              		.cfi_startproc
 476              		@ args = 0, pretend = 0, frame = 0
 477              		@ frame_needed = 0, uses_anonymous_args = 0
 478              		@ link register save eliminated.
 289:/mnt/c/Users/31740/Desktop/newcore/drivers/gpio/stm32f4_gpio.c ****     if(type == GPIOA)      return RCC_AHB1Periph_GPIOA;
 479              		.loc 1 289 5 view .LVU133
 480              		.loc 1 289 7 is_stmt 0 view .LVU134
 481 0000 234B     		ldr	r3, .L43
 482 0002 9842     		cmp	r0, r3
 483 0004 2AD0     		beq	.L32
 290:/mnt/c/Users/31740/Desktop/newcore/drivers/gpio/stm32f4_gpio.c ****     else if(type == GPIOB) return RCC_AHB1Periph_GPIOB;
 484              		.loc 1 290 10 is_stmt 1 view .LVU135
ARM GAS  /tmp/ccaQsqPk.s 			page 15


 485              		.loc 1 290 12 is_stmt 0 view .LVU136
 486 0006 03F58063 		add	r3, r3, #1024
 487 000a 9842     		cmp	r0, r3
 488 000c 28D0     		beq	.L33
 291:/mnt/c/Users/31740/Desktop/newcore/drivers/gpio/stm32f4_gpio.c ****     else if(type == GPIOC) return RCC_AHB1Periph_GPIOC;
 489              		.loc 1 291 10 is_stmt 1 view .LVU137
 490              		.loc 1 291 12 is_stmt 0 view .LVU138
 491 000e 03F58063 		add	r3, r3, #1024
 492 0012 9842     		cmp	r0, r3
 493 0014 26D0     		beq	.L34
 292:/mnt/c/Users/31740/Desktop/newcore/drivers/gpio/stm32f4_gpio.c ****     else if(type == GPIOD) return RCC_AHB1Periph_GPIOD;
 494              		.loc 1 292 10 is_stmt 1 view .LVU139
 495              		.loc 1 292 12 is_stmt 0 view .LVU140
 496 0016 03F58063 		add	r3, r3, #1024
 497 001a 9842     		cmp	r0, r3
 498 001c 24D0     		beq	.L35
 293:/mnt/c/Users/31740/Desktop/newcore/drivers/gpio/stm32f4_gpio.c ****     else if(type == GPIOE) return RCC_AHB1Periph_GPIOE;
 499              		.loc 1 293 10 is_stmt 1 view .LVU141
 500              		.loc 1 293 12 is_stmt 0 view .LVU142
 501 001e 03F58063 		add	r3, r3, #1024
 502 0022 9842     		cmp	r0, r3
 503 0024 22D0     		beq	.L36
 294:/mnt/c/Users/31740/Desktop/newcore/drivers/gpio/stm32f4_gpio.c ****     else if(type == GPIOF) return RCC_AHB1Periph_GPIOF;
 504              		.loc 1 294 10 is_stmt 1 view .LVU143
 505              		.loc 1 294 12 is_stmt 0 view .LVU144
 506 0026 03F58063 		add	r3, r3, #1024
 507 002a 9842     		cmp	r0, r3
 508 002c 20D0     		beq	.L37
 295:/mnt/c/Users/31740/Desktop/newcore/drivers/gpio/stm32f4_gpio.c ****     else if(type == GPIOG) return RCC_AHB1Periph_GPIOG;
 509              		.loc 1 295 10 is_stmt 1 view .LVU145
 510              		.loc 1 295 12 is_stmt 0 view .LVU146
 511 002e 03F58063 		add	r3, r3, #1024
 512 0032 9842     		cmp	r0, r3
 513 0034 1ED0     		beq	.L38
 296:/mnt/c/Users/31740/Desktop/newcore/drivers/gpio/stm32f4_gpio.c ****     else if(type == GPIOH) return RCC_AHB1Periph_GPIOH;
 514              		.loc 1 296 10 is_stmt 1 view .LVU147
 515              		.loc 1 296 12 is_stmt 0 view .LVU148
 516 0036 03F58063 		add	r3, r3, #1024
 517 003a 9842     		cmp	r0, r3
 518 003c 1CD0     		beq	.L39
 297:/mnt/c/Users/31740/Desktop/newcore/drivers/gpio/stm32f4_gpio.c ****     else if(type == GPIOI) return RCC_AHB1Periph_GPIOI;
 519              		.loc 1 297 10 is_stmt 1 view .LVU149
 520              		.loc 1 297 12 is_stmt 0 view .LVU150
 521 003e 03F58063 		add	r3, r3, #1024
 522 0042 9842     		cmp	r0, r3
 523 0044 1AD0     		beq	.L40
 298:/mnt/c/Users/31740/Desktop/newcore/drivers/gpio/stm32f4_gpio.c ****     else if(type == GPIOJ) return RCC_AHB1Periph_GPIOJ;
 524              		.loc 1 298 10 is_stmt 1 view .LVU151
 525              		.loc 1 298 12 is_stmt 0 view .LVU152
 526 0046 03F58063 		add	r3, r3, #1024
 527 004a 9842     		cmp	r0, r3
 528 004c 19D0     		beq	.L41
 299:/mnt/c/Users/31740/Desktop/newcore/drivers/gpio/stm32f4_gpio.c ****     else if(type == GPIOK) return RCC_AHB1Periph_GPIOK;
 529              		.loc 1 299 10 is_stmt 1 view .LVU153
 530              		.loc 1 299 12 is_stmt 0 view .LVU154
 531 004e 03F58063 		add	r3, r3, #1024
 532 0052 9842     		cmp	r0, r3
ARM GAS  /tmp/ccaQsqPk.s 			page 16


 533 0054 18D0     		beq	.L42
 300:/mnt/c/Users/31740/Desktop/newcore/drivers/gpio/stm32f4_gpio.c ****     return 0xffffffff;
 534              		.loc 1 300 12 view .LVU155
 535 0056 4FF0FF30 		mov	r0, #-1
 536              	.LVL36:
 537              		.loc 1 300 12 view .LVU156
 538 005a 7047     		bx	lr
 539              	.LVL37:
 540              	.L32:
 289:/mnt/c/Users/31740/Desktop/newcore/drivers/gpio/stm32f4_gpio.c ****     else if(type == GPIOB) return RCC_AHB1Periph_GPIOB;
 541              		.loc 1 289 35 discriminator 1 view .LVU157
 542 005c 0120     		movs	r0, #1
 543              	.LVL38:
 289:/mnt/c/Users/31740/Desktop/newcore/drivers/gpio/stm32f4_gpio.c ****     else if(type == GPIOB) return RCC_AHB1Periph_GPIOB;
 544              		.loc 1 289 35 discriminator 1 view .LVU158
 545 005e 7047     		bx	lr
 546              	.LVL39:
 547              	.L33:
 290:/mnt/c/Users/31740/Desktop/newcore/drivers/gpio/stm32f4_gpio.c ****     else if(type == GPIOC) return RCC_AHB1Periph_GPIOC;
 548              		.loc 1 290 35 discriminator 1 view .LVU159
 549 0060 0220     		movs	r0, #2
 550              	.LVL40:
 290:/mnt/c/Users/31740/Desktop/newcore/drivers/gpio/stm32f4_gpio.c ****     else if(type == GPIOC) return RCC_AHB1Periph_GPIOC;
 551              		.loc 1 290 35 discriminator 1 view .LVU160
 552 0062 7047     		bx	lr
 553              	.LVL41:
 554              	.L34:
 291:/mnt/c/Users/31740/Desktop/newcore/drivers/gpio/stm32f4_gpio.c ****     else if(type == GPIOD) return RCC_AHB1Periph_GPIOD;
 555              		.loc 1 291 35 discriminator 1 view .LVU161
 556 0064 0420     		movs	r0, #4
 557              	.LVL42:
 291:/mnt/c/Users/31740/Desktop/newcore/drivers/gpio/stm32f4_gpio.c ****     else if(type == GPIOD) return RCC_AHB1Periph_GPIOD;
 558              		.loc 1 291 35 discriminator 1 view .LVU162
 559 0066 7047     		bx	lr
 560              	.LVL43:
 561              	.L35:
 292:/mnt/c/Users/31740/Desktop/newcore/drivers/gpio/stm32f4_gpio.c ****     else if(type == GPIOE) return RCC_AHB1Periph_GPIOE;
 562              		.loc 1 292 35 discriminator 1 view .LVU163
 563 0068 0820     		movs	r0, #8
 564              	.LVL44:
 292:/mnt/c/Users/31740/Desktop/newcore/drivers/gpio/stm32f4_gpio.c ****     else if(type == GPIOE) return RCC_AHB1Periph_GPIOE;
 565              		.loc 1 292 35 discriminator 1 view .LVU164
 566 006a 7047     		bx	lr
 567              	.LVL45:
 568              	.L36:
 293:/mnt/c/Users/31740/Desktop/newcore/drivers/gpio/stm32f4_gpio.c ****     else if(type == GPIOF) return RCC_AHB1Periph_GPIOF;
 569              		.loc 1 293 35 discriminator 1 view .LVU165
 570 006c 1020     		movs	r0, #16
 571              	.LVL46:
 293:/mnt/c/Users/31740/Desktop/newcore/drivers/gpio/stm32f4_gpio.c ****     else if(type == GPIOF) return RCC_AHB1Periph_GPIOF;
 572              		.loc 1 293 35 discriminator 1 view .LVU166
 573 006e 7047     		bx	lr
 574              	.LVL47:
 575              	.L37:
 294:/mnt/c/Users/31740/Desktop/newcore/drivers/gpio/stm32f4_gpio.c ****     else if(type == GPIOG) return RCC_AHB1Periph_GPIOG;
 576              		.loc 1 294 35 discriminator 1 view .LVU167
 577 0070 2020     		movs	r0, #32
ARM GAS  /tmp/ccaQsqPk.s 			page 17


 578              	.LVL48:
 294:/mnt/c/Users/31740/Desktop/newcore/drivers/gpio/stm32f4_gpio.c ****     else if(type == GPIOG) return RCC_AHB1Periph_GPIOG;
 579              		.loc 1 294 35 discriminator 1 view .LVU168
 580 0072 7047     		bx	lr
 581              	.LVL49:
 582              	.L38:
 295:/mnt/c/Users/31740/Desktop/newcore/drivers/gpio/stm32f4_gpio.c ****     else if(type == GPIOH) return RCC_AHB1Periph_GPIOH;
 583              		.loc 1 295 35 discriminator 1 view .LVU169
 584 0074 4020     		movs	r0, #64
 585              	.LVL50:
 295:/mnt/c/Users/31740/Desktop/newcore/drivers/gpio/stm32f4_gpio.c ****     else if(type == GPIOH) return RCC_AHB1Periph_GPIOH;
 586              		.loc 1 295 35 discriminator 1 view .LVU170
 587 0076 7047     		bx	lr
 588              	.LVL51:
 589              	.L39:
 296:/mnt/c/Users/31740/Desktop/newcore/drivers/gpio/stm32f4_gpio.c ****     else if(type == GPIOI) return RCC_AHB1Periph_GPIOI;
 590              		.loc 1 296 35 discriminator 1 view .LVU171
 591 0078 8020     		movs	r0, #128
 592              	.LVL52:
 296:/mnt/c/Users/31740/Desktop/newcore/drivers/gpio/stm32f4_gpio.c ****     else if(type == GPIOI) return RCC_AHB1Periph_GPIOI;
 593              		.loc 1 296 35 discriminator 1 view .LVU172
 594 007a 7047     		bx	lr
 595              	.LVL53:
 596              	.L40:
 297:/mnt/c/Users/31740/Desktop/newcore/drivers/gpio/stm32f4_gpio.c ****     else if(type == GPIOJ) return RCC_AHB1Periph_GPIOJ;
 597              		.loc 1 297 35 discriminator 1 view .LVU173
 598 007c 4FF48070 		mov	r0, #256
 599              	.LVL54:
 297:/mnt/c/Users/31740/Desktop/newcore/drivers/gpio/stm32f4_gpio.c ****     else if(type == GPIOJ) return RCC_AHB1Periph_GPIOJ;
 600              		.loc 1 297 35 discriminator 1 view .LVU174
 601 0080 7047     		bx	lr
 602              	.LVL55:
 603              	.L41:
 298:/mnt/c/Users/31740/Desktop/newcore/drivers/gpio/stm32f4_gpio.c ****     else if(type == GPIOK) return RCC_AHB1Periph_GPIOK;
 604              		.loc 1 298 35 discriminator 1 view .LVU175
 605 0082 4FF40070 		mov	r0, #512
 606              	.LVL56:
 298:/mnt/c/Users/31740/Desktop/newcore/drivers/gpio/stm32f4_gpio.c ****     else if(type == GPIOK) return RCC_AHB1Periph_GPIOK;
 607              		.loc 1 298 35 discriminator 1 view .LVU176
 608 0086 7047     		bx	lr
 609              	.LVL57:
 610              	.L42:
 299:/mnt/c/Users/31740/Desktop/newcore/drivers/gpio/stm32f4_gpio.c ****     return 0xffffffff;
 611              		.loc 1 299 35 discriminator 1 view .LVU177
 612 0088 4FF48060 		mov	r0, #1024
 613              	.LVL58:
 301:/mnt/c/Users/31740/Desktop/newcore/drivers/gpio/stm32f4_gpio.c **** }
 614              		.loc 1 301 1 view .LVU178
 615 008c 7047     		bx	lr
 616              	.L44:
 617 008e 00BF     		.align	2
 618              	.L43:
 619 0090 00000240 		.word	1073872896
 620              		.cfi_endproc
 621              	.LFE1045:
 623              		.section	.text.GPIO_GetAF,"ax",%progbits
 624              		.align	1
ARM GAS  /tmp/ccaQsqPk.s 			page 18


 625              		.syntax unified
 626              		.thumb
 627              		.thumb_func
 629              	GPIO_GetAF:
 630              	.LVL59:
 631              	.LFB1046:
 302:/mnt/c/Users/31740/Desktop/newcore/drivers/gpio/stm32f4_gpio.c **** 
 303:/mnt/c/Users/31740/Desktop/newcore/drivers/gpio/stm32f4_gpio.c **** 
 304:/mnt/c/Users/31740/Desktop/newcore/drivers/gpio/stm32f4_gpio.c **** // 获取引脚当前复用功能
 305:/mnt/c/Users/31740/Desktop/newcore/drivers/gpio/stm32f4_gpio.c **** static uint8_t GPIO_GetAF(GPIO_TypeDef *GPIOx, uint16_t GPIO_Pin) {
 632              		.loc 1 305 67 is_stmt 1 view -0
 633              		.cfi_startproc
 634              		@ args = 0, pretend = 0, frame = 0
 635              		@ frame_needed = 0, uses_anonymous_args = 0
 636              		@ link register save eliminated.
 306:/mnt/c/Users/31740/Desktop/newcore/drivers/gpio/stm32f4_gpio.c ****     uint32_t pinpos = 0;
 637              		.loc 1 306 5 view .LVU180
 307:/mnt/c/Users/31740/Desktop/newcore/drivers/gpio/stm32f4_gpio.c ****     while((GPIO_Pin >> pinpos) != 1) { pinpos++; }
 638              		.loc 1 307 5 view .LVU181
 306:/mnt/c/Users/31740/Desktop/newcore/drivers/gpio/stm32f4_gpio.c ****     uint32_t pinpos = 0;
 639              		.loc 1 306 14 is_stmt 0 view .LVU182
 640 0000 0023     		movs	r3, #0
 641              		.loc 1 307 10 view .LVU183
 642 0002 00E0     		b	.L46
 643              	.LVL60:
 644              	.L47:
 645              		.loc 1 307 40 is_stmt 1 discriminator 2 view .LVU184
 646              		.loc 1 307 46 is_stmt 0 discriminator 2 view .LVU185
 647 0004 0133     		adds	r3, r3, #1
 648              	.LVL61:
 649              	.L46:
 650              		.loc 1 307 32 is_stmt 1 discriminator 1 view .LVU186
 651              		.loc 1 307 21 is_stmt 0 discriminator 1 view .LVU187
 652 0006 41FA03F2 		asr	r2, r1, r3
 653              		.loc 1 307 32 discriminator 1 view .LVU188
 654 000a 012A     		cmp	r2, #1
 655 000c FAD1     		bne	.L47
 308:/mnt/c/Users/31740/Desktop/newcore/drivers/gpio/stm32f4_gpio.c ****     
 309:/mnt/c/Users/31740/Desktop/newcore/drivers/gpio/stm32f4_gpio.c ****     if(pinpos < 8) {
 656              		.loc 1 309 5 is_stmt 1 view .LVU189
 657              		.loc 1 309 7 is_stmt 0 view .LVU190
 658 000e 072B     		cmp	r3, #7
 659 0010 05D8     		bhi	.L48
 310:/mnt/c/Users/31740/Desktop/newcore/drivers/gpio/stm32f4_gpio.c ****         return (GPIOx->AFR[0] >> (pinpos * 4)) & 0xF;
 660              		.loc 1 310 9 is_stmt 1 view .LVU191
 661              		.loc 1 310 27 is_stmt 0 view .LVU192
 662 0012 006A     		ldr	r0, [r0, #32]
 663              	.LVL62:
 664              		.loc 1 310 42 view .LVU193
 665 0014 9B00     		lsls	r3, r3, #2
 666              	.LVL63:
 667              		.loc 1 310 31 view .LVU194
 668 0016 D840     		lsrs	r0, r0, r3
 669              		.loc 1 310 48 view .LVU195
 670 0018 00F00F00 		and	r0, r0, #15
 671 001c 7047     		bx	lr
 672              	.LVL64:
ARM GAS  /tmp/ccaQsqPk.s 			page 19


 673              	.L48:
 311:/mnt/c/Users/31740/Desktop/newcore/drivers/gpio/stm32f4_gpio.c ****     } else {
 312:/mnt/c/Users/31740/Desktop/newcore/drivers/gpio/stm32f4_gpio.c ****         return (GPIOx->AFR[1] >> ((pinpos-8) * 4)) & 0xF;
 674              		.loc 1 312 9 is_stmt 1 view .LVU196
 675              		.loc 1 312 27 is_stmt 0 view .LVU197
 676 001e 406A     		ldr	r0, [r0, #36]
 677              	.LVL65:
 678              		.loc 1 312 42 view .LVU198
 679 0020 083B     		subs	r3, r3, #8
 680              	.LVL66:
 681              		.loc 1 312 46 view .LVU199
 682 0022 9B00     		lsls	r3, r3, #2
 683              	.LVL67:
 684              		.loc 1 312 31 view .LVU200
 685 0024 D840     		lsrs	r0, r0, r3
 686              		.loc 1 312 52 view .LVU201
 687 0026 00F00F00 		and	r0, r0, #15
 313:/mnt/c/Users/31740/Desktop/newcore/drivers/gpio/stm32f4_gpio.c ****     }
 314:/mnt/c/Users/31740/Desktop/newcore/drivers/gpio/stm32f4_gpio.c **** }
 688              		.loc 1 314 1 view .LVU202
 689 002a 7047     		bx	lr
 690              		.cfi_endproc
 691              	.LFE1046:
 693              		.section	.rodata.gpio_write.str1.4,"aMS",%progbits,1
 694              		.align	2
 695              	.LC0:
 696 0000 706C6561 		.ascii	"please use ioctl to set pin number first\012\015\000"
 696      73652075 
 696      73652069 
 696      6F63746C 
 696      20746F20 
 697 002b 00       		.align	2
 698              	.LC1:
 699 002c 6572726F 		.ascii	"error input\012\015\000"
 699      7220696E 
 699      7075740A 
 699      0D00
 700              		.section	.text.gpio_write,"ax",%progbits
 701              		.align	1
 702              		.syntax unified
 703              		.thumb
 704              		.thumb_func
 706              	gpio_write:
 707              	.LVL68:
 708              	.LFB1048:
 315:/mnt/c/Users/31740/Desktop/newcore/drivers/gpio/stm32f4_gpio.c **** 
 316:/mnt/c/Users/31740/Desktop/newcore/drivers/gpio/stm32f4_gpio.c **** 
 317:/mnt/c/Users/31740/Desktop/newcore/drivers/gpio/stm32f4_gpio.c **** 
 318:/mnt/c/Users/31740/Desktop/newcore/drivers/gpio/stm32f4_gpio.c **** // 文件操作函数
 319:/mnt/c/Users/31740/Desktop/newcore/drivers/gpio/stm32f4_gpio.c **** static int gpio_open(struct inode *inode, struct file *file) {
 320:/mnt/c/Users/31740/Desktop/newcore/drivers/gpio/stm32f4_gpio.c ****     struct gpio_device *device = kmalloc(sizeof(struct gpio_device), GFP_KERNEL);
 321:/mnt/c/Users/31740/Desktop/newcore/drivers/gpio/stm32f4_gpio.c ****     if(device == NULL) return -ENOMEM;
 322:/mnt/c/Users/31740/Desktop/newcore/drivers/gpio/stm32f4_gpio.c ****     device->gpio_number = 0xffff;
 323:/mnt/c/Users/31740/Desktop/newcore/drivers/gpio/stm32f4_gpio.c ****     device->gpio_type = NULL;
 324:/mnt/c/Users/31740/Desktop/newcore/drivers/gpio/stm32f4_gpio.c ****     file->private_data = device;
 325:/mnt/c/Users/31740/Desktop/newcore/drivers/gpio/stm32f4_gpio.c ****     pr_info("open gpios device\n\r");
 326:/mnt/c/Users/31740/Desktop/newcore/drivers/gpio/stm32f4_gpio.c ****     return 0;
ARM GAS  /tmp/ccaQsqPk.s 			page 20


 327:/mnt/c/Users/31740/Desktop/newcore/drivers/gpio/stm32f4_gpio.c **** }
 328:/mnt/c/Users/31740/Desktop/newcore/drivers/gpio/stm32f4_gpio.c **** 
 329:/mnt/c/Users/31740/Desktop/newcore/drivers/gpio/stm32f4_gpio.c **** static int gpio_write(struct file *file, const char __user *buf, size_t len, loff_t *offset) {
 709              		.loc 1 329 94 is_stmt 1 view -0
 710              		.cfi_startproc
 711              		@ args = 0, pretend = 0, frame = 0
 712              		@ frame_needed = 0, uses_anonymous_args = 0
 713              		.loc 1 329 94 is_stmt 0 view .LVU204
 714 0000 10B5     		push	{r4, lr}
 715              	.LCFI1:
 716              		.cfi_def_cfa_offset 8
 717              		.cfi_offset 4, -8
 718              		.cfi_offset 14, -4
 719 0002 1446     		mov	r4, r2
 330:/mnt/c/Users/31740/Desktop/newcore/drivers/gpio/stm32f4_gpio.c ****     char buf_local = ((char*)buf)[0];
 720              		.loc 1 330 5 is_stmt 1 view .LVU205
 721              		.loc 1 330 10 is_stmt 0 view .LVU206
 722 0004 0A78     		ldrb	r2, [r1]	@ zero_extendqisi2
 723              	.LVL69:
 331:/mnt/c/Users/31740/Desktop/newcore/drivers/gpio/stm32f4_gpio.c ****     struct gpio_device *device = file->private_data;
 724              		.loc 1 331 5 is_stmt 1 view .LVU207
 725              		.loc 1 331 25 is_stmt 0 view .LVU208
 726 0006 836A     		ldr	r3, [r0, #40]
 727              	.LVL70:
 332:/mnt/c/Users/31740/Desktop/newcore/drivers/gpio/stm32f4_gpio.c **** 
 333:/mnt/c/Users/31740/Desktop/newcore/drivers/gpio/stm32f4_gpio.c ****     if(device->gpio_number == 0xffff) {
 728              		.loc 1 333 5 is_stmt 1 view .LVU209
 729              		.loc 1 333 14 is_stmt 0 view .LVU210
 730 0008 1988     		ldrh	r1, [r3]
 731              	.LVL71:
 732              		.loc 1 333 7 view .LVU211
 733 000a 4FF6FF70 		movw	r0, #65535
 734              	.LVL72:
 735              		.loc 1 333 7 view .LVU212
 736 000e 8142     		cmp	r1, r0
 737 0010 08D0     		beq	.L57
 334:/mnt/c/Users/31740/Desktop/newcore/drivers/gpio/stm32f4_gpio.c ****         pr_info("please use ioctl to set pin number first\n\r");
 335:/mnt/c/Users/31740/Desktop/newcore/drivers/gpio/stm32f4_gpio.c ****         return -EINVAL;
 336:/mnt/c/Users/31740/Desktop/newcore/drivers/gpio/stm32f4_gpio.c ****     }
 337:/mnt/c/Users/31740/Desktop/newcore/drivers/gpio/stm32f4_gpio.c **** 
 338:/mnt/c/Users/31740/Desktop/newcore/drivers/gpio/stm32f4_gpio.c ****     if(buf_local == '0') {
 738              		.loc 1 338 5 is_stmt 1 view .LVU213
 739              		.loc 1 338 7 is_stmt 0 view .LVU214
 740 0012 302A     		cmp	r2, #48
 741 0014 0DD0     		beq	.L58
 339:/mnt/c/Users/31740/Desktop/newcore/drivers/gpio/stm32f4_gpio.c ****         GPIO_ResetBits(device->gpio_type, device->gpio_number);
 340:/mnt/c/Users/31740/Desktop/newcore/drivers/gpio/stm32f4_gpio.c ****     }
 341:/mnt/c/Users/31740/Desktop/newcore/drivers/gpio/stm32f4_gpio.c ****     else if(buf_local == '1') {
 742              		.loc 1 341 10 is_stmt 1 view .LVU215
 743              		.loc 1 341 12 is_stmt 0 view .LVU216
 744 0016 312A     		cmp	r2, #49
 745 0018 0FD1     		bne	.L55
 342:/mnt/c/Users/31740/Desktop/newcore/drivers/gpio/stm32f4_gpio.c ****         GPIO_SetBits(device->gpio_type, device->gpio_number);
 746              		.loc 1 342 9 is_stmt 1 view .LVU217
 747 001a 5868     		ldr	r0, [r3, #4]
 748 001c FFF7FEFF 		bl	GPIO_SetBits
 749              	.LVL73:
ARM GAS  /tmp/ccaQsqPk.s 			page 21


 750              	.L54:
 343:/mnt/c/Users/31740/Desktop/newcore/drivers/gpio/stm32f4_gpio.c ****     }
 344:/mnt/c/Users/31740/Desktop/newcore/drivers/gpio/stm32f4_gpio.c ****     else {
 345:/mnt/c/Users/31740/Desktop/newcore/drivers/gpio/stm32f4_gpio.c ****         pr_info("error input\n\r");
 346:/mnt/c/Users/31740/Desktop/newcore/drivers/gpio/stm32f4_gpio.c ****         return -EINVAL;
 347:/mnt/c/Users/31740/Desktop/newcore/drivers/gpio/stm32f4_gpio.c ****     }
 348:/mnt/c/Users/31740/Desktop/newcore/drivers/gpio/stm32f4_gpio.c **** 
 349:/mnt/c/Users/31740/Desktop/newcore/drivers/gpio/stm32f4_gpio.c ****     return len;
 751              		.loc 1 349 5 view .LVU218
 752              		.loc 1 349 12 is_stmt 0 view .LVU219
 753 0020 2046     		mov	r0, r4
 754              	.L50:
 350:/mnt/c/Users/31740/Desktop/newcore/drivers/gpio/stm32f4_gpio.c **** }
 755              		.loc 1 350 1 view .LVU220
 756 0022 10BD     		pop	{r4, pc}
 757              	.LVL74:
 758              	.L57:
 334:/mnt/c/Users/31740/Desktop/newcore/drivers/gpio/stm32f4_gpio.c ****         return -EINVAL;
 759              		.loc 1 334 9 is_stmt 1 view .LVU221
 760 0024 0849     		ldr	r1, .L59
 761 0026 0620     		movs	r0, #6
 762 0028 FFF7FEFF 		bl	printk
 763              	.LVL75:
 335:/mnt/c/Users/31740/Desktop/newcore/drivers/gpio/stm32f4_gpio.c ****     }
 764              		.loc 1 335 9 view .LVU222
 335:/mnt/c/Users/31740/Desktop/newcore/drivers/gpio/stm32f4_gpio.c ****     }
 765              		.loc 1 335 16 is_stmt 0 view .LVU223
 766 002c 6FF01500 		mvn	r0, #21
 767 0030 F7E7     		b	.L50
 768              	.LVL76:
 769              	.L58:
 339:/mnt/c/Users/31740/Desktop/newcore/drivers/gpio/stm32f4_gpio.c ****     }
 770              		.loc 1 339 9 is_stmt 1 view .LVU224
 771 0032 5868     		ldr	r0, [r3, #4]
 772 0034 FFF7FEFF 		bl	GPIO_ResetBits
 773              	.LVL77:
 339:/mnt/c/Users/31740/Desktop/newcore/drivers/gpio/stm32f4_gpio.c ****     }
 774              		.loc 1 339 9 is_stmt 0 view .LVU225
 775 0038 F2E7     		b	.L54
 776              	.LVL78:
 777              	.L55:
 345:/mnt/c/Users/31740/Desktop/newcore/drivers/gpio/stm32f4_gpio.c ****         return -EINVAL;
 778              		.loc 1 345 9 is_stmt 1 view .LVU226
 779 003a 0449     		ldr	r1, .L59+4
 780 003c 0620     		movs	r0, #6
 781 003e FFF7FEFF 		bl	printk
 782              	.LVL79:
 346:/mnt/c/Users/31740/Desktop/newcore/drivers/gpio/stm32f4_gpio.c ****     }
 783              		.loc 1 346 9 view .LVU227
 346:/mnt/c/Users/31740/Desktop/newcore/drivers/gpio/stm32f4_gpio.c ****     }
 784              		.loc 1 346 16 is_stmt 0 view .LVU228
 785 0042 6FF01500 		mvn	r0, #21
 786 0046 ECE7     		b	.L50
 787              	.L60:
 788              		.align	2
 789              	.L59:
 790 0048 00000000 		.word	.LC0
ARM GAS  /tmp/ccaQsqPk.s 			page 22


 791 004c 2C000000 		.word	.LC1
 792              		.cfi_endproc
 793              	.LFE1048:
 795              		.section	.text.gpio_release,"ax",%progbits
 796              		.align	1
 797              		.syntax unified
 798              		.thumb
 799              		.thumb_func
 801              	gpio_release:
 802              	.LVL80:
 803              	.LFB1050:
 351:/mnt/c/Users/31740/Desktop/newcore/drivers/gpio/stm32f4_gpio.c **** 
 352:/mnt/c/Users/31740/Desktop/newcore/drivers/gpio/stm32f4_gpio.c **** static int gpio_read(struct file *file, char __user *buf, size_t len, loff_t *offset) {
 353:/mnt/c/Users/31740/Desktop/newcore/drivers/gpio/stm32f4_gpio.c ****     struct gpio_device *device = file->private_data;
 354:/mnt/c/Users/31740/Desktop/newcore/drivers/gpio/stm32f4_gpio.c ****     if(device->gpio_number == 0xffff) {
 355:/mnt/c/Users/31740/Desktop/newcore/drivers/gpio/stm32f4_gpio.c ****         pr_info("please use ioctl to set pin number first\n\r");
 356:/mnt/c/Users/31740/Desktop/newcore/drivers/gpio/stm32f4_gpio.c ****         return -EINVAL;
 357:/mnt/c/Users/31740/Desktop/newcore/drivers/gpio/stm32f4_gpio.c ****     }
 358:/mnt/c/Users/31740/Desktop/newcore/drivers/gpio/stm32f4_gpio.c ****     int value = GPIO_ReadInputDataBit(device->gpio_type, device->gpio_number);
 359:/mnt/c/Users/31740/Desktop/newcore/drivers/gpio/stm32f4_gpio.c ****     if(value == 0) {
 360:/mnt/c/Users/31740/Desktop/newcore/drivers/gpio/stm32f4_gpio.c ****         copy_to_user(buf, "0", 1);
 361:/mnt/c/Users/31740/Desktop/newcore/drivers/gpio/stm32f4_gpio.c ****         pr_info("gpio input value is 0\n\r");
 362:/mnt/c/Users/31740/Desktop/newcore/drivers/gpio/stm32f4_gpio.c ****     }
 363:/mnt/c/Users/31740/Desktop/newcore/drivers/gpio/stm32f4_gpio.c ****     else {
 364:/mnt/c/Users/31740/Desktop/newcore/drivers/gpio/stm32f4_gpio.c ****         copy_to_user(buf, "1", 1);
 365:/mnt/c/Users/31740/Desktop/newcore/drivers/gpio/stm32f4_gpio.c ****         pr_info("gpio input value is 1\n\r");
 366:/mnt/c/Users/31740/Desktop/newcore/drivers/gpio/stm32f4_gpio.c ****     }
 367:/mnt/c/Users/31740/Desktop/newcore/drivers/gpio/stm32f4_gpio.c ****     return len;
 368:/mnt/c/Users/31740/Desktop/newcore/drivers/gpio/stm32f4_gpio.c **** }
 369:/mnt/c/Users/31740/Desktop/newcore/drivers/gpio/stm32f4_gpio.c **** 
 370:/mnt/c/Users/31740/Desktop/newcore/drivers/gpio/stm32f4_gpio.c **** static int gpio_release(struct inode *inode, struct file *file) {
 804              		.loc 1 370 65 is_stmt 1 view -0
 805              		.cfi_startproc
 806              		@ args = 0, pretend = 0, frame = 0
 807              		@ frame_needed = 0, uses_anonymous_args = 0
 808              		.loc 1 370 65 is_stmt 0 view .LVU230
 809 0000 08B5     		push	{r3, lr}
 810              	.LCFI2:
 811              		.cfi_def_cfa_offset 8
 812              		.cfi_offset 3, -8
 813              		.cfi_offset 14, -4
 371:/mnt/c/Users/31740/Desktop/newcore/drivers/gpio/stm32f4_gpio.c ****     struct gpio_device *device = file->private_data;
 814              		.loc 1 371 5 is_stmt 1 view .LVU231
 815              	.LVL81:
 372:/mnt/c/Users/31740/Desktop/newcore/drivers/gpio/stm32f4_gpio.c ****     kfree(device);
 816              		.loc 1 372 5 view .LVU232
 817              	.LBB16:
 818              	.LBI16:
 819              		.file 2 "/mnt/c/Users/31740/Desktop/newcore/include/linux/slab.h"
   1:/mnt/c/Users/31740/Desktop/newcore/include/linux/slab.h **** /* SPDX-License-Identifier: GPL-2.0 */
   2:/mnt/c/Users/31740/Desktop/newcore/include/linux/slab.h **** /*
   3:/mnt/c/Users/31740/Desktop/newcore/include/linux/slab.h ****  * Written by Mark Hemment, 1996 (markhe@nextd.demon.co.uk).
   4:/mnt/c/Users/31740/Desktop/newcore/include/linux/slab.h ****  *
   5:/mnt/c/Users/31740/Desktop/newcore/include/linux/slab.h ****  * (C) SGI 2006, Christoph Lameter
   6:/mnt/c/Users/31740/Desktop/newcore/include/linux/slab.h ****  * 	Cleaned up and restructured to ease the addition of alternative
   7:/mnt/c/Users/31740/Desktop/newcore/include/linux/slab.h ****  * 	implementations of SLAB allocators.
   8:/mnt/c/Users/31740/Desktop/newcore/include/linux/slab.h ****  * (C) Linux Foundation 2008-2013
ARM GAS  /tmp/ccaQsqPk.s 			page 23


   9:/mnt/c/Users/31740/Desktop/newcore/include/linux/slab.h ****  *      Unified interface for all slab allocators
  10:/mnt/c/Users/31740/Desktop/newcore/include/linux/slab.h ****  */
  11:/mnt/c/Users/31740/Desktop/newcore/include/linux/slab.h **** 
  12:/mnt/c/Users/31740/Desktop/newcore/include/linux/slab.h **** #ifndef _LINUX_SLAB_H
  13:/mnt/c/Users/31740/Desktop/newcore/include/linux/slab.h **** #define	_LINUX_SLAB_H
  14:/mnt/c/Users/31740/Desktop/newcore/include/linux/slab.h **** 
  15:/mnt/c/Users/31740/Desktop/newcore/include/linux/slab.h **** #include <linux/cache.h>
  16:/mnt/c/Users/31740/Desktop/newcore/include/linux/slab.h **** #include <linux/overflow.h>
  17:/mnt/c/Users/31740/Desktop/newcore/include/linux/slab.h **** #include <linux/types.h>
  18:/mnt/c/Users/31740/Desktop/newcore/include/linux/slab.h **** #include <linux/raid/pq.h>
  19:/mnt/c/Users/31740/Desktop/newcore/include/linux/slab.h **** #include <linux/gfp_types.h>
  20:/mnt/c/Users/31740/Desktop/newcore/include/linux/slab.h **** #include <linux/numa.h>
  21:/mnt/c/Users/31740/Desktop/newcore/include/linux/slab.h **** #include <linux/reciprocal_div.h>
  22:/mnt/c/Users/31740/Desktop/newcore/include/linux/slab.h **** #include <linux/spinlock.h>
  23:/mnt/c/Users/31740/Desktop/newcore/include/linux/slab.h **** 
  24:/mnt/c/Users/31740/Desktop/newcore/include/linux/slab.h **** enum _slab_flag_bits {
  25:/mnt/c/Users/31740/Desktop/newcore/include/linux/slab.h **** 	_SLAB_CONSISTENCY_CHECKS,
  26:/mnt/c/Users/31740/Desktop/newcore/include/linux/slab.h **** 	_SLAB_RED_ZONE,
  27:/mnt/c/Users/31740/Desktop/newcore/include/linux/slab.h **** 	_SLAB_POISON,
  28:/mnt/c/Users/31740/Desktop/newcore/include/linux/slab.h **** 	_SLAB_KMALLOC,
  29:/mnt/c/Users/31740/Desktop/newcore/include/linux/slab.h **** 	_SLAB_HWCACHE_ALIGN,
  30:/mnt/c/Users/31740/Desktop/newcore/include/linux/slab.h **** 	_SLAB_CACHE_DMA,
  31:/mnt/c/Users/31740/Desktop/newcore/include/linux/slab.h **** 	_SLAB_CACHE_DMA32,
  32:/mnt/c/Users/31740/Desktop/newcore/include/linux/slab.h **** 	_SLAB_STORE_USER,
  33:/mnt/c/Users/31740/Desktop/newcore/include/linux/slab.h **** 	_SLAB_PANIC,
  34:/mnt/c/Users/31740/Desktop/newcore/include/linux/slab.h **** 	_SLAB_TYPESAFE_BY_RCU,
  35:/mnt/c/Users/31740/Desktop/newcore/include/linux/slab.h **** 	_SLAB_TRACE,
  36:/mnt/c/Users/31740/Desktop/newcore/include/linux/slab.h **** #ifdef CONFIG_DEBUG_OBJECTS
  37:/mnt/c/Users/31740/Desktop/newcore/include/linux/slab.h **** 	_SLAB_DEBUG_OBJECTS,
  38:/mnt/c/Users/31740/Desktop/newcore/include/linux/slab.h **** #endif
  39:/mnt/c/Users/31740/Desktop/newcore/include/linux/slab.h **** 	_SLAB_NOLEAKTRACE,
  40:/mnt/c/Users/31740/Desktop/newcore/include/linux/slab.h **** 	_SLAB_NO_MERGE,
  41:/mnt/c/Users/31740/Desktop/newcore/include/linux/slab.h **** #ifdef CONFIG_FAILSLAB
  42:/mnt/c/Users/31740/Desktop/newcore/include/linux/slab.h **** 	_SLAB_FAILSLAB,
  43:/mnt/c/Users/31740/Desktop/newcore/include/linux/slab.h **** #endif
  44:/mnt/c/Users/31740/Desktop/newcore/include/linux/slab.h **** #ifdef CONFIG_MEMCG
  45:/mnt/c/Users/31740/Desktop/newcore/include/linux/slab.h **** 	_SLAB_ACCOUNT,
  46:/mnt/c/Users/31740/Desktop/newcore/include/linux/slab.h **** #endif
  47:/mnt/c/Users/31740/Desktop/newcore/include/linux/slab.h **** #ifdef CONFIG_KASAN_GENERIC
  48:/mnt/c/Users/31740/Desktop/newcore/include/linux/slab.h **** 	_SLAB_KASAN,
  49:/mnt/c/Users/31740/Desktop/newcore/include/linux/slab.h **** #endif
  50:/mnt/c/Users/31740/Desktop/newcore/include/linux/slab.h **** 	_SLAB_NO_USER_FLAGS,
  51:/mnt/c/Users/31740/Desktop/newcore/include/linux/slab.h **** #ifdef CONFIG_KFENCE
  52:/mnt/c/Users/31740/Desktop/newcore/include/linux/slab.h **** 	_SLAB_SKIP_KFENCE,
  53:/mnt/c/Users/31740/Desktop/newcore/include/linux/slab.h **** #endif
  54:/mnt/c/Users/31740/Desktop/newcore/include/linux/slab.h **** #ifndef CONFIG_SLUB_TINY
  55:/mnt/c/Users/31740/Desktop/newcore/include/linux/slab.h **** 	_SLAB_RECLAIM_ACCOUNT,
  56:/mnt/c/Users/31740/Desktop/newcore/include/linux/slab.h **** #endif
  57:/mnt/c/Users/31740/Desktop/newcore/include/linux/slab.h **** 	_SLAB_OBJECT_POISON,
  58:/mnt/c/Users/31740/Desktop/newcore/include/linux/slab.h **** 	_SLAB_CMPXCHG_DOUBLE,
  59:/mnt/c/Users/31740/Desktop/newcore/include/linux/slab.h **** #ifdef CONFIG_SLAB_OBJ_EXT
  60:/mnt/c/Users/31740/Desktop/newcore/include/linux/slab.h **** 	_SLAB_NO_OBJ_EXT,
  61:/mnt/c/Users/31740/Desktop/newcore/include/linux/slab.h **** #endif
  62:/mnt/c/Users/31740/Desktop/newcore/include/linux/slab.h **** 	_SLAB_FLAGS_LAST_BIT
  63:/mnt/c/Users/31740/Desktop/newcore/include/linux/slab.h **** };
  64:/mnt/c/Users/31740/Desktop/newcore/include/linux/slab.h **** 
  65:/mnt/c/Users/31740/Desktop/newcore/include/linux/slab.h **** 
ARM GAS  /tmp/ccaQsqPk.s 			page 24


  66:/mnt/c/Users/31740/Desktop/newcore/include/linux/slab.h **** 
  67:/mnt/c/Users/31740/Desktop/newcore/include/linux/slab.h **** #define __SLAB_FLAG_BIT(nr)	((slab_flags_t __force)(1U << (nr)))
  68:/mnt/c/Users/31740/Desktop/newcore/include/linux/slab.h **** #define __SLAB_FLAG_UNUSED	((slab_flags_t __force)(0U))
  69:/mnt/c/Users/31740/Desktop/newcore/include/linux/slab.h **** 
  70:/mnt/c/Users/31740/Desktop/newcore/include/linux/slab.h **** /*
  71:/mnt/c/Users/31740/Desktop/newcore/include/linux/slab.h ****  * Flags to pass to kmem_cache_create().
  72:/mnt/c/Users/31740/Desktop/newcore/include/linux/slab.h ****  * The ones marked DEBUG need CONFIG_SLUB_DEBUG enabled, otherwise are no-op
  73:/mnt/c/Users/31740/Desktop/newcore/include/linux/slab.h ****  */
  74:/mnt/c/Users/31740/Desktop/newcore/include/linux/slab.h **** /* DEBUG: Perform (expensive) checks on alloc/free */
  75:/mnt/c/Users/31740/Desktop/newcore/include/linux/slab.h **** #define SLAB_CONSISTENCY_CHECKS	__SLAB_FLAG_BIT(_SLAB_CONSISTENCY_CHECKS)
  76:/mnt/c/Users/31740/Desktop/newcore/include/linux/slab.h **** /* DEBUG: Red zone objs in a cache */
  77:/mnt/c/Users/31740/Desktop/newcore/include/linux/slab.h **** #define SLAB_RED_ZONE		__SLAB_FLAG_BIT(_SLAB_RED_ZONE)
  78:/mnt/c/Users/31740/Desktop/newcore/include/linux/slab.h **** /* DEBUG: Poison objects */
  79:/mnt/c/Users/31740/Desktop/newcore/include/linux/slab.h **** #define SLAB_POISON		__SLAB_FLAG_BIT(_SLAB_POISON)
  80:/mnt/c/Users/31740/Desktop/newcore/include/linux/slab.h **** /* Indicate a kmalloc slab */
  81:/mnt/c/Users/31740/Desktop/newcore/include/linux/slab.h **** #define SLAB_KMALLOC		__SLAB_FLAG_BIT(_SLAB_KMALLOC)
  82:/mnt/c/Users/31740/Desktop/newcore/include/linux/slab.h **** /**
  83:/mnt/c/Users/31740/Desktop/newcore/include/linux/slab.h ****  * define SLAB_HWCACHE_ALIGN - Align objects on cache line boundaries.
  84:/mnt/c/Users/31740/Desktop/newcore/include/linux/slab.h ****  *
  85:/mnt/c/Users/31740/Desktop/newcore/include/linux/slab.h ****  * Sufficiently large objects are aligned on cache line boundary. For object
  86:/mnt/c/Users/31740/Desktop/newcore/include/linux/slab.h ****  * size smaller than a half of cache line size, the alignment is on the half of
  87:/mnt/c/Users/31740/Desktop/newcore/include/linux/slab.h ****  * cache line size. In general, if object size is smaller than 1/2^n of cache
  88:/mnt/c/Users/31740/Desktop/newcore/include/linux/slab.h ****  * line size, the alignment is adjusted to 1/2^n.
  89:/mnt/c/Users/31740/Desktop/newcore/include/linux/slab.h ****  *
  90:/mnt/c/Users/31740/Desktop/newcore/include/linux/slab.h ****  * If explicit alignment is also requested by the respective
  91:/mnt/c/Users/31740/Desktop/newcore/include/linux/slab.h ****  * &struct kmem_cache_args field, the greater of both is alignments is applied.
  92:/mnt/c/Users/31740/Desktop/newcore/include/linux/slab.h ****  */
  93:/mnt/c/Users/31740/Desktop/newcore/include/linux/slab.h **** #define SLAB_HWCACHE_ALIGN	__SLAB_FLAG_BIT(_SLAB_HWCACHE_ALIGN)
  94:/mnt/c/Users/31740/Desktop/newcore/include/linux/slab.h **** /* Use GFP_DMA memory */
  95:/mnt/c/Users/31740/Desktop/newcore/include/linux/slab.h **** #define SLAB_CACHE_DMA		__SLAB_FLAG_BIT(_SLAB_CACHE_DMA)
  96:/mnt/c/Users/31740/Desktop/newcore/include/linux/slab.h **** /* Use GFP_DMA32 memory */
  97:/mnt/c/Users/31740/Desktop/newcore/include/linux/slab.h **** #define SLAB_CACHE_DMA32	__SLAB_FLAG_BIT(_SLAB_CACHE_DMA32)
  98:/mnt/c/Users/31740/Desktop/newcore/include/linux/slab.h **** /* DEBUG: Store the last owner for bug hunting */
  99:/mnt/c/Users/31740/Desktop/newcore/include/linux/slab.h **** #define SLAB_STORE_USER		__SLAB_FLAG_BIT(_SLAB_STORE_USER)
 100:/mnt/c/Users/31740/Desktop/newcore/include/linux/slab.h **** /* Panic if kmem_cache_create() fails */
 101:/mnt/c/Users/31740/Desktop/newcore/include/linux/slab.h **** #define SLAB_PANIC		__SLAB_FLAG_BIT(_SLAB_PANIC)
 102:/mnt/c/Users/31740/Desktop/newcore/include/linux/slab.h **** /**
 103:/mnt/c/Users/31740/Desktop/newcore/include/linux/slab.h ****  * define SLAB_TYPESAFE_BY_RCU - **WARNING** READ THIS!
 104:/mnt/c/Users/31740/Desktop/newcore/include/linux/slab.h ****  *
 105:/mnt/c/Users/31740/Desktop/newcore/include/linux/slab.h ****  * This delays freeing the SLAB page by a grace period, it does _NOT_
 106:/mnt/c/Users/31740/Desktop/newcore/include/linux/slab.h ****  * delay object freeing. This means that if you do kmem_cache_free()
 107:/mnt/c/Users/31740/Desktop/newcore/include/linux/slab.h ****  * that memory location is free to be reused at any time. Thus it may
 108:/mnt/c/Users/31740/Desktop/newcore/include/linux/slab.h ****  * be possible to see another object there in the same RCU grace period.
 109:/mnt/c/Users/31740/Desktop/newcore/include/linux/slab.h ****  *
 110:/mnt/c/Users/31740/Desktop/newcore/include/linux/slab.h ****  * This feature only ensures the memory location backing the object
 111:/mnt/c/Users/31740/Desktop/newcore/include/linux/slab.h ****  * stays valid, the trick to using this is relying on an independent
 112:/mnt/c/Users/31740/Desktop/newcore/include/linux/slab.h ****  * object validation pass. Something like:
 113:/mnt/c/Users/31740/Desktop/newcore/include/linux/slab.h ****  *
 114:/mnt/c/Users/31740/Desktop/newcore/include/linux/slab.h ****  * ::
 115:/mnt/c/Users/31740/Desktop/newcore/include/linux/slab.h ****  *
 116:/mnt/c/Users/31740/Desktop/newcore/include/linux/slab.h ****  *  begin:
 117:/mnt/c/Users/31740/Desktop/newcore/include/linux/slab.h ****  *   rcu_read_lock();
 118:/mnt/c/Users/31740/Desktop/newcore/include/linux/slab.h ****  *   obj = lockless_lookup(key);
 119:/mnt/c/Users/31740/Desktop/newcore/include/linux/slab.h ****  *   if (obj) {
 120:/mnt/c/Users/31740/Desktop/newcore/include/linux/slab.h ****  *     if (!try_get_ref(obj)) // might fail for free objects
 121:/mnt/c/Users/31740/Desktop/newcore/include/linux/slab.h ****  *       rcu_read_unlock();
 122:/mnt/c/Users/31740/Desktop/newcore/include/linux/slab.h ****  *       goto begin;
ARM GAS  /tmp/ccaQsqPk.s 			page 25


 123:/mnt/c/Users/31740/Desktop/newcore/include/linux/slab.h ****  *
 124:/mnt/c/Users/31740/Desktop/newcore/include/linux/slab.h ****  *     if (obj->key != key) { // not the object we expected
 125:/mnt/c/Users/31740/Desktop/newcore/include/linux/slab.h ****  *       put_ref(obj);
 126:/mnt/c/Users/31740/Desktop/newcore/include/linux/slab.h ****  *       rcu_read_unlock();
 127:/mnt/c/Users/31740/Desktop/newcore/include/linux/slab.h ****  *       goto begin;
 128:/mnt/c/Users/31740/Desktop/newcore/include/linux/slab.h ****  *     }
 129:/mnt/c/Users/31740/Desktop/newcore/include/linux/slab.h ****  *   }
 130:/mnt/c/Users/31740/Desktop/newcore/include/linux/slab.h ****  *  rcu_read_unlock();
 131:/mnt/c/Users/31740/Desktop/newcore/include/linux/slab.h ****  *
 132:/mnt/c/Users/31740/Desktop/newcore/include/linux/slab.h ****  * This is useful if we need to approach a kernel structure obliquely,
 133:/mnt/c/Users/31740/Desktop/newcore/include/linux/slab.h ****  * from its address obtained without the usual locking. We can lock
 134:/mnt/c/Users/31740/Desktop/newcore/include/linux/slab.h ****  * the structure to stabilize it and check it's still at the given address,
 135:/mnt/c/Users/31740/Desktop/newcore/include/linux/slab.h ****  * only if we can be sure that the memory has not been meanwhile reused
 136:/mnt/c/Users/31740/Desktop/newcore/include/linux/slab.h ****  * for some other kind of object (which our subsystem's lock might corrupt).
 137:/mnt/c/Users/31740/Desktop/newcore/include/linux/slab.h ****  *
 138:/mnt/c/Users/31740/Desktop/newcore/include/linux/slab.h ****  * rcu_read_lock before reading the address, then rcu_read_unlock after
 139:/mnt/c/Users/31740/Desktop/newcore/include/linux/slab.h ****  * taking the spinlock within the structure expected at that address.
 140:/mnt/c/Users/31740/Desktop/newcore/include/linux/slab.h ****  *
 141:/mnt/c/Users/31740/Desktop/newcore/include/linux/slab.h ****  * Note that it is not possible to acquire a lock within a structure
 142:/mnt/c/Users/31740/Desktop/newcore/include/linux/slab.h ****  * allocated with SLAB_TYPESAFE_BY_RCU without first acquiring a reference
 143:/mnt/c/Users/31740/Desktop/newcore/include/linux/slab.h ****  * as described above.  The reason is that SLAB_TYPESAFE_BY_RCU pages
 144:/mnt/c/Users/31740/Desktop/newcore/include/linux/slab.h ****  * are not zeroed before being given to the slab, which means that any
 145:/mnt/c/Users/31740/Desktop/newcore/include/linux/slab.h ****  * locks must be initialized after each and every kmem_struct_alloc().
 146:/mnt/c/Users/31740/Desktop/newcore/include/linux/slab.h ****  * Alternatively, make the ctor passed to kmem_cache_create() initialize
 147:/mnt/c/Users/31740/Desktop/newcore/include/linux/slab.h ****  * the locks at page-allocation time, as is done in __i915_request_ctor(),
 148:/mnt/c/Users/31740/Desktop/newcore/include/linux/slab.h ****  * sighand_ctor(), and anon_vma_ctor().  Such a ctor permits readers
 149:/mnt/c/Users/31740/Desktop/newcore/include/linux/slab.h ****  * to safely acquire those ctor-initialized locks under rcu_read_lock()
 150:/mnt/c/Users/31740/Desktop/newcore/include/linux/slab.h ****  * protection.
 151:/mnt/c/Users/31740/Desktop/newcore/include/linux/slab.h ****  *
 152:/mnt/c/Users/31740/Desktop/newcore/include/linux/slab.h ****  * Note that SLAB_TYPESAFE_BY_RCU was originally named SLAB_DESTROY_BY_RCU.
 153:/mnt/c/Users/31740/Desktop/newcore/include/linux/slab.h ****  */
 154:/mnt/c/Users/31740/Desktop/newcore/include/linux/slab.h **** #define SLAB_TYPESAFE_BY_RCU	__SLAB_FLAG_BIT(_SLAB_TYPESAFE_BY_RCU)
 155:/mnt/c/Users/31740/Desktop/newcore/include/linux/slab.h **** /* Trace allocations and frees */
 156:/mnt/c/Users/31740/Desktop/newcore/include/linux/slab.h **** #define SLAB_TRACE		__SLAB_FLAG_BIT(_SLAB_TRACE)
 157:/mnt/c/Users/31740/Desktop/newcore/include/linux/slab.h **** 
 158:/mnt/c/Users/31740/Desktop/newcore/include/linux/slab.h **** /* Flag to prevent checks on free */
 159:/mnt/c/Users/31740/Desktop/newcore/include/linux/slab.h **** #ifdef CONFIG_DEBUG_OBJECTS
 160:/mnt/c/Users/31740/Desktop/newcore/include/linux/slab.h **** # define SLAB_DEBUG_OBJECTS	__SLAB_FLAG_BIT(_SLAB_DEBUG_OBJECTS)
 161:/mnt/c/Users/31740/Desktop/newcore/include/linux/slab.h **** #else
 162:/mnt/c/Users/31740/Desktop/newcore/include/linux/slab.h **** # define SLAB_DEBUG_OBJECTS	__SLAB_FLAG_UNUSED
 163:/mnt/c/Users/31740/Desktop/newcore/include/linux/slab.h **** #endif
 164:/mnt/c/Users/31740/Desktop/newcore/include/linux/slab.h **** 
 165:/mnt/c/Users/31740/Desktop/newcore/include/linux/slab.h **** /* Avoid kmemleak tracing */
 166:/mnt/c/Users/31740/Desktop/newcore/include/linux/slab.h **** #define SLAB_NOLEAKTRACE	__SLAB_FLAG_BIT(_SLAB_NOLEAKTRACE)
 167:/mnt/c/Users/31740/Desktop/newcore/include/linux/slab.h **** 
 168:/mnt/c/Users/31740/Desktop/newcore/include/linux/slab.h **** /*
 169:/mnt/c/Users/31740/Desktop/newcore/include/linux/slab.h ****  * Prevent merging with compatible kmem caches. This flag should be used
 170:/mnt/c/Users/31740/Desktop/newcore/include/linux/slab.h ****  * cautiously. Valid use cases:
 171:/mnt/c/Users/31740/Desktop/newcore/include/linux/slab.h ****  *
 172:/mnt/c/Users/31740/Desktop/newcore/include/linux/slab.h ****  * - caches created for self-tests (e.g. kunit)
 173:/mnt/c/Users/31740/Desktop/newcore/include/linux/slab.h ****  * - general caches created and used by a subsystem, only when a
 174:/mnt/c/Users/31740/Desktop/newcore/include/linux/slab.h ****  *   (subsystem-specific) debug option is enabled
 175:/mnt/c/Users/31740/Desktop/newcore/include/linux/slab.h ****  * - performance critical caches, should be very rare and consulted with slab
 176:/mnt/c/Users/31740/Desktop/newcore/include/linux/slab.h ****  *   maintainers, and not used together with CONFIG_SLUB_TINY
 177:/mnt/c/Users/31740/Desktop/newcore/include/linux/slab.h ****  */
 178:/mnt/c/Users/31740/Desktop/newcore/include/linux/slab.h **** #define SLAB_NO_MERGE		__SLAB_FLAG_BIT(_SLAB_NO_MERGE)
 179:/mnt/c/Users/31740/Desktop/newcore/include/linux/slab.h **** 
ARM GAS  /tmp/ccaQsqPk.s 			page 26


 180:/mnt/c/Users/31740/Desktop/newcore/include/linux/slab.h **** /* Fault injection mark */
 181:/mnt/c/Users/31740/Desktop/newcore/include/linux/slab.h **** #ifdef CONFIG_FAILSLAB
 182:/mnt/c/Users/31740/Desktop/newcore/include/linux/slab.h **** # define SLAB_FAILSLAB		__SLAB_FLAG_BIT(_SLAB_FAILSLAB)
 183:/mnt/c/Users/31740/Desktop/newcore/include/linux/slab.h **** #else
 184:/mnt/c/Users/31740/Desktop/newcore/include/linux/slab.h **** # define SLAB_FAILSLAB		__SLAB_FLAG_UNUSED
 185:/mnt/c/Users/31740/Desktop/newcore/include/linux/slab.h **** #endif
 186:/mnt/c/Users/31740/Desktop/newcore/include/linux/slab.h **** /**
 187:/mnt/c/Users/31740/Desktop/newcore/include/linux/slab.h ****  * define SLAB_ACCOUNT - Account allocations to memcg.
 188:/mnt/c/Users/31740/Desktop/newcore/include/linux/slab.h ****  *
 189:/mnt/c/Users/31740/Desktop/newcore/include/linux/slab.h ****  * All object allocations from this cache will be memcg accounted, regardless of
 190:/mnt/c/Users/31740/Desktop/newcore/include/linux/slab.h ****  * __GFP_ACCOUNT being or not being passed to individual allocations.
 191:/mnt/c/Users/31740/Desktop/newcore/include/linux/slab.h ****  */
 192:/mnt/c/Users/31740/Desktop/newcore/include/linux/slab.h **** #ifdef CONFIG_MEMCG
 193:/mnt/c/Users/31740/Desktop/newcore/include/linux/slab.h **** # define SLAB_ACCOUNT		__SLAB_FLAG_BIT(_SLAB_ACCOUNT)
 194:/mnt/c/Users/31740/Desktop/newcore/include/linux/slab.h **** #else
 195:/mnt/c/Users/31740/Desktop/newcore/include/linux/slab.h **** # define SLAB_ACCOUNT		__SLAB_FLAG_UNUSED
 196:/mnt/c/Users/31740/Desktop/newcore/include/linux/slab.h **** #endif
 197:/mnt/c/Users/31740/Desktop/newcore/include/linux/slab.h **** 
 198:/mnt/c/Users/31740/Desktop/newcore/include/linux/slab.h **** #ifdef CONFIG_KASAN_GENERIC
 199:/mnt/c/Users/31740/Desktop/newcore/include/linux/slab.h **** #define SLAB_KASAN		__SLAB_FLAG_BIT(_SLAB_KASAN)
 200:/mnt/c/Users/31740/Desktop/newcore/include/linux/slab.h **** #else
 201:/mnt/c/Users/31740/Desktop/newcore/include/linux/slab.h **** #define SLAB_KASAN		__SLAB_FLAG_UNUSED
 202:/mnt/c/Users/31740/Desktop/newcore/include/linux/slab.h **** #endif
 203:/mnt/c/Users/31740/Desktop/newcore/include/linux/slab.h **** 
 204:/mnt/c/Users/31740/Desktop/newcore/include/linux/slab.h **** /*
 205:/mnt/c/Users/31740/Desktop/newcore/include/linux/slab.h ****  * Ignore user specified debugging flags.
 206:/mnt/c/Users/31740/Desktop/newcore/include/linux/slab.h ****  * Intended for caches created for self-tests so they have only flags
 207:/mnt/c/Users/31740/Desktop/newcore/include/linux/slab.h ****  * specified in the code and other flags are ignored.
 208:/mnt/c/Users/31740/Desktop/newcore/include/linux/slab.h ****  */
 209:/mnt/c/Users/31740/Desktop/newcore/include/linux/slab.h **** #define SLAB_NO_USER_FLAGS	__SLAB_FLAG_BIT(_SLAB_NO_USER_FLAGS)
 210:/mnt/c/Users/31740/Desktop/newcore/include/linux/slab.h **** 
 211:/mnt/c/Users/31740/Desktop/newcore/include/linux/slab.h **** #ifdef CONFIG_KFENCE
 212:/mnt/c/Users/31740/Desktop/newcore/include/linux/slab.h **** #define SLAB_SKIP_KFENCE	__SLAB_FLAG_BIT(_SLAB_SKIP_KFENCE)
 213:/mnt/c/Users/31740/Desktop/newcore/include/linux/slab.h **** #else
 214:/mnt/c/Users/31740/Desktop/newcore/include/linux/slab.h **** #define SLAB_SKIP_KFENCE	__SLAB_FLAG_UNUSED
 215:/mnt/c/Users/31740/Desktop/newcore/include/linux/slab.h **** #endif
 216:/mnt/c/Users/31740/Desktop/newcore/include/linux/slab.h **** 
 217:/mnt/c/Users/31740/Desktop/newcore/include/linux/slab.h **** /* The following flags affect the page allocator grouping pages by mobility */
 218:/mnt/c/Users/31740/Desktop/newcore/include/linux/slab.h **** /**
 219:/mnt/c/Users/31740/Desktop/newcore/include/linux/slab.h ****  * define SLAB_RECLAIM_ACCOUNT - Objects are reclaimable.
 220:/mnt/c/Users/31740/Desktop/newcore/include/linux/slab.h ****  *
 221:/mnt/c/Users/31740/Desktop/newcore/include/linux/slab.h ****  * Use this flag for caches that have an associated shrinker. As a result, slab
 222:/mnt/c/Users/31740/Desktop/newcore/include/linux/slab.h ****  * pages are allocated with __GFP_RECLAIMABLE, which affects grouping pages by
 223:/mnt/c/Users/31740/Desktop/newcore/include/linux/slab.h ****  * mobility, and are accounted in SReclaimable counter in /proc/meminfo
 224:/mnt/c/Users/31740/Desktop/newcore/include/linux/slab.h ****  */
 225:/mnt/c/Users/31740/Desktop/newcore/include/linux/slab.h **** #ifndef CONFIG_SLUB_TINY
 226:/mnt/c/Users/31740/Desktop/newcore/include/linux/slab.h **** #define SLAB_RECLAIM_ACCOUNT	__SLAB_FLAG_BIT(_SLAB_RECLAIM_ACCOUNT)
 227:/mnt/c/Users/31740/Desktop/newcore/include/linux/slab.h **** #else
 228:/mnt/c/Users/31740/Desktop/newcore/include/linux/slab.h **** #define SLAB_RECLAIM_ACCOUNT	__SLAB_FLAG_UNUSED
 229:/mnt/c/Users/31740/Desktop/newcore/include/linux/slab.h **** #endif
 230:/mnt/c/Users/31740/Desktop/newcore/include/linux/slab.h **** #define SLAB_TEMPORARY		SLAB_RECLAIM_ACCOUNT	/* Objects are short-lived */
 231:/mnt/c/Users/31740/Desktop/newcore/include/linux/slab.h **** 
 232:/mnt/c/Users/31740/Desktop/newcore/include/linux/slab.h **** /* Slab created using create_boot_cache */
 233:/mnt/c/Users/31740/Desktop/newcore/include/linux/slab.h **** #ifdef CONFIG_SLAB_OBJ_EXT
 234:/mnt/c/Users/31740/Desktop/newcore/include/linux/slab.h **** #define SLAB_NO_OBJ_EXT		__SLAB_FLAG_BIT(_SLAB_NO_OBJ_EXT)
 235:/mnt/c/Users/31740/Desktop/newcore/include/linux/slab.h **** #else
 236:/mnt/c/Users/31740/Desktop/newcore/include/linux/slab.h **** #define SLAB_NO_OBJ_EXT		__SLAB_FLAG_UNUSED
ARM GAS  /tmp/ccaQsqPk.s 			page 27


 237:/mnt/c/Users/31740/Desktop/newcore/include/linux/slab.h **** #endif
 238:/mnt/c/Users/31740/Desktop/newcore/include/linux/slab.h **** 
 239:/mnt/c/Users/31740/Desktop/newcore/include/linux/slab.h **** /*
 240:/mnt/c/Users/31740/Desktop/newcore/include/linux/slab.h ****  * freeptr_t represents a SLUB freelist pointer, which might be encoded
 241:/mnt/c/Users/31740/Desktop/newcore/include/linux/slab.h ****  * and not dereferenceable if CONFIG_SLAB_FREELIST_HARDENED is enabled.
 242:/mnt/c/Users/31740/Desktop/newcore/include/linux/slab.h ****  */
 243:/mnt/c/Users/31740/Desktop/newcore/include/linux/slab.h **** typedef struct { unsigned long v; } freeptr_t;
 244:/mnt/c/Users/31740/Desktop/newcore/include/linux/slab.h **** 
 245:/mnt/c/Users/31740/Desktop/newcore/include/linux/slab.h **** /*
 246:/mnt/c/Users/31740/Desktop/newcore/include/linux/slab.h ****  * ZERO_SIZE_PTR will be returned for zero sized kmalloc requests.
 247:/mnt/c/Users/31740/Desktop/newcore/include/linux/slab.h ****  *
 248:/mnt/c/Users/31740/Desktop/newcore/include/linux/slab.h ****  * Dereferencing ZERO_SIZE_PTR will lead to a distinct access fault.
 249:/mnt/c/Users/31740/Desktop/newcore/include/linux/slab.h ****  *
 250:/mnt/c/Users/31740/Desktop/newcore/include/linux/slab.h ****  * ZERO_SIZE_PTR can be passed to kfree though in the same way that NULL can.
 251:/mnt/c/Users/31740/Desktop/newcore/include/linux/slab.h ****  * Both make kfree a no-op.
 252:/mnt/c/Users/31740/Desktop/newcore/include/linux/slab.h ****  */
 253:/mnt/c/Users/31740/Desktop/newcore/include/linux/slab.h **** #define ZERO_SIZE_PTR ((void *)16)
 254:/mnt/c/Users/31740/Desktop/newcore/include/linux/slab.h **** 
 255:/mnt/c/Users/31740/Desktop/newcore/include/linux/slab.h **** #define ZERO_OR_NULL_PTR(x) ((unsigned long)(x) <= \
 256:/mnt/c/Users/31740/Desktop/newcore/include/linux/slab.h **** 				(unsigned long)ZERO_SIZE_PTR)
 257:/mnt/c/Users/31740/Desktop/newcore/include/linux/slab.h **** 
 258:/mnt/c/Users/31740/Desktop/newcore/include/linux/slab.h **** 
 259:/mnt/c/Users/31740/Desktop/newcore/include/linux/slab.h **** 
 260:/mnt/c/Users/31740/Desktop/newcore/include/linux/slab.h **** 
 261:/mnt/c/Users/31740/Desktop/newcore/include/linux/slab.h **** 
 262:/mnt/c/Users/31740/Desktop/newcore/include/linux/slab.h **** #ifdef CONFIG_SLUB_CPU_PARTIAL
 263:/mnt/c/Users/31740/Desktop/newcore/include/linux/slab.h **** #define slub_percpu_partial(c)			((c)->partial)
 264:/mnt/c/Users/31740/Desktop/newcore/include/linux/slab.h **** 
 265:/mnt/c/Users/31740/Desktop/newcore/include/linux/slab.h **** #define slub_set_percpu_partial(c, p)		\
 266:/mnt/c/Users/31740/Desktop/newcore/include/linux/slab.h **** ({						\
 267:/mnt/c/Users/31740/Desktop/newcore/include/linux/slab.h **** 	slub_percpu_partial(c) = (p)->next;	\
 268:/mnt/c/Users/31740/Desktop/newcore/include/linux/slab.h **** })
 269:/mnt/c/Users/31740/Desktop/newcore/include/linux/slab.h **** 
 270:/mnt/c/Users/31740/Desktop/newcore/include/linux/slab.h **** #define slub_percpu_partial_read_once(c)	READ_ONCE(slub_percpu_partial(c))
 271:/mnt/c/Users/31740/Desktop/newcore/include/linux/slab.h **** #else
 272:/mnt/c/Users/31740/Desktop/newcore/include/linux/slab.h **** #define slub_percpu_partial(c)			NULL
 273:/mnt/c/Users/31740/Desktop/newcore/include/linux/slab.h **** 
 274:/mnt/c/Users/31740/Desktop/newcore/include/linux/slab.h **** #define slub_set_percpu_partial(c, p)
 275:/mnt/c/Users/31740/Desktop/newcore/include/linux/slab.h **** 
 276:/mnt/c/Users/31740/Desktop/newcore/include/linux/slab.h **** #define slub_percpu_partial_read_once(c)	NULL
 277:/mnt/c/Users/31740/Desktop/newcore/include/linux/slab.h **** 
 278:/mnt/c/Users/31740/Desktop/newcore/include/linux/slab.h **** 
 279:/mnt/c/Users/31740/Desktop/newcore/include/linux/slab.h **** #endif // CONFIG_SLUB_CPU_PARTIAL
 280:/mnt/c/Users/31740/Desktop/newcore/include/linux/slab.h **** 
 281:/mnt/c/Users/31740/Desktop/newcore/include/linux/slab.h **** /*
 282:/mnt/c/Users/31740/Desktop/newcore/include/linux/slab.h **** 	* Word size structure that can be atomically updated or read and that
 283:/mnt/c/Users/31740/Desktop/newcore/include/linux/slab.h **** 	* contains both the order and the number of objects that a slab of the
 284:/mnt/c/Users/31740/Desktop/newcore/include/linux/slab.h **** 	* given order would contain.
 285:/mnt/c/Users/31740/Desktop/newcore/include/linux/slab.h **** 	*/				
 286:/mnt/c/Users/31740/Desktop/newcore/include/linux/slab.h **** struct kmem_cache_order_objects {
 287:/mnt/c/Users/31740/Desktop/newcore/include/linux/slab.h **** 	unsigned int x;
 288:/mnt/c/Users/31740/Desktop/newcore/include/linux/slab.h **** };
 289:/mnt/c/Users/31740/Desktop/newcore/include/linux/slab.h **** 
 290:/mnt/c/Users/31740/Desktop/newcore/include/linux/slab.h **** struct kmem_cache_node {
 291:/mnt/c/Users/31740/Desktop/newcore/include/linux/slab.h **** 	spinlock_t list_lock;
 292:/mnt/c/Users/31740/Desktop/newcore/include/linux/slab.h **** 	unsigned long nr_partial;
 293:/mnt/c/Users/31740/Desktop/newcore/include/linux/slab.h **** 	struct list_head partial;
ARM GAS  /tmp/ccaQsqPk.s 			page 28


 294:/mnt/c/Users/31740/Desktop/newcore/include/linux/slab.h **** #ifdef CONFIG_SLUB_DEBUG
 295:/mnt/c/Users/31740/Desktop/newcore/include/linux/slab.h **** 	atomic_long_t nr_slabs;
 296:/mnt/c/Users/31740/Desktop/newcore/include/linux/slab.h **** 	atomic_long_t total_objects;
 297:/mnt/c/Users/31740/Desktop/newcore/include/linux/slab.h **** 	struct list_head full;
 298:/mnt/c/Users/31740/Desktop/newcore/include/linux/slab.h **** #endif
 299:/mnt/c/Users/31740/Desktop/newcore/include/linux/slab.h **** };
 300:/mnt/c/Users/31740/Desktop/newcore/include/linux/slab.h **** 
 301:/mnt/c/Users/31740/Desktop/newcore/include/linux/slab.h **** struct kmem_cache {
 302:/mnt/c/Users/31740/Desktop/newcore/include/linux/slab.h **** 	#ifndef CONFIG_SLUB_TINY
 303:/mnt/c/Users/31740/Desktop/newcore/include/linux/slab.h **** 	//	struct kmem_cache_cpu __percpu *cpu_slab;
 304:/mnt/c/Users/31740/Desktop/newcore/include/linux/slab.h **** 	#endif
 305:/mnt/c/Users/31740/Desktop/newcore/include/linux/slab.h **** 		/* Used for retrieving partial slabs, etc. */
 306:/mnt/c/Users/31740/Desktop/newcore/include/linux/slab.h **** 		slab_flags_t flags;
 307:/mnt/c/Users/31740/Desktop/newcore/include/linux/slab.h **** 		unsigned long min_partial;
 308:/mnt/c/Users/31740/Desktop/newcore/include/linux/slab.h **** 		unsigned int size;		/* Object size including metadata */
 309:/mnt/c/Users/31740/Desktop/newcore/include/linux/slab.h **** 		unsigned int object_size;	/* Object size without metadata */
 310:/mnt/c/Users/31740/Desktop/newcore/include/linux/slab.h **** 		struct reciprocal_value reciprocal_size;
 311:/mnt/c/Users/31740/Desktop/newcore/include/linux/slab.h **** 		unsigned int offset;		/* Free pointer offset */
 312:/mnt/c/Users/31740/Desktop/newcore/include/linux/slab.h **** 	#ifdef CONFIG_SLUB_CPU_PARTIAL
 313:/mnt/c/Users/31740/Desktop/newcore/include/linux/slab.h **** 		/* Number of per cpu partial objects to keep around */
 314:/mnt/c/Users/31740/Desktop/newcore/include/linux/slab.h **** 		unsigned int cpu_partial;
 315:/mnt/c/Users/31740/Desktop/newcore/include/linux/slab.h **** 		/* Number of per cpu partial slabs to keep around */
 316:/mnt/c/Users/31740/Desktop/newcore/include/linux/slab.h **** 		unsigned int cpu_partial_slabs;
 317:/mnt/c/Users/31740/Desktop/newcore/include/linux/slab.h **** 	#endif
 318:/mnt/c/Users/31740/Desktop/newcore/include/linux/slab.h **** 		struct kmem_cache_order_objects oo;
 319:/mnt/c/Users/31740/Desktop/newcore/include/linux/slab.h **** 	
 320:/mnt/c/Users/31740/Desktop/newcore/include/linux/slab.h **** 		/* Allocation and freeing of slabs */
 321:/mnt/c/Users/31740/Desktop/newcore/include/linux/slab.h **** 		struct kmem_cache_order_objects min;
 322:/mnt/c/Users/31740/Desktop/newcore/include/linux/slab.h **** 		gfp_t allocflags;		/* gfp flags to use on each alloc */
 323:/mnt/c/Users/31740/Desktop/newcore/include/linux/slab.h **** 		int refcount;			/* Refcount for slab cache destroy */
 324:/mnt/c/Users/31740/Desktop/newcore/include/linux/slab.h **** 		void (*ctor)(void *object);	/* Object constructor */
 325:/mnt/c/Users/31740/Desktop/newcore/include/linux/slab.h **** 		unsigned int inuse;		/* Offset to metadata */
 326:/mnt/c/Users/31740/Desktop/newcore/include/linux/slab.h **** 		unsigned int align;		/* Alignment */
 327:/mnt/c/Users/31740/Desktop/newcore/include/linux/slab.h **** 		unsigned int red_left_pad;	/* Left redzone padding size */
 328:/mnt/c/Users/31740/Desktop/newcore/include/linux/slab.h **** 		const char *name;		/* Name (only for display!) */
 329:/mnt/c/Users/31740/Desktop/newcore/include/linux/slab.h **** 		struct list_head list;		/* List of slab caches */
 330:/mnt/c/Users/31740/Desktop/newcore/include/linux/slab.h **** 	#ifdef CONFIG_SYSFS
 331:/mnt/c/Users/31740/Desktop/newcore/include/linux/slab.h **** 		struct kobject kobj;		/* For sysfs */
 332:/mnt/c/Users/31740/Desktop/newcore/include/linux/slab.h **** 	#endif
 333:/mnt/c/Users/31740/Desktop/newcore/include/linux/slab.h **** 	#ifdef CONFIG_SLAB_FREELIST_HARDENED
 334:/mnt/c/Users/31740/Desktop/newcore/include/linux/slab.h **** 		unsigned long random;
 335:/mnt/c/Users/31740/Desktop/newcore/include/linux/slab.h **** 	#endif
 336:/mnt/c/Users/31740/Desktop/newcore/include/linux/slab.h **** 	
 337:/mnt/c/Users/31740/Desktop/newcore/include/linux/slab.h **** 	#ifdef CONFIG_NUMA
 338:/mnt/c/Users/31740/Desktop/newcore/include/linux/slab.h **** 		/*
 339:/mnt/c/Users/31740/Desktop/newcore/include/linux/slab.h **** 			* Defragmentation by allocating from a remote node.
 340:/mnt/c/Users/31740/Desktop/newcore/include/linux/slab.h **** 			*/
 341:/mnt/c/Users/31740/Desktop/newcore/include/linux/slab.h **** 		unsigned int remote_node_defrag_ratio;
 342:/mnt/c/Users/31740/Desktop/newcore/include/linux/slab.h **** 	#endif
 343:/mnt/c/Users/31740/Desktop/newcore/include/linux/slab.h **** 	
 344:/mnt/c/Users/31740/Desktop/newcore/include/linux/slab.h **** 	#ifdef CONFIG_SLAB_FREELIST_RANDOM
 345:/mnt/c/Users/31740/Desktop/newcore/include/linux/slab.h **** 		unsigned int *random_seq;
 346:/mnt/c/Users/31740/Desktop/newcore/include/linux/slab.h **** 	#endif
 347:/mnt/c/Users/31740/Desktop/newcore/include/linux/slab.h **** 	
 348:/mnt/c/Users/31740/Desktop/newcore/include/linux/slab.h **** 	#ifdef CONFIG_KASAN_GENERIC
 349:/mnt/c/Users/31740/Desktop/newcore/include/linux/slab.h **** 		struct kasan_cache kasan_info;
 350:/mnt/c/Users/31740/Desktop/newcore/include/linux/slab.h **** 	#endif
ARM GAS  /tmp/ccaQsqPk.s 			page 29


 351:/mnt/c/Users/31740/Desktop/newcore/include/linux/slab.h **** 	
 352:/mnt/c/Users/31740/Desktop/newcore/include/linux/slab.h **** 	#ifdef CONFIG_HARDENED_USERCOPY
 353:/mnt/c/Users/31740/Desktop/newcore/include/linux/slab.h **** 		unsigned int useroffset;	/* Usercopy region offset */
 354:/mnt/c/Users/31740/Desktop/newcore/include/linux/slab.h **** 		unsigned int usersize;		/* Usercopy region size */
 355:/mnt/c/Users/31740/Desktop/newcore/include/linux/slab.h **** 	#endif
 356:/mnt/c/Users/31740/Desktop/newcore/include/linux/slab.h **** 	
 357:/mnt/c/Users/31740/Desktop/newcore/include/linux/slab.h **** 		struct kmem_cache_node *node[MAX_NUMNODES];
 358:/mnt/c/Users/31740/Desktop/newcore/include/linux/slab.h **** 	};
 359:/mnt/c/Users/31740/Desktop/newcore/include/linux/slab.h **** 					
 360:/mnt/c/Users/31740/Desktop/newcore/include/linux/slab.h **** 
 361:/mnt/c/Users/31740/Desktop/newcore/include/linux/slab.h **** 
 362:/mnt/c/Users/31740/Desktop/newcore/include/linux/slab.h **** 
 363:/mnt/c/Users/31740/Desktop/newcore/include/linux/slab.h **** 
 364:/mnt/c/Users/31740/Desktop/newcore/include/linux/slab.h **** #define KMALLOC_WAIT 1
 365:/mnt/c/Users/31740/Desktop/newcore/include/linux/slab.h **** 
 366:/mnt/c/Users/31740/Desktop/newcore/include/linux/slab.h **** 
 367:/mnt/c/Users/31740/Desktop/newcore/include/linux/slab.h **** extern void* __smalloc__(u32 size, gfp_t flags);
 368:/mnt/c/Users/31740/Desktop/newcore/include/linux/slab.h **** extern void  __sfree__(void* addr);
 369:/mnt/c/Users/31740/Desktop/newcore/include/linux/slab.h **** 
 370:/mnt/c/Users/31740/Desktop/newcore/include/linux/slab.h **** 
 371:/mnt/c/Users/31740/Desktop/newcore/include/linux/slab.h **** static void inline *vmalloc(unsigned long size){
 372:/mnt/c/Users/31740/Desktop/newcore/include/linux/slab.h **** 	return __smalloc__(size,GFP_TRANSHUGE_LIGHT);
 373:/mnt/c/Users/31740/Desktop/newcore/include/linux/slab.h **** }
 374:/mnt/c/Users/31740/Desktop/newcore/include/linux/slab.h **** 
 375:/mnt/c/Users/31740/Desktop/newcore/include/linux/slab.h **** static void inline vfree(void *addr){
 376:/mnt/c/Users/31740/Desktop/newcore/include/linux/slab.h **** 	__sfree__(addr);
 377:/mnt/c/Users/31740/Desktop/newcore/include/linux/slab.h **** }
 378:/mnt/c/Users/31740/Desktop/newcore/include/linux/slab.h **** 
 379:/mnt/c/Users/31740/Desktop/newcore/include/linux/slab.h **** static void inline *kmalloc(size_t size, gfp_t flags){
 380:/mnt/c/Users/31740/Desktop/newcore/include/linux/slab.h **** 	return __smalloc__((u32)size,flags);
 381:/mnt/c/Users/31740/Desktop/newcore/include/linux/slab.h **** }
 382:/mnt/c/Users/31740/Desktop/newcore/include/linux/slab.h **** 
 383:/mnt/c/Users/31740/Desktop/newcore/include/linux/slab.h **** static void inline kfree(const void *ptr){
 820              		.loc 2 383 20 view .LVU233
 821              	.LBB17:
 384:/mnt/c/Users/31740/Desktop/newcore/include/linux/slab.h **** 	__sfree__((void*)ptr);
 822              		.loc 2 384 2 view .LVU234
 823 0002 886A     		ldr	r0, [r1, #40]
 824              	.LVL82:
 825              		.loc 2 384 2 is_stmt 0 view .LVU235
 826 0004 FFF7FEFF 		bl	__sfree__
 827              	.LVL83:
 828              		.loc 2 384 2 view .LVU236
 829              	.LBE17:
 830              	.LBE16:
 373:/mnt/c/Users/31740/Desktop/newcore/drivers/gpio/stm32f4_gpio.c ****     return 0;
 831              		.loc 1 373 5 is_stmt 1 view .LVU237
 374:/mnt/c/Users/31740/Desktop/newcore/drivers/gpio/stm32f4_gpio.c **** }
 832              		.loc 1 374 1 is_stmt 0 view .LVU238
 833 0008 0020     		movs	r0, #0
 834 000a 08BD     		pop	{r3, pc}
 835              		.cfi_endproc
 836              	.LFE1050:
 838              		.section	.rodata.gpio_open.str1.4,"aMS",%progbits,1
 839              		.align	2
 840              	.LC2:
 841 0000 6F70656E 		.ascii	"open gpios device\012\015\000"
ARM GAS  /tmp/ccaQsqPk.s 			page 30


 841      20677069 
 841      6F732064 
 841      65766963 
 841      650A0D00 
 842              		.section	.text.gpio_open,"ax",%progbits
 843              		.align	1
 844              		.syntax unified
 845              		.thumb
 846              		.thumb_func
 848              	gpio_open:
 849              	.LVL84:
 850              	.LFB1047:
 319:/mnt/c/Users/31740/Desktop/newcore/drivers/gpio/stm32f4_gpio.c ****     struct gpio_device *device = kmalloc(sizeof(struct gpio_device), GFP_KERNEL);
 851              		.loc 1 319 62 is_stmt 1 view -0
 852              		.cfi_startproc
 853              		@ args = 0, pretend = 0, frame = 0
 854              		@ frame_needed = 0, uses_anonymous_args = 0
 319:/mnt/c/Users/31740/Desktop/newcore/drivers/gpio/stm32f4_gpio.c ****     struct gpio_device *device = kmalloc(sizeof(struct gpio_device), GFP_KERNEL);
 855              		.loc 1 319 62 is_stmt 0 view .LVU240
 856 0000 38B5     		push	{r3, r4, r5, lr}
 857              	.LCFI3:
 858              		.cfi_def_cfa_offset 16
 859              		.cfi_offset 3, -16
 860              		.cfi_offset 4, -12
 861              		.cfi_offset 5, -8
 862              		.cfi_offset 14, -4
 863 0002 0D46     		mov	r5, r1
 320:/mnt/c/Users/31740/Desktop/newcore/drivers/gpio/stm32f4_gpio.c ****     if(device == NULL) return -ENOMEM;
 864              		.loc 1 320 5 is_stmt 1 view .LVU241
 865              	.LVL85:
 866              	.LBB18:
 867              	.LBI18:
 379:/mnt/c/Users/31740/Desktop/newcore/include/linux/slab.h **** 	return __smalloc__((u32)size,flags);
 868              		.loc 2 379 21 view .LVU242
 869              	.LBB19:
 380:/mnt/c/Users/31740/Desktop/newcore/include/linux/slab.h **** }
 870              		.loc 2 380 2 view .LVU243
 380:/mnt/c/Users/31740/Desktop/newcore/include/linux/slab.h **** }
 871              		.loc 2 380 9 is_stmt 0 view .LVU244
 872 0004 4FF44C61 		mov	r1, #3264
 873              	.LVL86:
 380:/mnt/c/Users/31740/Desktop/newcore/include/linux/slab.h **** }
 874              		.loc 2 380 9 view .LVU245
 875 0008 1420     		movs	r0, #20
 876              	.LVL87:
 380:/mnt/c/Users/31740/Desktop/newcore/include/linux/slab.h **** }
 877              		.loc 2 380 9 view .LVU246
 878 000a FFF7FEFF 		bl	__smalloc__
 879              	.LVL88:
 380:/mnt/c/Users/31740/Desktop/newcore/include/linux/slab.h **** }
 880              		.loc 2 380 9 view .LVU247
 881              	.LBE19:
 882              	.LBE18:
 321:/mnt/c/Users/31740/Desktop/newcore/drivers/gpio/stm32f4_gpio.c ****     device->gpio_number = 0xffff;
 883              		.loc 1 321 5 is_stmt 1 view .LVU248
 321:/mnt/c/Users/31740/Desktop/newcore/drivers/gpio/stm32f4_gpio.c ****     device->gpio_number = 0xffff;
 884              		.loc 1 321 7 is_stmt 0 view .LVU249
ARM GAS  /tmp/ccaQsqPk.s 			page 31


 885 000e 58B1     		cbz	r0, .L65
 322:/mnt/c/Users/31740/Desktop/newcore/drivers/gpio/stm32f4_gpio.c ****     device->gpio_type = NULL;
 886              		.loc 1 322 5 is_stmt 1 view .LVU250
 322:/mnt/c/Users/31740/Desktop/newcore/drivers/gpio/stm32f4_gpio.c ****     device->gpio_type = NULL;
 887              		.loc 1 322 25 is_stmt 0 view .LVU251
 888 0010 4FF6FF72 		movw	r2, #65535
 889 0014 0280     		strh	r2, [r0]	@ movhi
 323:/mnt/c/Users/31740/Desktop/newcore/drivers/gpio/stm32f4_gpio.c ****     file->private_data = device;
 890              		.loc 1 323 5 is_stmt 1 view .LVU252
 323:/mnt/c/Users/31740/Desktop/newcore/drivers/gpio/stm32f4_gpio.c ****     file->private_data = device;
 891              		.loc 1 323 23 is_stmt 0 view .LVU253
 892 0016 0024     		movs	r4, #0
 893 0018 4460     		str	r4, [r0, #4]
 324:/mnt/c/Users/31740/Desktop/newcore/drivers/gpio/stm32f4_gpio.c ****     pr_info("open gpios device\n\r");
 894              		.loc 1 324 5 is_stmt 1 view .LVU254
 324:/mnt/c/Users/31740/Desktop/newcore/drivers/gpio/stm32f4_gpio.c ****     pr_info("open gpios device\n\r");
 895              		.loc 1 324 24 is_stmt 0 view .LVU255
 896 001a A862     		str	r0, [r5, #40]
 325:/mnt/c/Users/31740/Desktop/newcore/drivers/gpio/stm32f4_gpio.c ****     return 0;
 897              		.loc 1 325 5 is_stmt 1 view .LVU256
 898 001c 0449     		ldr	r1, .L67
 899 001e 0620     		movs	r0, #6
 900              	.LVL89:
 325:/mnt/c/Users/31740/Desktop/newcore/drivers/gpio/stm32f4_gpio.c ****     return 0;
 901              		.loc 1 325 5 is_stmt 0 view .LVU257
 902 0020 FFF7FEFF 		bl	printk
 903              	.LVL90:
 326:/mnt/c/Users/31740/Desktop/newcore/drivers/gpio/stm32f4_gpio.c **** }
 904              		.loc 1 326 5 is_stmt 1 view .LVU258
 326:/mnt/c/Users/31740/Desktop/newcore/drivers/gpio/stm32f4_gpio.c **** }
 905              		.loc 1 326 12 is_stmt 0 view .LVU259
 906 0024 2046     		mov	r0, r4
 907              	.L63:
 327:/mnt/c/Users/31740/Desktop/newcore/drivers/gpio/stm32f4_gpio.c **** 
 908              		.loc 1 327 1 view .LVU260
 909 0026 38BD     		pop	{r3, r4, r5, pc}
 910              	.LVL91:
 911              	.L65:
 321:/mnt/c/Users/31740/Desktop/newcore/drivers/gpio/stm32f4_gpio.c ****     device->gpio_number = 0xffff;
 912              		.loc 1 321 31 discriminator 1 view .LVU261
 913 0028 6FF00B00 		mvn	r0, #11
 914              	.LVL92:
 321:/mnt/c/Users/31740/Desktop/newcore/drivers/gpio/stm32f4_gpio.c ****     device->gpio_number = 0xffff;
 915              		.loc 1 321 31 discriminator 1 view .LVU262
 916 002c FBE7     		b	.L63
 917              	.L68:
 918 002e 00BF     		.align	2
 919              	.L67:
 920 0030 00000000 		.word	.LC2
 921              		.cfi_endproc
 922              	.LFE1047:
 924              		.section	.rodata.gpio_read.str1.4,"aMS",%progbits,1
 925              		.align	2
 926              	.LC3:
 927 0000 6770696F 		.ascii	"gpio input value is 0\012\015\000"
 927      20696E70 
 927      75742076 
ARM GAS  /tmp/ccaQsqPk.s 			page 32


 927      616C7565 
 927      20697320 
 928              		.align	2
 929              	.LC4:
 930 0018 6770696F 		.ascii	"gpio input value is 1\012\015\000"
 930      20696E70 
 930      75742076 
 930      616C7565 
 930      20697320 
 931              		.section	.text.gpio_read,"ax",%progbits
 932              		.align	1
 933              		.syntax unified
 934              		.thumb
 935              		.thumb_func
 937              	gpio_read:
 938              	.LVL93:
 939              	.LFB1049:
 352:/mnt/c/Users/31740/Desktop/newcore/drivers/gpio/stm32f4_gpio.c ****     struct gpio_device *device = file->private_data;
 940              		.loc 1 352 87 is_stmt 1 view -0
 941              		.cfi_startproc
 942              		@ args = 0, pretend = 0, frame = 0
 943              		@ frame_needed = 0, uses_anonymous_args = 0
 352:/mnt/c/Users/31740/Desktop/newcore/drivers/gpio/stm32f4_gpio.c ****     struct gpio_device *device = file->private_data;
 944              		.loc 1 352 87 is_stmt 0 view .LVU264
 945 0000 38B5     		push	{r3, r4, r5, lr}
 946              	.LCFI4:
 947              		.cfi_def_cfa_offset 16
 948              		.cfi_offset 3, -16
 949              		.cfi_offset 4, -12
 950              		.cfi_offset 5, -8
 951              		.cfi_offset 14, -4
 952 0002 0D46     		mov	r5, r1
 353:/mnt/c/Users/31740/Desktop/newcore/drivers/gpio/stm32f4_gpio.c ****     if(device->gpio_number == 0xffff) {
 953              		.loc 1 353 5 is_stmt 1 view .LVU265
 353:/mnt/c/Users/31740/Desktop/newcore/drivers/gpio/stm32f4_gpio.c ****     if(device->gpio_number == 0xffff) {
 954              		.loc 1 353 25 is_stmt 0 view .LVU266
 955 0004 836A     		ldr	r3, [r0, #40]
 956              	.LVL94:
 354:/mnt/c/Users/31740/Desktop/newcore/drivers/gpio/stm32f4_gpio.c ****         pr_info("please use ioctl to set pin number first\n\r");
 957              		.loc 1 354 5 is_stmt 1 view .LVU267
 354:/mnt/c/Users/31740/Desktop/newcore/drivers/gpio/stm32f4_gpio.c ****         pr_info("please use ioctl to set pin number first\n\r");
 958              		.loc 1 354 14 is_stmt 0 view .LVU268
 959 0006 1988     		ldrh	r1, [r3]
 960              	.LVL95:
 354:/mnt/c/Users/31740/Desktop/newcore/drivers/gpio/stm32f4_gpio.c ****         pr_info("please use ioctl to set pin number first\n\r");
 961              		.loc 1 354 7 view .LVU269
 962 0008 4FF6FF7C 		movw	ip, #65535
 963 000c 6145     		cmp	r1, ip
 964 000e 0CD0     		beq	.L75
 965 0010 1446     		mov	r4, r2
 358:/mnt/c/Users/31740/Desktop/newcore/drivers/gpio/stm32f4_gpio.c ****     if(value == 0) {
 966              		.loc 1 358 5 is_stmt 1 view .LVU270
 358:/mnt/c/Users/31740/Desktop/newcore/drivers/gpio/stm32f4_gpio.c ****     if(value == 0) {
 967              		.loc 1 358 17 is_stmt 0 view .LVU271
 968 0012 5868     		ldr	r0, [r3, #4]
 969              	.LVL96:
 358:/mnt/c/Users/31740/Desktop/newcore/drivers/gpio/stm32f4_gpio.c ****     if(value == 0) {
ARM GAS  /tmp/ccaQsqPk.s 			page 33


 970              		.loc 1 358 17 view .LVU272
 971 0014 FFF7FEFF 		bl	GPIO_ReadInputDataBit
 972              	.LVL97:
 359:/mnt/c/Users/31740/Desktop/newcore/drivers/gpio/stm32f4_gpio.c ****         copy_to_user(buf, "0", 1);
 973              		.loc 1 359 5 is_stmt 1 view .LVU273
 359:/mnt/c/Users/31740/Desktop/newcore/drivers/gpio/stm32f4_gpio.c ****         copy_to_user(buf, "0", 1);
 974              		.loc 1 359 7 is_stmt 0 view .LVU274
 975 0018 70B9     		cbnz	r0, .L72
 360:/mnt/c/Users/31740/Desktop/newcore/drivers/gpio/stm32f4_gpio.c ****         pr_info("gpio input value is 0\n\r");
 976              		.loc 1 360 9 is_stmt 1 view .LVU275
 977              	.LVL98:
 978              	.LBB20:
 979              	.LBI20:
 980              		.file 3 "/mnt/c/Users/31740/Desktop/newcore/include/linux/uaccess.h"
   1:/mnt/c/Users/31740/Desktop/newcore/include/linux/uaccess.h **** #ifndef _UACCESS_H
   2:/mnt/c/Users/31740/Desktop/newcore/include/linux/uaccess.h **** #define _UACCESS_H
   3:/mnt/c/Users/31740/Desktop/newcore/include/linux/uaccess.h **** 
   4:/mnt/c/Users/31740/Desktop/newcore/include/linux/uaccess.h **** #include <linux/compiler.h>
   5:/mnt/c/Users/31740/Desktop/newcore/include/linux/uaccess.h **** #include <linux/types.h>
   6:/mnt/c/Users/31740/Desktop/newcore/include/linux/uaccess.h **** #include <linux/string.h>
   7:/mnt/c/Users/31740/Desktop/newcore/include/linux/uaccess.h **** 
   8:/mnt/c/Users/31740/Desktop/newcore/include/linux/uaccess.h **** static inline int copy_from_user(void *to, const void __user *from, size_t n) //用于裸机环境
   9:/mnt/c/Users/31740/Desktop/newcore/include/linux/uaccess.h **** {
  10:/mnt/c/Users/31740/Desktop/newcore/include/linux/uaccess.h ****     memcpy(to, (void *)from, n);
  11:/mnt/c/Users/31740/Desktop/newcore/include/linux/uaccess.h ****     return 0;
  12:/mnt/c/Users/31740/Desktop/newcore/include/linux/uaccess.h **** }
  13:/mnt/c/Users/31740/Desktop/newcore/include/linux/uaccess.h **** static inline int copy_to_user(void __user *to, const void *from, size_t n) //用于裸机环境中
 981              		.loc 3 13 19 view .LVU276
 982              	.LBB21:
  14:/mnt/c/Users/31740/Desktop/newcore/include/linux/uaccess.h **** {
  15:/mnt/c/Users/31740/Desktop/newcore/include/linux/uaccess.h ****     memcpy((void *)to, from, n);
 983              		.loc 3 15 5 view .LVU277
 984 001a 3023     		movs	r3, #48
 985 001c 2B70     		strb	r3, [r5]
  16:/mnt/c/Users/31740/Desktop/newcore/include/linux/uaccess.h ****     return 0;
 986              		.loc 3 16 5 view .LVU278
 987              	.LVL99:
 988              		.loc 3 16 5 is_stmt 0 view .LVU279
 989              	.LBE21:
 990              	.LBE20:
 361:/mnt/c/Users/31740/Desktop/newcore/drivers/gpio/stm32f4_gpio.c ****     }
 991              		.loc 1 361 9 is_stmt 1 view .LVU280
 992 001e 0A49     		ldr	r1, .L76
 993 0020 0620     		movs	r0, #6
 994              	.LVL100:
 361:/mnt/c/Users/31740/Desktop/newcore/drivers/gpio/stm32f4_gpio.c ****     }
 995              		.loc 1 361 9 is_stmt 0 view .LVU281
 996 0022 FFF7FEFF 		bl	printk
 997              	.LVL101:
 998              	.L73:
 367:/mnt/c/Users/31740/Desktop/newcore/drivers/gpio/stm32f4_gpio.c **** }
 999              		.loc 1 367 5 is_stmt 1 view .LVU282
 367:/mnt/c/Users/31740/Desktop/newcore/drivers/gpio/stm32f4_gpio.c **** }
 1000              		.loc 1 367 12 is_stmt 0 view .LVU283
 1001 0026 2046     		mov	r0, r4
 1002              	.LVL102:
 1003              	.L69:
ARM GAS  /tmp/ccaQsqPk.s 			page 34


 368:/mnt/c/Users/31740/Desktop/newcore/drivers/gpio/stm32f4_gpio.c **** 
 1004              		.loc 1 368 1 view .LVU284
 1005 0028 38BD     		pop	{r3, r4, r5, pc}
 1006              	.LVL103:
 1007              	.L75:
 355:/mnt/c/Users/31740/Desktop/newcore/drivers/gpio/stm32f4_gpio.c ****         return -EINVAL;
 1008              		.loc 1 355 9 is_stmt 1 view .LVU285
 1009 002a 0849     		ldr	r1, .L76+4
 1010 002c 0620     		movs	r0, #6
 1011              	.LVL104:
 355:/mnt/c/Users/31740/Desktop/newcore/drivers/gpio/stm32f4_gpio.c ****         return -EINVAL;
 1012              		.loc 1 355 9 is_stmt 0 view .LVU286
 1013 002e FFF7FEFF 		bl	printk
 1014              	.LVL105:
 356:/mnt/c/Users/31740/Desktop/newcore/drivers/gpio/stm32f4_gpio.c ****     }
 1015              		.loc 1 356 9 is_stmt 1 view .LVU287
 356:/mnt/c/Users/31740/Desktop/newcore/drivers/gpio/stm32f4_gpio.c ****     }
 1016              		.loc 1 356 16 is_stmt 0 view .LVU288
 1017 0032 6FF01500 		mvn	r0, #21
 1018 0036 F7E7     		b	.L69
 1019              	.LVL106:
 1020              	.L72:
 364:/mnt/c/Users/31740/Desktop/newcore/drivers/gpio/stm32f4_gpio.c ****         pr_info("gpio input value is 1\n\r");
 1021              		.loc 1 364 9 is_stmt 1 view .LVU289
 1022              	.LBB22:
 1023              	.LBI22:
  13:/mnt/c/Users/31740/Desktop/newcore/include/linux/uaccess.h **** {
 1024              		.loc 3 13 19 view .LVU290
 1025              	.LBB23:
  15:/mnt/c/Users/31740/Desktop/newcore/include/linux/uaccess.h ****     return 0;
 1026              		.loc 3 15 5 view .LVU291
 1027 0038 3123     		movs	r3, #49
 1028 003a 2B70     		strb	r3, [r5]
 1029              		.loc 3 16 5 view .LVU292
 1030              	.LVL107:
 1031              		.loc 3 16 5 is_stmt 0 view .LVU293
 1032              	.LBE23:
 1033              	.LBE22:
 365:/mnt/c/Users/31740/Desktop/newcore/drivers/gpio/stm32f4_gpio.c ****     }
 1034              		.loc 1 365 9 is_stmt 1 view .LVU294
 1035 003c 0449     		ldr	r1, .L76+8
 1036 003e 0620     		movs	r0, #6
 1037              	.LVL108:
 365:/mnt/c/Users/31740/Desktop/newcore/drivers/gpio/stm32f4_gpio.c ****     }
 1038              		.loc 1 365 9 is_stmt 0 view .LVU295
 1039 0040 FFF7FEFF 		bl	printk
 1040              	.LVL109:
 1041 0044 EFE7     		b	.L73
 1042              	.L77:
 1043 0046 00BF     		.align	2
 1044              	.L76:
 1045 0048 00000000 		.word	.LC3
 1046 004c 00000000 		.word	.LC0
 1047 0050 18000000 		.word	.LC4
 1048              		.cfi_endproc
 1049              	.LFE1049:
 1051              		.section	.rodata.str1.4,"aMS",%progbits,1
ARM GAS  /tmp/ccaQsqPk.s 			page 35


 1052              		.align	2
 1053              	.LC5:
 1054 0000 6770696F 		.ascii	"gpios\000"
 1054      7300
 1055 0006 0000     		.align	2
 1056              	.LC6:
 1057 0008 72656769 		.ascii	"register gpio (%d) \012\000"
 1057      73746572 
 1057      20677069 
 1057      6F202825 
 1057      6429200A 
 1058 001d 000000   		.align	2
 1059              	.LC7:
 1060 0020 63616E20 		.ascii	"can not create gpio_class\012\000"
 1060      6E6F7420 
 1060      63726561 
 1060      74652067 
 1060      70696F5F 
 1061 003b 00       		.align	2
 1062              	.LC8:
 1063 003c 63616E20 		.ascii	"can not create gpios device\012\000"
 1063      6E6F7420 
 1063      63726561 
 1063      74652067 
 1063      70696F73 
 1064              		.section	.init.text,"ax",%progbits
 1065              		.align	1
 1066              		.syntax unified
 1067              		.thumb
 1068              		.thumb_func
 1070              	gpio_init:
 1071              	.LFB1052:
 375:/mnt/c/Users/31740/Desktop/newcore/drivers/gpio/stm32f4_gpio.c **** 
 376:/mnt/c/Users/31740/Desktop/newcore/drivers/gpio/stm32f4_gpio.c **** 
 377:/mnt/c/Users/31740/Desktop/newcore/drivers/gpio/stm32f4_gpio.c **** static long compat_ioctl(struct file *file, unsigned int cmd, unsigned long arg) {
 378:/mnt/c/Users/31740/Desktop/newcore/drivers/gpio/stm32f4_gpio.c ****     struct gpio_device *device = file->private_data;
 379:/mnt/c/Users/31740/Desktop/newcore/drivers/gpio/stm32f4_gpio.c ****     if(cmd != GPIO_SET_PIN_NUMBER && device->gpio_number == 0xffff) {
 380:/mnt/c/Users/31740/Desktop/newcore/drivers/gpio/stm32f4_gpio.c ****         pr_info("please set pin number first\n\r");
 381:/mnt/c/Users/31740/Desktop/newcore/drivers/gpio/stm32f4_gpio.c ****         return -EINVAL;
 382:/mnt/c/Users/31740/Desktop/newcore/drivers/gpio/stm32f4_gpio.c ****     }
 383:/mnt/c/Users/31740/Desktop/newcore/drivers/gpio/stm32f4_gpio.c **** 
 384:/mnt/c/Users/31740/Desktop/newcore/drivers/gpio/stm32f4_gpio.c ****     uint16_t pin_number = get_gpio_number(arg);
 385:/mnt/c/Users/31740/Desktop/newcore/drivers/gpio/stm32f4_gpio.c ****     GPIO_TypeDef *gpio_type = get_gpio_type(arg);
 386:/mnt/c/Users/31740/Desktop/newcore/drivers/gpio/stm32f4_gpio.c ****     uint32_t APB_RCC_Source = Get_APB_RCC_Source(gpio_type);
 387:/mnt/c/Users/31740/Desktop/newcore/drivers/gpio/stm32f4_gpio.c **** 
 388:/mnt/c/Users/31740/Desktop/newcore/drivers/gpio/stm32f4_gpio.c ****     switch(cmd) {
 389:/mnt/c/Users/31740/Desktop/newcore/drivers/gpio/stm32f4_gpio.c ****         case GPIO_SET_PIN_NUMBER:
 390:/mnt/c/Users/31740/Desktop/newcore/drivers/gpio/stm32f4_gpio.c ****             if(gpio_type == NULL) {
 391:/mnt/c/Users/31740/Desktop/newcore/drivers/gpio/stm32f4_gpio.c ****                 pr_info("gpio type is not useful\n\r");
 392:/mnt/c/Users/31740/Desktop/newcore/drivers/gpio/stm32f4_gpio.c ****                 return -EINVAL;
 393:/mnt/c/Users/31740/Desktop/newcore/drivers/gpio/stm32f4_gpio.c ****             }
 394:/mnt/c/Users/31740/Desktop/newcore/drivers/gpio/stm32f4_gpio.c ****             if(APB_RCC_Source == 0xffffffff) {
 395:/mnt/c/Users/31740/Desktop/newcore/drivers/gpio/stm32f4_gpio.c ****                 pr_info("APB_RCC_Source is not useful\n\r");
 396:/mnt/c/Users/31740/Desktop/newcore/drivers/gpio/stm32f4_gpio.c ****                 return -EINVAL;
 397:/mnt/c/Users/31740/Desktop/newcore/drivers/gpio/stm32f4_gpio.c ****             }
 398:/mnt/c/Users/31740/Desktop/newcore/drivers/gpio/stm32f4_gpio.c ****             print_gpio_number(pin_number);
 399:/mnt/c/Users/31740/Desktop/newcore/drivers/gpio/stm32f4_gpio.c ****             print_gpio_type(gpio_type);
ARM GAS  /tmp/ccaQsqPk.s 			page 36


 400:/mnt/c/Users/31740/Desktop/newcore/drivers/gpio/stm32f4_gpio.c ****             
 401:/mnt/c/Users/31740/Desktop/newcore/drivers/gpio/stm32f4_gpio.c ****             RCC_AHB1PeriphClockCmd(APB_RCC_Source, ENABLE);
 402:/mnt/c/Users/31740/Desktop/newcore/drivers/gpio/stm32f4_gpio.c ****             device->gpio_number = pin_number;
 403:/mnt/c/Users/31740/Desktop/newcore/drivers/gpio/stm32f4_gpio.c ****             device->gpio_type = gpio_type;
 404:/mnt/c/Users/31740/Desktop/newcore/drivers/gpio/stm32f4_gpio.c ****             device->GPIO_InitStructure.GPIO_Pin = pin_number;
 405:/mnt/c/Users/31740/Desktop/newcore/drivers/gpio/stm32f4_gpio.c ****             device->GPIO_InitStructure.GPIO_Mode = GPIO_Mode_OUT;
 406:/mnt/c/Users/31740/Desktop/newcore/drivers/gpio/stm32f4_gpio.c ****             device->GPIO_InitStructure.GPIO_OType = GPIO_OType_PP;
 407:/mnt/c/Users/31740/Desktop/newcore/drivers/gpio/stm32f4_gpio.c ****             device->GPIO_InitStructure.GPIO_Speed = GPIO_Speed_50MHz;
 408:/mnt/c/Users/31740/Desktop/newcore/drivers/gpio/stm32f4_gpio.c ****             device->GPIO_InitStructure.GPIO_PuPd = GPIO_PuPd_NOPULL;
 409:/mnt/c/Users/31740/Desktop/newcore/drivers/gpio/stm32f4_gpio.c ****             device->GPIO_InitStructure.GPIO_AF = GPIO_AF0; // 默认AF0
 410:/mnt/c/Users/31740/Desktop/newcore/drivers/gpio/stm32f4_gpio.c ****             GPIO_Init(gpio_type, &device->GPIO_InitStructure);
 411:/mnt/c/Users/31740/Desktop/newcore/drivers/gpio/stm32f4_gpio.c ****             return 0;
 412:/mnt/c/Users/31740/Desktop/newcore/drivers/gpio/stm32f4_gpio.c ****             
 413:/mnt/c/Users/31740/Desktop/newcore/drivers/gpio/stm32f4_gpio.c ****         case GPIO_PULL_UP:
 414:/mnt/c/Users/31740/Desktop/newcore/drivers/gpio/stm32f4_gpio.c ****             device->GPIO_InitStructure.GPIO_PuPd = GPIO_PuPd_UP;
 415:/mnt/c/Users/31740/Desktop/newcore/drivers/gpio/stm32f4_gpio.c ****             GPIO_Init(gpio_type, &device->GPIO_InitStructure);
 416:/mnt/c/Users/31740/Desktop/newcore/drivers/gpio/stm32f4_gpio.c ****             return 0;
 417:/mnt/c/Users/31740/Desktop/newcore/drivers/gpio/stm32f4_gpio.c ****             
 418:/mnt/c/Users/31740/Desktop/newcore/drivers/gpio/stm32f4_gpio.c ****         case GPIO_PULL_DOWN:
 419:/mnt/c/Users/31740/Desktop/newcore/drivers/gpio/stm32f4_gpio.c ****             device->GPIO_InitStructure.GPIO_PuPd = GPIO_PuPd_DOWN;
 420:/mnt/c/Users/31740/Desktop/newcore/drivers/gpio/stm32f4_gpio.c ****             GPIO_Init(gpio_type, &device->GPIO_InitStructure);
 421:/mnt/c/Users/31740/Desktop/newcore/drivers/gpio/stm32f4_gpio.c ****             return 0;
 422:/mnt/c/Users/31740/Desktop/newcore/drivers/gpio/stm32f4_gpio.c ****             
 423:/mnt/c/Users/31740/Desktop/newcore/drivers/gpio/stm32f4_gpio.c ****         case GPIO_INPUT:
 424:/mnt/c/Users/31740/Desktop/newcore/drivers/gpio/stm32f4_gpio.c ****             device->GPIO_InitStructure.GPIO_Mode = GPIO_Mode_IN;
 425:/mnt/c/Users/31740/Desktop/newcore/drivers/gpio/stm32f4_gpio.c ****             GPIO_Init(gpio_type, &device->GPIO_InitStructure);
 426:/mnt/c/Users/31740/Desktop/newcore/drivers/gpio/stm32f4_gpio.c ****             return 0;
 427:/mnt/c/Users/31740/Desktop/newcore/drivers/gpio/stm32f4_gpio.c ****             
 428:/mnt/c/Users/31740/Desktop/newcore/drivers/gpio/stm32f4_gpio.c ****         case GPIO_OUTPUT:
 429:/mnt/c/Users/31740/Desktop/newcore/drivers/gpio/stm32f4_gpio.c ****             device->GPIO_InitStructure.GPIO_Mode = GPIO_Mode_OUT;
 430:/mnt/c/Users/31740/Desktop/newcore/drivers/gpio/stm32f4_gpio.c ****             GPIO_Init(gpio_type, &device->GPIO_InitStructure);
 431:/mnt/c/Users/31740/Desktop/newcore/drivers/gpio/stm32f4_gpio.c ****             return 0;
 432:/mnt/c/Users/31740/Desktop/newcore/drivers/gpio/stm32f4_gpio.c ****             
 433:/mnt/c/Users/31740/Desktop/newcore/drivers/gpio/stm32f4_gpio.c ****         case GPIO_HIGH:
 434:/mnt/c/Users/31740/Desktop/newcore/drivers/gpio/stm32f4_gpio.c ****             GPIO_SetBits(gpio_type, pin_number);
 435:/mnt/c/Users/31740/Desktop/newcore/drivers/gpio/stm32f4_gpio.c ****             return 0;
 436:/mnt/c/Users/31740/Desktop/newcore/drivers/gpio/stm32f4_gpio.c ****             
 437:/mnt/c/Users/31740/Desktop/newcore/drivers/gpio/stm32f4_gpio.c ****         case GPIO_LOW:
 438:/mnt/c/Users/31740/Desktop/newcore/drivers/gpio/stm32f4_gpio.c ****             GPIO_ResetBits(gpio_type, pin_number);
 439:/mnt/c/Users/31740/Desktop/newcore/drivers/gpio/stm32f4_gpio.c ****             return 0;
 440:/mnt/c/Users/31740/Desktop/newcore/drivers/gpio/stm32f4_gpio.c ****             
 441:/mnt/c/Users/31740/Desktop/newcore/drivers/gpio/stm32f4_gpio.c ****         case GPIO_SET_AF: {
 442:/mnt/c/Users/31740/Desktop/newcore/drivers/gpio/stm32f4_gpio.c ****             // 设置复用功能，参数格式：高16位为AF编号，低16位为pin编号
 443:/mnt/c/Users/31740/Desktop/newcore/drivers/gpio/stm32f4_gpio.c ****             uint8_t af = (arg >> 16) & 0xF;
 444:/mnt/c/Users/31740/Desktop/newcore/drivers/gpio/stm32f4_gpio.c ****             device->GPIO_InitStructure.GPIO_Mode = GPIO_Mode_AF;
 445:/mnt/c/Users/31740/Desktop/newcore/drivers/gpio/stm32f4_gpio.c ****             device->GPIO_InitStructure.GPIO_AF = af;
 446:/mnt/c/Users/31740/Desktop/newcore/drivers/gpio/stm32f4_gpio.c ****             GPIO_Init(gpio_type, &device->GPIO_InitStructure);
 447:/mnt/c/Users/31740/Desktop/newcore/drivers/gpio/stm32f4_gpio.c ****             pr_info("Set pin AF to %d\n\r", af);
 448:/mnt/c/Users/31740/Desktop/newcore/drivers/gpio/stm32f4_gpio.c ****             return 0;
 449:/mnt/c/Users/31740/Desktop/newcore/drivers/gpio/stm32f4_gpio.c ****         }
 450:/mnt/c/Users/31740/Desktop/newcore/drivers/gpio/stm32f4_gpio.c ****             
 451:/mnt/c/Users/31740/Desktop/newcore/drivers/gpio/stm32f4_gpio.c ****         case GPIO_GET_AF: {
 452:/mnt/c/Users/31740/Desktop/newcore/drivers/gpio/stm32f4_gpio.c ****             // 获取当前复用功能
 453:/mnt/c/Users/31740/Desktop/newcore/drivers/gpio/stm32f4_gpio.c ****             uint8_t af = GPIO_GetAF(gpio_type, pin_number);
 454:/mnt/c/Users/31740/Desktop/newcore/drivers/gpio/stm32f4_gpio.c ****             pr_info("Current pin AF: %d\n\r", af);
 455:/mnt/c/Users/31740/Desktop/newcore/drivers/gpio/stm32f4_gpio.c ****             return af; // 返回当前AF值
 456:/mnt/c/Users/31740/Desktop/newcore/drivers/gpio/stm32f4_gpio.c ****         }
ARM GAS  /tmp/ccaQsqPk.s 			page 37


 457:/mnt/c/Users/31740/Desktop/newcore/drivers/gpio/stm32f4_gpio.c ****             
 458:/mnt/c/Users/31740/Desktop/newcore/drivers/gpio/stm32f4_gpio.c ****         default:
 459:/mnt/c/Users/31740/Desktop/newcore/drivers/gpio/stm32f4_gpio.c ****             return -EINVAL;
 460:/mnt/c/Users/31740/Desktop/newcore/drivers/gpio/stm32f4_gpio.c ****     }
 461:/mnt/c/Users/31740/Desktop/newcore/drivers/gpio/stm32f4_gpio.c **** }
 462:/mnt/c/Users/31740/Desktop/newcore/drivers/gpio/stm32f4_gpio.c **** 
 463:/mnt/c/Users/31740/Desktop/newcore/drivers/gpio/stm32f4_gpio.c **** static struct file_operations gpio_fops = {
 464:/mnt/c/Users/31740/Desktop/newcore/drivers/gpio/stm32f4_gpio.c ****     .owner = THIS_MODULE,
 465:/mnt/c/Users/31740/Desktop/newcore/drivers/gpio/stm32f4_gpio.c ****     .open = gpio_open,
 466:/mnt/c/Users/31740/Desktop/newcore/drivers/gpio/stm32f4_gpio.c ****     .write = gpio_write,
 467:/mnt/c/Users/31740/Desktop/newcore/drivers/gpio/stm32f4_gpio.c ****     .read = gpio_read,
 468:/mnt/c/Users/31740/Desktop/newcore/drivers/gpio/stm32f4_gpio.c ****     .unlocked_ioctl = compat_ioctl,
 469:/mnt/c/Users/31740/Desktop/newcore/drivers/gpio/stm32f4_gpio.c ****     .release = gpio_release,
 470:/mnt/c/Users/31740/Desktop/newcore/drivers/gpio/stm32f4_gpio.c **** };
 471:/mnt/c/Users/31740/Desktop/newcore/drivers/gpio/stm32f4_gpio.c **** 
 472:/mnt/c/Users/31740/Desktop/newcore/drivers/gpio/stm32f4_gpio.c **** static int __init gpio_init(void)
 473:/mnt/c/Users/31740/Desktop/newcore/drivers/gpio/stm32f4_gpio.c **** {
 1072              		.loc 1 473 1 is_stmt 1 view -0
 1073              		.cfi_startproc
 1074              		@ args = 0, pretend = 0, frame = 0
 1075              		@ frame_needed = 0, uses_anonymous_args = 0
 1076 0000 70B5     		push	{r4, r5, r6, lr}
 1077              	.LCFI5:
 1078              		.cfi_def_cfa_offset 16
 1079              		.cfi_offset 4, -16
 1080              		.cfi_offset 5, -12
 1081              		.cfi_offset 6, -8
 1082              		.cfi_offset 14, -4
 1083 0002 82B0     		sub	sp, sp, #8
 1084              	.LCFI6:
 1085              		.cfi_def_cfa_offset 24
 474:/mnt/c/Users/31740/Desktop/newcore/drivers/gpio/stm32f4_gpio.c ****     int major = register_chrdev(0, "gpios", &gpio_fops);
 1086              		.loc 1 474 5 view .LVU297
 1087              	.LVL110:
 1088              	.LBB24:
 1089              	.LBI24:
 1090              		.file 4 "/mnt/c/Users/31740/Desktop/newcore/include/linux/fs.h"
   1:/mnt/c/Users/31740/Desktop/newcore/include/linux/fs.h **** /* SPDX-License-Identifier: GPL-2.0 */
   2:/mnt/c/Users/31740/Desktop/newcore/include/linux/fs.h **** #ifndef _LINUX_FS_H
   3:/mnt/c/Users/31740/Desktop/newcore/include/linux/fs.h **** #define _LINUX_FS_H
   4:/mnt/c/Users/31740/Desktop/newcore/include/linux/fs.h **** 
   5:/mnt/c/Users/31740/Desktop/newcore/include/linux/fs.h **** #include <linux/types.h>
   6:/mnt/c/Users/31740/Desktop/newcore/include/linux/fs.h **** #include <linux/errseq.h> 
   7:/mnt/c/Users/31740/Desktop/newcore/include/linux/fs.h **** #include <linux/spinlock.h> 
   8:/mnt/c/Users/31740/Desktop/newcore/include/linux/fs.h **** #include <linux/list.h>
   9:/mnt/c/Users/31740/Desktop/newcore/include/linux/fs.h **** #include <linux/rbtree_types.h>  
  10:/mnt/c/Users/31740/Desktop/newcore/include/linux/fs.h **** #include <linux/uuid.h>  
  11:/mnt/c/Users/31740/Desktop/newcore/include/linux/fs.h **** #include <linux/uidgid_types.h>   
  12:/mnt/c/Users/31740/Desktop/newcore/include/linux/fs.h **** #include <linux/projid.h>       
  13:/mnt/c/Users/31740/Desktop/newcore/include/linux/fs.h **** #include <linux/time64.h> 
  14:/mnt/c/Users/31740/Desktop/newcore/include/linux/fs.h **** #include <linux/mnt_idmapping.h>  
  15:/mnt/c/Users/31740/Desktop/newcore/include/linux/fs.h **** #include <linux/mutex.h>         
  16:/mnt/c/Users/31740/Desktop/newcore/include/linux/fs.h **** #include <linux/uio.h>              
  17:/mnt/c/Users/31740/Desktop/newcore/include/linux/fs.h **** #include <linux/migrate_mode.h>  
  18:/mnt/c/Users/31740/Desktop/newcore/include/linux/fs.h **** #include <linux/raid/pq.h> 
  19:/mnt/c/Users/31740/Desktop/newcore/include/linux/fs.h **** #include <linux/lockdep_types.h>
  20:/mnt/c/Users/31740/Desktop/newcore/include/linux/fs.h **** #include <linux/wait.h>				
ARM GAS  /tmp/ccaQsqPk.s 			page 38


  21:/mnt/c/Users/31740/Desktop/newcore/include/linux/fs.h **** #include <linux/pipe_fs_i.h>
  22:/mnt/c/Users/31740/Desktop/newcore/include/linux/fs.h **** #include <linux/fcntl.h>
  23:/mnt/c/Users/31740/Desktop/newcore/include/linux/fs.h **** #include <linux/xarray.h>
  24:/mnt/c/Users/31740/Desktop/newcore/include/linux/fs.h **** #include <linux/blkdev.h>
  25:/mnt/c/Users/31740/Desktop/newcore/include/linux/fs.h **** #include <linux/dcache.h>
  26:/mnt/c/Users/31740/Desktop/newcore/include/linux/fs.h **** #include <linux/mm_type.h>
  27:/mnt/c/Users/31740/Desktop/newcore/include/linux/fs.h **** #include <linux/statfs.h>
  28:/mnt/c/Users/31740/Desktop/newcore/include/linux/fs.h **** #include <linux/stat.h>
  29:/mnt/c/Users/31740/Desktop/newcore/include/linux/fs.h **** #include <linux/path.h>
  30:/mnt/c/Users/31740/Desktop/newcore/include/linux/fs.h **** #include <linux/fs_types.h>
  31:/mnt/c/Users/31740/Desktop/newcore/include/linux/fs.h **** 
  32:/mnt/c/Users/31740/Desktop/newcore/include/linux/fs.h **** struct dentry;
  33:/mnt/c/Users/31740/Desktop/newcore/include/linux/fs.h **** struct file;
  34:/mnt/c/Users/31740/Desktop/newcore/include/linux/fs.h **** struct inode;
  35:/mnt/c/Users/31740/Desktop/newcore/include/linux/fs.h **** struct kiocb;
  36:/mnt/c/Users/31740/Desktop/newcore/include/linux/fs.h **** struct file_operations;
  37:/mnt/c/Users/31740/Desktop/newcore/include/linux/fs.h **** struct inode_operations  ;
  38:/mnt/c/Users/31740/Desktop/newcore/include/linux/fs.h **** struct dentry_operations ;
  39:/mnt/c/Users/31740/Desktop/newcore/include/linux/fs.h **** struct writeback_control ;
  40:/mnt/c/Users/31740/Desktop/newcore/include/linux/fs.h **** struct address_space;
  41:/mnt/c/Users/31740/Desktop/newcore/include/linux/fs.h **** struct seq_file ;
  42:/mnt/c/Users/31740/Desktop/newcore/include/linux/fs.h **** struct shrink_control;
  43:/mnt/c/Users/31740/Desktop/newcore/include/linux/fs.h **** struct file_system_type;
  44:/mnt/c/Users/31740/Desktop/newcore/include/linux/fs.h **** struct buffer_head;
  45:/mnt/c/Users/31740/Desktop/newcore/include/linux/fs.h **** struct readahead_control;
  46:/mnt/c/Users/31740/Desktop/newcore/include/linux/fs.h **** 
  47:/mnt/c/Users/31740/Desktop/newcore/include/linux/fs.h **** #define MAY_EXEC		0x00000001
  48:/mnt/c/Users/31740/Desktop/newcore/include/linux/fs.h **** #define MAY_WRITE		0x00000002
  49:/mnt/c/Users/31740/Desktop/newcore/include/linux/fs.h **** #define MAY_READ		0x00000004
  50:/mnt/c/Users/31740/Desktop/newcore/include/linux/fs.h **** #define MAY_APPEND		0x00000008
  51:/mnt/c/Users/31740/Desktop/newcore/include/linux/fs.h **** #define MAY_ACCESS		0x00000010
  52:/mnt/c/Users/31740/Desktop/newcore/include/linux/fs.h **** #define MAY_OPEN		0x00000020
  53:/mnt/c/Users/31740/Desktop/newcore/include/linux/fs.h **** #define MAY_CHDIR		0x00000040
  54:/mnt/c/Users/31740/Desktop/newcore/include/linux/fs.h **** /* called from RCU mode, don't block */
  55:/mnt/c/Users/31740/Desktop/newcore/include/linux/fs.h **** #define MAY_NOT_BLOCK		0x00000080
  56:/mnt/c/Users/31740/Desktop/newcore/include/linux/fs.h **** 
  57:/mnt/c/Users/31740/Desktop/newcore/include/linux/fs.h **** /*
  58:/mnt/c/Users/31740/Desktop/newcore/include/linux/fs.h ****  * flags in file.f_mode.  Note that FMODE_READ and FMODE_WRITE must correspond
  59:/mnt/c/Users/31740/Desktop/newcore/include/linux/fs.h ****  * to O_WRONLY and O_RDWR via the strange trick in do_dentry_open()
  60:/mnt/c/Users/31740/Desktop/newcore/include/linux/fs.h ****  */
  61:/mnt/c/Users/31740/Desktop/newcore/include/linux/fs.h **** 
  62:/mnt/c/Users/31740/Desktop/newcore/include/linux/fs.h **** /* file is open for reading */
  63:/mnt/c/Users/31740/Desktop/newcore/include/linux/fs.h **** #define FMODE_READ		((__force fmode_t)(1 << 0))
  64:/mnt/c/Users/31740/Desktop/newcore/include/linux/fs.h **** /* file is open for writing */
  65:/mnt/c/Users/31740/Desktop/newcore/include/linux/fs.h **** #define FMODE_WRITE		((__force fmode_t)(1 << 1))
  66:/mnt/c/Users/31740/Desktop/newcore/include/linux/fs.h **** /* file is seekable */
  67:/mnt/c/Users/31740/Desktop/newcore/include/linux/fs.h **** #define FMODE_LSEEK		((__force fmode_t)(1 << 2))
  68:/mnt/c/Users/31740/Desktop/newcore/include/linux/fs.h **** /* file can be accessed using pread */
  69:/mnt/c/Users/31740/Desktop/newcore/include/linux/fs.h **** #define FMODE_PREAD		((__force fmode_t)(1 << 3))
  70:/mnt/c/Users/31740/Desktop/newcore/include/linux/fs.h **** /* file can be accessed using pwrite */
  71:/mnt/c/Users/31740/Desktop/newcore/include/linux/fs.h **** #define FMODE_PWRITE		((__force fmode_t)(1 << 4))
  72:/mnt/c/Users/31740/Desktop/newcore/include/linux/fs.h **** /* File is opened for execution with sys_execve / sys_uselib */
  73:/mnt/c/Users/31740/Desktop/newcore/include/linux/fs.h **** #define FMODE_EXEC		((__force fmode_t)(1 << 5))
  74:/mnt/c/Users/31740/Desktop/newcore/include/linux/fs.h **** /* File writes are restricted (block device specific) */
  75:/mnt/c/Users/31740/Desktop/newcore/include/linux/fs.h **** #define FMODE_WRITE_RESTRICTED	((__force fmode_t)(1 << 6))
  76:/mnt/c/Users/31740/Desktop/newcore/include/linux/fs.h **** /* File supports atomic writes */
  77:/mnt/c/Users/31740/Desktop/newcore/include/linux/fs.h **** #define FMODE_CAN_ATOMIC_WRITE	((__force fmode_t)(1 << 7))
ARM GAS  /tmp/ccaQsqPk.s 			page 39


  78:/mnt/c/Users/31740/Desktop/newcore/include/linux/fs.h **** 
  79:/mnt/c/Users/31740/Desktop/newcore/include/linux/fs.h **** /* FMODE_* bit 8 */
  80:/mnt/c/Users/31740/Desktop/newcore/include/linux/fs.h **** 
  81:/mnt/c/Users/31740/Desktop/newcore/include/linux/fs.h **** /* 32bit hashes as llseek() offset (for directories) */
  82:/mnt/c/Users/31740/Desktop/newcore/include/linux/fs.h **** #define FMODE_32BITHASH         ((__force fmode_t)(1 << 9))
  83:/mnt/c/Users/31740/Desktop/newcore/include/linux/fs.h **** /* 64bit hashes as llseek() offset (for directories) */
  84:/mnt/c/Users/31740/Desktop/newcore/include/linux/fs.h **** #define FMODE_64BITHASH         ((__force fmode_t)(1 << 10))
  85:/mnt/c/Users/31740/Desktop/newcore/include/linux/fs.h **** 
  86:/mnt/c/Users/31740/Desktop/newcore/include/linux/fs.h **** /*
  87:/mnt/c/Users/31740/Desktop/newcore/include/linux/fs.h ****  * Don't update ctime and mtime.
  88:/mnt/c/Users/31740/Desktop/newcore/include/linux/fs.h ****  *
  89:/mnt/c/Users/31740/Desktop/newcore/include/linux/fs.h ****  * Currently a special hack for the XFS open_by_handle ioctl, but we'll
  90:/mnt/c/Users/31740/Desktop/newcore/include/linux/fs.h ****  * hopefully graduate it to a proper O_CMTIME flag supported by open(2) soon.
  91:/mnt/c/Users/31740/Desktop/newcore/include/linux/fs.h ****  */
  92:/mnt/c/Users/31740/Desktop/newcore/include/linux/fs.h **** #define FMODE_NOCMTIME		((__force fmode_t)(1 << 11))
  93:/mnt/c/Users/31740/Desktop/newcore/include/linux/fs.h **** 
  94:/mnt/c/Users/31740/Desktop/newcore/include/linux/fs.h **** /* Expect random access pattern */
  95:/mnt/c/Users/31740/Desktop/newcore/include/linux/fs.h **** #define FMODE_RANDOM		((__force fmode_t)(1 << 12))
  96:/mnt/c/Users/31740/Desktop/newcore/include/linux/fs.h **** 
  97:/mnt/c/Users/31740/Desktop/newcore/include/linux/fs.h **** /* FMODE_* bit 13 */
  98:/mnt/c/Users/31740/Desktop/newcore/include/linux/fs.h **** 
  99:/mnt/c/Users/31740/Desktop/newcore/include/linux/fs.h **** /* File is opened with O_PATH; almost nothing can be done with it */
 100:/mnt/c/Users/31740/Desktop/newcore/include/linux/fs.h **** #define FMODE_PATH		((__force fmode_t)(1 << 14))
 101:/mnt/c/Users/31740/Desktop/newcore/include/linux/fs.h **** 
 102:/mnt/c/Users/31740/Desktop/newcore/include/linux/fs.h **** /* File needs atomic accesses to f_pos */
 103:/mnt/c/Users/31740/Desktop/newcore/include/linux/fs.h **** #define FMODE_ATOMIC_POS	((__force fmode_t)(1 << 15))
 104:/mnt/c/Users/31740/Desktop/newcore/include/linux/fs.h **** /* Write access to underlying fs */
 105:/mnt/c/Users/31740/Desktop/newcore/include/linux/fs.h **** #define FMODE_WRITER		((__force fmode_t)(1 << 16))
 106:/mnt/c/Users/31740/Desktop/newcore/include/linux/fs.h **** /* Has read method(s) */
 107:/mnt/c/Users/31740/Desktop/newcore/include/linux/fs.h **** #define FMODE_CAN_READ          ((__force fmode_t)(1 << 17))
 108:/mnt/c/Users/31740/Desktop/newcore/include/linux/fs.h **** /* Has write method(s) */
 109:/mnt/c/Users/31740/Desktop/newcore/include/linux/fs.h **** #define FMODE_CAN_WRITE         ((__force fmode_t)(1 << 18))
 110:/mnt/c/Users/31740/Desktop/newcore/include/linux/fs.h **** 
 111:/mnt/c/Users/31740/Desktop/newcore/include/linux/fs.h **** #define FMODE_OPENED		((__force fmode_t)(1 << 19))
 112:/mnt/c/Users/31740/Desktop/newcore/include/linux/fs.h **** #define FMODE_CREATED		((__force fmode_t)(1 << 20))
 113:/mnt/c/Users/31740/Desktop/newcore/include/linux/fs.h **** 
 114:/mnt/c/Users/31740/Desktop/newcore/include/linux/fs.h **** /* File is stream-like */
 115:/mnt/c/Users/31740/Desktop/newcore/include/linux/fs.h **** #define FMODE_STREAM		((__force fmode_t)(1 << 21))
 116:/mnt/c/Users/31740/Desktop/newcore/include/linux/fs.h **** 
 117:/mnt/c/Users/31740/Desktop/newcore/include/linux/fs.h **** /* File supports DIRECT IO */
 118:/mnt/c/Users/31740/Desktop/newcore/include/linux/fs.h **** #define	FMODE_CAN_ODIRECT	((__force fmode_t)(1 << 22))
 119:/mnt/c/Users/31740/Desktop/newcore/include/linux/fs.h **** 
 120:/mnt/c/Users/31740/Desktop/newcore/include/linux/fs.h **** #define	FMODE_NOREUSE		((__force fmode_t)(1 << 23))
 121:/mnt/c/Users/31740/Desktop/newcore/include/linux/fs.h **** 
 122:/mnt/c/Users/31740/Desktop/newcore/include/linux/fs.h **** /* FMODE_* bit 24 */
 123:/mnt/c/Users/31740/Desktop/newcore/include/linux/fs.h **** 
 124:/mnt/c/Users/31740/Desktop/newcore/include/linux/fs.h **** /* File is embedded in backing_file object */
 125:/mnt/c/Users/31740/Desktop/newcore/include/linux/fs.h **** #define FMODE_BACKING		((__force fmode_t)(1 << 25))
 126:/mnt/c/Users/31740/Desktop/newcore/include/linux/fs.h **** 
 127:/mnt/c/Users/31740/Desktop/newcore/include/linux/fs.h **** /* File was opened by fanotify and shouldn't generate fanotify events */
 128:/mnt/c/Users/31740/Desktop/newcore/include/linux/fs.h **** #define FMODE_NONOTIFY		((__force fmode_t)(1 << 26))
 129:/mnt/c/Users/31740/Desktop/newcore/include/linux/fs.h **** 
 130:/mnt/c/Users/31740/Desktop/newcore/include/linux/fs.h **** /* File is capable of returning -EAGAIN if I/O will block */
 131:/mnt/c/Users/31740/Desktop/newcore/include/linux/fs.h **** #define FMODE_NOWAIT		((__force fmode_t)(1 << 27))
 132:/mnt/c/Users/31740/Desktop/newcore/include/linux/fs.h **** 
 133:/mnt/c/Users/31740/Desktop/newcore/include/linux/fs.h **** /* File represents mount that needs unmounting */
 134:/mnt/c/Users/31740/Desktop/newcore/include/linux/fs.h **** #define FMODE_NEED_UNMOUNT	((__force fmode_t)(1 << 28))
ARM GAS  /tmp/ccaQsqPk.s 			page 40


 135:/mnt/c/Users/31740/Desktop/newcore/include/linux/fs.h **** 
 136:/mnt/c/Users/31740/Desktop/newcore/include/linux/fs.h **** /* File does not contribute to nr_files count */
 137:/mnt/c/Users/31740/Desktop/newcore/include/linux/fs.h **** #define FMODE_NOACCOUNT		((__force fmode_t)(1 << 29))
 138:/mnt/c/Users/31740/Desktop/newcore/include/linux/fs.h **** 
 139:/mnt/c/Users/31740/Desktop/newcore/include/linux/fs.h **** /*
 140:/mnt/c/Users/31740/Desktop/newcore/include/linux/fs.h ****  * Attribute flags.  These should be or-ed together to figure out what
 141:/mnt/c/Users/31740/Desktop/newcore/include/linux/fs.h ****  * has been changed!
 142:/mnt/c/Users/31740/Desktop/newcore/include/linux/fs.h ****  */
 143:/mnt/c/Users/31740/Desktop/newcore/include/linux/fs.h **** #define ATTR_MODE	(1 << 0)
 144:/mnt/c/Users/31740/Desktop/newcore/include/linux/fs.h **** #define ATTR_UID	(1 << 1)
 145:/mnt/c/Users/31740/Desktop/newcore/include/linux/fs.h **** #define ATTR_GID	(1 << 2)
 146:/mnt/c/Users/31740/Desktop/newcore/include/linux/fs.h **** #define ATTR_SIZE	(1 << 3)
 147:/mnt/c/Users/31740/Desktop/newcore/include/linux/fs.h **** #define ATTR_ATIME	(1 << 4)
 148:/mnt/c/Users/31740/Desktop/newcore/include/linux/fs.h **** #define ATTR_MTIME	(1 << 5)
 149:/mnt/c/Users/31740/Desktop/newcore/include/linux/fs.h **** #define ATTR_CTIME	(1 << 6)
 150:/mnt/c/Users/31740/Desktop/newcore/include/linux/fs.h **** #define ATTR_ATIME_SET	(1 << 7)
 151:/mnt/c/Users/31740/Desktop/newcore/include/linux/fs.h **** #define ATTR_MTIME_SET	(1 << 8)
 152:/mnt/c/Users/31740/Desktop/newcore/include/linux/fs.h **** #define ATTR_FORCE	(1 << 9) /* Not a change, but a change it */
 153:/mnt/c/Users/31740/Desktop/newcore/include/linux/fs.h **** #define ATTR_KILL_SUID	(1 << 11)
 154:/mnt/c/Users/31740/Desktop/newcore/include/linux/fs.h **** #define ATTR_KILL_SGID	(1 << 12)
 155:/mnt/c/Users/31740/Desktop/newcore/include/linux/fs.h **** #define ATTR_FILE	(1 << 13)
 156:/mnt/c/Users/31740/Desktop/newcore/include/linux/fs.h **** #define ATTR_KILL_PRIV	(1 << 14)
 157:/mnt/c/Users/31740/Desktop/newcore/include/linux/fs.h **** #define ATTR_OPEN	(1 << 15) /* Truncating from open(O_TRUNC) */
 158:/mnt/c/Users/31740/Desktop/newcore/include/linux/fs.h **** #define ATTR_TIMES_SET	(1 << 16)
 159:/mnt/c/Users/31740/Desktop/newcore/include/linux/fs.h **** #define ATTR_TOUCH	(1 << 17)
 160:/mnt/c/Users/31740/Desktop/newcore/include/linux/fs.h **** #define ATTR_DELEG	(1 << 18) /* Delegated attrs. Don't break write delegations */
 161:/mnt/c/Users/31740/Desktop/newcore/include/linux/fs.h **** 
 162:/mnt/c/Users/31740/Desktop/newcore/include/linux/fs.h **** /*
 163:/mnt/c/Users/31740/Desktop/newcore/include/linux/fs.h ****  * Whiteout is represented by a char device.  The following constants define the
 164:/mnt/c/Users/31740/Desktop/newcore/include/linux/fs.h ****  * mode and device number to use.
 165:/mnt/c/Users/31740/Desktop/newcore/include/linux/fs.h ****  */
 166:/mnt/c/Users/31740/Desktop/newcore/include/linux/fs.h **** #define WHITEOUT_MODE 0
 167:/mnt/c/Users/31740/Desktop/newcore/include/linux/fs.h **** #define WHITEOUT_DEV 0
 168:/mnt/c/Users/31740/Desktop/newcore/include/linux/fs.h **** 
 169:/mnt/c/Users/31740/Desktop/newcore/include/linux/fs.h **** 
 170:/mnt/c/Users/31740/Desktop/newcore/include/linux/fs.h **** 
 171:/mnt/c/Users/31740/Desktop/newcore/include/linux/fs.h **** /********************************************************
 172:/mnt/c/Users/31740/Desktop/newcore/include/linux/fs.h ****  * 														*
 173:/mnt/c/Users/31740/Desktop/newcore/include/linux/fs.h ****  * 			   		     iattr  						*
 174:/mnt/c/Users/31740/Desktop/newcore/include/linux/fs.h ****  *														* 
 175:/mnt/c/Users/31740/Desktop/newcore/include/linux/fs.h **** *********************************************************/
 176:/mnt/c/Users/31740/Desktop/newcore/include/linux/fs.h **** 
 177:/mnt/c/Users/31740/Desktop/newcore/include/linux/fs.h **** 
 178:/mnt/c/Users/31740/Desktop/newcore/include/linux/fs.h **** struct iattr {
 179:/mnt/c/Users/31740/Desktop/newcore/include/linux/fs.h **** 	unsigned int	ia_valid;
 180:/mnt/c/Users/31740/Desktop/newcore/include/linux/fs.h **** 	umode_t		ia_mode;
 181:/mnt/c/Users/31740/Desktop/newcore/include/linux/fs.h **** 	union {
 182:/mnt/c/Users/31740/Desktop/newcore/include/linux/fs.h **** 		kuid_t		ia_uid;
 183:/mnt/c/Users/31740/Desktop/newcore/include/linux/fs.h **** 		vfsuid_t	ia_vfsuid;
 184:/mnt/c/Users/31740/Desktop/newcore/include/linux/fs.h **** 	};
 185:/mnt/c/Users/31740/Desktop/newcore/include/linux/fs.h **** 	union {
 186:/mnt/c/Users/31740/Desktop/newcore/include/linux/fs.h **** 		kgid_t		ia_gid;
 187:/mnt/c/Users/31740/Desktop/newcore/include/linux/fs.h **** 		vfsgid_t	ia_vfsgid;
 188:/mnt/c/Users/31740/Desktop/newcore/include/linux/fs.h **** 	};
 189:/mnt/c/Users/31740/Desktop/newcore/include/linux/fs.h **** 	loff_t		ia_size;
 190:/mnt/c/Users/31740/Desktop/newcore/include/linux/fs.h **** 	struct timespec64 ia_atime;
 191:/mnt/c/Users/31740/Desktop/newcore/include/linux/fs.h **** 	struct timespec64 ia_mtime;
ARM GAS  /tmp/ccaQsqPk.s 			page 41


 192:/mnt/c/Users/31740/Desktop/newcore/include/linux/fs.h **** 	struct timespec64 ia_ctime;
 193:/mnt/c/Users/31740/Desktop/newcore/include/linux/fs.h **** 	struct file	*ia_file;
 194:/mnt/c/Users/31740/Desktop/newcore/include/linux/fs.h **** };
 195:/mnt/c/Users/31740/Desktop/newcore/include/linux/fs.h **** 
 196:/mnt/c/Users/31740/Desktop/newcore/include/linux/fs.h **** /********************************************************
 197:/mnt/c/Users/31740/Desktop/newcore/include/linux/fs.h ****  * 														*
 198:/mnt/c/Users/31740/Desktop/newcore/include/linux/fs.h ****  * 			     address_space  						*
 199:/mnt/c/Users/31740/Desktop/newcore/include/linux/fs.h ****  *														* 
 200:/mnt/c/Users/31740/Desktop/newcore/include/linux/fs.h **** *********************************************************/
 201:/mnt/c/Users/31740/Desktop/newcore/include/linux/fs.h **** struct file_ra_state {
 202:/mnt/c/Users/31740/Desktop/newcore/include/linux/fs.h **** 	pgoff_t start;
 203:/mnt/c/Users/31740/Desktop/newcore/include/linux/fs.h **** 	unsigned int size;
 204:/mnt/c/Users/31740/Desktop/newcore/include/linux/fs.h **** 	unsigned int async_size;
 205:/mnt/c/Users/31740/Desktop/newcore/include/linux/fs.h **** 	unsigned int ra_pages;
 206:/mnt/c/Users/31740/Desktop/newcore/include/linux/fs.h **** 	unsigned int mmap_miss;
 207:/mnt/c/Users/31740/Desktop/newcore/include/linux/fs.h **** 	loff_t prev_pos;
 208:/mnt/c/Users/31740/Desktop/newcore/include/linux/fs.h **** };
 209:/mnt/c/Users/31740/Desktop/newcore/include/linux/fs.h **** 
 210:/mnt/c/Users/31740/Desktop/newcore/include/linux/fs.h **** struct iov_iter {
 211:/mnt/c/Users/31740/Desktop/newcore/include/linux/fs.h **** 	u8 iter_type;
 212:/mnt/c/Users/31740/Desktop/newcore/include/linux/fs.h **** 	bool nofault;
 213:/mnt/c/Users/31740/Desktop/newcore/include/linux/fs.h **** 	bool data_source;
 214:/mnt/c/Users/31740/Desktop/newcore/include/linux/fs.h **** 	size_t iov_offset;
 215:/mnt/c/Users/31740/Desktop/newcore/include/linux/fs.h **** 	/*
 216:/mnt/c/Users/31740/Desktop/newcore/include/linux/fs.h **** 	 * Hack alert: overlay ubuf_iovec with iovec + count, so
 217:/mnt/c/Users/31740/Desktop/newcore/include/linux/fs.h **** 	 * that the members resolve correctly regardless of the type
 218:/mnt/c/Users/31740/Desktop/newcore/include/linux/fs.h **** 	 * of iterator used. This means that you can use:
 219:/mnt/c/Users/31740/Desktop/newcore/include/linux/fs.h **** 	 *
 220:/mnt/c/Users/31740/Desktop/newcore/include/linux/fs.h **** 	 * &iter->__ubuf_iovec or iter->__iov
 221:/mnt/c/Users/31740/Desktop/newcore/include/linux/fs.h **** 	 *
 222:/mnt/c/Users/31740/Desktop/newcore/include/linux/fs.h **** 	 * interchangably for the user_backed cases, hence simplifying
 223:/mnt/c/Users/31740/Desktop/newcore/include/linux/fs.h **** 	 * some of the cases that need to deal with both.
 224:/mnt/c/Users/31740/Desktop/newcore/include/linux/fs.h **** 	 */
 225:/mnt/c/Users/31740/Desktop/newcore/include/linux/fs.h **** 	union {
 226:/mnt/c/Users/31740/Desktop/newcore/include/linux/fs.h **** 		/*
 227:/mnt/c/Users/31740/Desktop/newcore/include/linux/fs.h **** 		 * This really should be a const, but we cannot do that without
 228:/mnt/c/Users/31740/Desktop/newcore/include/linux/fs.h **** 		 * also modifying any of the zero-filling iter init functions.
 229:/mnt/c/Users/31740/Desktop/newcore/include/linux/fs.h **** 		 * Leave it non-const for now, but it should be treated as such.
 230:/mnt/c/Users/31740/Desktop/newcore/include/linux/fs.h **** 		 */
 231:/mnt/c/Users/31740/Desktop/newcore/include/linux/fs.h **** 		struct iovec __ubuf_iovec;
 232:/mnt/c/Users/31740/Desktop/newcore/include/linux/fs.h **** 		struct {
 233:/mnt/c/Users/31740/Desktop/newcore/include/linux/fs.h **** 			union {
 234:/mnt/c/Users/31740/Desktop/newcore/include/linux/fs.h **** 				/* use iter_iov() to get the current vec */
 235:/mnt/c/Users/31740/Desktop/newcore/include/linux/fs.h **** 				const struct iovec *__iov;
 236:/mnt/c/Users/31740/Desktop/newcore/include/linux/fs.h **** 				const struct kvec *kvec;
 237:/mnt/c/Users/31740/Desktop/newcore/include/linux/fs.h **** 				const struct bio_vec *bvec;
 238:/mnt/c/Users/31740/Desktop/newcore/include/linux/fs.h **** 				const struct folio_queue *folioq;
 239:/mnt/c/Users/31740/Desktop/newcore/include/linux/fs.h **** 				struct xarray *xarray;
 240:/mnt/c/Users/31740/Desktop/newcore/include/linux/fs.h **** 				void __user *ubuf;
 241:/mnt/c/Users/31740/Desktop/newcore/include/linux/fs.h **** 			};
 242:/mnt/c/Users/31740/Desktop/newcore/include/linux/fs.h **** 			size_t count;
 243:/mnt/c/Users/31740/Desktop/newcore/include/linux/fs.h **** 		};
 244:/mnt/c/Users/31740/Desktop/newcore/include/linux/fs.h **** 	};
 245:/mnt/c/Users/31740/Desktop/newcore/include/linux/fs.h **** 	union {
 246:/mnt/c/Users/31740/Desktop/newcore/include/linux/fs.h **** 		unsigned long nr_segs;
 247:/mnt/c/Users/31740/Desktop/newcore/include/linux/fs.h **** 		u8 folioq_slot;
 248:/mnt/c/Users/31740/Desktop/newcore/include/linux/fs.h **** 		loff_t xarray_start;
ARM GAS  /tmp/ccaQsqPk.s 			page 42


 249:/mnt/c/Users/31740/Desktop/newcore/include/linux/fs.h **** 	};
 250:/mnt/c/Users/31740/Desktop/newcore/include/linux/fs.h **** };
 251:/mnt/c/Users/31740/Desktop/newcore/include/linux/fs.h **** 
 252:/mnt/c/Users/31740/Desktop/newcore/include/linux/fs.h **** struct address_space_operations {
 253:/mnt/c/Users/31740/Desktop/newcore/include/linux/fs.h **** 	int (*writepage)(struct page *page, struct writeback_control *wbc);
 254:/mnt/c/Users/31740/Desktop/newcore/include/linux/fs.h **** 	int (*read_folio)(struct file *, struct folio *);
 255:/mnt/c/Users/31740/Desktop/newcore/include/linux/fs.h **** 
 256:/mnt/c/Users/31740/Desktop/newcore/include/linux/fs.h **** 	/* Write back some dirty pages from this mapping. */
 257:/mnt/c/Users/31740/Desktop/newcore/include/linux/fs.h **** 	int (*writepages)(struct address_space *, struct writeback_control *);
 258:/mnt/c/Users/31740/Desktop/newcore/include/linux/fs.h **** 
 259:/mnt/c/Users/31740/Desktop/newcore/include/linux/fs.h **** 	/* Mark a folio dirty.  Return true if this dirtied it */
 260:/mnt/c/Users/31740/Desktop/newcore/include/linux/fs.h **** 	bool (*dirty_folio)(struct address_space *, struct folio *);
 261:/mnt/c/Users/31740/Desktop/newcore/include/linux/fs.h **** 
 262:/mnt/c/Users/31740/Desktop/newcore/include/linux/fs.h **** 	void (*readahead)(struct readahead_control *);
 263:/mnt/c/Users/31740/Desktop/newcore/include/linux/fs.h **** 
 264:/mnt/c/Users/31740/Desktop/newcore/include/linux/fs.h **** 	int (*write_begin)(struct file *, struct address_space *mapping,
 265:/mnt/c/Users/31740/Desktop/newcore/include/linux/fs.h **** 				loff_t pos, unsigned len,
 266:/mnt/c/Users/31740/Desktop/newcore/include/linux/fs.h **** 				struct folio **foliop, void **fsdata);
 267:/mnt/c/Users/31740/Desktop/newcore/include/linux/fs.h **** 	int (*write_end)(struct file *, struct address_space *mapping,
 268:/mnt/c/Users/31740/Desktop/newcore/include/linux/fs.h **** 				loff_t pos, unsigned len, unsigned copied,
 269:/mnt/c/Users/31740/Desktop/newcore/include/linux/fs.h **** 				struct folio *folio, void *fsdata);
 270:/mnt/c/Users/31740/Desktop/newcore/include/linux/fs.h **** 
 271:/mnt/c/Users/31740/Desktop/newcore/include/linux/fs.h **** 	/* Unfortunately this kludge is needed for FIBMAP. Don't use it */
 272:/mnt/c/Users/31740/Desktop/newcore/include/linux/fs.h **** 	sector_t (*bmap)(struct address_space *, sector_t);
 273:/mnt/c/Users/31740/Desktop/newcore/include/linux/fs.h **** 	void (*invalidate_folio) (struct folio *, size_t offset, size_t len);
 274:/mnt/c/Users/31740/Desktop/newcore/include/linux/fs.h **** 	bool (*release_folio)(struct folio *, gfp_t);
 275:/mnt/c/Users/31740/Desktop/newcore/include/linux/fs.h **** 	void (*free_folio)(struct folio *folio);
 276:/mnt/c/Users/31740/Desktop/newcore/include/linux/fs.h **** 	ssize_t (*direct_IO)(struct kiocb *, struct iov_iter *iter);
 277:/mnt/c/Users/31740/Desktop/newcore/include/linux/fs.h **** 	/*
 278:/mnt/c/Users/31740/Desktop/newcore/include/linux/fs.h **** 	 * migrate the contents of a folio to the specified target. If
 279:/mnt/c/Users/31740/Desktop/newcore/include/linux/fs.h **** 	 * migrate_mode is MIGRATE_ASYNC, it must not block.
 280:/mnt/c/Users/31740/Desktop/newcore/include/linux/fs.h **** 	 */
 281:/mnt/c/Users/31740/Desktop/newcore/include/linux/fs.h **** 	int (*migrate_folio)(struct address_space *, struct folio *dst,
 282:/mnt/c/Users/31740/Desktop/newcore/include/linux/fs.h **** 			struct folio *src, enum migrate_mode);
 283:/mnt/c/Users/31740/Desktop/newcore/include/linux/fs.h **** 	int (*launder_folio)(struct folio *);
 284:/mnt/c/Users/31740/Desktop/newcore/include/linux/fs.h **** 	bool (*is_partially_uptodate) (struct folio *, size_t from,
 285:/mnt/c/Users/31740/Desktop/newcore/include/linux/fs.h **** 			size_t count);
 286:/mnt/c/Users/31740/Desktop/newcore/include/linux/fs.h **** 	void (*is_dirty_writeback) (struct folio *, bool *dirty, bool *wb);
 287:/mnt/c/Users/31740/Desktop/newcore/include/linux/fs.h **** 	int (*error_remove_folio)(struct address_space *, struct folio *);
 288:/mnt/c/Users/31740/Desktop/newcore/include/linux/fs.h **** 
 289:/mnt/c/Users/31740/Desktop/newcore/include/linux/fs.h **** 	/* swapfile support */
 290:/mnt/c/Users/31740/Desktop/newcore/include/linux/fs.h **** 	// int (*swap_activate)(struct swap_info_struct *sis, struct file *file,
 291:/mnt/c/Users/31740/Desktop/newcore/include/linux/fs.h **** 	// 			sector_t *span);
 292:/mnt/c/Users/31740/Desktop/newcore/include/linux/fs.h **** 	// void (*swap_deactivate)(struct file *file);
 293:/mnt/c/Users/31740/Desktop/newcore/include/linux/fs.h **** 	// int (*swap_rw)(struct kiocb *iocb, struct iov_iter *iter);
 294:/mnt/c/Users/31740/Desktop/newcore/include/linux/fs.h **** };
 295:/mnt/c/Users/31740/Desktop/newcore/include/linux/fs.h **** 
 296:/mnt/c/Users/31740/Desktop/newcore/include/linux/fs.h ****  struct address_space {
 297:/mnt/c/Users/31740/Desktop/newcore/include/linux/fs.h **** 	struct inode		*host;
 298:/mnt/c/Users/31740/Desktop/newcore/include/linux/fs.h **** 	struct xarray		i_pages;
 299:/mnt/c/Users/31740/Desktop/newcore/include/linux/fs.h **** 	gfp_t			gfp_mask;
 300:/mnt/c/Users/31740/Desktop/newcore/include/linux/fs.h **** 	atomic_t		i_mmap_writable;
 301:/mnt/c/Users/31740/Desktop/newcore/include/linux/fs.h **** #ifdef CONFIG_READ_ONLY_THP_FOR_FS
 302:/mnt/c/Users/31740/Desktop/newcore/include/linux/fs.h **** 	/* number of thp, only for non-shmem files */
 303:/mnt/c/Users/31740/Desktop/newcore/include/linux/fs.h **** 	atomic_t		nr_thps;
 304:/mnt/c/Users/31740/Desktop/newcore/include/linux/fs.h **** #endif
 305:/mnt/c/Users/31740/Desktop/newcore/include/linux/fs.h **** 	struct rb_root_cached	i_mmap;
ARM GAS  /tmp/ccaQsqPk.s 			page 43


 306:/mnt/c/Users/31740/Desktop/newcore/include/linux/fs.h **** 	unsigned long		nrpages;
 307:/mnt/c/Users/31740/Desktop/newcore/include/linux/fs.h **** 	pgoff_t			writeback_index;
 308:/mnt/c/Users/31740/Desktop/newcore/include/linux/fs.h **** 	const struct address_space_operations *a_ops;
 309:/mnt/c/Users/31740/Desktop/newcore/include/linux/fs.h **** 	unsigned long		flags;
 310:/mnt/c/Users/31740/Desktop/newcore/include/linux/fs.h **** 	errseq_t		wb_err;
 311:/mnt/c/Users/31740/Desktop/newcore/include/linux/fs.h **** 	spinlock_t		i_private_lock;
 312:/mnt/c/Users/31740/Desktop/newcore/include/linux/fs.h **** 	struct list_head	i_private_list;
 313:/mnt/c/Users/31740/Desktop/newcore/include/linux/fs.h **** 	void *			i_private_data;
 314:/mnt/c/Users/31740/Desktop/newcore/include/linux/fs.h **** } __attribute__((aligned(sizeof(long)))) __randomize_layout;
 315:/mnt/c/Users/31740/Desktop/newcore/include/linux/fs.h **** 
 316:/mnt/c/Users/31740/Desktop/newcore/include/linux/fs.h **** /********************************************************
 317:/mnt/c/Users/31740/Desktop/newcore/include/linux/fs.h ****  * 														*
 318:/mnt/c/Users/31740/Desktop/newcore/include/linux/fs.h ****  * 			   		  file struct						*
 319:/mnt/c/Users/31740/Desktop/newcore/include/linux/fs.h ****  *														* 
 320:/mnt/c/Users/31740/Desktop/newcore/include/linux/fs.h **** *********************************************************/
 321:/mnt/c/Users/31740/Desktop/newcore/include/linux/fs.h **** 
 322:/mnt/c/Users/31740/Desktop/newcore/include/linux/fs.h **** struct io_uring {
 323:/mnt/c/Users/31740/Desktop/newcore/include/linux/fs.h **** 	uint8_t 	magic;
 324:/mnt/c/Users/31740/Desktop/newcore/include/linux/fs.h **** };
 325:/mnt/c/Users/31740/Desktop/newcore/include/linux/fs.h **** struct io_uring_cmd {
 326:/mnt/c/Users/31740/Desktop/newcore/include/linux/fs.h **** 	uint8_t 	magic;
 327:/mnt/c/Users/31740/Desktop/newcore/include/linux/fs.h **** };
 328:/mnt/c/Users/31740/Desktop/newcore/include/linux/fs.h **** struct fs_context {
 329:/mnt/c/Users/31740/Desktop/newcore/include/linux/fs.h **** 	uint8_t 	magic;
 330:/mnt/c/Users/31740/Desktop/newcore/include/linux/fs.h **** };
 331:/mnt/c/Users/31740/Desktop/newcore/include/linux/fs.h **** struct file_lease{
 332:/mnt/c/Users/31740/Desktop/newcore/include/linux/fs.h **** 	uint8_t 	magic;
 333:/mnt/c/Users/31740/Desktop/newcore/include/linux/fs.h **** };
 334:/mnt/c/Users/31740/Desktop/newcore/include/linux/fs.h **** struct file_lock {
 335:/mnt/c/Users/31740/Desktop/newcore/include/linux/fs.h **** 	uint8_t 	magic;
 336:/mnt/c/Users/31740/Desktop/newcore/include/linux/fs.h **** };
 337:/mnt/c/Users/31740/Desktop/newcore/include/linux/fs.h **** struct vm_area_struct{
 338:/mnt/c/Users/31740/Desktop/newcore/include/linux/fs.h **** 	uint8_t 	magic;
 339:/mnt/c/Users/31740/Desktop/newcore/include/linux/fs.h **** };
 340:/mnt/c/Users/31740/Desktop/newcore/include/linux/fs.h **** struct pipe_inode_info{
 341:/mnt/c/Users/31740/Desktop/newcore/include/linux/fs.h **** 	uint8_t 	magic;
 342:/mnt/c/Users/31740/Desktop/newcore/include/linux/fs.h **** };
 343:/mnt/c/Users/31740/Desktop/newcore/include/linux/fs.h **** struct readahead_control{
 344:/mnt/c/Users/31740/Desktop/newcore/include/linux/fs.h **** 	uint8_t 	magic;
 345:/mnt/c/Users/31740/Desktop/newcore/include/linux/fs.h **** };
 346:/mnt/c/Users/31740/Desktop/newcore/include/linux/fs.h **** 
 347:/mnt/c/Users/31740/Desktop/newcore/include/linux/fs.h **** struct fileattr {
 348:/mnt/c/Users/31740/Desktop/newcore/include/linux/fs.h **** 	uint8_t 	magic;
 349:/mnt/c/Users/31740/Desktop/newcore/include/linux/fs.h **** };
 350:/mnt/c/Users/31740/Desktop/newcore/include/linux/fs.h **** struct fiemap_extent_info {
 351:/mnt/c/Users/31740/Desktop/newcore/include/linux/fs.h **** 	uint8_t 	magic;
 352:/mnt/c/Users/31740/Desktop/newcore/include/linux/fs.h **** };
 353:/mnt/c/Users/31740/Desktop/newcore/include/linux/fs.h **** struct delayed_call {
 354:/mnt/c/Users/31740/Desktop/newcore/include/linux/fs.h **** 	uint8_t 	magic;
 355:/mnt/c/Users/31740/Desktop/newcore/include/linux/fs.h **** };
 356:/mnt/c/Users/31740/Desktop/newcore/include/linux/fs.h **** 
 357:/mnt/c/Users/31740/Desktop/newcore/include/linux/fs.h **** 
 358:/mnt/c/Users/31740/Desktop/newcore/include/linux/fs.h **** 
 359:/mnt/c/Users/31740/Desktop/newcore/include/linux/fs.h **** 
 360:/mnt/c/Users/31740/Desktop/newcore/include/linux/fs.h **** 
 361:/mnt/c/Users/31740/Desktop/newcore/include/linux/fs.h **** 
 362:/mnt/c/Users/31740/Desktop/newcore/include/linux/fs.h **** 
ARM GAS  /tmp/ccaQsqPk.s 			page 44


 363:/mnt/c/Users/31740/Desktop/newcore/include/linux/fs.h **** 
 364:/mnt/c/Users/31740/Desktop/newcore/include/linux/fs.h **** 
 365:/mnt/c/Users/31740/Desktop/newcore/include/linux/fs.h **** 
 366:/mnt/c/Users/31740/Desktop/newcore/include/linux/fs.h **** struct file {
 367:/mnt/c/Users/31740/Desktop/newcore/include/linux/fs.h **** 	struct mutex					f_ref;
 368:/mnt/c/Users/31740/Desktop/newcore/include/linux/fs.h **** 	struct mutex					f_lock;
 369:/mnt/c/Users/31740/Desktop/newcore/include/linux/fs.h **** 	fmode_t							f_mode;
 370:/mnt/c/Users/31740/Desktop/newcore/include/linux/fs.h **** 	const struct file_operations	*f_op;                            
 371:/mnt/c/Users/31740/Desktop/newcore/include/linux/fs.h **** 	//	struct address_space			*f_mapping;
 372:/mnt/c/Users/31740/Desktop/newcore/include/linux/fs.h **** 	void							*private_data;
 373:/mnt/c/Users/31740/Desktop/newcore/include/linux/fs.h **** 	struct inode					*f_inode;
 374:/mnt/c/Users/31740/Desktop/newcore/include/linux/fs.h **** 	unsigned int					f_flags;
 375:/mnt/c/Users/31740/Desktop/newcore/include/linux/fs.h **** 	unsigned int					f_iocb_flags;
 376:/mnt/c/Users/31740/Desktop/newcore/include/linux/fs.h **** 	char *						    f_path;
 377:/mnt/c/Users/31740/Desktop/newcore/include/linux/fs.h **** 	union {
 378:/mnt/c/Users/31740/Desktop/newcore/include/linux/fs.h **** 		struct mutex				f_pos_lock;
 379:/mnt/c/Users/31740/Desktop/newcore/include/linux/fs.h **** 		u64							f_pipe;
 380:/mnt/c/Users/31740/Desktop/newcore/include/linux/fs.h **** 	};
 381:/mnt/c/Users/31740/Desktop/newcore/include/linux/fs.h **** 	loff_t							f_pos;   //用于目录遍历
 382:/mnt/c/Users/31740/Desktop/newcore/include/linux/fs.h **** 	void *							f_private;
 383:/mnt/c/Users/31740/Desktop/newcore/include/linux/fs.h **** 	spinlock_t                      f_slock;
 384:/mnt/c/Users/31740/Desktop/newcore/include/linux/fs.h **** }__attribute__((aligned(sizeof(long)))) __randomize_layout;	
 385:/mnt/c/Users/31740/Desktop/newcore/include/linux/fs.h **** 
 386:/mnt/c/Users/31740/Desktop/newcore/include/linux/fs.h **** 
 387:/mnt/c/Users/31740/Desktop/newcore/include/linux/fs.h **** /********************************************************
 388:/mnt/c/Users/31740/Desktop/newcore/include/linux/fs.h ****  * 														*
 389:/mnt/c/Users/31740/Desktop/newcore/include/linux/fs.h ****  * 			   		  inode struct						*
 390:/mnt/c/Users/31740/Desktop/newcore/include/linux/fs.h ****  *														* 
 391:/mnt/c/Users/31740/Desktop/newcore/include/linux/fs.h **** *********************************************************/
 392:/mnt/c/Users/31740/Desktop/newcore/include/linux/fs.h **** 
 393:/mnt/c/Users/31740/Desktop/newcore/include/linux/fs.h **** #define IOP_FASTPERM	0x0001
 394:/mnt/c/Users/31740/Desktop/newcore/include/linux/fs.h **** #define IOP_LOOKUP	0x0002
 395:/mnt/c/Users/31740/Desktop/newcore/include/linux/fs.h **** #define IOP_NOFOLLOW	0x0004
 396:/mnt/c/Users/31740/Desktop/newcore/include/linux/fs.h **** #define IOP_XATTR	0x0008
 397:/mnt/c/Users/31740/Desktop/newcore/include/linux/fs.h **** #define IOP_DEFAULT_READLINK	0x0010
 398:/mnt/c/Users/31740/Desktop/newcore/include/linux/fs.h **** #define IOP_MGTIME	0x0020
 399:/mnt/c/Users/31740/Desktop/newcore/include/linux/fs.h **** 
 400:/mnt/c/Users/31740/Desktop/newcore/include/linux/fs.h **** /*
 401:/mnt/c/Users/31740/Desktop/newcore/include/linux/fs.h ****  * Keep mostly read-only and often accessed (especially for
 402:/mnt/c/Users/31740/Desktop/newcore/include/linux/fs.h ****  * the RCU path lookup and 'stat' data) fields at the beginning
 403:/mnt/c/Users/31740/Desktop/newcore/include/linux/fs.h ****  * of the 'struct inode'
 404:/mnt/c/Users/31740/Desktop/newcore/include/linux/fs.h ****  */
 405:/mnt/c/Users/31740/Desktop/newcore/include/linux/fs.h **** 
 406:/mnt/c/Users/31740/Desktop/newcore/include/linux/fs.h **** struct inode {
 407:/mnt/c/Users/31740/Desktop/newcore/include/linux/fs.h **** 	umode_t            i_mode;   
 408:/mnt/c/Users/31740/Desktop/newcore/include/linux/fs.h **** 
 409:/mnt/c/Users/31740/Desktop/newcore/include/linux/fs.h **** 	unsigned short     		i_opflags;     /* inode 操作标志对应IOP宏 */
 410:/mnt/c/Users/31740/Desktop/newcore/include/linux/fs.h **** 	kuid_t             i_uid;         /* 文件所有者用户ID */
 411:/mnt/c/Users/31740/Desktop/newcore/include/linux/fs.h **** 	kgid_t             i_gid;         /* 文件所有者组ID */
 412:/mnt/c/Users/31740/Desktop/newcore/include/linux/fs.h **** 
 413:/mnt/c/Users/31740/Desktop/newcore/include/linux/fs.h **** 	unsigned int       i_flags;    
 414:/mnt/c/Users/31740/Desktop/newcore/include/linux/fs.h **** 	const struct inode_operations *i_op;     
 415:/mnt/c/Users/31740/Desktop/newcore/include/linux/fs.h **** 	struct super_block            *i_sb;       
 416:/mnt/c/Users/31740/Desktop/newcore/include/linux/fs.h **** 	struct address_space	      *i_mapping;   
 417:/mnt/c/Users/31740/Desktop/newcore/include/linux/fs.h **** 	dev_t             i_rdev;       
 418:/mnt/c/Users/31740/Desktop/newcore/include/linux/fs.h **** 	loff_t            i_size;        
 419:/mnt/c/Users/31740/Desktop/newcore/include/linux/fs.h **** 	time64_t          i_atime_sec;   
ARM GAS  /tmp/ccaQsqPk.s 			page 45


 420:/mnt/c/Users/31740/Desktop/newcore/include/linux/fs.h **** 	time64_t          i_mtime_sec;   
 421:/mnt/c/Users/31740/Desktop/newcore/include/linux/fs.h **** 	time64_t          i_ctime_sec;    
 422:/mnt/c/Users/31740/Desktop/newcore/include/linux/fs.h **** 	u32               i_atime_nsec;   
 423:/mnt/c/Users/31740/Desktop/newcore/include/linux/fs.h **** 	u32               i_mtime_nsec;   
 424:/mnt/c/Users/31740/Desktop/newcore/include/linux/fs.h **** 	u32               i_ctime_nsec;  
 425:/mnt/c/Users/31740/Desktop/newcore/include/linux/fs.h **** 	unsigned short    i_bytes;
 426:/mnt/c/Users/31740/Desktop/newcore/include/linux/fs.h **** 	u32			i_state;
 427:/mnt/c/Users/31740/Desktop/newcore/include/linux/fs.h **** 	struct hlist_node	i_hash;
 428:/mnt/c/Users/31740/Desktop/newcore/include/linux/fs.h **** 	struct list_head	i_io_list;	/* backing dev IO list */
 429:/mnt/c/Users/31740/Desktop/newcore/include/linux/fs.h **** 	spinlock_t	        i_lock;	/* i_blocks, i_bytes, maybe i_size */
 430:/mnt/c/Users/31740/Desktop/newcore/include/linux/fs.h **** 	struct list_head	i_sb_list;
 431:/mnt/c/Users/31740/Desktop/newcore/include/linux/fs.h **** 	struct list_head	i_dentry;
 432:/mnt/c/Users/31740/Desktop/newcore/include/linux/fs.h **** 	atomic_t		i_count;
 433:/mnt/c/Users/31740/Desktop/newcore/include/linux/fs.h **** 	const struct file_operations	*i_fop;	/* former ->i_op->default_file_ops */
 434:/mnt/c/Users/31740/Desktop/newcore/include/linux/fs.h **** 	void (*free_inode)(struct inode *);
 435:/mnt/c/Users/31740/Desktop/newcore/include/linux/fs.h **** 	void			*i_private; /* fs or device private pointer */
 436:/mnt/c/Users/31740/Desktop/newcore/include/linux/fs.h **** }__attribute__((aligned(sizeof(long)))) __randomize_layout;
 437:/mnt/c/Users/31740/Desktop/newcore/include/linux/fs.h **** 
 438:/mnt/c/Users/31740/Desktop/newcore/include/linux/fs.h **** /********************************************************
 439:/mnt/c/Users/31740/Desktop/newcore/include/linux/fs.h ****  * 														*
 440:/mnt/c/Users/31740/Desktop/newcore/include/linux/fs.h ****  * 			   inode inode_operations					*
 441:/mnt/c/Users/31740/Desktop/newcore/include/linux/fs.h ****  *														* 
 442:/mnt/c/Users/31740/Desktop/newcore/include/linux/fs.h **** *********************************************************/
 443:/mnt/c/Users/31740/Desktop/newcore/include/linux/fs.h **** 
 444:/mnt/c/Users/31740/Desktop/newcore/include/linux/fs.h **** struct mnt_idmap {void * no_data;};
 445:/mnt/c/Users/31740/Desktop/newcore/include/linux/fs.h **** 
 446:/mnt/c/Users/31740/Desktop/newcore/include/linux/fs.h **** struct inode_operations {
 447:/mnt/c/Users/31740/Desktop/newcore/include/linux/fs.h **** 	struct dentry  	 *(*lookup) 	   (struct inode *    ,struct dentry *, unsigned int);
 448:/mnt/c/Users/31740/Desktop/newcore/include/linux/fs.h **** 	const char 	     *(*get_link) 	   (struct dentry *   , struct inode *, struct delayed_call *);
 449:/mnt/c/Users/31740/Desktop/newcore/include/linux/fs.h **** 	int 			  (*permission)    (struct mnt_idmap *, struct inode *, int);
 450:/mnt/c/Users/31740/Desktop/newcore/include/linux/fs.h **** 	struct posix_acl *(*get_inode_acl) (struct inode *	  , int, bool);
 451:/mnt/c/Users/31740/Desktop/newcore/include/linux/fs.h **** 	int 			  (*readlink) 	   (struct dentry *   , char __user * ,int);
 452:/mnt/c/Users/31740/Desktop/newcore/include/linux/fs.h **** 	int 			  (*create) 	   (struct mnt_idmap *, struct inode *,struct dentry *,umode_t, bool);
 453:/mnt/c/Users/31740/Desktop/newcore/include/linux/fs.h **** 	int 			  (*link) 		   (struct dentry *   ,struct inode * ,struct dentry *);
 454:/mnt/c/Users/31740/Desktop/newcore/include/linux/fs.h **** 	int 			  (*unlink) 	   (struct inode *	  ,struct dentry * );
 455:/mnt/c/Users/31740/Desktop/newcore/include/linux/fs.h **** 	int 			  (*symlink) 	   (struct mnt_idmap *, struct inode *,struct dentry *,const char *);
 456:/mnt/c/Users/31740/Desktop/newcore/include/linux/fs.h **** 	int 			  (*mkdir) 		   (struct mnt_idmap *, struct inode *,struct dentry *,umode_t);
 457:/mnt/c/Users/31740/Desktop/newcore/include/linux/fs.h **** 	int 			  (*rmdir)		   (struct inode *	  ,struct dentry * );
 458:/mnt/c/Users/31740/Desktop/newcore/include/linux/fs.h **** 	int 			  (*mknod) 		   (struct mnt_idmap *, struct inode *,struct dentry *,umode_t,dev_t);
 459:/mnt/c/Users/31740/Desktop/newcore/include/linux/fs.h **** 	int 			  (*rename) 	   (struct mnt_idmap *, struct inode *, struct dentry *,struct inode *, struct
 460:/mnt/c/Users/31740/Desktop/newcore/include/linux/fs.h **** 	int 			  (*setattr)	   (struct mnt_idmap *, struct dentry*, struct iattr *);
 461:/mnt/c/Users/31740/Desktop/newcore/include/linux/fs.h **** 	int 			  (*getattr) 	   (struct mnt_idmap *, const struct path *,struct kstat *, u32, unsigned int
 462:/mnt/c/Users/31740/Desktop/newcore/include/linux/fs.h **** 	ssize_t 		  (*listxattr) 	   (struct dentry *	  , char *		  , size_t);
 463:/mnt/c/Users/31740/Desktop/newcore/include/linux/fs.h **** 	int 			  (*fiemap)		   (struct inode *	  , struct fiemap_extent_info *, u64 start,u64 len);
 464:/mnt/c/Users/31740/Desktop/newcore/include/linux/fs.h **** 	int 			  (*update_time)   (struct inode *    , int);
 465:/mnt/c/Users/31740/Desktop/newcore/include/linux/fs.h **** 	int 			  (*atomic_open)   (struct inode *    , struct dentry*,struct file *, unsigned open_flag,um
 466:/mnt/c/Users/31740/Desktop/newcore/include/linux/fs.h **** 	int 			  (*tmpfile)	   (struct mnt_idmap *, struct inode *,struct file *, umode_t);
 467:/mnt/c/Users/31740/Desktop/newcore/include/linux/fs.h **** 	struct posix_acl *(*get_acl)	   (struct mnt_idmap *, struct dentry*,int);
 468:/mnt/c/Users/31740/Desktop/newcore/include/linux/fs.h **** 	int 			  (*set_acl)	   (struct mnt_idmap *, struct dentry*,struct posix_acl *, int);
 469:/mnt/c/Users/31740/Desktop/newcore/include/linux/fs.h **** 	int 			  (*fileattr_set)  (struct mnt_idmap *idmap,struct dentry *dentry, struct fileattr *fa);
 470:/mnt/c/Users/31740/Desktop/newcore/include/linux/fs.h **** 	int 			  (*fileattr_get)  (struct dentry *dentry  , struct fileattr *fa);
 471:/mnt/c/Users/31740/Desktop/newcore/include/linux/fs.h **** 	struct offset_ctx*(*get_offset_ctx)(struct inode *inode);
 472:/mnt/c/Users/31740/Desktop/newcore/include/linux/fs.h **** };
 473:/mnt/c/Users/31740/Desktop/newcore/include/linux/fs.h **** 
 474:/mnt/c/Users/31740/Desktop/newcore/include/linux/fs.h **** /********************************************************
 475:/mnt/c/Users/31740/Desktop/newcore/include/linux/fs.h ****  * 														*
 476:/mnt/c/Users/31740/Desktop/newcore/include/linux/fs.h ****  * 			       file_operations						*
ARM GAS  /tmp/ccaQsqPk.s 			page 46


 477:/mnt/c/Users/31740/Desktop/newcore/include/linux/fs.h ****  *														* 
 478:/mnt/c/Users/31740/Desktop/newcore/include/linux/fs.h **** *********************************************************/
 479:/mnt/c/Users/31740/Desktop/newcore/include/linux/fs.h **** 
 480:/mnt/c/Users/31740/Desktop/newcore/include/linux/fs.h **** struct kiocb {
 481:/mnt/c/Users/31740/Desktop/newcore/include/linux/fs.h **** 	struct file		*ki_filp;
 482:/mnt/c/Users/31740/Desktop/newcore/include/linux/fs.h **** 	loff_t			ki_pos;
 483:/mnt/c/Users/31740/Desktop/newcore/include/linux/fs.h **** 	void (*ki_complete)(struct kiocb *iocb, long ret);
 484:/mnt/c/Users/31740/Desktop/newcore/include/linux/fs.h **** 	void			*private;
 485:/mnt/c/Users/31740/Desktop/newcore/include/linux/fs.h **** 	int			ki_flags;
 486:/mnt/c/Users/31740/Desktop/newcore/include/linux/fs.h **** 	u16			ki_ioprio; /* See linux/ioprio.h */
 487:/mnt/c/Users/31740/Desktop/newcore/include/linux/fs.h **** 	union {
 488:/mnt/c/Users/31740/Desktop/newcore/include/linux/fs.h **** 	//	struct wait_page_queue	*ki_waitq;
 489:/mnt/c/Users/31740/Desktop/newcore/include/linux/fs.h **** 		ssize_t (*dio_complete)(void *data);
 490:/mnt/c/Users/31740/Desktop/newcore/include/linux/fs.h **** 	};
 491:/mnt/c/Users/31740/Desktop/newcore/include/linux/fs.h **** };
 492:/mnt/c/Users/31740/Desktop/newcore/include/linux/fs.h **** 
 493:/mnt/c/Users/31740/Desktop/newcore/include/linux/fs.h **** struct dir_context;
 494:/mnt/c/Users/31740/Desktop/newcore/include/linux/fs.h **** typedef bool (*filldir_t)(struct dir_context *, const char *, int, loff_t, u64,
 495:/mnt/c/Users/31740/Desktop/newcore/include/linux/fs.h **** 			 unsigned);
 496:/mnt/c/Users/31740/Desktop/newcore/include/linux/fs.h **** 
 497:/mnt/c/Users/31740/Desktop/newcore/include/linux/fs.h **** struct dir_context {
 498:/mnt/c/Users/31740/Desktop/newcore/include/linux/fs.h **** 	filldir_t actor;
 499:/mnt/c/Users/31740/Desktop/newcore/include/linux/fs.h **** 	loff_t pos;
 500:/mnt/c/Users/31740/Desktop/newcore/include/linux/fs.h **** };
 501:/mnt/c/Users/31740/Desktop/newcore/include/linux/fs.h **** 
 502:/mnt/c/Users/31740/Desktop/newcore/include/linux/fs.h **** 
 503:/mnt/c/Users/31740/Desktop/newcore/include/linux/fs.h **** static inline bool dir_emit(struct dir_context *ctx,
 504:/mnt/c/Users/31740/Desktop/newcore/include/linux/fs.h **** 			    const char *name, int namelen,
 505:/mnt/c/Users/31740/Desktop/newcore/include/linux/fs.h **** 			    u64 ino, unsigned type)
 506:/mnt/c/Users/31740/Desktop/newcore/include/linux/fs.h **** {
 507:/mnt/c/Users/31740/Desktop/newcore/include/linux/fs.h **** 	return ctx->actor(ctx, name, namelen, ctx->pos, ino, type);
 508:/mnt/c/Users/31740/Desktop/newcore/include/linux/fs.h **** }
 509:/mnt/c/Users/31740/Desktop/newcore/include/linux/fs.h **** 
 510:/mnt/c/Users/31740/Desktop/newcore/include/linux/fs.h **** struct poll_table_struct;
 511:/mnt/c/Users/31740/Desktop/newcore/include/linux/fs.h **** typedef void (*poll_queue_proc)(struct file *, wait_queue_head_t *, struct poll_table_struct *);
 512:/mnt/c/Users/31740/Desktop/newcore/include/linux/fs.h **** typedef struct poll_table_struct {
 513:/mnt/c/Users/31740/Desktop/newcore/include/linux/fs.h **** 	poll_queue_proc _qproc;
 514:/mnt/c/Users/31740/Desktop/newcore/include/linux/fs.h **** 	__poll_t _key;
 515:/mnt/c/Users/31740/Desktop/newcore/include/linux/fs.h **** } poll_table;
 516:/mnt/c/Users/31740/Desktop/newcore/include/linux/fs.h **** 
 517:/mnt/c/Users/31740/Desktop/newcore/include/linux/fs.h **** 
 518:/mnt/c/Users/31740/Desktop/newcore/include/linux/fs.h **** 
 519:/mnt/c/Users/31740/Desktop/newcore/include/linux/fs.h **** typedef unsigned int __bitwise fop_flags_t;
 520:/mnt/c/Users/31740/Desktop/newcore/include/linux/fs.h **** typedef void *fl_owner_t;
 521:/mnt/c/Users/31740/Desktop/newcore/include/linux/fs.h **** 
 522:/mnt/c/Users/31740/Desktop/newcore/include/linux/fs.h **** struct file_operations {
 523:/mnt/c/Users/31740/Desktop/newcore/include/linux/fs.h **** 	void *owner;
 524:/mnt/c/Users/31740/Desktop/newcore/include/linux/fs.h **** 	fop_flags_t fop_flags;
 525:/mnt/c/Users/31740/Desktop/newcore/include/linux/fs.h **** 	loff_t (*llseek) (struct file *, loff_t, int);
 526:/mnt/c/Users/31740/Desktop/newcore/include/linux/fs.h **** 	ssize_t (*read) (struct file *, char __user *, size_t, loff_t *);
 527:/mnt/c/Users/31740/Desktop/newcore/include/linux/fs.h **** 	ssize_t (*write) (struct file *, const char __user *, size_t, loff_t *);
 528:/mnt/c/Users/31740/Desktop/newcore/include/linux/fs.h **** ssize_t (*read_iter) (struct kiocb *, struct iov_iter *);
 529:/mnt/c/Users/31740/Desktop/newcore/include/linux/fs.h **** ssize_t (*write_iter) (struct kiocb *, struct iov_iter *);
 530:/mnt/c/Users/31740/Desktop/newcore/include/linux/fs.h **** 	int (*iopoll)(struct kiocb *kiocb, struct io_comp_batch *,unsigned int flags);
 531:/mnt/c/Users/31740/Desktop/newcore/include/linux/fs.h **** 	int (*iterate_shared) (struct file *, struct dir_context *);
 532:/mnt/c/Users/31740/Desktop/newcore/include/linux/fs.h **** 	__poll_t (*poll) (struct file *, struct poll_table_struct *);
 533:/mnt/c/Users/31740/Desktop/newcore/include/linux/fs.h **** 	long (*unlocked_ioctl) (struct file *, unsigned int, unsigned long);
ARM GAS  /tmp/ccaQsqPk.s 			page 47


 534:/mnt/c/Users/31740/Desktop/newcore/include/linux/fs.h **** 	long (*compat_ioctl) (struct file *, unsigned int, unsigned long);
 535:/mnt/c/Users/31740/Desktop/newcore/include/linux/fs.h **** int (*mmap) (struct file *, struct vm_area_struct *);
 536:/mnt/c/Users/31740/Desktop/newcore/include/linux/fs.h **** 	int (*open) (struct inode *, struct file *);
 537:/mnt/c/Users/31740/Desktop/newcore/include/linux/fs.h **** 	int (*flush) (struct file *, fl_owner_t id);
 538:/mnt/c/Users/31740/Desktop/newcore/include/linux/fs.h **** 	int (*release) (struct inode *, struct file *);
 539:/mnt/c/Users/31740/Desktop/newcore/include/linux/fs.h **** 	int (*fsync) (struct file *, loff_t, loff_t, int datasync);
 540:/mnt/c/Users/31740/Desktop/newcore/include/linux/fs.h **** 	int (*fasync) (int, struct file *, int);
 541:/mnt/c/Users/31740/Desktop/newcore/include/linux/fs.h **** 	int (*lock) (struct file *, int, struct file_lock *);
 542:/mnt/c/Users/31740/Desktop/newcore/include/linux/fs.h **** 	unsigned long (*get_unmapped_area)(struct file *, unsigned long, unsigned long, unsigned long, uns
 543:/mnt/c/Users/31740/Desktop/newcore/include/linux/fs.h **** 	int (*check_flags)(int);
 544:/mnt/c/Users/31740/Desktop/newcore/include/linux/fs.h **** 	int (*flock) (struct file *, int, struct file_lock *);
 545:/mnt/c/Users/31740/Desktop/newcore/include/linux/fs.h **** ssize_t (*splice_write)(struct pipe_inode_info *, struct file *, loff_t *, size_t, unsigned int);
 546:/mnt/c/Users/31740/Desktop/newcore/include/linux/fs.h **** ssize_t (*splice_read)(struct file *, loff_t *, struct pipe_inode_info *, size_t, unsigned int);
 547:/mnt/c/Users/31740/Desktop/newcore/include/linux/fs.h **** 	void (*splice_eof)(struct file *file);
 548:/mnt/c/Users/31740/Desktop/newcore/include/linux/fs.h **** 	int (*setlease)(struct file *, int, struct file_lease **, void **);
 549:/mnt/c/Users/31740/Desktop/newcore/include/linux/fs.h **** 	long (*fallocate)(struct file *file, int mode, loff_t offset,loff_t len);
 550:/mnt/c/Users/31740/Desktop/newcore/include/linux/fs.h **** 	void (*show_fdinfo)(struct seq_file *m, struct file *f);
 551:/mnt/c/Users/31740/Desktop/newcore/include/linux/fs.h **** #ifndef CONFIG_MMU
 552:/mnt/c/Users/31740/Desktop/newcore/include/linux/fs.h **** 	unsigned (*mmap_capabilities)(struct file *);
 553:/mnt/c/Users/31740/Desktop/newcore/include/linux/fs.h **** #endif
 554:/mnt/c/Users/31740/Desktop/newcore/include/linux/fs.h **** 	ssize_t (*copy_file_range)(struct file *, loff_t, struct file *,loff_t, size_t, unsigned int);
 555:/mnt/c/Users/31740/Desktop/newcore/include/linux/fs.h **** 	loff_t (*remap_file_range)(struct file *file_in, loff_t pos_in,struct file *file_out, loff_t pos_o
 556:/mnt/c/Users/31740/Desktop/newcore/include/linux/fs.h **** 	int (*fadvise)(struct file *, loff_t, loff_t, int);
 557:/mnt/c/Users/31740/Desktop/newcore/include/linux/fs.h **** 	int (*uring_cmd)(struct io_uring_cmd *ioucmd, unsigned int issue_flags);
 558:/mnt/c/Users/31740/Desktop/newcore/include/linux/fs.h **** 	int (*uring_cmd_iopoll)(struct io_uring_cmd *, struct io_comp_batch *,unsigned int poll_flags);
 559:/mnt/c/Users/31740/Desktop/newcore/include/linux/fs.h **** };
 560:/mnt/c/Users/31740/Desktop/newcore/include/linux/fs.h **** 
 561:/mnt/c/Users/31740/Desktop/newcore/include/linux/fs.h **** 
 562:/mnt/c/Users/31740/Desktop/newcore/include/linux/fs.h **** /********************************************************
 563:/mnt/c/Users/31740/Desktop/newcore/include/linux/fs.h ****  * 														*
 564:/mnt/c/Users/31740/Desktop/newcore/include/linux/fs.h ****  * 			       super_block							*
 565:/mnt/c/Users/31740/Desktop/newcore/include/linux/fs.h ****  *														* 
 566:/mnt/c/Users/31740/Desktop/newcore/include/linux/fs.h **** *********************************************************/
 567:/mnt/c/Users/31740/Desktop/newcore/include/linux/fs.h **** 
 568:/mnt/c/Users/31740/Desktop/newcore/include/linux/fs.h **** struct rcu_sync {
 569:/mnt/c/Users/31740/Desktop/newcore/include/linux/fs.h **** 	int			gp_state;
 570:/mnt/c/Users/31740/Desktop/newcore/include/linux/fs.h **** 	int			gp_count;
 571:/mnt/c/Users/31740/Desktop/newcore/include/linux/fs.h **** 	wait_queue_head_t	gp_wait;
 572:/mnt/c/Users/31740/Desktop/newcore/include/linux/fs.h **** 
 573:/mnt/c/Users/31740/Desktop/newcore/include/linux/fs.h **** 	struct rcu_head		cb_head;
 574:/mnt/c/Users/31740/Desktop/newcore/include/linux/fs.h **** };
 575:/mnt/c/Users/31740/Desktop/newcore/include/linux/fs.h **** 
 576:/mnt/c/Users/31740/Desktop/newcore/include/linux/fs.h **** struct rcuwait {
 577:/mnt/c/Users/31740/Desktop/newcore/include/linux/fs.h **** 	//struct task_struct __rcu *task;
 578:/mnt/c/Users/31740/Desktop/newcore/include/linux/fs.h **** };
 579:/mnt/c/Users/31740/Desktop/newcore/include/linux/fs.h **** 
 580:/mnt/c/Users/31740/Desktop/newcore/include/linux/fs.h **** struct percpu_rw_semaphore {
 581:/mnt/c/Users/31740/Desktop/newcore/include/linux/fs.h **** 	struct rcu_sync		rss;
 582:/mnt/c/Users/31740/Desktop/newcore/include/linux/fs.h **** 	unsigned int __percpu	*read_count;
 583:/mnt/c/Users/31740/Desktop/newcore/include/linux/fs.h **** 	struct rcuwait		writer;
 584:/mnt/c/Users/31740/Desktop/newcore/include/linux/fs.h **** 	wait_queue_head_t	waiters;
 585:/mnt/c/Users/31740/Desktop/newcore/include/linux/fs.h **** 	atomic_t		block;
 586:/mnt/c/Users/31740/Desktop/newcore/include/linux/fs.h **** #ifdef CONFIG_DEBUG_LOCK_ALLOC
 587:/mnt/c/Users/31740/Desktop/newcore/include/linux/fs.h **** 	struct lockdep_map	dep_map;
 588:/mnt/c/Users/31740/Desktop/newcore/include/linux/fs.h **** #endif
 589:/mnt/c/Users/31740/Desktop/newcore/include/linux/fs.h **** };
 590:/mnt/c/Users/31740/Desktop/newcore/include/linux/fs.h **** 
ARM GAS  /tmp/ccaQsqPk.s 			page 48


 591:/mnt/c/Users/31740/Desktop/newcore/include/linux/fs.h **** /*
 592:/mnt/c/Users/31740/Desktop/newcore/include/linux/fs.h ****  * sb->s_flags.  Note that these mirror the equivalent MS_* flags where
 593:/mnt/c/Users/31740/Desktop/newcore/include/linux/fs.h ****  * represented in both.
 594:/mnt/c/Users/31740/Desktop/newcore/include/linux/fs.h ****  */
 595:/mnt/c/Users/31740/Desktop/newcore/include/linux/fs.h **** #define SB_RDONLY       BIT(0)	/* Mount read-only */
 596:/mnt/c/Users/31740/Desktop/newcore/include/linux/fs.h **** #define SB_NOSUID       BIT(1)	/* Ignore suid and sgid bits */
 597:/mnt/c/Users/31740/Desktop/newcore/include/linux/fs.h **** #define SB_NODEV        BIT(2)	/* Disallow access to device special files */
 598:/mnt/c/Users/31740/Desktop/newcore/include/linux/fs.h **** #define SB_NOEXEC       BIT(3)	/* Disallow program execution */
 599:/mnt/c/Users/31740/Desktop/newcore/include/linux/fs.h **** #define SB_SYNCHRONOUS  BIT(4)	/* Writes are synced at once */
 600:/mnt/c/Users/31740/Desktop/newcore/include/linux/fs.h **** #define SB_MANDLOCK     BIT(6)	/* Allow mandatory locks on an FS */
 601:/mnt/c/Users/31740/Desktop/newcore/include/linux/fs.h **** #define SB_DIRSYNC      BIT(7)	/* Directory modifications are synchronous */
 602:/mnt/c/Users/31740/Desktop/newcore/include/linux/fs.h **** #define SB_NOATIME      BIT(10)	/* Do not update access times. */
 603:/mnt/c/Users/31740/Desktop/newcore/include/linux/fs.h **** #define SB_NODIRATIME   BIT(11)	/* Do not update directory access times */
 604:/mnt/c/Users/31740/Desktop/newcore/include/linux/fs.h **** #define SB_SILENT       BIT(15)
 605:/mnt/c/Users/31740/Desktop/newcore/include/linux/fs.h **** #define SB_POSIXACL     BIT(16)	/* Supports POSIX ACLs */
 606:/mnt/c/Users/31740/Desktop/newcore/include/linux/fs.h **** #define SB_INLINECRYPT  BIT(17)	/* Use blk-crypto for encrypted files */
 607:/mnt/c/Users/31740/Desktop/newcore/include/linux/fs.h **** #define SB_KERNMOUNT    BIT(22)	/* this is a kern_mount call */
 608:/mnt/c/Users/31740/Desktop/newcore/include/linux/fs.h **** #define SB_I_VERSION    BIT(23)	/* Update inode I_version field */
 609:/mnt/c/Users/31740/Desktop/newcore/include/linux/fs.h **** #define SB_LAZYTIME     BIT(25)	/* Update the on-disk [acm]times lazily */
 610:/mnt/c/Users/31740/Desktop/newcore/include/linux/fs.h **** 
 611:/mnt/c/Users/31740/Desktop/newcore/include/linux/fs.h **** /* These sb flags are internal to the kernel */
 612:/mnt/c/Users/31740/Desktop/newcore/include/linux/fs.h **** #define SB_DEAD         BIT(21)
 613:/mnt/c/Users/31740/Desktop/newcore/include/linux/fs.h **** #define SB_DYING        BIT(24)
 614:/mnt/c/Users/31740/Desktop/newcore/include/linux/fs.h **** #define SB_SUBMOUNT     BIT(26)
 615:/mnt/c/Users/31740/Desktop/newcore/include/linux/fs.h **** #define SB_FORCE        BIT(27)
 616:/mnt/c/Users/31740/Desktop/newcore/include/linux/fs.h **** #define SB_NOSEC        BIT(28)
 617:/mnt/c/Users/31740/Desktop/newcore/include/linux/fs.h **** #define SB_BORN         BIT(29)
 618:/mnt/c/Users/31740/Desktop/newcore/include/linux/fs.h **** #define SB_ACTIVE       BIT(30)
 619:/mnt/c/Users/31740/Desktop/newcore/include/linux/fs.h **** #define SB_NOUSER       BIT(31)
 620:/mnt/c/Users/31740/Desktop/newcore/include/linux/fs.h **** 
 621:/mnt/c/Users/31740/Desktop/newcore/include/linux/fs.h **** /* These flags relate to encoding and casefolding */
 622:/mnt/c/Users/31740/Desktop/newcore/include/linux/fs.h **** #define SB_ENC_STRICT_MODE_FL	(1 << 0)
 623:/mnt/c/Users/31740/Desktop/newcore/include/linux/fs.h **** 
 624:/mnt/c/Users/31740/Desktop/newcore/include/linux/fs.h **** #define sb_has_strict_encoding(sb) \
 625:/mnt/c/Users/31740/Desktop/newcore/include/linux/fs.h **** 	(sb->s_encoding_flags & SB_ENC_STRICT_MODE_FL)
 626:/mnt/c/Users/31740/Desktop/newcore/include/linux/fs.h **** 
 627:/mnt/c/Users/31740/Desktop/newcore/include/linux/fs.h **** /*
 628:/mnt/c/Users/31740/Desktop/newcore/include/linux/fs.h ****  *	Umount options
 629:/mnt/c/Users/31740/Desktop/newcore/include/linux/fs.h ****  */
 630:/mnt/c/Users/31740/Desktop/newcore/include/linux/fs.h **** 
 631:/mnt/c/Users/31740/Desktop/newcore/include/linux/fs.h **** #define MNT_FORCE	0x00000001	/* Attempt to forcibily umount */
 632:/mnt/c/Users/31740/Desktop/newcore/include/linux/fs.h **** #define MNT_DETACH	0x00000002	/* Just detach from the tree */
 633:/mnt/c/Users/31740/Desktop/newcore/include/linux/fs.h **** #define MNT_EXPIRE	0x00000004	/* Mark for expiry */
 634:/mnt/c/Users/31740/Desktop/newcore/include/linux/fs.h **** #define UMOUNT_NOFOLLOW	0x00000008	/* Don't follow symlink on umount */
 635:/mnt/c/Users/31740/Desktop/newcore/include/linux/fs.h **** #define UMOUNT_UNUSED	0x80000000	/* Flag guaranteed to be unused */
 636:/mnt/c/Users/31740/Desktop/newcore/include/linux/fs.h **** 
 637:/mnt/c/Users/31740/Desktop/newcore/include/linux/fs.h **** /* sb->s_iflags */
 638:/mnt/c/Users/31740/Desktop/newcore/include/linux/fs.h **** #define SB_I_CGROUPWB	0x00000001	/* cgroup-aware writeback enabled */
 639:/mnt/c/Users/31740/Desktop/newcore/include/linux/fs.h **** #define SB_I_NOEXEC	0x00000002	/* Ignore executables on this fs */
 640:/mnt/c/Users/31740/Desktop/newcore/include/linux/fs.h **** #define SB_I_NODEV	0x00000004	/* Ignore devices on this fs */
 641:/mnt/c/Users/31740/Desktop/newcore/include/linux/fs.h **** #define SB_I_STABLE_WRITES 0x00000008	/* don't modify blks until WB is done */
 642:/mnt/c/Users/31740/Desktop/newcore/include/linux/fs.h **** 
 643:/mnt/c/Users/31740/Desktop/newcore/include/linux/fs.h **** /* sb->s_iflags to limit user namespace mounts */
 644:/mnt/c/Users/31740/Desktop/newcore/include/linux/fs.h **** #define SB_I_USERNS_VISIBLE		0x00000010 /* fstype already mounted */
 645:/mnt/c/Users/31740/Desktop/newcore/include/linux/fs.h **** #define SB_I_IMA_UNVERIFIABLE_SIGNATURE	0x00000020
 646:/mnt/c/Users/31740/Desktop/newcore/include/linux/fs.h **** #define SB_I_UNTRUSTED_MOUNTER		0x00000040
 647:/mnt/c/Users/31740/Desktop/newcore/include/linux/fs.h **** #define SB_I_EVM_HMAC_UNSUPPORTED	0x00000080
ARM GAS  /tmp/ccaQsqPk.s 			page 49


 648:/mnt/c/Users/31740/Desktop/newcore/include/linux/fs.h **** 
 649:/mnt/c/Users/31740/Desktop/newcore/include/linux/fs.h **** #define SB_I_SKIP_SYNC	0x00000100	/* Skip superblock at global sync */
 650:/mnt/c/Users/31740/Desktop/newcore/include/linux/fs.h **** #define SB_I_PERSB_BDI	0x00000200	/* has a per-sb bdi */
 651:/mnt/c/Users/31740/Desktop/newcore/include/linux/fs.h **** #define SB_I_TS_EXPIRY_WARNED 0x00000400 /* warned about timestamp range expiry */
 652:/mnt/c/Users/31740/Desktop/newcore/include/linux/fs.h **** #define SB_I_RETIRED	0x00000800	/* superblock shouldn't be reused */
 653:/mnt/c/Users/31740/Desktop/newcore/include/linux/fs.h **** #define SB_I_NOUMASK	0x00001000	/* VFS does not apply umask */
 654:/mnt/c/Users/31740/Desktop/newcore/include/linux/fs.h **** #define SB_I_NOIDMAP	0x00002000	/* No idmapped mounts on this superblock */
 655:/mnt/c/Users/31740/Desktop/newcore/include/linux/fs.h **** 
 656:/mnt/c/Users/31740/Desktop/newcore/include/linux/fs.h **** 
 657:/mnt/c/Users/31740/Desktop/newcore/include/linux/fs.h **** enum {
 658:/mnt/c/Users/31740/Desktop/newcore/include/linux/fs.h **** 	SB_UNFROZEN = 0,		/* FS is unfrozen */
 659:/mnt/c/Users/31740/Desktop/newcore/include/linux/fs.h **** 	SB_FREEZE_WRITE	= 1,		/* Writes, dir ops, ioctls frozen */
 660:/mnt/c/Users/31740/Desktop/newcore/include/linux/fs.h **** 	SB_FREEZE_PAGEFAULT = 2,	/* Page faults stopped as well */
 661:/mnt/c/Users/31740/Desktop/newcore/include/linux/fs.h **** 	SB_FREEZE_FS = 3,		/* For internal FS use (e.g. to stop
 662:/mnt/c/Users/31740/Desktop/newcore/include/linux/fs.h **** 					 	* internal threads if needed) */
 663:/mnt/c/Users/31740/Desktop/newcore/include/linux/fs.h **** 	SB_FREEZE_COMPLETE = 4,		/* ->freeze_fs finished successfully */
 664:/mnt/c/Users/31740/Desktop/newcore/include/linux/fs.h **** };
 665:/mnt/c/Users/31740/Desktop/newcore/include/linux/fs.h **** 
 666:/mnt/c/Users/31740/Desktop/newcore/include/linux/fs.h **** #define SB_FREEZE_LEVELS (SB_FREEZE_COMPLETE - 1)
 667:/mnt/c/Users/31740/Desktop/newcore/include/linux/fs.h **** 
 668:/mnt/c/Users/31740/Desktop/newcore/include/linux/fs.h **** struct sb_writers {
 669:/mnt/c/Users/31740/Desktop/newcore/include/linux/fs.h **** 	unsigned short			frozen;		/* Is sb frozen? */
 670:/mnt/c/Users/31740/Desktop/newcore/include/linux/fs.h **** 	int				freeze_kcount;	/* How many kernel freeze requests? */
 671:/mnt/c/Users/31740/Desktop/newcore/include/linux/fs.h **** 	int				freeze_ucount;	/* How many userspace freeze requests? */
 672:/mnt/c/Users/31740/Desktop/newcore/include/linux/fs.h **** 	struct percpu_rw_semaphore	rw_sem[SB_FREEZE_LEVELS];
 673:/mnt/c/Users/31740/Desktop/newcore/include/linux/fs.h **** };
 674:/mnt/c/Users/31740/Desktop/newcore/include/linux/fs.h **** 
 675:/mnt/c/Users/31740/Desktop/newcore/include/linux/fs.h **** #define	UUID_STRING_LEN		36
 676:/mnt/c/Users/31740/Desktop/newcore/include/linux/fs.h **** 
 677:/mnt/c/Users/31740/Desktop/newcore/include/linux/fs.h **** 
 678:/mnt/c/Users/31740/Desktop/newcore/include/linux/fs.h **** 
 679:/mnt/c/Users/31740/Desktop/newcore/include/linux/fs.h **** struct super_block 
 680:/mnt/c/Users/31740/Desktop/newcore/include/linux/fs.h **** { 
 681:/mnt/c/Users/31740/Desktop/newcore/include/linux/fs.h **** 	struct list_head				s_list;		/* Keep this first */
 682:/mnt/c/Users/31740/Desktop/newcore/include/linux/fs.h ****     dev_t							s_dev;		/* search index; _not_ kdev_t */
 683:/mnt/c/Users/31740/Desktop/newcore/include/linux/fs.h **** 	unsigned long					s_blocksize;
 684:/mnt/c/Users/31740/Desktop/newcore/include/linux/fs.h ****     const struct super_operations	*s_op;
 685:/mnt/c/Users/31740/Desktop/newcore/include/linux/fs.h **** 	const struct dquot_operations	*dq_op;
 686:/mnt/c/Users/31740/Desktop/newcore/include/linux/fs.h **** 
 687:/mnt/c/Users/31740/Desktop/newcore/include/linux/fs.h **** 	struct dentry		*s_root;      //superblock的根目录结点
 688:/mnt/c/Users/31740/Desktop/newcore/include/linux/fs.h **** 	struct block_device	*s_bdev; 
 689:/mnt/c/Users/31740/Desktop/newcore/include/linux/fs.h **** 	struct hlist_node	s_instances;
 690:/mnt/c/Users/31740/Desktop/newcore/include/linux/fs.h **** 	struct list_head	s_mounts;
 691:/mnt/c/Users/31740/Desktop/newcore/include/linux/fs.h **** 	void			   *s_fs_info;	/* Filesystem private info */
 692:/mnt/c/Users/31740/Desktop/newcore/include/linux/fs.h **** 	char			    s_sysfs_name[UUID_STRING_LEN + 1];
 693:/mnt/c/Users/31740/Desktop/newcore/include/linux/fs.h **** 	unsigned int		s_max_links;
 694:/mnt/c/Users/31740/Desktop/newcore/include/linux/fs.h **** 	struct mutex            		s_vfs_rename_mutex;	/* Kludge */
 695:/mnt/c/Users/31740/Desktop/newcore/include/linux/fs.h **** 	const struct dentry_operations *s_d_op; /* default d_op for dentries */
 696:/mnt/c/Users/31740/Desktop/newcore/include/linux/fs.h **** 	struct hlist_head s_pins;
 697:/mnt/c/Users/31740/Desktop/newcore/include/linux/fs.h **** };
 698:/mnt/c/Users/31740/Desktop/newcore/include/linux/fs.h **** 
 699:/mnt/c/Users/31740/Desktop/newcore/include/linux/fs.h **** 
 700:/mnt/c/Users/31740/Desktop/newcore/include/linux/fs.h **** /********************************************************
 701:/mnt/c/Users/31740/Desktop/newcore/include/linux/fs.h ****  * 														*
 702:/mnt/c/Users/31740/Desktop/newcore/include/linux/fs.h ****  * 			       super_operations						*
 703:/mnt/c/Users/31740/Desktop/newcore/include/linux/fs.h ****  *														* 
 704:/mnt/c/Users/31740/Desktop/newcore/include/linux/fs.h **** *********************************************************/
ARM GAS  /tmp/ccaQsqPk.s 			page 50


 705:/mnt/c/Users/31740/Desktop/newcore/include/linux/fs.h **** 
 706:/mnt/c/Users/31740/Desktop/newcore/include/linux/fs.h **** struct seq_operations ;
 707:/mnt/c/Users/31740/Desktop/newcore/include/linux/fs.h **** struct seq_file {
 708:/mnt/c/Users/31740/Desktop/newcore/include/linux/fs.h **** 	char *buf;
 709:/mnt/c/Users/31740/Desktop/newcore/include/linux/fs.h **** 	size_t size;
 710:/mnt/c/Users/31740/Desktop/newcore/include/linux/fs.h **** 	size_t from;
 711:/mnt/c/Users/31740/Desktop/newcore/include/linux/fs.h **** 	size_t count;
 712:/mnt/c/Users/31740/Desktop/newcore/include/linux/fs.h **** 	size_t pad_until;
 713:/mnt/c/Users/31740/Desktop/newcore/include/linux/fs.h **** 	loff_t index;
 714:/mnt/c/Users/31740/Desktop/newcore/include/linux/fs.h **** 	loff_t read_pos;
 715:/mnt/c/Users/31740/Desktop/newcore/include/linux/fs.h **** 	struct mutex lock;
 716:/mnt/c/Users/31740/Desktop/newcore/include/linux/fs.h **** 	const struct seq_operations *op;
 717:/mnt/c/Users/31740/Desktop/newcore/include/linux/fs.h **** 	int poll_event;
 718:/mnt/c/Users/31740/Desktop/newcore/include/linux/fs.h **** 	const struct file *file;
 719:/mnt/c/Users/31740/Desktop/newcore/include/linux/fs.h **** 	void *private;
 720:/mnt/c/Users/31740/Desktop/newcore/include/linux/fs.h **** };
 721:/mnt/c/Users/31740/Desktop/newcore/include/linux/fs.h **** 
 722:/mnt/c/Users/31740/Desktop/newcore/include/linux/fs.h **** struct seq_operations {
 723:/mnt/c/Users/31740/Desktop/newcore/include/linux/fs.h **** 	void * (*start) (struct seq_file *m, loff_t *pos);
 724:/mnt/c/Users/31740/Desktop/newcore/include/linux/fs.h **** 	void (*stop) (struct seq_file *m, void *v);
 725:/mnt/c/Users/31740/Desktop/newcore/include/linux/fs.h **** 	void * (*next) (struct seq_file *m, void *v, loff_t *pos);
 726:/mnt/c/Users/31740/Desktop/newcore/include/linux/fs.h **** 	int (*show) (struct seq_file *m, void *v);
 727:/mnt/c/Users/31740/Desktop/newcore/include/linux/fs.h **** };
 728:/mnt/c/Users/31740/Desktop/newcore/include/linux/fs.h **** 
 729:/mnt/c/Users/31740/Desktop/newcore/include/linux/fs.h **** enum freeze_holder {
 730:/mnt/c/Users/31740/Desktop/newcore/include/linux/fs.h **** 	FREEZE_HOLDER_KERNEL	= (1U << 0),
 731:/mnt/c/Users/31740/Desktop/newcore/include/linux/fs.h **** 	FREEZE_HOLDER_USERSPACE	= (1U << 1),
 732:/mnt/c/Users/31740/Desktop/newcore/include/linux/fs.h **** 	FREEZE_MAY_NEST		= (1U << 2),
 733:/mnt/c/Users/31740/Desktop/newcore/include/linux/fs.h **** };
 734:/mnt/c/Users/31740/Desktop/newcore/include/linux/fs.h **** 
 735:/mnt/c/Users/31740/Desktop/newcore/include/linux/fs.h **** struct writeback_control {
 736:/mnt/c/Users/31740/Desktop/newcore/include/linux/fs.h **** 	unsigned long nr_to_write;
 737:/mnt/c/Users/31740/Desktop/newcore/include/linux/fs.h **** };
 738:/mnt/c/Users/31740/Desktop/newcore/include/linux/fs.h **** 
 739:/mnt/c/Users/31740/Desktop/newcore/include/linux/fs.h **** 
 740:/mnt/c/Users/31740/Desktop/newcore/include/linux/fs.h **** struct shrink_control {
 741:/mnt/c/Users/31740/Desktop/newcore/include/linux/fs.h **** 	gfp_t gfp_mask;
 742:/mnt/c/Users/31740/Desktop/newcore/include/linux/fs.h **** 	int nid;
 743:/mnt/c/Users/31740/Desktop/newcore/include/linux/fs.h **** 	unsigned long nr_to_scan;
 744:/mnt/c/Users/31740/Desktop/newcore/include/linux/fs.h **** 	unsigned long nr_scanned;
 745:/mnt/c/Users/31740/Desktop/newcore/include/linux/fs.h ****     //struct mem_cgroup *memcg;
 746:/mnt/c/Users/31740/Desktop/newcore/include/linux/fs.h **** };
 747:/mnt/c/Users/31740/Desktop/newcore/include/linux/fs.h **** 
 748:/mnt/c/Users/31740/Desktop/newcore/include/linux/fs.h **** struct super_operations {
 749:/mnt/c/Users/31740/Desktop/newcore/include/linux/fs.h ****    	struct inode *(*alloc_inode)(struct super_block *sb);
 750:/mnt/c/Users/31740/Desktop/newcore/include/linux/fs.h **** 	void (*destroy_inode)       (struct inode *);
 751:/mnt/c/Users/31740/Desktop/newcore/include/linux/fs.h **** 	void (*free_inode)          (struct inode *);
 752:/mnt/c/Users/31740/Desktop/newcore/include/linux/fs.h ****    	void (*dirty_inode)         (struct inode *, int flags);
 753:/mnt/c/Users/31740/Desktop/newcore/include/linux/fs.h **** 	int  (*write_inode)         (struct inode *, struct writeback_control *wbc);
 754:/mnt/c/Users/31740/Desktop/newcore/include/linux/fs.h **** 	int  (*drop_inode)          (struct inode *);
 755:/mnt/c/Users/31740/Desktop/newcore/include/linux/fs.h **** 	void (*evict_inode)         (struct inode *);
 756:/mnt/c/Users/31740/Desktop/newcore/include/linux/fs.h **** 	void (*put_super)           (struct super_block *);
 757:/mnt/c/Users/31740/Desktop/newcore/include/linux/fs.h **** 	int  (*sync_fs)             (struct super_block *sb, int wait);
 758:/mnt/c/Users/31740/Desktop/newcore/include/linux/fs.h **** 	int  (*freeze_super)        (struct super_block *, enum freeze_holder who);
 759:/mnt/c/Users/31740/Desktop/newcore/include/linux/fs.h **** 	int  (*freeze_fs)           (struct super_block *);
 760:/mnt/c/Users/31740/Desktop/newcore/include/linux/fs.h **** 	int  (*thaw_super)          (struct super_block *, enum freeze_holder who);
 761:/mnt/c/Users/31740/Desktop/newcore/include/linux/fs.h **** 	int  (*unfreeze_fs)         (struct super_block *);
ARM GAS  /tmp/ccaQsqPk.s 			page 51


 762:/mnt/c/Users/31740/Desktop/newcore/include/linux/fs.h **** 	int  (*statfs)              (struct dentry *, struct kstatfs *);
 763:/mnt/c/Users/31740/Desktop/newcore/include/linux/fs.h **** 	int  (*remount_fs)          (struct super_block *, int *, char *);
 764:/mnt/c/Users/31740/Desktop/newcore/include/linux/fs.h **** 	void (*umount_begin)        (struct super_block *);
 765:/mnt/c/Users/31740/Desktop/newcore/include/linux/fs.h **** 	int  (*show_options)        (struct seq_file *, struct dentry *);
 766:/mnt/c/Users/31740/Desktop/newcore/include/linux/fs.h **** 	int  (*show_devname)        (struct seq_file *, struct dentry *);
 767:/mnt/c/Users/31740/Desktop/newcore/include/linux/fs.h **** 	int  (*show_path)           (struct seq_file *, struct dentry *);
 768:/mnt/c/Users/31740/Desktop/newcore/include/linux/fs.h **** 	int  (*show_stats)          (struct seq_file *, struct dentry *);
 769:/mnt/c/Users/31740/Desktop/newcore/include/linux/fs.h **** 
 770:/mnt/c/Users/31740/Desktop/newcore/include/linux/fs.h **** #ifdef CONFIG_QUOTA
 771:/mnt/c/Users/31740/Desktop/newcore/include/linux/fs.h **** 	ssize_t (*quota_read)(struct super_block *, int, char *, size_t, loff_t);
 772:/mnt/c/Users/31740/Desktop/newcore/include/linux/fs.h **** 	ssize_t (*quota_write)(struct super_block *, int, const char *, size_t, loff_t);
 773:/mnt/c/Users/31740/Desktop/newcore/include/linux/fs.h **** 	struct dquot __rcu **(*get_dquots)(struct inode *);
 774:/mnt/c/Users/31740/Desktop/newcore/include/linux/fs.h **** #endif
 775:/mnt/c/Users/31740/Desktop/newcore/include/linux/fs.h **** 
 776:/mnt/c/Users/31740/Desktop/newcore/include/linux/fs.h **** 	long (*nr_cached_objects)(struct super_block *,struct shrink_control *);
 777:/mnt/c/Users/31740/Desktop/newcore/include/linux/fs.h **** 	long (*free_cached_objects)(struct super_block *,struct shrink_control *);
 778:/mnt/c/Users/31740/Desktop/newcore/include/linux/fs.h **** 	void (*shutdown)(struct super_block *sb);
 779:/mnt/c/Users/31740/Desktop/newcore/include/linux/fs.h **** };
 780:/mnt/c/Users/31740/Desktop/newcore/include/linux/fs.h **** 
 781:/mnt/c/Users/31740/Desktop/newcore/include/linux/fs.h **** 
 782:/mnt/c/Users/31740/Desktop/newcore/include/linux/fs.h **** 
 783:/mnt/c/Users/31740/Desktop/newcore/include/linux/fs.h **** /********************************************************
 784:/mnt/c/Users/31740/Desktop/newcore/include/linux/fs.h ****  * 														*
 785:/mnt/c/Users/31740/Desktop/newcore/include/linux/fs.h ****  * 			       dquot_operations						*
 786:/mnt/c/Users/31740/Desktop/newcore/include/linux/fs.h ****  *														* 
 787:/mnt/c/Users/31740/Desktop/newcore/include/linux/fs.h **** *********************************************************/
 788:/mnt/c/Users/31740/Desktop/newcore/include/linux/fs.h **** 
 789:/mnt/c/Users/31740/Desktop/newcore/include/linux/fs.h **** typedef __kernel_uid32_t 	qid_t; /* Type in which we store ids in memory */
 790:/mnt/c/Users/31740/Desktop/newcore/include/linux/fs.h **** typedef long long 			qsize_t;	/* Type in which we store sizes */
 791:/mnt/c/Users/31740/Desktop/newcore/include/linux/fs.h **** 
 792:/mnt/c/Users/31740/Desktop/newcore/include/linux/fs.h **** #undef USRQUOTA
 793:/mnt/c/Users/31740/Desktop/newcore/include/linux/fs.h **** #undef GRPQUOTA
 794:/mnt/c/Users/31740/Desktop/newcore/include/linux/fs.h **** #undef PRJQUOTA
 795:/mnt/c/Users/31740/Desktop/newcore/include/linux/fs.h **** enum quota_type {
 796:/mnt/c/Users/31740/Desktop/newcore/include/linux/fs.h **** 	USRQUOTA = 0,		/* element used for user quotas */
 797:/mnt/c/Users/31740/Desktop/newcore/include/linux/fs.h **** 	GRPQUOTA = 1,		/* element used for group quotas */
 798:/mnt/c/Users/31740/Desktop/newcore/include/linux/fs.h **** 	PRJQUOTA = 2,		/* element used for project quotas */
 799:/mnt/c/Users/31740/Desktop/newcore/include/linux/fs.h **** };
 800:/mnt/c/Users/31740/Desktop/newcore/include/linux/fs.h **** 
 801:/mnt/c/Users/31740/Desktop/newcore/include/linux/fs.h **** struct kqid {			/* Type in which we store the quota identifier */
 802:/mnt/c/Users/31740/Desktop/newcore/include/linux/fs.h **** 	union {
 803:/mnt/c/Users/31740/Desktop/newcore/include/linux/fs.h **** 		kuid_t uid;
 804:/mnt/c/Users/31740/Desktop/newcore/include/linux/fs.h **** 		kgid_t gid;
 805:/mnt/c/Users/31740/Desktop/newcore/include/linux/fs.h **** 		kprojid_t projid;
 806:/mnt/c/Users/31740/Desktop/newcore/include/linux/fs.h **** 	};
 807:/mnt/c/Users/31740/Desktop/newcore/include/linux/fs.h **** 	enum quota_type type;  /* USRQUOTA (uid) or GRPQUOTA (gid) or PRJQUOTA (projid) */
 808:/mnt/c/Users/31740/Desktop/newcore/include/linux/fs.h **** };
 809:/mnt/c/Users/31740/Desktop/newcore/include/linux/fs.h **** 
 810:/mnt/c/Users/31740/Desktop/newcore/include/linux/fs.h **** struct mem_dqblk {
 811:/mnt/c/Users/31740/Desktop/newcore/include/linux/fs.h **** 	qsize_t dqb_bhardlimit;	/* absolute limit on disk blks alloc */
 812:/mnt/c/Users/31740/Desktop/newcore/include/linux/fs.h **** 	qsize_t dqb_bsoftlimit;	/* preferred limit on disk blks */
 813:/mnt/c/Users/31740/Desktop/newcore/include/linux/fs.h **** 	qsize_t dqb_curspace;	/* current used space */
 814:/mnt/c/Users/31740/Desktop/newcore/include/linux/fs.h **** 	qsize_t dqb_rsvspace;   /* current reserved space for delalloc*/
 815:/mnt/c/Users/31740/Desktop/newcore/include/linux/fs.h **** 	qsize_t dqb_ihardlimit;	/* absolute limit on allocated inodes */
 816:/mnt/c/Users/31740/Desktop/newcore/include/linux/fs.h **** 	qsize_t dqb_isoftlimit;	/* preferred inode limit */
 817:/mnt/c/Users/31740/Desktop/newcore/include/linux/fs.h **** 	qsize_t dqb_curinodes;	/* current # allocated inodes */
 818:/mnt/c/Users/31740/Desktop/newcore/include/linux/fs.h **** 	time64_t dqb_btime;	/* time limit for excessive disk use */
ARM GAS  /tmp/ccaQsqPk.s 			page 52


 819:/mnt/c/Users/31740/Desktop/newcore/include/linux/fs.h **** 	time64_t dqb_itime;	/* time limit for excessive inode use */
 820:/mnt/c/Users/31740/Desktop/newcore/include/linux/fs.h **** };
 821:/mnt/c/Users/31740/Desktop/newcore/include/linux/fs.h **** 
 822:/mnt/c/Users/31740/Desktop/newcore/include/linux/fs.h **** struct dquot {
 823:/mnt/c/Users/31740/Desktop/newcore/include/linux/fs.h **** 	struct hlist_node dq_hash;	/* Hash list in memory [dq_list_lock] */
 824:/mnt/c/Users/31740/Desktop/newcore/include/linux/fs.h **** 	struct list_head dq_inuse;	/* List of all quotas [dq_list_lock] */
 825:/mnt/c/Users/31740/Desktop/newcore/include/linux/fs.h **** 	struct list_head dq_free;	/* Free list element [dq_list_lock] */
 826:/mnt/c/Users/31740/Desktop/newcore/include/linux/fs.h **** 	struct list_head dq_dirty;	/* List of dirty dquots [dq_list_lock] */
 827:/mnt/c/Users/31740/Desktop/newcore/include/linux/fs.h **** 	struct mutex dq_lock;		/* dquot IO lock */
 828:/mnt/c/Users/31740/Desktop/newcore/include/linux/fs.h **** //	spinlock_t dq_dqb_lock;		/* Lock protecting dq_dqb changes */
 829:/mnt/c/Users/31740/Desktop/newcore/include/linux/fs.h **** 	atomic_t dq_count;		/* Use count */
 830:/mnt/c/Users/31740/Desktop/newcore/include/linux/fs.h **** 	struct super_block *dq_sb;	/* superblock this applies to */
 831:/mnt/c/Users/31740/Desktop/newcore/include/linux/fs.h **** 	struct kqid dq_id;		/* ID this applies to (uid, gid, projid) */
 832:/mnt/c/Users/31740/Desktop/newcore/include/linux/fs.h **** 	loff_t dq_off;			/* Offset of dquot on disk [dq_lock, stable once set] */
 833:/mnt/c/Users/31740/Desktop/newcore/include/linux/fs.h **** 	unsigned long dq_flags;		/* See DQ_* */
 834:/mnt/c/Users/31740/Desktop/newcore/include/linux/fs.h **** 	struct mem_dqblk dq_dqb;	/* Diskquota usage [dq_dqb_lock] */
 835:/mnt/c/Users/31740/Desktop/newcore/include/linux/fs.h **** };
 836:/mnt/c/Users/31740/Desktop/newcore/include/linux/fs.h **** 
 837:/mnt/c/Users/31740/Desktop/newcore/include/linux/fs.h **** /* Operations which must be implemented by each quota format */
 838:/mnt/c/Users/31740/Desktop/newcore/include/linux/fs.h **** 
 839:/mnt/c/Users/31740/Desktop/newcore/include/linux/fs.h **** struct quota_format_ops {
 840:/mnt/c/Users/31740/Desktop/newcore/include/linux/fs.h **** 	int (*check_quota_file)(struct super_block *sb, int type);	/* Detect whether file is in our format
 841:/mnt/c/Users/31740/Desktop/newcore/include/linux/fs.h **** 	int (*read_file_info)(struct super_block *sb, int type);	/* Read main info about file - called on 
 842:/mnt/c/Users/31740/Desktop/newcore/include/linux/fs.h **** 	int (*write_file_info)(struct super_block *sb, int type);	/* Write main info about file */
 843:/mnt/c/Users/31740/Desktop/newcore/include/linux/fs.h **** 	int (*free_file_info)(struct super_block *sb, int type);	/* Called on quotaoff() */
 844:/mnt/c/Users/31740/Desktop/newcore/include/linux/fs.h **** 	int (*read_dqblk)(struct dquot *dquot);		/* Read structure for one user */
 845:/mnt/c/Users/31740/Desktop/newcore/include/linux/fs.h **** 	int (*commit_dqblk)(struct dquot *dquot);	/* Write structure for one user */
 846:/mnt/c/Users/31740/Desktop/newcore/include/linux/fs.h **** 	int (*release_dqblk)(struct dquot *dquot);	/* Called when last reference to dquot is being dropped
 847:/mnt/c/Users/31740/Desktop/newcore/include/linux/fs.h **** 	int (*get_next_id)(struct super_block *sb, struct kqid *qid);	/* Get next ID with existing structu
 848:/mnt/c/Users/31740/Desktop/newcore/include/linux/fs.h **** };
 849:/mnt/c/Users/31740/Desktop/newcore/include/linux/fs.h **** 
 850:/mnt/c/Users/31740/Desktop/newcore/include/linux/fs.h **** struct dquot_operations {
 851:/mnt/c/Users/31740/Desktop/newcore/include/linux/fs.h **** 	int (*write_dquot) (struct dquot *);		/* Ordinary dquot write */
 852:/mnt/c/Users/31740/Desktop/newcore/include/linux/fs.h **** 	struct dquot *(*alloc_dquot)(struct super_block *, int);	/* Allocate memory for new dquot */
 853:/mnt/c/Users/31740/Desktop/newcore/include/linux/fs.h **** 	void (*destroy_dquot)(struct dquot *);		/* Free memory for dquot */
 854:/mnt/c/Users/31740/Desktop/newcore/include/linux/fs.h **** 	int (*acquire_dquot) (struct dquot *);		/* Quota is going to be created on disk */
 855:/mnt/c/Users/31740/Desktop/newcore/include/linux/fs.h **** 	int (*release_dquot) (struct dquot *);		/* Quota is going to be deleted from disk */
 856:/mnt/c/Users/31740/Desktop/newcore/include/linux/fs.h **** 	int (*mark_dirty) (struct dquot *);		/* Dquot is marked dirty */
 857:/mnt/c/Users/31740/Desktop/newcore/include/linux/fs.h **** 	int (*write_info) (struct super_block *, int);	/* Write of quota "superblock" */
 858:/mnt/c/Users/31740/Desktop/newcore/include/linux/fs.h **** 	/* get reserved quota for delayed alloc, value returned is managed by
 859:/mnt/c/Users/31740/Desktop/newcore/include/linux/fs.h **** 	 * quota code only */
 860:/mnt/c/Users/31740/Desktop/newcore/include/linux/fs.h **** 	qsize_t *(*get_reserved_space) (struct inode *);
 861:/mnt/c/Users/31740/Desktop/newcore/include/linux/fs.h **** 	int (*get_projid) (struct inode *, kprojid_t *);/* Get project ID */
 862:/mnt/c/Users/31740/Desktop/newcore/include/linux/fs.h **** 	/* Get number of inodes that were charged for a given inode */
 863:/mnt/c/Users/31740/Desktop/newcore/include/linux/fs.h **** 	int (*get_inode_usage) (struct inode *, qsize_t *);
 864:/mnt/c/Users/31740/Desktop/newcore/include/linux/fs.h **** 	/* Get next ID with active quota structure */
 865:/mnt/c/Users/31740/Desktop/newcore/include/linux/fs.h **** 	int (*get_next_id) (struct super_block *sb, struct kqid *qid);
 866:/mnt/c/Users/31740/Desktop/newcore/include/linux/fs.h **** };
 867:/mnt/c/Users/31740/Desktop/newcore/include/linux/fs.h **** 
 868:/mnt/c/Users/31740/Desktop/newcore/include/linux/fs.h **** /********************************************************
 869:/mnt/c/Users/31740/Desktop/newcore/include/linux/fs.h ****  * 														*
 870:/mnt/c/Users/31740/Desktop/newcore/include/linux/fs.h ****  * 			       file_system_type						*
 871:/mnt/c/Users/31740/Desktop/newcore/include/linux/fs.h ****  *														* 
 872:/mnt/c/Users/31740/Desktop/newcore/include/linux/fs.h **** *********************************************************/
 873:/mnt/c/Users/31740/Desktop/newcore/include/linux/fs.h **** 
 874:/mnt/c/Users/31740/Desktop/newcore/include/linux/fs.h **** struct fs_parameter_spec {
 875:/mnt/c/Users/31740/Desktop/newcore/include/linux/fs.h **** 	const char		*name;
ARM GAS  /tmp/ccaQsqPk.s 			page 53


 876:/mnt/c/Users/31740/Desktop/newcore/include/linux/fs.h **** //	fs_param_type		*type;	/* The desired parameter type */
 877:/mnt/c/Users/31740/Desktop/newcore/include/linux/fs.h **** 	u8			opt;	/* Option number (returned by fs_parse()) */
 878:/mnt/c/Users/31740/Desktop/newcore/include/linux/fs.h **** 	unsigned short		flags;
 879:/mnt/c/Users/31740/Desktop/newcore/include/linux/fs.h **** #define fs_param_neg_with_no	0x0002	/* "noxxx" is negative param */
 880:/mnt/c/Users/31740/Desktop/newcore/include/linux/fs.h **** #define fs_param_can_be_empty	0x0004	/* "xxx=" is allowed */
 881:/mnt/c/Users/31740/Desktop/newcore/include/linux/fs.h **** #define fs_param_deprecated	0x0008	/* The param is deprecated */
 882:/mnt/c/Users/31740/Desktop/newcore/include/linux/fs.h **** 	const void		*data;
 883:/mnt/c/Users/31740/Desktop/newcore/include/linux/fs.h **** };
 884:/mnt/c/Users/31740/Desktop/newcore/include/linux/fs.h **** 
 885:/mnt/c/Users/31740/Desktop/newcore/include/linux/fs.h **** 
 886:/mnt/c/Users/31740/Desktop/newcore/include/linux/fs.h **** struct file_system_type {
 887:/mnt/c/Users/31740/Desktop/newcore/include/linux/fs.h **** 	const char *name;
 888:/mnt/c/Users/31740/Desktop/newcore/include/linux/fs.h **** 	int fs_flags;
 889:/mnt/c/Users/31740/Desktop/newcore/include/linux/fs.h **** #define FS_REQUIRES_DEV		1 
 890:/mnt/c/Users/31740/Desktop/newcore/include/linux/fs.h **** #define FS_BINARY_MOUNTDATA	2
 891:/mnt/c/Users/31740/Desktop/newcore/include/linux/fs.h **** #define FS_HAS_SUBTYPE		4
 892:/mnt/c/Users/31740/Desktop/newcore/include/linux/fs.h **** #define FS_USERNS_MOUNT		8	/* Can be mounted by userns root */
 893:/mnt/c/Users/31740/Desktop/newcore/include/linux/fs.h **** #define FS_DISALLOW_NOTIFY_PERM	16	/* Disable fanotify permission events */
 894:/mnt/c/Users/31740/Desktop/newcore/include/linux/fs.h **** #define FS_ALLOW_IDMAP         32      /* FS has been updated to handle vfs idmappings. */
 895:/mnt/c/Users/31740/Desktop/newcore/include/linux/fs.h **** #define FS_MGTIME		64	/* FS uses multigrain timestamps */
 896:/mnt/c/Users/31740/Desktop/newcore/include/linux/fs.h **** #define FS_RENAME_DOES_D_MOVE	32768	/* FS will handle d_move() during rename() internally. */
 897:/mnt/c/Users/31740/Desktop/newcore/include/linux/fs.h **** 	int (*init_fs_context)(struct fs_context *);
 898:/mnt/c/Users/31740/Desktop/newcore/include/linux/fs.h **** 	const struct fs_parameter_spec *parameters;
 899:/mnt/c/Users/31740/Desktop/newcore/include/linux/fs.h **** 	struct dentry *(*mount) (struct file_system_type *, int,
 900:/mnt/c/Users/31740/Desktop/newcore/include/linux/fs.h **** 		       const char *, void *);
 901:/mnt/c/Users/31740/Desktop/newcore/include/linux/fs.h **** 	void (*kill_sb) (struct super_block *);
 902:/mnt/c/Users/31740/Desktop/newcore/include/linux/fs.h **** 	void *owner;
 903:/mnt/c/Users/31740/Desktop/newcore/include/linux/fs.h **** 	struct file_system_type * next;
 904:/mnt/c/Users/31740/Desktop/newcore/include/linux/fs.h **** 	struct hlist_head fs_supers;
 905:/mnt/c/Users/31740/Desktop/newcore/include/linux/fs.h **** 
 906:/mnt/c/Users/31740/Desktop/newcore/include/linux/fs.h **** 	struct lock_class_key s_lock_key;
 907:/mnt/c/Users/31740/Desktop/newcore/include/linux/fs.h **** 	struct lock_class_key s_umount_key;
 908:/mnt/c/Users/31740/Desktop/newcore/include/linux/fs.h **** 	struct lock_class_key s_vfs_rename_key;
 909:/mnt/c/Users/31740/Desktop/newcore/include/linux/fs.h **** 	struct lock_class_key s_writers_key[SB_FREEZE_LEVELS];
 910:/mnt/c/Users/31740/Desktop/newcore/include/linux/fs.h **** 	struct lock_class_key i_lock_key;
 911:/mnt/c/Users/31740/Desktop/newcore/include/linux/fs.h **** 	struct lock_class_key i_mutex_key;
 912:/mnt/c/Users/31740/Desktop/newcore/include/linux/fs.h **** 	struct lock_class_key invalidate_lock_key;
 913:/mnt/c/Users/31740/Desktop/newcore/include/linux/fs.h **** 	struct lock_class_key i_mutex_dir_key;
 914:/mnt/c/Users/31740/Desktop/newcore/include/linux/fs.h **** };
 915:/mnt/c/Users/31740/Desktop/newcore/include/linux/fs.h **** 
 916:/mnt/c/Users/31740/Desktop/newcore/include/linux/fs.h **** 
 917:/mnt/c/Users/31740/Desktop/newcore/include/linux/fs.h **** 
 918:/mnt/c/Users/31740/Desktop/newcore/include/linux/fs.h **** extern int register_filesystem(struct file_system_type *);
 919:/mnt/c/Users/31740/Desktop/newcore/include/linux/fs.h **** extern int unregister_filesystem(struct file_system_type *);
 920:/mnt/c/Users/31740/Desktop/newcore/include/linux/fs.h **** extern struct file_system_type *lookup_fs_type(const char *name);
 921:/mnt/c/Users/31740/Desktop/newcore/include/linux/fs.h **** 
 922:/mnt/c/Users/31740/Desktop/newcore/include/linux/fs.h **** /*--------------------------------------------------------------------------*/
 923:/mnt/c/Users/31740/Desktop/newcore/include/linux/fs.h **** static inline bool is_sync_kiocb(struct kiocb *kiocb){
 924:/mnt/c/Users/31740/Desktop/newcore/include/linux/fs.h **** 	return kiocb->ki_complete == NULL;
 925:/mnt/c/Users/31740/Desktop/newcore/include/linux/fs.h **** }
 926:/mnt/c/Users/31740/Desktop/newcore/include/linux/fs.h **** static inline struct inode *file_inode(const struct file *f){
 927:/mnt/c/Users/31740/Desktop/newcore/include/linux/fs.h **** 	return f->f_inode;
 928:/mnt/c/Users/31740/Desktop/newcore/include/linux/fs.h **** }
 929:/mnt/c/Users/31740/Desktop/newcore/include/linux/fs.h **** /*--------------------------------------------------------------------------*/
 930:/mnt/c/Users/31740/Desktop/newcore/include/linux/fs.h **** 
 931:/mnt/c/Users/31740/Desktop/newcore/include/linux/fs.h **** extern int remove_dentry(char* path);
 932:/mnt/c/Users/31740/Desktop/newcore/include/linux/fs.h **** extern struct file *filp_open(const char * path, int flags, umode_t mode);
ARM GAS  /tmp/ccaQsqPk.s 			page 54


 933:/mnt/c/Users/31740/Desktop/newcore/include/linux/fs.h **** extern ssize_t kernel_read(struct file *file, void * buf, size_t count, loff_t *ppos);
 934:/mnt/c/Users/31740/Desktop/newcore/include/linux/fs.h **** extern ssize_t kernel_write(struct file *file,const void * buf, size_t count, loff_t *ppos);
 935:/mnt/c/Users/31740/Desktop/newcore/include/linux/fs.h **** extern long vfs_ioctl(struct file *file, unsigned int cmd, unsigned long arg);
 936:/mnt/c/Users/31740/Desktop/newcore/include/linux/fs.h **** extern int file_close(struct file *file, fl_owner_t id);
 937:/mnt/c/Users/31740/Desktop/newcore/include/linux/fs.h **** 
 938:/mnt/c/Users/31740/Desktop/newcore/include/linux/fs.h **** 
 939:/mnt/c/Users/31740/Desktop/newcore/include/linux/fs.h **** 
 940:/mnt/c/Users/31740/Desktop/newcore/include/linux/fs.h **** /* fs/char_dev.c */
 941:/mnt/c/Users/31740/Desktop/newcore/include/linux/fs.h **** #define CHRDEV_MAJOR_MAX 512
 942:/mnt/c/Users/31740/Desktop/newcore/include/linux/fs.h **** /* Marks the bottom of the first segment of free char majors */
 943:/mnt/c/Users/31740/Desktop/newcore/include/linux/fs.h **** #define CHRDEV_MAJOR_DYN_END 234
 944:/mnt/c/Users/31740/Desktop/newcore/include/linux/fs.h **** /* Marks the top and bottom of the second segment of free char majors */
 945:/mnt/c/Users/31740/Desktop/newcore/include/linux/fs.h **** #define CHRDEV_MAJOR_DYN_EXT_START 511
 946:/mnt/c/Users/31740/Desktop/newcore/include/linux/fs.h **** #define CHRDEV_MAJOR_DYN_EXT_END 384
 947:/mnt/c/Users/31740/Desktop/newcore/include/linux/fs.h **** 
 948:/mnt/c/Users/31740/Desktop/newcore/include/linux/fs.h **** 
 949:/mnt/c/Users/31740/Desktop/newcore/include/linux/fs.h **** 
 950:/mnt/c/Users/31740/Desktop/newcore/include/linux/fs.h **** extern int alloc_chrdev_region(dev_t *, unsigned, unsigned, const char *);
 951:/mnt/c/Users/31740/Desktop/newcore/include/linux/fs.h **** extern int register_chrdev_region(dev_t, unsigned, const char *);
 952:/mnt/c/Users/31740/Desktop/newcore/include/linux/fs.h **** extern int __register_chrdev(unsigned int major, unsigned int baseminor,
 953:/mnt/c/Users/31740/Desktop/newcore/include/linux/fs.h ****     unsigned int count, const char *name,
 954:/mnt/c/Users/31740/Desktop/newcore/include/linux/fs.h ****     const struct file_operations *fops);
 955:/mnt/c/Users/31740/Desktop/newcore/include/linux/fs.h **** extern void __unregister_chrdev(unsigned int major, unsigned int baseminor,
 956:/mnt/c/Users/31740/Desktop/newcore/include/linux/fs.h **** 		unsigned int count, const char *name);
 957:/mnt/c/Users/31740/Desktop/newcore/include/linux/fs.h **** extern void unregister_chrdev_region(dev_t, unsigned);
 958:/mnt/c/Users/31740/Desktop/newcore/include/linux/fs.h **** 
 959:/mnt/c/Users/31740/Desktop/newcore/include/linux/fs.h **** static inline int register_chrdev(unsigned int major, const char *name,
 1091              		.loc 4 959 19 view .LVU298
 1092              	.LBB25:
 960:/mnt/c/Users/31740/Desktop/newcore/include/linux/fs.h **** 	const struct file_operations *fops)
 961:/mnt/c/Users/31740/Desktop/newcore/include/linux/fs.h **** {
 962:/mnt/c/Users/31740/Desktop/newcore/include/linux/fs.h **** return __register_chrdev(major, 0, 256, name, fops);
 1093              		.loc 4 962 1 view .LVU299
 1094              		.loc 4 962 8 is_stmt 0 view .LVU300
 1095 0004 184C     		ldr	r4, .L84
 1096 0006 194B     		ldr	r3, .L84+4
 1097 0008 0093     		str	r3, [sp]
 1098 000a 2346     		mov	r3, r4
 1099 000c 4FF48072 		mov	r2, #256
 1100 0010 0021     		movs	r1, #0
 1101 0012 0846     		mov	r0, r1
 1102 0014 FFF7FEFF 		bl	__register_chrdev
 1103              	.LVL111:
 1104 0018 0546     		mov	r5, r0
 1105              	.LVL112:
 1106              		.loc 4 962 8 view .LVU301
 1107              	.LBE25:
 1108              	.LBE24:
 475:/mnt/c/Users/31740/Desktop/newcore/drivers/gpio/stm32f4_gpio.c **** 	pr_info ( "register gpio (%d) \n" , major);
 1109              		.loc 1 475 2 is_stmt 1 view .LVU302
 1110 001a 0246     		mov	r2, r0
 1111 001c 1449     		ldr	r1, .L84+8
 1112 001e 0620     		movs	r0, #6
 1113              	.LVL113:
 1114              		.loc 1 475 2 is_stmt 0 view .LVU303
 1115 0020 FFF7FEFF 		bl	printk
 1116              	.LVL114:
ARM GAS  /tmp/ccaQsqPk.s 			page 55


 476:/mnt/c/Users/31740/Desktop/newcore/drivers/gpio/stm32f4_gpio.c **** 
 477:/mnt/c/Users/31740/Desktop/newcore/drivers/gpio/stm32f4_gpio.c ****     struct class* gpio_class = class_create(THIS_MODULE,"gpios");
 1117              		.loc 1 477 5 is_stmt 1 view .LVU304
 1118              		.loc 1 477 32 is_stmt 0 view .LVU305
 1119 0024 2146     		mov	r1, r4
 1120 0026 0020     		movs	r0, #0
 1121 0028 FFF7FEFF 		bl	class_create
 1122              	.LVL115:
 1123 002c 0446     		mov	r4, r0
 1124              	.LVL116:
 478:/mnt/c/Users/31740/Desktop/newcore/drivers/gpio/stm32f4_gpio.c ****     if(IS_ERR(gpio_class)){
 1125              		.loc 1 478 5 is_stmt 1 view .LVU306
 1126              	.LBB26:
 1127              	.LBI26:
 1128              		.file 5 "/mnt/c/Users/31740/Desktop/newcore/include/linux/err.h"
   1:/mnt/c/Users/31740/Desktop/newcore/include/linux/err.h **** /* SPDX-License-Identifier: GPL-2.0 */
   2:/mnt/c/Users/31740/Desktop/newcore/include/linux/err.h **** #ifndef _LINUX_ERR_H
   3:/mnt/c/Users/31740/Desktop/newcore/include/linux/err.h **** #define _LINUX_ERR_H
   4:/mnt/c/Users/31740/Desktop/newcore/include/linux/err.h **** 
   5:/mnt/c/Users/31740/Desktop/newcore/include/linux/err.h **** #include <linux/compiler_attributes.h>
   6:/mnt/c/Users/31740/Desktop/newcore/include/linux/err.h **** #include <linux/compiler.h>
   7:/mnt/c/Users/31740/Desktop/newcore/include/linux/err.h **** #include <linux/types.h>
   8:/mnt/c/Users/31740/Desktop/newcore/include/linux/err.h **** 
   9:/mnt/c/Users/31740/Desktop/newcore/include/linux/err.h **** #include <asm/errno.h>
  10:/mnt/c/Users/31740/Desktop/newcore/include/linux/err.h **** 
  11:/mnt/c/Users/31740/Desktop/newcore/include/linux/err.h **** /*
  12:/mnt/c/Users/31740/Desktop/newcore/include/linux/err.h ****  * Kernel pointers have redundant information, so we can use a
  13:/mnt/c/Users/31740/Desktop/newcore/include/linux/err.h ****  * scheme where we can return either an error code or a normal
  14:/mnt/c/Users/31740/Desktop/newcore/include/linux/err.h ****  * pointer with the same return value.
  15:/mnt/c/Users/31740/Desktop/newcore/include/linux/err.h ****  *
  16:/mnt/c/Users/31740/Desktop/newcore/include/linux/err.h ****  * This should be a per-architecture thing, to allow different
  17:/mnt/c/Users/31740/Desktop/newcore/include/linux/err.h ****  * error and pointer decisions.
  18:/mnt/c/Users/31740/Desktop/newcore/include/linux/err.h ****  */
  19:/mnt/c/Users/31740/Desktop/newcore/include/linux/err.h **** #define MAX_ERRNO	4095
  20:/mnt/c/Users/31740/Desktop/newcore/include/linux/err.h **** 
  21:/mnt/c/Users/31740/Desktop/newcore/include/linux/err.h **** #ifndef __ASSEMBLY__
  22:/mnt/c/Users/31740/Desktop/newcore/include/linux/err.h **** 
  23:/mnt/c/Users/31740/Desktop/newcore/include/linux/err.h **** /**
  24:/mnt/c/Users/31740/Desktop/newcore/include/linux/err.h ****  * IS_ERR_VALUE - Detect an error pointer.
  25:/mnt/c/Users/31740/Desktop/newcore/include/linux/err.h ****  * @x: The pointer to check.
  26:/mnt/c/Users/31740/Desktop/newcore/include/linux/err.h ****  *
  27:/mnt/c/Users/31740/Desktop/newcore/include/linux/err.h ****  * Like IS_ERR(), but does not generate a compiler warning if result is unused.
  28:/mnt/c/Users/31740/Desktop/newcore/include/linux/err.h ****  */
  29:/mnt/c/Users/31740/Desktop/newcore/include/linux/err.h **** 
  30:/mnt/c/Users/31740/Desktop/newcore/include/linux/err.h **** #ifndef unlikely
  31:/mnt/c/Users/31740/Desktop/newcore/include/linux/err.h **** #  define unlikely(x) __builtin_expect(!!(x), 0)
  32:/mnt/c/Users/31740/Desktop/newcore/include/linux/err.h **** #endif
  33:/mnt/c/Users/31740/Desktop/newcore/include/linux/err.h **** 
  34:/mnt/c/Users/31740/Desktop/newcore/include/linux/err.h **** #ifndef likely
  35:/mnt/c/Users/31740/Desktop/newcore/include/linux/err.h **** #  define likely(x) __builtin_expect(!!(x), 1)
  36:/mnt/c/Users/31740/Desktop/newcore/include/linux/err.h **** #endif
  37:/mnt/c/Users/31740/Desktop/newcore/include/linux/err.h **** 
  38:/mnt/c/Users/31740/Desktop/newcore/include/linux/err.h **** #define IS_ERR_VALUE(x) unlikely((unsigned long)(void *)(x) >= (unsigned long)-MAX_ERRNO)
  39:/mnt/c/Users/31740/Desktop/newcore/include/linux/err.h **** 
  40:/mnt/c/Users/31740/Desktop/newcore/include/linux/err.h **** /**
  41:/mnt/c/Users/31740/Desktop/newcore/include/linux/err.h ****  * ERR_PTR - Create an error pointer.
  42:/mnt/c/Users/31740/Desktop/newcore/include/linux/err.h ****  * @error: A negative error code.
ARM GAS  /tmp/ccaQsqPk.s 			page 56


  43:/mnt/c/Users/31740/Desktop/newcore/include/linux/err.h ****  *
  44:/mnt/c/Users/31740/Desktop/newcore/include/linux/err.h ****  * Encodes @error into a pointer value. Users should consider the result
  45:/mnt/c/Users/31740/Desktop/newcore/include/linux/err.h ****  * opaque and not assume anything about how the error is encoded.
  46:/mnt/c/Users/31740/Desktop/newcore/include/linux/err.h ****  *
  47:/mnt/c/Users/31740/Desktop/newcore/include/linux/err.h ****  * Return: A pointer with @error encoded within its value.
  48:/mnt/c/Users/31740/Desktop/newcore/include/linux/err.h ****  */
  49:/mnt/c/Users/31740/Desktop/newcore/include/linux/err.h **** static inline void * __must_check ERR_PTR(long error)
  50:/mnt/c/Users/31740/Desktop/newcore/include/linux/err.h **** {
  51:/mnt/c/Users/31740/Desktop/newcore/include/linux/err.h **** 	return (void *) error;
  52:/mnt/c/Users/31740/Desktop/newcore/include/linux/err.h **** }
  53:/mnt/c/Users/31740/Desktop/newcore/include/linux/err.h **** 
  54:/mnt/c/Users/31740/Desktop/newcore/include/linux/err.h **** /* Return the pointer in the percpu address space. */
  55:/mnt/c/Users/31740/Desktop/newcore/include/linux/err.h **** #define ERR_PTR_PCPU(error) ((void __percpu *)(unsigned long)ERR_PTR(error))
  56:/mnt/c/Users/31740/Desktop/newcore/include/linux/err.h **** 
  57:/mnt/c/Users/31740/Desktop/newcore/include/linux/err.h **** /**
  58:/mnt/c/Users/31740/Desktop/newcore/include/linux/err.h ****  * PTR_ERR - Extract the error code from an error pointer.
  59:/mnt/c/Users/31740/Desktop/newcore/include/linux/err.h ****  * @ptr: An error pointer.
  60:/mnt/c/Users/31740/Desktop/newcore/include/linux/err.h ****  * Return: The error code within @ptr.
  61:/mnt/c/Users/31740/Desktop/newcore/include/linux/err.h ****  */
  62:/mnt/c/Users/31740/Desktop/newcore/include/linux/err.h **** static inline long __must_check PTR_ERR(__force const void *ptr)
  63:/mnt/c/Users/31740/Desktop/newcore/include/linux/err.h **** {
  64:/mnt/c/Users/31740/Desktop/newcore/include/linux/err.h **** 	return (long) ptr;
  65:/mnt/c/Users/31740/Desktop/newcore/include/linux/err.h **** }
  66:/mnt/c/Users/31740/Desktop/newcore/include/linux/err.h **** 
  67:/mnt/c/Users/31740/Desktop/newcore/include/linux/err.h **** /* Read an error pointer from the percpu address space. */
  68:/mnt/c/Users/31740/Desktop/newcore/include/linux/err.h **** #define PTR_ERR_PCPU(ptr) (PTR_ERR((const void *)(__force const unsigned long)(ptr)))
  69:/mnt/c/Users/31740/Desktop/newcore/include/linux/err.h **** 
  70:/mnt/c/Users/31740/Desktop/newcore/include/linux/err.h **** /**
  71:/mnt/c/Users/31740/Desktop/newcore/include/linux/err.h ****  * IS_ERR - Detect an error pointer.
  72:/mnt/c/Users/31740/Desktop/newcore/include/linux/err.h ****  * @ptr: The pointer to check.
  73:/mnt/c/Users/31740/Desktop/newcore/include/linux/err.h ****  * Return: true if @ptr is an error pointer, false otherwise.
  74:/mnt/c/Users/31740/Desktop/newcore/include/linux/err.h ****  */
  75:/mnt/c/Users/31740/Desktop/newcore/include/linux/err.h **** static inline bool __must_check IS_ERR(__force const void *ptr)
 1129              		.loc 5 75 33 view .LVU307
 1130              	.LBB27:
  76:/mnt/c/Users/31740/Desktop/newcore/include/linux/err.h **** {
