ARM GAS  /tmp/cc8dJDV6.s 			page 1


   1              		.cpu cortex-m4
   2              		.arch armv7e-m
   3              		.fpu fpv4-sp-d16
   4              		.eabi_attribute 27, 1
   5              		.eabi_attribute 28, 1
   6              		.eabi_attribute 20, 1
   7              		.eabi_attribute 21, 1
   8              		.eabi_attribute 23, 3
   9              		.eabi_attribute 24, 1
  10              		.eabi_attribute 25, 1
  11              		.eabi_attribute 26, 1
  12              		.eabi_attribute 30, 1
  13              		.eabi_attribute 34, 1
  14              		.eabi_attribute 18, 4
  15              		.file	"stm32f4_tick.c"
  16              		.text
  17              	.Ltext0:
  18              		.cfi_sections	.debug_frame
  19              		.file 1 "./drivers/tick/stm32f4_tick.c"
  20              		.section	.text.SysTick_init,"ax",%progbits
  21              		.align	1
  22              		.global	SysTick_init
  23              		.syntax unified
  24              		.thumb
  25              		.thumb_func
  27              	SysTick_init:
  28              	.LFB1033:
   1:./drivers/tick/stm32f4_tick.c **** #include <linux/kernel.h>
   2:./drivers/tick/stm32f4_tick.c **** #include <linux/fs.h>
   3:./drivers/tick/stm32f4_tick.c **** #include <linux/init.h>
   4:./drivers/tick/stm32f4_tick.c **** #include <linux/slab.h>
   5:./drivers/tick/stm32f4_tick.c **** #include <linux/device.h>
   6:./drivers/tick/stm32f4_tick.c **** #include <generated/autoconf.h>
   7:./drivers/tick/stm32f4_tick.c **** 
   8:./drivers/tick/stm32f4_tick.c **** 
   9:./drivers/tick/stm32f4_tick.c **** 
  10:./drivers/tick/stm32f4_tick.c **** 
  11:./drivers/tick/stm32f4_tick.c **** // 系统控制块 (SCB) 寄存器定义
  12:./drivers/tick/stm32f4_tick.c **** #define SCB_BASE            (0xE000ED00UL)
  13:./drivers/tick/stm32f4_tick.c **** #define SCB                 ((SCB_Type *) SCB_BASE)
  14:./drivers/tick/stm32f4_tick.c **** 
  15:./drivers/tick/stm32f4_tick.c **** typedef struct {
  16:./drivers/tick/stm32f4_tick.c ****   volatile uint32_t CPUID;                  // CPUID基址寄存器
  17:./drivers/tick/stm32f4_tick.c ****   volatile uint32_t ICSR;                   // 中断控制及状态寄存器
  18:./drivers/tick/stm32f4_tick.c ****   volatile uint32_t VTOR;                   // 向量表偏移寄存器
  19:./drivers/tick/stm32f4_tick.c ****   volatile uint32_t AIRCR;                  // 应用中断及复位控制寄存器
  20:./drivers/tick/stm32f4_tick.c ****   volatile uint32_t SCR;                    // 系统控制寄存器
  21:./drivers/tick/stm32f4_tick.c ****   volatile uint32_t CCR;                    // 配置控制寄存器
  22:./drivers/tick/stm32f4_tick.c ****   volatile uint8_t  SHP[12];                // 系统异常优先级寄存器 (4-15)
  23:./drivers/tick/stm32f4_tick.c ****   volatile uint32_t SHCSR;                  // 系统异常状态和控制寄存器
  24:./drivers/tick/stm32f4_tick.c ****   volatile uint32_t CFSR;                   // 可配置错误状态寄存器
  25:./drivers/tick/stm32f4_tick.c ****   volatile uint32_t HFSR;                   // 硬件错误状态寄存器
  26:./drivers/tick/stm32f4_tick.c ****   volatile uint32_t DFSR;                   // 调试错误状态寄存器
  27:./drivers/tick/stm32f4_tick.c ****   volatile uint32_t MMFAR;                  // 存储器管理错误地址寄存器
  28:./drivers/tick/stm32f4_tick.c ****   volatile uint32_t BFAR;                   // 总线错误地址寄存器
  29:./drivers/tick/stm32f4_tick.c ****   volatile uint32_t AFSR;                   // 辅助错误状态寄存器
  30:./drivers/tick/stm32f4_tick.c ****   volatile uint32_t ID_PFR[2];              // 处理器特性寄存器
ARM GAS  /tmp/cc8dJDV6.s 			page 2


  31:./drivers/tick/stm32f4_tick.c ****   volatile uint32_t ID_DFR;                 // 调试特性寄存器
  32:./drivers/tick/stm32f4_tick.c ****   volatile uint32_t ID_AFR;                 // 辅助特性寄存器
  33:./drivers/tick/stm32f4_tick.c ****   volatile uint32_t ID_MFR[4];              // 存储器模型特性寄存器
  34:./drivers/tick/stm32f4_tick.c ****   volatile uint32_t ID_ISAR[5];             // 指令集属性寄存器
  35:./drivers/tick/stm32f4_tick.c **** } SCB_Type;
  36:./drivers/tick/stm32f4_tick.c **** 
  37:./drivers/tick/stm32f4_tick.c **** // SysTick 寄存器定义
  38:./drivers/tick/stm32f4_tick.c **** #define SYSTICK_BASE        (0xE000E010UL)
  39:./drivers/tick/stm32f4_tick.c **** #define SysTick            ((SysTick_Type *) SYSTICK_BASE)
  40:./drivers/tick/stm32f4_tick.c **** 
  41:./drivers/tick/stm32f4_tick.c **** typedef struct {
  42:./drivers/tick/stm32f4_tick.c ****   volatile uint32_t CTRL;                   // 控制和状态寄存器
  43:./drivers/tick/stm32f4_tick.c ****   volatile uint32_t LOAD;                   // 重装载值寄存器
  44:./drivers/tick/stm32f4_tick.c ****   volatile uint32_t VAL;                    // 当前值寄存器
  45:./drivers/tick/stm32f4_tick.c ****   volatile uint32_t CALIB;                  // 校准值寄存器
  46:./drivers/tick/stm32f4_tick.c **** } SysTick_Type;
  47:./drivers/tick/stm32f4_tick.c **** 
  48:./drivers/tick/stm32f4_tick.c **** 
  49:./drivers/tick/stm32f4_tick.c **** #define SYSTICK_CTRL_ENABLE_Pos             0
  50:./drivers/tick/stm32f4_tick.c **** #define SYSTICK_CTRL_TICKINT_Pos            1
  51:./drivers/tick/stm32f4_tick.c **** #define SYSTICK_CTRL_CLKSOURCE_Pos          2
  52:./drivers/tick/stm32f4_tick.c **** #define SYSTICK_CTRL_COUNTFLAG_Pos          16
  53:./drivers/tick/stm32f4_tick.c **** 
  54:./drivers/tick/stm32f4_tick.c **** #define SYSTICK_CTRL_ENABLE_Msk            (1UL << SYSTICK_CTRL_ENABLE_Pos)
  55:./drivers/tick/stm32f4_tick.c **** #define SYSTICK_CTRL_TICKINT_Msk           (1UL << SYSTICK_CTRL_TICKINT_Pos)
  56:./drivers/tick/stm32f4_tick.c **** #define SYSTICK_CTRL_CLKSOURCE_Msk         (1UL << SYSTICK_CTRL_CLKSOURCE_Pos)
  57:./drivers/tick/stm32f4_tick.c **** #define SYSTICK_CTRL_COUNTFLAG_Msk         (1UL << SYSTICK_CTRL_COUNTFLAG_Pos)
  58:./drivers/tick/stm32f4_tick.c **** 
  59:./drivers/tick/stm32f4_tick.c **** 
  60:./drivers/tick/stm32f4_tick.c **** extern uint32_t SystemCoreClock;
  61:./drivers/tick/stm32f4_tick.c **** 
  62:./drivers/tick/stm32f4_tick.c **** volatile uint32_t sys_tick = 0;
  63:./drivers/tick/stm32f4_tick.c **** 
  64:./drivers/tick/stm32f4_tick.c **** void SysTick_init(void)
  65:./drivers/tick/stm32f4_tick.c **** {
  29              		.loc 1 65 1 view -0
  30              		.cfi_startproc
  31              		@ args = 0, pretend = 0, frame = 0
  32              		@ frame_needed = 0, uses_anonymous_args = 0
  33              		@ link register save eliminated.
  66:./drivers/tick/stm32f4_tick.c ****     // 1. 禁用SysTick
  67:./drivers/tick/stm32f4_tick.c ****     SysTick->CTRL = 0;
  34              		.loc 1 67 5 view .LVU1
  35              		.loc 1 67 19 is_stmt 0 view .LVU2
  36 0000 4FF0E023 		mov	r3, #-536813568
  37 0004 0022     		movs	r2, #0
  38 0006 1A61     		str	r2, [r3, #16]
  68:./drivers/tick/stm32f4_tick.c ****     
  69:./drivers/tick/stm32f4_tick.c ****     // 2. 检查系统时钟是否有效
  70:./drivers/tick/stm32f4_tick.c ****     if (SystemCoreClock == 0) {
  39              		.loc 1 70 5 is_stmt 1 view .LVU3
  40              		.loc 1 70 25 is_stmt 0 view .LVU4
  41 0008 0C4B     		ldr	r3, .L6
  42 000a 1B68     		ldr	r3, [r3]
  43              		.loc 1 70 8 view .LVU5
  44 000c 03B9     		cbnz	r3, .L2
  45              	.L3:
ARM GAS  /tmp/cc8dJDV6.s 			page 3


  71:./drivers/tick/stm32f4_tick.c ****         while (1); // 系统时钟无效，死循环
  46              		.loc 1 71 9 is_stmt 1 view .LVU6
  47              		.loc 1 71 15 view .LVU7
  48 000e FEE7     		b	.L3
  49              	.L2:
  72:./drivers/tick/stm32f4_tick.c ****     }
  73:./drivers/tick/stm32f4_tick.c ****     
  74:./drivers/tick/stm32f4_tick.c ****     // 3. 计算重装载值
  75:./drivers/tick/stm32f4_tick.c ****     uint32_t load = (SystemCoreClock / CONFIG_SYSTEM_TICK_FREQUENCY) - 1;
  50              		.loc 1 75 5 view .LVU8
  51              		.loc 1 75 38 is_stmt 0 view .LVU9
  52 0010 0B4A     		ldr	r2, .L6+4
  53 0012 A2FB0323 		umull	r2, r3, r2, r3
  54 0016 9B09     		lsrs	r3, r3, #6
  55              		.loc 1 75 14 view .LVU10
  56 0018 013B     		subs	r3, r3, #1
  57              	.LVL0:
  76:./drivers/tick/stm32f4_tick.c ****     if (load > 0xFFFFFF) {  
  58              		.loc 1 76 5 is_stmt 1 view .LVU11
  59              		.loc 1 76 8 is_stmt 0 view .LVU12
  60 001a B3F1807F 		cmp	r3, #16777216
  61 001e 01D3     		bcc	.L4
  77:./drivers/tick/stm32f4_tick.c ****         load = 0xFFFFFF; // 最大值限制
  62              		.loc 1 77 14 view .LVU13
  63 0020 6FF07F43 		mvn	r3, #-16777216
  64              	.LVL1:
  65              	.L4:
  78:./drivers/tick/stm32f4_tick.c ****     }
  79:./drivers/tick/stm32f4_tick.c ****     SysTick->LOAD = load;
  66              		.loc 1 79 5 is_stmt 1 view .LVU14
  67              		.loc 1 79 19 is_stmt 0 view .LVU15
  68 0024 4FF0E022 		mov	r2, #-536813568
  69 0028 5361     		str	r3, [r2, #20]
  80:./drivers/tick/stm32f4_tick.c ****     
  81:./drivers/tick/stm32f4_tick.c ****     // 4. 设置优先级 (SysTick是内核异常，优先级通过SCB->SHP设置)
  82:./drivers/tick/stm32f4_tick.c ****     // Cortex-M允许设置8位优先级，STM32通常只使用高4位
  83:./drivers/tick/stm32f4_tick.c ****     // 设置优先级为0 (最高优先级)
  84:./drivers/tick/stm32f4_tick.c ****     SCB->SHP[11] = 0;  // SysTick是异常#15，SHP[11]对应异常12-15
  70              		.loc 1 84 5 is_stmt 1 view .LVU16
  71              		.loc 1 84 18 is_stmt 0 view .LVU17
  72 002a 0023     		movs	r3, #0
  73              	.LVL2:
  74              		.loc 1 84 18 view .LVU18
  75 002c 0549     		ldr	r1, .L6+8
  76 002e 81F82330 		strb	r3, [r1, #35]
  77              	.LVL3:
  85:./drivers/tick/stm32f4_tick.c ****     
  86:./drivers/tick/stm32f4_tick.c ****     // 5. 清除当前值
  87:./drivers/tick/stm32f4_tick.c ****     SysTick->VAL = 0;
  78              		.loc 1 87 5 is_stmt 1 view .LVU19
  79              		.loc 1 87 18 is_stmt 0 view .LVU20
  80 0032 9361     		str	r3, [r2, #24]
  88:./drivers/tick/stm32f4_tick.c ****     
  89:./drivers/tick/stm32f4_tick.c ****     // 6. 配置并启用SysTick
  90:./drivers/tick/stm32f4_tick.c ****     // 使用处理器时钟 (CLKSOURCE=1)
  91:./drivers/tick/stm32f4_tick.c ****     // 启用中断 (TICKINT=1)
  92:./drivers/tick/stm32f4_tick.c ****     // 启用计数器 (ENABLE=1)
ARM GAS  /tmp/cc8dJDV6.s 			page 4


  93:./drivers/tick/stm32f4_tick.c ****     SysTick->CTRL = SYSTICK_CTRL_CLKSOURCE_Msk | 
  81              		.loc 1 93 5 is_stmt 1 view .LVU21
  82              		.loc 1 93 19 is_stmt 0 view .LVU22
  83 0034 0723     		movs	r3, #7
  84 0036 1361     		str	r3, [r2, #16]
  94:./drivers/tick/stm32f4_tick.c ****                     SYSTICK_CTRL_TICKINT_Msk | 
  95:./drivers/tick/stm32f4_tick.c ****                     SYSTICK_CTRL_ENABLE_Msk;
  96:./drivers/tick/stm32f4_tick.c **** }
  85              		.loc 1 96 1 view .LVU23
  86 0038 7047     		bx	lr
  87              	.L7:
  88 003a 00BF     		.align	2
  89              	.L6:
  90 003c 00000000 		.word	SystemCoreClock
  91 0040 1F85EB51 		.word	1374389535
  92 0044 00ED00E0 		.word	-536810240
  93              		.cfi_endproc
  94              	.LFE1033:
  96              		.section	.text.SysTick_Handler,"ax",%progbits
  97              		.align	1
  98              		.global	SysTick_Handler
  99              		.syntax unified
 100              		.thumb
 101              		.thumb_func
 103              	SysTick_Handler:
 104              	.LFB1034:
  97:./drivers/tick/stm32f4_tick.c **** 
  98:./drivers/tick/stm32f4_tick.c **** 
  99:./drivers/tick/stm32f4_tick.c **** void SysTick_Handler(void)
 100:./drivers/tick/stm32f4_tick.c **** {
 105              		.loc 1 100 1 is_stmt 1 view -0
 106              		.cfi_startproc
 107              		@ args = 0, pretend = 0, frame = 0
 108              		@ frame_needed = 0, uses_anonymous_args = 0
 109 0000 08B5     		push	{r3, lr}
 110              	.LCFI0:
 111              		.cfi_def_cfa_offset 8
 112              		.cfi_offset 3, -8
 113              		.cfi_offset 14, -4
 101:./drivers/tick/stm32f4_tick.c ****     // 用户定义的tick处理函数
 102:./drivers/tick/stm32f4_tick.c ****     extern void sys_tick_hander(void);
 114              		.loc 1 102 5 view .LVU25
 103:./drivers/tick/stm32f4_tick.c ****     sys_tick_hander();
 115              		.loc 1 103 5 view .LVU26
 116 0002 FFF7FEFF 		bl	sys_tick_hander
 117              	.LVL4:
 104:./drivers/tick/stm32f4_tick.c **** }
 118              		.loc 1 104 1 is_stmt 0 view .LVU27
 119 0006 08BD     		pop	{r3, pc}
 120              		.cfi_endproc
 121              	.LFE1034:
 123              		.global	sys_tick
 124              		.section	.bss.sys_tick,"aw",%nobits
 125              		.align	2
 128              	sys_tick:
 129 0000 00000000 		.space	4
 130              		.text
ARM GAS  /tmp/cc8dJDV6.s 			page 5


 131              	.Letext0:
 132              		.file 2 "./include/asm-generic/int-l64.h"
 133              		.file 3 "./include/linux/types.h"
 134              		.file 4 "./include/linux/blk_types.h"
 135              		.file 5 "./include/linux/fs.h"
ARM GAS  /tmp/cc8dJDV6.s 			page 6


DEFINED SYMBOLS
                            *ABS*:00000000 stm32f4_tick.c
     /tmp/cc8dJDV6.s:21     .text.SysTick_init:00000000 $t
     /tmp/cc8dJDV6.s:27     .text.SysTick_init:00000000 SysTick_init
     /tmp/cc8dJDV6.s:90     .text.SysTick_init:0000003c $d
     /tmp/cc8dJDV6.s:97     .text.SysTick_Handler:00000000 $t
     /tmp/cc8dJDV6.s:103    .text.SysTick_Handler:00000000 SysTick_Handler
     /tmp/cc8dJDV6.s:128    .bss.sys_tick:00000000 sys_tick
     /tmp/cc8dJDV6.s:125    .bss.sys_tick:00000000 $d

UNDEFINED SYMBOLS
SystemCoreClock
sys_tick_hander
