ARM GAS  /tmp/ccD8NFOg.s 			page 1


   1              		.cpu cortex-m4
   2              		.arch armv7e-m
   3              		.fpu fpv4-sp-d16
   4              		.eabi_attribute 27, 1
   5              		.eabi_attribute 28, 1
   6              		.eabi_attribute 20, 1
   7              		.eabi_attribute 21, 1
   8              		.eabi_attribute 23, 3
   9              		.eabi_attribute 24, 1
  10              		.eabi_attribute 25, 1
  11              		.eabi_attribute 26, 1
  12              		.eabi_attribute 30, 1
  13              		.eabi_attribute 34, 1
  14              		.eabi_attribute 18, 4
  15              		.file	"stm32f4_tty0.c"
  16              		.text
  17              	.Ltext0:
  18              		.cfi_sections	.debug_frame
  19              		.file 1 "/mnt/c/Users/31740/Desktop/newcore/drivers/tty/stm32f4_tty0.c"
  20              		.section	.text.USART_1_SendByte,"ax",%progbits
  21              		.align	1
  22              		.syntax unified
  23              		.thumb
  24              		.thumb_func
  26              	USART_1_SendByte:
  27              	.LFB1087:
   1:/mnt/c/Users/31740/Desktop/newcore/drivers/tty/stm32f4_tty0.c **** #include <linux/kernel.h>
   2:/mnt/c/Users/31740/Desktop/newcore/drivers/tty/stm32f4_tty0.c **** #include <linux/types.h>
   3:/mnt/c/Users/31740/Desktop/newcore/drivers/tty/stm32f4_tty0.c **** #include <linux/init.h> 
   4:/mnt/c/Users/31740/Desktop/newcore/drivers/tty/stm32f4_tty0.c **** #include <linux/stdarg.h>
   5:/mnt/c/Users/31740/Desktop/newcore/drivers/tty/stm32f4_tty0.c **** #include <linux/fs.h>
   6:/mnt/c/Users/31740/Desktop/newcore/drivers/tty/stm32f4_tty0.c **** #include <linux/module.h>
   7:/mnt/c/Users/31740/Desktop/newcore/drivers/tty/stm32f4_tty0.c **** #include <linux/devfs.h>
   8:/mnt/c/Users/31740/Desktop/newcore/drivers/tty/stm32f4_tty0.c **** #include <linux/init.h>
   9:/mnt/c/Users/31740/Desktop/newcore/drivers/tty/stm32f4_tty0.c **** #include <linux/sprintf.h>
  10:/mnt/c/Users/31740/Desktop/newcore/drivers/tty/stm32f4_tty0.c **** #include <linux/stdarg.h>
  11:/mnt/c/Users/31740/Desktop/newcore/drivers/tty/stm32f4_tty0.c **** #include <linux/device.h>
  12:/mnt/c/Users/31740/Desktop/newcore/drivers/tty/stm32f4_tty0.c **** #include <linux/of.h>
  13:/mnt/c/Users/31740/Desktop/newcore/drivers/tty/stm32f4_tty0.c **** #include <generated/autoconf.h>
  14:/mnt/c/Users/31740/Desktop/newcore/drivers/tty/stm32f4_tty0.c **** #include <linux/interrupt.h>
  15:/mnt/c/Users/31740/Desktop/newcore/drivers/tty/stm32f4_tty0.c **** #include <linux/irqflags.h>
  16:/mnt/c/Users/31740/Desktop/newcore/drivers/tty/stm32f4_tty0.c **** 
  17:/mnt/c/Users/31740/Desktop/newcore/drivers/tty/stm32f4_tty0.c **** unsigned int major = 0;
  18:/mnt/c/Users/31740/Desktop/newcore/drivers/tty/stm32f4_tty0.c **** 
  19:/mnt/c/Users/31740/Desktop/newcore/drivers/tty/stm32f4_tty0.c **** #define RCC_BASE        0x40023800
  20:/mnt/c/Users/31740/Desktop/newcore/drivers/tty/stm32f4_tty0.c **** #define GPIOA_BASE      0x40020000
  21:/mnt/c/Users/31740/Desktop/newcore/drivers/tty/stm32f4_tty0.c **** #define USART1_BASE     0x40011000
  22:/mnt/c/Users/31740/Desktop/newcore/drivers/tty/stm32f4_tty0.c **** #define NVIC_BASE       0xE000E100
  23:/mnt/c/Users/31740/Desktop/newcore/drivers/tty/stm32f4_tty0.c **** 
  24:/mnt/c/Users/31740/Desktop/newcore/drivers/tty/stm32f4_tty0.c **** #define RCC             ((volatile uint32_t*)RCC_BASE)
  25:/mnt/c/Users/31740/Desktop/newcore/drivers/tty/stm32f4_tty0.c **** #define GPIOA           ((GPIO_TypeDef*)GPIOA_BASE)
  26:/mnt/c/Users/31740/Desktop/newcore/drivers/tty/stm32f4_tty0.c **** #define USART1          ((USART_TypeDef*)USART1_BASE)
  27:/mnt/c/Users/31740/Desktop/newcore/drivers/tty/stm32f4_tty0.c **** 
  28:/mnt/c/Users/31740/Desktop/newcore/drivers/tty/stm32f4_tty0.c **** #define NVIC_ISER0      (*(volatile uint32_t*)(NVIC_BASE + 0x00))
  29:/mnt/c/Users/31740/Desktop/newcore/drivers/tty/stm32f4_tty0.c **** #define NVIC_ISER1      (*(volatile uint32_t*)(NVIC_BASE + 0x04))
  30:/mnt/c/Users/31740/Desktop/newcore/drivers/tty/stm32f4_tty0.c **** #define NVIC_ICPR1      (*(volatile uint32_t*)(NVIC_BASE + 0x284))
  31:/mnt/c/Users/31740/Desktop/newcore/drivers/tty/stm32f4_tty0.c **** #define NVIC_IPR_BASE   ((volatile uint8_t*)(NVIC_BASE + 0x300))
ARM GAS  /tmp/ccD8NFOg.s 			page 2


  32:/mnt/c/Users/31740/Desktop/newcore/drivers/tty/stm32f4_tty0.c **** 
  33:/mnt/c/Users/31740/Desktop/newcore/drivers/tty/stm32f4_tty0.c **** typedef struct {
  34:/mnt/c/Users/31740/Desktop/newcore/drivers/tty/stm32f4_tty0.c ****     volatile uint32_t MODER;
  35:/mnt/c/Users/31740/Desktop/newcore/drivers/tty/stm32f4_tty0.c ****     volatile uint32_t OTYPER;
  36:/mnt/c/Users/31740/Desktop/newcore/drivers/tty/stm32f4_tty0.c ****     volatile uint32_t OSPEEDR;
  37:/mnt/c/Users/31740/Desktop/newcore/drivers/tty/stm32f4_tty0.c ****     volatile uint32_t PUPDR;
  38:/mnt/c/Users/31740/Desktop/newcore/drivers/tty/stm32f4_tty0.c ****     volatile uint32_t IDR;
  39:/mnt/c/Users/31740/Desktop/newcore/drivers/tty/stm32f4_tty0.c ****     volatile uint32_t ODR;
  40:/mnt/c/Users/31740/Desktop/newcore/drivers/tty/stm32f4_tty0.c ****     volatile uint32_t BSRR;
  41:/mnt/c/Users/31740/Desktop/newcore/drivers/tty/stm32f4_tty0.c ****     volatile uint32_t LCKR;
  42:/mnt/c/Users/31740/Desktop/newcore/drivers/tty/stm32f4_tty0.c ****     volatile uint32_t AFR[2];
  43:/mnt/c/Users/31740/Desktop/newcore/drivers/tty/stm32f4_tty0.c **** } GPIO_TypeDef;
  44:/mnt/c/Users/31740/Desktop/newcore/drivers/tty/stm32f4_tty0.c **** 
  45:/mnt/c/Users/31740/Desktop/newcore/drivers/tty/stm32f4_tty0.c **** typedef struct {
  46:/mnt/c/Users/31740/Desktop/newcore/drivers/tty/stm32f4_tty0.c ****     volatile uint32_t SR;
  47:/mnt/c/Users/31740/Desktop/newcore/drivers/tty/stm32f4_tty0.c ****     volatile uint32_t DR;
  48:/mnt/c/Users/31740/Desktop/newcore/drivers/tty/stm32f4_tty0.c ****     volatile uint32_t BRR;
  49:/mnt/c/Users/31740/Desktop/newcore/drivers/tty/stm32f4_tty0.c ****     volatile uint32_t CR1;
  50:/mnt/c/Users/31740/Desktop/newcore/drivers/tty/stm32f4_tty0.c ****     volatile uint32_t CR2;
  51:/mnt/c/Users/31740/Desktop/newcore/drivers/tty/stm32f4_tty0.c ****     volatile uint32_t CR3;
  52:/mnt/c/Users/31740/Desktop/newcore/drivers/tty/stm32f4_tty0.c ****     volatile uint32_t GTPR;
  53:/mnt/c/Users/31740/Desktop/newcore/drivers/tty/stm32f4_tty0.c **** } USART_TypeDef;
  54:/mnt/c/Users/31740/Desktop/newcore/drivers/tty/stm32f4_tty0.c **** 
  55:/mnt/c/Users/31740/Desktop/newcore/drivers/tty/stm32f4_tty0.c **** 
  56:/mnt/c/Users/31740/Desktop/newcore/drivers/tty/stm32f4_tty0.c **** 
  57:/mnt/c/Users/31740/Desktop/newcore/drivers/tty/stm32f4_tty0.c **** irqreturn_t  USART1_IRQHandler(int i,void *argv);
  58:/mnt/c/Users/31740/Desktop/newcore/drivers/tty/stm32f4_tty0.c **** 
  59:/mnt/c/Users/31740/Desktop/newcore/drivers/tty/stm32f4_tty0.c **** static u32 irq_num;
  60:/mnt/c/Users/31740/Desktop/newcore/drivers/tty/stm32f4_tty0.c **** void uart1_device_init_function_from_dtb(void)
  61:/mnt/c/Users/31740/Desktop/newcore/drivers/tty/stm32f4_tty0.c **** {
  62:/mnt/c/Users/31740/Desktop/newcore/drivers/tty/stm32f4_tty0.c ****     irq_num = 37;  // Á°¨ÁºñÁ†Å USART1 IRQ for simplicity
  63:/mnt/c/Users/31740/Desktop/newcore/drivers/tty/stm32f4_tty0.c ****     u32 baudrate = 115200;  // ÈªòËÆ§Ê≥¢ÁâπÁéá
  64:/mnt/c/Users/31740/Desktop/newcore/drivers/tty/stm32f4_tty0.c **** 
  65:/mnt/c/Users/31740/Desktop/newcore/drivers/tty/stm32f4_tty0.c ****     // 1. ‰ΩøËÉΩ GPIOA Âíå USART1 Êó∂Èíü
  66:/mnt/c/Users/31740/Desktop/newcore/drivers/tty/stm32f4_tty0.c ****     RCC[0x30 / 4] |= (1 << 0);   // GPIOAEN
  67:/mnt/c/Users/31740/Desktop/newcore/drivers/tty/stm32f4_tty0.c ****     RCC[0x44 / 4] |= (1 << 4);   // USART1EN
  68:/mnt/c/Users/31740/Desktop/newcore/drivers/tty/stm32f4_tty0.c **** 
  69:/mnt/c/Users/31740/Desktop/newcore/drivers/tty/stm32f4_tty0.c ****     // 2. ÈÖçÁΩÆ PA9(TX) PA10(RX) Â§çÁî®ÂäüËÉΩ‰∏∫ AF7
  70:/mnt/c/Users/31740/Desktop/newcore/drivers/tty/stm32f4_tty0.c ****     GPIOA->MODER &= ~(0xF << 18);
  71:/mnt/c/Users/31740/Desktop/newcore/drivers/tty/stm32f4_tty0.c ****     GPIOA->MODER |=  (0xA << 18);       // MODER9 = AF, MODER10 = AF
  72:/mnt/c/Users/31740/Desktop/newcore/drivers/tty/stm32f4_tty0.c ****     GPIOA->AFR[1] &= ~(0xFF << 4);
  73:/mnt/c/Users/31740/Desktop/newcore/drivers/tty/stm32f4_tty0.c ****     GPIOA->AFR[1] |=  (0x77 << 4);      // AFR9, AFR10 = AF7
  74:/mnt/c/Users/31740/Desktop/newcore/drivers/tty/stm32f4_tty0.c ****     GPIOA->OSPEEDR |= (0xF << 18);      // High speed
  75:/mnt/c/Users/31740/Desktop/newcore/drivers/tty/stm32f4_tty0.c ****     GPIOA->PUPDR &= ~(0xF << 18);
  76:/mnt/c/Users/31740/Desktop/newcore/drivers/tty/stm32f4_tty0.c ****     GPIOA->PUPDR |=  (0x5 << 18);       // Pull-up for RX, none for TX
  77:/mnt/c/Users/31740/Desktop/newcore/drivers/tty/stm32f4_tty0.c ****     GPIOA->OTYPER &= ~(0x3 << 9);       // Push-pull
  78:/mnt/c/Users/31740/Desktop/newcore/drivers/tty/stm32f4_tty0.c **** 
  79:/mnt/c/Users/31740/Desktop/newcore/drivers/tty/stm32f4_tty0.c ****     // 3. USART ÈÖçÁΩÆ
  80:/mnt/c/Users/31740/Desktop/newcore/drivers/tty/stm32f4_tty0.c ****     USART1->CR1 = 0;  // Ê∏ÖÈô§ÊâÄÊúâÊéßÂà∂‰Ωç
  81:/mnt/c/Users/31740/Desktop/newcore/drivers/tty/stm32f4_tty0.c ****     USART1->BRR = (84000000 + baudrate / 2) / baudrate;  // Ê≥¢ÁâπÁéáËÆæÁΩÆ
  82:/mnt/c/Users/31740/Desktop/newcore/drivers/tty/stm32f4_tty0.c ****     USART1->CR1 |= (1 << 2) | (1 << 3);  // RE + TE
  83:/mnt/c/Users/31740/Desktop/newcore/drivers/tty/stm32f4_tty0.c ****     USART1->CR1 |= (1 << 5);             // RXNEIE: Êé•Êî∂‰∏≠Êñ≠‰ΩøËÉΩ
  84:/mnt/c/Users/31740/Desktop/newcore/drivers/tty/stm32f4_tty0.c ****     USART1->CR1 |= (1 << 13);            // UE: USART‰ΩøËÉΩ
  85:/mnt/c/Users/31740/Desktop/newcore/drivers/tty/stm32f4_tty0.c **** 
  86:/mnt/c/Users/31740/Desktop/newcore/drivers/tty/stm32f4_tty0.c ****     // 4. ÈÖçÁΩÆ NVICÔºö‰ΩøËÉΩ‰∏≠Êñ≠„ÄÅËÆæÁΩÆ‰ºòÂÖàÁ∫ß„ÄÅÊ∏ÖÈô§ pending
  87:/mnt/c/Users/31740/Desktop/newcore/drivers/tty/stm32f4_tty0.c ****     if (irq_num < 32) {
  88:/mnt/c/Users/31740/Desktop/newcore/drivers/tty/stm32f4_tty0.c ****         NVIC_ISER0 |= (1 << irq_num);
ARM GAS  /tmp/ccD8NFOg.s 			page 3


  89:/mnt/c/Users/31740/Desktop/newcore/drivers/tty/stm32f4_tty0.c ****     } else {
  90:/mnt/c/Users/31740/Desktop/newcore/drivers/tty/stm32f4_tty0.c ****         NVIC_ISER1 |= (1 << (irq_num - 32));
  91:/mnt/c/Users/31740/Desktop/newcore/drivers/tty/stm32f4_tty0.c ****         NVIC_ICPR1 |= (1 << (irq_num - 32));  // Ê∏Ö pending
  92:/mnt/c/Users/31740/Desktop/newcore/drivers/tty/stm32f4_tty0.c ****     }
  93:/mnt/c/Users/31740/Desktop/newcore/drivers/tty/stm32f4_tty0.c **** 
  94:/mnt/c/Users/31740/Desktop/newcore/drivers/tty/stm32f4_tty0.c ****     NVIC_IPR_BASE[irq_num] = (3 << 4);  // ËÆæÁΩÆ‰∏≠Êñ≠‰ºòÂÖàÁ∫ßÔºàÈ´ò 4 ‰ΩçÊúâÊïàÔºâ
  95:/mnt/c/Users/31740/Desktop/newcore/drivers/tty/stm32f4_tty0.c **** }
  96:/mnt/c/Users/31740/Desktop/newcore/drivers/tty/stm32f4_tty0.c **** 
  97:/mnt/c/Users/31740/Desktop/newcore/drivers/tty/stm32f4_tty0.c **** void base_out_opt_device_init(void){
  98:/mnt/c/Users/31740/Desktop/newcore/drivers/tty/stm32f4_tty0.c ****     uart1_device_init_function_from_dtb();
  99:/mnt/c/Users/31740/Desktop/newcore/drivers/tty/stm32f4_tty0.c **** }
 100:/mnt/c/Users/31740/Desktop/newcore/drivers/tty/stm32f4_tty0.c **** 
 101:/mnt/c/Users/31740/Desktop/newcore/drivers/tty/stm32f4_tty0.c **** static void USART_1_SendByte(uint8_t byte){
  28              		.loc 1 101 43 view -0
  29              		.cfi_startproc
  30              		@ args = 0, pretend = 0, frame = 0
  31              		@ frame_needed = 0, uses_anonymous_args = 0
  32              		@ link register save eliminated.
  33              	.LVL0:
  34              	.L2:
 102:/mnt/c/Users/31740/Desktop/newcore/drivers/tty/stm32f4_tty0.c ****     while(!(USART1->SR & (1 << 7)));
  35              		.loc 1 102 11 discriminator 1 view .LVU1
  36              		.loc 1 102 19 is_stmt 0 discriminator 1 view .LVU2
  37 0000 034B     		ldr	r3, .L3
  38 0002 1B68     		ldr	r3, [r3]
  39              		.loc 1 102 11 discriminator 1 view .LVU3
  40 0004 13F0800F 		tst	r3, #128
  41 0008 FAD0     		beq	.L2
 103:/mnt/c/Users/31740/Desktop/newcore/drivers/tty/stm32f4_tty0.c ****     USART1->DR = byte;
  42              		.loc 1 103 5 is_stmt 1 view .LVU4
  43              		.loc 1 103 16 is_stmt 0 view .LVU5
  44 000a 014B     		ldr	r3, .L3
  45 000c 5860     		str	r0, [r3, #4]
 104:/mnt/c/Users/31740/Desktop/newcore/drivers/tty/stm32f4_tty0.c **** }
  46              		.loc 1 104 1 view .LVU6
  47 000e 7047     		bx	lr
  48              	.L4:
  49              		.align	2
  50              	.L3:
  51 0010 00100140 		.word	1073811456
  52              		.cfi_endproc
  53              	.LFE1087:
  55              		.section	.text.USART1_IRQHandler,"ax",%progbits
  56              		.align	1
  57              		.global	USART1_IRQHandler
  58              		.syntax unified
  59              		.thumb
  60              		.thumb_func
  62              	USART1_IRQHandler:
  63              	.LVL1:
  64              	.LFB1088:
 105:/mnt/c/Users/31740/Desktop/newcore/drivers/tty/stm32f4_tty0.c **** 
 106:/mnt/c/Users/31740/Desktop/newcore/drivers/tty/stm32f4_tty0.c **** #define RX_BUFFER_SIZE 1024
 107:/mnt/c/Users/31740/Desktop/newcore/drivers/tty/stm32f4_tty0.c **** static char usrat1_rx_buffer[RX_BUFFER_SIZE];
 108:/mnt/c/Users/31740/Desktop/newcore/drivers/tty/stm32f4_tty0.c **** static uint16_t usrat1_rx_index_rear = 0;  // Êé•Êî∂ÁºìÂÜ≤Âå∫Â∞æÊåáÈíà
 109:/mnt/c/Users/31740/Desktop/newcore/drivers/tty/stm32f4_tty0.c **** static uint16_t usrat1_rx_index_front = 0; // Êé•Êî∂ÁºìÂÜ≤Âå∫Â§¥ÊåáÈíà
 110:/mnt/c/Users/31740/Desktop/newcore/drivers/tty/stm32f4_tty0.c **** irqreturn_t  USART1_IRQHandler(int i,void *argv){
ARM GAS  /tmp/ccD8NFOg.s 			page 4


  65              		.loc 1 110 49 is_stmt 1 view -0
  66              		.cfi_startproc
  67              		@ args = 0, pretend = 0, frame = 0
  68              		@ frame_needed = 0, uses_anonymous_args = 0
  69              		@ link register save eliminated.
 111:/mnt/c/Users/31740/Desktop/newcore/drivers/tty/stm32f4_tty0.c ****     if(USART1->SR & (1 << 5)) {
  70              		.loc 1 111 5 view .LVU8
  71              		.loc 1 111 14 is_stmt 0 view .LVU9
  72 0000 1A4B     		ldr	r3, .L14
  73 0002 1B68     		ldr	r3, [r3]
  74              		.loc 1 111 7 view .LVU10
  75 0004 13F0200F 		tst	r3, #32
  76 0008 19D0     		beq	.L9
  77              	.LBB8:
 112:/mnt/c/Users/31740/Desktop/newcore/drivers/tty/stm32f4_tty0.c ****         uint8_t data = USART1->DR;
  78              		.loc 1 112 9 is_stmt 1 view .LVU11
  79              		.loc 1 112 30 is_stmt 0 view .LVU12
  80 000a 184B     		ldr	r3, .L14
  81 000c 5968     		ldr	r1, [r3, #4]
  82              	.LVL2:
  83              		.loc 1 112 17 view .LVU13
  84 000e C9B2     		uxtb	r1, r1
  85              	.LVL3:
 113:/mnt/c/Users/31740/Desktop/newcore/drivers/tty/stm32f4_tty0.c ****         USART1->SR &= ~(1 << 5);
  86              		.loc 1 113 9 is_stmt 1 view .LVU14
  87              		.loc 1 113 15 is_stmt 0 view .LVU15
  88 0010 1A68     		ldr	r2, [r3]
  89              		.loc 1 113 20 view .LVU16
  90 0012 22F02002 		bic	r2, r2, #32
  91 0016 1A60     		str	r2, [r3]
 114:/mnt/c/Users/31740/Desktop/newcore/drivers/tty/stm32f4_tty0.c ****         //USART_1_SendByte(data);
 115:/mnt/c/Users/31740/Desktop/newcore/drivers/tty/stm32f4_tty0.c ****         uint16_t next_rear = (usrat1_rx_index_front + 1) % RX_BUFFER_SIZE;     //Ëé∑ÂèñÂ§¥ÊåáÈíà‰∏ã
  92              		.loc 1 115 9 is_stmt 1 view .LVU17
  93              		.loc 1 115 53 is_stmt 0 view .LVU18
  94 0018 154B     		ldr	r3, .L14+4
  95 001a 1888     		ldrh	r0, [r3]
  96              	.LVL4:
  97              		.loc 1 115 53 view .LVU19
  98 001c 431C     		adds	r3, r0, #1
  99              		.loc 1 115 58 view .LVU20
 100 001e 5A42     		rsbs	r2, r3, #0
 101 0020 C3F30903 		ubfx	r3, r3, #0, #10
 102 0024 C2F30902 		ubfx	r2, r2, #0, #10
 103 0028 58BF     		it	pl
 104 002a 5342     		rsbpl	r3, r2, #0
 105              		.loc 1 115 18 view .LVU21
 106 002c 9BB2     		uxth	r3, r3
 107              	.LVL5:
 116:/mnt/c/Users/31740/Desktop/newcore/drivers/tty/stm32f4_tty0.c ****         if(next_rear == usrat1_rx_index_rear)                                  //Â¶ÇÊûúÂ≠òÂÇ®‰∏ã‰∏Ä
 108              		.loc 1 116 9 is_stmt 1 view .LVU22
 109              		.loc 1 116 22 is_stmt 0 view .LVU23
 110 002e 114A     		ldr	r2, .L14+8
 111 0030 1288     		ldrh	r2, [r2]
 112              		.loc 1 116 11 view .LVU24
 113 0032 9A42     		cmp	r2, r3
 114 0034 05D0     		beq	.L13
 117:/mnt/c/Users/31740/Desktop/newcore/drivers/tty/stm32f4_tty0.c ****             usrat1_rx_index_rear = (usrat1_rx_index_rear + 1) % RX_BUFFER_SIZE;//Â∞æÊåáÈíàÂâçÁßª‰∏Ä
ARM GAS  /tmp/ccD8NFOg.s 			page 5


 118:/mnt/c/Users/31740/Desktop/newcore/drivers/tty/stm32f4_tty0.c ****         usrat1_rx_buffer[usrat1_rx_index_front] = data;                        //Â∞ÜÊï∞ÊçÆÊ∑ªÂä†Âà∞
 115              		.loc 1 118 9 is_stmt 1 view .LVU25
 116              		.loc 1 118 49 is_stmt 0 view .LVU26
 117 0036 104A     		ldr	r2, .L14+12
 118 0038 1154     		strb	r1, [r2, r0]
 119:/mnt/c/Users/31740/Desktop/newcore/drivers/tty/stm32f4_tty0.c ****         usrat1_rx_index_front = next_rear;  //Êõ¥Êñ∞Â§¥ÊåáÈíàÂ§Ñ
 119              		.loc 1 119 9 is_stmt 1 view .LVU27
 120              		.loc 1 119 31 is_stmt 0 view .LVU28
 121 003a 0D4A     		ldr	r2, .L14+4
 122 003c 1380     		strh	r3, [r2]	@ movhi
 123              	.LVL6:
 124              	.L9:
 125              		.loc 1 119 31 view .LVU29
 126              	.LBE8:
 120:/mnt/c/Users/31740/Desktop/newcore/drivers/tty/stm32f4_tty0.c **** 
 121:/mnt/c/Users/31740/Desktop/newcore/drivers/tty/stm32f4_tty0.c ****     }
 122:/mnt/c/Users/31740/Desktop/newcore/drivers/tty/stm32f4_tty0.c ****     return IRQ_HANDLED;
 127              		.loc 1 122 5 is_stmt 1 view .LVU30
 123:/mnt/c/Users/31740/Desktop/newcore/drivers/tty/stm32f4_tty0.c **** }
 128              		.loc 1 123 1 is_stmt 0 view .LVU31
 129 003e 0120     		movs	r0, #1
 130 0040 7047     		bx	lr
 131              	.LVL7:
 132              	.L13:
 110:/mnt/c/Users/31740/Desktop/newcore/drivers/tty/stm32f4_tty0.c ****     if(USART1->SR & (1 << 5)) {
 133              		.loc 1 110 49 view .LVU32
 134 0042 10B4     		push	{r4}
 135              	.LCFI0:
 136              		.cfi_def_cfa_offset 4
 137              		.cfi_offset 4, -4
 138              	.LBB9:
 117:/mnt/c/Users/31740/Desktop/newcore/drivers/tty/stm32f4_tty0.c ****         usrat1_rx_buffer[usrat1_rx_index_front] = data;                        //Â∞ÜÊï∞ÊçÆÊ∑ªÂä†Âà∞
 139              		.loc 1 117 13 is_stmt 1 view .LVU33
 117:/mnt/c/Users/31740/Desktop/newcore/drivers/tty/stm32f4_tty0.c ****         usrat1_rx_buffer[usrat1_rx_index_front] = data;                        //Â∞ÜÊï∞ÊçÆÊ∑ªÂä†Âà∞
 140              		.loc 1 117 58 is_stmt 0 view .LVU34
 141 0044 0132     		adds	r2, r2, #1
 117:/mnt/c/Users/31740/Desktop/newcore/drivers/tty/stm32f4_tty0.c ****         usrat1_rx_buffer[usrat1_rx_index_front] = data;                        //Â∞ÜÊï∞ÊçÆÊ∑ªÂä†Âà∞
 142              		.loc 1 117 63 view .LVU35
 143 0046 D2F1000C 		rsbs	ip, r2, #0
 144 004a C2F30902 		ubfx	r2, r2, #0, #10
 145 004e CCF3090C 		ubfx	ip, ip, #0, #10
 146 0052 58BF     		it	pl
 147 0054 CCF10002 		rsbpl	r2, ip, #0
 117:/mnt/c/Users/31740/Desktop/newcore/drivers/tty/stm32f4_tty0.c ****         usrat1_rx_buffer[usrat1_rx_index_front] = data;                        //Â∞ÜÊï∞ÊçÆÊ∑ªÂä†Âà∞
 148              		.loc 1 117 34 view .LVU36
 149 0058 064C     		ldr	r4, .L14+8
 150 005a 2280     		strh	r2, [r4]	@ movhi
 118:/mnt/c/Users/31740/Desktop/newcore/drivers/tty/stm32f4_tty0.c ****         usrat1_rx_index_front = next_rear;  //Êõ¥Êñ∞Â§¥ÊåáÈíàÂ§Ñ
 151              		.loc 1 118 9 is_stmt 1 view .LVU37
 118:/mnt/c/Users/31740/Desktop/newcore/drivers/tty/stm32f4_tty0.c ****         usrat1_rx_index_front = next_rear;  //Êõ¥Êñ∞Â§¥ÊåáÈíàÂ§Ñ
 152              		.loc 1 118 49 is_stmt 0 view .LVU38
 153 005c 064A     		ldr	r2, .L14+12
 154 005e 1154     		strb	r1, [r2, r0]
 119:/mnt/c/Users/31740/Desktop/newcore/drivers/tty/stm32f4_tty0.c **** 
 155              		.loc 1 119 9 is_stmt 1 view .LVU39
 119:/mnt/c/Users/31740/Desktop/newcore/drivers/tty/stm32f4_tty0.c **** 
 156              		.loc 1 119 31 is_stmt 0 view .LVU40
ARM GAS  /tmp/ccD8NFOg.s 			page 6


 157 0060 034A     		ldr	r2, .L14+4
 158 0062 1380     		strh	r3, [r2]	@ movhi
 159              	.LBE9:
 122:/mnt/c/Users/31740/Desktop/newcore/drivers/tty/stm32f4_tty0.c **** }
 160              		.loc 1 122 5 is_stmt 1 view .LVU41
 161              		.loc 1 123 1 is_stmt 0 view .LVU42
 162 0064 0120     		movs	r0, #1
 163 0066 5DF8044B 		ldr	r4, [sp], #4
 164              	.LCFI1:
 165              		.cfi_restore 4
 166              		.cfi_def_cfa_offset 0
 167 006a 7047     		bx	lr
 168              	.L15:
 169              		.align	2
 170              	.L14:
 171 006c 00100140 		.word	1073811456
 172 0070 00000000 		.word	usrat1_rx_index_front
 173 0074 00000000 		.word	usrat1_rx_index_rear
 174 0078 00000000 		.word	usrat1_rx_buffer
 175              		.cfi_endproc
 176              	.LFE1088:
 178              		.section	.text.get_rx_buffer_state,"ax",%progbits
 179              		.align	1
 180              		.syntax unified
 181              		.thumb
 182              		.thumb_func
 184              	get_rx_buffer_state:
 185              	.LFB1089:
 124:/mnt/c/Users/31740/Desktop/newcore/drivers/tty/stm32f4_tty0.c **** 
 125:/mnt/c/Users/31740/Desktop/newcore/drivers/tty/stm32f4_tty0.c **** static int get_rx_buffer_state(){
 186              		.loc 1 125 33 is_stmt 1 view -0
 187              		.cfi_startproc
 188              		@ args = 0, pretend = 0, frame = 0
 189              		@ frame_needed = 0, uses_anonymous_args = 0
 190              		@ link register save eliminated.
 126:/mnt/c/Users/31740/Desktop/newcore/drivers/tty/stm32f4_tty0.c ****     if(usrat1_rx_index_rear != usrat1_rx_index_front){ //Â¶ÇÊûúÁºìÂÜ≤Âå∫ÈùûÁ©∫
 191              		.loc 1 126 5 view .LVU44
 192              		.loc 1 126 29 is_stmt 0 view .LVU45
 193 0000 044B     		ldr	r3, .L19
 194 0002 1A88     		ldrh	r2, [r3]
 195 0004 044B     		ldr	r3, .L19+4
 196 0006 1B88     		ldrh	r3, [r3]
 197              		.loc 1 126 7 view .LVU46
 198 0008 9A42     		cmp	r2, r3
 199 000a 01D1     		bne	.L18
 127:/mnt/c/Users/31740/Desktop/newcore/drivers/tty/stm32f4_tty0.c ****         return 1;
 128:/mnt/c/Users/31740/Desktop/newcore/drivers/tty/stm32f4_tty0.c ****     }
 129:/mnt/c/Users/31740/Desktop/newcore/drivers/tty/stm32f4_tty0.c ****     return 0;
 200              		.loc 1 129 12 view .LVU47
 201 000c 0020     		movs	r0, #0
 202 000e 7047     		bx	lr
 203              	.L18:
 127:/mnt/c/Users/31740/Desktop/newcore/drivers/tty/stm32f4_tty0.c ****         return 1;
 204              		.loc 1 127 16 view .LVU48
 205 0010 0120     		movs	r0, #1
 130:/mnt/c/Users/31740/Desktop/newcore/drivers/tty/stm32f4_tty0.c **** }
 206              		.loc 1 130 1 view .LVU49
ARM GAS  /tmp/ccD8NFOg.s 			page 7


 207 0012 7047     		bx	lr
 208              	.L20:
 209              		.align	2
 210              	.L19:
 211 0014 00000000 		.word	usrat1_rx_index_rear
 212 0018 00000000 		.word	usrat1_rx_index_front
 213              		.cfi_endproc
 214              	.LFE1089:
 216              		.section	.text.get_rx_buffer_data,"ax",%progbits
 217              		.align	1
 218              		.syntax unified
 219              		.thumb
 220              		.thumb_func
 222              	get_rx_buffer_data:
 223              	.LFB1090:
 131:/mnt/c/Users/31740/Desktop/newcore/drivers/tty/stm32f4_tty0.c **** static char get_rx_buffer_data()                                 //‰ªéÂ∞æÊåáÈíàËé∑ÂèñÁºìÂÜ≤Âå∫Êï∞Êç
 132:/mnt/c/Users/31740/Desktop/newcore/drivers/tty/stm32f4_tty0.c **** {
 224              		.loc 1 132 1 is_stmt 1 view -0
 225              		.cfi_startproc
 226              		@ args = 0, pretend = 0, frame = 0
 227              		@ frame_needed = 0, uses_anonymous_args = 0
 228              		@ link register save eliminated.
 133:/mnt/c/Users/31740/Desktop/newcore/drivers/tty/stm32f4_tty0.c ****     char byte = usrat1_rx_buffer[usrat1_rx_index_rear];
 229              		.loc 1 133 5 view .LVU51
 230              		.loc 1 133 33 is_stmt 0 view .LVU52
 231 0000 0648     		ldr	r0, .L22
 232 0002 0188     		ldrh	r1, [r0]
 233              	.LVL8:
 134:/mnt/c/Users/31740/Desktop/newcore/drivers/tty/stm32f4_tty0.c ****     usrat1_rx_index_rear = (usrat1_rx_index_rear + 1) % RX_BUFFER_SIZE;
 234              		.loc 1 134 5 is_stmt 1 view .LVU53
 235              		.loc 1 134 50 is_stmt 0 view .LVU54
 236 0004 4B1C     		adds	r3, r1, #1
 237              		.loc 1 134 55 view .LVU55
 238 0006 5A42     		rsbs	r2, r3, #0
 239 0008 C3F30903 		ubfx	r3, r3, #0, #10
 240 000c C2F30902 		ubfx	r2, r2, #0, #10
 241 0010 58BF     		it	pl
 242 0012 5342     		rsbpl	r3, r2, #0
 243              		.loc 1 134 26 view .LVU56
 244 0014 0380     		strh	r3, [r0]	@ movhi
 135:/mnt/c/Users/31740/Desktop/newcore/drivers/tty/stm32f4_tty0.c ****     return byte;
 245              		.loc 1 135 5 is_stmt 1 view .LVU57
 136:/mnt/c/Users/31740/Desktop/newcore/drivers/tty/stm32f4_tty0.c **** }
 246              		.loc 1 136 1 is_stmt 0 view .LVU58
 247 0016 024B     		ldr	r3, .L22+4
 248 0018 585C     		ldrb	r0, [r3, r1]	@ zero_extendqisi2
 249 001a 7047     		bx	lr
 250              	.L23:
 251              		.align	2
 252              	.L22:
 253 001c 00000000 		.word	usrat1_rx_index_rear
 254 0020 00000000 		.word	usrat1_rx_buffer
 255              		.cfi_endproc
 256              	.LFE1090:
 258              		.section	.text.tty_open,"ax",%progbits
 259              		.align	1
 260              		.syntax unified
ARM GAS  /tmp/ccD8NFOg.s 			page 8


 261              		.thumb
 262              		.thumb_func
 264              	tty_open:
 265              	.LVL9:
 266              	.LFB1093:
 137:/mnt/c/Users/31740/Desktop/newcore/drivers/tty/stm32f4_tty0.c **** 
 138:/mnt/c/Users/31740/Desktop/newcore/drivers/tty/stm32f4_tty0.c **** static int Usart1_read(char *data){
 139:/mnt/c/Users/31740/Desktop/newcore/drivers/tty/stm32f4_tty0.c ****     local_irq_disable();
 140:/mnt/c/Users/31740/Desktop/newcore/drivers/tty/stm32f4_tty0.c ****     if(get_rx_buffer_state() == 1){
 141:/mnt/c/Users/31740/Desktop/newcore/drivers/tty/stm32f4_tty0.c ****         data[0] = get_rx_buffer_data();
 142:/mnt/c/Users/31740/Desktop/newcore/drivers/tty/stm32f4_tty0.c ****         local_irq_enable();
 143:/mnt/c/Users/31740/Desktop/newcore/drivers/tty/stm32f4_tty0.c ****         return 0;
 144:/mnt/c/Users/31740/Desktop/newcore/drivers/tty/stm32f4_tty0.c ****     }
 145:/mnt/c/Users/31740/Desktop/newcore/drivers/tty/stm32f4_tty0.c ****     local_irq_enable();
 146:/mnt/c/Users/31740/Desktop/newcore/drivers/tty/stm32f4_tty0.c ****     return -1;
 147:/mnt/c/Users/31740/Desktop/newcore/drivers/tty/stm32f4_tty0.c **** }
 148:/mnt/c/Users/31740/Desktop/newcore/drivers/tty/stm32f4_tty0.c **** 
 149:/mnt/c/Users/31740/Desktop/newcore/drivers/tty/stm32f4_tty0.c **** 
 150:/mnt/c/Users/31740/Desktop/newcore/drivers/tty/stm32f4_tty0.c **** void early_printk(const char *fmt, ...){
 151:/mnt/c/Users/31740/Desktop/newcore/drivers/tty/stm32f4_tty0.c ****     char buf[256];
 152:/mnt/c/Users/31740/Desktop/newcore/drivers/tty/stm32f4_tty0.c ****     va_list args;
 153:/mnt/c/Users/31740/Desktop/newcore/drivers/tty/stm32f4_tty0.c ****     va_start(args, fmt);
 154:/mnt/c/Users/31740/Desktop/newcore/drivers/tty/stm32f4_tty0.c ****     vsnprintf(buf, sizeof(buf), fmt, args);
 155:/mnt/c/Users/31740/Desktop/newcore/drivers/tty/stm32f4_tty0.c ****     va_end(args);
 156:/mnt/c/Users/31740/Desktop/newcore/drivers/tty/stm32f4_tty0.c ****     for(int i = 0; buf[i]!= '\0'; i++){
 157:/mnt/c/Users/31740/Desktop/newcore/drivers/tty/stm32f4_tty0.c ****         USART_1_SendByte(buf[i]);
 158:/mnt/c/Users/31740/Desktop/newcore/drivers/tty/stm32f4_tty0.c ****         if(buf[i] == '\n')
 159:/mnt/c/Users/31740/Desktop/newcore/drivers/tty/stm32f4_tty0.c ****         USART_1_SendByte('\r');
 160:/mnt/c/Users/31740/Desktop/newcore/drivers/tty/stm32f4_tty0.c ****     }
 161:/mnt/c/Users/31740/Desktop/newcore/drivers/tty/stm32f4_tty0.c **** } 
 162:/mnt/c/Users/31740/Desktop/newcore/drivers/tty/stm32f4_tty0.c **** 
 163:/mnt/c/Users/31740/Desktop/newcore/drivers/tty/stm32f4_tty0.c **** static int tty_open(struct inode *node, struct file *file){
 267              		.loc 1 163 59 is_stmt 1 view -0
 268              		.cfi_startproc
 269              		@ args = 0, pretend = 0, frame = 0
 270              		@ frame_needed = 0, uses_anonymous_args = 0
 271              		@ link register save eliminated.
 164:/mnt/c/Users/31740/Desktop/newcore/drivers/tty/stm32f4_tty0.c ****     return 0;
 272              		.loc 1 164 5 view .LVU60
 165:/mnt/c/Users/31740/Desktop/newcore/drivers/tty/stm32f4_tty0.c **** }
 273              		.loc 1 165 1 is_stmt 0 view .LVU61
 274 0000 0020     		movs	r0, #0
 275              	.LVL10:
 276              		.loc 1 165 1 view .LVU62
 277 0002 7047     		bx	lr
 278              		.cfi_endproc
 279              	.LFE1093:
 281              		.section	.text.tty_write,"ax",%progbits
 282              		.align	1
 283              		.syntax unified
 284              		.thumb
 285              		.thumb_func
 287              	tty_write:
 288              	.LVL11:
 289              	.LFB1095:
 166:/mnt/c/Users/31740/Desktop/newcore/drivers/tty/stm32f4_tty0.c **** 
 167:/mnt/c/Users/31740/Desktop/newcore/drivers/tty/stm32f4_tty0.c **** static ssize_t tty_read(struct file *file, const char __user *buserdata, size_t size, loff_t *offse
ARM GAS  /tmp/ccD8NFOg.s 			page 9


 168:/mnt/c/Users/31740/Desktop/newcore/drivers/tty/stm32f4_tty0.c ****     size_t i;
 169:/mnt/c/Users/31740/Desktop/newcore/drivers/tty/stm32f4_tty0.c ****     for(i =0;i<size;i++){
 170:/mnt/c/Users/31740/Desktop/newcore/drivers/tty/stm32f4_tty0.c ****        if(Usart1_read(&buserdata[i]) < 0)
 171:/mnt/c/Users/31740/Desktop/newcore/drivers/tty/stm32f4_tty0.c ****        {
 172:/mnt/c/Users/31740/Desktop/newcore/drivers/tty/stm32f4_tty0.c ****          break;        
 173:/mnt/c/Users/31740/Desktop/newcore/drivers/tty/stm32f4_tty0.c ****        }
 174:/mnt/c/Users/31740/Desktop/newcore/drivers/tty/stm32f4_tty0.c ****     }
 175:/mnt/c/Users/31740/Desktop/newcore/drivers/tty/stm32f4_tty0.c ****     return i;
 176:/mnt/c/Users/31740/Desktop/newcore/drivers/tty/stm32f4_tty0.c **** }
 177:/mnt/c/Users/31740/Desktop/newcore/drivers/tty/stm32f4_tty0.c **** 
 178:/mnt/c/Users/31740/Desktop/newcore/drivers/tty/stm32f4_tty0.c **** static ssize_t tty_write(struct file *file, const char __user *buserdata, size_t size, loff_t *offs
 290              		.loc 1 178 103 is_stmt 1 view -0
 291              		.cfi_startproc
 292              		@ args = 0, pretend = 0, frame = 0
 293              		@ frame_needed = 0, uses_anonymous_args = 0
 294              		.loc 1 178 103 is_stmt 0 view .LVU64
 295 0000 70B5     		push	{r4, r5, r6, lr}
 296              	.LCFI2:
 297              		.cfi_def_cfa_offset 16
 298              		.cfi_offset 4, -16
 299              		.cfi_offset 5, -12
 300              		.cfi_offset 6, -8
 301              		.cfi_offset 14, -4
 302 0002 0D46     		mov	r5, r1
 303 0004 1646     		mov	r6, r2
 179:/mnt/c/Users/31740/Desktop/newcore/drivers/tty/stm32f4_tty0.c ****     for(int i = 0;i< size ;i++){
 304              		.loc 1 179 5 is_stmt 1 view .LVU65
 305              	.LBB10:
 306              		.loc 1 179 9 view .LVU66
 307              	.LVL12:
 308              		.loc 1 179 13 is_stmt 0 view .LVU67
 309 0006 0024     		movs	r4, #0
 310              		.loc 1 179 5 view .LVU68
 311 0008 00E0     		b	.L26
 312              	.LVL13:
 313              	.L27:
 314              		.loc 1 179 29 is_stmt 1 discriminator 2 view .LVU69
 315 000a 0134     		adds	r4, r4, #1
 316              	.LVL14:
 317              	.L26:
 318              		.loc 1 179 20 discriminator 1 view .LVU70
 319 000c B442     		cmp	r4, r6
 320 000e 09D2     		bcs	.L30
 180:/mnt/c/Users/31740/Desktop/newcore/drivers/tty/stm32f4_tty0.c ****         USART_1_SendByte(buserdata[i]);     
 321              		.loc 1 180 9 view .LVU71
 322 0010 285D     		ldrb	r0, [r5, r4]	@ zero_extendqisi2
 323 0012 FFF7FEFF 		bl	USART_1_SendByte
 324              	.LVL15:
 181:/mnt/c/Users/31740/Desktop/newcore/drivers/tty/stm32f4_tty0.c ****         if(buserdata[i] == '\n'){
 325              		.loc 1 181 9 view .LVU72
 326              		.loc 1 181 21 is_stmt 0 view .LVU73
 327 0016 2B5D     		ldrb	r3, [r5, r4]	@ zero_extendqisi2
 328              		.loc 1 181 11 view .LVU74
 329 0018 0A2B     		cmp	r3, #10
 330 001a F6D1     		bne	.L27
 182:/mnt/c/Users/31740/Desktop/newcore/drivers/tty/stm32f4_tty0.c ****             USART_1_SendByte('\r');
 331              		.loc 1 182 13 is_stmt 1 view .LVU75
ARM GAS  /tmp/ccD8NFOg.s 			page 10


 332 001c 0D20     		movs	r0, #13
 333 001e FFF7FEFF 		bl	USART_1_SendByte
 334              	.LVL16:
 335 0022 F2E7     		b	.L27
 336              	.L30:
 337              		.loc 1 182 13 is_stmt 0 view .LVU76
 338              	.LBE10:
 183:/mnt/c/Users/31740/Desktop/newcore/drivers/tty/stm32f4_tty0.c ****         }
 184:/mnt/c/Users/31740/Desktop/newcore/drivers/tty/stm32f4_tty0.c ****     }
 185:/mnt/c/Users/31740/Desktop/newcore/drivers/tty/stm32f4_tty0.c ****     return size;
 339              		.loc 1 185 5 is_stmt 1 view .LVU77
 186:/mnt/c/Users/31740/Desktop/newcore/drivers/tty/stm32f4_tty0.c **** }
 340              		.loc 1 186 1 is_stmt 0 view .LVU78
 341 0024 3046     		mov	r0, r6
 342 0026 70BD     		pop	{r4, r5, r6, pc}
 343              		.loc 1 186 1 view .LVU79
 344              		.cfi_endproc
 345              	.LFE1095:
 347              		.section	.text.tty_close,"ax",%progbits
 348              		.align	1
 349              		.syntax unified
 350              		.thumb
 351              		.thumb_func
 353              	tty_close:
 354              	.LVL17:
 355              	.LFB1096:
 187:/mnt/c/Users/31740/Desktop/newcore/drivers/tty/stm32f4_tty0.c **** 
 188:/mnt/c/Users/31740/Desktop/newcore/drivers/tty/stm32f4_tty0.c **** 
 189:/mnt/c/Users/31740/Desktop/newcore/drivers/tty/stm32f4_tty0.c **** static int tty_close(struct inode *node, struct file *file){
 356              		.loc 1 189 60 is_stmt 1 view -0
 357              		.cfi_startproc
 358              		@ args = 0, pretend = 0, frame = 0
 359              		@ frame_needed = 0, uses_anonymous_args = 0
 360              		@ link register save eliminated.
 190:/mnt/c/Users/31740/Desktop/newcore/drivers/tty/stm32f4_tty0.c ****     return 0;
 361              		.loc 1 190 5 view .LVU81
 191:/mnt/c/Users/31740/Desktop/newcore/drivers/tty/stm32f4_tty0.c **** }
 362              		.loc 1 191 1 is_stmt 0 view .LVU82
 363 0000 0020     		movs	r0, #0
 364              	.LVL18:
 365              		.loc 1 191 1 view .LVU83
 366 0002 7047     		bx	lr
 367              		.cfi_endproc
 368              	.LFE1096:
 370              		.section	.text.local_irq_disable,"ax",%progbits
 371              		.align	1
 372              		.syntax unified
 373              		.thumb
 374              		.thumb_func
 376              	local_irq_disable:
 377              	.LFB1083:
 378              		.file 2 "/mnt/c/Users/31740/Desktop/newcore/arch/arm_m/include/asm/irqflags.h"
   1:/mnt/c/Users/31740/Desktop/newcore/arch/arm_m/include/asm/irqflags.h **** #ifndef  __IRQFLAG_H_
   2:/mnt/c/Users/31740/Desktop/newcore/arch/arm_m/include/asm/irqflags.h **** #define  __IRQFLAG_H_
   3:/mnt/c/Users/31740/Desktop/newcore/arch/arm_m/include/asm/irqflags.h **** 
   4:/mnt/c/Users/31740/Desktop/newcore/arch/arm_m/include/asm/irqflags.h **** extern void __enable_irq();
   5:/mnt/c/Users/31740/Desktop/newcore/arch/arm_m/include/asm/irqflags.h **** extern void __disble_irq();
ARM GAS  /tmp/ccD8NFOg.s 			page 11


   6:/mnt/c/Users/31740/Desktop/newcore/arch/arm_m/include/asm/irqflags.h **** 
   7:/mnt/c/Users/31740/Desktop/newcore/arch/arm_m/include/asm/irqflags.h **** static void local_irq_disable(){
 379              		.loc 2 7 32 is_stmt 1 view -0
 380              		.cfi_startproc
 381              		@ args = 0, pretend = 0, frame = 0
 382              		@ frame_needed = 0, uses_anonymous_args = 0
 383 0000 08B5     		push	{r3, lr}
 384              	.LCFI3:
 385              		.cfi_def_cfa_offset 8
 386              		.cfi_offset 3, -8
 387              		.cfi_offset 14, -4
   8:/mnt/c/Users/31740/Desktop/newcore/arch/arm_m/include/asm/irqflags.h ****     __disble_irq();
 388              		.loc 2 8 5 view .LVU85
 389 0002 FFF7FEFF 		bl	__disble_irq
 390              	.LVL19:
   9:/mnt/c/Users/31740/Desktop/newcore/arch/arm_m/include/asm/irqflags.h **** }
 391              		.loc 2 9 1 is_stmt 0 view .LVU86
 392 0006 08BD     		pop	{r3, pc}
 393              		.cfi_endproc
 394              	.LFE1083:
 396              		.section	.text.local_irq_enable,"ax",%progbits
 397              		.align	1
 398              		.syntax unified
 399              		.thumb
 400              		.thumb_func
 402              	local_irq_enable:
 403              	.LFB1084:
  10:/mnt/c/Users/31740/Desktop/newcore/arch/arm_m/include/asm/irqflags.h **** 
  11:/mnt/c/Users/31740/Desktop/newcore/arch/arm_m/include/asm/irqflags.h **** static void local_irq_enable(){
 404              		.loc 2 11 31 is_stmt 1 view -0
 405              		.cfi_startproc
 406              		@ args = 0, pretend = 0, frame = 0
 407              		@ frame_needed = 0, uses_anonymous_args = 0
 408 0000 08B5     		push	{r3, lr}
 409              	.LCFI4:
 410              		.cfi_def_cfa_offset 8
 411              		.cfi_offset 3, -8
 412              		.cfi_offset 14, -4
  12:/mnt/c/Users/31740/Desktop/newcore/arch/arm_m/include/asm/irqflags.h ****     __enable_irq();
 413              		.loc 2 12 5 view .LVU88
 414 0002 FFF7FEFF 		bl	__enable_irq
 415              	.LVL20:
  13:/mnt/c/Users/31740/Desktop/newcore/arch/arm_m/include/asm/irqflags.h **** }
 416              		.loc 2 13 1 is_stmt 0 view .LVU89
 417 0006 08BD     		pop	{r3, pc}
 418              		.cfi_endproc
 419              	.LFE1084:
 421              		.section	.text.Usart1_read,"ax",%progbits
 422              		.align	1
 423              		.syntax unified
 424              		.thumb
 425              		.thumb_func
 427              	Usart1_read:
 428              	.LVL21:
 429              	.LFB1091:
 138:/mnt/c/Users/31740/Desktop/newcore/drivers/tty/stm32f4_tty0.c ****     local_irq_disable();
 430              		.loc 1 138 35 is_stmt 1 view -0
ARM GAS  /tmp/ccD8NFOg.s 			page 12


 431              		.cfi_startproc
 432              		@ args = 0, pretend = 0, frame = 0
 433              		@ frame_needed = 0, uses_anonymous_args = 0
 138:/mnt/c/Users/31740/Desktop/newcore/drivers/tty/stm32f4_tty0.c ****     local_irq_disable();
 434              		.loc 1 138 35 is_stmt 0 view .LVU91
 435 0000 10B5     		push	{r4, lr}
 436              	.LCFI5:
 437              		.cfi_def_cfa_offset 8
 438              		.cfi_offset 4, -8
 439              		.cfi_offset 14, -4
 440 0002 0446     		mov	r4, r0
 139:/mnt/c/Users/31740/Desktop/newcore/drivers/tty/stm32f4_tty0.c ****     if(get_rx_buffer_state() == 1){
 441              		.loc 1 139 5 is_stmt 1 view .LVU92
 442 0004 FFF7FEFF 		bl	local_irq_disable
 443              	.LVL22:
 140:/mnt/c/Users/31740/Desktop/newcore/drivers/tty/stm32f4_tty0.c ****         data[0] = get_rx_buffer_data();
 444              		.loc 1 140 5 view .LVU93
 140:/mnt/c/Users/31740/Desktop/newcore/drivers/tty/stm32f4_tty0.c ****         data[0] = get_rx_buffer_data();
 445              		.loc 1 140 8 is_stmt 0 view .LVU94
 446 0008 FFF7FEFF 		bl	get_rx_buffer_state
 447              	.LVL23:
 140:/mnt/c/Users/31740/Desktop/newcore/drivers/tty/stm32f4_tty0.c ****         data[0] = get_rx_buffer_data();
 448              		.loc 1 140 7 discriminator 1 view .LVU95
 449 000c 0128     		cmp	r0, #1
 450 000e 06D1     		bne	.L37
 141:/mnt/c/Users/31740/Desktop/newcore/drivers/tty/stm32f4_tty0.c ****         local_irq_enable();
 451              		.loc 1 141 9 is_stmt 1 view .LVU96
 141:/mnt/c/Users/31740/Desktop/newcore/drivers/tty/stm32f4_tty0.c ****         local_irq_enable();
 452              		.loc 1 141 19 is_stmt 0 view .LVU97
 453 0010 FFF7FEFF 		bl	get_rx_buffer_data
 454              	.LVL24:
 141:/mnt/c/Users/31740/Desktop/newcore/drivers/tty/stm32f4_tty0.c ****         local_irq_enable();
 455              		.loc 1 141 17 discriminator 1 view .LVU98
 456 0014 2070     		strb	r0, [r4]
 142:/mnt/c/Users/31740/Desktop/newcore/drivers/tty/stm32f4_tty0.c ****         return 0;
 457              		.loc 1 142 9 is_stmt 1 view .LVU99
 458 0016 FFF7FEFF 		bl	local_irq_enable
 459              	.LVL25:
 143:/mnt/c/Users/31740/Desktop/newcore/drivers/tty/stm32f4_tty0.c ****     }
 460              		.loc 1 143 9 view .LVU100
 143:/mnt/c/Users/31740/Desktop/newcore/drivers/tty/stm32f4_tty0.c ****     }
 461              		.loc 1 143 16 is_stmt 0 view .LVU101
 462 001a 0020     		movs	r0, #0
 463              	.L36:
 147:/mnt/c/Users/31740/Desktop/newcore/drivers/tty/stm32f4_tty0.c **** 
 464              		.loc 1 147 1 view .LVU102
 465 001c 10BD     		pop	{r4, pc}
 466              	.LVL26:
 467              	.L37:
 145:/mnt/c/Users/31740/Desktop/newcore/drivers/tty/stm32f4_tty0.c ****     return -1;
 468              		.loc 1 145 5 is_stmt 1 view .LVU103
 469 001e FFF7FEFF 		bl	local_irq_enable
 470              	.LVL27:
 146:/mnt/c/Users/31740/Desktop/newcore/drivers/tty/stm32f4_tty0.c **** }
 471              		.loc 1 146 5 view .LVU104
 146:/mnt/c/Users/31740/Desktop/newcore/drivers/tty/stm32f4_tty0.c **** }
 472              		.loc 1 146 12 is_stmt 0 view .LVU105
ARM GAS  /tmp/ccD8NFOg.s 			page 13


 473 0022 4FF0FF30 		mov	r0, #-1
 474 0026 F9E7     		b	.L36
 475              		.cfi_endproc
 476              	.LFE1091:
 478              		.section	.text.tty_read,"ax",%progbits
 479              		.align	1
 480              		.syntax unified
 481              		.thumb
 482              		.thumb_func
 484              	tty_read:
 485              	.LVL28:
 486              	.LFB1094:
 167:/mnt/c/Users/31740/Desktop/newcore/drivers/tty/stm32f4_tty0.c ****     size_t i;
 487              		.loc 1 167 102 is_stmt 1 view -0
 488              		.cfi_startproc
 489              		@ args = 0, pretend = 0, frame = 0
 490              		@ frame_needed = 0, uses_anonymous_args = 0
 167:/mnt/c/Users/31740/Desktop/newcore/drivers/tty/stm32f4_tty0.c ****     size_t i;
 491              		.loc 1 167 102 is_stmt 0 view .LVU107
 492 0000 70B5     		push	{r4, r5, r6, lr}
 493              	.LCFI6:
 494              		.cfi_def_cfa_offset 16
 495              		.cfi_offset 4, -16
 496              		.cfi_offset 5, -12
 497              		.cfi_offset 6, -8
 498              		.cfi_offset 14, -4
 499 0002 0E46     		mov	r6, r1
 500 0004 1546     		mov	r5, r2
 168:/mnt/c/Users/31740/Desktop/newcore/drivers/tty/stm32f4_tty0.c ****     for(i =0;i<size;i++){
 501              		.loc 1 168 5 is_stmt 1 view .LVU108
 169:/mnt/c/Users/31740/Desktop/newcore/drivers/tty/stm32f4_tty0.c ****        if(Usart1_read(&buserdata[i]) < 0)
 502              		.loc 1 169 5 view .LVU109
 503              	.LVL29:
 169:/mnt/c/Users/31740/Desktop/newcore/drivers/tty/stm32f4_tty0.c ****        if(Usart1_read(&buserdata[i]) < 0)
 504              		.loc 1 169 11 is_stmt 0 view .LVU110
 505 0006 0024     		movs	r4, #0
 169:/mnt/c/Users/31740/Desktop/newcore/drivers/tty/stm32f4_tty0.c ****        if(Usart1_read(&buserdata[i]) < 0)
 506              		.loc 1 169 5 view .LVU111
 507 0008 00E0     		b	.L41
 508              	.LVL30:
 509              	.L45:
 169:/mnt/c/Users/31740/Desktop/newcore/drivers/tty/stm32f4_tty0.c ****        if(Usart1_read(&buserdata[i]) < 0)
 510              		.loc 1 169 22 is_stmt 1 discriminator 2 view .LVU112
 511 000a 0134     		adds	r4, r4, #1
 512              	.LVL31:
 513              	.L41:
 169:/mnt/c/Users/31740/Desktop/newcore/drivers/tty/stm32f4_tty0.c ****        if(Usart1_read(&buserdata[i]) < 0)
 514              		.loc 1 169 15 discriminator 1 view .LVU113
 515 000c AC42     		cmp	r4, r5
 516 000e 04D2     		bcs	.L42
 170:/mnt/c/Users/31740/Desktop/newcore/drivers/tty/stm32f4_tty0.c ****        {
 517              		.loc 1 170 8 view .LVU114
 170:/mnt/c/Users/31740/Desktop/newcore/drivers/tty/stm32f4_tty0.c ****        {
 518              		.loc 1 170 11 is_stmt 0 view .LVU115
 519 0010 3019     		adds	r0, r6, r4
 520 0012 FFF7FEFF 		bl	Usart1_read
 521              	.LVL32:
ARM GAS  /tmp/ccD8NFOg.s 			page 14


 170:/mnt/c/Users/31740/Desktop/newcore/drivers/tty/stm32f4_tty0.c ****        {
 522              		.loc 1 170 10 discriminator 1 view .LVU116
 523 0016 0028     		cmp	r0, #0
 524 0018 F7DA     		bge	.L45
 525              	.L42:
 175:/mnt/c/Users/31740/Desktop/newcore/drivers/tty/stm32f4_tty0.c **** }
 526              		.loc 1 175 5 is_stmt 1 view .LVU117
 176:/mnt/c/Users/31740/Desktop/newcore/drivers/tty/stm32f4_tty0.c **** 
 527              		.loc 1 176 1 is_stmt 0 view .LVU118
 528 001a 2046     		mov	r0, r4
 529 001c 70BD     		pop	{r4, r5, r6, pc}
 176:/mnt/c/Users/31740/Desktop/newcore/drivers/tty/stm32f4_tty0.c **** 
 530              		.loc 1 176 1 view .LVU119
 531              		.cfi_endproc
 532              	.LFE1094:
 534              		.section	.text.uart1_device_init_function_from_dtb,"ax",%progbits
 535              		.align	1
 536              		.global	uart1_device_init_function_from_dtb
 537              		.syntax unified
 538              		.thumb
 539              		.thumb_func
 541              	uart1_device_init_function_from_dtb:
 542              	.LFB1085:
  61:/mnt/c/Users/31740/Desktop/newcore/drivers/tty/stm32f4_tty0.c ****     irq_num = 37;  // Á°¨ÁºñÁ†Å USART1 IRQ for simplicity
 543              		.loc 1 61 1 is_stmt 1 view -0
 544              		.cfi_startproc
 545              		@ args = 0, pretend = 0, frame = 0
 546              		@ frame_needed = 0, uses_anonymous_args = 0
 547              		@ link register save eliminated.
  62:/mnt/c/Users/31740/Desktop/newcore/drivers/tty/stm32f4_tty0.c ****     u32 baudrate = 115200;  // ÈªòËÆ§Ê≥¢ÁâπÁéá
 548              		.loc 1 62 5 view .LVU121
  62:/mnt/c/Users/31740/Desktop/newcore/drivers/tty/stm32f4_tty0.c ****     u32 baudrate = 115200;  // ÈªòËÆ§Ê≥¢ÁâπÁéá
 549              		.loc 1 62 13 is_stmt 0 view .LVU122
 550 0000 3749     		ldr	r1, .L49
 551 0002 2523     		movs	r3, #37
 552 0004 0B60     		str	r3, [r1]
  63:/mnt/c/Users/31740/Desktop/newcore/drivers/tty/stm32f4_tty0.c **** 
 553              		.loc 1 63 5 is_stmt 1 view .LVU123
 554              	.LVL33:
  66:/mnt/c/Users/31740/Desktop/newcore/drivers/tty/stm32f4_tty0.c ****     RCC[0x44 / 4] |= (1 << 4);   // USART1EN
 555              		.loc 1 66 5 view .LVU124
  66:/mnt/c/Users/31740/Desktop/newcore/drivers/tty/stm32f4_tty0.c ****     RCC[0x44 / 4] |= (1 << 4);   // USART1EN
 556              		.loc 1 66 8 is_stmt 0 view .LVU125
 557 0006 374B     		ldr	r3, .L49+4
 558 0008 D3F83028 		ldr	r2, [r3, #2096]
  66:/mnt/c/Users/31740/Desktop/newcore/drivers/tty/stm32f4_tty0.c ****     RCC[0x44 / 4] |= (1 << 4);   // USART1EN
 559              		.loc 1 66 19 view .LVU126
 560 000c 42F00102 		orr	r2, r2, #1
 561 0010 C3F83028 		str	r2, [r3, #2096]
  67:/mnt/c/Users/31740/Desktop/newcore/drivers/tty/stm32f4_tty0.c **** 
 562              		.loc 1 67 5 is_stmt 1 view .LVU127
  67:/mnt/c/Users/31740/Desktop/newcore/drivers/tty/stm32f4_tty0.c **** 
 563              		.loc 1 67 8 is_stmt 0 view .LVU128
 564 0014 D3F84428 		ldr	r2, [r3, #2116]
  67:/mnt/c/Users/31740/Desktop/newcore/drivers/tty/stm32f4_tty0.c **** 
 565              		.loc 1 67 19 view .LVU129
 566 0018 42F01002 		orr	r2, r2, #16
ARM GAS  /tmp/ccD8NFOg.s 			page 15


 567 001c C3F84428 		str	r2, [r3, #2116]
  70:/mnt/c/Users/31740/Desktop/newcore/drivers/tty/stm32f4_tty0.c ****     GPIOA->MODER |=  (0xA << 18);       // MODER9 = AF, MODER10 = AF
 568              		.loc 1 70 5 is_stmt 1 view .LVU130
  70:/mnt/c/Users/31740/Desktop/newcore/drivers/tty/stm32f4_tty0.c ****     GPIOA->MODER |=  (0xA << 18);       // MODER9 = AF, MODER10 = AF
 569              		.loc 1 70 10 is_stmt 0 view .LVU131
 570 0020 A3F54053 		sub	r3, r3, #12288
 571 0024 1A68     		ldr	r2, [r3]
  70:/mnt/c/Users/31740/Desktop/newcore/drivers/tty/stm32f4_tty0.c ****     GPIOA->MODER |=  (0xA << 18);       // MODER9 = AF, MODER10 = AF
 572              		.loc 1 70 18 view .LVU132
 573 0026 22F47012 		bic	r2, r2, #3932160
 574 002a 1A60     		str	r2, [r3]
  71:/mnt/c/Users/31740/Desktop/newcore/drivers/tty/stm32f4_tty0.c ****     GPIOA->AFR[1] &= ~(0xFF << 4);
 575              		.loc 1 71 5 is_stmt 1 view .LVU133
  71:/mnt/c/Users/31740/Desktop/newcore/drivers/tty/stm32f4_tty0.c ****     GPIOA->AFR[1] &= ~(0xFF << 4);
 576              		.loc 1 71 10 is_stmt 0 view .LVU134
 577 002c 1A68     		ldr	r2, [r3]
  71:/mnt/c/Users/31740/Desktop/newcore/drivers/tty/stm32f4_tty0.c ****     GPIOA->AFR[1] &= ~(0xFF << 4);
 578              		.loc 1 71 18 view .LVU135
 579 002e 42F42012 		orr	r2, r2, #2621440
 580 0032 1A60     		str	r2, [r3]
  72:/mnt/c/Users/31740/Desktop/newcore/drivers/tty/stm32f4_tty0.c ****     GPIOA->AFR[1] |=  (0x77 << 4);      // AFR9, AFR10 = AF7
 581              		.loc 1 72 5 is_stmt 1 view .LVU136
  72:/mnt/c/Users/31740/Desktop/newcore/drivers/tty/stm32f4_tty0.c ****     GPIOA->AFR[1] |=  (0x77 << 4);      // AFR9, AFR10 = AF7
 582              		.loc 1 72 15 is_stmt 0 view .LVU137
 583 0034 5A6A     		ldr	r2, [r3, #36]
  72:/mnt/c/Users/31740/Desktop/newcore/drivers/tty/stm32f4_tty0.c ****     GPIOA->AFR[1] |=  (0x77 << 4);      // AFR9, AFR10 = AF7
 584              		.loc 1 72 19 view .LVU138
 585 0036 22F47F62 		bic	r2, r2, #4080
 586 003a 5A62     		str	r2, [r3, #36]
  73:/mnt/c/Users/31740/Desktop/newcore/drivers/tty/stm32f4_tty0.c ****     GPIOA->OSPEEDR |= (0xF << 18);      // High speed
 587              		.loc 1 73 5 is_stmt 1 view .LVU139
  73:/mnt/c/Users/31740/Desktop/newcore/drivers/tty/stm32f4_tty0.c ****     GPIOA->OSPEEDR |= (0xF << 18);      // High speed
 588              		.loc 1 73 15 is_stmt 0 view .LVU140
 589 003c 5A6A     		ldr	r2, [r3, #36]
  73:/mnt/c/Users/31740/Desktop/newcore/drivers/tty/stm32f4_tty0.c ****     GPIOA->OSPEEDR |= (0xF << 18);      // High speed
 590              		.loc 1 73 19 view .LVU141
 591 003e 42F4EE62 		orr	r2, r2, #1904
 592 0042 5A62     		str	r2, [r3, #36]
  74:/mnt/c/Users/31740/Desktop/newcore/drivers/tty/stm32f4_tty0.c ****     GPIOA->PUPDR &= ~(0xF << 18);
 593              		.loc 1 74 5 is_stmt 1 view .LVU142
  74:/mnt/c/Users/31740/Desktop/newcore/drivers/tty/stm32f4_tty0.c ****     GPIOA->PUPDR &= ~(0xF << 18);
 594              		.loc 1 74 10 is_stmt 0 view .LVU143
 595 0044 9A68     		ldr	r2, [r3, #8]
  74:/mnt/c/Users/31740/Desktop/newcore/drivers/tty/stm32f4_tty0.c ****     GPIOA->PUPDR &= ~(0xF << 18);
 596              		.loc 1 74 20 view .LVU144
 597 0046 42F47012 		orr	r2, r2, #3932160
 598 004a 9A60     		str	r2, [r3, #8]
  75:/mnt/c/Users/31740/Desktop/newcore/drivers/tty/stm32f4_tty0.c ****     GPIOA->PUPDR |=  (0x5 << 18);       // Pull-up for RX, none for TX
 599              		.loc 1 75 5 is_stmt 1 view .LVU145
  75:/mnt/c/Users/31740/Desktop/newcore/drivers/tty/stm32f4_tty0.c ****     GPIOA->PUPDR |=  (0x5 << 18);       // Pull-up for RX, none for TX
 600              		.loc 1 75 10 is_stmt 0 view .LVU146
 601 004c DA68     		ldr	r2, [r3, #12]
  75:/mnt/c/Users/31740/Desktop/newcore/drivers/tty/stm32f4_tty0.c ****     GPIOA->PUPDR |=  (0x5 << 18);       // Pull-up for RX, none for TX
 602              		.loc 1 75 18 view .LVU147
 603 004e 22F47012 		bic	r2, r2, #3932160
 604 0052 DA60     		str	r2, [r3, #12]
  76:/mnt/c/Users/31740/Desktop/newcore/drivers/tty/stm32f4_tty0.c ****     GPIOA->OTYPER &= ~(0x3 << 9);       // Push-pull
ARM GAS  /tmp/ccD8NFOg.s 			page 16


 605              		.loc 1 76 5 is_stmt 1 view .LVU148
  76:/mnt/c/Users/31740/Desktop/newcore/drivers/tty/stm32f4_tty0.c ****     GPIOA->OTYPER &= ~(0x3 << 9);       // Push-pull
 606              		.loc 1 76 10 is_stmt 0 view .LVU149
 607 0054 DA68     		ldr	r2, [r3, #12]
  76:/mnt/c/Users/31740/Desktop/newcore/drivers/tty/stm32f4_tty0.c ****     GPIOA->OTYPER &= ~(0x3 << 9);       // Push-pull
 608              		.loc 1 76 18 view .LVU150
 609 0056 42F4A012 		orr	r2, r2, #1310720
 610 005a DA60     		str	r2, [r3, #12]
  77:/mnt/c/Users/31740/Desktop/newcore/drivers/tty/stm32f4_tty0.c **** 
 611              		.loc 1 77 5 is_stmt 1 view .LVU151
  77:/mnt/c/Users/31740/Desktop/newcore/drivers/tty/stm32f4_tty0.c **** 
 612              		.loc 1 77 10 is_stmt 0 view .LVU152
 613 005c 5A68     		ldr	r2, [r3, #4]
  77:/mnt/c/Users/31740/Desktop/newcore/drivers/tty/stm32f4_tty0.c **** 
 614              		.loc 1 77 19 view .LVU153
 615 005e 22F4C062 		bic	r2, r2, #1536
 616 0062 5A60     		str	r2, [r3, #4]
  80:/mnt/c/Users/31740/Desktop/newcore/drivers/tty/stm32f4_tty0.c ****     USART1->BRR = (84000000 + baudrate / 2) / baudrate;  // Ê≥¢ÁâπÁéáËÆæÁΩÆ
 617              		.loc 1 80 5 is_stmt 1 view .LVU154
  80:/mnt/c/Users/31740/Desktop/newcore/drivers/tty/stm32f4_tty0.c ****     USART1->BRR = (84000000 + baudrate / 2) / baudrate;  // Ê≥¢ÁâπÁéáËÆæÁΩÆ
 618              		.loc 1 80 17 is_stmt 0 view .LVU155
 619 0064 A3F57043 		sub	r3, r3, #61440
 620 0068 0022     		movs	r2, #0
 621 006a DA60     		str	r2, [r3, #12]
  81:/mnt/c/Users/31740/Desktop/newcore/drivers/tty/stm32f4_tty0.c ****     USART1->CR1 |= (1 << 2) | (1 << 3);  // RE + TE
 622              		.loc 1 81 5 is_stmt 1 view .LVU156
  81:/mnt/c/Users/31740/Desktop/newcore/drivers/tty/stm32f4_tty0.c ****     USART1->CR1 |= (1 << 2) | (1 << 3);  // RE + TE
 623              		.loc 1 81 17 is_stmt 0 view .LVU157
 624 006c 40F2D922 		movw	r2, #729
 625 0070 9A60     		str	r2, [r3, #8]
  82:/mnt/c/Users/31740/Desktop/newcore/drivers/tty/stm32f4_tty0.c ****     USART1->CR1 |= (1 << 5);             // RXNEIE: Êé•Êî∂‰∏≠Êñ≠‰ΩøËÉΩ
 626              		.loc 1 82 5 is_stmt 1 view .LVU158
  82:/mnt/c/Users/31740/Desktop/newcore/drivers/tty/stm32f4_tty0.c ****     USART1->CR1 |= (1 << 5);             // RXNEIE: Êé•Êî∂‰∏≠Êñ≠‰ΩøËÉΩ
 627              		.loc 1 82 11 is_stmt 0 view .LVU159
 628 0072 DA68     		ldr	r2, [r3, #12]
  82:/mnt/c/Users/31740/Desktop/newcore/drivers/tty/stm32f4_tty0.c ****     USART1->CR1 |= (1 << 5);             // RXNEIE: Êé•Êî∂‰∏≠Êñ≠‰ΩøËÉΩ
 629              		.loc 1 82 17 view .LVU160
 630 0074 42F00C02 		orr	r2, r2, #12
 631 0078 DA60     		str	r2, [r3, #12]
  83:/mnt/c/Users/31740/Desktop/newcore/drivers/tty/stm32f4_tty0.c ****     USART1->CR1 |= (1 << 13);            // UE: USART‰ΩøËÉΩ
 632              		.loc 1 83 5 is_stmt 1 view .LVU161
  83:/mnt/c/Users/31740/Desktop/newcore/drivers/tty/stm32f4_tty0.c ****     USART1->CR1 |= (1 << 13);            // UE: USART‰ΩøËÉΩ
 633              		.loc 1 83 11 is_stmt 0 view .LVU162
 634 007a DA68     		ldr	r2, [r3, #12]
  83:/mnt/c/Users/31740/Desktop/newcore/drivers/tty/stm32f4_tty0.c ****     USART1->CR1 |= (1 << 13);            // UE: USART‰ΩøËÉΩ
 635              		.loc 1 83 17 view .LVU163
 636 007c 42F02002 		orr	r2, r2, #32
 637 0080 DA60     		str	r2, [r3, #12]
  84:/mnt/c/Users/31740/Desktop/newcore/drivers/tty/stm32f4_tty0.c **** 
 638              		.loc 1 84 5 is_stmt 1 view .LVU164
  84:/mnt/c/Users/31740/Desktop/newcore/drivers/tty/stm32f4_tty0.c **** 
 639              		.loc 1 84 11 is_stmt 0 view .LVU165
 640 0082 DA68     		ldr	r2, [r3, #12]
  84:/mnt/c/Users/31740/Desktop/newcore/drivers/tty/stm32f4_tty0.c **** 
 641              		.loc 1 84 17 view .LVU166
 642 0084 42F40052 		orr	r2, r2, #8192
 643 0088 DA60     		str	r2, [r3, #12]
ARM GAS  /tmp/ccD8NFOg.s 			page 17


  87:/mnt/c/Users/31740/Desktop/newcore/drivers/tty/stm32f4_tty0.c ****         NVIC_ISER0 |= (1 << irq_num);
 644              		.loc 1 87 5 is_stmt 1 view .LVU167
  87:/mnt/c/Users/31740/Desktop/newcore/drivers/tty/stm32f4_tty0.c ****         NVIC_ISER0 |= (1 << irq_num);
 645              		.loc 1 87 17 is_stmt 0 view .LVU168
 646 008a 0B68     		ldr	r3, [r1]
  87:/mnt/c/Users/31740/Desktop/newcore/drivers/tty/stm32f4_tty0.c ****         NVIC_ISER0 |= (1 << irq_num);
 647              		.loc 1 87 8 view .LVU169
 648 008c 1F2B     		cmp	r3, #31
 649 008e 12D8     		bhi	.L47
  88:/mnt/c/Users/31740/Desktop/newcore/drivers/tty/stm32f4_tty0.c ****     } else {
 650              		.loc 1 88 9 is_stmt 1 view .LVU170
 651 0090 4FF0E020 		mov	r0, #-536813568
 652 0094 D0F80021 		ldr	r2, [r0, #256]
  88:/mnt/c/Users/31740/Desktop/newcore/drivers/tty/stm32f4_tty0.c ****     } else {
 653              		.loc 1 88 26 is_stmt 0 view .LVU171
 654 0098 0121     		movs	r1, #1
 655 009a 01FA03F3 		lsl	r3, r1, r3
  88:/mnt/c/Users/31740/Desktop/newcore/drivers/tty/stm32f4_tty0.c ****     } else {
 656              		.loc 1 88 20 view .LVU172
 657 009e 1343     		orrs	r3, r3, r2
 658 00a0 C0F80031 		str	r3, [r0, #256]
 659              	.L48:
  94:/mnt/c/Users/31740/Desktop/newcore/drivers/tty/stm32f4_tty0.c **** }
 660              		.loc 1 94 5 is_stmt 1 view .LVU173
  94:/mnt/c/Users/31740/Desktop/newcore/drivers/tty/stm32f4_tty0.c **** }
 661              		.loc 1 94 18 is_stmt 0 view .LVU174
 662 00a4 0E4B     		ldr	r3, .L49
 663 00a6 1B68     		ldr	r3, [r3]
 664 00a8 03F16043 		add	r3, r3, #-536870912
 665 00ac 03F56443 		add	r3, r3, #58368
  94:/mnt/c/Users/31740/Desktop/newcore/drivers/tty/stm32f4_tty0.c **** }
 666              		.loc 1 94 28 view .LVU175
 667 00b0 3022     		movs	r2, #48
 668 00b2 1A70     		strb	r2, [r3]
  95:/mnt/c/Users/31740/Desktop/newcore/drivers/tty/stm32f4_tty0.c **** 
 669              		.loc 1 95 1 view .LVU176
 670 00b4 7047     		bx	lr
 671              	.L47:
  90:/mnt/c/Users/31740/Desktop/newcore/drivers/tty/stm32f4_tty0.c ****         NVIC_ICPR1 |= (1 << (irq_num - 32));  // Ê∏Ö pending
 672              		.loc 1 90 9 is_stmt 1 view .LVU177
 673 00b6 4FF0E022 		mov	r2, #-536813568
 674 00ba D2F80401 		ldr	r0, [r2, #260]
  90:/mnt/c/Users/31740/Desktop/newcore/drivers/tty/stm32f4_tty0.c ****         NVIC_ICPR1 |= (1 << (irq_num - 32));  // Ê∏Ö pending
 675              		.loc 1 90 38 is_stmt 0 view .LVU178
 676 00be 203B     		subs	r3, r3, #32
  90:/mnt/c/Users/31740/Desktop/newcore/drivers/tty/stm32f4_tty0.c ****         NVIC_ICPR1 |= (1 << (irq_num - 32));  // Ê∏Ö pending
 677              		.loc 1 90 26 view .LVU179
 678 00c0 0121     		movs	r1, #1
 679 00c2 01FA03F3 		lsl	r3, r1, r3
  90:/mnt/c/Users/31740/Desktop/newcore/drivers/tty/stm32f4_tty0.c ****         NVIC_ICPR1 |= (1 << (irq_num - 32));  // Ê∏Ö pending
 680              		.loc 1 90 20 view .LVU180
 681 00c6 0343     		orrs	r3, r3, r0
 682 00c8 C2F80431 		str	r3, [r2, #260]
  91:/mnt/c/Users/31740/Desktop/newcore/drivers/tty/stm32f4_tty0.c ****     }
 683              		.loc 1 91 9 is_stmt 1 view .LVU181
 684 00cc D2F88433 		ldr	r3, [r2, #900]
  91:/mnt/c/Users/31740/Desktop/newcore/drivers/tty/stm32f4_tty0.c ****     }
ARM GAS  /tmp/ccD8NFOg.s 			page 18


 685              		.loc 1 91 38 is_stmt 0 view .LVU182
 686 00d0 0348     		ldr	r0, .L49
 687 00d2 0068     		ldr	r0, [r0]
 688 00d4 2038     		subs	r0, r0, #32
  91:/mnt/c/Users/31740/Desktop/newcore/drivers/tty/stm32f4_tty0.c ****     }
 689              		.loc 1 91 26 view .LVU183
 690 00d6 8140     		lsls	r1, r1, r0
  91:/mnt/c/Users/31740/Desktop/newcore/drivers/tty/stm32f4_tty0.c ****     }
 691              		.loc 1 91 20 view .LVU184
 692 00d8 0B43     		orrs	r3, r3, r1
 693 00da C2F88433 		str	r3, [r2, #900]
 694 00de E1E7     		b	.L48
 695              	.L50:
 696              		.align	2
 697              	.L49:
 698 00e0 00000000 		.word	irq_num
 699 00e4 00300240 		.word	1073885184
 700              		.cfi_endproc
 701              	.LFE1085:
 703              		.section	.text.base_out_opt_device_init,"ax",%progbits
 704              		.align	1
 705              		.global	base_out_opt_device_init
 706              		.syntax unified
 707              		.thumb
 708              		.thumb_func
 710              	base_out_opt_device_init:
 711              	.LFB1086:
  97:/mnt/c/Users/31740/Desktop/newcore/drivers/tty/stm32f4_tty0.c ****     uart1_device_init_function_from_dtb();
 712              		.loc 1 97 36 is_stmt 1 view -0
 713              		.cfi_startproc
 714              		@ args = 0, pretend = 0, frame = 0
 715              		@ frame_needed = 0, uses_anonymous_args = 0
 716 0000 08B5     		push	{r3, lr}
 717              	.LCFI7:
 718              		.cfi_def_cfa_offset 8
 719              		.cfi_offset 3, -8
 720              		.cfi_offset 14, -4
  98:/mnt/c/Users/31740/Desktop/newcore/drivers/tty/stm32f4_tty0.c **** }
 721              		.loc 1 98 5 view .LVU186
 722 0002 FFF7FEFF 		bl	uart1_device_init_function_from_dtb
 723              	.LVL34:
  99:/mnt/c/Users/31740/Desktop/newcore/drivers/tty/stm32f4_tty0.c **** 
 724              		.loc 1 99 1 is_stmt 0 view .LVU187
 725 0006 08BD     		pop	{r3, pc}
 726              		.cfi_endproc
 727              	.LFE1086:
 729              		.section	.text.early_printk,"ax",%progbits
 730              		.align	1
 731              		.global	early_printk
 732              		.syntax unified
 733              		.thumb
 734              		.thumb_func
 736              	early_printk:
 737              	.LVL35:
 738              	.LFB1092:
 150:/mnt/c/Users/31740/Desktop/newcore/drivers/tty/stm32f4_tty0.c ****     char buf[256];
 739              		.loc 1 150 40 is_stmt 1 view -0
ARM GAS  /tmp/ccD8NFOg.s 			page 19


 740              		.cfi_startproc
 741              		@ args = 4, pretend = 16, frame = 264
 742              		@ frame_needed = 0, uses_anonymous_args = 1
 150:/mnt/c/Users/31740/Desktop/newcore/drivers/tty/stm32f4_tty0.c ****     char buf[256];
 743              		.loc 1 150 40 is_stmt 0 view .LVU189
 744 0000 0FB4     		push	{r0, r1, r2, r3}
 745              	.LCFI8:
 746              		.cfi_def_cfa_offset 16
 747              		.cfi_offset 0, -16
 748              		.cfi_offset 1, -12
 749              		.cfi_offset 2, -8
 750              		.cfi_offset 3, -4
 751 0002 10B5     		push	{r4, lr}
 752              	.LCFI9:
 753              		.cfi_def_cfa_offset 24
 754              		.cfi_offset 4, -24
 755              		.cfi_offset 14, -20
 756 0004 C2B0     		sub	sp, sp, #264
 757              	.LCFI10:
 758              		.cfi_def_cfa_offset 288
 759 0006 44AB     		add	r3, sp, #272
 760 0008 53F8042B 		ldr	r2, [r3], #4
 151:/mnt/c/Users/31740/Desktop/newcore/drivers/tty/stm32f4_tty0.c ****     va_list args;
 761              		.loc 1 151 5 is_stmt 1 view .LVU190
 152:/mnt/c/Users/31740/Desktop/newcore/drivers/tty/stm32f4_tty0.c ****     va_start(args, fmt);
 762              		.loc 1 152 5 view .LVU191
 153:/mnt/c/Users/31740/Desktop/newcore/drivers/tty/stm32f4_tty0.c ****     vsnprintf(buf, sizeof(buf), fmt, args);
 763              		.loc 1 153 5 view .LVU192
 764 000c 0193     		str	r3, [sp, #4]
 154:/mnt/c/Users/31740/Desktop/newcore/drivers/tty/stm32f4_tty0.c ****     va_end(args);
 765              		.loc 1 154 5 view .LVU193
 766 000e 4FF48071 		mov	r1, #256
 767 0012 02A8     		add	r0, sp, #8
 768 0014 FFF7FEFF 		bl	vsnprintf
 769              	.LVL36:
 155:/mnt/c/Users/31740/Desktop/newcore/drivers/tty/stm32f4_tty0.c ****     for(int i = 0; buf[i]!= '\0'; i++){
 770              		.loc 1 155 5 view .LVU194
 156:/mnt/c/Users/31740/Desktop/newcore/drivers/tty/stm32f4_tty0.c ****         USART_1_SendByte(buf[i]);
 771              		.loc 1 156 5 view .LVU195
 772              	.LBB11:
 156:/mnt/c/Users/31740/Desktop/newcore/drivers/tty/stm32f4_tty0.c ****         USART_1_SendByte(buf[i]);
 773              		.loc 1 156 9 view .LVU196
 156:/mnt/c/Users/31740/Desktop/newcore/drivers/tty/stm32f4_tty0.c ****         USART_1_SendByte(buf[i]);
 774              		.loc 1 156 13 is_stmt 0 view .LVU197
 775 0018 0024     		movs	r4, #0
 156:/mnt/c/Users/31740/Desktop/newcore/drivers/tty/stm32f4_tty0.c ****         USART_1_SendByte(buf[i]);
 776              		.loc 1 156 5 view .LVU198
 777 001a 00E0     		b	.L54
 778              	.LVL37:
 779              	.L55:
 156:/mnt/c/Users/31740/Desktop/newcore/drivers/tty/stm32f4_tty0.c ****         USART_1_SendByte(buf[i]);
 780              		.loc 1 156 36 is_stmt 1 discriminator 2 view .LVU199
 781 001c 0134     		adds	r4, r4, #1
 782              	.LVL38:
 783              	.L54:
 156:/mnt/c/Users/31740/Desktop/newcore/drivers/tty/stm32f4_tty0.c ****         USART_1_SendByte(buf[i]);
 784              		.loc 1 156 26 discriminator 1 view .LVU200
ARM GAS  /tmp/ccD8NFOg.s 			page 20


 156:/mnt/c/Users/31740/Desktop/newcore/drivers/tty/stm32f4_tty0.c ****         USART_1_SendByte(buf[i]);
 785              		.loc 1 156 23 is_stmt 0 discriminator 1 view .LVU201
 786 001e 02AB     		add	r3, sp, #8
 787 0020 185D     		ldrb	r0, [r3, r4]	@ zero_extendqisi2
 156:/mnt/c/Users/31740/Desktop/newcore/drivers/tty/stm32f4_tty0.c ****         USART_1_SendByte(buf[i]);
 788              		.loc 1 156 26 discriminator 1 view .LVU202
 789 0022 48B1     		cbz	r0, .L58
 157:/mnt/c/Users/31740/Desktop/newcore/drivers/tty/stm32f4_tty0.c ****         if(buf[i] == '\n')
 790              		.loc 1 157 9 is_stmt 1 view .LVU203
 791 0024 FFF7FEFF 		bl	USART_1_SendByte
 792              	.LVL39:
 158:/mnt/c/Users/31740/Desktop/newcore/drivers/tty/stm32f4_tty0.c ****         USART_1_SendByte('\r');
 793              		.loc 1 158 9 view .LVU204
 158:/mnt/c/Users/31740/Desktop/newcore/drivers/tty/stm32f4_tty0.c ****         USART_1_SendByte('\r');
 794              		.loc 1 158 15 is_stmt 0 view .LVU205
 795 0028 02AB     		add	r3, sp, #8
 796 002a 1B5D     		ldrb	r3, [r3, r4]	@ zero_extendqisi2
 158:/mnt/c/Users/31740/Desktop/newcore/drivers/tty/stm32f4_tty0.c ****         USART_1_SendByte('\r');
 797              		.loc 1 158 11 view .LVU206
 798 002c 0A2B     		cmp	r3, #10
 799 002e F5D1     		bne	.L55
 159:/mnt/c/Users/31740/Desktop/newcore/drivers/tty/stm32f4_tty0.c ****     }
 800              		.loc 1 159 9 is_stmt 1 view .LVU207
 801 0030 0D20     		movs	r0, #13
 802 0032 FFF7FEFF 		bl	USART_1_SendByte
 803              	.LVL40:
 804 0036 F1E7     		b	.L55
 805              	.L58:
 806              	.LBE11:
 161:/mnt/c/Users/31740/Desktop/newcore/drivers/tty/stm32f4_tty0.c **** 
 807              		.loc 1 161 1 is_stmt 0 view .LVU208
 808 0038 42B0     		add	sp, sp, #264
 809              	.LCFI11:
 810              		.cfi_def_cfa_offset 24
 811              		@ sp needed
 812 003a BDE81040 		pop	{r4, lr}
 813              	.LCFI12:
 814              		.cfi_restore 14
 815              		.cfi_restore 4
 816              		.cfi_def_cfa_offset 16
 817              	.LVL41:
 161:/mnt/c/Users/31740/Desktop/newcore/drivers/tty/stm32f4_tty0.c **** 
 818              		.loc 1 161 1 view .LVU209
 819 003e 04B0     		add	sp, sp, #16
 820              	.LCFI13:
 821              		.cfi_restore 3
 822              		.cfi_restore 2
 823              		.cfi_restore 1
 824              		.cfi_restore 0
 825              		.cfi_def_cfa_offset 0
 826 0040 7047     		bx	lr
 827              		.cfi_endproc
 828              	.LFE1092:
 830              		.section	.rodata.str1.4,"aMS",%progbits,1
 831              		.align	2
 832              	.LC0:
 833 0000 75736172 		.ascii	"usart1\000"
ARM GAS  /tmp/ccD8NFOg.s 			page 21


 833      743100
 834 0007 00       		.align	2
 835              	.LC1:
 836 0008 74747953 		.ascii	"ttyS0\000"
 836      3000
 837 000e 0000     		.align	2
 838              	.LC2:
 839 0010 72656769 		.ascii	"register ttyS0 (%d)\012\000"
 839      73746572 
 839      20747479 
 839      53302028 
 839      2564290A 
 840 0025 000000   		.align	2
 841              	.LC3:
 842 0028 63616E20 		.ascii	"can not create tty class\012\000"
 842      6E6F7420 
 842      63726561 
 842      74652074 
 842      74792063 
 843 0042 0000     		.align	2
 844              	.LC4:
 845 0044 74747953 		.ascii	"ttyS%d\000"
 845      256400
 846 004b 00       		.align	2
 847              	.LC5:
 848 004c 63616E20 		.ascii	"can not create tty device\012\000"
 848      6E6F7420 
 848      63726561 
 848      74652074 
 848      74792064 
 849              		.section	.init.text,"ax",%progbits
 850              		.align	1
 851              		.global	main_tty_dev_init
 852              		.syntax unified
 853              		.thumb
 854              		.thumb_func
 856              	main_tty_dev_init:
 857              	.LFB1097:
 192:/mnt/c/Users/31740/Desktop/newcore/drivers/tty/stm32f4_tty0.c **** 
 193:/mnt/c/Users/31740/Desktop/newcore/drivers/tty/stm32f4_tty0.c **** static struct file_operations tty_fop = {
 194:/mnt/c/Users/31740/Desktop/newcore/drivers/tty/stm32f4_tty0.c ****     .open = tty_open,
 195:/mnt/c/Users/31740/Desktop/newcore/drivers/tty/stm32f4_tty0.c ****     .write = tty_write,
 196:/mnt/c/Users/31740/Desktop/newcore/drivers/tty/stm32f4_tty0.c ****     .release = tty_close,
 197:/mnt/c/Users/31740/Desktop/newcore/drivers/tty/stm32f4_tty0.c ****     .read   = tty_read
 198:/mnt/c/Users/31740/Desktop/newcore/drivers/tty/stm32f4_tty0.c **** };
 199:/mnt/c/Users/31740/Desktop/newcore/drivers/tty/stm32f4_tty0.c **** 
 200:/mnt/c/Users/31740/Desktop/newcore/drivers/tty/stm32f4_tty0.c **** 
 201:/mnt/c/Users/31740/Desktop/newcore/drivers/tty/stm32f4_tty0.c **** int __init main_tty_dev_init(void)
 202:/mnt/c/Users/31740/Desktop/newcore/drivers/tty/stm32f4_tty0.c **** {
 858              		.loc 1 202 1 is_stmt 1 view -0
 859              		.cfi_startproc
 860              		@ args = 0, pretend = 0, frame = 0
 861              		@ frame_needed = 0, uses_anonymous_args = 0
 862 0000 70B5     		push	{r4, r5, r6, lr}
 863              	.LCFI14:
 864              		.cfi_def_cfa_offset 16
 865              		.cfi_offset 4, -16
ARM GAS  /tmp/ccD8NFOg.s 			page 22


 866              		.cfi_offset 5, -12
 867              		.cfi_offset 6, -8
 868              		.cfi_offset 14, -4
 869 0002 82B0     		sub	sp, sp, #8
 870              	.LCFI15:
 871              		.cfi_def_cfa_offset 24
 203:/mnt/c/Users/31740/Desktop/newcore/drivers/tty/stm32f4_tty0.c ****     request_irq(irq_num,USART1_IRQHandler,NULL,"usart1",NULL);
 872              		.loc 1 203 5 view .LVU211
 873 0004 0024     		movs	r4, #0
 874 0006 0094     		str	r4, [sp]
 875 0008 1C4B     		ldr	r3, .L65
 876 000a 2246     		mov	r2, r4
 877 000c 1C49     		ldr	r1, .L65+4
 878 000e 1D48     		ldr	r0, .L65+8
 879 0010 0068     		ldr	r0, [r0]
 880 0012 FFF7FEFF 		bl	request_irq
 881              	.LVL42:
 204:/mnt/c/Users/31740/Desktop/newcore/drivers/tty/stm32f4_tty0.c ****     major = register_chrdev(major,"ttyS0",&tty_fop);
 882              		.loc 1 204 5 view .LVU212
 883              		.loc 1 204 13 is_stmt 0 view .LVU213
 884 0016 1C4E     		ldr	r6, .L65+12
 885              	.LVL43:
 886              	.LBB12:
 887              	.LBI12:
 888              		.file 3 "/mnt/c/Users/31740/Desktop/newcore/include/linux/fs.h"
   1:/mnt/c/Users/31740/Desktop/newcore/include/linux/fs.h **** /* SPDX-License-Identifier: GPL-2.0 */
   2:/mnt/c/Users/31740/Desktop/newcore/include/linux/fs.h **** #ifndef _LINUX_FS_H
   3:/mnt/c/Users/31740/Desktop/newcore/include/linux/fs.h **** #define _LINUX_FS_H
   4:/mnt/c/Users/31740/Desktop/newcore/include/linux/fs.h **** 
   5:/mnt/c/Users/31740/Desktop/newcore/include/linux/fs.h **** #include <linux/types.h>
   6:/mnt/c/Users/31740/Desktop/newcore/include/linux/fs.h **** #include <linux/errseq.h> 
   7:/mnt/c/Users/31740/Desktop/newcore/include/linux/fs.h **** #include <linux/spinlock.h> 
   8:/mnt/c/Users/31740/Desktop/newcore/include/linux/fs.h **** #include <linux/list.h>
   9:/mnt/c/Users/31740/Desktop/newcore/include/linux/fs.h **** #include <linux/rbtree_types.h>  
  10:/mnt/c/Users/31740/Desktop/newcore/include/linux/fs.h **** #include <linux/uuid.h>  
  11:/mnt/c/Users/31740/Desktop/newcore/include/linux/fs.h **** #include <linux/uidgid_types.h>   
  12:/mnt/c/Users/31740/Desktop/newcore/include/linux/fs.h **** #include <linux/projid.h>       
  13:/mnt/c/Users/31740/Desktop/newcore/include/linux/fs.h **** #include <linux/time64.h> 
  14:/mnt/c/Users/31740/Desktop/newcore/include/linux/fs.h **** #include <linux/mnt_idmapping.h>  
  15:/mnt/c/Users/31740/Desktop/newcore/include/linux/fs.h **** #include <linux/mutex.h>         
  16:/mnt/c/Users/31740/Desktop/newcore/include/linux/fs.h **** #include <linux/uio.h>              
  17:/mnt/c/Users/31740/Desktop/newcore/include/linux/fs.h **** #include <linux/migrate_mode.h>  
  18:/mnt/c/Users/31740/Desktop/newcore/include/linux/fs.h **** #include <linux/raid/pq.h> 
  19:/mnt/c/Users/31740/Desktop/newcore/include/linux/fs.h **** #include <linux/lockdep_types.h>
  20:/mnt/c/Users/31740/Desktop/newcore/include/linux/fs.h **** #include <linux/wait.h>				
  21:/mnt/c/Users/31740/Desktop/newcore/include/linux/fs.h **** #include <linux/pipe_fs_i.h>
  22:/mnt/c/Users/31740/Desktop/newcore/include/linux/fs.h **** #include <linux/fcntl.h>
  23:/mnt/c/Users/31740/Desktop/newcore/include/linux/fs.h **** #include <linux/xarray.h>
  24:/mnt/c/Users/31740/Desktop/newcore/include/linux/fs.h **** #include <linux/blkdev.h>
  25:/mnt/c/Users/31740/Desktop/newcore/include/linux/fs.h **** #include <linux/dcache.h>
  26:/mnt/c/Users/31740/Desktop/newcore/include/linux/fs.h **** #include <linux/mm_type.h>
  27:/mnt/c/Users/31740/Desktop/newcore/include/linux/fs.h **** #include <linux/statfs.h>
  28:/mnt/c/Users/31740/Desktop/newcore/include/linux/fs.h **** #include <linux/stat.h>
  29:/mnt/c/Users/31740/Desktop/newcore/include/linux/fs.h **** #include <linux/path.h>
  30:/mnt/c/Users/31740/Desktop/newcore/include/linux/fs.h **** #include <linux/fs_types.h>
  31:/mnt/c/Users/31740/Desktop/newcore/include/linux/fs.h **** 
  32:/mnt/c/Users/31740/Desktop/newcore/include/linux/fs.h **** struct dentry;
ARM GAS  /tmp/ccD8NFOg.s 			page 23


  33:/mnt/c/Users/31740/Desktop/newcore/include/linux/fs.h **** struct file;
  34:/mnt/c/Users/31740/Desktop/newcore/include/linux/fs.h **** struct inode;
  35:/mnt/c/Users/31740/Desktop/newcore/include/linux/fs.h **** struct kiocb;
  36:/mnt/c/Users/31740/Desktop/newcore/include/linux/fs.h **** struct file_operations;
  37:/mnt/c/Users/31740/Desktop/newcore/include/linux/fs.h **** struct inode_operations  ;
  38:/mnt/c/Users/31740/Desktop/newcore/include/linux/fs.h **** struct dentry_operations ;
  39:/mnt/c/Users/31740/Desktop/newcore/include/linux/fs.h **** struct writeback_control ;
  40:/mnt/c/Users/31740/Desktop/newcore/include/linux/fs.h **** struct address_space;
  41:/mnt/c/Users/31740/Desktop/newcore/include/linux/fs.h **** struct seq_file ;
  42:/mnt/c/Users/31740/Desktop/newcore/include/linux/fs.h **** struct shrink_control;
  43:/mnt/c/Users/31740/Desktop/newcore/include/linux/fs.h **** struct file_system_type;
  44:/mnt/c/Users/31740/Desktop/newcore/include/linux/fs.h **** struct buffer_head;
  45:/mnt/c/Users/31740/Desktop/newcore/include/linux/fs.h **** struct readahead_control;
  46:/mnt/c/Users/31740/Desktop/newcore/include/linux/fs.h **** 
  47:/mnt/c/Users/31740/Desktop/newcore/include/linux/fs.h **** #define MAY_EXEC		0x00000001
  48:/mnt/c/Users/31740/Desktop/newcore/include/linux/fs.h **** #define MAY_WRITE		0x00000002
  49:/mnt/c/Users/31740/Desktop/newcore/include/linux/fs.h **** #define MAY_READ		0x00000004
  50:/mnt/c/Users/31740/Desktop/newcore/include/linux/fs.h **** #define MAY_APPEND		0x00000008
  51:/mnt/c/Users/31740/Desktop/newcore/include/linux/fs.h **** #define MAY_ACCESS		0x00000010
  52:/mnt/c/Users/31740/Desktop/newcore/include/linux/fs.h **** #define MAY_OPEN		0x00000020
  53:/mnt/c/Users/31740/Desktop/newcore/include/linux/fs.h **** #define MAY_CHDIR		0x00000040
  54:/mnt/c/Users/31740/Desktop/newcore/include/linux/fs.h **** /* called from RCU mode, don't block */
  55:/mnt/c/Users/31740/Desktop/newcore/include/linux/fs.h **** #define MAY_NOT_BLOCK		0x00000080
  56:/mnt/c/Users/31740/Desktop/newcore/include/linux/fs.h **** 
  57:/mnt/c/Users/31740/Desktop/newcore/include/linux/fs.h **** /*
  58:/mnt/c/Users/31740/Desktop/newcore/include/linux/fs.h ****  * flags in file.f_mode.  Note that FMODE_READ and FMODE_WRITE must correspond
  59:/mnt/c/Users/31740/Desktop/newcore/include/linux/fs.h ****  * to O_WRONLY and O_RDWR via the strange trick in do_dentry_open()
  60:/mnt/c/Users/31740/Desktop/newcore/include/linux/fs.h ****  */
  61:/mnt/c/Users/31740/Desktop/newcore/include/linux/fs.h **** 
  62:/mnt/c/Users/31740/Desktop/newcore/include/linux/fs.h **** /* file is open for reading */
  63:/mnt/c/Users/31740/Desktop/newcore/include/linux/fs.h **** #define FMODE_READ		((__force fmode_t)(1 << 0))
  64:/mnt/c/Users/31740/Desktop/newcore/include/linux/fs.h **** /* file is open for writing */
  65:/mnt/c/Users/31740/Desktop/newcore/include/linux/fs.h **** #define FMODE_WRITE		((__force fmode_t)(1 << 1))
  66:/mnt/c/Users/31740/Desktop/newcore/include/linux/fs.h **** /* file is seekable */
  67:/mnt/c/Users/31740/Desktop/newcore/include/linux/fs.h **** #define FMODE_LSEEK		((__force fmode_t)(1 << 2))
  68:/mnt/c/Users/31740/Desktop/newcore/include/linux/fs.h **** /* file can be accessed using pread */
  69:/mnt/c/Users/31740/Desktop/newcore/include/linux/fs.h **** #define FMODE_PREAD		((__force fmode_t)(1 << 3))
  70:/mnt/c/Users/31740/Desktop/newcore/include/linux/fs.h **** /* file can be accessed using pwrite */
  71:/mnt/c/Users/31740/Desktop/newcore/include/linux/fs.h **** #define FMODE_PWRITE		((__force fmode_t)(1 << 4))
  72:/mnt/c/Users/31740/Desktop/newcore/include/linux/fs.h **** /* File is opened for execution with sys_execve / sys_uselib */
  73:/mnt/c/Users/31740/Desktop/newcore/include/linux/fs.h **** #define FMODE_EXEC		((__force fmode_t)(1 << 5))
  74:/mnt/c/Users/31740/Desktop/newcore/include/linux/fs.h **** /* File writes are restricted (block device specific) */
  75:/mnt/c/Users/31740/Desktop/newcore/include/linux/fs.h **** #define FMODE_WRITE_RESTRICTED	((__force fmode_t)(1 << 6))
  76:/mnt/c/Users/31740/Desktop/newcore/include/linux/fs.h **** /* File supports atomic writes */
  77:/mnt/c/Users/31740/Desktop/newcore/include/linux/fs.h **** #define FMODE_CAN_ATOMIC_WRITE	((__force fmode_t)(1 << 7))
  78:/mnt/c/Users/31740/Desktop/newcore/include/linux/fs.h **** 
  79:/mnt/c/Users/31740/Desktop/newcore/include/linux/fs.h **** /* FMODE_* bit 8 */
  80:/mnt/c/Users/31740/Desktop/newcore/include/linux/fs.h **** 
  81:/mnt/c/Users/31740/Desktop/newcore/include/linux/fs.h **** /* 32bit hashes as llseek() offset (for directories) */
  82:/mnt/c/Users/31740/Desktop/newcore/include/linux/fs.h **** #define FMODE_32BITHASH         ((__force fmode_t)(1 << 9))
  83:/mnt/c/Users/31740/Desktop/newcore/include/linux/fs.h **** /* 64bit hashes as llseek() offset (for directories) */
  84:/mnt/c/Users/31740/Desktop/newcore/include/linux/fs.h **** #define FMODE_64BITHASH         ((__force fmode_t)(1 << 10))
  85:/mnt/c/Users/31740/Desktop/newcore/include/linux/fs.h **** 
  86:/mnt/c/Users/31740/Desktop/newcore/include/linux/fs.h **** /*
  87:/mnt/c/Users/31740/Desktop/newcore/include/linux/fs.h ****  * Don't update ctime and mtime.
  88:/mnt/c/Users/31740/Desktop/newcore/include/linux/fs.h ****  *
  89:/mnt/c/Users/31740/Desktop/newcore/include/linux/fs.h ****  * Currently a special hack for the XFS open_by_handle ioctl, but we'll
ARM GAS  /tmp/ccD8NFOg.s 			page 24


  90:/mnt/c/Users/31740/Desktop/newcore/include/linux/fs.h ****  * hopefully graduate it to a proper O_CMTIME flag supported by open(2) soon.
  91:/mnt/c/Users/31740/Desktop/newcore/include/linux/fs.h ****  */
  92:/mnt/c/Users/31740/Desktop/newcore/include/linux/fs.h **** #define FMODE_NOCMTIME		((__force fmode_t)(1 << 11))
  93:/mnt/c/Users/31740/Desktop/newcore/include/linux/fs.h **** 
  94:/mnt/c/Users/31740/Desktop/newcore/include/linux/fs.h **** /* Expect random access pattern */
  95:/mnt/c/Users/31740/Desktop/newcore/include/linux/fs.h **** #define FMODE_RANDOM		((__force fmode_t)(1 << 12))
  96:/mnt/c/Users/31740/Desktop/newcore/include/linux/fs.h **** 
  97:/mnt/c/Users/31740/Desktop/newcore/include/linux/fs.h **** /* FMODE_* bit 13 */
  98:/mnt/c/Users/31740/Desktop/newcore/include/linux/fs.h **** 
  99:/mnt/c/Users/31740/Desktop/newcore/include/linux/fs.h **** /* File is opened with O_PATH; almost nothing can be done with it */
 100:/mnt/c/Users/31740/Desktop/newcore/include/linux/fs.h **** #define FMODE_PATH		((__force fmode_t)(1 << 14))
 101:/mnt/c/Users/31740/Desktop/newcore/include/linux/fs.h **** 
 102:/mnt/c/Users/31740/Desktop/newcore/include/linux/fs.h **** /* File needs atomic accesses to f_pos */
 103:/mnt/c/Users/31740/Desktop/newcore/include/linux/fs.h **** #define FMODE_ATOMIC_POS	((__force fmode_t)(1 << 15))
 104:/mnt/c/Users/31740/Desktop/newcore/include/linux/fs.h **** /* Write access to underlying fs */
 105:/mnt/c/Users/31740/Desktop/newcore/include/linux/fs.h **** #define FMODE_WRITER		((__force fmode_t)(1 << 16))
 106:/mnt/c/Users/31740/Desktop/newcore/include/linux/fs.h **** /* Has read method(s) */
 107:/mnt/c/Users/31740/Desktop/newcore/include/linux/fs.h **** #define FMODE_CAN_READ          ((__force fmode_t)(1 << 17))
 108:/mnt/c/Users/31740/Desktop/newcore/include/linux/fs.h **** /* Has write method(s) */
 109:/mnt/c/Users/31740/Desktop/newcore/include/linux/fs.h **** #define FMODE_CAN_WRITE         ((__force fmode_t)(1 << 18))
 110:/mnt/c/Users/31740/Desktop/newcore/include/linux/fs.h **** 
 111:/mnt/c/Users/31740/Desktop/newcore/include/linux/fs.h **** #define FMODE_OPENED		((__force fmode_t)(1 << 19))
 112:/mnt/c/Users/31740/Desktop/newcore/include/linux/fs.h **** #define FMODE_CREATED		((__force fmode_t)(1 << 20))
 113:/mnt/c/Users/31740/Desktop/newcore/include/linux/fs.h **** 
 114:/mnt/c/Users/31740/Desktop/newcore/include/linux/fs.h **** /* File is stream-like */
 115:/mnt/c/Users/31740/Desktop/newcore/include/linux/fs.h **** #define FMODE_STREAM		((__force fmode_t)(1 << 21))
 116:/mnt/c/Users/31740/Desktop/newcore/include/linux/fs.h **** 
 117:/mnt/c/Users/31740/Desktop/newcore/include/linux/fs.h **** /* File supports DIRECT IO */
 118:/mnt/c/Users/31740/Desktop/newcore/include/linux/fs.h **** #define	FMODE_CAN_ODIRECT	((__force fmode_t)(1 << 22))
 119:/mnt/c/Users/31740/Desktop/newcore/include/linux/fs.h **** 
 120:/mnt/c/Users/31740/Desktop/newcore/include/linux/fs.h **** #define	FMODE_NOREUSE		((__force fmode_t)(1 << 23))
 121:/mnt/c/Users/31740/Desktop/newcore/include/linux/fs.h **** 
 122:/mnt/c/Users/31740/Desktop/newcore/include/linux/fs.h **** /* FMODE_* bit 24 */
 123:/mnt/c/Users/31740/Desktop/newcore/include/linux/fs.h **** 
 124:/mnt/c/Users/31740/Desktop/newcore/include/linux/fs.h **** /* File is embedded in backing_file object */
 125:/mnt/c/Users/31740/Desktop/newcore/include/linux/fs.h **** #define FMODE_BACKING		((__force fmode_t)(1 << 25))
 126:/mnt/c/Users/31740/Desktop/newcore/include/linux/fs.h **** 
 127:/mnt/c/Users/31740/Desktop/newcore/include/linux/fs.h **** /* File was opened by fanotify and shouldn't generate fanotify events */
 128:/mnt/c/Users/31740/Desktop/newcore/include/linux/fs.h **** #define FMODE_NONOTIFY		((__force fmode_t)(1 << 26))
 129:/mnt/c/Users/31740/Desktop/newcore/include/linux/fs.h **** 
 130:/mnt/c/Users/31740/Desktop/newcore/include/linux/fs.h **** /* File is capable of returning -EAGAIN if I/O will block */
 131:/mnt/c/Users/31740/Desktop/newcore/include/linux/fs.h **** #define FMODE_NOWAIT		((__force fmode_t)(1 << 27))
 132:/mnt/c/Users/31740/Desktop/newcore/include/linux/fs.h **** 
 133:/mnt/c/Users/31740/Desktop/newcore/include/linux/fs.h **** /* File represents mount that needs unmounting */
 134:/mnt/c/Users/31740/Desktop/newcore/include/linux/fs.h **** #define FMODE_NEED_UNMOUNT	((__force fmode_t)(1 << 28))
 135:/mnt/c/Users/31740/Desktop/newcore/include/linux/fs.h **** 
 136:/mnt/c/Users/31740/Desktop/newcore/include/linux/fs.h **** /* File does not contribute to nr_files count */
 137:/mnt/c/Users/31740/Desktop/newcore/include/linux/fs.h **** #define FMODE_NOACCOUNT		((__force fmode_t)(1 << 29))
 138:/mnt/c/Users/31740/Desktop/newcore/include/linux/fs.h **** 
 139:/mnt/c/Users/31740/Desktop/newcore/include/linux/fs.h **** /*
 140:/mnt/c/Users/31740/Desktop/newcore/include/linux/fs.h ****  * Attribute flags.  These should be or-ed together to figure out what
 141:/mnt/c/Users/31740/Desktop/newcore/include/linux/fs.h ****  * has been changed!
 142:/mnt/c/Users/31740/Desktop/newcore/include/linux/fs.h ****  */
 143:/mnt/c/Users/31740/Desktop/newcore/include/linux/fs.h **** #define ATTR_MODE	(1 << 0)
 144:/mnt/c/Users/31740/Desktop/newcore/include/linux/fs.h **** #define ATTR_UID	(1 << 1)
 145:/mnt/c/Users/31740/Desktop/newcore/include/linux/fs.h **** #define ATTR_GID	(1 << 2)
 146:/mnt/c/Users/31740/Desktop/newcore/include/linux/fs.h **** #define ATTR_SIZE	(1 << 3)
ARM GAS  /tmp/ccD8NFOg.s 			page 25


 147:/mnt/c/Users/31740/Desktop/newcore/include/linux/fs.h **** #define ATTR_ATIME	(1 << 4)
 148:/mnt/c/Users/31740/Desktop/newcore/include/linux/fs.h **** #define ATTR_MTIME	(1 << 5)
 149:/mnt/c/Users/31740/Desktop/newcore/include/linux/fs.h **** #define ATTR_CTIME	(1 << 6)
 150:/mnt/c/Users/31740/Desktop/newcore/include/linux/fs.h **** #define ATTR_ATIME_SET	(1 << 7)
 151:/mnt/c/Users/31740/Desktop/newcore/include/linux/fs.h **** #define ATTR_MTIME_SET	(1 << 8)
 152:/mnt/c/Users/31740/Desktop/newcore/include/linux/fs.h **** #define ATTR_FORCE	(1 << 9) /* Not a change, but a change it */
 153:/mnt/c/Users/31740/Desktop/newcore/include/linux/fs.h **** #define ATTR_KILL_SUID	(1 << 11)
 154:/mnt/c/Users/31740/Desktop/newcore/include/linux/fs.h **** #define ATTR_KILL_SGID	(1 << 12)
 155:/mnt/c/Users/31740/Desktop/newcore/include/linux/fs.h **** #define ATTR_FILE	(1 << 13)
 156:/mnt/c/Users/31740/Desktop/newcore/include/linux/fs.h **** #define ATTR_KILL_PRIV	(1 << 14)
 157:/mnt/c/Users/31740/Desktop/newcore/include/linux/fs.h **** #define ATTR_OPEN	(1 << 15) /* Truncating from open(O_TRUNC) */
 158:/mnt/c/Users/31740/Desktop/newcore/include/linux/fs.h **** #define ATTR_TIMES_SET	(1 << 16)
 159:/mnt/c/Users/31740/Desktop/newcore/include/linux/fs.h **** #define ATTR_TOUCH	(1 << 17)
 160:/mnt/c/Users/31740/Desktop/newcore/include/linux/fs.h **** #define ATTR_DELEG	(1 << 18) /* Delegated attrs. Don't break write delegations */
 161:/mnt/c/Users/31740/Desktop/newcore/include/linux/fs.h **** 
 162:/mnt/c/Users/31740/Desktop/newcore/include/linux/fs.h **** /*
 163:/mnt/c/Users/31740/Desktop/newcore/include/linux/fs.h ****  * Whiteout is represented by a char device.  The following constants define the
 164:/mnt/c/Users/31740/Desktop/newcore/include/linux/fs.h ****  * mode and device number to use.
 165:/mnt/c/Users/31740/Desktop/newcore/include/linux/fs.h ****  */
 166:/mnt/c/Users/31740/Desktop/newcore/include/linux/fs.h **** #define WHITEOUT_MODE 0
 167:/mnt/c/Users/31740/Desktop/newcore/include/linux/fs.h **** #define WHITEOUT_DEV 0
 168:/mnt/c/Users/31740/Desktop/newcore/include/linux/fs.h **** 
 169:/mnt/c/Users/31740/Desktop/newcore/include/linux/fs.h **** 
 170:/mnt/c/Users/31740/Desktop/newcore/include/linux/fs.h **** 
 171:/mnt/c/Users/31740/Desktop/newcore/include/linux/fs.h **** /********************************************************
 172:/mnt/c/Users/31740/Desktop/newcore/include/linux/fs.h ****  * 														*
 173:/mnt/c/Users/31740/Desktop/newcore/include/linux/fs.h ****  * 			   		     iattr  						*
 174:/mnt/c/Users/31740/Desktop/newcore/include/linux/fs.h ****  *														* 
 175:/mnt/c/Users/31740/Desktop/newcore/include/linux/fs.h **** *********************************************************/
 176:/mnt/c/Users/31740/Desktop/newcore/include/linux/fs.h **** 
 177:/mnt/c/Users/31740/Desktop/newcore/include/linux/fs.h **** 
 178:/mnt/c/Users/31740/Desktop/newcore/include/linux/fs.h **** struct iattr {
 179:/mnt/c/Users/31740/Desktop/newcore/include/linux/fs.h **** 	unsigned int	ia_valid;
 180:/mnt/c/Users/31740/Desktop/newcore/include/linux/fs.h **** 	umode_t		ia_mode;
 181:/mnt/c/Users/31740/Desktop/newcore/include/linux/fs.h **** 	union {
 182:/mnt/c/Users/31740/Desktop/newcore/include/linux/fs.h **** 		kuid_t		ia_uid;
 183:/mnt/c/Users/31740/Desktop/newcore/include/linux/fs.h **** 		vfsuid_t	ia_vfsuid;
 184:/mnt/c/Users/31740/Desktop/newcore/include/linux/fs.h **** 	};
 185:/mnt/c/Users/31740/Desktop/newcore/include/linux/fs.h **** 	union {
 186:/mnt/c/Users/31740/Desktop/newcore/include/linux/fs.h **** 		kgid_t		ia_gid;
 187:/mnt/c/Users/31740/Desktop/newcore/include/linux/fs.h **** 		vfsgid_t	ia_vfsgid;
 188:/mnt/c/Users/31740/Desktop/newcore/include/linux/fs.h **** 	};
 189:/mnt/c/Users/31740/Desktop/newcore/include/linux/fs.h **** 	loff_t		ia_size;
 190:/mnt/c/Users/31740/Desktop/newcore/include/linux/fs.h **** 	struct timespec64 ia_atime;
 191:/mnt/c/Users/31740/Desktop/newcore/include/linux/fs.h **** 	struct timespec64 ia_mtime;
 192:/mnt/c/Users/31740/Desktop/newcore/include/linux/fs.h **** 	struct timespec64 ia_ctime;
 193:/mnt/c/Users/31740/Desktop/newcore/include/linux/fs.h **** 	struct file	*ia_file;
 194:/mnt/c/Users/31740/Desktop/newcore/include/linux/fs.h **** };
 195:/mnt/c/Users/31740/Desktop/newcore/include/linux/fs.h **** 
 196:/mnt/c/Users/31740/Desktop/newcore/include/linux/fs.h **** /********************************************************
 197:/mnt/c/Users/31740/Desktop/newcore/include/linux/fs.h ****  * 														*
 198:/mnt/c/Users/31740/Desktop/newcore/include/linux/fs.h ****  * 			     address_space  						*
 199:/mnt/c/Users/31740/Desktop/newcore/include/linux/fs.h ****  *														* 
 200:/mnt/c/Users/31740/Desktop/newcore/include/linux/fs.h **** *********************************************************/
 201:/mnt/c/Users/31740/Desktop/newcore/include/linux/fs.h **** struct file_ra_state {
 202:/mnt/c/Users/31740/Desktop/newcore/include/linux/fs.h **** 	pgoff_t start;
 203:/mnt/c/Users/31740/Desktop/newcore/include/linux/fs.h **** 	unsigned int size;
ARM GAS  /tmp/ccD8NFOg.s 			page 26


 204:/mnt/c/Users/31740/Desktop/newcore/include/linux/fs.h **** 	unsigned int async_size;
 205:/mnt/c/Users/31740/Desktop/newcore/include/linux/fs.h **** 	unsigned int ra_pages;
 206:/mnt/c/Users/31740/Desktop/newcore/include/linux/fs.h **** 	unsigned int mmap_miss;
 207:/mnt/c/Users/31740/Desktop/newcore/include/linux/fs.h **** 	loff_t prev_pos;
 208:/mnt/c/Users/31740/Desktop/newcore/include/linux/fs.h **** };
 209:/mnt/c/Users/31740/Desktop/newcore/include/linux/fs.h **** 
 210:/mnt/c/Users/31740/Desktop/newcore/include/linux/fs.h **** struct iov_iter {
 211:/mnt/c/Users/31740/Desktop/newcore/include/linux/fs.h **** 	u8 iter_type;
 212:/mnt/c/Users/31740/Desktop/newcore/include/linux/fs.h **** 	bool nofault;
 213:/mnt/c/Users/31740/Desktop/newcore/include/linux/fs.h **** 	bool data_source;
 214:/mnt/c/Users/31740/Desktop/newcore/include/linux/fs.h **** 	size_t iov_offset;
 215:/mnt/c/Users/31740/Desktop/newcore/include/linux/fs.h **** 	/*
 216:/mnt/c/Users/31740/Desktop/newcore/include/linux/fs.h **** 	 * Hack alert: overlay ubuf_iovec with iovec + count, so
 217:/mnt/c/Users/31740/Desktop/newcore/include/linux/fs.h **** 	 * that the members resolve correctly regardless of the type
 218:/mnt/c/Users/31740/Desktop/newcore/include/linux/fs.h **** 	 * of iterator used. This means that you can use:
 219:/mnt/c/Users/31740/Desktop/newcore/include/linux/fs.h **** 	 *
 220:/mnt/c/Users/31740/Desktop/newcore/include/linux/fs.h **** 	 * &iter->__ubuf_iovec or iter->__iov
 221:/mnt/c/Users/31740/Desktop/newcore/include/linux/fs.h **** 	 *
 222:/mnt/c/Users/31740/Desktop/newcore/include/linux/fs.h **** 	 * interchangably for the user_backed cases, hence simplifying
 223:/mnt/c/Users/31740/Desktop/newcore/include/linux/fs.h **** 	 * some of the cases that need to deal with both.
 224:/mnt/c/Users/31740/Desktop/newcore/include/linux/fs.h **** 	 */
 225:/mnt/c/Users/31740/Desktop/newcore/include/linux/fs.h **** 	union {
 226:/mnt/c/Users/31740/Desktop/newcore/include/linux/fs.h **** 		/*
 227:/mnt/c/Users/31740/Desktop/newcore/include/linux/fs.h **** 		 * This really should be a const, but we cannot do that without
 228:/mnt/c/Users/31740/Desktop/newcore/include/linux/fs.h **** 		 * also modifying any of the zero-filling iter init functions.
 229:/mnt/c/Users/31740/Desktop/newcore/include/linux/fs.h **** 		 * Leave it non-const for now, but it should be treated as such.
 230:/mnt/c/Users/31740/Desktop/newcore/include/linux/fs.h **** 		 */
 231:/mnt/c/Users/31740/Desktop/newcore/include/linux/fs.h **** 		struct iovec __ubuf_iovec;
 232:/mnt/c/Users/31740/Desktop/newcore/include/linux/fs.h **** 		struct {
 233:/mnt/c/Users/31740/Desktop/newcore/include/linux/fs.h **** 			union {
 234:/mnt/c/Users/31740/Desktop/newcore/include/linux/fs.h **** 				/* use iter_iov() to get the current vec */
 235:/mnt/c/Users/31740/Desktop/newcore/include/linux/fs.h **** 				const struct iovec *__iov;
 236:/mnt/c/Users/31740/Desktop/newcore/include/linux/fs.h **** 				const struct kvec *kvec;
 237:/mnt/c/Users/31740/Desktop/newcore/include/linux/fs.h **** 				const struct bio_vec *bvec;
 238:/mnt/c/Users/31740/Desktop/newcore/include/linux/fs.h **** 				const struct folio_queue *folioq;
 239:/mnt/c/Users/31740/Desktop/newcore/include/linux/fs.h **** 				struct xarray *xarray;
 240:/mnt/c/Users/31740/Desktop/newcore/include/linux/fs.h **** 				void __user *ubuf;
 241:/mnt/c/Users/31740/Desktop/newcore/include/linux/fs.h **** 			};
 242:/mnt/c/Users/31740/Desktop/newcore/include/linux/fs.h **** 			size_t count;
 243:/mnt/c/Users/31740/Desktop/newcore/include/linux/fs.h **** 		};
 244:/mnt/c/Users/31740/Desktop/newcore/include/linux/fs.h **** 	};
 245:/mnt/c/Users/31740/Desktop/newcore/include/linux/fs.h **** 	union {
 246:/mnt/c/Users/31740/Desktop/newcore/include/linux/fs.h **** 		unsigned long nr_segs;
 247:/mnt/c/Users/31740/Desktop/newcore/include/linux/fs.h **** 		u8 folioq_slot;
 248:/mnt/c/Users/31740/Desktop/newcore/include/linux/fs.h **** 		loff_t xarray_start;
 249:/mnt/c/Users/31740/Desktop/newcore/include/linux/fs.h **** 	};
 250:/mnt/c/Users/31740/Desktop/newcore/include/linux/fs.h **** };
 251:/mnt/c/Users/31740/Desktop/newcore/include/linux/fs.h **** 
 252:/mnt/c/Users/31740/Desktop/newcore/include/linux/fs.h **** struct address_space_operations {
 253:/mnt/c/Users/31740/Desktop/newcore/include/linux/fs.h **** 	int (*writepage)(struct page *page, struct writeback_control *wbc);
 254:/mnt/c/Users/31740/Desktop/newcore/include/linux/fs.h **** 	int (*read_folio)(struct file *, struct folio *);
 255:/mnt/c/Users/31740/Desktop/newcore/include/linux/fs.h **** 
 256:/mnt/c/Users/31740/Desktop/newcore/include/linux/fs.h **** 	/* Write back some dirty pages from this mapping. */
 257:/mnt/c/Users/31740/Desktop/newcore/include/linux/fs.h **** 	int (*writepages)(struct address_space *, struct writeback_control *);
 258:/mnt/c/Users/31740/Desktop/newcore/include/linux/fs.h **** 
 259:/mnt/c/Users/31740/Desktop/newcore/include/linux/fs.h **** 	/* Mark a folio dirty.  Return true if this dirtied it */
 260:/mnt/c/Users/31740/Desktop/newcore/include/linux/fs.h **** 	bool (*dirty_folio)(struct address_space *, struct folio *);
ARM GAS  /tmp/ccD8NFOg.s 			page 27


 261:/mnt/c/Users/31740/Desktop/newcore/include/linux/fs.h **** 
 262:/mnt/c/Users/31740/Desktop/newcore/include/linux/fs.h **** 	void (*readahead)(struct readahead_control *);
 263:/mnt/c/Users/31740/Desktop/newcore/include/linux/fs.h **** 
 264:/mnt/c/Users/31740/Desktop/newcore/include/linux/fs.h **** 	int (*write_begin)(struct file *, struct address_space *mapping,
 265:/mnt/c/Users/31740/Desktop/newcore/include/linux/fs.h **** 				loff_t pos, unsigned len,
 266:/mnt/c/Users/31740/Desktop/newcore/include/linux/fs.h **** 				struct folio **foliop, void **fsdata);
 267:/mnt/c/Users/31740/Desktop/newcore/include/linux/fs.h **** 	int (*write_end)(struct file *, struct address_space *mapping,
 268:/mnt/c/Users/31740/Desktop/newcore/include/linux/fs.h **** 				loff_t pos, unsigned len, unsigned copied,
 269:/mnt/c/Users/31740/Desktop/newcore/include/linux/fs.h **** 				struct folio *folio, void *fsdata);
 270:/mnt/c/Users/31740/Desktop/newcore/include/linux/fs.h **** 
 271:/mnt/c/Users/31740/Desktop/newcore/include/linux/fs.h **** 	/* Unfortunately this kludge is needed for FIBMAP. Don't use it */
 272:/mnt/c/Users/31740/Desktop/newcore/include/linux/fs.h **** 	sector_t (*bmap)(struct address_space *, sector_t);
 273:/mnt/c/Users/31740/Desktop/newcore/include/linux/fs.h **** 	void (*invalidate_folio) (struct folio *, size_t offset, size_t len);
 274:/mnt/c/Users/31740/Desktop/newcore/include/linux/fs.h **** 	bool (*release_folio)(struct folio *, gfp_t);
 275:/mnt/c/Users/31740/Desktop/newcore/include/linux/fs.h **** 	void (*free_folio)(struct folio *folio);
 276:/mnt/c/Users/31740/Desktop/newcore/include/linux/fs.h **** 	ssize_t (*direct_IO)(struct kiocb *, struct iov_iter *iter);
 277:/mnt/c/Users/31740/Desktop/newcore/include/linux/fs.h **** 	/*
 278:/mnt/c/Users/31740/Desktop/newcore/include/linux/fs.h **** 	 * migrate the contents of a folio to the specified target. If
 279:/mnt/c/Users/31740/Desktop/newcore/include/linux/fs.h **** 	 * migrate_mode is MIGRATE_ASYNC, it must not block.
 280:/mnt/c/Users/31740/Desktop/newcore/include/linux/fs.h **** 	 */
 281:/mnt/c/Users/31740/Desktop/newcore/include/linux/fs.h **** 	int (*migrate_folio)(struct address_space *, struct folio *dst,
 282:/mnt/c/Users/31740/Desktop/newcore/include/linux/fs.h **** 			struct folio *src, enum migrate_mode);
 283:/mnt/c/Users/31740/Desktop/newcore/include/linux/fs.h **** 	int (*launder_folio)(struct folio *);
 284:/mnt/c/Users/31740/Desktop/newcore/include/linux/fs.h **** 	bool (*is_partially_uptodate) (struct folio *, size_t from,
 285:/mnt/c/Users/31740/Desktop/newcore/include/linux/fs.h **** 			size_t count);
 286:/mnt/c/Users/31740/Desktop/newcore/include/linux/fs.h **** 	void (*is_dirty_writeback) (struct folio *, bool *dirty, bool *wb);
 287:/mnt/c/Users/31740/Desktop/newcore/include/linux/fs.h **** 	int (*error_remove_folio)(struct address_space *, struct folio *);
 288:/mnt/c/Users/31740/Desktop/newcore/include/linux/fs.h **** 
 289:/mnt/c/Users/31740/Desktop/newcore/include/linux/fs.h **** 	/* swapfile support */
 290:/mnt/c/Users/31740/Desktop/newcore/include/linux/fs.h **** 	// int (*swap_activate)(struct swap_info_struct *sis, struct file *file,
 291:/mnt/c/Users/31740/Desktop/newcore/include/linux/fs.h **** 	// 			sector_t *span);
 292:/mnt/c/Users/31740/Desktop/newcore/include/linux/fs.h **** 	// void (*swap_deactivate)(struct file *file);
 293:/mnt/c/Users/31740/Desktop/newcore/include/linux/fs.h **** 	// int (*swap_rw)(struct kiocb *iocb, struct iov_iter *iter);
 294:/mnt/c/Users/31740/Desktop/newcore/include/linux/fs.h **** };
 295:/mnt/c/Users/31740/Desktop/newcore/include/linux/fs.h **** 
 296:/mnt/c/Users/31740/Desktop/newcore/include/linux/fs.h ****  struct address_space {
 297:/mnt/c/Users/31740/Desktop/newcore/include/linux/fs.h **** 	struct inode		*host;
 298:/mnt/c/Users/31740/Desktop/newcore/include/linux/fs.h **** 	struct xarray		i_pages;
 299:/mnt/c/Users/31740/Desktop/newcore/include/linux/fs.h **** 	gfp_t			gfp_mask;
 300:/mnt/c/Users/31740/Desktop/newcore/include/linux/fs.h **** 	atomic_t		i_mmap_writable;
 301:/mnt/c/Users/31740/Desktop/newcore/include/linux/fs.h **** #ifdef CONFIG_READ_ONLY_THP_FOR_FS
 302:/mnt/c/Users/31740/Desktop/newcore/include/linux/fs.h **** 	/* number of thp, only for non-shmem files */
 303:/mnt/c/Users/31740/Desktop/newcore/include/linux/fs.h **** 	atomic_t		nr_thps;
 304:/mnt/c/Users/31740/Desktop/newcore/include/linux/fs.h **** #endif
 305:/mnt/c/Users/31740/Desktop/newcore/include/linux/fs.h **** 	struct rb_root_cached	i_mmap;
 306:/mnt/c/Users/31740/Desktop/newcore/include/linux/fs.h **** 	unsigned long		nrpages;
 307:/mnt/c/Users/31740/Desktop/newcore/include/linux/fs.h **** 	pgoff_t			writeback_index;
 308:/mnt/c/Users/31740/Desktop/newcore/include/linux/fs.h **** 	const struct address_space_operations *a_ops;
 309:/mnt/c/Users/31740/Desktop/newcore/include/linux/fs.h **** 	unsigned long		flags;
 310:/mnt/c/Users/31740/Desktop/newcore/include/linux/fs.h **** 	errseq_t		wb_err;
 311:/mnt/c/Users/31740/Desktop/newcore/include/linux/fs.h **** 	spinlock_t		i_private_lock;
 312:/mnt/c/Users/31740/Desktop/newcore/include/linux/fs.h **** 	struct list_head	i_private_list;
 313:/mnt/c/Users/31740/Desktop/newcore/include/linux/fs.h **** 	void *			i_private_data;
 314:/mnt/c/Users/31740/Desktop/newcore/include/linux/fs.h **** } __attribute__((aligned(sizeof(long)))) __randomize_layout;
 315:/mnt/c/Users/31740/Desktop/newcore/include/linux/fs.h **** 
 316:/mnt/c/Users/31740/Desktop/newcore/include/linux/fs.h **** /********************************************************
 317:/mnt/c/Users/31740/Desktop/newcore/include/linux/fs.h ****  * 														*
ARM GAS  /tmp/ccD8NFOg.s 			page 28


 318:/mnt/c/Users/31740/Desktop/newcore/include/linux/fs.h ****  * 			   		  file struct						*
 319:/mnt/c/Users/31740/Desktop/newcore/include/linux/fs.h ****  *														* 
 320:/mnt/c/Users/31740/Desktop/newcore/include/linux/fs.h **** *********************************************************/
 321:/mnt/c/Users/31740/Desktop/newcore/include/linux/fs.h **** 
 322:/mnt/c/Users/31740/Desktop/newcore/include/linux/fs.h **** struct io_uring {
 323:/mnt/c/Users/31740/Desktop/newcore/include/linux/fs.h **** 	uint8_t 	magic;
 324:/mnt/c/Users/31740/Desktop/newcore/include/linux/fs.h **** };
 325:/mnt/c/Users/31740/Desktop/newcore/include/linux/fs.h **** struct io_uring_cmd {
 326:/mnt/c/Users/31740/Desktop/newcore/include/linux/fs.h **** 	uint8_t 	magic;
 327:/mnt/c/Users/31740/Desktop/newcore/include/linux/fs.h **** };
 328:/mnt/c/Users/31740/Desktop/newcore/include/linux/fs.h **** struct fs_context {
 329:/mnt/c/Users/31740/Desktop/newcore/include/linux/fs.h **** 	uint8_t 	magic;
 330:/mnt/c/Users/31740/Desktop/newcore/include/linux/fs.h **** };
 331:/mnt/c/Users/31740/Desktop/newcore/include/linux/fs.h **** struct file_lease{
 332:/mnt/c/Users/31740/Desktop/newcore/include/linux/fs.h **** 	uint8_t 	magic;
 333:/mnt/c/Users/31740/Desktop/newcore/include/linux/fs.h **** };
 334:/mnt/c/Users/31740/Desktop/newcore/include/linux/fs.h **** struct file_lock {
 335:/mnt/c/Users/31740/Desktop/newcore/include/linux/fs.h **** 	uint8_t 	magic;
 336:/mnt/c/Users/31740/Desktop/newcore/include/linux/fs.h **** };
 337:/mnt/c/Users/31740/Desktop/newcore/include/linux/fs.h **** struct vm_area_struct{
 338:/mnt/c/Users/31740/Desktop/newcore/include/linux/fs.h **** 	uint8_t 	magic;
 339:/mnt/c/Users/31740/Desktop/newcore/include/linux/fs.h **** };
 340:/mnt/c/Users/31740/Desktop/newcore/include/linux/fs.h **** struct pipe_inode_info{
 341:/mnt/c/Users/31740/Desktop/newcore/include/linux/fs.h **** 	uint8_t 	magic;
 342:/mnt/c/Users/31740/Desktop/newcore/include/linux/fs.h **** };
 343:/mnt/c/Users/31740/Desktop/newcore/include/linux/fs.h **** struct readahead_control{
 344:/mnt/c/Users/31740/Desktop/newcore/include/linux/fs.h **** 	uint8_t 	magic;
 345:/mnt/c/Users/31740/Desktop/newcore/include/linux/fs.h **** };
 346:/mnt/c/Users/31740/Desktop/newcore/include/linux/fs.h **** 
 347:/mnt/c/Users/31740/Desktop/newcore/include/linux/fs.h **** struct fileattr {
 348:/mnt/c/Users/31740/Desktop/newcore/include/linux/fs.h **** 	uint8_t 	magic;
 349:/mnt/c/Users/31740/Desktop/newcore/include/linux/fs.h **** };
 350:/mnt/c/Users/31740/Desktop/newcore/include/linux/fs.h **** struct fiemap_extent_info {
 351:/mnt/c/Users/31740/Desktop/newcore/include/linux/fs.h **** 	uint8_t 	magic;
 352:/mnt/c/Users/31740/Desktop/newcore/include/linux/fs.h **** };
 353:/mnt/c/Users/31740/Desktop/newcore/include/linux/fs.h **** struct delayed_call {
 354:/mnt/c/Users/31740/Desktop/newcore/include/linux/fs.h **** 	uint8_t 	magic;
 355:/mnt/c/Users/31740/Desktop/newcore/include/linux/fs.h **** };
 356:/mnt/c/Users/31740/Desktop/newcore/include/linux/fs.h **** 
 357:/mnt/c/Users/31740/Desktop/newcore/include/linux/fs.h **** 
 358:/mnt/c/Users/31740/Desktop/newcore/include/linux/fs.h **** 
 359:/mnt/c/Users/31740/Desktop/newcore/include/linux/fs.h **** 
 360:/mnt/c/Users/31740/Desktop/newcore/include/linux/fs.h **** 
 361:/mnt/c/Users/31740/Desktop/newcore/include/linux/fs.h **** 
 362:/mnt/c/Users/31740/Desktop/newcore/include/linux/fs.h **** 
 363:/mnt/c/Users/31740/Desktop/newcore/include/linux/fs.h **** 
 364:/mnt/c/Users/31740/Desktop/newcore/include/linux/fs.h **** 
 365:/mnt/c/Users/31740/Desktop/newcore/include/linux/fs.h **** 
 366:/mnt/c/Users/31740/Desktop/newcore/include/linux/fs.h **** struct file {
 367:/mnt/c/Users/31740/Desktop/newcore/include/linux/fs.h **** 	struct mutex					f_ref;
 368:/mnt/c/Users/31740/Desktop/newcore/include/linux/fs.h **** 	struct mutex					f_lock;
 369:/mnt/c/Users/31740/Desktop/newcore/include/linux/fs.h **** 	fmode_t							f_mode;
 370:/mnt/c/Users/31740/Desktop/newcore/include/linux/fs.h **** 	const struct file_operations	*f_op;                            
 371:/mnt/c/Users/31740/Desktop/newcore/include/linux/fs.h **** 	//	struct address_space			*f_mapping;
 372:/mnt/c/Users/31740/Desktop/newcore/include/linux/fs.h **** 	void							*private_data;
 373:/mnt/c/Users/31740/Desktop/newcore/include/linux/fs.h **** 	struct inode					*f_inode;
 374:/mnt/c/Users/31740/Desktop/newcore/include/linux/fs.h **** 	unsigned int					f_flags;
ARM GAS  /tmp/ccD8NFOg.s 			page 29


 375:/mnt/c/Users/31740/Desktop/newcore/include/linux/fs.h **** 	unsigned int					f_iocb_flags;
 376:/mnt/c/Users/31740/Desktop/newcore/include/linux/fs.h **** 	char *						    f_path;
 377:/mnt/c/Users/31740/Desktop/newcore/include/linux/fs.h **** 	union {
 378:/mnt/c/Users/31740/Desktop/newcore/include/linux/fs.h **** 		struct mutex				f_pos_lock;
 379:/mnt/c/Users/31740/Desktop/newcore/include/linux/fs.h **** 		u64							f_pipe;
 380:/mnt/c/Users/31740/Desktop/newcore/include/linux/fs.h **** 	};
 381:/mnt/c/Users/31740/Desktop/newcore/include/linux/fs.h **** 	loff_t							f_pos;   //Áî®‰∫éÁõÆÂΩïÈÅçÂéÜ
 382:/mnt/c/Users/31740/Desktop/newcore/include/linux/fs.h **** 	void *							f_private;
 383:/mnt/c/Users/31740/Desktop/newcore/include/linux/fs.h **** 	spinlock_t                      f_slock;
 384:/mnt/c/Users/31740/Desktop/newcore/include/linux/fs.h **** }__attribute__((aligned(sizeof(long)))) __randomize_layout;	
 385:/mnt/c/Users/31740/Desktop/newcore/include/linux/fs.h **** 
 386:/mnt/c/Users/31740/Desktop/newcore/include/linux/fs.h **** 
 387:/mnt/c/Users/31740/Desktop/newcore/include/linux/fs.h **** /********************************************************
 388:/mnt/c/Users/31740/Desktop/newcore/include/linux/fs.h ****  * 														*
 389:/mnt/c/Users/31740/Desktop/newcore/include/linux/fs.h ****  * 			   		  inode struct						*
 390:/mnt/c/Users/31740/Desktop/newcore/include/linux/fs.h ****  *														* 
 391:/mnt/c/Users/31740/Desktop/newcore/include/linux/fs.h **** *********************************************************/
 392:/mnt/c/Users/31740/Desktop/newcore/include/linux/fs.h **** 
 393:/mnt/c/Users/31740/Desktop/newcore/include/linux/fs.h **** #define IOP_FASTPERM	0x0001
 394:/mnt/c/Users/31740/Desktop/newcore/include/linux/fs.h **** #define IOP_LOOKUP	0x0002
 395:/mnt/c/Users/31740/Desktop/newcore/include/linux/fs.h **** #define IOP_NOFOLLOW	0x0004
 396:/mnt/c/Users/31740/Desktop/newcore/include/linux/fs.h **** #define IOP_XATTR	0x0008
 397:/mnt/c/Users/31740/Desktop/newcore/include/linux/fs.h **** #define IOP_DEFAULT_READLINK	0x0010
 398:/mnt/c/Users/31740/Desktop/newcore/include/linux/fs.h **** #define IOP_MGTIME	0x0020
 399:/mnt/c/Users/31740/Desktop/newcore/include/linux/fs.h **** 
 400:/mnt/c/Users/31740/Desktop/newcore/include/linux/fs.h **** /*
 401:/mnt/c/Users/31740/Desktop/newcore/include/linux/fs.h ****  * Keep mostly read-only and often accessed (especially for
 402:/mnt/c/Users/31740/Desktop/newcore/include/linux/fs.h ****  * the RCU path lookup and 'stat' data) fields at the beginning
 403:/mnt/c/Users/31740/Desktop/newcore/include/linux/fs.h ****  * of the 'struct inode'
 404:/mnt/c/Users/31740/Desktop/newcore/include/linux/fs.h ****  */
 405:/mnt/c/Users/31740/Desktop/newcore/include/linux/fs.h **** 
 406:/mnt/c/Users/31740/Desktop/newcore/include/linux/fs.h **** struct inode {
 407:/mnt/c/Users/31740/Desktop/newcore/include/linux/fs.h **** 	umode_t            i_mode;   
 408:/mnt/c/Users/31740/Desktop/newcore/include/linux/fs.h **** 
 409:/mnt/c/Users/31740/Desktop/newcore/include/linux/fs.h **** 	unsigned short     		i_opflags;     /* inode Êìç‰ΩúÊ†áÂøóÂØπÂ∫îIOPÂÆè */
 410:/mnt/c/Users/31740/Desktop/newcore/include/linux/fs.h **** 	kuid_t             i_uid;         /* Êñá‰ª∂ÊâÄÊúâËÄÖÁî®Êà∑ID */
 411:/mnt/c/Users/31740/Desktop/newcore/include/linux/fs.h **** 	kgid_t             i_gid;         /* Êñá‰ª∂ÊâÄÊúâËÄÖÁªÑID */
 412:/mnt/c/Users/31740/Desktop/newcore/include/linux/fs.h **** 
 413:/mnt/c/Users/31740/Desktop/newcore/include/linux/fs.h **** 	unsigned int       i_flags;    
 414:/mnt/c/Users/31740/Desktop/newcore/include/linux/fs.h **** 	const struct inode_operations *i_op;     
 415:/mnt/c/Users/31740/Desktop/newcore/include/linux/fs.h **** 	struct super_block            *i_sb;       
 416:/mnt/c/Users/31740/Desktop/newcore/include/linux/fs.h **** 	struct address_space	      *i_mapping;   
 417:/mnt/c/Users/31740/Desktop/newcore/include/linux/fs.h **** 	dev_t             i_rdev;       
 418:/mnt/c/Users/31740/Desktop/newcore/include/linux/fs.h **** 	loff_t            i_size;        
 419:/mnt/c/Users/31740/Desktop/newcore/include/linux/fs.h **** 	time64_t          i_atime_sec;   
 420:/mnt/c/Users/31740/Desktop/newcore/include/linux/fs.h **** 	time64_t          i_mtime_sec;   
 421:/mnt/c/Users/31740/Desktop/newcore/include/linux/fs.h **** 	time64_t          i_ctime_sec;    
 422:/mnt/c/Users/31740/Desktop/newcore/include/linux/fs.h **** 	u32               i_atime_nsec;   
 423:/mnt/c/Users/31740/Desktop/newcore/include/linux/fs.h **** 	u32               i_mtime_nsec;   
 424:/mnt/c/Users/31740/Desktop/newcore/include/linux/fs.h **** 	u32               i_ctime_nsec;  
 425:/mnt/c/Users/31740/Desktop/newcore/include/linux/fs.h **** 	unsigned short    i_bytes;
 426:/mnt/c/Users/31740/Desktop/newcore/include/linux/fs.h **** 	u32			i_state;
 427:/mnt/c/Users/31740/Desktop/newcore/include/linux/fs.h **** 	struct hlist_node	i_hash;
 428:/mnt/c/Users/31740/Desktop/newcore/include/linux/fs.h **** 	struct list_head	i_io_list;	/* backing dev IO list */
 429:/mnt/c/Users/31740/Desktop/newcore/include/linux/fs.h **** 	spinlock_t	        i_lock;	/* i_blocks, i_bytes, maybe i_size */
 430:/mnt/c/Users/31740/Desktop/newcore/include/linux/fs.h **** 	struct list_head	i_sb_list;
 431:/mnt/c/Users/31740/Desktop/newcore/include/linux/fs.h **** 	struct list_head	i_dentry;
ARM GAS  /tmp/ccD8NFOg.s 			page 30


 432:/mnt/c/Users/31740/Desktop/newcore/include/linux/fs.h **** 	atomic_t		i_count;
 433:/mnt/c/Users/31740/Desktop/newcore/include/linux/fs.h **** 	const struct file_operations	*i_fop;	/* former ->i_op->default_file_ops */
 434:/mnt/c/Users/31740/Desktop/newcore/include/linux/fs.h **** 	void (*free_inode)(struct inode *);
 435:/mnt/c/Users/31740/Desktop/newcore/include/linux/fs.h **** 	void			*i_private; /* fs or device private pointer */
 436:/mnt/c/Users/31740/Desktop/newcore/include/linux/fs.h **** }__attribute__((aligned(sizeof(long)))) __randomize_layout;
 437:/mnt/c/Users/31740/Desktop/newcore/include/linux/fs.h **** 
 438:/mnt/c/Users/31740/Desktop/newcore/include/linux/fs.h **** /********************************************************
 439:/mnt/c/Users/31740/Desktop/newcore/include/linux/fs.h ****  * 														*
 440:/mnt/c/Users/31740/Desktop/newcore/include/linux/fs.h ****  * 			   inode inode_operations					*
 441:/mnt/c/Users/31740/Desktop/newcore/include/linux/fs.h ****  *														* 
 442:/mnt/c/Users/31740/Desktop/newcore/include/linux/fs.h **** *********************************************************/
 443:/mnt/c/Users/31740/Desktop/newcore/include/linux/fs.h **** 
 444:/mnt/c/Users/31740/Desktop/newcore/include/linux/fs.h **** struct mnt_idmap {void * no_data;};
 445:/mnt/c/Users/31740/Desktop/newcore/include/linux/fs.h **** 
 446:/mnt/c/Users/31740/Desktop/newcore/include/linux/fs.h **** struct inode_operations {
 447:/mnt/c/Users/31740/Desktop/newcore/include/linux/fs.h **** 	struct dentry  	 *(*lookup) 	   (struct inode *    ,struct dentry *, unsigned int);
 448:/mnt/c/Users/31740/Desktop/newcore/include/linux/fs.h **** 	const char 	     *(*get_link) 	   (struct dentry *   , struct inode *, struct delayed_call *);
 449:/mnt/c/Users/31740/Desktop/newcore/include/linux/fs.h **** 	int 			  (*permission)    (struct mnt_idmap *, struct inode *, int);
 450:/mnt/c/Users/31740/Desktop/newcore/include/linux/fs.h **** 	struct posix_acl *(*get_inode_acl) (struct inode *	  , int, bool);
 451:/mnt/c/Users/31740/Desktop/newcore/include/linux/fs.h **** 	int 			  (*readlink) 	   (struct dentry *   , char __user * ,int);
 452:/mnt/c/Users/31740/Desktop/newcore/include/linux/fs.h **** 	int 			  (*create) 	   (struct mnt_idmap *, struct inode *,struct dentry *,umode_t, bool);
 453:/mnt/c/Users/31740/Desktop/newcore/include/linux/fs.h **** 	int 			  (*link) 		   (struct dentry *   ,struct inode * ,struct dentry *);
 454:/mnt/c/Users/31740/Desktop/newcore/include/linux/fs.h **** 	int 			  (*unlink) 	   (struct inode *	  ,struct dentry * );
 455:/mnt/c/Users/31740/Desktop/newcore/include/linux/fs.h **** 	int 			  (*symlink) 	   (struct mnt_idmap *, struct inode *,struct dentry *,const char *);
 456:/mnt/c/Users/31740/Desktop/newcore/include/linux/fs.h **** 	int 			  (*mkdir) 		   (struct mnt_idmap *, struct inode *,struct dentry *,umode_t);
 457:/mnt/c/Users/31740/Desktop/newcore/include/linux/fs.h **** 	int 			  (*rmdir)		   (struct inode *	  ,struct dentry * );
 458:/mnt/c/Users/31740/Desktop/newcore/include/linux/fs.h **** 	int 			  (*mknod) 		   (struct mnt_idmap *, struct inode *,struct dentry *,umode_t,dev_t);
 459:/mnt/c/Users/31740/Desktop/newcore/include/linux/fs.h **** 	int 			  (*rename) 	   (struct mnt_idmap *, struct inode *, struct dentry *,struct inode *, struct
 460:/mnt/c/Users/31740/Desktop/newcore/include/linux/fs.h **** 	int 			  (*setattr)	   (struct mnt_idmap *, struct dentry*, struct iattr *);
 461:/mnt/c/Users/31740/Desktop/newcore/include/linux/fs.h **** 	int 			  (*getattr) 	   (struct mnt_idmap *, const struct path *,struct kstat *, u32, unsigned int
 462:/mnt/c/Users/31740/Desktop/newcore/include/linux/fs.h **** 	ssize_t 		  (*listxattr) 	   (struct dentry *	  , char *		  , size_t);
 463:/mnt/c/Users/31740/Desktop/newcore/include/linux/fs.h **** 	int 			  (*fiemap)		   (struct inode *	  , struct fiemap_extent_info *, u64 start,u64 len);
 464:/mnt/c/Users/31740/Desktop/newcore/include/linux/fs.h **** 	int 			  (*update_time)   (struct inode *    , int);
 465:/mnt/c/Users/31740/Desktop/newcore/include/linux/fs.h **** 	int 			  (*atomic_open)   (struct inode *    , struct dentry*,struct file *, unsigned open_flag,um
 466:/mnt/c/Users/31740/Desktop/newcore/include/linux/fs.h **** 	int 			  (*tmpfile)	   (struct mnt_idmap *, struct inode *,struct file *, umode_t);
 467:/mnt/c/Users/31740/Desktop/newcore/include/linux/fs.h **** 	struct posix_acl *(*get_acl)	   (struct mnt_idmap *, struct dentry*,int);
 468:/mnt/c/Users/31740/Desktop/newcore/include/linux/fs.h **** 	int 			  (*set_acl)	   (struct mnt_idmap *, struct dentry*,struct posix_acl *, int);
 469:/mnt/c/Users/31740/Desktop/newcore/include/linux/fs.h **** 	int 			  (*fileattr_set)  (struct mnt_idmap *idmap,struct dentry *dentry, struct fileattr *fa);
 470:/mnt/c/Users/31740/Desktop/newcore/include/linux/fs.h **** 	int 			  (*fileattr_get)  (struct dentry *dentry  , struct fileattr *fa);
 471:/mnt/c/Users/31740/Desktop/newcore/include/linux/fs.h **** 	struct offset_ctx*(*get_offset_ctx)(struct inode *inode);
 472:/mnt/c/Users/31740/Desktop/newcore/include/linux/fs.h **** };
 473:/mnt/c/Users/31740/Desktop/newcore/include/linux/fs.h **** 
 474:/mnt/c/Users/31740/Desktop/newcore/include/linux/fs.h **** /********************************************************
 475:/mnt/c/Users/31740/Desktop/newcore/include/linux/fs.h ****  * 														*
 476:/mnt/c/Users/31740/Desktop/newcore/include/linux/fs.h ****  * 			       file_operations						*
 477:/mnt/c/Users/31740/Desktop/newcore/include/linux/fs.h ****  *														* 
 478:/mnt/c/Users/31740/Desktop/newcore/include/linux/fs.h **** *********************************************************/
 479:/mnt/c/Users/31740/Desktop/newcore/include/linux/fs.h **** 
 480:/mnt/c/Users/31740/Desktop/newcore/include/linux/fs.h **** struct kiocb {
 481:/mnt/c/Users/31740/Desktop/newcore/include/linux/fs.h **** 	struct file		*ki_filp;
 482:/mnt/c/Users/31740/Desktop/newcore/include/linux/fs.h **** 	loff_t			ki_pos;
 483:/mnt/c/Users/31740/Desktop/newcore/include/linux/fs.h **** 	void (*ki_complete)(struct kiocb *iocb, long ret);
 484:/mnt/c/Users/31740/Desktop/newcore/include/linux/fs.h **** 	void			*private;
 485:/mnt/c/Users/31740/Desktop/newcore/include/linux/fs.h **** 	int			ki_flags;
 486:/mnt/c/Users/31740/Desktop/newcore/include/linux/fs.h **** 	u16			ki_ioprio; /* See linux/ioprio.h */
 487:/mnt/c/Users/31740/Desktop/newcore/include/linux/fs.h **** 	union {
 488:/mnt/c/Users/31740/Desktop/newcore/include/linux/fs.h **** 	//	struct wait_page_queue	*ki_waitq;
ARM GAS  /tmp/ccD8NFOg.s 			page 31


 489:/mnt/c/Users/31740/Desktop/newcore/include/linux/fs.h **** 		ssize_t (*dio_complete)(void *data);
 490:/mnt/c/Users/31740/Desktop/newcore/include/linux/fs.h **** 	};
 491:/mnt/c/Users/31740/Desktop/newcore/include/linux/fs.h **** };
 492:/mnt/c/Users/31740/Desktop/newcore/include/linux/fs.h **** 
 493:/mnt/c/Users/31740/Desktop/newcore/include/linux/fs.h **** struct dir_context;
 494:/mnt/c/Users/31740/Desktop/newcore/include/linux/fs.h **** typedef bool (*filldir_t)(struct dir_context *, const char *, int, loff_t, u64,
 495:/mnt/c/Users/31740/Desktop/newcore/include/linux/fs.h **** 			 unsigned);
 496:/mnt/c/Users/31740/Desktop/newcore/include/linux/fs.h **** 
 497:/mnt/c/Users/31740/Desktop/newcore/include/linux/fs.h **** struct dir_context {
 498:/mnt/c/Users/31740/Desktop/newcore/include/linux/fs.h **** 	filldir_t actor;
 499:/mnt/c/Users/31740/Desktop/newcore/include/linux/fs.h **** 	loff_t pos;
 500:/mnt/c/Users/31740/Desktop/newcore/include/linux/fs.h **** };
 501:/mnt/c/Users/31740/Desktop/newcore/include/linux/fs.h **** 
 502:/mnt/c/Users/31740/Desktop/newcore/include/linux/fs.h **** 
 503:/mnt/c/Users/31740/Desktop/newcore/include/linux/fs.h **** static inline bool dir_emit(struct dir_context *ctx,
 504:/mnt/c/Users/31740/Desktop/newcore/include/linux/fs.h **** 			    const char *name, int namelen,
 505:/mnt/c/Users/31740/Desktop/newcore/include/linux/fs.h **** 			    u64 ino, unsigned type)
 506:/mnt/c/Users/31740/Desktop/newcore/include/linux/fs.h **** {
 507:/mnt/c/Users/31740/Desktop/newcore/include/linux/fs.h **** 	return ctx->actor(ctx, name, namelen, ctx->pos, ino, type);
 508:/mnt/c/Users/31740/Desktop/newcore/include/linux/fs.h **** }
 509:/mnt/c/Users/31740/Desktop/newcore/include/linux/fs.h **** 
 510:/mnt/c/Users/31740/Desktop/newcore/include/linux/fs.h **** struct poll_table_struct;
 511:/mnt/c/Users/31740/Desktop/newcore/include/linux/fs.h **** typedef void (*poll_queue_proc)(struct file *, wait_queue_head_t *, struct poll_table_struct *);
 512:/mnt/c/Users/31740/Desktop/newcore/include/linux/fs.h **** typedef struct poll_table_struct {
 513:/mnt/c/Users/31740/Desktop/newcore/include/linux/fs.h **** 	poll_queue_proc _qproc;
 514:/mnt/c/Users/31740/Desktop/newcore/include/linux/fs.h **** 	__poll_t _key;
 515:/mnt/c/Users/31740/Desktop/newcore/include/linux/fs.h **** } poll_table;
 516:/mnt/c/Users/31740/Desktop/newcore/include/linux/fs.h **** 
 517:/mnt/c/Users/31740/Desktop/newcore/include/linux/fs.h **** 
 518:/mnt/c/Users/31740/Desktop/newcore/include/linux/fs.h **** 
 519:/mnt/c/Users/31740/Desktop/newcore/include/linux/fs.h **** typedef unsigned int __bitwise fop_flags_t;
 520:/mnt/c/Users/31740/Desktop/newcore/include/linux/fs.h **** typedef void *fl_owner_t;
 521:/mnt/c/Users/31740/Desktop/newcore/include/linux/fs.h **** 
 522:/mnt/c/Users/31740/Desktop/newcore/include/linux/fs.h **** struct file_operations {
 523:/mnt/c/Users/31740/Desktop/newcore/include/linux/fs.h **** 	void *owner;
 524:/mnt/c/Users/31740/Desktop/newcore/include/linux/fs.h **** 	fop_flags_t fop_flags;
 525:/mnt/c/Users/31740/Desktop/newcore/include/linux/fs.h **** 	loff_t (*llseek) (struct file *, loff_t, int);
 526:/mnt/c/Users/31740/Desktop/newcore/include/linux/fs.h **** 	ssize_t (*read) (struct file *, char __user *, size_t, loff_t *);
 527:/mnt/c/Users/31740/Desktop/newcore/include/linux/fs.h **** 	ssize_t (*write) (struct file *, const char __user *, size_t, loff_t *);
 528:/mnt/c/Users/31740/Desktop/newcore/include/linux/fs.h **** ssize_t (*read_iter) (struct kiocb *, struct iov_iter *);
 529:/mnt/c/Users/31740/Desktop/newcore/include/linux/fs.h **** ssize_t (*write_iter) (struct kiocb *, struct iov_iter *);
 530:/mnt/c/Users/31740/Desktop/newcore/include/linux/fs.h **** 	int (*iopoll)(struct kiocb *kiocb, struct io_comp_batch *,unsigned int flags);
 531:/mnt/c/Users/31740/Desktop/newcore/include/linux/fs.h **** 	int (*iterate_shared) (struct file *, struct dir_context *);
 532:/mnt/c/Users/31740/Desktop/newcore/include/linux/fs.h **** 	__poll_t (*poll) (struct file *, struct poll_table_struct *);
 533:/mnt/c/Users/31740/Desktop/newcore/include/linux/fs.h **** 	long (*unlocked_ioctl) (struct file *, unsigned int, unsigned long);
 534:/mnt/c/Users/31740/Desktop/newcore/include/linux/fs.h **** 	long (*compat_ioctl) (struct file *, unsigned int, unsigned long);
 535:/mnt/c/Users/31740/Desktop/newcore/include/linux/fs.h **** int (*mmap) (struct file *, struct vm_area_struct *);
 536:/mnt/c/Users/31740/Desktop/newcore/include/linux/fs.h **** 	int (*open) (struct inode *, struct file *);
 537:/mnt/c/Users/31740/Desktop/newcore/include/linux/fs.h **** 	int (*flush) (struct file *, fl_owner_t id);
 538:/mnt/c/Users/31740/Desktop/newcore/include/linux/fs.h **** 	int (*release) (struct inode *, struct file *);
 539:/mnt/c/Users/31740/Desktop/newcore/include/linux/fs.h **** 	int (*fsync) (struct file *, loff_t, loff_t, int datasync);
 540:/mnt/c/Users/31740/Desktop/newcore/include/linux/fs.h **** 	int (*fasync) (int, struct file *, int);
 541:/mnt/c/Users/31740/Desktop/newcore/include/linux/fs.h **** 	int (*lock) (struct file *, int, struct file_lock *);
 542:/mnt/c/Users/31740/Desktop/newcore/include/linux/fs.h **** 	unsigned long (*get_unmapped_area)(struct file *, unsigned long, unsigned long, unsigned long, uns
 543:/mnt/c/Users/31740/Desktop/newcore/include/linux/fs.h **** 	int (*check_flags)(int);
 544:/mnt/c/Users/31740/Desktop/newcore/include/linux/fs.h **** 	int (*flock) (struct file *, int, struct file_lock *);
 545:/mnt/c/Users/31740/Desktop/newcore/include/linux/fs.h **** ssize_t (*splice_write)(struct pipe_inode_info *, struct file *, loff_t *, size_t, unsigned int);
ARM GAS  /tmp/ccD8NFOg.s 			page 32


 546:/mnt/c/Users/31740/Desktop/newcore/include/linux/fs.h **** ssize_t (*splice_read)(struct file *, loff_t *, struct pipe_inode_info *, size_t, unsigned int);
 547:/mnt/c/Users/31740/Desktop/newcore/include/linux/fs.h **** 	void (*splice_eof)(struct file *file);
 548:/mnt/c/Users/31740/Desktop/newcore/include/linux/fs.h **** 	int (*setlease)(struct file *, int, struct file_lease **, void **);
 549:/mnt/c/Users/31740/Desktop/newcore/include/linux/fs.h **** 	long (*fallocate)(struct file *file, int mode, loff_t offset,loff_t len);
 550:/mnt/c/Users/31740/Desktop/newcore/include/linux/fs.h **** 	void (*show_fdinfo)(struct seq_file *m, struct file *f);
 551:/mnt/c/Users/31740/Desktop/newcore/include/linux/fs.h **** #ifndef CONFIG_MMU
 552:/mnt/c/Users/31740/Desktop/newcore/include/linux/fs.h **** 	unsigned (*mmap_capabilities)(struct file *);
 553:/mnt/c/Users/31740/Desktop/newcore/include/linux/fs.h **** #endif
 554:/mnt/c/Users/31740/Desktop/newcore/include/linux/fs.h **** 	ssize_t (*copy_file_range)(struct file *, loff_t, struct file *,loff_t, size_t, unsigned int);
 555:/mnt/c/Users/31740/Desktop/newcore/include/linux/fs.h **** 	loff_t (*remap_file_range)(struct file *file_in, loff_t pos_in,struct file *file_out, loff_t pos_o
 556:/mnt/c/Users/31740/Desktop/newcore/include/linux/fs.h **** 	int (*fadvise)(struct file *, loff_t, loff_t, int);
 557:/mnt/c/Users/31740/Desktop/newcore/include/linux/fs.h **** 	int (*uring_cmd)(struct io_uring_cmd *ioucmd, unsigned int issue_flags);
 558:/mnt/c/Users/31740/Desktop/newcore/include/linux/fs.h **** 	int (*uring_cmd_iopoll)(struct io_uring_cmd *, struct io_comp_batch *,unsigned int poll_flags);
 559:/mnt/c/Users/31740/Desktop/newcore/include/linux/fs.h **** };
 560:/mnt/c/Users/31740/Desktop/newcore/include/linux/fs.h **** 
 561:/mnt/c/Users/31740/Desktop/newcore/include/linux/fs.h **** 
 562:/mnt/c/Users/31740/Desktop/newcore/include/linux/fs.h **** /********************************************************
 563:/mnt/c/Users/31740/Desktop/newcore/include/linux/fs.h ****  * 														*
 564:/mnt/c/Users/31740/Desktop/newcore/include/linux/fs.h ****  * 			       super_block							*
 565:/mnt/c/Users/31740/Desktop/newcore/include/linux/fs.h ****  *														* 
 566:/mnt/c/Users/31740/Desktop/newcore/include/linux/fs.h **** *********************************************************/
 567:/mnt/c/Users/31740/Desktop/newcore/include/linux/fs.h **** 
 568:/mnt/c/Users/31740/Desktop/newcore/include/linux/fs.h **** struct rcu_sync {
 569:/mnt/c/Users/31740/Desktop/newcore/include/linux/fs.h **** 	int			gp_state;
 570:/mnt/c/Users/31740/Desktop/newcore/include/linux/fs.h **** 	int			gp_count;
 571:/mnt/c/Users/31740/Desktop/newcore/include/linux/fs.h **** 	wait_queue_head_t	gp_wait;
 572:/mnt/c/Users/31740/Desktop/newcore/include/linux/fs.h **** 
 573:/mnt/c/Users/31740/Desktop/newcore/include/linux/fs.h **** 	struct rcu_head		cb_head;
 574:/mnt/c/Users/31740/Desktop/newcore/include/linux/fs.h **** };
 575:/mnt/c/Users/31740/Desktop/newcore/include/linux/fs.h **** 
 576:/mnt/c/Users/31740/Desktop/newcore/include/linux/fs.h **** struct rcuwait {
 577:/mnt/c/Users/31740/Desktop/newcore/include/linux/fs.h **** 	//struct task_struct __rcu *task;
 578:/mnt/c/Users/31740/Desktop/newcore/include/linux/fs.h **** };
 579:/mnt/c/Users/31740/Desktop/newcore/include/linux/fs.h **** 
 580:/mnt/c/Users/31740/Desktop/newcore/include/linux/fs.h **** struct percpu_rw_semaphore {
 581:/mnt/c/Users/31740/Desktop/newcore/include/linux/fs.h **** 	struct rcu_sync		rss;
 582:/mnt/c/Users/31740/Desktop/newcore/include/linux/fs.h **** 	unsigned int __percpu	*read_count;
 583:/mnt/c/Users/31740/Desktop/newcore/include/linux/fs.h **** 	struct rcuwait		writer;
 584:/mnt/c/Users/31740/Desktop/newcore/include/linux/fs.h **** 	wait_queue_head_t	waiters;
 585:/mnt/c/Users/31740/Desktop/newcore/include/linux/fs.h **** 	atomic_t		block;
 586:/mnt/c/Users/31740/Desktop/newcore/include/linux/fs.h **** #ifdef CONFIG_DEBUG_LOCK_ALLOC
 587:/mnt/c/Users/31740/Desktop/newcore/include/linux/fs.h **** 	struct lockdep_map	dep_map;
 588:/mnt/c/Users/31740/Desktop/newcore/include/linux/fs.h **** #endif
 589:/mnt/c/Users/31740/Desktop/newcore/include/linux/fs.h **** };
 590:/mnt/c/Users/31740/Desktop/newcore/include/linux/fs.h **** 
 591:/mnt/c/Users/31740/Desktop/newcore/include/linux/fs.h **** /*
 592:/mnt/c/Users/31740/Desktop/newcore/include/linux/fs.h ****  * sb->s_flags.  Note that these mirror the equivalent MS_* flags where
 593:/mnt/c/Users/31740/Desktop/newcore/include/linux/fs.h ****  * represented in both.
 594:/mnt/c/Users/31740/Desktop/newcore/include/linux/fs.h ****  */
 595:/mnt/c/Users/31740/Desktop/newcore/include/linux/fs.h **** #define SB_RDONLY       BIT(0)	/* Mount read-only */
 596:/mnt/c/Users/31740/Desktop/newcore/include/linux/fs.h **** #define SB_NOSUID       BIT(1)	/* Ignore suid and sgid bits */
 597:/mnt/c/Users/31740/Desktop/newcore/include/linux/fs.h **** #define SB_NODEV        BIT(2)	/* Disallow access to device special files */
 598:/mnt/c/Users/31740/Desktop/newcore/include/linux/fs.h **** #define SB_NOEXEC       BIT(3)	/* Disallow program execution */
 599:/mnt/c/Users/31740/Desktop/newcore/include/linux/fs.h **** #define SB_SYNCHRONOUS  BIT(4)	/* Writes are synced at once */
 600:/mnt/c/Users/31740/Desktop/newcore/include/linux/fs.h **** #define SB_MANDLOCK     BIT(6)	/* Allow mandatory locks on an FS */
 601:/mnt/c/Users/31740/Desktop/newcore/include/linux/fs.h **** #define SB_DIRSYNC      BIT(7)	/* Directory modifications are synchronous */
 602:/mnt/c/Users/31740/Desktop/newcore/include/linux/fs.h **** #define SB_NOATIME      BIT(10)	/* Do not update access times. */
ARM GAS  /tmp/ccD8NFOg.s 			page 33


 603:/mnt/c/Users/31740/Desktop/newcore/include/linux/fs.h **** #define SB_NODIRATIME   BIT(11)	/* Do not update directory access times */
 604:/mnt/c/Users/31740/Desktop/newcore/include/linux/fs.h **** #define SB_SILENT       BIT(15)
 605:/mnt/c/Users/31740/Desktop/newcore/include/linux/fs.h **** #define SB_POSIXACL     BIT(16)	/* Supports POSIX ACLs */
 606:/mnt/c/Users/31740/Desktop/newcore/include/linux/fs.h **** #define SB_INLINECRYPT  BIT(17)	/* Use blk-crypto for encrypted files */
 607:/mnt/c/Users/31740/Desktop/newcore/include/linux/fs.h **** #define SB_KERNMOUNT    BIT(22)	/* this is a kern_mount call */
 608:/mnt/c/Users/31740/Desktop/newcore/include/linux/fs.h **** #define SB_I_VERSION    BIT(23)	/* Update inode I_version field */
 609:/mnt/c/Users/31740/Desktop/newcore/include/linux/fs.h **** #define SB_LAZYTIME     BIT(25)	/* Update the on-disk [acm]times lazily */
 610:/mnt/c/Users/31740/Desktop/newcore/include/linux/fs.h **** 
 611:/mnt/c/Users/31740/Desktop/newcore/include/linux/fs.h **** /* These sb flags are internal to the kernel */
 612:/mnt/c/Users/31740/Desktop/newcore/include/linux/fs.h **** #define SB_DEAD         BIT(21)
 613:/mnt/c/Users/31740/Desktop/newcore/include/linux/fs.h **** #define SB_DYING        BIT(24)
 614:/mnt/c/Users/31740/Desktop/newcore/include/linux/fs.h **** #define SB_SUBMOUNT     BIT(26)
 615:/mnt/c/Users/31740/Desktop/newcore/include/linux/fs.h **** #define SB_FORCE        BIT(27)
 616:/mnt/c/Users/31740/Desktop/newcore/include/linux/fs.h **** #define SB_NOSEC        BIT(28)
 617:/mnt/c/Users/31740/Desktop/newcore/include/linux/fs.h **** #define SB_BORN         BIT(29)
 618:/mnt/c/Users/31740/Desktop/newcore/include/linux/fs.h **** #define SB_ACTIVE       BIT(30)
 619:/mnt/c/Users/31740/Desktop/newcore/include/linux/fs.h **** #define SB_NOUSER       BIT(31)
 620:/mnt/c/Users/31740/Desktop/newcore/include/linux/fs.h **** 
 621:/mnt/c/Users/31740/Desktop/newcore/include/linux/fs.h **** /* These flags relate to encoding and casefolding */
 622:/mnt/c/Users/31740/Desktop/newcore/include/linux/fs.h **** #define SB_ENC_STRICT_MODE_FL	(1 << 0)
 623:/mnt/c/Users/31740/Desktop/newcore/include/linux/fs.h **** 
 624:/mnt/c/Users/31740/Desktop/newcore/include/linux/fs.h **** #define sb_has_strict_encoding(sb) \
 625:/mnt/c/Users/31740/Desktop/newcore/include/linux/fs.h **** 	(sb->s_encoding_flags & SB_ENC_STRICT_MODE_FL)
 626:/mnt/c/Users/31740/Desktop/newcore/include/linux/fs.h **** 
 627:/mnt/c/Users/31740/Desktop/newcore/include/linux/fs.h **** /*
 628:/mnt/c/Users/31740/Desktop/newcore/include/linux/fs.h ****  *	Umount options
 629:/mnt/c/Users/31740/Desktop/newcore/include/linux/fs.h ****  */
 630:/mnt/c/Users/31740/Desktop/newcore/include/linux/fs.h **** 
 631:/mnt/c/Users/31740/Desktop/newcore/include/linux/fs.h **** #define MNT_FORCE	0x00000001	/* Attempt to forcibily umount */
 632:/mnt/c/Users/31740/Desktop/newcore/include/linux/fs.h **** #define MNT_DETACH	0x00000002	/* Just detach from the tree */
 633:/mnt/c/Users/31740/Desktop/newcore/include/linux/fs.h **** #define MNT_EXPIRE	0x00000004	/* Mark for expiry */
 634:/mnt/c/Users/31740/Desktop/newcore/include/linux/fs.h **** #define UMOUNT_NOFOLLOW	0x00000008	/* Don't follow symlink on umount */
 635:/mnt/c/Users/31740/Desktop/newcore/include/linux/fs.h **** #define UMOUNT_UNUSED	0x80000000	/* Flag guaranteed to be unused */
 636:/mnt/c/Users/31740/Desktop/newcore/include/linux/fs.h **** 
 637:/mnt/c/Users/31740/Desktop/newcore/include/linux/fs.h **** /* sb->s_iflags */
 638:/mnt/c/Users/31740/Desktop/newcore/include/linux/fs.h **** #define SB_I_CGROUPWB	0x00000001	/* cgroup-aware writeback enabled */
 639:/mnt/c/Users/31740/Desktop/newcore/include/linux/fs.h **** #define SB_I_NOEXEC	0x00000002	/* Ignore executables on this fs */
 640:/mnt/c/Users/31740/Desktop/newcore/include/linux/fs.h **** #define SB_I_NODEV	0x00000004	/* Ignore devices on this fs */
 641:/mnt/c/Users/31740/Desktop/newcore/include/linux/fs.h **** #define SB_I_STABLE_WRITES 0x00000008	/* don't modify blks until WB is done */
 642:/mnt/c/Users/31740/Desktop/newcore/include/linux/fs.h **** 
 643:/mnt/c/Users/31740/Desktop/newcore/include/linux/fs.h **** /* sb->s_iflags to limit user namespace mounts */
 644:/mnt/c/Users/31740/Desktop/newcore/include/linux/fs.h **** #define SB_I_USERNS_VISIBLE		0x00000010 /* fstype already mounted */
 645:/mnt/c/Users/31740/Desktop/newcore/include/linux/fs.h **** #define SB_I_IMA_UNVERIFIABLE_SIGNATURE	0x00000020
 646:/mnt/c/Users/31740/Desktop/newcore/include/linux/fs.h **** #define SB_I_UNTRUSTED_MOUNTER		0x00000040
 647:/mnt/c/Users/31740/Desktop/newcore/include/linux/fs.h **** #define SB_I_EVM_HMAC_UNSUPPORTED	0x00000080
 648:/mnt/c/Users/31740/Desktop/newcore/include/linux/fs.h **** 
 649:/mnt/c/Users/31740/Desktop/newcore/include/linux/fs.h **** #define SB_I_SKIP_SYNC	0x00000100	/* Skip superblock at global sync */
 650:/mnt/c/Users/31740/Desktop/newcore/include/linux/fs.h **** #define SB_I_PERSB_BDI	0x00000200	/* has a per-sb bdi */
 651:/mnt/c/Users/31740/Desktop/newcore/include/linux/fs.h **** #define SB_I_TS_EXPIRY_WARNED 0x00000400 /* warned about timestamp range expiry */
 652:/mnt/c/Users/31740/Desktop/newcore/include/linux/fs.h **** #define SB_I_RETIRED	0x00000800	/* superblock shouldn't be reused */
 653:/mnt/c/Users/31740/Desktop/newcore/include/linux/fs.h **** #define SB_I_NOUMASK	0x00001000	/* VFS does not apply umask */
 654:/mnt/c/Users/31740/Desktop/newcore/include/linux/fs.h **** #define SB_I_NOIDMAP	0x00002000	/* No idmapped mounts on this superblock */
 655:/mnt/c/Users/31740/Desktop/newcore/include/linux/fs.h **** 
 656:/mnt/c/Users/31740/Desktop/newcore/include/linux/fs.h **** 
 657:/mnt/c/Users/31740/Desktop/newcore/include/linux/fs.h **** enum {
 658:/mnt/c/Users/31740/Desktop/newcore/include/linux/fs.h **** 	SB_UNFROZEN = 0,		/* FS is unfrozen */
 659:/mnt/c/Users/31740/Desktop/newcore/include/linux/fs.h **** 	SB_FREEZE_WRITE	= 1,		/* Writes, dir ops, ioctls frozen */
ARM GAS  /tmp/ccD8NFOg.s 			page 34


 660:/mnt/c/Users/31740/Desktop/newcore/include/linux/fs.h **** 	SB_FREEZE_PAGEFAULT = 2,	/* Page faults stopped as well */
 661:/mnt/c/Users/31740/Desktop/newcore/include/linux/fs.h **** 	SB_FREEZE_FS = 3,		/* For internal FS use (e.g. to stop
 662:/mnt/c/Users/31740/Desktop/newcore/include/linux/fs.h **** 					 	* internal threads if needed) */
 663:/mnt/c/Users/31740/Desktop/newcore/include/linux/fs.h **** 	SB_FREEZE_COMPLETE = 4,		/* ->freeze_fs finished successfully */
 664:/mnt/c/Users/31740/Desktop/newcore/include/linux/fs.h **** };
 665:/mnt/c/Users/31740/Desktop/newcore/include/linux/fs.h **** 
 666:/mnt/c/Users/31740/Desktop/newcore/include/linux/fs.h **** #define SB_FREEZE_LEVELS (SB_FREEZE_COMPLETE - 1)
 667:/mnt/c/Users/31740/Desktop/newcore/include/linux/fs.h **** 
 668:/mnt/c/Users/31740/Desktop/newcore/include/linux/fs.h **** struct sb_writers {
 669:/mnt/c/Users/31740/Desktop/newcore/include/linux/fs.h **** 	unsigned short			frozen;		/* Is sb frozen? */
 670:/mnt/c/Users/31740/Desktop/newcore/include/linux/fs.h **** 	int				freeze_kcount;	/* How many kernel freeze requests? */
 671:/mnt/c/Users/31740/Desktop/newcore/include/linux/fs.h **** 	int				freeze_ucount;	/* How many userspace freeze requests? */
 672:/mnt/c/Users/31740/Desktop/newcore/include/linux/fs.h **** 	struct percpu_rw_semaphore	rw_sem[SB_FREEZE_LEVELS];
 673:/mnt/c/Users/31740/Desktop/newcore/include/linux/fs.h **** };
 674:/mnt/c/Users/31740/Desktop/newcore/include/linux/fs.h **** 
 675:/mnt/c/Users/31740/Desktop/newcore/include/linux/fs.h **** #define	UUID_STRING_LEN		36
 676:/mnt/c/Users/31740/Desktop/newcore/include/linux/fs.h **** 
 677:/mnt/c/Users/31740/Desktop/newcore/include/linux/fs.h **** 
 678:/mnt/c/Users/31740/Desktop/newcore/include/linux/fs.h **** 
 679:/mnt/c/Users/31740/Desktop/newcore/include/linux/fs.h **** struct super_block 
 680:/mnt/c/Users/31740/Desktop/newcore/include/linux/fs.h **** { 
 681:/mnt/c/Users/31740/Desktop/newcore/include/linux/fs.h **** 	struct list_head				s_list;		/* Keep this first */
 682:/mnt/c/Users/31740/Desktop/newcore/include/linux/fs.h ****     dev_t							s_dev;		/* search index; _not_ kdev_t */
 683:/mnt/c/Users/31740/Desktop/newcore/include/linux/fs.h **** 	unsigned long					s_blocksize;
 684:/mnt/c/Users/31740/Desktop/newcore/include/linux/fs.h ****     const struct super_operations	*s_op;
 685:/mnt/c/Users/31740/Desktop/newcore/include/linux/fs.h **** 	const struct dquot_operations	*dq_op;
 686:/mnt/c/Users/31740/Desktop/newcore/include/linux/fs.h **** 
 687:/mnt/c/Users/31740/Desktop/newcore/include/linux/fs.h **** 	struct dentry		*s_root;      //superblockÁöÑÊ†πÁõÆÂΩïÁªìÁÇπ
 688:/mnt/c/Users/31740/Desktop/newcore/include/linux/fs.h **** 	struct block_device	*s_bdev; 
 689:/mnt/c/Users/31740/Desktop/newcore/include/linux/fs.h **** 	struct hlist_node	s_instances;
 690:/mnt/c/Users/31740/Desktop/newcore/include/linux/fs.h **** 	struct list_head	s_mounts;
 691:/mnt/c/Users/31740/Desktop/newcore/include/linux/fs.h **** 	void			   *s_fs_info;	/* Filesystem private info */
 692:/mnt/c/Users/31740/Desktop/newcore/include/linux/fs.h **** 	char			    s_sysfs_name[UUID_STRING_LEN + 1];
 693:/mnt/c/Users/31740/Desktop/newcore/include/linux/fs.h **** 	unsigned int		s_max_links;
 694:/mnt/c/Users/31740/Desktop/newcore/include/linux/fs.h **** 	struct mutex            		s_vfs_rename_mutex;	/* Kludge */
 695:/mnt/c/Users/31740/Desktop/newcore/include/linux/fs.h **** 	const struct dentry_operations *s_d_op; /* default d_op for dentries */
 696:/mnt/c/Users/31740/Desktop/newcore/include/linux/fs.h **** 	struct hlist_head s_pins;
 697:/mnt/c/Users/31740/Desktop/newcore/include/linux/fs.h **** };
 698:/mnt/c/Users/31740/Desktop/newcore/include/linux/fs.h **** 
 699:/mnt/c/Users/31740/Desktop/newcore/include/linux/fs.h **** 
 700:/mnt/c/Users/31740/Desktop/newcore/include/linux/fs.h **** /********************************************************
 701:/mnt/c/Users/31740/Desktop/newcore/include/linux/fs.h ****  * 														*
 702:/mnt/c/Users/31740/Desktop/newcore/include/linux/fs.h ****  * 			       super_operations						*
 703:/mnt/c/Users/31740/Desktop/newcore/include/linux/fs.h ****  *														* 
 704:/mnt/c/Users/31740/Desktop/newcore/include/linux/fs.h **** *********************************************************/
 705:/mnt/c/Users/31740/Desktop/newcore/include/linux/fs.h **** 
 706:/mnt/c/Users/31740/Desktop/newcore/include/linux/fs.h **** struct seq_operations ;
 707:/mnt/c/Users/31740/Desktop/newcore/include/linux/fs.h **** struct seq_file {
 708:/mnt/c/Users/31740/Desktop/newcore/include/linux/fs.h **** 	char *buf;
 709:/mnt/c/Users/31740/Desktop/newcore/include/linux/fs.h **** 	size_t size;
 710:/mnt/c/Users/31740/Desktop/newcore/include/linux/fs.h **** 	size_t from;
 711:/mnt/c/Users/31740/Desktop/newcore/include/linux/fs.h **** 	size_t count;
 712:/mnt/c/Users/31740/Desktop/newcore/include/linux/fs.h **** 	size_t pad_until;
 713:/mnt/c/Users/31740/Desktop/newcore/include/linux/fs.h **** 	loff_t index;
 714:/mnt/c/Users/31740/Desktop/newcore/include/linux/fs.h **** 	loff_t read_pos;
 715:/mnt/c/Users/31740/Desktop/newcore/include/linux/fs.h **** 	struct mutex lock;
 716:/mnt/c/Users/31740/Desktop/newcore/include/linux/fs.h **** 	const struct seq_operations *op;
ARM GAS  /tmp/ccD8NFOg.s 			page 35


 717:/mnt/c/Users/31740/Desktop/newcore/include/linux/fs.h **** 	int poll_event;
 718:/mnt/c/Users/31740/Desktop/newcore/include/linux/fs.h **** 	const struct file *file;
 719:/mnt/c/Users/31740/Desktop/newcore/include/linux/fs.h **** 	void *private;
 720:/mnt/c/Users/31740/Desktop/newcore/include/linux/fs.h **** };
 721:/mnt/c/Users/31740/Desktop/newcore/include/linux/fs.h **** 
 722:/mnt/c/Users/31740/Desktop/newcore/include/linux/fs.h **** struct seq_operations {
 723:/mnt/c/Users/31740/Desktop/newcore/include/linux/fs.h **** 	void * (*start) (struct seq_file *m, loff_t *pos);
 724:/mnt/c/Users/31740/Desktop/newcore/include/linux/fs.h **** 	void (*stop) (struct seq_file *m, void *v);
 725:/mnt/c/Users/31740/Desktop/newcore/include/linux/fs.h **** 	void * (*next) (struct seq_file *m, void *v, loff_t *pos);
 726:/mnt/c/Users/31740/Desktop/newcore/include/linux/fs.h **** 	int (*show) (struct seq_file *m, void *v);
 727:/mnt/c/Users/31740/Desktop/newcore/include/linux/fs.h **** };
 728:/mnt/c/Users/31740/Desktop/newcore/include/linux/fs.h **** 
 729:/mnt/c/Users/31740/Desktop/newcore/include/linux/fs.h **** enum freeze_holder {
 730:/mnt/c/Users/31740/Desktop/newcore/include/linux/fs.h **** 	FREEZE_HOLDER_KERNEL	= (1U << 0),
 731:/mnt/c/Users/31740/Desktop/newcore/include/linux/fs.h **** 	FREEZE_HOLDER_USERSPACE	= (1U << 1),
 732:/mnt/c/Users/31740/Desktop/newcore/include/linux/fs.h **** 	FREEZE_MAY_NEST		= (1U << 2),
 733:/mnt/c/Users/31740/Desktop/newcore/include/linux/fs.h **** };
 734:/mnt/c/Users/31740/Desktop/newcore/include/linux/fs.h **** 
 735:/mnt/c/Users/31740/Desktop/newcore/include/linux/fs.h **** struct writeback_control {
 736:/mnt/c/Users/31740/Desktop/newcore/include/linux/fs.h **** 	unsigned long nr_to_write;
 737:/mnt/c/Users/31740/Desktop/newcore/include/linux/fs.h **** };
 738:/mnt/c/Users/31740/Desktop/newcore/include/linux/fs.h **** 
 739:/mnt/c/Users/31740/Desktop/newcore/include/linux/fs.h **** 
 740:/mnt/c/Users/31740/Desktop/newcore/include/linux/fs.h **** struct shrink_control {
 741:/mnt/c/Users/31740/Desktop/newcore/include/linux/fs.h **** 	gfp_t gfp_mask;
 742:/mnt/c/Users/31740/Desktop/newcore/include/linux/fs.h **** 	int nid;
 743:/mnt/c/Users/31740/Desktop/newcore/include/linux/fs.h **** 	unsigned long nr_to_scan;
 744:/mnt/c/Users/31740/Desktop/newcore/include/linux/fs.h **** 	unsigned long nr_scanned;
 745:/mnt/c/Users/31740/Desktop/newcore/include/linux/fs.h ****     //struct mem_cgroup *memcg;
 746:/mnt/c/Users/31740/Desktop/newcore/include/linux/fs.h **** };
 747:/mnt/c/Users/31740/Desktop/newcore/include/linux/fs.h **** 
 748:/mnt/c/Users/31740/Desktop/newcore/include/linux/fs.h **** struct super_operations {
 749:/mnt/c/Users/31740/Desktop/newcore/include/linux/fs.h ****    	struct inode *(*alloc_inode)(struct super_block *sb);
 750:/mnt/c/Users/31740/Desktop/newcore/include/linux/fs.h **** 	void (*destroy_inode)       (struct inode *);
 751:/mnt/c/Users/31740/Desktop/newcore/include/linux/fs.h **** 	void (*free_inode)          (struct inode *);
 752:/mnt/c/Users/31740/Desktop/newcore/include/linux/fs.h ****    	void (*dirty_inode)         (struct inode *, int flags);
 753:/mnt/c/Users/31740/Desktop/newcore/include/linux/fs.h **** 	int  (*write_inode)         (struct inode *, struct writeback_control *wbc);
 754:/mnt/c/Users/31740/Desktop/newcore/include/linux/fs.h **** 	int  (*drop_inode)          (struct inode *);
 755:/mnt/c/Users/31740/Desktop/newcore/include/linux/fs.h **** 	void (*evict_inode)         (struct inode *);
 756:/mnt/c/Users/31740/Desktop/newcore/include/linux/fs.h **** 	void (*put_super)           (struct super_block *);
 757:/mnt/c/Users/31740/Desktop/newcore/include/linux/fs.h **** 	int  (*sync_fs)             (struct super_block *sb, int wait);
 758:/mnt/c/Users/31740/Desktop/newcore/include/linux/fs.h **** 	int  (*freeze_super)        (struct super_block *, enum freeze_holder who);
 759:/mnt/c/Users/31740/Desktop/newcore/include/linux/fs.h **** 	int  (*freeze_fs)           (struct super_block *);
 760:/mnt/c/Users/31740/Desktop/newcore/include/linux/fs.h **** 	int  (*thaw_super)          (struct super_block *, enum freeze_holder who);
 761:/mnt/c/Users/31740/Desktop/newcore/include/linux/fs.h **** 	int  (*unfreeze_fs)         (struct super_block *);
 762:/mnt/c/Users/31740/Desktop/newcore/include/linux/fs.h **** 	int  (*statfs)              (struct dentry *, struct kstatfs *);
 763:/mnt/c/Users/31740/Desktop/newcore/include/linux/fs.h **** 	int  (*remount_fs)          (struct super_block *, int *, char *);
 764:/mnt/c/Users/31740/Desktop/newcore/include/linux/fs.h **** 	void (*umount_begin)        (struct super_block *);
 765:/mnt/c/Users/31740/Desktop/newcore/include/linux/fs.h **** 	int  (*show_options)        (struct seq_file *, struct dentry *);
 766:/mnt/c/Users/31740/Desktop/newcore/include/linux/fs.h **** 	int  (*show_devname)        (struct seq_file *, struct dentry *);
 767:/mnt/c/Users/31740/Desktop/newcore/include/linux/fs.h **** 	int  (*show_path)           (struct seq_file *, struct dentry *);
 768:/mnt/c/Users/31740/Desktop/newcore/include/linux/fs.h **** 	int  (*show_stats)          (struct seq_file *, struct dentry *);
 769:/mnt/c/Users/31740/Desktop/newcore/include/linux/fs.h **** 
 770:/mnt/c/Users/31740/Desktop/newcore/include/linux/fs.h **** #ifdef CONFIG_QUOTA
 771:/mnt/c/Users/31740/Desktop/newcore/include/linux/fs.h **** 	ssize_t (*quota_read)(struct super_block *, int, char *, size_t, loff_t);
 772:/mnt/c/Users/31740/Desktop/newcore/include/linux/fs.h **** 	ssize_t (*quota_write)(struct super_block *, int, const char *, size_t, loff_t);
 773:/mnt/c/Users/31740/Desktop/newcore/include/linux/fs.h **** 	struct dquot __rcu **(*get_dquots)(struct inode *);
ARM GAS  /tmp/ccD8NFOg.s 			page 36


 774:/mnt/c/Users/31740/Desktop/newcore/include/linux/fs.h **** #endif
 775:/mnt/c/Users/31740/Desktop/newcore/include/linux/fs.h **** 
 776:/mnt/c/Users/31740/Desktop/newcore/include/linux/fs.h **** 	long (*nr_cached_objects)(struct super_block *,struct shrink_control *);
 777:/mnt/c/Users/31740/Desktop/newcore/include/linux/fs.h **** 	long (*free_cached_objects)(struct super_block *,struct shrink_control *);
 778:/mnt/c/Users/31740/Desktop/newcore/include/linux/fs.h **** 	void (*shutdown)(struct super_block *sb);
 779:/mnt/c/Users/31740/Desktop/newcore/include/linux/fs.h **** };
 780:/mnt/c/Users/31740/Desktop/newcore/include/linux/fs.h **** 
 781:/mnt/c/Users/31740/Desktop/newcore/include/linux/fs.h **** 
 782:/mnt/c/Users/31740/Desktop/newcore/include/linux/fs.h **** 
 783:/mnt/c/Users/31740/Desktop/newcore/include/linux/fs.h **** /********************************************************
 784:/mnt/c/Users/31740/Desktop/newcore/include/linux/fs.h ****  * 														*
 785:/mnt/c/Users/31740/Desktop/newcore/include/linux/fs.h ****  * 			       dquot_operations						*
 786:/mnt/c/Users/31740/Desktop/newcore/include/linux/fs.h ****  *														* 
 787:/mnt/c/Users/31740/Desktop/newcore/include/linux/fs.h **** *********************************************************/
 788:/mnt/c/Users/31740/Desktop/newcore/include/linux/fs.h **** 
 789:/mnt/c/Users/31740/Desktop/newcore/include/linux/fs.h **** typedef __kernel_uid32_t 	qid_t; /* Type in which we store ids in memory */
 790:/mnt/c/Users/31740/Desktop/newcore/include/linux/fs.h **** typedef long long 			qsize_t;	/* Type in which we store sizes */
 791:/mnt/c/Users/31740/Desktop/newcore/include/linux/fs.h **** 
 792:/mnt/c/Users/31740/Desktop/newcore/include/linux/fs.h **** #undef USRQUOTA
 793:/mnt/c/Users/31740/Desktop/newcore/include/linux/fs.h **** #undef GRPQUOTA
 794:/mnt/c/Users/31740/Desktop/newcore/include/linux/fs.h **** #undef PRJQUOTA
 795:/mnt/c/Users/31740/Desktop/newcore/include/linux/fs.h **** enum quota_type {
 796:/mnt/c/Users/31740/Desktop/newcore/include/linux/fs.h **** 	USRQUOTA = 0,		/* element used for user quotas */
 797:/mnt/c/Users/31740/Desktop/newcore/include/linux/fs.h **** 	GRPQUOTA = 1,		/* element used for group quotas */
 798:/mnt/c/Users/31740/Desktop/newcore/include/linux/fs.h **** 	PRJQUOTA = 2,		/* element used for project quotas */
 799:/mnt/c/Users/31740/Desktop/newcore/include/linux/fs.h **** };
 800:/mnt/c/Users/31740/Desktop/newcore/include/linux/fs.h **** 
 801:/mnt/c/Users/31740/Desktop/newcore/include/linux/fs.h **** struct kqid {			/* Type in which we store the quota identifier */
 802:/mnt/c/Users/31740/Desktop/newcore/include/linux/fs.h **** 	union {
 803:/mnt/c/Users/31740/Desktop/newcore/include/linux/fs.h **** 		kuid_t uid;
 804:/mnt/c/Users/31740/Desktop/newcore/include/linux/fs.h **** 		kgid_t gid;
 805:/mnt/c/Users/31740/Desktop/newcore/include/linux/fs.h **** 		kprojid_t projid;
 806:/mnt/c/Users/31740/Desktop/newcore/include/linux/fs.h **** 	};
 807:/mnt/c/Users/31740/Desktop/newcore/include/linux/fs.h **** 	enum quota_type type;  /* USRQUOTA (uid) or GRPQUOTA (gid) or PRJQUOTA (projid) */
 808:/mnt/c/Users/31740/Desktop/newcore/include/linux/fs.h **** };
 809:/mnt/c/Users/31740/Desktop/newcore/include/linux/fs.h **** 
 810:/mnt/c/Users/31740/Desktop/newcore/include/linux/fs.h **** struct mem_dqblk {
 811:/mnt/c/Users/31740/Desktop/newcore/include/linux/fs.h **** 	qsize_t dqb_bhardlimit;	/* absolute limit on disk blks alloc */
 812:/mnt/c/Users/31740/Desktop/newcore/include/linux/fs.h **** 	qsize_t dqb_bsoftlimit;	/* preferred limit on disk blks */
 813:/mnt/c/Users/31740/Desktop/newcore/include/linux/fs.h **** 	qsize_t dqb_curspace;	/* current used space */
 814:/mnt/c/Users/31740/Desktop/newcore/include/linux/fs.h **** 	qsize_t dqb_rsvspace;   /* current reserved space for delalloc*/
 815:/mnt/c/Users/31740/Desktop/newcore/include/linux/fs.h **** 	qsize_t dqb_ihardlimit;	/* absolute limit on allocated inodes */
 816:/mnt/c/Users/31740/Desktop/newcore/include/linux/fs.h **** 	qsize_t dqb_isoftlimit;	/* preferred inode limit */
 817:/mnt/c/Users/31740/Desktop/newcore/include/linux/fs.h **** 	qsize_t dqb_curinodes;	/* current # allocated inodes */
 818:/mnt/c/Users/31740/Desktop/newcore/include/linux/fs.h **** 	time64_t dqb_btime;	/* time limit for excessive disk use */
 819:/mnt/c/Users/31740/Desktop/newcore/include/linux/fs.h **** 	time64_t dqb_itime;	/* time limit for excessive inode use */
 820:/mnt/c/Users/31740/Desktop/newcore/include/linux/fs.h **** };
 821:/mnt/c/Users/31740/Desktop/newcore/include/linux/fs.h **** 
 822:/mnt/c/Users/31740/Desktop/newcore/include/linux/fs.h **** struct dquot {
 823:/mnt/c/Users/31740/Desktop/newcore/include/linux/fs.h **** 	struct hlist_node dq_hash;	/* Hash list in memory [dq_list_lock] */
 824:/mnt/c/Users/31740/Desktop/newcore/include/linux/fs.h **** 	struct list_head dq_inuse;	/* List of all quotas [dq_list_lock] */
 825:/mnt/c/Users/31740/Desktop/newcore/include/linux/fs.h **** 	struct list_head dq_free;	/* Free list element [dq_list_lock] */
 826:/mnt/c/Users/31740/Desktop/newcore/include/linux/fs.h **** 	struct list_head dq_dirty;	/* List of dirty dquots [dq_list_lock] */
 827:/mnt/c/Users/31740/Desktop/newcore/include/linux/fs.h **** 	struct mutex dq_lock;		/* dquot IO lock */
 828:/mnt/c/Users/31740/Desktop/newcore/include/linux/fs.h **** //	spinlock_t dq_dqb_lock;		/* Lock protecting dq_dqb changes */
 829:/mnt/c/Users/31740/Desktop/newcore/include/linux/fs.h **** 	atomic_t dq_count;		/* Use count */
 830:/mnt/c/Users/31740/Desktop/newcore/include/linux/fs.h **** 	struct super_block *dq_sb;	/* superblock this applies to */
ARM GAS  /tmp/ccD8NFOg.s 			page 37


 831:/mnt/c/Users/31740/Desktop/newcore/include/linux/fs.h **** 	struct kqid dq_id;		/* ID this applies to (uid, gid, projid) */
 832:/mnt/c/Users/31740/Desktop/newcore/include/linux/fs.h **** 	loff_t dq_off;			/* Offset of dquot on disk [dq_lock, stable once set] */
 833:/mnt/c/Users/31740/Desktop/newcore/include/linux/fs.h **** 	unsigned long dq_flags;		/* See DQ_* */
 834:/mnt/c/Users/31740/Desktop/newcore/include/linux/fs.h **** 	struct mem_dqblk dq_dqb;	/* Diskquota usage [dq_dqb_lock] */
 835:/mnt/c/Users/31740/Desktop/newcore/include/linux/fs.h **** };
 836:/mnt/c/Users/31740/Desktop/newcore/include/linux/fs.h **** 
 837:/mnt/c/Users/31740/Desktop/newcore/include/linux/fs.h **** /* Operations which must be implemented by each quota format */
 838:/mnt/c/Users/31740/Desktop/newcore/include/linux/fs.h **** 
 839:/mnt/c/Users/31740/Desktop/newcore/include/linux/fs.h **** struct quota_format_ops {
 840:/mnt/c/Users/31740/Desktop/newcore/include/linux/fs.h **** 	int (*check_quota_file)(struct super_block *sb, int type);	/* Detect whether file is in our format
 841:/mnt/c/Users/31740/Desktop/newcore/include/linux/fs.h **** 	int (*read_file_info)(struct super_block *sb, int type);	/* Read main info about file - called on 
 842:/mnt/c/Users/31740/Desktop/newcore/include/linux/fs.h **** 	int (*write_file_info)(struct super_block *sb, int type);	/* Write main info about file */
 843:/mnt/c/Users/31740/Desktop/newcore/include/linux/fs.h **** 	int (*free_file_info)(struct super_block *sb, int type);	/* Called on quotaoff() */
 844:/mnt/c/Users/31740/Desktop/newcore/include/linux/fs.h **** 	int (*read_dqblk)(struct dquot *dquot);		/* Read structure for one user */
 845:/mnt/c/Users/31740/Desktop/newcore/include/linux/fs.h **** 	int (*commit_dqblk)(struct dquot *dquot);	/* Write structure for one user */
 846:/mnt/c/Users/31740/Desktop/newcore/include/linux/fs.h **** 	int (*release_dqblk)(struct dquot *dquot);	/* Called when last reference to dquot is being dropped
 847:/mnt/c/Users/31740/Desktop/newcore/include/linux/fs.h **** 	int (*get_next_id)(struct super_block *sb, struct kqid *qid);	/* Get next ID with existing structu
 848:/mnt/c/Users/31740/Desktop/newcore/include/linux/fs.h **** };
 849:/mnt/c/Users/31740/Desktop/newcore/include/linux/fs.h **** 
 850:/mnt/c/Users/31740/Desktop/newcore/include/linux/fs.h **** struct dquot_operations {
 851:/mnt/c/Users/31740/Desktop/newcore/include/linux/fs.h **** 	int (*write_dquot) (struct dquot *);		/* Ordinary dquot write */
 852:/mnt/c/Users/31740/Desktop/newcore/include/linux/fs.h **** 	struct dquot *(*alloc_dquot)(struct super_block *, int);	/* Allocate memory for new dquot */
 853:/mnt/c/Users/31740/Desktop/newcore/include/linux/fs.h **** 	void (*destroy_dquot)(struct dquot *);		/* Free memory for dquot */
 854:/mnt/c/Users/31740/Desktop/newcore/include/linux/fs.h **** 	int (*acquire_dquot) (struct dquot *);		/* Quota is going to be created on disk */
 855:/mnt/c/Users/31740/Desktop/newcore/include/linux/fs.h **** 	int (*release_dquot) (struct dquot *);		/* Quota is going to be deleted from disk */
 856:/mnt/c/Users/31740/Desktop/newcore/include/linux/fs.h **** 	int (*mark_dirty) (struct dquot *);		/* Dquot is marked dirty */
 857:/mnt/c/Users/31740/Desktop/newcore/include/linux/fs.h **** 	int (*write_info) (struct super_block *, int);	/* Write of quota "superblock" */
 858:/mnt/c/Users/31740/Desktop/newcore/include/linux/fs.h **** 	/* get reserved quota for delayed alloc, value returned is managed by
 859:/mnt/c/Users/31740/Desktop/newcore/include/linux/fs.h **** 	 * quota code only */
 860:/mnt/c/Users/31740/Desktop/newcore/include/linux/fs.h **** 	qsize_t *(*get_reserved_space) (struct inode *);
 861:/mnt/c/Users/31740/Desktop/newcore/include/linux/fs.h **** 	int (*get_projid) (struct inode *, kprojid_t *);/* Get project ID */
 862:/mnt/c/Users/31740/Desktop/newcore/include/linux/fs.h **** 	/* Get number of inodes that were charged for a given inode */
 863:/mnt/c/Users/31740/Desktop/newcore/include/linux/fs.h **** 	int (*get_inode_usage) (struct inode *, qsize_t *);
 864:/mnt/c/Users/31740/Desktop/newcore/include/linux/fs.h **** 	/* Get next ID with active quota structure */
 865:/mnt/c/Users/31740/Desktop/newcore/include/linux/fs.h **** 	int (*get_next_id) (struct super_block *sb, struct kqid *qid);
 866:/mnt/c/Users/31740/Desktop/newcore/include/linux/fs.h **** };
 867:/mnt/c/Users/31740/Desktop/newcore/include/linux/fs.h **** 
 868:/mnt/c/Users/31740/Desktop/newcore/include/linux/fs.h **** /********************************************************
 869:/mnt/c/Users/31740/Desktop/newcore/include/linux/fs.h ****  * 														*
 870:/mnt/c/Users/31740/Desktop/newcore/include/linux/fs.h ****  * 			       file_system_type						*
 871:/mnt/c/Users/31740/Desktop/newcore/include/linux/fs.h ****  *														* 
 872:/mnt/c/Users/31740/Desktop/newcore/include/linux/fs.h **** *********************************************************/
 873:/mnt/c/Users/31740/Desktop/newcore/include/linux/fs.h **** 
 874:/mnt/c/Users/31740/Desktop/newcore/include/linux/fs.h **** struct fs_parameter_spec {
 875:/mnt/c/Users/31740/Desktop/newcore/include/linux/fs.h **** 	const char		*name;
 876:/mnt/c/Users/31740/Desktop/newcore/include/linux/fs.h **** //	fs_param_type		*type;	/* The desired parameter type */
 877:/mnt/c/Users/31740/Desktop/newcore/include/linux/fs.h **** 	u8			opt;	/* Option number (returned by fs_parse()) */
 878:/mnt/c/Users/31740/Desktop/newcore/include/linux/fs.h **** 	unsigned short		flags;
 879:/mnt/c/Users/31740/Desktop/newcore/include/linux/fs.h **** #define fs_param_neg_with_no	0x0002	/* "noxxx" is negative param */
 880:/mnt/c/Users/31740/Desktop/newcore/include/linux/fs.h **** #define fs_param_can_be_empty	0x0004	/* "xxx=" is allowed */
 881:/mnt/c/Users/31740/Desktop/newcore/include/linux/fs.h **** #define fs_param_deprecated	0x0008	/* The param is deprecated */
 882:/mnt/c/Users/31740/Desktop/newcore/include/linux/fs.h **** 	const void		*data;
 883:/mnt/c/Users/31740/Desktop/newcore/include/linux/fs.h **** };
 884:/mnt/c/Users/31740/Desktop/newcore/include/linux/fs.h **** 
 885:/mnt/c/Users/31740/Desktop/newcore/include/linux/fs.h **** 
 886:/mnt/c/Users/31740/Desktop/newcore/include/linux/fs.h **** struct file_system_type {
 887:/mnt/c/Users/31740/Desktop/newcore/include/linux/fs.h **** 	const char *name;
ARM GAS  /tmp/ccD8NFOg.s 			page 38


 888:/mnt/c/Users/31740/Desktop/newcore/include/linux/fs.h **** 	int fs_flags;
 889:/mnt/c/Users/31740/Desktop/newcore/include/linux/fs.h **** #define FS_REQUIRES_DEV		1 
 890:/mnt/c/Users/31740/Desktop/newcore/include/linux/fs.h **** #define FS_BINARY_MOUNTDATA	2
 891:/mnt/c/Users/31740/Desktop/newcore/include/linux/fs.h **** #define FS_HAS_SUBTYPE		4
 892:/mnt/c/Users/31740/Desktop/newcore/include/linux/fs.h **** #define FS_USERNS_MOUNT		8	/* Can be mounted by userns root */
 893:/mnt/c/Users/31740/Desktop/newcore/include/linux/fs.h **** #define FS_DISALLOW_NOTIFY_PERM	16	/* Disable fanotify permission events */
 894:/mnt/c/Users/31740/Desktop/newcore/include/linux/fs.h **** #define FS_ALLOW_IDMAP         32      /* FS has been updated to handle vfs idmappings. */
 895:/mnt/c/Users/31740/Desktop/newcore/include/linux/fs.h **** #define FS_MGTIME		64	/* FS uses multigrain timestamps */
 896:/mnt/c/Users/31740/Desktop/newcore/include/linux/fs.h **** #define FS_RENAME_DOES_D_MOVE	32768	/* FS will handle d_move() during rename() internally. */
 897:/mnt/c/Users/31740/Desktop/newcore/include/linux/fs.h **** 	int (*init_fs_context)(struct fs_context *);
 898:/mnt/c/Users/31740/Desktop/newcore/include/linux/fs.h **** 	const struct fs_parameter_spec *parameters;
 899:/mnt/c/Users/31740/Desktop/newcore/include/linux/fs.h **** 	struct dentry *(*mount) (struct file_system_type *, int,
 900:/mnt/c/Users/31740/Desktop/newcore/include/linux/fs.h **** 		       const char *, void *);
 901:/mnt/c/Users/31740/Desktop/newcore/include/linux/fs.h **** 	void (*kill_sb) (struct super_block *);
 902:/mnt/c/Users/31740/Desktop/newcore/include/linux/fs.h **** 	void *owner;
 903:/mnt/c/Users/31740/Desktop/newcore/include/linux/fs.h **** 	struct file_system_type * next;
 904:/mnt/c/Users/31740/Desktop/newcore/include/linux/fs.h **** 	struct hlist_head fs_supers;
 905:/mnt/c/Users/31740/Desktop/newcore/include/linux/fs.h **** 
 906:/mnt/c/Users/31740/Desktop/newcore/include/linux/fs.h **** 	struct lock_class_key s_lock_key;
 907:/mnt/c/Users/31740/Desktop/newcore/include/linux/fs.h **** 	struct lock_class_key s_umount_key;
 908:/mnt/c/Users/31740/Desktop/newcore/include/linux/fs.h **** 	struct lock_class_key s_vfs_rename_key;
 909:/mnt/c/Users/31740/Desktop/newcore/include/linux/fs.h **** 	struct lock_class_key s_writers_key[SB_FREEZE_LEVELS];
 910:/mnt/c/Users/31740/Desktop/newcore/include/linux/fs.h **** 	struct lock_class_key i_lock_key;
 911:/mnt/c/Users/31740/Desktop/newcore/include/linux/fs.h **** 	struct lock_class_key i_mutex_key;
 912:/mnt/c/Users/31740/Desktop/newcore/include/linux/fs.h **** 	struct lock_class_key invalidate_lock_key;
 913:/mnt/c/Users/31740/Desktop/newcore/include/linux/fs.h **** 	struct lock_class_key i_mutex_dir_key;
 914:/mnt/c/Users/31740/Desktop/newcore/include/linux/fs.h **** };
 915:/mnt/c/Users/31740/Desktop/newcore/include/linux/fs.h **** 
 916:/mnt/c/Users/31740/Desktop/newcore/include/linux/fs.h **** 
 917:/mnt/c/Users/31740/Desktop/newcore/include/linux/fs.h **** 
 918:/mnt/c/Users/31740/Desktop/newcore/include/linux/fs.h **** extern int register_filesystem(struct file_system_type *);
 919:/mnt/c/Users/31740/Desktop/newcore/include/linux/fs.h **** extern int unregister_filesystem(struct file_system_type *);
 920:/mnt/c/Users/31740/Desktop/newcore/include/linux/fs.h **** extern struct file_system_type *lookup_fs_type(const char *name);
 921:/mnt/c/Users/31740/Desktop/newcore/include/linux/fs.h **** 
 922:/mnt/c/Users/31740/Desktop/newcore/include/linux/fs.h **** /*--------------------------------------------------------------------------*/
 923:/mnt/c/Users/31740/Desktop/newcore/include/linux/fs.h **** static inline bool is_sync_kiocb(struct kiocb *kiocb){
 924:/mnt/c/Users/31740/Desktop/newcore/include/linux/fs.h **** 	return kiocb->ki_complete == NULL;
 925:/mnt/c/Users/31740/Desktop/newcore/include/linux/fs.h **** }
 926:/mnt/c/Users/31740/Desktop/newcore/include/linux/fs.h **** static inline struct inode *file_inode(const struct file *f){
 927:/mnt/c/Users/31740/Desktop/newcore/include/linux/fs.h **** 	return f->f_inode;
 928:/mnt/c/Users/31740/Desktop/newcore/include/linux/fs.h **** }
 929:/mnt/c/Users/31740/Desktop/newcore/include/linux/fs.h **** /*--------------------------------------------------------------------------*/
 930:/mnt/c/Users/31740/Desktop/newcore/include/linux/fs.h **** 
 931:/mnt/c/Users/31740/Desktop/newcore/include/linux/fs.h **** extern int remove_dentry(char* path);
 932:/mnt/c/Users/31740/Desktop/newcore/include/linux/fs.h **** extern struct file *filp_open(const char * path, int flags, umode_t mode);
 933:/mnt/c/Users/31740/Desktop/newcore/include/linux/fs.h **** extern ssize_t kernel_read(struct file *file, void * buf, size_t count, loff_t *ppos);
 934:/mnt/c/Users/31740/Desktop/newcore/include/linux/fs.h **** extern ssize_t kernel_write(struct file *file,const void * buf, size_t count, loff_t *ppos);
 935:/mnt/c/Users/31740/Desktop/newcore/include/linux/fs.h **** extern long vfs_ioctl(struct file *file, unsigned int cmd, unsigned long arg);
 936:/mnt/c/Users/31740/Desktop/newcore/include/linux/fs.h **** extern int file_close(struct file *file, fl_owner_t id);
 937:/mnt/c/Users/31740/Desktop/newcore/include/linux/fs.h **** 
 938:/mnt/c/Users/31740/Desktop/newcore/include/linux/fs.h **** 
 939:/mnt/c/Users/31740/Desktop/newcore/include/linux/fs.h **** 
 940:/mnt/c/Users/31740/Desktop/newcore/include/linux/fs.h **** /* fs/char_dev.c */
 941:/mnt/c/Users/31740/Desktop/newcore/include/linux/fs.h **** #define CHRDEV_MAJOR_MAX 512
 942:/mnt/c/Users/31740/Desktop/newcore/include/linux/fs.h **** /* Marks the bottom of the first segment of free char majors */
 943:/mnt/c/Users/31740/Desktop/newcore/include/linux/fs.h **** #define CHRDEV_MAJOR_DYN_END 234
 944:/mnt/c/Users/31740/Desktop/newcore/include/linux/fs.h **** /* Marks the top and bottom of the second segment of free char majors */
ARM GAS  /tmp/ccD8NFOg.s 			page 39


 945:/mnt/c/Users/31740/Desktop/newcore/include/linux/fs.h **** #define CHRDEV_MAJOR_DYN_EXT_START 511
 946:/mnt/c/Users/31740/Desktop/newcore/include/linux/fs.h **** #define CHRDEV_MAJOR_DYN_EXT_END 384
 947:/mnt/c/Users/31740/Desktop/newcore/include/linux/fs.h **** 
 948:/mnt/c/Users/31740/Desktop/newcore/include/linux/fs.h **** 
 949:/mnt/c/Users/31740/Desktop/newcore/include/linux/fs.h **** 
 950:/mnt/c/Users/31740/Desktop/newcore/include/linux/fs.h **** extern int alloc_chrdev_region(dev_t *, unsigned, unsigned, const char *);
 951:/mnt/c/Users/31740/Desktop/newcore/include/linux/fs.h **** extern int register_chrdev_region(dev_t, unsigned, const char *);
 952:/mnt/c/Users/31740/Desktop/newcore/include/linux/fs.h **** extern int __register_chrdev(unsigned int major, unsigned int baseminor,
 953:/mnt/c/Users/31740/Desktop/newcore/include/linux/fs.h ****     unsigned int count, const char *name,
 954:/mnt/c/Users/31740/Desktop/newcore/include/linux/fs.h ****     const struct file_operations *fops);
 955:/mnt/c/Users/31740/Desktop/newcore/include/linux/fs.h **** extern void __unregister_chrdev(unsigned int major, unsigned int baseminor,
 956:/mnt/c/Users/31740/Desktop/newcore/include/linux/fs.h **** 		unsigned int count, const char *name);
 957:/mnt/c/Users/31740/Desktop/newcore/include/linux/fs.h **** extern void unregister_chrdev_region(dev_t, unsigned);
 958:/mnt/c/Users/31740/Desktop/newcore/include/linux/fs.h **** 
 959:/mnt/c/Users/31740/Desktop/newcore/include/linux/fs.h **** static inline int register_chrdev(unsigned int major, const char *name,
 889              		.loc 3 959 19 is_stmt 1 view .LVU214
 890              	.LBB13:
 960:/mnt/c/Users/31740/Desktop/newcore/include/linux/fs.h **** 	const struct file_operations *fops)
 961:/mnt/c/Users/31740/Desktop/newcore/include/linux/fs.h **** {
 962:/mnt/c/Users/31740/Desktop/newcore/include/linux/fs.h **** return __register_chrdev(major, 0, 256, name, fops);
 891              		.loc 3 962 1 view .LVU215
 892              		.loc 3 962 8 is_stmt 0 view .LVU216
 893 0018 1C4D     		ldr	r5, .L65+16
 894 001a 1D4B     		ldr	r3, .L65+20
 895 001c 0093     		str	r3, [sp]
 896 001e 2B46     		mov	r3, r5
 897 0020 4FF48072 		mov	r2, #256
 898 0024 2146     		mov	r1, r4
 899 0026 3068     		ldr	r0, [r6]
 900 0028 FFF7FEFF 		bl	__register_chrdev
 901              	.LVL44:
 902              		.loc 3 962 8 view .LVU217
 903 002c 0246     		mov	r2, r0
 904              	.LVL45:
 905              		.loc 3 962 8 view .LVU218
 906              	.LBE13:
 907              	.LBE12:
 908              		.loc 1 204 11 discriminator 1 view .LVU219
 909 002e 3060     		str	r0, [r6]
 205:/mnt/c/Users/31740/Desktop/newcore/drivers/tty/stm32f4_tty0.c ****     if(major < 0){
 910              		.loc 1 205 5 is_stmt 1 view .LVU220
 206:/mnt/c/Users/31740/Desktop/newcore/drivers/tty/stm32f4_tty0.c ****         pr_info("can not get major:(%d)\n",major);
 207:/mnt/c/Users/31740/Desktop/newcore/drivers/tty/stm32f4_tty0.c ****     }
 208:/mnt/c/Users/31740/Desktop/newcore/drivers/tty/stm32f4_tty0.c ****     pr_info("register ttyS0 (%d)\n",major);
 911              		.loc 1 208 5 view .LVU221
 912 0030 1849     		ldr	r1, .L65+24
 913 0032 0620     		movs	r0, #6
 914 0034 FFF7FEFF 		bl	printk
 915              	.LVL46:
 209:/mnt/c/Users/31740/Desktop/newcore/drivers/tty/stm32f4_tty0.c **** 
 210:/mnt/c/Users/31740/Desktop/newcore/drivers/tty/stm32f4_tty0.c ****     struct class * tty_dev = class_create(THIS_MODULE,"ttyS0");
 916              		.loc 1 210 5 view .LVU222
 917              		.loc 1 210 30 is_stmt 0 view .LVU223
 918 0038 2946     		mov	r1, r5
 919 003a 2046     		mov	r0, r4
 920 003c FFF7FEFF 		bl	class_create
 921              	.LVL47:
ARM GAS  /tmp/ccD8NFOg.s 			page 40


 922 0040 0446     		mov	r4, r0
 923              	.LVL48:
 211:/mnt/c/Users/31740/Desktop/newcore/drivers/tty/stm32f4_tty0.c ****     if(IS_ERR(tty_dev)){
 924              		.loc 1 211 5 is_stmt 1 view .LVU224
 925              	.LBB14:
 926              	.LBI14:
 927              		.file 4 "/mnt/c/Users/31740/Desktop/newcore/include/linux/err.h"
   1:/mnt/c/Users/31740/Desktop/newcore/include/linux/err.h **** /* SPDX-License-Identifier: GPL-2.0 */
   2:/mnt/c/Users/31740/Desktop/newcore/include/linux/err.h **** #ifndef _LINUX_ERR_H
   3:/mnt/c/Users/31740/Desktop/newcore/include/linux/err.h **** #define _LINUX_ERR_H
   4:/mnt/c/Users/31740/Desktop/newcore/include/linux/err.h **** 
   5:/mnt/c/Users/31740/Desktop/newcore/include/linux/err.h **** #include <linux/compiler_attributes.h>
   6:/mnt/c/Users/31740/Desktop/newcore/include/linux/err.h **** #include <linux/compiler.h>
   7:/mnt/c/Users/31740/Desktop/newcore/include/linux/err.h **** #include <linux/types.h>
   8:/mnt/c/Users/31740/Desktop/newcore/include/linux/err.h **** 
   9:/mnt/c/Users/31740/Desktop/newcore/include/linux/err.h **** #include <asm/errno.h>
  10:/mnt/c/Users/31740/Desktop/newcore/include/linux/err.h **** 
  11:/mnt/c/Users/31740/Desktop/newcore/include/linux/err.h **** /*
  12:/mnt/c/Users/31740/Desktop/newcore/include/linux/err.h ****  * Kernel pointers have redundant information, so we can use a
  13:/mnt/c/Users/31740/Desktop/newcore/include/linux/err.h ****  * scheme where we can return either an error code or a normal
  14:/mnt/c/Users/31740/Desktop/newcore/include/linux/err.h ****  * pointer with the same return value.
  15:/mnt/c/Users/31740/Desktop/newcore/include/linux/err.h ****  *
  16:/mnt/c/Users/31740/Desktop/newcore/include/linux/err.h ****  * This should be a per-architecture thing, to allow different
  17:/mnt/c/Users/31740/Desktop/newcore/include/linux/err.h ****  * error and pointer decisions.
  18:/mnt/c/Users/31740/Desktop/newcore/include/linux/err.h ****  */
  19:/mnt/c/Users/31740/Desktop/newcore/include/linux/err.h **** #define MAX_ERRNO	4095
  20:/mnt/c/Users/31740/Desktop/newcore/include/linux/err.h **** 
  21:/mnt/c/Users/31740/Desktop/newcore/include/linux/err.h **** #ifndef __ASSEMBLY__
  22:/mnt/c/Users/31740/Desktop/newcore/include/linux/err.h **** 
  23:/mnt/c/Users/31740/Desktop/newcore/include/linux/err.h **** /**
  24:/mnt/c/Users/31740/Desktop/newcore/include/linux/err.h ****  * IS_ERR_VALUE - Detect an error pointer.
  25:/mnt/c/Users/31740/Desktop/newcore/include/linux/err.h ****  * @x: The pointer to check.
  26:/mnt/c/Users/31740/Desktop/newcore/include/linux/err.h ****  *
  27:/mnt/c/Users/31740/Desktop/newcore/include/linux/err.h ****  * Like IS_ERR(), but does not generate a compiler warning if result is unused.
  28:/mnt/c/Users/31740/Desktop/newcore/include/linux/err.h ****  */
  29:/mnt/c/Users/31740/Desktop/newcore/include/linux/err.h **** 
  30:/mnt/c/Users/31740/Desktop/newcore/include/linux/err.h **** #ifndef unlikely
  31:/mnt/c/Users/31740/Desktop/newcore/include/linux/err.h **** #  define unlikely(x) __builtin_expect(!!(x), 0)
  32:/mnt/c/Users/31740/Desktop/newcore/include/linux/err.h **** #endif
  33:/mnt/c/Users/31740/Desktop/newcore/include/linux/err.h **** 
  34:/mnt/c/Users/31740/Desktop/newcore/include/linux/err.h **** #ifndef likely
  35:/mnt/c/Users/31740/Desktop/newcore/include/linux/err.h **** #  define likely(x) __builtin_expect(!!(x), 1)
  36:/mnt/c/Users/31740/Desktop/newcore/include/linux/err.h **** #endif
  37:/mnt/c/Users/31740/Desktop/newcore/include/linux/err.h **** 
  38:/mnt/c/Users/31740/Desktop/newcore/include/linux/err.h **** #define IS_ERR_VALUE(x) unlikely((unsigned long)(void *)(x) >= (unsigned long)-MAX_ERRNO)
  39:/mnt/c/Users/31740/Desktop/newcore/include/linux/err.h **** 
  40:/mnt/c/Users/31740/Desktop/newcore/include/linux/err.h **** /**
  41:/mnt/c/Users/31740/Desktop/newcore/include/linux/err.h ****  * ERR_PTR - Create an error pointer.
  42:/mnt/c/Users/31740/Desktop/newcore/include/linux/err.h ****  * @error: A negative error code.
  43:/mnt/c/Users/31740/Desktop/newcore/include/linux/err.h ****  *
  44:/mnt/c/Users/31740/Desktop/newcore/include/linux/err.h ****  * Encodes @error into a pointer value. Users should consider the result
  45:/mnt/c/Users/31740/Desktop/newcore/include/linux/err.h ****  * opaque and not assume anything about how the error is encoded.
  46:/mnt/c/Users/31740/Desktop/newcore/include/linux/err.h ****  *
  47:/mnt/c/Users/31740/Desktop/newcore/include/linux/err.h ****  * Return: A pointer with @error encoded within its value.
  48:/mnt/c/Users/31740/Desktop/newcore/include/linux/err.h ****  */
  49:/mnt/c/Users/31740/Desktop/newcore/include/linux/err.h **** static inline void * __must_check ERR_PTR(long error)
  50:/mnt/c/Users/31740/Desktop/newcore/include/linux/err.h **** {
ARM GAS  /tmp/ccD8NFOg.s 			page 41


  51:/mnt/c/Users/31740/Desktop/newcore/include/linux/err.h **** 	return (void *) error;
  52:/mnt/c/Users/31740/Desktop/newcore/include/linux/err.h **** }
  53:/mnt/c/Users/31740/Desktop/newcore/include/linux/err.h **** 
  54:/mnt/c/Users/31740/Desktop/newcore/include/linux/err.h **** /* Return the pointer in the percpu address space. */
  55:/mnt/c/Users/31740/Desktop/newcore/include/linux/err.h **** #define ERR_PTR_PCPU(error) ((void __percpu *)(unsigned long)ERR_PTR(error))
  56:/mnt/c/Users/31740/Desktop/newcore/include/linux/err.h **** 
  57:/mnt/c/Users/31740/Desktop/newcore/include/linux/err.h **** /**
  58:/mnt/c/Users/31740/Desktop/newcore/include/linux/err.h ****  * PTR_ERR - Extract the error code from an error pointer.
  59:/mnt/c/Users/31740/Desktop/newcore/include/linux/err.h ****  * @ptr: An error pointer.
  60:/mnt/c/Users/31740/Desktop/newcore/include/linux/err.h ****  * Return: The error code within @ptr.
  61:/mnt/c/Users/31740/Desktop/newcore/include/linux/err.h ****  */
  62:/mnt/c/Users/31740/Desktop/newcore/include/linux/err.h **** static inline long __must_check PTR_ERR(__force const void *ptr)
  63:/mnt/c/Users/31740/Desktop/newcore/include/linux/err.h **** {
  64:/mnt/c/Users/31740/Desktop/newcore/include/linux/err.h **** 	return (long) ptr;
  65:/mnt/c/Users/31740/Desktop/newcore/include/linux/err.h **** }
  66:/mnt/c/Users/31740/Desktop/newcore/include/linux/err.h **** 
  67:/mnt/c/Users/31740/Desktop/newcore/include/linux/err.h **** /* Read an error pointer from the percpu address space. */
  68:/mnt/c/Users/31740/Desktop/newcore/include/linux/err.h **** #define PTR_ERR_PCPU(ptr) (PTR_ERR((const void *)(__force const unsigned long)(ptr)))
  69:/mnt/c/Users/31740/Desktop/newcore/include/linux/err.h **** 
  70:/mnt/c/Users/31740/Desktop/newcore/include/linux/err.h **** /**
  71:/mnt/c/Users/31740/Desktop/newcore/include/linux/err.h ****  * IS_ERR - Detect an error pointer.
  72:/mnt/c/Users/31740/Desktop/newcore/include/linux/err.h ****  * @ptr: The pointer to check.
  73:/mnt/c/Users/31740/Desktop/newcore/include/linux/err.h ****  * Return: true if @ptr is an error pointer, false otherwise.
  74:/mnt/c/Users/31740/Desktop/newcore/include/linux/err.h ****  */
  75:/mnt/c/Users/31740/Desktop/newcore/include/linux/err.h **** static inline bool __must_check IS_ERR(__force const void *ptr)
 928              		.loc 4 75 33 view .LVU225
 929              	.LBB15:
  76:/mnt/c/Users/31740/Desktop/newcore/include/linux/err.h **** {
  77:/mnt/c/Users/31740/Desktop/newcore/include/linux/err.h **** 	return IS_ERR_VALUE((unsigned long)ptr);
 930              		.loc 4 77 2 view .LVU226
 931              		.loc 4 77 9 is_stmt 0 view .LVU227
 932 0042 10F5805F 		cmn	r0, #4096
 933 0046 94BF     		ite	ls
 934 0048 0025     		movls	r5, #0
 935 004a 0125     		movhi	r5, #1
 936              	.LVL49:
 937              		.loc 4 77 9 view .LVU228
 938              	.LBE15:
 939              	.LBE14:
 940              		.loc 1 211 7 discriminator 1 view .LVU229
 941 004c 65B9     		cbnz	r5, .L63
 942              	.LVL50:
 943              	.L60:
 212:/mnt/c/Users/31740/Desktop/newcore/drivers/tty/stm32f4_tty0.c ****         pr_info("can not create tty class\n");
 213:/mnt/c/Users/31740/Desktop/newcore/drivers/tty/stm32f4_tty0.c ****     }
 214:/mnt/c/Users/31740/Desktop/newcore/drivers/tty/stm32f4_tty0.c ****     struct device * dev = device_create(tty_dev,NULL,major,NULL,"ttyS%d",0);
 944              		.loc 1 214 5 is_stmt 1 view .LVU230
 945              		.loc 1 214 27 is_stmt 0 view .LVU231
 946 004e 0021     		movs	r1, #0
 947 0050 0191     		str	r1, [sp, #4]
 948 0052 114B     		ldr	r3, .L65+28
 949 0054 0093     		str	r3, [sp]
 950 0056 0B46     		mov	r3, r1
 951 0058 0B4A     		ldr	r2, .L65+12
 952 005a 1268     		ldr	r2, [r2]
 953 005c 2046     		mov	r0, r4
 954 005e FFF7FEFF 		bl	device_create
ARM GAS  /tmp/ccD8NFOg.s 			page 42


 955              	.LVL51:
 215:/mnt/c/Users/31740/Desktop/newcore/drivers/tty/stm32f4_tty0.c ****     if(IS_ERR(tty_dev)){
 956              		.loc 1 215 5 is_stmt 1 view .LVU232
 957              		.loc 1 215 7 is_stmt 0 discriminator 1 view .LVU233
 958 0062 35B9     		cbnz	r5, .L64
 959              	.L61:
 216:/mnt/c/Users/31740/Desktop/newcore/drivers/tty/stm32f4_tty0.c ****         pr_info("can not create tty device\n");
 217:/mnt/c/Users/31740/Desktop/newcore/drivers/tty/stm32f4_tty0.c ****     }
 218:/mnt/c/Users/31740/Desktop/newcore/drivers/tty/stm32f4_tty0.c **** }
 960              		.loc 1 218 1 view .LVU234
 961 0064 02B0     		add	sp, sp, #8
 962              	.LCFI16:
 963              		.cfi_remember_state
 964              		.cfi_def_cfa_offset 16
 965              		@ sp needed
 966 0066 70BD     		pop	{r4, r5, r6, pc}
 967              	.LVL52:
 968              	.L63:
 969              	.LCFI17:
 970              		.cfi_restore_state
 212:/mnt/c/Users/31740/Desktop/newcore/drivers/tty/stm32f4_tty0.c ****     }
 971              		.loc 1 212 9 is_stmt 1 view .LVU235
 972 0068 0C49     		ldr	r1, .L65+32
 973 006a 0620     		movs	r0, #6
 974              	.LVL53:
 212:/mnt/c/Users/31740/Desktop/newcore/drivers/tty/stm32f4_tty0.c ****     }
 975              		.loc 1 212 9 is_stmt 0 view .LVU236
 976 006c FFF7FEFF 		bl	printk
 977              	.LVL54:
 978 0070 EDE7     		b	.L60
 979              	.L64:
 216:/mnt/c/Users/31740/Desktop/newcore/drivers/tty/stm32f4_tty0.c ****         pr_info("can not create tty device\n");
 980              		.loc 1 216 9 is_stmt 1 view .LVU237
 981 0072 0B49     		ldr	r1, .L65+36
 982 0074 0620     		movs	r0, #6
 983 0076 FFF7FEFF 		bl	printk
 984              	.LVL55:
 985 007a F3E7     		b	.L61
 986              	.L66:
 987              		.align	2
 988              	.L65:
 989 007c 00000000 		.word	.LC0
 990 0080 00000000 		.word	USART1_IRQHandler
 991 0084 00000000 		.word	irq_num
 992 0088 00000000 		.word	major
 993 008c 08000000 		.word	.LC1
 994 0090 00000000 		.word	tty_fop
 995 0094 10000000 		.word	.LC2
 996 0098 44000000 		.word	.LC4
 997 009c 28000000 		.word	.LC3
 998 00a0 4C000000 		.word	.LC5
 999              		.cfi_endproc
 1000              	.LFE1097:
 1002              		.section	.data.tty_fop,"aw"
 1003              		.align	2
 1006              	tty_fop:
 1007 0000 00000000 		.space	12
ARM GAS  /tmp/ccD8NFOg.s 			page 43


 1007      00000000 
 1007      00000000 
 1008 000c 00000000 		.word	tty_read
 1009 0010 00000000 		.word	tty_write
 1010 0014 00000000 		.space	32
 1010      00000000 
 1010      00000000 
 1010      00000000 
 1010      00000000 
 1011 0034 00000000 		.word	tty_open
 1012 0038 00000000 		.space	4
 1013 003c 00000000 		.word	tty_close
 1014 0040 00000000 		.space	72
 1014      00000000 
 1014      00000000 
 1014      00000000 
 1014      00000000 
 1015              		.section	.bss.usrat1_rx_index_front,"aw",%nobits
 1016              		.align	1
 1019              	usrat1_rx_index_front:
 1020 0000 0000     		.space	2
 1021              		.section	.bss.usrat1_rx_index_rear,"aw",%nobits
 1022              		.align	1
 1025              	usrat1_rx_index_rear:
 1026 0000 0000     		.space	2
 1027              		.section	.bss.usrat1_rx_buffer,"aw",%nobits
 1028              		.align	2
 1031              	usrat1_rx_buffer:
 1032 0000 00000000 		.space	1024
 1032      00000000 
 1032      00000000 
 1032      00000000 
 1032      00000000 
 1033              		.section	.bss.irq_num,"aw",%nobits
 1034              		.align	2
 1037              	irq_num:
 1038 0000 00000000 		.space	4
 1039              		.global	major
 1040              		.section	.bss.major,"aw",%nobits
 1041              		.align	2
 1044              	major:
 1045 0000 00000000 		.space	4
 1046              		.text
 1047              	.Letext0:
 1048              		.file 5 "/mnt/c/Users/31740/Desktop/newcore/include/linux/stdarg.h"
 1049              		.file 6 "/mnt/c/Users/31740/Desktop/newcore/include/asm-generic/int-l64.h"
 1050              		.file 7 "/mnt/c/Users/31740/Desktop/newcore/include/asm-generic/posix_types.h"
 1051              		.file 8 "/mnt/c/Users/31740/Desktop/newcore/include/uapi/linux/types.h"
 1052              		.file 9 "/mnt/c/Users/31740/Desktop/newcore/include/linux/types.h"
 1053              		.file 10 "/mnt/c/Users/31740/Desktop/newcore/include/linux/errseq.h"
 1054              		.file 11 "/mnt/c/Users/31740/Desktop/newcore/include/linux/time64.h"
 1055              		.file 12 "/mnt/c/Users/31740/Desktop/newcore/arch/arm_m/include/asm/spinlock.h"
 1056              		.file 13 "/mnt/c/Users/31740/Desktop/newcore/include/linux/spinlock_types_raw.h"
 1057              		.file 14 "/mnt/c/Users/31740/Desktop/newcore/include/linux/spinlock_types.h"
 1058              		.file 15 "/mnt/c/Users/31740/Desktop/newcore/include/linux/rbtree_types.h"
 1059              		.file 16 "/mnt/c/Users/31740/Desktop/newcore/include/linux/uidgid_types.h"
 1060              		.file 17 "/mnt/c/Users/31740/Desktop/newcore/include/linux/projid.h"
ARM GAS  /tmp/ccD8NFOg.s 			page 44


 1061              		.file 18 "/mnt/c/Users/31740/Desktop/newcore/include/linux/mnt_idmapping.h"
 1062              		.file 19 "/mnt/c/Users/31740/Desktop/newcore/include/linux/mutex.h"
 1063              		.file 20 "/mnt/c/Users/31740/Desktop/newcore/include/linux/uio.h"
 1064              		.file 21 "/mnt/c/Users/31740/Desktop/newcore/include/linux/wait.h"
 1065              		.file 22 "/mnt/c/Users/31740/Desktop/newcore/include/linux/xarray.h"
 1066              		.file 23 "/mnt/c/Users/31740/Desktop/newcore/include/linux/migrate_mode.h"
 1067              		.file 24 "/mnt/c/Users/31740/Desktop/newcore/include/linux/rw_hint.h"
 1068              		.file 25 "/mnt/c/Users/31740/Desktop/newcore/include/linux/reciprocal_div.h"
 1069              		.file 26 "/mnt/c/Users/31740/Desktop/newcore/include/linux/slab.h"
 1070              		.file 27 "/mnt/c/Users/31740/Desktop/newcore/include/linux/mm_type.h"
 1071              		.file 28 "/mnt/c/Users/31740/Desktop/newcore/include/linux/bvec.h"
 1072              		.file 29 "/mnt/c/Users/31740/Desktop/newcore/include/linux/blk_types.h"
 1073              		.file 30 "/mnt/c/Users/31740/Desktop/newcore/include/linux/blkdev.h"
 1074              		.file 31 "/mnt/c/Users/31740/Desktop/newcore/include/linux/bio.h"
 1075              		.file 32 "/mnt/c/Users/31740/Desktop/newcore/include/linux/mempool_super_haper.h"
 1076              		.file 33 "/mnt/c/Users/31740/Desktop/newcore/include/linux/mempool.h"
 1077              		.file 34 "/mnt/c/Users/31740/Desktop/newcore/include/linux/lockdep_types.h"
 1078              		.file 35 "/mnt/c/Users/31740/Desktop/newcore/include/linux/workqueue_types.h"
 1079              		.file 36 "/mnt/c/Users/31740/Desktop/newcore/include/linux/blk-mq.h"
 1080              		.file 37 "/mnt/c/Users/31740/Desktop/newcore/include/linux/dcache.h"
 1081              		.file 38 "/mnt/c/Users/31740/Desktop/newcore/include/uapi/linux/pr.h"
 1082              		.file 39 "/mnt/c/Users/31740/Desktop/newcore/include/linux/pr.h"
 1083              		.file 40 "/mnt/c/Users/31740/Desktop/newcore/include/linux/hdreg.h"
 1084              		.file 41 "/mnt/c/Users/31740/Desktop/newcore/include/linux/lockref.h"
 1085              		.file 42 "/mnt/c/Users/31740/Desktop/newcore/include/linux/path.h"
 1086              		.file 43 "/mnt/c/Users/31740/Desktop/newcore/include/linux/statfs.h"
 1087              		.file 44 "/mnt/c/Users/31740/Desktop/newcore/include/linux/stat.h"
 1088              		.file 45 "/mnt/c/Users/31740/Desktop/newcore/include/linux/device.h"
 1089              		.file 46 "/mnt/c/Users/31740/Desktop/newcore/include/linux/irqreturn.h"
 1090              		.file 47 "/mnt/c/Users/31740/Desktop/newcore/include/linux/interrupt.h"
 1091              		.file 48 "/mnt/c/Users/31740/Desktop/newcore/include/linux/sprintf.h"
 1092              		.file 49 "<built-in>"
 1093              		.file 50 "/mnt/c/Users/31740/Desktop/newcore/include/linux/of.h"
 1094              		.file 51 "/mnt/c/Users/31740/Desktop/newcore/include/linux/printk.h"
ARM GAS  /tmp/ccD8NFOg.s 			page 45

