ARM GAS  /tmp/ccCpc7T0.s 			page 1


   1              		.cpu cortex-m33
   2              		.arch armv8-m.main
   3              		.fpu fpv4-sp-d16
   4              		.arch_extension dsp
   5              		.eabi_attribute 27, 1
   6              		.eabi_attribute 28, 1
   7              		.eabi_attribute 20, 1
   8              		.eabi_attribute 21, 1
   9              		.eabi_attribute 23, 3
  10              		.eabi_attribute 24, 1
  11              		.eabi_attribute 25, 1
  12              		.eabi_attribute 26, 1
  13              		.eabi_attribute 30, 1
  14              		.eabi_attribute 34, 1
  15              		.eabi_attribute 18, 4
  16              		.file	"sys_fs.c"
  17              		.text
  18              	.Ltext0:
  19              		.cfi_sections	.debug_frame
  20              		.file 1 "/mnt/c/Users/31740/Documents/codes/newcore-rp2350/lib/sys/sys_fs.c"
  21              		.section	.text.install_fd,"ax",%progbits
  22              		.align	1
  23              		.syntax unified
  24              		.thumb
  25              		.thumb_func
  27              	install_fd:
  28              	.LVL0:
  29              	.LFB961:
   1:/mnt/c/Users/31740/Documents/codes/newcore-rp2350/lib/sys/sys_fs.c **** #include <linux/fs.h>
   2:/mnt/c/Users/31740/Documents/codes/newcore-rp2350/lib/sys/sys_fs.c **** #include <linux/export.h>
   3:/mnt/c/Users/31740/Documents/codes/newcore-rp2350/lib/sys/sys_fs.c **** #include <linux/uaccess.h>
   4:/mnt/c/Users/31740/Documents/codes/newcore-rp2350/lib/sys/sys_fs.c **** 
   5:/mnt/c/Users/31740/Documents/codes/newcore-rp2350/lib/sys/sys_fs.c **** static struct file* fd_table[256];  // 支持最多 256 个文件描述符
   6:/mnt/c/Users/31740/Documents/codes/newcore-rp2350/lib/sys/sys_fs.c **** 
   7:/mnt/c/Users/31740/Documents/codes/newcore-rp2350/lib/sys/sys_fs.c **** static int install_fd(struct file *file) {
  30              		.loc 1 7 42 view -0
  31              		.cfi_startproc
  32              		@ args = 0, pretend = 0, frame = 0
  33              		@ frame_needed = 0, uses_anonymous_args = 0
  34              		@ link register save eliminated.
  35              		.loc 1 7 42 is_stmt 0 view .LVU1
  36 0000 0246     		mov	r2, r0
   8:/mnt/c/Users/31740/Documents/codes/newcore-rp2350/lib/sys/sys_fs.c ****     for (int i = 0; i < 256; ++i) {
  37              		.loc 1 8 5 is_stmt 1 view .LVU2
  38              	.LBB20:
  39              		.loc 1 8 10 view .LVU3
  40              	.LVL1:
  41              		.loc 1 8 14 is_stmt 0 view .LVU4
  42 0002 0020     		movs	r0, #0
  43              	.LVL2:
  44              	.L2:
  45              		.loc 1 8 23 is_stmt 1 discriminator 1 view .LVU5
  46 0004 FF28     		cmp	r0, #255
  47 0006 09DC     		bgt	.L6
   9:/mnt/c/Users/31740/Documents/codes/newcore-rp2350/lib/sys/sys_fs.c ****         if (!fd_table[i]) {
  48              		.loc 1 9 9 view .LVU6
  49              		.loc 1 9 22 is_stmt 0 view .LVU7
ARM GAS  /tmp/ccCpc7T0.s 			page 2


  50 0008 064B     		ldr	r3, .L8
  51 000a 53F82030 		ldr	r3, [r3, r0, lsl #2]
  52              		.loc 1 9 12 view .LVU8
  53 000e 0BB1     		cbz	r3, .L7
   8:/mnt/c/Users/31740/Documents/codes/newcore-rp2350/lib/sys/sys_fs.c ****     for (int i = 0; i < 256; ++i) {
  54              		.loc 1 8 30 is_stmt 1 discriminator 2 view .LVU9
  55 0010 0130     		adds	r0, r0, #1
  56              	.LVL3:
   8:/mnt/c/Users/31740/Documents/codes/newcore-rp2350/lib/sys/sys_fs.c ****     for (int i = 0; i < 256; ++i) {
  57              		.loc 1 8 30 is_stmt 0 discriminator 2 view .LVU10
  58 0012 F7E7     		b	.L2
  59              	.L7:
  10:/mnt/c/Users/31740/Documents/codes/newcore-rp2350/lib/sys/sys_fs.c ****             fd_table[i] = file;
  60              		.loc 1 10 13 is_stmt 1 view .LVU11
  61              		.loc 1 10 25 is_stmt 0 view .LVU12
  62 0014 034B     		ldr	r3, .L8
  63 0016 43F82020 		str	r2, [r3, r0, lsl #2]
  11:/mnt/c/Users/31740/Documents/codes/newcore-rp2350/lib/sys/sys_fs.c ****             return i;
  64              		.loc 1 11 13 is_stmt 1 view .LVU13
  65              		.loc 1 11 20 is_stmt 0 view .LVU14
  66 001a 7047     		bx	lr
  67              	.L6:
  68              		.loc 1 11 20 view .LVU15
  69              	.LBE20:
  12:/mnt/c/Users/31740/Documents/codes/newcore-rp2350/lib/sys/sys_fs.c ****         }
  13:/mnt/c/Users/31740/Documents/codes/newcore-rp2350/lib/sys/sys_fs.c ****     }
  14:/mnt/c/Users/31740/Documents/codes/newcore-rp2350/lib/sys/sys_fs.c ****     return -EMFILE;  // Too many open files
  70              		.loc 1 14 12 view .LVU16
  71 001c 6FF01700 		mvn	r0, #23
  72              	.LVL4:
  15:/mnt/c/Users/31740/Documents/codes/newcore-rp2350/lib/sys/sys_fs.c **** }
  73              		.loc 1 15 1 view .LVU17
  74 0020 7047     		bx	lr
  75              	.L9:
  76 0022 00BF     		.align	2
  77              	.L8:
  78 0024 00000000 		.word	fd_table
  79              		.cfi_endproc
  80              	.LFE961:
  82              		.section	.text.get_file_from_fd,"ax",%progbits
  83              		.align	1
  84              		.syntax unified
  85              		.thumb
  86              		.thumb_func
  88              	get_file_from_fd:
  89              	.LVL5:
  90              	.LFB962:
  16:/mnt/c/Users/31740/Documents/codes/newcore-rp2350/lib/sys/sys_fs.c **** 
  17:/mnt/c/Users/31740/Documents/codes/newcore-rp2350/lib/sys/sys_fs.c **** static struct file* get_file_from_fd(int fd) {
  91              		.loc 1 17 46 is_stmt 1 view -0
  92              		.cfi_startproc
  93              		@ args = 0, pretend = 0, frame = 0
  94              		@ frame_needed = 0, uses_anonymous_args = 0
  95              		@ link register save eliminated.
  18:/mnt/c/Users/31740/Documents/codes/newcore-rp2350/lib/sys/sys_fs.c ****     if (fd < 0 || fd >= 256) return NULL;
  96              		.loc 1 18 5 view .LVU19
  97              		.loc 1 18 8 is_stmt 0 view .LVU20
ARM GAS  /tmp/ccCpc7T0.s 			page 3


  98 0000 FF28     		cmp	r0, #255
  99 0002 03D8     		bhi	.L12
  19:/mnt/c/Users/31740/Documents/codes/newcore-rp2350/lib/sys/sys_fs.c ****     return fd_table[fd];
 100              		.loc 1 19 5 is_stmt 1 view .LVU21
 101              		.loc 1 19 20 is_stmt 0 view .LVU22
 102 0004 024B     		ldr	r3, .L13
 103 0006 53F82000 		ldr	r0, [r3, r0, lsl #2]
 104              	.LVL6:
 105              		.loc 1 19 20 view .LVU23
 106 000a 7047     		bx	lr
 107              	.LVL7:
 108              	.L12:
  18:/mnt/c/Users/31740/Documents/codes/newcore-rp2350/lib/sys/sys_fs.c ****     if (fd < 0 || fd >= 256) return NULL;
 109              		.loc 1 18 37 discriminator 1 view .LVU24
 110 000c 0020     		movs	r0, #0
 111              	.LVL8:
  20:/mnt/c/Users/31740/Documents/codes/newcore-rp2350/lib/sys/sys_fs.c **** }
 112              		.loc 1 20 1 view .LVU25
 113 000e 7047     		bx	lr
 114              	.L14:
 115              		.align	2
 116              	.L13:
 117 0010 00000000 		.word	fd_table
 118              		.cfi_endproc
 119              	.LFE962:
 121              		.section	.text.release_fd,"ax",%progbits
 122              		.align	1
 123              		.syntax unified
 124              		.thumb
 125              		.thumb_func
 127              	release_fd:
 128              	.LVL9:
 129              	.LFB963:
  21:/mnt/c/Users/31740/Documents/codes/newcore-rp2350/lib/sys/sys_fs.c **** 
  22:/mnt/c/Users/31740/Documents/codes/newcore-rp2350/lib/sys/sys_fs.c **** static void release_fd(int fd) {
 130              		.loc 1 22 32 is_stmt 1 view -0
 131              		.cfi_startproc
 132              		@ args = 0, pretend = 0, frame = 0
 133              		@ frame_needed = 0, uses_anonymous_args = 0
 134              		@ link register save eliminated.
  23:/mnt/c/Users/31740/Documents/codes/newcore-rp2350/lib/sys/sys_fs.c ****     if (fd >= 0 && fd < 256) {
 135              		.loc 1 23 5 view .LVU27
 136              		.loc 1 23 8 is_stmt 0 view .LVU28
 137 0000 FF28     		cmp	r0, #255
 138 0002 03D8     		bhi	.L15
  24:/mnt/c/Users/31740/Documents/codes/newcore-rp2350/lib/sys/sys_fs.c ****         fd_table[fd] = NULL;
 139              		.loc 1 24 9 is_stmt 1 view .LVU29
 140              		.loc 1 24 22 is_stmt 0 view .LVU30
 141 0004 024B     		ldr	r3, .L17
 142 0006 0022     		movs	r2, #0
 143 0008 43F82020 		str	r2, [r3, r0, lsl #2]
 144              	.L15:
  25:/mnt/c/Users/31740/Documents/codes/newcore-rp2350/lib/sys/sys_fs.c ****     }
  26:/mnt/c/Users/31740/Documents/codes/newcore-rp2350/lib/sys/sys_fs.c **** }
 145              		.loc 1 26 1 view .LVU31
 146 000c 7047     		bx	lr
 147              	.L18:
ARM GAS  /tmp/ccCpc7T0.s 			page 4


 148 000e 00BF     		.align	2
 149              	.L17:
 150 0010 00000000 		.word	fd_table
 151              		.cfi_endproc
 152              	.LFE963:
 154              		.section	.text.sys_close,"ax",%progbits
 155              		.align	1
 156              		.syntax unified
 157              		.thumb
 158              		.thumb_func
 160              	sys_close:
 161              	.LVL10:
 162              	.LFB967:
  27:/mnt/c/Users/31740/Documents/codes/newcore-rp2350/lib/sys/sys_fs.c **** 
  28:/mnt/c/Users/31740/Documents/codes/newcore-rp2350/lib/sys/sys_fs.c **** 
  29:/mnt/c/Users/31740/Documents/codes/newcore-rp2350/lib/sys/sys_fs.c **** 
  30:/mnt/c/Users/31740/Documents/codes/newcore-rp2350/lib/sys/sys_fs.c **** static long sys_open(const char *filename, int flags, umode_t mode) {
  31:/mnt/c/Users/31740/Documents/codes/newcore-rp2350/lib/sys/sys_fs.c ****     struct file *filp = filp_open(filename, flags, mode);
  32:/mnt/c/Users/31740/Documents/codes/newcore-rp2350/lib/sys/sys_fs.c ****     if (IS_ERR(filp))
  33:/mnt/c/Users/31740/Documents/codes/newcore-rp2350/lib/sys/sys_fs.c ****         return PTR_ERR(filp);
  34:/mnt/c/Users/31740/Documents/codes/newcore-rp2350/lib/sys/sys_fs.c **** 
  35:/mnt/c/Users/31740/Documents/codes/newcore-rp2350/lib/sys/sys_fs.c ****     int fd = install_fd(filp);
  36:/mnt/c/Users/31740/Documents/codes/newcore-rp2350/lib/sys/sys_fs.c ****     if (fd < 0) {
  37:/mnt/c/Users/31740/Documents/codes/newcore-rp2350/lib/sys/sys_fs.c ****         filp_close(filp, NULL);
  38:/mnt/c/Users/31740/Documents/codes/newcore-rp2350/lib/sys/sys_fs.c ****         return fd;
  39:/mnt/c/Users/31740/Documents/codes/newcore-rp2350/lib/sys/sys_fs.c ****     }
  40:/mnt/c/Users/31740/Documents/codes/newcore-rp2350/lib/sys/sys_fs.c **** 
  41:/mnt/c/Users/31740/Documents/codes/newcore-rp2350/lib/sys/sys_fs.c ****     return fd;
  42:/mnt/c/Users/31740/Documents/codes/newcore-rp2350/lib/sys/sys_fs.c **** }
  43:/mnt/c/Users/31740/Documents/codes/newcore-rp2350/lib/sys/sys_fs.c **** EXPORT_SYMBOL(sys_open);
  44:/mnt/c/Users/31740/Documents/codes/newcore-rp2350/lib/sys/sys_fs.c **** 
  45:/mnt/c/Users/31740/Documents/codes/newcore-rp2350/lib/sys/sys_fs.c **** 
  46:/mnt/c/Users/31740/Documents/codes/newcore-rp2350/lib/sys/sys_fs.c **** static long sys_read(unsigned int fd, char *buf, size_t count) {
  47:/mnt/c/Users/31740/Documents/codes/newcore-rp2350/lib/sys/sys_fs.c ****     struct file *file = get_file_from_fd(fd);
  48:/mnt/c/Users/31740/Documents/codes/newcore-rp2350/lib/sys/sys_fs.c ****     if (!file)
  49:/mnt/c/Users/31740/Documents/codes/newcore-rp2350/lib/sys/sys_fs.c ****         return -EBADF;
  50:/mnt/c/Users/31740/Documents/codes/newcore-rp2350/lib/sys/sys_fs.c **** 
  51:/mnt/c/Users/31740/Documents/codes/newcore-rp2350/lib/sys/sys_fs.c ****     void *kbuf = kmalloc(count, GFP_KERNEL);
  52:/mnt/c/Users/31740/Documents/codes/newcore-rp2350/lib/sys/sys_fs.c ****     if (!kbuf)
  53:/mnt/c/Users/31740/Documents/codes/newcore-rp2350/lib/sys/sys_fs.c ****         return -ENOMEM;
  54:/mnt/c/Users/31740/Documents/codes/newcore-rp2350/lib/sys/sys_fs.c **** 
  55:/mnt/c/Users/31740/Documents/codes/newcore-rp2350/lib/sys/sys_fs.c ****     loff_t pos = 0;
  56:/mnt/c/Users/31740/Documents/codes/newcore-rp2350/lib/sys/sys_fs.c ****     ssize_t ret = kernel_read(file, kbuf, count, &pos);
  57:/mnt/c/Users/31740/Documents/codes/newcore-rp2350/lib/sys/sys_fs.c ****     if (ret >= 0)
  58:/mnt/c/Users/31740/Documents/codes/newcore-rp2350/lib/sys/sys_fs.c ****         if (copy_to_user(buf, kbuf, ret))
  59:/mnt/c/Users/31740/Documents/codes/newcore-rp2350/lib/sys/sys_fs.c ****             ret = -EFAULT;
  60:/mnt/c/Users/31740/Documents/codes/newcore-rp2350/lib/sys/sys_fs.c **** 
  61:/mnt/c/Users/31740/Documents/codes/newcore-rp2350/lib/sys/sys_fs.c ****     kfree(kbuf);
  62:/mnt/c/Users/31740/Documents/codes/newcore-rp2350/lib/sys/sys_fs.c ****     return ret;
  63:/mnt/c/Users/31740/Documents/codes/newcore-rp2350/lib/sys/sys_fs.c **** }
  64:/mnt/c/Users/31740/Documents/codes/newcore-rp2350/lib/sys/sys_fs.c **** EXPORT_SYMBOL(sys_read);
  65:/mnt/c/Users/31740/Documents/codes/newcore-rp2350/lib/sys/sys_fs.c **** 
  66:/mnt/c/Users/31740/Documents/codes/newcore-rp2350/lib/sys/sys_fs.c **** 
  67:/mnt/c/Users/31740/Documents/codes/newcore-rp2350/lib/sys/sys_fs.c **** 
  68:/mnt/c/Users/31740/Documents/codes/newcore-rp2350/lib/sys/sys_fs.c **** static long sys_write(unsigned int fd, const char *buf, size_t count) {
  69:/mnt/c/Users/31740/Documents/codes/newcore-rp2350/lib/sys/sys_fs.c ****     struct file *file = get_file_from_fd(fd);
  70:/mnt/c/Users/31740/Documents/codes/newcore-rp2350/lib/sys/sys_fs.c ****     if (!file)
ARM GAS  /tmp/ccCpc7T0.s 			page 5


  71:/mnt/c/Users/31740/Documents/codes/newcore-rp2350/lib/sys/sys_fs.c ****         return -EBADF;
  72:/mnt/c/Users/31740/Documents/codes/newcore-rp2350/lib/sys/sys_fs.c **** 
  73:/mnt/c/Users/31740/Documents/codes/newcore-rp2350/lib/sys/sys_fs.c ****     void *kbuf = kmalloc(count, GFP_KERNEL);
  74:/mnt/c/Users/31740/Documents/codes/newcore-rp2350/lib/sys/sys_fs.c ****     if (!kbuf)
  75:/mnt/c/Users/31740/Documents/codes/newcore-rp2350/lib/sys/sys_fs.c ****         return -ENOMEM;
  76:/mnt/c/Users/31740/Documents/codes/newcore-rp2350/lib/sys/sys_fs.c **** 
  77:/mnt/c/Users/31740/Documents/codes/newcore-rp2350/lib/sys/sys_fs.c ****     if (copy_from_user(kbuf, buf, count)) {
  78:/mnt/c/Users/31740/Documents/codes/newcore-rp2350/lib/sys/sys_fs.c ****         kfree(kbuf);
  79:/mnt/c/Users/31740/Documents/codes/newcore-rp2350/lib/sys/sys_fs.c ****         return -EFAULT;
  80:/mnt/c/Users/31740/Documents/codes/newcore-rp2350/lib/sys/sys_fs.c ****     }
  81:/mnt/c/Users/31740/Documents/codes/newcore-rp2350/lib/sys/sys_fs.c **** 
  82:/mnt/c/Users/31740/Documents/codes/newcore-rp2350/lib/sys/sys_fs.c ****     loff_t pos = 0;
  83:/mnt/c/Users/31740/Documents/codes/newcore-rp2350/lib/sys/sys_fs.c ****     ssize_t ret = kernel_write(file, kbuf, count, &pos);
  84:/mnt/c/Users/31740/Documents/codes/newcore-rp2350/lib/sys/sys_fs.c **** 
  85:/mnt/c/Users/31740/Documents/codes/newcore-rp2350/lib/sys/sys_fs.c ****     kfree(kbuf);
  86:/mnt/c/Users/31740/Documents/codes/newcore-rp2350/lib/sys/sys_fs.c ****     return ret;
  87:/mnt/c/Users/31740/Documents/codes/newcore-rp2350/lib/sys/sys_fs.c **** }
  88:/mnt/c/Users/31740/Documents/codes/newcore-rp2350/lib/sys/sys_fs.c **** EXPORT_SYMBOL(sys_write);
  89:/mnt/c/Users/31740/Documents/codes/newcore-rp2350/lib/sys/sys_fs.c **** 
  90:/mnt/c/Users/31740/Documents/codes/newcore-rp2350/lib/sys/sys_fs.c **** 
  91:/mnt/c/Users/31740/Documents/codes/newcore-rp2350/lib/sys/sys_fs.c **** static long sys_close(unsigned int fd) {
 163              		.loc 1 91 40 is_stmt 1 view -0
 164              		.cfi_startproc
 165              		@ args = 0, pretend = 0, frame = 0
 166              		@ frame_needed = 0, uses_anonymous_args = 0
 167              		.loc 1 91 40 is_stmt 0 view .LVU33
 168 0000 10B5     		push	{r4, lr}
 169              	.LCFI0:
 170              		.cfi_def_cfa_offset 8
 171              		.cfi_offset 4, -8
 172              		.cfi_offset 14, -4
 173 0002 0446     		mov	r4, r0
  92:/mnt/c/Users/31740/Documents/codes/newcore-rp2350/lib/sys/sys_fs.c ****     struct file *file = get_file_from_fd(fd);
 174              		.loc 1 92 5 is_stmt 1 view .LVU34
 175              		.loc 1 92 25 is_stmt 0 view .LVU35
 176 0004 FFF7FEFF 		bl	get_file_from_fd
 177              	.LVL11:
  93:/mnt/c/Users/31740/Documents/codes/newcore-rp2350/lib/sys/sys_fs.c ****     if (!file)
 178              		.loc 1 93 5 is_stmt 1 view .LVU36
 179              		.loc 1 93 8 is_stmt 0 view .LVU37
 180 0008 38B1     		cbz	r0, .L21
  94:/mnt/c/Users/31740/Documents/codes/newcore-rp2350/lib/sys/sys_fs.c ****         return -EBADF;
  95:/mnt/c/Users/31740/Documents/codes/newcore-rp2350/lib/sys/sys_fs.c **** 
  96:/mnt/c/Users/31740/Documents/codes/newcore-rp2350/lib/sys/sys_fs.c ****     filp_close(file, NULL);
 181              		.loc 1 96 5 is_stmt 1 view .LVU38
 182 000a 0021     		movs	r1, #0
 183 000c FFF7FEFF 		bl	filp_close
 184              	.LVL12:
  97:/mnt/c/Users/31740/Documents/codes/newcore-rp2350/lib/sys/sys_fs.c ****     release_fd(fd);
 185              		.loc 1 97 5 view .LVU39
 186 0010 2046     		mov	r0, r4
 187 0012 FFF7FEFF 		bl	release_fd
 188              	.LVL13:
  98:/mnt/c/Users/31740/Documents/codes/newcore-rp2350/lib/sys/sys_fs.c ****     return 0;
 189              		.loc 1 98 5 view .LVU40
 190              		.loc 1 98 12 is_stmt 0 view .LVU41
 191 0016 0020     		movs	r0, #0
ARM GAS  /tmp/ccCpc7T0.s 			page 6


 192              	.L19:
  99:/mnt/c/Users/31740/Documents/codes/newcore-rp2350/lib/sys/sys_fs.c **** }
 193              		.loc 1 99 1 view .LVU42
 194 0018 10BD     		pop	{r4, pc}
 195              	.LVL14:
 196              	.L21:
  94:/mnt/c/Users/31740/Documents/codes/newcore-rp2350/lib/sys/sys_fs.c **** 
 197              		.loc 1 94 16 view .LVU43
 198 001a 6FF00800 		mvn	r0, #8
 199              	.LVL15:
  94:/mnt/c/Users/31740/Documents/codes/newcore-rp2350/lib/sys/sys_fs.c **** 
 200              		.loc 1 94 16 view .LVU44
 201 001e FBE7     		b	.L19
 202              		.cfi_endproc
 203              	.LFE967:
 205              		.section	.text.sys_open,"ax",%progbits
 206              		.align	1
 207              		.syntax unified
 208              		.thumb
 209              		.thumb_func
 211              	sys_open:
 212              	.LVL16:
 213              	.LFB964:
  30:/mnt/c/Users/31740/Documents/codes/newcore-rp2350/lib/sys/sys_fs.c ****     struct file *filp = filp_open(filename, flags, mode);
 214              		.loc 1 30 69 is_stmt 1 view -0
 215              		.cfi_startproc
 216              		@ args = 0, pretend = 0, frame = 0
 217              		@ frame_needed = 0, uses_anonymous_args = 0
  30:/mnt/c/Users/31740/Documents/codes/newcore-rp2350/lib/sys/sys_fs.c ****     struct file *filp = filp_open(filename, flags, mode);
 218              		.loc 1 30 69 is_stmt 0 view .LVU46
 219 0000 38B5     		push	{r3, r4, r5, lr}
 220              	.LCFI1:
 221              		.cfi_def_cfa_offset 16
 222              		.cfi_offset 3, -16
 223              		.cfi_offset 4, -12
 224              		.cfi_offset 5, -8
 225              		.cfi_offset 14, -4
  31:/mnt/c/Users/31740/Documents/codes/newcore-rp2350/lib/sys/sys_fs.c ****     if (IS_ERR(filp))
 226              		.loc 1 31 5 is_stmt 1 view .LVU47
  31:/mnt/c/Users/31740/Documents/codes/newcore-rp2350/lib/sys/sys_fs.c ****     if (IS_ERR(filp))
 227              		.loc 1 31 25 is_stmt 0 view .LVU48
 228 0002 FFF7FEFF 		bl	filp_open
 229              	.LVL17:
  31:/mnt/c/Users/31740/Documents/codes/newcore-rp2350/lib/sys/sys_fs.c ****     if (IS_ERR(filp))
 230              		.loc 1 31 25 view .LVU49
 231 0006 0446     		mov	r4, r0
 232              	.LVL18:
  32:/mnt/c/Users/31740/Documents/codes/newcore-rp2350/lib/sys/sys_fs.c ****         return PTR_ERR(filp);
 233              		.loc 1 32 5 is_stmt 1 view .LVU50
 234              	.LBB21:
 235              	.LBI21:
 236              		.file 2 "/mnt/c/Users/31740/Documents/codes/newcore-rp2350/include/linux/err.h"
   1:/mnt/c/Users/31740/Documents/codes/newcore-rp2350/include/linux/err.h **** /* SPDX-License-Identifier: GPL-2.0 */
   2:/mnt/c/Users/31740/Documents/codes/newcore-rp2350/include/linux/err.h **** #ifndef _LINUX_ERR_H
   3:/mnt/c/Users/31740/Documents/codes/newcore-rp2350/include/linux/err.h **** #define _LINUX_ERR_H
   4:/mnt/c/Users/31740/Documents/codes/newcore-rp2350/include/linux/err.h **** 
   5:/mnt/c/Users/31740/Documents/codes/newcore-rp2350/include/linux/err.h **** #include <linux/compiler_attributes.h>
ARM GAS  /tmp/ccCpc7T0.s 			page 7


   6:/mnt/c/Users/31740/Documents/codes/newcore-rp2350/include/linux/err.h **** #include <linux/compiler.h>
   7:/mnt/c/Users/31740/Documents/codes/newcore-rp2350/include/linux/err.h **** #include <linux/types.h>
   8:/mnt/c/Users/31740/Documents/codes/newcore-rp2350/include/linux/err.h **** 
   9:/mnt/c/Users/31740/Documents/codes/newcore-rp2350/include/linux/err.h **** #include <asm/errno.h>
  10:/mnt/c/Users/31740/Documents/codes/newcore-rp2350/include/linux/err.h **** 
  11:/mnt/c/Users/31740/Documents/codes/newcore-rp2350/include/linux/err.h **** /*
  12:/mnt/c/Users/31740/Documents/codes/newcore-rp2350/include/linux/err.h ****  * Kernel pointers have redundant information, so we can use a
  13:/mnt/c/Users/31740/Documents/codes/newcore-rp2350/include/linux/err.h ****  * scheme where we can return either an error code or a normal
  14:/mnt/c/Users/31740/Documents/codes/newcore-rp2350/include/linux/err.h ****  * pointer with the same return value.
  15:/mnt/c/Users/31740/Documents/codes/newcore-rp2350/include/linux/err.h ****  *
  16:/mnt/c/Users/31740/Documents/codes/newcore-rp2350/include/linux/err.h ****  * This should be a per-architecture thing, to allow different
  17:/mnt/c/Users/31740/Documents/codes/newcore-rp2350/include/linux/err.h ****  * error and pointer decisions.
  18:/mnt/c/Users/31740/Documents/codes/newcore-rp2350/include/linux/err.h ****  */
  19:/mnt/c/Users/31740/Documents/codes/newcore-rp2350/include/linux/err.h **** #define MAX_ERRNO	4095
  20:/mnt/c/Users/31740/Documents/codes/newcore-rp2350/include/linux/err.h **** 
  21:/mnt/c/Users/31740/Documents/codes/newcore-rp2350/include/linux/err.h **** #ifndef __ASSEMBLY__
  22:/mnt/c/Users/31740/Documents/codes/newcore-rp2350/include/linux/err.h **** 
  23:/mnt/c/Users/31740/Documents/codes/newcore-rp2350/include/linux/err.h **** /**
  24:/mnt/c/Users/31740/Documents/codes/newcore-rp2350/include/linux/err.h ****  * IS_ERR_VALUE - Detect an error pointer.
  25:/mnt/c/Users/31740/Documents/codes/newcore-rp2350/include/linux/err.h ****  * @x: The pointer to check.
  26:/mnt/c/Users/31740/Documents/codes/newcore-rp2350/include/linux/err.h ****  *
  27:/mnt/c/Users/31740/Documents/codes/newcore-rp2350/include/linux/err.h ****  * Like IS_ERR(), but does not generate a compiler warning if result is unused.
  28:/mnt/c/Users/31740/Documents/codes/newcore-rp2350/include/linux/err.h ****  */
  29:/mnt/c/Users/31740/Documents/codes/newcore-rp2350/include/linux/err.h **** 
  30:/mnt/c/Users/31740/Documents/codes/newcore-rp2350/include/linux/err.h **** #ifndef unlikely
  31:/mnt/c/Users/31740/Documents/codes/newcore-rp2350/include/linux/err.h **** #  define unlikely(x) __builtin_expect(!!(x), 0)
  32:/mnt/c/Users/31740/Documents/codes/newcore-rp2350/include/linux/err.h **** #endif
  33:/mnt/c/Users/31740/Documents/codes/newcore-rp2350/include/linux/err.h **** 
  34:/mnt/c/Users/31740/Documents/codes/newcore-rp2350/include/linux/err.h **** #ifndef likely
  35:/mnt/c/Users/31740/Documents/codes/newcore-rp2350/include/linux/err.h **** #  define likely(x) __builtin_expect(!!(x), 1)
  36:/mnt/c/Users/31740/Documents/codes/newcore-rp2350/include/linux/err.h **** #endif
  37:/mnt/c/Users/31740/Documents/codes/newcore-rp2350/include/linux/err.h **** 
  38:/mnt/c/Users/31740/Documents/codes/newcore-rp2350/include/linux/err.h **** #define IS_ERR_VALUE(x) unlikely((unsigned long)(void *)(x) >= (unsigned long)-MAX_ERRNO)
  39:/mnt/c/Users/31740/Documents/codes/newcore-rp2350/include/linux/err.h **** 
  40:/mnt/c/Users/31740/Documents/codes/newcore-rp2350/include/linux/err.h **** /**
  41:/mnt/c/Users/31740/Documents/codes/newcore-rp2350/include/linux/err.h ****  * ERR_PTR - Create an error pointer.
  42:/mnt/c/Users/31740/Documents/codes/newcore-rp2350/include/linux/err.h ****  * @error: A negative error code.
  43:/mnt/c/Users/31740/Documents/codes/newcore-rp2350/include/linux/err.h ****  *
  44:/mnt/c/Users/31740/Documents/codes/newcore-rp2350/include/linux/err.h ****  * Encodes @error into a pointer value. Users should consider the result
  45:/mnt/c/Users/31740/Documents/codes/newcore-rp2350/include/linux/err.h ****  * opaque and not assume anything about how the error is encoded.
  46:/mnt/c/Users/31740/Documents/codes/newcore-rp2350/include/linux/err.h ****  *
  47:/mnt/c/Users/31740/Documents/codes/newcore-rp2350/include/linux/err.h ****  * Return: A pointer with @error encoded within its value.
  48:/mnt/c/Users/31740/Documents/codes/newcore-rp2350/include/linux/err.h ****  */
  49:/mnt/c/Users/31740/Documents/codes/newcore-rp2350/include/linux/err.h **** static inline void * __must_check ERR_PTR(long error)
  50:/mnt/c/Users/31740/Documents/codes/newcore-rp2350/include/linux/err.h **** {
  51:/mnt/c/Users/31740/Documents/codes/newcore-rp2350/include/linux/err.h **** 	return (void *) error;
  52:/mnt/c/Users/31740/Documents/codes/newcore-rp2350/include/linux/err.h **** }
  53:/mnt/c/Users/31740/Documents/codes/newcore-rp2350/include/linux/err.h **** 
  54:/mnt/c/Users/31740/Documents/codes/newcore-rp2350/include/linux/err.h **** /* Return the pointer in the percpu address space. */
  55:/mnt/c/Users/31740/Documents/codes/newcore-rp2350/include/linux/err.h **** #define ERR_PTR_PCPU(error) ((void __percpu *)(unsigned long)ERR_PTR(error))
  56:/mnt/c/Users/31740/Documents/codes/newcore-rp2350/include/linux/err.h **** 
  57:/mnt/c/Users/31740/Documents/codes/newcore-rp2350/include/linux/err.h **** /**
  58:/mnt/c/Users/31740/Documents/codes/newcore-rp2350/include/linux/err.h ****  * PTR_ERR - Extract the error code from an error pointer.
  59:/mnt/c/Users/31740/Documents/codes/newcore-rp2350/include/linux/err.h ****  * @ptr: An error pointer.
  60:/mnt/c/Users/31740/Documents/codes/newcore-rp2350/include/linux/err.h ****  * Return: The error code within @ptr.
  61:/mnt/c/Users/31740/Documents/codes/newcore-rp2350/include/linux/err.h ****  */
  62:/mnt/c/Users/31740/Documents/codes/newcore-rp2350/include/linux/err.h **** static inline long __must_check PTR_ERR(__force const void *ptr)
ARM GAS  /tmp/ccCpc7T0.s 			page 8


  63:/mnt/c/Users/31740/Documents/codes/newcore-rp2350/include/linux/err.h **** {
  64:/mnt/c/Users/31740/Documents/codes/newcore-rp2350/include/linux/err.h **** 	return (long) ptr;
  65:/mnt/c/Users/31740/Documents/codes/newcore-rp2350/include/linux/err.h **** }
  66:/mnt/c/Users/31740/Documents/codes/newcore-rp2350/include/linux/err.h **** 
  67:/mnt/c/Users/31740/Documents/codes/newcore-rp2350/include/linux/err.h **** /* Read an error pointer from the percpu address space. */
  68:/mnt/c/Users/31740/Documents/codes/newcore-rp2350/include/linux/err.h **** #define PTR_ERR_PCPU(ptr) (PTR_ERR((const void *)(__force const unsigned long)(ptr)))
  69:/mnt/c/Users/31740/Documents/codes/newcore-rp2350/include/linux/err.h **** 
  70:/mnt/c/Users/31740/Documents/codes/newcore-rp2350/include/linux/err.h **** /**
  71:/mnt/c/Users/31740/Documents/codes/newcore-rp2350/include/linux/err.h ****  * IS_ERR - Detect an error pointer.
  72:/mnt/c/Users/31740/Documents/codes/newcore-rp2350/include/linux/err.h ****  * @ptr: The pointer to check.
  73:/mnt/c/Users/31740/Documents/codes/newcore-rp2350/include/linux/err.h ****  * Return: true if @ptr is an error pointer, false otherwise.
  74:/mnt/c/Users/31740/Documents/codes/newcore-rp2350/include/linux/err.h ****  */
  75:/mnt/c/Users/31740/Documents/codes/newcore-rp2350/include/linux/err.h **** static inline bool __must_check IS_ERR(__force const void *ptr)
 237              		.loc 2 75 33 view .LVU51
 238              	.LBB22:
  76:/mnt/c/Users/31740/Documents/codes/newcore-rp2350/include/linux/err.h **** {
  77:/mnt/c/Users/31740/Documents/codes/newcore-rp2350/include/linux/err.h **** 	return IS_ERR_VALUE((unsigned long)ptr);
 239              		.loc 2 77 2 view .LVU52
 240              		.loc 2 77 2 is_stmt 0 view .LVU53
 241              	.LBE22:
 242              	.LBE21:
  32:/mnt/c/Users/31740/Documents/codes/newcore-rp2350/lib/sys/sys_fs.c ****         return PTR_ERR(filp);
 243              		.loc 1 32 8 discriminator 1 view .LVU54
 244 0008 10F5805F 		cmn	r0, #4096
 245 000c 05D8     		bhi	.L27
  35:/mnt/c/Users/31740/Documents/codes/newcore-rp2350/lib/sys/sys_fs.c ****     if (fd < 0) {
 246              		.loc 1 35 5 is_stmt 1 view .LVU55
  35:/mnt/c/Users/31740/Documents/codes/newcore-rp2350/lib/sys/sys_fs.c ****     if (fd < 0) {
 247              		.loc 1 35 14 is_stmt 0 view .LVU56
 248 000e FFF7FEFF 		bl	install_fd
 249              	.LVL19:
  36:/mnt/c/Users/31740/Documents/codes/newcore-rp2350/lib/sys/sys_fs.c ****         filp_close(filp, NULL);
 250              		.loc 1 36 5 is_stmt 1 view .LVU57
  36:/mnt/c/Users/31740/Documents/codes/newcore-rp2350/lib/sys/sys_fs.c ****         filp_close(filp, NULL);
 251              		.loc 1 36 8 is_stmt 0 view .LVU58
 252 0012 051E     		subs	r5, r0, #0
 253 0014 03DB     		blt	.L28
 254              	.LVL20:
 255              	.L23:
  42:/mnt/c/Users/31740/Documents/codes/newcore-rp2350/lib/sys/sys_fs.c **** EXPORT_SYMBOL(sys_open);
 256              		.loc 1 42 1 view .LVU59
 257 0016 2846     		mov	r0, r5
 258 0018 38BD     		pop	{r3, r4, r5, pc}
 259              	.LVL21:
 260              	.L27:
  33:/mnt/c/Users/31740/Documents/codes/newcore-rp2350/lib/sys/sys_fs.c **** 
 261              		.loc 1 33 9 is_stmt 1 view .LVU60
 262              	.LBB23:
 263              	.LBI23:
  62:/mnt/c/Users/31740/Documents/codes/newcore-rp2350/include/linux/err.h **** {
 264              		.loc 2 62 33 view .LVU61
 265              	.LBB24:
  64:/mnt/c/Users/31740/Documents/codes/newcore-rp2350/include/linux/err.h **** }
 266              		.loc 2 64 2 view .LVU62
  64:/mnt/c/Users/31740/Documents/codes/newcore-rp2350/include/linux/err.h **** }
 267              		.loc 2 64 9 is_stmt 0 view .LVU63
 268 001a 0546     		mov	r5, r0
ARM GAS  /tmp/ccCpc7T0.s 			page 9


 269              	.LVL22:
  64:/mnt/c/Users/31740/Documents/codes/newcore-rp2350/include/linux/err.h **** }
 270              		.loc 2 64 9 view .LVU64
 271              	.LBE24:
 272              	.LBE23:
  33:/mnt/c/Users/31740/Documents/codes/newcore-rp2350/lib/sys/sys_fs.c **** 
 273              		.loc 1 33 16 view .LVU65
 274 001c FBE7     		b	.L23
 275              	.LVL23:
 276              	.L28:
  37:/mnt/c/Users/31740/Documents/codes/newcore-rp2350/lib/sys/sys_fs.c ****         return fd;
 277              		.loc 1 37 9 is_stmt 1 view .LVU66
 278 001e 0021     		movs	r1, #0
 279 0020 2046     		mov	r0, r4
 280              	.LVL24:
  37:/mnt/c/Users/31740/Documents/codes/newcore-rp2350/lib/sys/sys_fs.c ****         return fd;
 281              		.loc 1 37 9 is_stmt 0 view .LVU67
 282 0022 FFF7FEFF 		bl	filp_close
 283              	.LVL25:
  38:/mnt/c/Users/31740/Documents/codes/newcore-rp2350/lib/sys/sys_fs.c ****     }
 284              		.loc 1 38 9 is_stmt 1 view .LVU68
  38:/mnt/c/Users/31740/Documents/codes/newcore-rp2350/lib/sys/sys_fs.c ****     }
 285              		.loc 1 38 16 is_stmt 0 view .LVU69
 286 0026 F6E7     		b	.L23
 287              		.cfi_endproc
 288              	.LFE964:
 290              		.section	.text.sys_read,"ax",%progbits
 291              		.align	1
 292              		.syntax unified
 293              		.thumb
 294              		.thumb_func
 296              	sys_read:
 297              	.LVL26:
 298              	.LFB965:
  46:/mnt/c/Users/31740/Documents/codes/newcore-rp2350/lib/sys/sys_fs.c ****     struct file *file = get_file_from_fd(fd);
 299              		.loc 1 46 64 is_stmt 1 view -0
 300              		.cfi_startproc
 301              		@ args = 0, pretend = 0, frame = 8
 302              		@ frame_needed = 0, uses_anonymous_args = 0
  46:/mnt/c/Users/31740/Documents/codes/newcore-rp2350/lib/sys/sys_fs.c ****     struct file *file = get_file_from_fd(fd);
 303              		.loc 1 46 64 is_stmt 0 view .LVU71
 304 0000 F0B5     		push	{r4, r5, r6, r7, lr}
 305              	.LCFI2:
 306              		.cfi_def_cfa_offset 20
 307              		.cfi_offset 4, -20
 308              		.cfi_offset 5, -16
 309              		.cfi_offset 6, -12
 310              		.cfi_offset 7, -8
 311              		.cfi_offset 14, -4
 312 0002 83B0     		sub	sp, sp, #12
 313              	.LCFI3:
 314              		.cfi_def_cfa_offset 32
 315 0004 0E46     		mov	r6, r1
 316 0006 1446     		mov	r4, r2
  47:/mnt/c/Users/31740/Documents/codes/newcore-rp2350/lib/sys/sys_fs.c ****     if (!file)
 317              		.loc 1 47 5 is_stmt 1 view .LVU72
  47:/mnt/c/Users/31740/Documents/codes/newcore-rp2350/lib/sys/sys_fs.c ****     if (!file)
ARM GAS  /tmp/ccCpc7T0.s 			page 10


 318              		.loc 1 47 25 is_stmt 0 view .LVU73
 319 0008 FFF7FEFF 		bl	get_file_from_fd
 320              	.LVL27:
  48:/mnt/c/Users/31740/Documents/codes/newcore-rp2350/lib/sys/sys_fs.c ****         return -EBADF;
 321              		.loc 1 48 5 is_stmt 1 view .LVU74
  48:/mnt/c/Users/31740/Documents/codes/newcore-rp2350/lib/sys/sys_fs.c ****         return -EBADF;
 322              		.loc 1 48 8 is_stmt 0 view .LVU75
 323 000c F8B1     		cbz	r0, .L32
 324 000e 0746     		mov	r7, r0
  51:/mnt/c/Users/31740/Documents/codes/newcore-rp2350/lib/sys/sys_fs.c ****     if (!kbuf)
 325              		.loc 1 51 5 is_stmt 1 view .LVU76
 326              	.LVL28:
 327              	.LBB25:
 328              	.LBI25:
 329              		.file 3 "/mnt/c/Users/31740/Documents/codes/newcore-rp2350/include/linux/slab.h"
   1:/mnt/c/Users/31740/Documents/codes/newcore-rp2350/include/linux/slab.h **** /* SPDX-License-Identifier: GPL-2.0 */
   2:/mnt/c/Users/31740/Documents/codes/newcore-rp2350/include/linux/slab.h **** /*
   3:/mnt/c/Users/31740/Documents/codes/newcore-rp2350/include/linux/slab.h ****  * Written by Mark Hemment, 1996 (markhe@nextd.demon.co.uk).
   4:/mnt/c/Users/31740/Documents/codes/newcore-rp2350/include/linux/slab.h ****  *
   5:/mnt/c/Users/31740/Documents/codes/newcore-rp2350/include/linux/slab.h ****  * (C) SGI 2006, Christoph Lameter
   6:/mnt/c/Users/31740/Documents/codes/newcore-rp2350/include/linux/slab.h ****  * 	Cleaned up and restructured to ease the addition of alternative
   7:/mnt/c/Users/31740/Documents/codes/newcore-rp2350/include/linux/slab.h ****  * 	implementations of SLAB allocators.
   8:/mnt/c/Users/31740/Documents/codes/newcore-rp2350/include/linux/slab.h ****  * (C) Linux Foundation 2008-2013
   9:/mnt/c/Users/31740/Documents/codes/newcore-rp2350/include/linux/slab.h ****  *      Unified interface for all slab allocators
  10:/mnt/c/Users/31740/Documents/codes/newcore-rp2350/include/linux/slab.h ****  */
  11:/mnt/c/Users/31740/Documents/codes/newcore-rp2350/include/linux/slab.h **** 
  12:/mnt/c/Users/31740/Documents/codes/newcore-rp2350/include/linux/slab.h **** #ifndef _LINUX_SLAB_H
  13:/mnt/c/Users/31740/Documents/codes/newcore-rp2350/include/linux/slab.h **** #define	_LINUX_SLAB_H
  14:/mnt/c/Users/31740/Documents/codes/newcore-rp2350/include/linux/slab.h **** 
  15:/mnt/c/Users/31740/Documents/codes/newcore-rp2350/include/linux/slab.h **** #include <linux/cache.h>
  16:/mnt/c/Users/31740/Documents/codes/newcore-rp2350/include/linux/slab.h **** #include <linux/overflow.h>
  17:/mnt/c/Users/31740/Documents/codes/newcore-rp2350/include/linux/slab.h **** #include <linux/types.h>
  18:/mnt/c/Users/31740/Documents/codes/newcore-rp2350/include/linux/slab.h **** #include <linux/raid/pq.h>
  19:/mnt/c/Users/31740/Documents/codes/newcore-rp2350/include/linux/slab.h **** #include <linux/gfp_types.h>
  20:/mnt/c/Users/31740/Documents/codes/newcore-rp2350/include/linux/slab.h **** #include <linux/numa.h>
  21:/mnt/c/Users/31740/Documents/codes/newcore-rp2350/include/linux/slab.h **** #include <linux/reciprocal_div.h>
  22:/mnt/c/Users/31740/Documents/codes/newcore-rp2350/include/linux/slab.h **** #include <linux/spinlock.h>
  23:/mnt/c/Users/31740/Documents/codes/newcore-rp2350/include/linux/slab.h **** 
  24:/mnt/c/Users/31740/Documents/codes/newcore-rp2350/include/linux/slab.h **** enum _slab_flag_bits {
  25:/mnt/c/Users/31740/Documents/codes/newcore-rp2350/include/linux/slab.h **** 	_SLAB_CONSISTENCY_CHECKS,
  26:/mnt/c/Users/31740/Documents/codes/newcore-rp2350/include/linux/slab.h **** 	_SLAB_RED_ZONE,
  27:/mnt/c/Users/31740/Documents/codes/newcore-rp2350/include/linux/slab.h **** 	_SLAB_POISON,
  28:/mnt/c/Users/31740/Documents/codes/newcore-rp2350/include/linux/slab.h **** 	_SLAB_KMALLOC,
  29:/mnt/c/Users/31740/Documents/codes/newcore-rp2350/include/linux/slab.h **** 	_SLAB_HWCACHE_ALIGN,
  30:/mnt/c/Users/31740/Documents/codes/newcore-rp2350/include/linux/slab.h **** 	_SLAB_CACHE_DMA,
  31:/mnt/c/Users/31740/Documents/codes/newcore-rp2350/include/linux/slab.h **** 	_SLAB_CACHE_DMA32,
  32:/mnt/c/Users/31740/Documents/codes/newcore-rp2350/include/linux/slab.h **** 	_SLAB_STORE_USER,
  33:/mnt/c/Users/31740/Documents/codes/newcore-rp2350/include/linux/slab.h **** 	_SLAB_PANIC,
  34:/mnt/c/Users/31740/Documents/codes/newcore-rp2350/include/linux/slab.h **** 	_SLAB_TYPESAFE_BY_RCU,
  35:/mnt/c/Users/31740/Documents/codes/newcore-rp2350/include/linux/slab.h **** 	_SLAB_TRACE,
  36:/mnt/c/Users/31740/Documents/codes/newcore-rp2350/include/linux/slab.h **** #ifdef CONFIG_DEBUG_OBJECTS
  37:/mnt/c/Users/31740/Documents/codes/newcore-rp2350/include/linux/slab.h **** 	_SLAB_DEBUG_OBJECTS,
  38:/mnt/c/Users/31740/Documents/codes/newcore-rp2350/include/linux/slab.h **** #endif
  39:/mnt/c/Users/31740/Documents/codes/newcore-rp2350/include/linux/slab.h **** 	_SLAB_NOLEAKTRACE,
  40:/mnt/c/Users/31740/Documents/codes/newcore-rp2350/include/linux/slab.h **** 	_SLAB_NO_MERGE,
  41:/mnt/c/Users/31740/Documents/codes/newcore-rp2350/include/linux/slab.h **** #ifdef CONFIG_FAILSLAB
  42:/mnt/c/Users/31740/Documents/codes/newcore-rp2350/include/linux/slab.h **** 	_SLAB_FAILSLAB,
ARM GAS  /tmp/ccCpc7T0.s 			page 11


  43:/mnt/c/Users/31740/Documents/codes/newcore-rp2350/include/linux/slab.h **** #endif
  44:/mnt/c/Users/31740/Documents/codes/newcore-rp2350/include/linux/slab.h **** #ifdef CONFIG_MEMCG
  45:/mnt/c/Users/31740/Documents/codes/newcore-rp2350/include/linux/slab.h **** 	_SLAB_ACCOUNT,
  46:/mnt/c/Users/31740/Documents/codes/newcore-rp2350/include/linux/slab.h **** #endif
  47:/mnt/c/Users/31740/Documents/codes/newcore-rp2350/include/linux/slab.h **** #ifdef CONFIG_KASAN_GENERIC
  48:/mnt/c/Users/31740/Documents/codes/newcore-rp2350/include/linux/slab.h **** 	_SLAB_KASAN,
  49:/mnt/c/Users/31740/Documents/codes/newcore-rp2350/include/linux/slab.h **** #endif
  50:/mnt/c/Users/31740/Documents/codes/newcore-rp2350/include/linux/slab.h **** 	_SLAB_NO_USER_FLAGS,
  51:/mnt/c/Users/31740/Documents/codes/newcore-rp2350/include/linux/slab.h **** #ifdef CONFIG_KFENCE
  52:/mnt/c/Users/31740/Documents/codes/newcore-rp2350/include/linux/slab.h **** 	_SLAB_SKIP_KFENCE,
  53:/mnt/c/Users/31740/Documents/codes/newcore-rp2350/include/linux/slab.h **** #endif
  54:/mnt/c/Users/31740/Documents/codes/newcore-rp2350/include/linux/slab.h **** #ifndef CONFIG_SLUB_TINY
  55:/mnt/c/Users/31740/Documents/codes/newcore-rp2350/include/linux/slab.h **** 	_SLAB_RECLAIM_ACCOUNT,
  56:/mnt/c/Users/31740/Documents/codes/newcore-rp2350/include/linux/slab.h **** #endif
  57:/mnt/c/Users/31740/Documents/codes/newcore-rp2350/include/linux/slab.h **** 	_SLAB_OBJECT_POISON,
  58:/mnt/c/Users/31740/Documents/codes/newcore-rp2350/include/linux/slab.h **** 	_SLAB_CMPXCHG_DOUBLE,
  59:/mnt/c/Users/31740/Documents/codes/newcore-rp2350/include/linux/slab.h **** #ifdef CONFIG_SLAB_OBJ_EXT
  60:/mnt/c/Users/31740/Documents/codes/newcore-rp2350/include/linux/slab.h **** 	_SLAB_NO_OBJ_EXT,
  61:/mnt/c/Users/31740/Documents/codes/newcore-rp2350/include/linux/slab.h **** #endif
  62:/mnt/c/Users/31740/Documents/codes/newcore-rp2350/include/linux/slab.h **** 	_SLAB_FLAGS_LAST_BIT
  63:/mnt/c/Users/31740/Documents/codes/newcore-rp2350/include/linux/slab.h **** };
  64:/mnt/c/Users/31740/Documents/codes/newcore-rp2350/include/linux/slab.h **** 
  65:/mnt/c/Users/31740/Documents/codes/newcore-rp2350/include/linux/slab.h **** 
  66:/mnt/c/Users/31740/Documents/codes/newcore-rp2350/include/linux/slab.h **** 
  67:/mnt/c/Users/31740/Documents/codes/newcore-rp2350/include/linux/slab.h **** #define __SLAB_FLAG_BIT(nr)	((slab_flags_t __force)(1U << (nr)))
  68:/mnt/c/Users/31740/Documents/codes/newcore-rp2350/include/linux/slab.h **** #define __SLAB_FLAG_UNUSED	((slab_flags_t __force)(0U))
  69:/mnt/c/Users/31740/Documents/codes/newcore-rp2350/include/linux/slab.h **** 
  70:/mnt/c/Users/31740/Documents/codes/newcore-rp2350/include/linux/slab.h **** /*
  71:/mnt/c/Users/31740/Documents/codes/newcore-rp2350/include/linux/slab.h ****  * Flags to pass to kmem_cache_create().
  72:/mnt/c/Users/31740/Documents/codes/newcore-rp2350/include/linux/slab.h ****  * The ones marked DEBUG need CONFIG_SLUB_DEBUG enabled, otherwise are no-op
  73:/mnt/c/Users/31740/Documents/codes/newcore-rp2350/include/linux/slab.h ****  */
  74:/mnt/c/Users/31740/Documents/codes/newcore-rp2350/include/linux/slab.h **** /* DEBUG: Perform (expensive) checks on alloc/free */
  75:/mnt/c/Users/31740/Documents/codes/newcore-rp2350/include/linux/slab.h **** #define SLAB_CONSISTENCY_CHECKS	__SLAB_FLAG_BIT(_SLAB_CONSISTENCY_CHECKS)
  76:/mnt/c/Users/31740/Documents/codes/newcore-rp2350/include/linux/slab.h **** /* DEBUG: Red zone objs in a cache */
  77:/mnt/c/Users/31740/Documents/codes/newcore-rp2350/include/linux/slab.h **** #define SLAB_RED_ZONE		__SLAB_FLAG_BIT(_SLAB_RED_ZONE)
  78:/mnt/c/Users/31740/Documents/codes/newcore-rp2350/include/linux/slab.h **** /* DEBUG: Poison objects */
  79:/mnt/c/Users/31740/Documents/codes/newcore-rp2350/include/linux/slab.h **** #define SLAB_POISON		__SLAB_FLAG_BIT(_SLAB_POISON)
  80:/mnt/c/Users/31740/Documents/codes/newcore-rp2350/include/linux/slab.h **** /* Indicate a kmalloc slab */
  81:/mnt/c/Users/31740/Documents/codes/newcore-rp2350/include/linux/slab.h **** #define SLAB_KMALLOC		__SLAB_FLAG_BIT(_SLAB_KMALLOC)
  82:/mnt/c/Users/31740/Documents/codes/newcore-rp2350/include/linux/slab.h **** /**
  83:/mnt/c/Users/31740/Documents/codes/newcore-rp2350/include/linux/slab.h ****  * define SLAB_HWCACHE_ALIGN - Align objects on cache line boundaries.
  84:/mnt/c/Users/31740/Documents/codes/newcore-rp2350/include/linux/slab.h ****  *
  85:/mnt/c/Users/31740/Documents/codes/newcore-rp2350/include/linux/slab.h ****  * Sufficiently large objects are aligned on cache line boundary. For object
  86:/mnt/c/Users/31740/Documents/codes/newcore-rp2350/include/linux/slab.h ****  * size smaller than a half of cache line size, the alignment is on the half of
  87:/mnt/c/Users/31740/Documents/codes/newcore-rp2350/include/linux/slab.h ****  * cache line size. In general, if object size is smaller than 1/2^n of cache
  88:/mnt/c/Users/31740/Documents/codes/newcore-rp2350/include/linux/slab.h ****  * line size, the alignment is adjusted to 1/2^n.
  89:/mnt/c/Users/31740/Documents/codes/newcore-rp2350/include/linux/slab.h ****  *
  90:/mnt/c/Users/31740/Documents/codes/newcore-rp2350/include/linux/slab.h ****  * If explicit alignment is also requested by the respective
  91:/mnt/c/Users/31740/Documents/codes/newcore-rp2350/include/linux/slab.h ****  * &struct kmem_cache_args field, the greater of both is alignments is applied.
  92:/mnt/c/Users/31740/Documents/codes/newcore-rp2350/include/linux/slab.h ****  */
  93:/mnt/c/Users/31740/Documents/codes/newcore-rp2350/include/linux/slab.h **** #define SLAB_HWCACHE_ALIGN	__SLAB_FLAG_BIT(_SLAB_HWCACHE_ALIGN)
  94:/mnt/c/Users/31740/Documents/codes/newcore-rp2350/include/linux/slab.h **** /* Use GFP_DMA memory */
  95:/mnt/c/Users/31740/Documents/codes/newcore-rp2350/include/linux/slab.h **** #define SLAB_CACHE_DMA		__SLAB_FLAG_BIT(_SLAB_CACHE_DMA)
  96:/mnt/c/Users/31740/Documents/codes/newcore-rp2350/include/linux/slab.h **** /* Use GFP_DMA32 memory */
  97:/mnt/c/Users/31740/Documents/codes/newcore-rp2350/include/linux/slab.h **** #define SLAB_CACHE_DMA32	__SLAB_FLAG_BIT(_SLAB_CACHE_DMA32)
  98:/mnt/c/Users/31740/Documents/codes/newcore-rp2350/include/linux/slab.h **** /* DEBUG: Store the last owner for bug hunting */
  99:/mnt/c/Users/31740/Documents/codes/newcore-rp2350/include/linux/slab.h **** #define SLAB_STORE_USER		__SLAB_FLAG_BIT(_SLAB_STORE_USER)
ARM GAS  /tmp/ccCpc7T0.s 			page 12


 100:/mnt/c/Users/31740/Documents/codes/newcore-rp2350/include/linux/slab.h **** /* Panic if kmem_cache_create() fails */
 101:/mnt/c/Users/31740/Documents/codes/newcore-rp2350/include/linux/slab.h **** #define SLAB_PANIC		__SLAB_FLAG_BIT(_SLAB_PANIC)
 102:/mnt/c/Users/31740/Documents/codes/newcore-rp2350/include/linux/slab.h **** /**
 103:/mnt/c/Users/31740/Documents/codes/newcore-rp2350/include/linux/slab.h ****  * define SLAB_TYPESAFE_BY_RCU - **WARNING** READ THIS!
 104:/mnt/c/Users/31740/Documents/codes/newcore-rp2350/include/linux/slab.h ****  *
 105:/mnt/c/Users/31740/Documents/codes/newcore-rp2350/include/linux/slab.h ****  * This delays freeing the SLAB page by a grace period, it does _NOT_
 106:/mnt/c/Users/31740/Documents/codes/newcore-rp2350/include/linux/slab.h ****  * delay object freeing. This means that if you do kmem_cache_free()
 107:/mnt/c/Users/31740/Documents/codes/newcore-rp2350/include/linux/slab.h ****  * that memory location is free to be reused at any time. Thus it may
 108:/mnt/c/Users/31740/Documents/codes/newcore-rp2350/include/linux/slab.h ****  * be possible to see another object there in the same RCU grace period.
 109:/mnt/c/Users/31740/Documents/codes/newcore-rp2350/include/linux/slab.h ****  *
 110:/mnt/c/Users/31740/Documents/codes/newcore-rp2350/include/linux/slab.h ****  * This feature only ensures the memory location backing the object
 111:/mnt/c/Users/31740/Documents/codes/newcore-rp2350/include/linux/slab.h ****  * stays valid, the trick to using this is relying on an independent
 112:/mnt/c/Users/31740/Documents/codes/newcore-rp2350/include/linux/slab.h ****  * object validation pass. Something like:
 113:/mnt/c/Users/31740/Documents/codes/newcore-rp2350/include/linux/slab.h ****  *
 114:/mnt/c/Users/31740/Documents/codes/newcore-rp2350/include/linux/slab.h ****  * ::
 115:/mnt/c/Users/31740/Documents/codes/newcore-rp2350/include/linux/slab.h ****  *
 116:/mnt/c/Users/31740/Documents/codes/newcore-rp2350/include/linux/slab.h ****  *  begin:
 117:/mnt/c/Users/31740/Documents/codes/newcore-rp2350/include/linux/slab.h ****  *   rcu_read_lock();
 118:/mnt/c/Users/31740/Documents/codes/newcore-rp2350/include/linux/slab.h ****  *   obj = lockless_lookup(key);
 119:/mnt/c/Users/31740/Documents/codes/newcore-rp2350/include/linux/slab.h ****  *   if (obj) {
 120:/mnt/c/Users/31740/Documents/codes/newcore-rp2350/include/linux/slab.h ****  *     if (!try_get_ref(obj)) // might fail for free objects
 121:/mnt/c/Users/31740/Documents/codes/newcore-rp2350/include/linux/slab.h ****  *       rcu_read_unlock();
 122:/mnt/c/Users/31740/Documents/codes/newcore-rp2350/include/linux/slab.h ****  *       goto begin;
 123:/mnt/c/Users/31740/Documents/codes/newcore-rp2350/include/linux/slab.h ****  *
 124:/mnt/c/Users/31740/Documents/codes/newcore-rp2350/include/linux/slab.h ****  *     if (obj->key != key) { // not the object we expected
 125:/mnt/c/Users/31740/Documents/codes/newcore-rp2350/include/linux/slab.h ****  *       put_ref(obj);
 126:/mnt/c/Users/31740/Documents/codes/newcore-rp2350/include/linux/slab.h ****  *       rcu_read_unlock();
 127:/mnt/c/Users/31740/Documents/codes/newcore-rp2350/include/linux/slab.h ****  *       goto begin;
 128:/mnt/c/Users/31740/Documents/codes/newcore-rp2350/include/linux/slab.h ****  *     }
 129:/mnt/c/Users/31740/Documents/codes/newcore-rp2350/include/linux/slab.h ****  *   }
 130:/mnt/c/Users/31740/Documents/codes/newcore-rp2350/include/linux/slab.h ****  *  rcu_read_unlock();
 131:/mnt/c/Users/31740/Documents/codes/newcore-rp2350/include/linux/slab.h ****  *
 132:/mnt/c/Users/31740/Documents/codes/newcore-rp2350/include/linux/slab.h ****  * This is useful if we need to approach a kernel structure obliquely,
 133:/mnt/c/Users/31740/Documents/codes/newcore-rp2350/include/linux/slab.h ****  * from its address obtained without the usual locking. We can lock
 134:/mnt/c/Users/31740/Documents/codes/newcore-rp2350/include/linux/slab.h ****  * the structure to stabilize it and check it's still at the given address,
 135:/mnt/c/Users/31740/Documents/codes/newcore-rp2350/include/linux/slab.h ****  * only if we can be sure that the memory has not been meanwhile reused
 136:/mnt/c/Users/31740/Documents/codes/newcore-rp2350/include/linux/slab.h ****  * for some other kind of object (which our subsystem's lock might corrupt).
 137:/mnt/c/Users/31740/Documents/codes/newcore-rp2350/include/linux/slab.h ****  *
 138:/mnt/c/Users/31740/Documents/codes/newcore-rp2350/include/linux/slab.h ****  * rcu_read_lock before reading the address, then rcu_read_unlock after
 139:/mnt/c/Users/31740/Documents/codes/newcore-rp2350/include/linux/slab.h ****  * taking the spinlock within the structure expected at that address.
 140:/mnt/c/Users/31740/Documents/codes/newcore-rp2350/include/linux/slab.h ****  *
 141:/mnt/c/Users/31740/Documents/codes/newcore-rp2350/include/linux/slab.h ****  * Note that it is not possible to acquire a lock within a structure
 142:/mnt/c/Users/31740/Documents/codes/newcore-rp2350/include/linux/slab.h ****  * allocated with SLAB_TYPESAFE_BY_RCU without first acquiring a reference
 143:/mnt/c/Users/31740/Documents/codes/newcore-rp2350/include/linux/slab.h ****  * as described above.  The reason is that SLAB_TYPESAFE_BY_RCU pages
 144:/mnt/c/Users/31740/Documents/codes/newcore-rp2350/include/linux/slab.h ****  * are not zeroed before being given to the slab, which means that any
 145:/mnt/c/Users/31740/Documents/codes/newcore-rp2350/include/linux/slab.h ****  * locks must be initialized after each and every kmem_struct_alloc().
 146:/mnt/c/Users/31740/Documents/codes/newcore-rp2350/include/linux/slab.h ****  * Alternatively, make the ctor passed to kmem_cache_create() initialize
 147:/mnt/c/Users/31740/Documents/codes/newcore-rp2350/include/linux/slab.h ****  * the locks at page-allocation time, as is done in __i915_request_ctor(),
 148:/mnt/c/Users/31740/Documents/codes/newcore-rp2350/include/linux/slab.h ****  * sighand_ctor(), and anon_vma_ctor().  Such a ctor permits readers
 149:/mnt/c/Users/31740/Documents/codes/newcore-rp2350/include/linux/slab.h ****  * to safely acquire those ctor-initialized locks under rcu_read_lock()
 150:/mnt/c/Users/31740/Documents/codes/newcore-rp2350/include/linux/slab.h ****  * protection.
 151:/mnt/c/Users/31740/Documents/codes/newcore-rp2350/include/linux/slab.h ****  *
 152:/mnt/c/Users/31740/Documents/codes/newcore-rp2350/include/linux/slab.h ****  * Note that SLAB_TYPESAFE_BY_RCU was originally named SLAB_DESTROY_BY_RCU.
 153:/mnt/c/Users/31740/Documents/codes/newcore-rp2350/include/linux/slab.h ****  */
 154:/mnt/c/Users/31740/Documents/codes/newcore-rp2350/include/linux/slab.h **** #define SLAB_TYPESAFE_BY_RCU	__SLAB_FLAG_BIT(_SLAB_TYPESAFE_BY_RCU)
 155:/mnt/c/Users/31740/Documents/codes/newcore-rp2350/include/linux/slab.h **** /* Trace allocations and frees */
 156:/mnt/c/Users/31740/Documents/codes/newcore-rp2350/include/linux/slab.h **** #define SLAB_TRACE		__SLAB_FLAG_BIT(_SLAB_TRACE)
ARM GAS  /tmp/ccCpc7T0.s 			page 13


 157:/mnt/c/Users/31740/Documents/codes/newcore-rp2350/include/linux/slab.h **** 
 158:/mnt/c/Users/31740/Documents/codes/newcore-rp2350/include/linux/slab.h **** /* Flag to prevent checks on free */
 159:/mnt/c/Users/31740/Documents/codes/newcore-rp2350/include/linux/slab.h **** #ifdef CONFIG_DEBUG_OBJECTS
 160:/mnt/c/Users/31740/Documents/codes/newcore-rp2350/include/linux/slab.h **** # define SLAB_DEBUG_OBJECTS	__SLAB_FLAG_BIT(_SLAB_DEBUG_OBJECTS)
 161:/mnt/c/Users/31740/Documents/codes/newcore-rp2350/include/linux/slab.h **** #else
 162:/mnt/c/Users/31740/Documents/codes/newcore-rp2350/include/linux/slab.h **** # define SLAB_DEBUG_OBJECTS	__SLAB_FLAG_UNUSED
 163:/mnt/c/Users/31740/Documents/codes/newcore-rp2350/include/linux/slab.h **** #endif
 164:/mnt/c/Users/31740/Documents/codes/newcore-rp2350/include/linux/slab.h **** 
 165:/mnt/c/Users/31740/Documents/codes/newcore-rp2350/include/linux/slab.h **** /* Avoid kmemleak tracing */
 166:/mnt/c/Users/31740/Documents/codes/newcore-rp2350/include/linux/slab.h **** #define SLAB_NOLEAKTRACE	__SLAB_FLAG_BIT(_SLAB_NOLEAKTRACE)
 167:/mnt/c/Users/31740/Documents/codes/newcore-rp2350/include/linux/slab.h **** 
 168:/mnt/c/Users/31740/Documents/codes/newcore-rp2350/include/linux/slab.h **** /*
 169:/mnt/c/Users/31740/Documents/codes/newcore-rp2350/include/linux/slab.h ****  * Prevent merging with compatible kmem caches. This flag should be used
 170:/mnt/c/Users/31740/Documents/codes/newcore-rp2350/include/linux/slab.h ****  * cautiously. Valid use cases:
 171:/mnt/c/Users/31740/Documents/codes/newcore-rp2350/include/linux/slab.h ****  *
 172:/mnt/c/Users/31740/Documents/codes/newcore-rp2350/include/linux/slab.h ****  * - caches created for self-tests (e.g. kunit)
 173:/mnt/c/Users/31740/Documents/codes/newcore-rp2350/include/linux/slab.h ****  * - general caches created and used by a subsystem, only when a
 174:/mnt/c/Users/31740/Documents/codes/newcore-rp2350/include/linux/slab.h ****  *   (subsystem-specific) debug option is enabled
 175:/mnt/c/Users/31740/Documents/codes/newcore-rp2350/include/linux/slab.h ****  * - performance critical caches, should be very rare and consulted with slab
 176:/mnt/c/Users/31740/Documents/codes/newcore-rp2350/include/linux/slab.h ****  *   maintainers, and not used together with CONFIG_SLUB_TINY
 177:/mnt/c/Users/31740/Documents/codes/newcore-rp2350/include/linux/slab.h ****  */
 178:/mnt/c/Users/31740/Documents/codes/newcore-rp2350/include/linux/slab.h **** #define SLAB_NO_MERGE		__SLAB_FLAG_BIT(_SLAB_NO_MERGE)
 179:/mnt/c/Users/31740/Documents/codes/newcore-rp2350/include/linux/slab.h **** 
 180:/mnt/c/Users/31740/Documents/codes/newcore-rp2350/include/linux/slab.h **** /* Fault injection mark */
 181:/mnt/c/Users/31740/Documents/codes/newcore-rp2350/include/linux/slab.h **** #ifdef CONFIG_FAILSLAB
 182:/mnt/c/Users/31740/Documents/codes/newcore-rp2350/include/linux/slab.h **** # define SLAB_FAILSLAB		__SLAB_FLAG_BIT(_SLAB_FAILSLAB)
 183:/mnt/c/Users/31740/Documents/codes/newcore-rp2350/include/linux/slab.h **** #else
 184:/mnt/c/Users/31740/Documents/codes/newcore-rp2350/include/linux/slab.h **** # define SLAB_FAILSLAB		__SLAB_FLAG_UNUSED
 185:/mnt/c/Users/31740/Documents/codes/newcore-rp2350/include/linux/slab.h **** #endif
 186:/mnt/c/Users/31740/Documents/codes/newcore-rp2350/include/linux/slab.h **** /**
 187:/mnt/c/Users/31740/Documents/codes/newcore-rp2350/include/linux/slab.h ****  * define SLAB_ACCOUNT - Account allocations to memcg.
 188:/mnt/c/Users/31740/Documents/codes/newcore-rp2350/include/linux/slab.h ****  *
 189:/mnt/c/Users/31740/Documents/codes/newcore-rp2350/include/linux/slab.h ****  * All object allocations from this cache will be memcg accounted, regardless of
 190:/mnt/c/Users/31740/Documents/codes/newcore-rp2350/include/linux/slab.h ****  * __GFP_ACCOUNT being or not being passed to individual allocations.
 191:/mnt/c/Users/31740/Documents/codes/newcore-rp2350/include/linux/slab.h ****  */
 192:/mnt/c/Users/31740/Documents/codes/newcore-rp2350/include/linux/slab.h **** #ifdef CONFIG_MEMCG
 193:/mnt/c/Users/31740/Documents/codes/newcore-rp2350/include/linux/slab.h **** # define SLAB_ACCOUNT		__SLAB_FLAG_BIT(_SLAB_ACCOUNT)
 194:/mnt/c/Users/31740/Documents/codes/newcore-rp2350/include/linux/slab.h **** #else
 195:/mnt/c/Users/31740/Documents/codes/newcore-rp2350/include/linux/slab.h **** # define SLAB_ACCOUNT		__SLAB_FLAG_UNUSED
 196:/mnt/c/Users/31740/Documents/codes/newcore-rp2350/include/linux/slab.h **** #endif
 197:/mnt/c/Users/31740/Documents/codes/newcore-rp2350/include/linux/slab.h **** 
 198:/mnt/c/Users/31740/Documents/codes/newcore-rp2350/include/linux/slab.h **** #ifdef CONFIG_KASAN_GENERIC
 199:/mnt/c/Users/31740/Documents/codes/newcore-rp2350/include/linux/slab.h **** #define SLAB_KASAN		__SLAB_FLAG_BIT(_SLAB_KASAN)
 200:/mnt/c/Users/31740/Documents/codes/newcore-rp2350/include/linux/slab.h **** #else
 201:/mnt/c/Users/31740/Documents/codes/newcore-rp2350/include/linux/slab.h **** #define SLAB_KASAN		__SLAB_FLAG_UNUSED
 202:/mnt/c/Users/31740/Documents/codes/newcore-rp2350/include/linux/slab.h **** #endif
 203:/mnt/c/Users/31740/Documents/codes/newcore-rp2350/include/linux/slab.h **** 
 204:/mnt/c/Users/31740/Documents/codes/newcore-rp2350/include/linux/slab.h **** /*
 205:/mnt/c/Users/31740/Documents/codes/newcore-rp2350/include/linux/slab.h ****  * Ignore user specified debugging flags.
 206:/mnt/c/Users/31740/Documents/codes/newcore-rp2350/include/linux/slab.h ****  * Intended for caches created for self-tests so they have only flags
 207:/mnt/c/Users/31740/Documents/codes/newcore-rp2350/include/linux/slab.h ****  * specified in the code and other flags are ignored.
 208:/mnt/c/Users/31740/Documents/codes/newcore-rp2350/include/linux/slab.h ****  */
 209:/mnt/c/Users/31740/Documents/codes/newcore-rp2350/include/linux/slab.h **** #define SLAB_NO_USER_FLAGS	__SLAB_FLAG_BIT(_SLAB_NO_USER_FLAGS)
 210:/mnt/c/Users/31740/Documents/codes/newcore-rp2350/include/linux/slab.h **** 
 211:/mnt/c/Users/31740/Documents/codes/newcore-rp2350/include/linux/slab.h **** #ifdef CONFIG_KFENCE
 212:/mnt/c/Users/31740/Documents/codes/newcore-rp2350/include/linux/slab.h **** #define SLAB_SKIP_KFENCE	__SLAB_FLAG_BIT(_SLAB_SKIP_KFENCE)
 213:/mnt/c/Users/31740/Documents/codes/newcore-rp2350/include/linux/slab.h **** #else
ARM GAS  /tmp/ccCpc7T0.s 			page 14


 214:/mnt/c/Users/31740/Documents/codes/newcore-rp2350/include/linux/slab.h **** #define SLAB_SKIP_KFENCE	__SLAB_FLAG_UNUSED
 215:/mnt/c/Users/31740/Documents/codes/newcore-rp2350/include/linux/slab.h **** #endif
 216:/mnt/c/Users/31740/Documents/codes/newcore-rp2350/include/linux/slab.h **** 
 217:/mnt/c/Users/31740/Documents/codes/newcore-rp2350/include/linux/slab.h **** /* The following flags affect the page allocator grouping pages by mobility */
 218:/mnt/c/Users/31740/Documents/codes/newcore-rp2350/include/linux/slab.h **** /**
 219:/mnt/c/Users/31740/Documents/codes/newcore-rp2350/include/linux/slab.h ****  * define SLAB_RECLAIM_ACCOUNT - Objects are reclaimable.
 220:/mnt/c/Users/31740/Documents/codes/newcore-rp2350/include/linux/slab.h ****  *
 221:/mnt/c/Users/31740/Documents/codes/newcore-rp2350/include/linux/slab.h ****  * Use this flag for caches that have an associated shrinker. As a result, slab
 222:/mnt/c/Users/31740/Documents/codes/newcore-rp2350/include/linux/slab.h ****  * pages are allocated with __GFP_RECLAIMABLE, which affects grouping pages by
 223:/mnt/c/Users/31740/Documents/codes/newcore-rp2350/include/linux/slab.h ****  * mobility, and are accounted in SReclaimable counter in /proc/meminfo
 224:/mnt/c/Users/31740/Documents/codes/newcore-rp2350/include/linux/slab.h ****  */
 225:/mnt/c/Users/31740/Documents/codes/newcore-rp2350/include/linux/slab.h **** #ifndef CONFIG_SLUB_TINY
 226:/mnt/c/Users/31740/Documents/codes/newcore-rp2350/include/linux/slab.h **** #define SLAB_RECLAIM_ACCOUNT	__SLAB_FLAG_BIT(_SLAB_RECLAIM_ACCOUNT)
 227:/mnt/c/Users/31740/Documents/codes/newcore-rp2350/include/linux/slab.h **** #else
 228:/mnt/c/Users/31740/Documents/codes/newcore-rp2350/include/linux/slab.h **** #define SLAB_RECLAIM_ACCOUNT	__SLAB_FLAG_UNUSED
 229:/mnt/c/Users/31740/Documents/codes/newcore-rp2350/include/linux/slab.h **** #endif
 230:/mnt/c/Users/31740/Documents/codes/newcore-rp2350/include/linux/slab.h **** #define SLAB_TEMPORARY		SLAB_RECLAIM_ACCOUNT	/* Objects are short-lived */
 231:/mnt/c/Users/31740/Documents/codes/newcore-rp2350/include/linux/slab.h **** 
 232:/mnt/c/Users/31740/Documents/codes/newcore-rp2350/include/linux/slab.h **** /* Slab created using create_boot_cache */
 233:/mnt/c/Users/31740/Documents/codes/newcore-rp2350/include/linux/slab.h **** #ifdef CONFIG_SLAB_OBJ_EXT
 234:/mnt/c/Users/31740/Documents/codes/newcore-rp2350/include/linux/slab.h **** #define SLAB_NO_OBJ_EXT		__SLAB_FLAG_BIT(_SLAB_NO_OBJ_EXT)
 235:/mnt/c/Users/31740/Documents/codes/newcore-rp2350/include/linux/slab.h **** #else
 236:/mnt/c/Users/31740/Documents/codes/newcore-rp2350/include/linux/slab.h **** #define SLAB_NO_OBJ_EXT		__SLAB_FLAG_UNUSED
 237:/mnt/c/Users/31740/Documents/codes/newcore-rp2350/include/linux/slab.h **** #endif
 238:/mnt/c/Users/31740/Documents/codes/newcore-rp2350/include/linux/slab.h **** 
 239:/mnt/c/Users/31740/Documents/codes/newcore-rp2350/include/linux/slab.h **** /*
 240:/mnt/c/Users/31740/Documents/codes/newcore-rp2350/include/linux/slab.h ****  * freeptr_t represents a SLUB freelist pointer, which might be encoded
 241:/mnt/c/Users/31740/Documents/codes/newcore-rp2350/include/linux/slab.h ****  * and not dereferenceable if CONFIG_SLAB_FREELIST_HARDENED is enabled.
 242:/mnt/c/Users/31740/Documents/codes/newcore-rp2350/include/linux/slab.h ****  */
 243:/mnt/c/Users/31740/Documents/codes/newcore-rp2350/include/linux/slab.h **** typedef struct { unsigned long v; } freeptr_t;
 244:/mnt/c/Users/31740/Documents/codes/newcore-rp2350/include/linux/slab.h **** 
 245:/mnt/c/Users/31740/Documents/codes/newcore-rp2350/include/linux/slab.h **** /*
 246:/mnt/c/Users/31740/Documents/codes/newcore-rp2350/include/linux/slab.h ****  * ZERO_SIZE_PTR will be returned for zero sized kmalloc requests.
 247:/mnt/c/Users/31740/Documents/codes/newcore-rp2350/include/linux/slab.h ****  *
 248:/mnt/c/Users/31740/Documents/codes/newcore-rp2350/include/linux/slab.h ****  * Dereferencing ZERO_SIZE_PTR will lead to a distinct access fault.
 249:/mnt/c/Users/31740/Documents/codes/newcore-rp2350/include/linux/slab.h ****  *
 250:/mnt/c/Users/31740/Documents/codes/newcore-rp2350/include/linux/slab.h ****  * ZERO_SIZE_PTR can be passed to kfree though in the same way that NULL can.
 251:/mnt/c/Users/31740/Documents/codes/newcore-rp2350/include/linux/slab.h ****  * Both make kfree a no-op.
 252:/mnt/c/Users/31740/Documents/codes/newcore-rp2350/include/linux/slab.h ****  */
 253:/mnt/c/Users/31740/Documents/codes/newcore-rp2350/include/linux/slab.h **** #define ZERO_SIZE_PTR ((void *)16)
 254:/mnt/c/Users/31740/Documents/codes/newcore-rp2350/include/linux/slab.h **** 
 255:/mnt/c/Users/31740/Documents/codes/newcore-rp2350/include/linux/slab.h **** #define ZERO_OR_NULL_PTR(x) ((unsigned long)(x) <= \
 256:/mnt/c/Users/31740/Documents/codes/newcore-rp2350/include/linux/slab.h **** 				(unsigned long)ZERO_SIZE_PTR)
 257:/mnt/c/Users/31740/Documents/codes/newcore-rp2350/include/linux/slab.h **** 
 258:/mnt/c/Users/31740/Documents/codes/newcore-rp2350/include/linux/slab.h **** 
 259:/mnt/c/Users/31740/Documents/codes/newcore-rp2350/include/linux/slab.h **** 
 260:/mnt/c/Users/31740/Documents/codes/newcore-rp2350/include/linux/slab.h **** 
 261:/mnt/c/Users/31740/Documents/codes/newcore-rp2350/include/linux/slab.h **** 
 262:/mnt/c/Users/31740/Documents/codes/newcore-rp2350/include/linux/slab.h **** #ifdef CONFIG_SLUB_CPU_PARTIAL
 263:/mnt/c/Users/31740/Documents/codes/newcore-rp2350/include/linux/slab.h **** #define slub_percpu_partial(c)			((c)->partial)
 264:/mnt/c/Users/31740/Documents/codes/newcore-rp2350/include/linux/slab.h **** 
 265:/mnt/c/Users/31740/Documents/codes/newcore-rp2350/include/linux/slab.h **** #define slub_set_percpu_partial(c, p)		\
 266:/mnt/c/Users/31740/Documents/codes/newcore-rp2350/include/linux/slab.h **** ({						\
 267:/mnt/c/Users/31740/Documents/codes/newcore-rp2350/include/linux/slab.h **** 	slub_percpu_partial(c) = (p)->next;	\
 268:/mnt/c/Users/31740/Documents/codes/newcore-rp2350/include/linux/slab.h **** })
 269:/mnt/c/Users/31740/Documents/codes/newcore-rp2350/include/linux/slab.h **** 
 270:/mnt/c/Users/31740/Documents/codes/newcore-rp2350/include/linux/slab.h **** #define slub_percpu_partial_read_once(c)	READ_ONCE(slub_percpu_partial(c))
ARM GAS  /tmp/ccCpc7T0.s 			page 15


 271:/mnt/c/Users/31740/Documents/codes/newcore-rp2350/include/linux/slab.h **** #else
 272:/mnt/c/Users/31740/Documents/codes/newcore-rp2350/include/linux/slab.h **** #define slub_percpu_partial(c)			NULL
 273:/mnt/c/Users/31740/Documents/codes/newcore-rp2350/include/linux/slab.h **** 
 274:/mnt/c/Users/31740/Documents/codes/newcore-rp2350/include/linux/slab.h **** #define slub_set_percpu_partial(c, p)
 275:/mnt/c/Users/31740/Documents/codes/newcore-rp2350/include/linux/slab.h **** 
 276:/mnt/c/Users/31740/Documents/codes/newcore-rp2350/include/linux/slab.h **** #define slub_percpu_partial_read_once(c)	NULL
 277:/mnt/c/Users/31740/Documents/codes/newcore-rp2350/include/linux/slab.h **** 
 278:/mnt/c/Users/31740/Documents/codes/newcore-rp2350/include/linux/slab.h **** 
 279:/mnt/c/Users/31740/Documents/codes/newcore-rp2350/include/linux/slab.h **** #endif // CONFIG_SLUB_CPU_PARTIAL
 280:/mnt/c/Users/31740/Documents/codes/newcore-rp2350/include/linux/slab.h **** 
 281:/mnt/c/Users/31740/Documents/codes/newcore-rp2350/include/linux/slab.h **** /*
 282:/mnt/c/Users/31740/Documents/codes/newcore-rp2350/include/linux/slab.h **** 	* Word size structure that can be atomically updated or read and that
 283:/mnt/c/Users/31740/Documents/codes/newcore-rp2350/include/linux/slab.h **** 	* contains both the order and the number of objects that a slab of the
 284:/mnt/c/Users/31740/Documents/codes/newcore-rp2350/include/linux/slab.h **** 	* given order would contain.
 285:/mnt/c/Users/31740/Documents/codes/newcore-rp2350/include/linux/slab.h **** 	*/				
 286:/mnt/c/Users/31740/Documents/codes/newcore-rp2350/include/linux/slab.h **** struct kmem_cache_order_objects {
 287:/mnt/c/Users/31740/Documents/codes/newcore-rp2350/include/linux/slab.h **** 	unsigned int x;
 288:/mnt/c/Users/31740/Documents/codes/newcore-rp2350/include/linux/slab.h **** };
 289:/mnt/c/Users/31740/Documents/codes/newcore-rp2350/include/linux/slab.h **** 
 290:/mnt/c/Users/31740/Documents/codes/newcore-rp2350/include/linux/slab.h **** struct kmem_cache_node {
 291:/mnt/c/Users/31740/Documents/codes/newcore-rp2350/include/linux/slab.h **** 	spinlock_t list_lock;
 292:/mnt/c/Users/31740/Documents/codes/newcore-rp2350/include/linux/slab.h **** 	unsigned long nr_partial;
 293:/mnt/c/Users/31740/Documents/codes/newcore-rp2350/include/linux/slab.h **** 	struct list_head partial;
 294:/mnt/c/Users/31740/Documents/codes/newcore-rp2350/include/linux/slab.h **** #ifdef CONFIG_SLUB_DEBUG
 295:/mnt/c/Users/31740/Documents/codes/newcore-rp2350/include/linux/slab.h **** 	atomic_long_t nr_slabs;
 296:/mnt/c/Users/31740/Documents/codes/newcore-rp2350/include/linux/slab.h **** 	atomic_long_t total_objects;
 297:/mnt/c/Users/31740/Documents/codes/newcore-rp2350/include/linux/slab.h **** 	struct list_head full;
 298:/mnt/c/Users/31740/Documents/codes/newcore-rp2350/include/linux/slab.h **** #endif
 299:/mnt/c/Users/31740/Documents/codes/newcore-rp2350/include/linux/slab.h **** };
 300:/mnt/c/Users/31740/Documents/codes/newcore-rp2350/include/linux/slab.h **** 
 301:/mnt/c/Users/31740/Documents/codes/newcore-rp2350/include/linux/slab.h **** struct kmem_cache {
 302:/mnt/c/Users/31740/Documents/codes/newcore-rp2350/include/linux/slab.h **** 	#ifndef CONFIG_SLUB_TINY
 303:/mnt/c/Users/31740/Documents/codes/newcore-rp2350/include/linux/slab.h **** 	//	struct kmem_cache_cpu __percpu *cpu_slab;
 304:/mnt/c/Users/31740/Documents/codes/newcore-rp2350/include/linux/slab.h **** 	#endif
 305:/mnt/c/Users/31740/Documents/codes/newcore-rp2350/include/linux/slab.h **** 		/* Used for retrieving partial slabs, etc. */
 306:/mnt/c/Users/31740/Documents/codes/newcore-rp2350/include/linux/slab.h **** 		slab_flags_t flags;
 307:/mnt/c/Users/31740/Documents/codes/newcore-rp2350/include/linux/slab.h **** 		unsigned long min_partial;
 308:/mnt/c/Users/31740/Documents/codes/newcore-rp2350/include/linux/slab.h **** 		unsigned int size;		/* Object size including metadata */
 309:/mnt/c/Users/31740/Documents/codes/newcore-rp2350/include/linux/slab.h **** 		unsigned int object_size;	/* Object size without metadata */
 310:/mnt/c/Users/31740/Documents/codes/newcore-rp2350/include/linux/slab.h **** 		struct reciprocal_value reciprocal_size;
 311:/mnt/c/Users/31740/Documents/codes/newcore-rp2350/include/linux/slab.h **** 		unsigned int offset;		/* Free pointer offset */
 312:/mnt/c/Users/31740/Documents/codes/newcore-rp2350/include/linux/slab.h **** 	#ifdef CONFIG_SLUB_CPU_PARTIAL
 313:/mnt/c/Users/31740/Documents/codes/newcore-rp2350/include/linux/slab.h **** 		/* Number of per cpu partial objects to keep around */
 314:/mnt/c/Users/31740/Documents/codes/newcore-rp2350/include/linux/slab.h **** 		unsigned int cpu_partial;
 315:/mnt/c/Users/31740/Documents/codes/newcore-rp2350/include/linux/slab.h **** 		/* Number of per cpu partial slabs to keep around */
 316:/mnt/c/Users/31740/Documents/codes/newcore-rp2350/include/linux/slab.h **** 		unsigned int cpu_partial_slabs;
 317:/mnt/c/Users/31740/Documents/codes/newcore-rp2350/include/linux/slab.h **** 	#endif
 318:/mnt/c/Users/31740/Documents/codes/newcore-rp2350/include/linux/slab.h **** 		struct kmem_cache_order_objects oo;
 319:/mnt/c/Users/31740/Documents/codes/newcore-rp2350/include/linux/slab.h **** 	
 320:/mnt/c/Users/31740/Documents/codes/newcore-rp2350/include/linux/slab.h **** 		/* Allocation and freeing of slabs */
 321:/mnt/c/Users/31740/Documents/codes/newcore-rp2350/include/linux/slab.h **** 		struct kmem_cache_order_objects min;
 322:/mnt/c/Users/31740/Documents/codes/newcore-rp2350/include/linux/slab.h **** 		gfp_t allocflags;		/* gfp flags to use on each alloc */
 323:/mnt/c/Users/31740/Documents/codes/newcore-rp2350/include/linux/slab.h **** 		int refcount;			/* Refcount for slab cache destroy */
 324:/mnt/c/Users/31740/Documents/codes/newcore-rp2350/include/linux/slab.h **** 		void (*ctor)(void *object);	/* Object constructor */
 325:/mnt/c/Users/31740/Documents/codes/newcore-rp2350/include/linux/slab.h **** 		unsigned int inuse;		/* Offset to metadata */
 326:/mnt/c/Users/31740/Documents/codes/newcore-rp2350/include/linux/slab.h **** 		unsigned int align;		/* Alignment */
 327:/mnt/c/Users/31740/Documents/codes/newcore-rp2350/include/linux/slab.h **** 		unsigned int red_left_pad;	/* Left redzone padding size */
ARM GAS  /tmp/ccCpc7T0.s 			page 16


 328:/mnt/c/Users/31740/Documents/codes/newcore-rp2350/include/linux/slab.h **** 		const char *name;		/* Name (only for display!) */
 329:/mnt/c/Users/31740/Documents/codes/newcore-rp2350/include/linux/slab.h **** 		struct list_head list;		/* List of slab caches */
 330:/mnt/c/Users/31740/Documents/codes/newcore-rp2350/include/linux/slab.h **** 	#ifdef CONFIG_SYSFS
 331:/mnt/c/Users/31740/Documents/codes/newcore-rp2350/include/linux/slab.h **** 		struct kobject kobj;		/* For sysfs */
 332:/mnt/c/Users/31740/Documents/codes/newcore-rp2350/include/linux/slab.h **** 	#endif
 333:/mnt/c/Users/31740/Documents/codes/newcore-rp2350/include/linux/slab.h **** 	#ifdef CONFIG_SLAB_FREELIST_HARDENED
 334:/mnt/c/Users/31740/Documents/codes/newcore-rp2350/include/linux/slab.h **** 		unsigned long random;
 335:/mnt/c/Users/31740/Documents/codes/newcore-rp2350/include/linux/slab.h **** 	#endif
 336:/mnt/c/Users/31740/Documents/codes/newcore-rp2350/include/linux/slab.h **** 	
 337:/mnt/c/Users/31740/Documents/codes/newcore-rp2350/include/linux/slab.h **** 	#ifdef CONFIG_NUMA
 338:/mnt/c/Users/31740/Documents/codes/newcore-rp2350/include/linux/slab.h **** 		/*
 339:/mnt/c/Users/31740/Documents/codes/newcore-rp2350/include/linux/slab.h **** 			* Defragmentation by allocating from a remote node.
 340:/mnt/c/Users/31740/Documents/codes/newcore-rp2350/include/linux/slab.h **** 			*/
 341:/mnt/c/Users/31740/Documents/codes/newcore-rp2350/include/linux/slab.h **** 		unsigned int remote_node_defrag_ratio;
 342:/mnt/c/Users/31740/Documents/codes/newcore-rp2350/include/linux/slab.h **** 	#endif
 343:/mnt/c/Users/31740/Documents/codes/newcore-rp2350/include/linux/slab.h **** 	
 344:/mnt/c/Users/31740/Documents/codes/newcore-rp2350/include/linux/slab.h **** 	#ifdef CONFIG_SLAB_FREELIST_RANDOM
 345:/mnt/c/Users/31740/Documents/codes/newcore-rp2350/include/linux/slab.h **** 		unsigned int *random_seq;
 346:/mnt/c/Users/31740/Documents/codes/newcore-rp2350/include/linux/slab.h **** 	#endif
 347:/mnt/c/Users/31740/Documents/codes/newcore-rp2350/include/linux/slab.h **** 	
 348:/mnt/c/Users/31740/Documents/codes/newcore-rp2350/include/linux/slab.h **** 	#ifdef CONFIG_KASAN_GENERIC
 349:/mnt/c/Users/31740/Documents/codes/newcore-rp2350/include/linux/slab.h **** 		struct kasan_cache kasan_info;
 350:/mnt/c/Users/31740/Documents/codes/newcore-rp2350/include/linux/slab.h **** 	#endif
 351:/mnt/c/Users/31740/Documents/codes/newcore-rp2350/include/linux/slab.h **** 	
 352:/mnt/c/Users/31740/Documents/codes/newcore-rp2350/include/linux/slab.h **** 	#ifdef CONFIG_HARDENED_USERCOPY
 353:/mnt/c/Users/31740/Documents/codes/newcore-rp2350/include/linux/slab.h **** 		unsigned int useroffset;	/* Usercopy region offset */
 354:/mnt/c/Users/31740/Documents/codes/newcore-rp2350/include/linux/slab.h **** 		unsigned int usersize;		/* Usercopy region size */
 355:/mnt/c/Users/31740/Documents/codes/newcore-rp2350/include/linux/slab.h **** 	#endif
 356:/mnt/c/Users/31740/Documents/codes/newcore-rp2350/include/linux/slab.h **** 	
 357:/mnt/c/Users/31740/Documents/codes/newcore-rp2350/include/linux/slab.h **** 		struct kmem_cache_node *node[MAX_NUMNODES];
 358:/mnt/c/Users/31740/Documents/codes/newcore-rp2350/include/linux/slab.h **** 	};
 359:/mnt/c/Users/31740/Documents/codes/newcore-rp2350/include/linux/slab.h **** 					
 360:/mnt/c/Users/31740/Documents/codes/newcore-rp2350/include/linux/slab.h **** 
 361:/mnt/c/Users/31740/Documents/codes/newcore-rp2350/include/linux/slab.h **** 
 362:/mnt/c/Users/31740/Documents/codes/newcore-rp2350/include/linux/slab.h **** 
 363:/mnt/c/Users/31740/Documents/codes/newcore-rp2350/include/linux/slab.h **** 
 364:/mnt/c/Users/31740/Documents/codes/newcore-rp2350/include/linux/slab.h **** #define KMALLOC_WAIT 1
 365:/mnt/c/Users/31740/Documents/codes/newcore-rp2350/include/linux/slab.h **** 
 366:/mnt/c/Users/31740/Documents/codes/newcore-rp2350/include/linux/slab.h **** 
 367:/mnt/c/Users/31740/Documents/codes/newcore-rp2350/include/linux/slab.h **** extern void* __smalloc__(u32 size, gfp_t flags);
 368:/mnt/c/Users/31740/Documents/codes/newcore-rp2350/include/linux/slab.h **** extern void  __sfree__(void* addr);
 369:/mnt/c/Users/31740/Documents/codes/newcore-rp2350/include/linux/slab.h **** 
 370:/mnt/c/Users/31740/Documents/codes/newcore-rp2350/include/linux/slab.h **** 
 371:/mnt/c/Users/31740/Documents/codes/newcore-rp2350/include/linux/slab.h **** static void inline *vmalloc(unsigned long size){
 372:/mnt/c/Users/31740/Documents/codes/newcore-rp2350/include/linux/slab.h **** 	return __smalloc__(size,GFP_TRANSHUGE_LIGHT);
 373:/mnt/c/Users/31740/Documents/codes/newcore-rp2350/include/linux/slab.h **** }
 374:/mnt/c/Users/31740/Documents/codes/newcore-rp2350/include/linux/slab.h **** 
 375:/mnt/c/Users/31740/Documents/codes/newcore-rp2350/include/linux/slab.h **** static void inline vfree(void *addr){
 376:/mnt/c/Users/31740/Documents/codes/newcore-rp2350/include/linux/slab.h **** 	__sfree__(addr);
 377:/mnt/c/Users/31740/Documents/codes/newcore-rp2350/include/linux/slab.h **** }
 378:/mnt/c/Users/31740/Documents/codes/newcore-rp2350/include/linux/slab.h **** 
 379:/mnt/c/Users/31740/Documents/codes/newcore-rp2350/include/linux/slab.h **** static void inline *kmalloc(size_t size, gfp_t flags){
 330              		.loc 3 379 21 view .LVU77
 331              	.LBB26:
 380:/mnt/c/Users/31740/Documents/codes/newcore-rp2350/include/linux/slab.h **** 	return __smalloc__((u32)size,flags);
 332              		.loc 3 380 2 view .LVU78
 333              		.loc 3 380 9 is_stmt 0 view .LVU79
ARM GAS  /tmp/ccCpc7T0.s 			page 17


 334 0010 4FF44C61 		mov	r1, #3264
 335 0014 2046     		mov	r0, r4
 336              	.LVL29:
 337              		.loc 3 380 9 view .LVU80
 338 0016 FFF7FEFF 		bl	__smalloc__
 339              	.LVL30:
 340              		.loc 3 380 9 view .LVU81
 341              	.LBE26:
 342              	.LBE25:
  52:/mnt/c/Users/31740/Documents/codes/newcore-rp2350/lib/sys/sys_fs.c ****         return -ENOMEM;
 343              		.loc 1 52 5 is_stmt 1 view .LVU82
  52:/mnt/c/Users/31740/Documents/codes/newcore-rp2350/lib/sys/sys_fs.c ****         return -ENOMEM;
 344              		.loc 1 52 8 is_stmt 0 view .LVU83
 345 001a 0546     		mov	r5, r0
 346 001c D0B1     		cbz	r0, .L33
  55:/mnt/c/Users/31740/Documents/codes/newcore-rp2350/lib/sys/sys_fs.c ****     ssize_t ret = kernel_read(file, kbuf, count, &pos);
 347              		.loc 1 55 5 is_stmt 1 view .LVU84
  55:/mnt/c/Users/31740/Documents/codes/newcore-rp2350/lib/sys/sys_fs.c ****     ssize_t ret = kernel_read(file, kbuf, count, &pos);
 348              		.loc 1 55 12 is_stmt 0 view .LVU85
 349 001e 0022     		movs	r2, #0
 350 0020 0023     		movs	r3, #0
 351 0022 CDE90023 		strd	r2, [sp]
  56:/mnt/c/Users/31740/Documents/codes/newcore-rp2350/lib/sys/sys_fs.c ****     if (ret >= 0)
 352              		.loc 1 56 5 is_stmt 1 view .LVU86
  56:/mnt/c/Users/31740/Documents/codes/newcore-rp2350/lib/sys/sys_fs.c ****     if (ret >= 0)
 353              		.loc 1 56 19 is_stmt 0 view .LVU87
 354 0026 6B46     		mov	r3, sp
 355 0028 2246     		mov	r2, r4
 356 002a 0146     		mov	r1, r0
 357 002c 3846     		mov	r0, r7
 358              	.LVL31:
  56:/mnt/c/Users/31740/Documents/codes/newcore-rp2350/lib/sys/sys_fs.c ****     if (ret >= 0)
 359              		.loc 1 56 19 view .LVU88
 360 002e FFF7FEFF 		bl	kernel_read
 361              	.LVL32:
  57:/mnt/c/Users/31740/Documents/codes/newcore-rp2350/lib/sys/sys_fs.c ****         if (copy_to_user(buf, kbuf, ret))
 362              		.loc 1 57 5 is_stmt 1 view .LVU89
  57:/mnt/c/Users/31740/Documents/codes/newcore-rp2350/lib/sys/sys_fs.c ****         if (copy_to_user(buf, kbuf, ret))
 363              		.loc 1 57 8 is_stmt 0 view .LVU90
 364 0032 041E     		subs	r4, r0, #0
 365              	.LVL33:
  57:/mnt/c/Users/31740/Documents/codes/newcore-rp2350/lib/sys/sys_fs.c ****         if (copy_to_user(buf, kbuf, ret))
 366              		.loc 1 57 8 view .LVU91
 367 0034 05DA     		bge	.L35
 368              	.LVL34:
 369              	.L31:
  61:/mnt/c/Users/31740/Documents/codes/newcore-rp2350/lib/sys/sys_fs.c ****     return ret;
 370              		.loc 1 61 5 is_stmt 1 view .LVU92
 371              	.LBB27:
 372              	.LBI27:
 381:/mnt/c/Users/31740/Documents/codes/newcore-rp2350/include/linux/slab.h **** }
 382:/mnt/c/Users/31740/Documents/codes/newcore-rp2350/include/linux/slab.h **** 
 383:/mnt/c/Users/31740/Documents/codes/newcore-rp2350/include/linux/slab.h **** static void inline kfree(const void *ptr){
 373              		.loc 3 383 20 view .LVU93
 374              	.LBB28:
 384:/mnt/c/Users/31740/Documents/codes/newcore-rp2350/include/linux/slab.h **** 	__sfree__((void*)ptr);
 375              		.loc 3 384 2 view .LVU94
ARM GAS  /tmp/ccCpc7T0.s 			page 18


 376 0036 2846     		mov	r0, r5
 377 0038 FFF7FEFF 		bl	__sfree__
 378              	.LVL35:
 379              		.loc 3 384 2 is_stmt 0 view .LVU95
 380              	.LBE28:
 381              	.LBE27:
  62:/mnt/c/Users/31740/Documents/codes/newcore-rp2350/lib/sys/sys_fs.c **** }
 382              		.loc 1 62 5 is_stmt 1 view .LVU96
 383              	.L29:
  63:/mnt/c/Users/31740/Documents/codes/newcore-rp2350/lib/sys/sys_fs.c **** EXPORT_SYMBOL(sys_read);
 384              		.loc 1 63 1 is_stmt 0 view .LVU97
 385 003c 2046     		mov	r0, r4
 386 003e 03B0     		add	sp, sp, #12
 387              	.LCFI4:
 388              		.cfi_remember_state
 389              		.cfi_def_cfa_offset 20
 390              		@ sp needed
 391 0040 F0BD     		pop	{r4, r5, r6, r7, pc}
 392              	.LVL36:
 393              	.L35:
 394              	.LCFI5:
 395              		.cfi_restore_state
  58:/mnt/c/Users/31740/Documents/codes/newcore-rp2350/lib/sys/sys_fs.c ****             ret = -EFAULT;
 396              		.loc 1 58 9 is_stmt 1 view .LVU98
 397              	.LBB29:
 398              	.LBI29:
 399              		.file 4 "/mnt/c/Users/31740/Documents/codes/newcore-rp2350/include/linux/uaccess.h"
   1:/mnt/c/Users/31740/Documents/codes/newcore-rp2350/include/linux/uaccess.h **** #ifndef _UACCESS_H
   2:/mnt/c/Users/31740/Documents/codes/newcore-rp2350/include/linux/uaccess.h **** #define _UACCESS_H
   3:/mnt/c/Users/31740/Documents/codes/newcore-rp2350/include/linux/uaccess.h **** 
   4:/mnt/c/Users/31740/Documents/codes/newcore-rp2350/include/linux/uaccess.h **** #include <linux/compiler.h>
   5:/mnt/c/Users/31740/Documents/codes/newcore-rp2350/include/linux/uaccess.h **** #include <linux/types.h>
   6:/mnt/c/Users/31740/Documents/codes/newcore-rp2350/include/linux/uaccess.h **** #include <linux/string.h>
   7:/mnt/c/Users/31740/Documents/codes/newcore-rp2350/include/linux/uaccess.h **** 
   8:/mnt/c/Users/31740/Documents/codes/newcore-rp2350/include/linux/uaccess.h **** static inline int copy_from_user(void *to, const void __user *from, size_t n) //用于裸机环境
   9:/mnt/c/Users/31740/Documents/codes/newcore-rp2350/include/linux/uaccess.h **** {
  10:/mnt/c/Users/31740/Documents/codes/newcore-rp2350/include/linux/uaccess.h ****     memcpy(to, (void *)from, n);
  11:/mnt/c/Users/31740/Documents/codes/newcore-rp2350/include/linux/uaccess.h ****     return 0;
  12:/mnt/c/Users/31740/Documents/codes/newcore-rp2350/include/linux/uaccess.h **** }
  13:/mnt/c/Users/31740/Documents/codes/newcore-rp2350/include/linux/uaccess.h **** static inline int copy_to_user(void __user *to, const void *from, size_t n) //用于裸机环境中
 400              		.loc 4 13 19 view .LVU99
 401              	.LBB30:
  14:/mnt/c/Users/31740/Documents/codes/newcore-rp2350/include/linux/uaccess.h **** {
  15:/mnt/c/Users/31740/Documents/codes/newcore-rp2350/include/linux/uaccess.h ****     memcpy((void *)to, from, n);
 402              		.loc 4 15 5 view .LVU100
 403 0042 2246     		mov	r2, r4
 404 0044 2946     		mov	r1, r5
 405 0046 3046     		mov	r0, r6
 406              	.LVL37:
 407              		.loc 4 15 5 is_stmt 0 view .LVU101
 408 0048 FFF7FEFF 		bl	memcpy
 409              	.LVL38:
  16:/mnt/c/Users/31740/Documents/codes/newcore-rp2350/include/linux/uaccess.h ****     return 0;
 410              		.loc 4 16 5 is_stmt 1 view .LVU102
 411              		.loc 4 16 5 is_stmt 0 view .LVU103
 412              	.LBE30:
 413              	.LBE29:
ARM GAS  /tmp/ccCpc7T0.s 			page 19


 414 004c F3E7     		b	.L31
 415              	.LVL39:
 416              	.L32:
  49:/mnt/c/Users/31740/Documents/codes/newcore-rp2350/lib/sys/sys_fs.c **** 
 417              		.loc 1 49 16 view .LVU104
 418 004e 6FF00804 		mvn	r4, #8
 419              	.LVL40:
  49:/mnt/c/Users/31740/Documents/codes/newcore-rp2350/lib/sys/sys_fs.c **** 
 420              		.loc 1 49 16 view .LVU105
 421 0052 F3E7     		b	.L29
 422              	.LVL41:
 423              	.L33:
  53:/mnt/c/Users/31740/Documents/codes/newcore-rp2350/lib/sys/sys_fs.c **** 
 424              		.loc 1 53 16 view .LVU106
 425 0054 6FF00B04 		mvn	r4, #11
 426              	.LVL42:
  53:/mnt/c/Users/31740/Documents/codes/newcore-rp2350/lib/sys/sys_fs.c **** 
 427              		.loc 1 53 16 view .LVU107
 428 0058 F0E7     		b	.L29
 429              		.cfi_endproc
 430              	.LFE965:
 432              		.section	.text.sys_write,"ax",%progbits
 433              		.align	1
 434              		.syntax unified
 435              		.thumb
 436              		.thumb_func
 438              	sys_write:
 439              	.LVL43:
 440              	.LFB966:
  68:/mnt/c/Users/31740/Documents/codes/newcore-rp2350/lib/sys/sys_fs.c ****     struct file *file = get_file_from_fd(fd);
 441              		.loc 1 68 71 is_stmt 1 view -0
 442              		.cfi_startproc
 443              		@ args = 0, pretend = 0, frame = 8
 444              		@ frame_needed = 0, uses_anonymous_args = 0
  68:/mnt/c/Users/31740/Documents/codes/newcore-rp2350/lib/sys/sys_fs.c ****     struct file *file = get_file_from_fd(fd);
 445              		.loc 1 68 71 is_stmt 0 view .LVU109
 446 0000 F0B5     		push	{r4, r5, r6, r7, lr}
 447              	.LCFI6:
 448              		.cfi_def_cfa_offset 20
 449              		.cfi_offset 4, -20
 450              		.cfi_offset 5, -16
 451              		.cfi_offset 6, -12
 452              		.cfi_offset 7, -8
 453              		.cfi_offset 14, -4
 454 0002 83B0     		sub	sp, sp, #12
 455              	.LCFI7:
 456              		.cfi_def_cfa_offset 32
 457 0004 0D46     		mov	r5, r1
 458 0006 1446     		mov	r4, r2
  69:/mnt/c/Users/31740/Documents/codes/newcore-rp2350/lib/sys/sys_fs.c ****     if (!file)
 459              		.loc 1 69 5 is_stmt 1 view .LVU110
  69:/mnt/c/Users/31740/Documents/codes/newcore-rp2350/lib/sys/sys_fs.c ****     if (!file)
 460              		.loc 1 69 25 is_stmt 0 view .LVU111
 461 0008 FFF7FEFF 		bl	get_file_from_fd
 462              	.LVL44:
  70:/mnt/c/Users/31740/Documents/codes/newcore-rp2350/lib/sys/sys_fs.c ****         return -EBADF;
 463              		.loc 1 70 5 is_stmt 1 view .LVU112
ARM GAS  /tmp/ccCpc7T0.s 			page 20


  70:/mnt/c/Users/31740/Documents/codes/newcore-rp2350/lib/sys/sys_fs.c ****         return -EBADF;
 464              		.loc 1 70 8 is_stmt 0 view .LVU113
 465 000c E0B1     		cbz	r0, .L38
 466 000e 0746     		mov	r7, r0
  73:/mnt/c/Users/31740/Documents/codes/newcore-rp2350/lib/sys/sys_fs.c ****     if (!kbuf)
 467              		.loc 1 73 5 is_stmt 1 view .LVU114
 468              	.LVL45:
 469              	.LBB31:
 470              	.LBI31:
 379:/mnt/c/Users/31740/Documents/codes/newcore-rp2350/include/linux/slab.h **** 	return __smalloc__((u32)size,flags);
 471              		.loc 3 379 21 view .LVU115
 472              	.LBB32:
 380:/mnt/c/Users/31740/Documents/codes/newcore-rp2350/include/linux/slab.h **** }
 473              		.loc 3 380 2 view .LVU116
 380:/mnt/c/Users/31740/Documents/codes/newcore-rp2350/include/linux/slab.h **** }
 474              		.loc 3 380 9 is_stmt 0 view .LVU117
 475 0010 4FF44C61 		mov	r1, #3264
 476 0014 2046     		mov	r0, r4
 477              	.LVL46:
 380:/mnt/c/Users/31740/Documents/codes/newcore-rp2350/include/linux/slab.h **** }
 478              		.loc 3 380 9 view .LVU118
 479 0016 FFF7FEFF 		bl	__smalloc__
 480              	.LVL47:
 380:/mnt/c/Users/31740/Documents/codes/newcore-rp2350/include/linux/slab.h **** }
 481              		.loc 3 380 9 view .LVU119
 482              	.LBE32:
 483              	.LBE31:
  74:/mnt/c/Users/31740/Documents/codes/newcore-rp2350/lib/sys/sys_fs.c ****         return -ENOMEM;
 484              		.loc 1 74 5 is_stmt 1 view .LVU120
  74:/mnt/c/Users/31740/Documents/codes/newcore-rp2350/lib/sys/sys_fs.c ****         return -ENOMEM;
 485              		.loc 1 74 8 is_stmt 0 view .LVU121
 486 001a 0646     		mov	r6, r0
 487 001c B8B1     		cbz	r0, .L39
  77:/mnt/c/Users/31740/Documents/codes/newcore-rp2350/lib/sys/sys_fs.c ****         kfree(kbuf);
 488              		.loc 1 77 5 is_stmt 1 view .LVU122
 489              	.LVL48:
 490              	.LBB33:
 491              	.LBI33:
   8:/mnt/c/Users/31740/Documents/codes/newcore-rp2350/include/linux/uaccess.h **** {
 492              		.loc 4 8 19 view .LVU123
 493              	.LBB34:
  10:/mnt/c/Users/31740/Documents/codes/newcore-rp2350/include/linux/uaccess.h ****     return 0;
 494              		.loc 4 10 5 view .LVU124
 495 001e 2246     		mov	r2, r4
 496 0020 2946     		mov	r1, r5
 497 0022 FFF7FEFF 		bl	memcpy
 498              	.LVL49:
  11:/mnt/c/Users/31740/Documents/codes/newcore-rp2350/include/linux/uaccess.h **** }
 499              		.loc 4 11 5 view .LVU125
  11:/mnt/c/Users/31740/Documents/codes/newcore-rp2350/include/linux/uaccess.h **** }
 500              		.loc 4 11 5 is_stmt 0 view .LVU126
 501              	.LBE34:
 502              	.LBE33:
  82:/mnt/c/Users/31740/Documents/codes/newcore-rp2350/lib/sys/sys_fs.c ****     ssize_t ret = kernel_write(file, kbuf, count, &pos);
 503              		.loc 1 82 5 is_stmt 1 view .LVU127
  82:/mnt/c/Users/31740/Documents/codes/newcore-rp2350/lib/sys/sys_fs.c ****     ssize_t ret = kernel_write(file, kbuf, count, &pos);
 504              		.loc 1 82 12 is_stmt 0 view .LVU128
ARM GAS  /tmp/ccCpc7T0.s 			page 21


 505 0026 0022     		movs	r2, #0
 506 0028 0023     		movs	r3, #0
 507 002a CDE90023 		strd	r2, [sp]
  83:/mnt/c/Users/31740/Documents/codes/newcore-rp2350/lib/sys/sys_fs.c **** 
 508              		.loc 1 83 5 is_stmt 1 view .LVU129
  83:/mnt/c/Users/31740/Documents/codes/newcore-rp2350/lib/sys/sys_fs.c **** 
 509              		.loc 1 83 19 is_stmt 0 view .LVU130
 510 002e 6B46     		mov	r3, sp
 511 0030 2246     		mov	r2, r4
 512 0032 3146     		mov	r1, r6
 513 0034 3846     		mov	r0, r7
 514 0036 FFF7FEFF 		bl	kernel_write
 515              	.LVL50:
 516 003a 0446     		mov	r4, r0
 517              	.LVL51:
  85:/mnt/c/Users/31740/Documents/codes/newcore-rp2350/lib/sys/sys_fs.c ****     return ret;
 518              		.loc 1 85 5 is_stmt 1 view .LVU131
 519              	.LBB35:
 520              	.LBI35:
 383:/mnt/c/Users/31740/Documents/codes/newcore-rp2350/include/linux/slab.h **** 	__sfree__((void*)ptr);
 521              		.loc 3 383 20 view .LVU132
 522              	.LBB36:
 523              		.loc 3 384 2 view .LVU133
 524 003c 3046     		mov	r0, r6
 525              	.LVL52:
 526              		.loc 3 384 2 is_stmt 0 view .LVU134
 527 003e FFF7FEFF 		bl	__sfree__
 528              	.LVL53:
 529              		.loc 3 384 2 view .LVU135
 530              	.LBE36:
 531              	.LBE35:
  86:/mnt/c/Users/31740/Documents/codes/newcore-rp2350/lib/sys/sys_fs.c **** }
 532              		.loc 1 86 5 is_stmt 1 view .LVU136
 533              	.L36:
  87:/mnt/c/Users/31740/Documents/codes/newcore-rp2350/lib/sys/sys_fs.c **** EXPORT_SYMBOL(sys_write);
 534              		.loc 1 87 1 is_stmt 0 view .LVU137
 535 0042 2046     		mov	r0, r4
 536 0044 03B0     		add	sp, sp, #12
 537              	.LCFI8:
 538              		.cfi_remember_state
 539              		.cfi_def_cfa_offset 20
 540              		@ sp needed
 541 0046 F0BD     		pop	{r4, r5, r6, r7, pc}
 542              	.LVL54:
 543              	.L38:
 544              	.LCFI9:
 545              		.cfi_restore_state
  71:/mnt/c/Users/31740/Documents/codes/newcore-rp2350/lib/sys/sys_fs.c **** 
 546              		.loc 1 71 16 view .LVU138
 547 0048 6FF00804 		mvn	r4, #8
 548              	.LVL55:
  71:/mnt/c/Users/31740/Documents/codes/newcore-rp2350/lib/sys/sys_fs.c **** 
 549              		.loc 1 71 16 view .LVU139
 550 004c F9E7     		b	.L36
 551              	.LVL56:
 552              	.L39:
  75:/mnt/c/Users/31740/Documents/codes/newcore-rp2350/lib/sys/sys_fs.c **** 
ARM GAS  /tmp/ccCpc7T0.s 			page 22


 553              		.loc 1 75 16 view .LVU140
 554 004e 6FF00B04 		mvn	r4, #11
 555              	.LVL57:
  75:/mnt/c/Users/31740/Documents/codes/newcore-rp2350/lib/sys/sys_fs.c **** 
 556              		.loc 1 75 16 view .LVU141
 557 0052 F6E7     		b	.L36
 558              		.cfi_endproc
 559              	.LFE966:
 561              		.section	.text.sys_mkdir,"ax",%progbits
 562              		.align	1
 563              		.syntax unified
 564              		.thumb
 565              		.thumb_func
 567              	sys_mkdir:
 568              	.LVL58:
 569              	.LFB968:
 100:/mnt/c/Users/31740/Documents/codes/newcore-rp2350/lib/sys/sys_fs.c **** EXPORT_SYMBOL(sys_close);
 101:/mnt/c/Users/31740/Documents/codes/newcore-rp2350/lib/sys/sys_fs.c **** 
 102:/mnt/c/Users/31740/Documents/codes/newcore-rp2350/lib/sys/sys_fs.c **** 
 103:/mnt/c/Users/31740/Documents/codes/newcore-rp2350/lib/sys/sys_fs.c **** struct dentry* mkdir(char *path,umode_t mode);
 104:/mnt/c/Users/31740/Documents/codes/newcore-rp2350/lib/sys/sys_fs.c **** static int sys_mkdir(char* __user path,umode_t mode)
 105:/mnt/c/Users/31740/Documents/codes/newcore-rp2350/lib/sys/sys_fs.c **** {
 570              		.loc 1 105 1 is_stmt 1 view -0
 571              		.cfi_startproc
 572              		@ args = 0, pretend = 0, frame = 0
 573              		@ frame_needed = 0, uses_anonymous_args = 0
 574              		.loc 1 105 1 is_stmt 0 view .LVU143
 575 0000 08B5     		push	{r3, lr}
 576              	.LCFI10:
 577              		.cfi_def_cfa_offset 8
 578              		.cfi_offset 3, -8
 579              		.cfi_offset 14, -4
 106:/mnt/c/Users/31740/Documents/codes/newcore-rp2350/lib/sys/sys_fs.c ****    return mkdir(path,mode);
 580              		.loc 1 106 4 is_stmt 1 view .LVU144
 581              		.loc 1 106 11 is_stmt 0 view .LVU145
 582 0002 FFF7FEFF 		bl	mkdir
 583              	.LVL59:
 107:/mnt/c/Users/31740/Documents/codes/newcore-rp2350/lib/sys/sys_fs.c **** }
 584              		.loc 1 107 1 view .LVU146
 585 0006 08BD     		pop	{r3, pc}
 586              		.cfi_endproc
 587              	.LFE968:
 589              		.section	.text.sys_ioctl,"ax",%progbits
 590              		.align	1
 591              		.syntax unified
 592              		.thumb
 593              		.thumb_func
 595              	sys_ioctl:
 596              	.LVL60:
 597              	.LFB969:
 108:/mnt/c/Users/31740/Documents/codes/newcore-rp2350/lib/sys/sys_fs.c **** EXPORT_SYMBOL(sys_mkdir);
 109:/mnt/c/Users/31740/Documents/codes/newcore-rp2350/lib/sys/sys_fs.c **** 
 110:/mnt/c/Users/31740/Documents/codes/newcore-rp2350/lib/sys/sys_fs.c **** 
 111:/mnt/c/Users/31740/Documents/codes/newcore-rp2350/lib/sys/sys_fs.c **** static long sys_ioctl(unsigned int fd, unsigned int cmd, unsigned long arg) {
 598              		.loc 1 111 77 is_stmt 1 view -0
 599              		.cfi_startproc
 600              		@ args = 0, pretend = 0, frame = 0
ARM GAS  /tmp/ccCpc7T0.s 			page 23


 601              		@ frame_needed = 0, uses_anonymous_args = 0
 602              		.loc 1 111 77 is_stmt 0 view .LVU148
 603 0000 38B5     		push	{r3, r4, r5, lr}
 604              	.LCFI11:
 605              		.cfi_def_cfa_offset 16
 606              		.cfi_offset 3, -16
 607              		.cfi_offset 4, -12
 608              		.cfi_offset 5, -8
 609              		.cfi_offset 14, -4
 610 0002 0C46     		mov	r4, r1
 611 0004 1546     		mov	r5, r2
 112:/mnt/c/Users/31740/Documents/codes/newcore-rp2350/lib/sys/sys_fs.c ****     struct file *file = get_file_from_fd(fd);
 612              		.loc 1 112 5 is_stmt 1 view .LVU149
 613              		.loc 1 112 25 is_stmt 0 view .LVU150
 614 0006 FFF7FEFF 		bl	get_file_from_fd
 615              	.LVL61:
 113:/mnt/c/Users/31740/Documents/codes/newcore-rp2350/lib/sys/sys_fs.c ****     if (!file)
 616              		.loc 1 113 5 is_stmt 1 view .LVU151
 617              		.loc 1 113 8 is_stmt 0 view .LVU152
 618 000a 20B1     		cbz	r0, .L45
 114:/mnt/c/Users/31740/Documents/codes/newcore-rp2350/lib/sys/sys_fs.c ****         return -EBADF;
 115:/mnt/c/Users/31740/Documents/codes/newcore-rp2350/lib/sys/sys_fs.c **** 
 116:/mnt/c/Users/31740/Documents/codes/newcore-rp2350/lib/sys/sys_fs.c ****     long ret = vfs_ioctl(file, cmd, arg);
 619              		.loc 1 116 5 is_stmt 1 view .LVU153
 620              		.loc 1 116 16 is_stmt 0 view .LVU154
 621 000c 2A46     		mov	r2, r5
 622 000e 2146     		mov	r1, r4
 623 0010 FFF7FEFF 		bl	vfs_ioctl
 624              	.LVL62:
 117:/mnt/c/Users/31740/Documents/codes/newcore-rp2350/lib/sys/sys_fs.c **** 
 118:/mnt/c/Users/31740/Documents/codes/newcore-rp2350/lib/sys/sys_fs.c ****     return ret;
 625              		.loc 1 118 5 is_stmt 1 view .LVU155
 626              	.L43:
 119:/mnt/c/Users/31740/Documents/codes/newcore-rp2350/lib/sys/sys_fs.c **** }
 627              		.loc 1 119 1 is_stmt 0 view .LVU156
 628 0014 38BD     		pop	{r3, r4, r5, pc}
 629              	.LVL63:
 630              	.L45:
 114:/mnt/c/Users/31740/Documents/codes/newcore-rp2350/lib/sys/sys_fs.c ****         return -EBADF;
 631              		.loc 1 114 16 view .LVU157
 632 0016 6FF00800 		mvn	r0, #8
 633              	.LVL64:
 114:/mnt/c/Users/31740/Documents/codes/newcore-rp2350/lib/sys/sys_fs.c ****         return -EBADF;
 634              		.loc 1 114 16 view .LVU158
 635 001a FBE7     		b	.L43
 636              		.cfi_endproc
 637              	.LFE969:
 639              		.section	.rodata.str1.4,"aMS",%progbits,1
 640              		.align	2
 641              	.LC0:
 642 0000 7379735F 		.ascii	"sys_ioctl\000"
 642      696F6374 
 642      6C00
 643 000a 0000     		.align	2
 644              	.LC1:
 645 000c 00       		.ascii	"\000"
 646              		.section	.export_table,"aw"
ARM GAS  /tmp/ccCpc7T0.s 			page 24


 647              		.align	2
 650              	sys_ioctl_export_struct:
 651 0000 00000000 		.word	.LC0
 652 0004 0C000000 		.word	.LC1
 653 0008 00000000 		.word	sys_ioctl
 654              		.section	.rodata.str1.4
 655 000d 000000   		.align	2
 656              	.LC2:
 657 0010 7379735F 		.ascii	"sys_mkdir\000"
 657      6D6B6469 
 657      7200
 658              		.section	.export_table
 659              		.align	2
 662              	sys_mkdir_export_struct:
 663 000c 10000000 		.word	.LC2
 664 0010 0C000000 		.word	.LC1
 665 0014 00000000 		.word	sys_mkdir
 666              		.section	.rodata.str1.4
 667 001a 0000     		.align	2
 668              	.LC3:
 669 001c 7379735F 		.ascii	"sys_close\000"
 669      636C6F73 
 669      6500
 670              		.section	.export_table
 671              		.align	2
 674              	sys_close_export_struct:
 675 0018 1C000000 		.word	.LC3
 676 001c 0C000000 		.word	.LC1
 677 0020 00000000 		.word	sys_close
 678              		.section	.rodata.str1.4
 679 0026 0000     		.align	2
 680              	.LC4:
 681 0028 7379735F 		.ascii	"sys_write\000"
 681      77726974 
 681      6500
 682              		.section	.export_table
 683              		.align	2
 686              	sys_write_export_struct:
 687 0024 28000000 		.word	.LC4
 688 0028 0C000000 		.word	.LC1
 689 002c 00000000 		.word	sys_write
 690              		.section	.rodata.str1.4
 691 0032 0000     		.align	2
 692              	.LC5:
 693 0034 7379735F 		.ascii	"sys_read\000"
 693      72656164 
 693      00
 694              		.section	.export_table
 695              		.align	2
 698              	sys_read_export_struct:
 699 0030 34000000 		.word	.LC5
 700 0034 0C000000 		.word	.LC1
 701 0038 00000000 		.word	sys_read
 702              		.section	.rodata.str1.4
 703 003d 000000   		.align	2
 704              	.LC6:
 705 0040 7379735F 		.ascii	"sys_open\000"
ARM GAS  /tmp/ccCpc7T0.s 			page 25


 705      6F70656E 
 705      00
 706              		.section	.export_table
 707              		.align	2
 710              	sys_open_export_struct:
 711 003c 40000000 		.word	.LC6
 712 0040 0C000000 		.word	.LC1
 713 0044 00000000 		.word	sys_open
 714              		.section	.bss.fd_table,"aw",%nobits
 715              		.align	2
 718              	fd_table:
 719 0000 00000000 		.space	1024
 719      00000000 
 719      00000000 
 719      00000000 
 719      00000000 
 720              		.text
 721              	.Letext0:
 722              		.file 5 "/mnt/c/Users/31740/Documents/codes/newcore-rp2350/include/asm-generic/int-l64.h"
 723              		.file 6 "/mnt/c/Users/31740/Documents/codes/newcore-rp2350/include/asm-generic/posix_types.h"
 724              		.file 7 "/mnt/c/Users/31740/Documents/codes/newcore-rp2350/include/uapi/linux/types.h"
 725              		.file 8 "/mnt/c/Users/31740/Documents/codes/newcore-rp2350/include/linux/types.h"
 726              		.file 9 "/mnt/c/Users/31740/Documents/codes/newcore-rp2350/include/linux/errseq.h"
 727              		.file 10 "/mnt/c/Users/31740/Documents/codes/newcore-rp2350/include/linux/time64.h"
 728              		.file 11 "/mnt/c/Users/31740/Documents/codes/newcore-rp2350/arch/arm_m/include/asm/spinlock.h"
 729              		.file 12 "/mnt/c/Users/31740/Documents/codes/newcore-rp2350/include/linux/spinlock_types_raw.h"
 730              		.file 13 "/mnt/c/Users/31740/Documents/codes/newcore-rp2350/include/linux/spinlock_types.h"
 731              		.file 14 "/mnt/c/Users/31740/Documents/codes/newcore-rp2350/include/linux/rbtree_types.h"
 732              		.file 15 "/mnt/c/Users/31740/Documents/codes/newcore-rp2350/include/linux/uidgid_types.h"
 733              		.file 16 "/mnt/c/Users/31740/Documents/codes/newcore-rp2350/include/linux/projid.h"
 734              		.file 17 "/mnt/c/Users/31740/Documents/codes/newcore-rp2350/include/linux/fs.h"
 735              		.file 18 "/mnt/c/Users/31740/Documents/codes/newcore-rp2350/include/linux/mnt_idmapping.h"
 736              		.file 19 "/mnt/c/Users/31740/Documents/codes/newcore-rp2350/include/linux/mutex.h"
 737              		.file 20 "/mnt/c/Users/31740/Documents/codes/newcore-rp2350/include/linux/uio.h"
 738              		.file 21 "/mnt/c/Users/31740/Documents/codes/newcore-rp2350/include/linux/wait.h"
 739              		.file 22 "/mnt/c/Users/31740/Documents/codes/newcore-rp2350/include/linux/xarray.h"
 740              		.file 23 "/mnt/c/Users/31740/Documents/codes/newcore-rp2350/include/linux/migrate_mode.h"
 741              		.file 24 "/mnt/c/Users/31740/Documents/codes/newcore-rp2350/include/linux/rw_hint.h"
 742              		.file 25 "/mnt/c/Users/31740/Documents/codes/newcore-rp2350/include/linux/reciprocal_div.h"
 743              		.file 26 "/mnt/c/Users/31740/Documents/codes/newcore-rp2350/include/linux/mm_type.h"
 744              		.file 27 "/mnt/c/Users/31740/Documents/codes/newcore-rp2350/include/linux/bvec.h"
 745              		.file 28 "/mnt/c/Users/31740/Documents/codes/newcore-rp2350/include/linux/blk_types.h"
 746              		.file 29 "/mnt/c/Users/31740/Documents/codes/newcore-rp2350/include/linux/blkdev.h"
 747              		.file 30 "/mnt/c/Users/31740/Documents/codes/newcore-rp2350/include/linux/bio.h"
 748              		.file 31 "/mnt/c/Users/31740/Documents/codes/newcore-rp2350/include/linux/mempool_super_haper.h"
 749              		.file 32 "/mnt/c/Users/31740/Documents/codes/newcore-rp2350/include/linux/mempool.h"
 750              		.file 33 "/mnt/c/Users/31740/Documents/codes/newcore-rp2350/include/linux/lockdep_types.h"
 751              		.file 34 "/mnt/c/Users/31740/Documents/codes/newcore-rp2350/include/linux/workqueue_types.h"
 752              		.file 35 "/mnt/c/Users/31740/Documents/codes/newcore-rp2350/include/linux/blk-mq.h"
 753              		.file 36 "/mnt/c/Users/31740/Documents/codes/newcore-rp2350/include/linux/dcache.h"
 754              		.file 37 "/mnt/c/Users/31740/Documents/codes/newcore-rp2350/include/uapi/linux/pr.h"
 755              		.file 38 "/mnt/c/Users/31740/Documents/codes/newcore-rp2350/include/linux/pr.h"
 756              		.file 39 "/mnt/c/Users/31740/Documents/codes/newcore-rp2350/include/linux/hdreg.h"
 757              		.file 40 "/mnt/c/Users/31740/Documents/codes/newcore-rp2350/include/linux/lockref.h"
 758              		.file 41 "/mnt/c/Users/31740/Documents/codes/newcore-rp2350/include/linux/path.h"
 759              		.file 42 "/mnt/c/Users/31740/Documents/codes/newcore-rp2350/include/linux/statfs.h"
 760              		.file 43 "/mnt/c/Users/31740/Documents/codes/newcore-rp2350/include/linux/stat.h"
ARM GAS  /tmp/ccCpc7T0.s 			page 26


 761              		.file 44 "/mnt/c/Users/31740/Documents/codes/newcore-rp2350/include/linux/gfp_types.h"
 762              		.file 45 "/mnt/c/Users/31740/Documents/codes/newcore-rp2350/include/linux/export.h"
 763              		.file 46 "/mnt/c/Users/31740/Documents/codes/newcore-rp2350/arch/arm_m/include/asm/string.h"
 764              		.file 47 "<built-in>"
ARM GAS  /tmp/ccCpc7T0.s 			page 27


DEFINED SYMBOLS
                            *ABS*:00000000 sys_fs.c
     /tmp/ccCpc7T0.s:22     .text.install_fd:00000000 $t
     /tmp/ccCpc7T0.s:27     .text.install_fd:00000000 install_fd
     /tmp/ccCpc7T0.s:78     .text.install_fd:00000024 $d
     /tmp/ccCpc7T0.s:718    .bss.fd_table:00000000 fd_table
     /tmp/ccCpc7T0.s:83     .text.get_file_from_fd:00000000 $t
     /tmp/ccCpc7T0.s:88     .text.get_file_from_fd:00000000 get_file_from_fd
     /tmp/ccCpc7T0.s:117    .text.get_file_from_fd:00000010 $d
     /tmp/ccCpc7T0.s:122    .text.release_fd:00000000 $t
     /tmp/ccCpc7T0.s:127    .text.release_fd:00000000 release_fd
     /tmp/ccCpc7T0.s:150    .text.release_fd:00000010 $d
     /tmp/ccCpc7T0.s:155    .text.sys_close:00000000 $t
     /tmp/ccCpc7T0.s:160    .text.sys_close:00000000 sys_close
     /tmp/ccCpc7T0.s:206    .text.sys_open:00000000 $t
     /tmp/ccCpc7T0.s:211    .text.sys_open:00000000 sys_open
     /tmp/ccCpc7T0.s:291    .text.sys_read:00000000 $t
     /tmp/ccCpc7T0.s:296    .text.sys_read:00000000 sys_read
     /tmp/ccCpc7T0.s:433    .text.sys_write:00000000 $t
     /tmp/ccCpc7T0.s:438    .text.sys_write:00000000 sys_write
     /tmp/ccCpc7T0.s:562    .text.sys_mkdir:00000000 $t
     /tmp/ccCpc7T0.s:567    .text.sys_mkdir:00000000 sys_mkdir
     /tmp/ccCpc7T0.s:590    .text.sys_ioctl:00000000 $t
     /tmp/ccCpc7T0.s:595    .text.sys_ioctl:00000000 sys_ioctl
     /tmp/ccCpc7T0.s:640    .rodata.str1.4:00000000 $d
     /tmp/ccCpc7T0.s:647    .export_table:00000000 $d
     /tmp/ccCpc7T0.s:650    .export_table:00000000 sys_ioctl_export_struct
     /tmp/ccCpc7T0.s:662    .export_table:0000000c sys_mkdir_export_struct
     /tmp/ccCpc7T0.s:674    .export_table:00000018 sys_close_export_struct
     /tmp/ccCpc7T0.s:686    .export_table:00000024 sys_write_export_struct
     /tmp/ccCpc7T0.s:698    .export_table:00000030 sys_read_export_struct
     /tmp/ccCpc7T0.s:710    .export_table:0000003c sys_open_export_struct
     /tmp/ccCpc7T0.s:715    .bss.fd_table:00000000 $d

UNDEFINED SYMBOLS
filp_close
filp_open
__smalloc__
kernel_read
__sfree__
memcpy
kernel_write
mkdir
vfs_ioctl
