ARM GAS  /tmp/cccVW0aQ.s 			page 1


   1              		.cpu cortex-m4
   2              		.arch armv7e-m
   3              		.fpu fpv4-sp-d16
   4              		.eabi_attribute 27, 1
   5              		.eabi_attribute 28, 1
   6              		.eabi_attribute 20, 1
   7              		.eabi_attribute 21, 1
   8              		.eabi_attribute 23, 3
   9              		.eabi_attribute 24, 1
  10              		.eabi_attribute 25, 1
  11              		.eabi_attribute 26, 1
  12              		.eabi_attribute 30, 1
  13              		.eabi_attribute 34, 1
  14              		.eabi_attribute 18, 4
  15              		.file	"sys_sched.c"
  16              		.text
  17              	.Ltext0:
  18              		.cfi_sections	.debug_frame
  19              		.file 1 "/mnt/c/Users/31740/Desktop/newcore/lib/sys/sys_sched.c"
  20              		.section	.text.sys_exit,"ax",%progbits
  21              		.align	1
  22              		.syntax unified
  23              		.thumb
  24              		.thumb_func
  26              	sys_exit:
  27              	.LFB109:
   1:/mnt/c/Users/31740/Desktop/newcore/lib/sys/sys_sched.c **** #include <linux/sched.h>
   2:/mnt/c/Users/31740/Desktop/newcore/lib/sys/sys_sched.c **** #include <linux/export.h>
   3:/mnt/c/Users/31740/Desktop/newcore/lib/sys/sys_sched.c **** 
   4:/mnt/c/Users/31740/Desktop/newcore/lib/sys/sys_sched.c **** static void sys_exit(){
  28              		.loc 1 4 23 view -0
  29              		.cfi_startproc
  30              		@ Volatile: function does not return.
  31              		@ args = 0, pretend = 0, frame = 0
  32              		@ frame_needed = 0, uses_anonymous_args = 0
  33 0000 08B5     		push	{r3, lr}
  34              	.LCFI0:
  35              		.cfi_def_cfa_offset 8
  36              		.cfi_offset 3, -8
  37              		.cfi_offset 14, -4
   5:/mnt/c/Users/31740/Desktop/newcore/lib/sys/sys_sched.c ****     exit();
  38              		.loc 1 5 5 view .LVU1
  39 0002 FFF7FEFF 		bl	exit
  40              	.LVL0:
  41              		.cfi_endproc
  42              	.LFE109:
  44              		.section	.text.sys_sched_yield,"ax",%progbits
  45              		.align	1
  46              		.syntax unified
  47              		.thumb
  48              		.thumb_func
  50              	sys_sched_yield:
  51              	.LFB110:
   6:/mnt/c/Users/31740/Desktop/newcore/lib/sys/sys_sched.c **** }
   7:/mnt/c/Users/31740/Desktop/newcore/lib/sys/sys_sched.c **** EXPORT_SYMBOL(sys_exit);
   8:/mnt/c/Users/31740/Desktop/newcore/lib/sys/sys_sched.c **** 
   9:/mnt/c/Users/31740/Desktop/newcore/lib/sys/sys_sched.c **** 
ARM GAS  /tmp/cccVW0aQ.s 			page 2


  10:/mnt/c/Users/31740/Desktop/newcore/lib/sys/sys_sched.c **** 
  11:/mnt/c/Users/31740/Desktop/newcore/lib/sys/sys_sched.c **** static void sys_sched_yield()
  12:/mnt/c/Users/31740/Desktop/newcore/lib/sys/sys_sched.c **** {
  52              		.loc 1 12 1 view -0
  53              		.cfi_startproc
  54              		@ args = 0, pretend = 0, frame = 0
  55              		@ frame_needed = 0, uses_anonymous_args = 0
  56 0000 08B5     		push	{r3, lr}
  57              	.LCFI1:
  58              		.cfi_def_cfa_offset 8
  59              		.cfi_offset 3, -8
  60              		.cfi_offset 14, -4
  13:/mnt/c/Users/31740/Desktop/newcore/lib/sys/sys_sched.c ****     i_sched();
  61              		.loc 1 13 5 view .LVU3
  62 0002 FFF7FEFF 		bl	i_sched
  63              	.LVL1:
  14:/mnt/c/Users/31740/Desktop/newcore/lib/sys/sys_sched.c **** }
  64              		.loc 1 14 1 is_stmt 0 view .LVU4
  65 0006 08BD     		pop	{r3, pc}
  66              		.cfi_endproc
  67              	.LFE110:
  69              		.section	.rodata.str1.4,"aMS",%progbits,1
  70              		.align	2
  71              	.LC0:
  72 0000 7379735F 		.ascii	"sys_sched_yield\000"
  72      73636865 
  72      645F7969 
  72      656C6400 
  73              		.align	2
  74              	.LC1:
  75 0010 00       		.ascii	"\000"
  76              		.section	.export_table,"aw"
  77              		.align	2
  80              	sys_sched_yield_export_struct:
  81 0000 00000000 		.word	.LC0
  82 0004 10000000 		.word	.LC1
  83 0008 00000000 		.word	sys_sched_yield
  84              		.section	.rodata.str1.4
  85 0011 000000   		.align	2
  86              	.LC2:
  87 0014 7379735F 		.ascii	"sys_exit\000"
  87      65786974 
  87      00
  88              		.section	.export_table
  89              		.align	2
  92              	sys_exit_export_struct:
  93 000c 14000000 		.word	.LC2
  94 0010 10000000 		.word	.LC1
  95 0014 00000000 		.word	sys_exit
  96              		.text
  97              	.Letext0:
  98              		.file 2 "/mnt/c/Users/31740/Desktop/newcore/include/linux/export.h"
  99              		.file 3 "/mnt/c/Users/31740/Desktop/newcore/include/linux/sched.h"
ARM GAS  /tmp/cccVW0aQ.s 			page 3

