ARM GAS  /tmp/cccpLwD1.s 			page 1


   1              		.cpu cortex-m4
   2              		.arch armv7e-m
   3              		.fpu fpv4-sp-d16
   4              		.eabi_attribute 27, 1
   5              		.eabi_attribute 28, 1
   6              		.eabi_attribute 20, 1
   7              		.eabi_attribute 21, 1
   8              		.eabi_attribute 23, 3
   9              		.eabi_attribute 24, 1
  10              		.eabi_attribute 25, 1
  11              		.eabi_attribute 26, 1
  12              		.eabi_attribute 30, 1
  13              		.eabi_attribute 34, 1
  14              		.eabi_attribute 18, 4
  15              		.file	"vfs.c"
  16              		.text
  17              	.Ltext0:
  18              		.cfi_sections	.debug_frame
  19              		.file 1 "/mnt/c/Users/31740/Desktop/newcore/fs/vfs.c"
  20              		.section	.text.__spin_unlock,"ax",%progbits
  21              		.align	1
  22              		.syntax unified
  23              		.thumb
  24              		.thumb_func
  26              	__spin_unlock:
  27              	.LVL0:
  28              	.LFB228:
  29              		.file 2 "/mnt/c/Users/31740/Desktop/newcore/arch/arm_m/include/asm/spinlock.h"
   1:/mnt/c/Users/31740/Desktop/newcore/arch/arm_m/include/asm/spinlock.h **** #ifndef __SPIN_LOCK_H_
   2:/mnt/c/Users/31740/Desktop/newcore/arch/arm_m/include/asm/spinlock.h **** #define __SPIN_LOCK_H_
   3:/mnt/c/Users/31740/Desktop/newcore/arch/arm_m/include/asm/spinlock.h **** 
   4:/mnt/c/Users/31740/Desktop/newcore/arch/arm_m/include/asm/spinlock.h **** #include <linux/sched.h>
   5:/mnt/c/Users/31740/Desktop/newcore/arch/arm_m/include/asm/spinlock.h **** 
   6:/mnt/c/Users/31740/Desktop/newcore/arch/arm_m/include/asm/spinlock.h **** typedef struct { 
   7:/mnt/c/Users/31740/Desktop/newcore/arch/arm_m/include/asm/spinlock.h ****      int flag; 
   8:/mnt/c/Users/31740/Desktop/newcore/arch/arm_m/include/asm/spinlock.h **** } arch_spinlock_t;
   9:/mnt/c/Users/31740/Desktop/newcore/arch/arm_m/include/asm/spinlock.h **** 
  10:/mnt/c/Users/31740/Desktop/newcore/arch/arm_m/include/asm/spinlock.h **** static int __spin_init(arch_spinlock_t *lock) 
  11:/mnt/c/Users/31740/Desktop/newcore/arch/arm_m/include/asm/spinlock.h **** {
  12:/mnt/c/Users/31740/Desktop/newcore/arch/arm_m/include/asm/spinlock.h ****     lock->flag = 0;
  13:/mnt/c/Users/31740/Desktop/newcore/arch/arm_m/include/asm/spinlock.h **** }
  14:/mnt/c/Users/31740/Desktop/newcore/arch/arm_m/include/asm/spinlock.h **** 
  15:/mnt/c/Users/31740/Desktop/newcore/arch/arm_m/include/asm/spinlock.h **** static int __spin_lock(arch_spinlock_t *lock) {
  16:/mnt/c/Users/31740/Desktop/newcore/arch/arm_m/include/asm/spinlock.h **** 
  17:/mnt/c/Users/31740/Desktop/newcore/arch/arm_m/include/asm/spinlock.h ****     stop_all_scheduler();
  18:/mnt/c/Users/31740/Desktop/newcore/arch/arm_m/include/asm/spinlock.h ****     if(lock->flag == 0){
  19:/mnt/c/Users/31740/Desktop/newcore/arch/arm_m/include/asm/spinlock.h ****           lock->flag = 1;  
  20:/mnt/c/Users/31740/Desktop/newcore/arch/arm_m/include/asm/spinlock.h ****           start_all_scheduler();
  21:/mnt/c/Users/31740/Desktop/newcore/arch/arm_m/include/asm/spinlock.h ****         return 1;
  22:/mnt/c/Users/31740/Desktop/newcore/arch/arm_m/include/asm/spinlock.h ****     }
  23:/mnt/c/Users/31740/Desktop/newcore/arch/arm_m/include/asm/spinlock.h ****     else
  24:/mnt/c/Users/31740/Desktop/newcore/arch/arm_m/include/asm/spinlock.h ****     {
  25:/mnt/c/Users/31740/Desktop/newcore/arch/arm_m/include/asm/spinlock.h ****         start_all_scheduler();
  26:/mnt/c/Users/31740/Desktop/newcore/arch/arm_m/include/asm/spinlock.h ****         return 0;
  27:/mnt/c/Users/31740/Desktop/newcore/arch/arm_m/include/asm/spinlock.h ****     }
  28:/mnt/c/Users/31740/Desktop/newcore/arch/arm_m/include/asm/spinlock.h **** }
  29:/mnt/c/Users/31740/Desktop/newcore/arch/arm_m/include/asm/spinlock.h **** 
ARM GAS  /tmp/cccpLwD1.s 			page 2


  30:/mnt/c/Users/31740/Desktop/newcore/arch/arm_m/include/asm/spinlock.h **** static void  __spin_unlock( arch_spinlock_t *lock ){
  30              		.loc 2 30 52 view -0
  31              		.cfi_startproc
  32              		@ args = 0, pretend = 0, frame = 0
  33              		@ frame_needed = 0, uses_anonymous_args = 0
  34              		@ link register save eliminated.
  31:/mnt/c/Users/31740/Desktop/newcore/arch/arm_m/include/asm/spinlock.h ****     lock->flag = 0;
  35              		.loc 2 31 5 view .LVU1
  36              		.loc 2 31 16 is_stmt 0 view .LVU2
  37 0000 0023     		movs	r3, #0
  38 0002 0360     		str	r3, [r0]
  32:/mnt/c/Users/31740/Desktop/newcore/arch/arm_m/include/asm/spinlock.h **** }
  39              		.loc 2 32 1 view .LVU3
  40 0004 7047     		bx	lr
  41              		.cfi_endproc
  42              	.LFE228:
  44              		.section	.text.spin_unlock,"ax",%progbits
  45              		.align	1
  46              		.syntax unified
  47              		.thumb
  48              		.thumb_func
  50              	spin_unlock:
  51              	.LVL1:
  52              	.LFB231:
  53              		.file 3 "/mnt/c/Users/31740/Desktop/newcore/include/linux/spinlock.h"
   1:/mnt/c/Users/31740/Desktop/newcore/include/linux/spinlock.h **** #ifndef __SPINLOCK_H__
   2:/mnt/c/Users/31740/Desktop/newcore/include/linux/spinlock.h **** #define __SPINLOCK_H__
   3:/mnt/c/Users/31740/Desktop/newcore/include/linux/spinlock.h **** 
   4:/mnt/c/Users/31740/Desktop/newcore/include/linux/spinlock.h **** #include <linux/types.h>
   5:/mnt/c/Users/31740/Desktop/newcore/include/linux/spinlock.h **** #include <linux/spinlock_types.h>
   6:/mnt/c/Users/31740/Desktop/newcore/include/linux/spinlock.h **** #include <linux/sched.h>
   7:/mnt/c/Users/31740/Desktop/newcore/include/linux/spinlock.h **** 
   8:/mnt/c/Users/31740/Desktop/newcore/include/linux/spinlock.h **** 
   9:/mnt/c/Users/31740/Desktop/newcore/include/linux/spinlock.h **** 
  10:/mnt/c/Users/31740/Desktop/newcore/include/linux/spinlock.h **** static void spin_lock_init(spinlock_t* lock){
  11:/mnt/c/Users/31740/Desktop/newcore/include/linux/spinlock.h ****     __spin_init(&lock->rlock.raw_lock);
  12:/mnt/c/Users/31740/Desktop/newcore/include/linux/spinlock.h **** }
  13:/mnt/c/Users/31740/Desktop/newcore/include/linux/spinlock.h **** 
  14:/mnt/c/Users/31740/Desktop/newcore/include/linux/spinlock.h **** static void spin_lock(spinlock_t* lock)
  15:/mnt/c/Users/31740/Desktop/newcore/include/linux/spinlock.h **** {  
  16:/mnt/c/Users/31740/Desktop/newcore/include/linux/spinlock.h ****     while (1)
  17:/mnt/c/Users/31740/Desktop/newcore/include/linux/spinlock.h ****     {
  18:/mnt/c/Users/31740/Desktop/newcore/include/linux/spinlock.h ****         if(__spin_lock(&lock->rlock.raw_lock) == 1){
  19:/mnt/c/Users/31740/Desktop/newcore/include/linux/spinlock.h ****             lock->owner = get_current_task();
  20:/mnt/c/Users/31740/Desktop/newcore/include/linux/spinlock.h ****             break;
  21:/mnt/c/Users/31740/Desktop/newcore/include/linux/spinlock.h ****         }
  22:/mnt/c/Users/31740/Desktop/newcore/include/linux/spinlock.h ****         else  if(lock->owner == get_current_task()){  //Â¶ÇÊûúÂ∑≤ÁªèË¢´ÈîÅ‰Ωè‰ΩÜÊòØÈîÅÊòØËá™Â∑±ÁöÑÔ
  23:/mnt/c/Users/31740/Desktop/newcore/include/linux/spinlock.h ****             return;   
  24:/mnt/c/Users/31740/Desktop/newcore/include/linux/spinlock.h ****         }
  25:/mnt/c/Users/31740/Desktop/newcore/include/linux/spinlock.h ****         else{
  26:/mnt/c/Users/31740/Desktop/newcore/include/linux/spinlock.h ****             __delay(5); //‰∏ªÂä®ËÆ©Âá∫Êó∂Èó¥Áâá
  27:/mnt/c/Users/31740/Desktop/newcore/include/linux/spinlock.h ****         }
  28:/mnt/c/Users/31740/Desktop/newcore/include/linux/spinlock.h ****     }
  29:/mnt/c/Users/31740/Desktop/newcore/include/linux/spinlock.h **** }
  30:/mnt/c/Users/31740/Desktop/newcore/include/linux/spinlock.h **** 
  31:/mnt/c/Users/31740/Desktop/newcore/include/linux/spinlock.h **** static void spin_unlock(spinlock_t* lock)
  32:/mnt/c/Users/31740/Desktop/newcore/include/linux/spinlock.h **** {
ARM GAS  /tmp/cccpLwD1.s 			page 3


  54              		.loc 3 32 1 is_stmt 1 view -0
  55              		.cfi_startproc
  56              		@ args = 0, pretend = 0, frame = 0
  57              		@ frame_needed = 0, uses_anonymous_args = 0
  58              		.loc 3 32 1 is_stmt 0 view .LVU5
  59 0000 08B5     		push	{r3, lr}
  60              	.LCFI0:
  61              		.cfi_def_cfa_offset 8
  62              		.cfi_offset 3, -8
  63              		.cfi_offset 14, -4
  33:/mnt/c/Users/31740/Desktop/newcore/include/linux/spinlock.h ****     __spin_unlock(&lock->rlock.raw_lock);
  64              		.loc 3 33 5 is_stmt 1 view .LVU6
  65 0002 FFF7FEFF 		bl	__spin_unlock
  66              	.LVL2:
  34:/mnt/c/Users/31740/Desktop/newcore/include/linux/spinlock.h **** }
  67              		.loc 3 34 1 is_stmt 0 view .LVU7
  68 0006 08BD     		pop	{r3, pc}
  69              		.cfi_endproc
  70              	.LFE231:
  72              		.section	.text.get_dir_name,"ax",%progbits
  73              		.align	1
  74              		.syntax unified
  75              		.thumb
  76              		.thumb_func
  78              	get_dir_name:
  79              	.LVL3:
  80              	.LFB1033:
  81              		.file 4 "/mnt/c/Users/31740/Desktop/newcore/fs/fs.h"
   1:/mnt/c/Users/31740/Desktop/newcore/fs/fs.h **** #ifndef _FS_H_
   2:/mnt/c/Users/31740/Desktop/newcore/fs/fs.h **** #define _FS_H_
   3:/mnt/c/Users/31740/Desktop/newcore/fs/fs.h **** 
   4:/mnt/c/Users/31740/Desktop/newcore/fs/fs.h **** #include <linux/fs.h>    
   5:/mnt/c/Users/31740/Desktop/newcore/fs/fs.h **** 
   6:/mnt/c/Users/31740/Desktop/newcore/fs/fs.h **** static int get_dir_name(const char *path, char *dir_name,int nummber) //Ëé∑ÂèñÊåáÂÆöÁõÆÂΩï‰∏≠ÊåáÂÆö
   7:/mnt/c/Users/31740/Desktop/newcore/fs/fs.h **** {
  82              		.loc 4 7 1 is_stmt 1 view -0
  83              		.cfi_startproc
  84              		@ args = 0, pretend = 0, frame = 0
  85              		@ frame_needed = 0, uses_anonymous_args = 0
  86              		@ link register save eliminated.
  87              		.loc 4 7 1 is_stmt 0 view .LVU9
  88 0000 10B4     		push	{r4}
  89              	.LCFI1:
  90              		.cfi_def_cfa_offset 4
  91              		.cfi_offset 4, -4
   8:/mnt/c/Users/31740/Desktop/newcore/fs/fs.h ****     int i = 0,j = 0;
  92              		.loc 4 8 5 is_stmt 1 view .LVU10
  93              	.LVL4:
   9:/mnt/c/Users/31740/Desktop/newcore/fs/fs.h ****     while (path[i]!= '\0'){
  94              		.loc 4 9 5 view .LVU11
   8:/mnt/c/Users/31740/Desktop/newcore/fs/fs.h ****     int i = 0,j = 0;
  95              		.loc 4 8 15 is_stmt 0 view .LVU12
  96 0002 4FF0000C 		mov	ip, #0
   8:/mnt/c/Users/31740/Desktop/newcore/fs/fs.h ****     int i = 0,j = 0;
  97              		.loc 4 8 9 view .LVU13
  98 0006 6346     		mov	r3, ip
  99              		.loc 4 9 11 view .LVU14
ARM GAS  /tmp/cccpLwD1.s 			page 4


 100 0008 02E0     		b	.L5
 101              	.LVL5:
 102              	.L6:
  10:/mnt/c/Users/31740/Desktop/newcore/fs/fs.h ****         if(path[i] == '/')
  11:/mnt/c/Users/31740/Desktop/newcore/fs/fs.h ****         j++;
  12:/mnt/c/Users/31740/Desktop/newcore/fs/fs.h ****         if(j == nummber)
 103              		.loc 4 12 9 is_stmt 1 view .LVU15
 104              		.loc 4 12 11 is_stmt 0 view .LVU16
 105 000a 9445     		cmp	ip, r2
 106 000c 07D0     		beq	.L14
  13:/mnt/c/Users/31740/Desktop/newcore/fs/fs.h ****         goto a;
  14:/mnt/c/Users/31740/Desktop/newcore/fs/fs.h ****         i++;
 107              		.loc 4 14 9 is_stmt 1 view .LVU17
 108              		.loc 4 14 10 is_stmt 0 view .LVU18
 109 000e 0133     		adds	r3, r3, #1
 110              	.LVL6:
 111              	.L5:
   9:/mnt/c/Users/31740/Desktop/newcore/fs/fs.h ****         if(path[i] == '/')
 112              		.loc 4 9 19 is_stmt 1 view .LVU19
   9:/mnt/c/Users/31740/Desktop/newcore/fs/fs.h ****         if(path[i] == '/')
 113              		.loc 4 9 16 is_stmt 0 view .LVU20
 114 0010 C45C     		ldrb	r4, [r0, r3]	@ zero_extendqisi2
   9:/mnt/c/Users/31740/Desktop/newcore/fs/fs.h ****         if(path[i] == '/')
 115              		.loc 4 9 19 view .LVU21
 116 0012 74B1     		cbz	r4, .L15
  10:/mnt/c/Users/31740/Desktop/newcore/fs/fs.h ****         if(path[i] == '/')
 117              		.loc 4 10 9 is_stmt 1 view .LVU22
  10:/mnt/c/Users/31740/Desktop/newcore/fs/fs.h ****         if(path[i] == '/')
 118              		.loc 4 10 11 is_stmt 0 view .LVU23
 119 0014 2F2C     		cmp	r4, #47
 120 0016 F8D1     		bne	.L6
  11:/mnt/c/Users/31740/Desktop/newcore/fs/fs.h ****         if(j == nummber)
 121              		.loc 4 11 9 is_stmt 1 view .LVU24
  11:/mnt/c/Users/31740/Desktop/newcore/fs/fs.h ****         if(j == nummber)
 122              		.loc 4 11 10 is_stmt 0 view .LVU25
 123 0018 0CF1010C 		add	ip, ip, #1
 124              	.LVL7:
  11:/mnt/c/Users/31740/Desktop/newcore/fs/fs.h ****         if(j == nummber)
 125              		.loc 4 11 10 view .LVU26
 126 001c F5E7     		b	.L6
 127              	.L14:
  13:/mnt/c/Users/31740/Desktop/newcore/fs/fs.h ****         goto a;
 128              		.loc 4 13 9 is_stmt 1 view .LVU27
 129              	.LDL1:
  15:/mnt/c/Users/31740/Desktop/newcore/fs/fs.h ****     }
  16:/mnt/c/Users/31740/Desktop/newcore/fs/fs.h ****     return -1;
  17:/mnt/c/Users/31740/Desktop/newcore/fs/fs.h ****     a:
  18:/mnt/c/Users/31740/Desktop/newcore/fs/fs.h ****     i++;
 130              		.loc 4 18 5 view .LVU28
 131              		.loc 4 18 6 is_stmt 0 view .LVU29
 132 001e 0133     		adds	r3, r3, #1
 133              	.LVL8:
  19:/mnt/c/Users/31740/Desktop/newcore/fs/fs.h ****     j = 0;
 134              		.loc 4 19 5 is_stmt 1 view .LVU30
  20:/mnt/c/Users/31740/Desktop/newcore/fs/fs.h ****     while (path[i+j]!= '\0'){
 135              		.loc 4 20 5 view .LVU31
  19:/mnt/c/Users/31740/Desktop/newcore/fs/fs.h ****     j = 0;
ARM GAS  /tmp/cccpLwD1.s 			page 5


 136              		.loc 4 19 7 is_stmt 0 view .LVU32
 137 0020 0022     		movs	r2, #0
 138              	.LVL9:
 139              	.L8:
 140              		.loc 4 20 21 is_stmt 1 view .LVU33
 141              		.loc 4 20 18 is_stmt 0 view .LVU34
 142 0022 D418     		adds	r4, r2, r3
 143              		.loc 4 20 16 view .LVU35
 144 0024 045D     		ldrb	r4, [r0, r4]	@ zero_extendqisi2
 145              		.loc 4 20 21 view .LVU36
 146 0026 4CB1     		cbz	r4, .L11
  21:/mnt/c/Users/31740/Desktop/newcore/fs/fs.h ****        dir_name[j] = path[i+j];
 147              		.loc 4 21 8 is_stmt 1 view .LVU37
 148              		.loc 4 21 20 is_stmt 0 view .LVU38
 149 0028 8C54     		strb	r4, [r1, r2]
  22:/mnt/c/Users/31740/Desktop/newcore/fs/fs.h ****        if(path[i+j] == '/')
 150              		.loc 4 22 8 is_stmt 1 view .LVU39
 151              		.loc 4 22 10 is_stmt 0 view .LVU40
 152 002a 2F2C     		cmp	r4, #47
 153 002c 06D0     		beq	.L11
  23:/mnt/c/Users/31740/Desktop/newcore/fs/fs.h ****        break;
  24:/mnt/c/Users/31740/Desktop/newcore/fs/fs.h ****        j++;
 154              		.loc 4 24 8 is_stmt 1 view .LVU41
 155              		.loc 4 24 9 is_stmt 0 view .LVU42
 156 002e 0132     		adds	r2, r2, #1
 157              	.LVL10:
 158              		.loc 4 24 9 view .LVU43
 159 0030 F7E7     		b	.L8
 160              	.LVL11:
 161              	.L15:
  16:/mnt/c/Users/31740/Desktop/newcore/fs/fs.h ****     a:
 162              		.loc 4 16 12 view .LVU44
 163 0032 4FF0FF30 		mov	r0, #-1
 164              	.LVL12:
 165              	.L4:
  25:/mnt/c/Users/31740/Desktop/newcore/fs/fs.h ****     }
  26:/mnt/c/Users/31740/Desktop/newcore/fs/fs.h ****     dir_name[j] = '\0';
  27:/mnt/c/Users/31740/Desktop/newcore/fs/fs.h ****     return 0;
  28:/mnt/c/Users/31740/Desktop/newcore/fs/fs.h **** }
 166              		.loc 4 28 1 view .LVU45
 167 0036 5DF8044B 		ldr	r4, [sp], #4
 168              	.LCFI2:
 169              		.cfi_remember_state
 170              		.cfi_restore 4
 171              		.cfi_def_cfa_offset 0
 172 003a 7047     		bx	lr
 173              	.LVL13:
 174              	.L11:
 175              	.LCFI3:
 176              		.cfi_restore_state
  26:/mnt/c/Users/31740/Desktop/newcore/fs/fs.h ****     return 0;
 177              		.loc 4 26 5 is_stmt 1 view .LVU46
  26:/mnt/c/Users/31740/Desktop/newcore/fs/fs.h ****     return 0;
 178              		.loc 4 26 17 is_stmt 0 view .LVU47
 179 003c 0020     		movs	r0, #0
 180              	.LVL14:
  26:/mnt/c/Users/31740/Desktop/newcore/fs/fs.h ****     return 0;
ARM GAS  /tmp/cccpLwD1.s 			page 6


 181              		.loc 4 26 17 view .LVU48
 182 003e 8854     		strb	r0, [r1, r2]
  27:/mnt/c/Users/31740/Desktop/newcore/fs/fs.h **** }
 183              		.loc 4 27 5 is_stmt 1 view .LVU49
  27:/mnt/c/Users/31740/Desktop/newcore/fs/fs.h **** }
 184              		.loc 4 27 12 is_stmt 0 view .LVU50
 185 0040 F9E7     		b	.L4
 186              		.cfi_endproc
 187              	.LFE1033:
 189              		.section	.text.get_dir_number,"ax",%progbits
 190              		.align	1
 191              		.syntax unified
 192              		.thumb
 193              		.thumb_func
 195              	get_dir_number:
 196              	.LVL15:
 197              	.LFB1034:
  29:/mnt/c/Users/31740/Desktop/newcore/fs/fs.h **** 
  30:/mnt/c/Users/31740/Desktop/newcore/fs/fs.h **** static int get_dir_number(char *path){                       //Ëé∑ÂèñÊåáÂÆöÁõÆÂΩïÁöÑÂ±ÇÁ∫ßÊï∞
 198              		.loc 4 30 38 is_stmt 1 view -0
 199              		.cfi_startproc
 200              		@ args = 0, pretend = 0, frame = 0
 201              		@ frame_needed = 0, uses_anonymous_args = 0
 202              		@ link register save eliminated.
 203              		.loc 4 30 38 is_stmt 0 view .LVU52
 204 0000 8446     		mov	ip, r0
  31:/mnt/c/Users/31740/Desktop/newcore/fs/fs.h ****     int j = 0,i = 0;
 205              		.loc 4 31 5 is_stmt 1 view .LVU53
 206              	.LVL16:
  32:/mnt/c/Users/31740/Desktop/newcore/fs/fs.h ****     while (path[j]!= '\0'){
 207              		.loc 4 32 5 view .LVU54
  31:/mnt/c/Users/31740/Desktop/newcore/fs/fs.h ****     int j = 0,i = 0;
 208              		.loc 4 31 15 is_stmt 0 view .LVU55
 209 0002 0020     		movs	r0, #0
 210              	.LVL17:
  31:/mnt/c/Users/31740/Desktop/newcore/fs/fs.h ****     int j = 0,i = 0;
 211              		.loc 4 31 9 view .LVU56
 212 0004 0346     		mov	r3, r0
 213              		.loc 4 32 11 view .LVU57
 214 0006 00E0     		b	.L17
 215              	.LVL18:
 216              	.L18:
  33:/mnt/c/Users/31740/Desktop/newcore/fs/fs.h ****         if(path[j] == '/' && path[j+1] != '\0')
  34:/mnt/c/Users/31740/Desktop/newcore/fs/fs.h ****         i++;
  35:/mnt/c/Users/31740/Desktop/newcore/fs/fs.h ****         j++;
 217              		.loc 4 35 9 is_stmt 1 view .LVU58
 218              		.loc 4 35 10 is_stmt 0 view .LVU59
 219 0008 0133     		adds	r3, r3, #1
 220              	.LVL19:
 221              	.L17:
  32:/mnt/c/Users/31740/Desktop/newcore/fs/fs.h ****     while (path[j]!= '\0'){
 222              		.loc 4 32 19 is_stmt 1 view .LVU60
  32:/mnt/c/Users/31740/Desktop/newcore/fs/fs.h ****     while (path[j]!= '\0'){
 223              		.loc 4 32 16 is_stmt 0 view .LVU61
 224 000a 1946     		mov	r1, r3
 225 000c 1CF80320 		ldrb	r2, [ip, r3]	@ zero_extendqisi2
  32:/mnt/c/Users/31740/Desktop/newcore/fs/fs.h ****     while (path[j]!= '\0'){
ARM GAS  /tmp/cccpLwD1.s 			page 7


 226              		.loc 4 32 19 view .LVU62
 227 0010 3AB1     		cbz	r2, .L20
  33:/mnt/c/Users/31740/Desktop/newcore/fs/fs.h ****         if(path[j] == '/' && path[j+1] != '\0')
 228              		.loc 4 33 9 is_stmt 1 view .LVU63
  33:/mnt/c/Users/31740/Desktop/newcore/fs/fs.h ****         if(path[j] == '/' && path[j+1] != '\0')
 229              		.loc 4 33 11 is_stmt 0 view .LVU64
 230 0012 2F2A     		cmp	r2, #47
 231 0014 F8D1     		bne	.L18
  33:/mnt/c/Users/31740/Desktop/newcore/fs/fs.h ****         if(path[j] == '/' && path[j+1] != '\0')
 232              		.loc 4 33 34 discriminator 1 view .LVU65
 233 0016 6144     		add	r1, r1, ip
 234 0018 4A78     		ldrb	r2, [r1, #1]	@ zero_extendqisi2
  33:/mnt/c/Users/31740/Desktop/newcore/fs/fs.h ****         if(path[j] == '/' && path[j+1] != '\0')
 235              		.loc 4 33 27 discriminator 1 view .LVU66
 236 001a 002A     		cmp	r2, #0
 237 001c F4D0     		beq	.L18
  34:/mnt/c/Users/31740/Desktop/newcore/fs/fs.h ****         j++;
 238              		.loc 4 34 9 is_stmt 1 view .LVU67
  34:/mnt/c/Users/31740/Desktop/newcore/fs/fs.h ****         j++;
 239              		.loc 4 34 10 is_stmt 0 view .LVU68
 240 001e 0130     		adds	r0, r0, #1
 241              	.LVL20:
  34:/mnt/c/Users/31740/Desktop/newcore/fs/fs.h ****         j++;
 242              		.loc 4 34 10 view .LVU69
 243 0020 F2E7     		b	.L18
 244              	.LVL21:
 245              	.L20:
  36:/mnt/c/Users/31740/Desktop/newcore/fs/fs.h ****     }
  37:/mnt/c/Users/31740/Desktop/newcore/fs/fs.h ****     return i;
 246              		.loc 4 37 5 is_stmt 1 view .LVU70
  38:/mnt/c/Users/31740/Desktop/newcore/fs/fs.h **** }
 247              		.loc 4 38 1 is_stmt 0 view .LVU71
 248 0022 7047     		bx	lr
 249              		.cfi_endproc
 250              	.LFE1034:
 252              		.section	.text.find_dentry,"ax",%progbits
 253              		.align	1
 254              		.syntax unified
 255              		.thumb
 256              		.thumb_func
 258              	find_dentry:
 259              	.LVL22:
 260              	.LFB1036:
   1:/mnt/c/Users/31740/Desktop/newcore/fs/vfs.c **** #include <linux/kernel.h>
   2:/mnt/c/Users/31740/Desktop/newcore/fs/vfs.c **** #include <linux/fs.h>
   3:/mnt/c/Users/31740/Desktop/newcore/fs/vfs.c **** #include <linux/slab.h>
   4:/mnt/c/Users/31740/Desktop/newcore/fs/vfs.c **** #include <linux/stat.h>
   5:/mnt/c/Users/31740/Desktop/newcore/fs/vfs.c **** #include <linux/cache.h>
   6:/mnt/c/Users/31740/Desktop/newcore/fs/vfs.c **** #include <linux/list.h> 
   7:/mnt/c/Users/31740/Desktop/newcore/fs/vfs.c **** #include <generated/autoconf.h>
   8:/mnt/c/Users/31740/Desktop/newcore/fs/vfs.c **** #include "fs.h"
   9:/mnt/c/Users/31740/Desktop/newcore/fs/vfs.c **** 
  10:/mnt/c/Users/31740/Desktop/newcore/fs/vfs.c **** struct dentry *root_dentry = NULL;
  11:/mnt/c/Users/31740/Desktop/newcore/fs/vfs.c **** 
  12:/mnt/c/Users/31740/Desktop/newcore/fs/vfs.c **** 
  13:/mnt/c/Users/31740/Desktop/newcore/fs/vfs.c **** 
  14:/mnt/c/Users/31740/Desktop/newcore/fs/vfs.c **** 
ARM GAS  /tmp/cccpLwD1.s 			page 8


  15:/mnt/c/Users/31740/Desktop/newcore/fs/vfs.c **** extern struct super_block * sget(struct file_system_type *type,
  16:/mnt/c/Users/31740/Desktop/newcore/fs/vfs.c ****     int (*test)(struct super_block *,void *),
  17:/mnt/c/Users/31740/Desktop/newcore/fs/vfs.c ****     int (*set)(struct super_block *,void *),
  18:/mnt/c/Users/31740/Desktop/newcore/fs/vfs.c ****     int flags, void *data);
  19:/mnt/c/Users/31740/Desktop/newcore/fs/vfs.c **** 
  20:/mnt/c/Users/31740/Desktop/newcore/fs/vfs.c **** extern int mount_root_fs(char *file_system_type);
  21:/mnt/c/Users/31740/Desktop/newcore/fs/vfs.c **** 
  22:/mnt/c/Users/31740/Desktop/newcore/fs/vfs.c **** 
  23:/mnt/c/Users/31740/Desktop/newcore/fs/vfs.c **** extern int sys_mount(const char __user *dev_name, const char __user *dir_name,
  24:/mnt/c/Users/31740/Desktop/newcore/fs/vfs.c ****     const char __user *type, unsigned long flags,
  25:/mnt/c/Users/31740/Desktop/newcore/fs/vfs.c ****     const void __user *data);
  26:/mnt/c/Users/31740/Desktop/newcore/fs/vfs.c **** 
  27:/mnt/c/Users/31740/Desktop/newcore/fs/vfs.c **** static struct inode* get_dentry_inode(struct  dentry * dir){
  28:/mnt/c/Users/31740/Desktop/newcore/fs/vfs.c ****     if(dir == NULL) return NULL;
  29:/mnt/c/Users/31740/Desktop/newcore/fs/vfs.c ****     if(dir->d_inode != NULL) return dir->d_inode;
  30:/mnt/c/Users/31740/Desktop/newcore/fs/vfs.c ****     return NULL;
  31:/mnt/c/Users/31740/Desktop/newcore/fs/vfs.c **** }
  32:/mnt/c/Users/31740/Desktop/newcore/fs/vfs.c **** 
  33:/mnt/c/Users/31740/Desktop/newcore/fs/vfs.c **** 
  34:/mnt/c/Users/31740/Desktop/newcore/fs/vfs.c **** static struct dentry* find_dentry(struct dentry* dir,char *dentry_name, unsigned int flags)
  35:/mnt/c/Users/31740/Desktop/newcore/fs/vfs.c **** {
 261              		.loc 1 35 1 is_stmt 1 view -0
 262              		.cfi_startproc
 263              		@ args = 0, pretend = 0, frame = 0
 264              		@ frame_needed = 0, uses_anonymous_args = 0
 265              		.loc 1 35 1 is_stmt 0 view .LVU73
 266 0000 38B5     		push	{r3, r4, r5, lr}
 267              	.LCFI4:
 268              		.cfi_def_cfa_offset 16
 269              		.cfi_offset 3, -16
 270              		.cfi_offset 4, -12
 271              		.cfi_offset 5, -8
 272              		.cfi_offset 14, -4
 273 0002 0446     		mov	r4, r0
 274 0004 0D46     		mov	r5, r1
  36:/mnt/c/Users/31740/Desktop/newcore/fs/vfs.c ****     struct dentry* son_dentry = d_lookup_dentry(dir,dentry_name);
 275              		.loc 1 36 5 is_stmt 1 view .LVU74
 276              		.loc 1 36 33 is_stmt 0 view .LVU75
 277 0006 FFF7FEFF 		bl	d_lookup_dentry
 278              	.LVL23:
  37:/mnt/c/Users/31740/Desktop/newcore/fs/vfs.c ****     if(son_dentry != NULL) {
 279              		.loc 1 37 5 is_stmt 1 view .LVU76
 280              		.loc 1 37 7 is_stmt 0 view .LVU77
 281 000a 00B1     		cbz	r0, .L26
 282              	.LVL24:
 283              	.L21:
  38:/mnt/c/Users/31740/Desktop/newcore/fs/vfs.c ****         //pr_info("find from chache\n");
  39:/mnt/c/Users/31740/Desktop/newcore/fs/vfs.c ****         return son_dentry;
  40:/mnt/c/Users/31740/Desktop/newcore/fs/vfs.c ****     }
  41:/mnt/c/Users/31740/Desktop/newcore/fs/vfs.c ****     son_dentry = d_alloc(dir,dentry_name); 
  42:/mnt/c/Users/31740/Desktop/newcore/fs/vfs.c ****     if(son_dentry == NULL)
  43:/mnt/c/Users/31740/Desktop/newcore/fs/vfs.c ****     return ERR_PTR(-ENOMEM);
  44:/mnt/c/Users/31740/Desktop/newcore/fs/vfs.c ****     struct dentry* son_dentry_ = NULL;
  45:/mnt/c/Users/31740/Desktop/newcore/fs/vfs.c ****     son_dentry_ =  dir->d_inode->i_op->lookup(dir->d_inode,son_dentry,0); 
  46:/mnt/c/Users/31740/Desktop/newcore/fs/vfs.c ****     if(son_dentry_ == NULL || IS_ERR(son_dentry_)){
  47:/mnt/c/Users/31740/Desktop/newcore/fs/vfs.c ****        
  48:/mnt/c/Users/31740/Desktop/newcore/fs/vfs.c ****         __d_drop(son_dentry); 
ARM GAS  /tmp/cccpLwD1.s 			page 9


  49:/mnt/c/Users/31740/Desktop/newcore/fs/vfs.c ****         return -ENOENT; 
  50:/mnt/c/Users/31740/Desktop/newcore/fs/vfs.c ****     }
  51:/mnt/c/Users/31740/Desktop/newcore/fs/vfs.c ****     return son_dentry_; 
  52:/mnt/c/Users/31740/Desktop/newcore/fs/vfs.c **** }
 284              		.loc 1 52 1 view .LVU78
 285 000c 38BD     		pop	{r3, r4, r5, pc}
 286              	.LVL25:
 287              	.L26:
  41:/mnt/c/Users/31740/Desktop/newcore/fs/vfs.c ****     if(son_dentry == NULL)
 288              		.loc 1 41 5 is_stmt 1 view .LVU79
  41:/mnt/c/Users/31740/Desktop/newcore/fs/vfs.c ****     if(son_dentry == NULL)
 289              		.loc 1 41 18 is_stmt 0 view .LVU80
 290 000e 2946     		mov	r1, r5
 291 0010 2046     		mov	r0, r4
 292 0012 FFF7FEFF 		bl	d_alloc
 293              	.LVL26:
  42:/mnt/c/Users/31740/Desktop/newcore/fs/vfs.c ****     return ERR_PTR(-ENOMEM);
 294              		.loc 1 42 5 is_stmt 1 view .LVU81
  42:/mnt/c/Users/31740/Desktop/newcore/fs/vfs.c ****     return ERR_PTR(-ENOMEM);
 295              		.loc 1 42 7 is_stmt 0 view .LVU82
 296 0016 0546     		mov	r5, r0
 297              	.LVL27:
  42:/mnt/c/Users/31740/Desktop/newcore/fs/vfs.c ****     return ERR_PTR(-ENOMEM);
 298              		.loc 1 42 7 view .LVU83
 299 0018 78B1     		cbz	r0, .L24
  44:/mnt/c/Users/31740/Desktop/newcore/fs/vfs.c ****     son_dentry_ =  dir->d_inode->i_op->lookup(dir->d_inode,son_dentry,0); 
 300              		.loc 1 44 5 is_stmt 1 view .LVU84
 301              	.LVL28:
  45:/mnt/c/Users/31740/Desktop/newcore/fs/vfs.c ****     if(son_dentry_ == NULL || IS_ERR(son_dentry_)){
 302              		.loc 1 45 5 view .LVU85
  45:/mnt/c/Users/31740/Desktop/newcore/fs/vfs.c ****     if(son_dentry_ == NULL || IS_ERR(son_dentry_)){
 303              		.loc 1 45 23 is_stmt 0 view .LVU86
 304 001a A06C     		ldr	r0, [r4, #72]
 305              	.LVL29:
  45:/mnt/c/Users/31740/Desktop/newcore/fs/vfs.c ****     if(son_dentry_ == NULL || IS_ERR(son_dentry_)){
 306              		.loc 1 45 32 view .LVU87
 307 001c 0369     		ldr	r3, [r0, #16]
  45:/mnt/c/Users/31740/Desktop/newcore/fs/vfs.c ****     if(son_dentry_ == NULL || IS_ERR(son_dentry_)){
 308              		.loc 1 45 38 view .LVU88
 309 001e 1B68     		ldr	r3, [r3]
  45:/mnt/c/Users/31740/Desktop/newcore/fs/vfs.c ****     if(son_dentry_ == NULL || IS_ERR(son_dentry_)){
 310              		.loc 1 45 20 view .LVU89
 311 0020 0022     		movs	r2, #0
 312 0022 2946     		mov	r1, r5
 313 0024 9847     		blx	r3
 314              	.LVL30:
  46:/mnt/c/Users/31740/Desktop/newcore/fs/vfs.c ****        
 315              		.loc 1 46 5 is_stmt 1 view .LVU90
  46:/mnt/c/Users/31740/Desktop/newcore/fs/vfs.c ****        
 316              		.loc 1 46 7 is_stmt 0 view .LVU91
 317 0026 10B1     		cbz	r0, .L23
 318              	.LVL31:
 319              	.LBB54:
 320              	.LBI54:
 321              		.file 5 "/mnt/c/Users/31740/Desktop/newcore/include/linux/err.h"
   1:/mnt/c/Users/31740/Desktop/newcore/include/linux/err.h **** /* SPDX-License-Identifier: GPL-2.0 */
   2:/mnt/c/Users/31740/Desktop/newcore/include/linux/err.h **** #ifndef _LINUX_ERR_H
ARM GAS  /tmp/cccpLwD1.s 			page 10


   3:/mnt/c/Users/31740/Desktop/newcore/include/linux/err.h **** #define _LINUX_ERR_H
   4:/mnt/c/Users/31740/Desktop/newcore/include/linux/err.h **** 
   5:/mnt/c/Users/31740/Desktop/newcore/include/linux/err.h **** #include <linux/compiler_attributes.h>
   6:/mnt/c/Users/31740/Desktop/newcore/include/linux/err.h **** #include <linux/compiler.h>
   7:/mnt/c/Users/31740/Desktop/newcore/include/linux/err.h **** #include <linux/types.h>
   8:/mnt/c/Users/31740/Desktop/newcore/include/linux/err.h **** 
   9:/mnt/c/Users/31740/Desktop/newcore/include/linux/err.h **** #include <asm/errno.h>
  10:/mnt/c/Users/31740/Desktop/newcore/include/linux/err.h **** 
  11:/mnt/c/Users/31740/Desktop/newcore/include/linux/err.h **** /*
  12:/mnt/c/Users/31740/Desktop/newcore/include/linux/err.h ****  * Kernel pointers have redundant information, so we can use a
  13:/mnt/c/Users/31740/Desktop/newcore/include/linux/err.h ****  * scheme where we can return either an error code or a normal
  14:/mnt/c/Users/31740/Desktop/newcore/include/linux/err.h ****  * pointer with the same return value.
  15:/mnt/c/Users/31740/Desktop/newcore/include/linux/err.h ****  *
  16:/mnt/c/Users/31740/Desktop/newcore/include/linux/err.h ****  * This should be a per-architecture thing, to allow different
  17:/mnt/c/Users/31740/Desktop/newcore/include/linux/err.h ****  * error and pointer decisions.
  18:/mnt/c/Users/31740/Desktop/newcore/include/linux/err.h ****  */
  19:/mnt/c/Users/31740/Desktop/newcore/include/linux/err.h **** #define MAX_ERRNO	4095
  20:/mnt/c/Users/31740/Desktop/newcore/include/linux/err.h **** 
  21:/mnt/c/Users/31740/Desktop/newcore/include/linux/err.h **** #ifndef __ASSEMBLY__
  22:/mnt/c/Users/31740/Desktop/newcore/include/linux/err.h **** 
  23:/mnt/c/Users/31740/Desktop/newcore/include/linux/err.h **** /**
  24:/mnt/c/Users/31740/Desktop/newcore/include/linux/err.h ****  * IS_ERR_VALUE - Detect an error pointer.
  25:/mnt/c/Users/31740/Desktop/newcore/include/linux/err.h ****  * @x: The pointer to check.
  26:/mnt/c/Users/31740/Desktop/newcore/include/linux/err.h ****  *
  27:/mnt/c/Users/31740/Desktop/newcore/include/linux/err.h ****  * Like IS_ERR(), but does not generate a compiler warning if result is unused.
  28:/mnt/c/Users/31740/Desktop/newcore/include/linux/err.h ****  */
  29:/mnt/c/Users/31740/Desktop/newcore/include/linux/err.h **** 
  30:/mnt/c/Users/31740/Desktop/newcore/include/linux/err.h **** #ifndef unlikely
  31:/mnt/c/Users/31740/Desktop/newcore/include/linux/err.h **** #  define unlikely(x) __builtin_expect(!!(x), 0)
  32:/mnt/c/Users/31740/Desktop/newcore/include/linux/err.h **** #endif
  33:/mnt/c/Users/31740/Desktop/newcore/include/linux/err.h **** 
  34:/mnt/c/Users/31740/Desktop/newcore/include/linux/err.h **** #ifndef likely
  35:/mnt/c/Users/31740/Desktop/newcore/include/linux/err.h **** #  define likely(x) __builtin_expect(!!(x), 1)
  36:/mnt/c/Users/31740/Desktop/newcore/include/linux/err.h **** #endif
  37:/mnt/c/Users/31740/Desktop/newcore/include/linux/err.h **** 
  38:/mnt/c/Users/31740/Desktop/newcore/include/linux/err.h **** #define IS_ERR_VALUE(x) unlikely((unsigned long)(void *)(x) >= (unsigned long)-MAX_ERRNO)
  39:/mnt/c/Users/31740/Desktop/newcore/include/linux/err.h **** 
  40:/mnt/c/Users/31740/Desktop/newcore/include/linux/err.h **** /**
  41:/mnt/c/Users/31740/Desktop/newcore/include/linux/err.h ****  * ERR_PTR - Create an error pointer.
  42:/mnt/c/Users/31740/Desktop/newcore/include/linux/err.h ****  * @error: A negative error code.
  43:/mnt/c/Users/31740/Desktop/newcore/include/linux/err.h ****  *
  44:/mnt/c/Users/31740/Desktop/newcore/include/linux/err.h ****  * Encodes @error into a pointer value. Users should consider the result
  45:/mnt/c/Users/31740/Desktop/newcore/include/linux/err.h ****  * opaque and not assume anything about how the error is encoded.
  46:/mnt/c/Users/31740/Desktop/newcore/include/linux/err.h ****  *
  47:/mnt/c/Users/31740/Desktop/newcore/include/linux/err.h ****  * Return: A pointer with @error encoded within its value.
  48:/mnt/c/Users/31740/Desktop/newcore/include/linux/err.h ****  */
  49:/mnt/c/Users/31740/Desktop/newcore/include/linux/err.h **** static inline void * __must_check ERR_PTR(long error)
  50:/mnt/c/Users/31740/Desktop/newcore/include/linux/err.h **** {
  51:/mnt/c/Users/31740/Desktop/newcore/include/linux/err.h **** 	return (void *) error;
  52:/mnt/c/Users/31740/Desktop/newcore/include/linux/err.h **** }
  53:/mnt/c/Users/31740/Desktop/newcore/include/linux/err.h **** 
  54:/mnt/c/Users/31740/Desktop/newcore/include/linux/err.h **** /* Return the pointer in the percpu address space. */
  55:/mnt/c/Users/31740/Desktop/newcore/include/linux/err.h **** #define ERR_PTR_PCPU(error) ((void __percpu *)(unsigned long)ERR_PTR(error))
  56:/mnt/c/Users/31740/Desktop/newcore/include/linux/err.h **** 
  57:/mnt/c/Users/31740/Desktop/newcore/include/linux/err.h **** /**
  58:/mnt/c/Users/31740/Desktop/newcore/include/linux/err.h ****  * PTR_ERR - Extract the error code from an error pointer.
  59:/mnt/c/Users/31740/Desktop/newcore/include/linux/err.h ****  * @ptr: An error pointer.
ARM GAS  /tmp/cccpLwD1.s 			page 11


  60:/mnt/c/Users/31740/Desktop/newcore/include/linux/err.h ****  * Return: The error code within @ptr.
  61:/mnt/c/Users/31740/Desktop/newcore/include/linux/err.h ****  */
  62:/mnt/c/Users/31740/Desktop/newcore/include/linux/err.h **** static inline long __must_check PTR_ERR(__force const void *ptr)
  63:/mnt/c/Users/31740/Desktop/newcore/include/linux/err.h **** {
  64:/mnt/c/Users/31740/Desktop/newcore/include/linux/err.h **** 	return (long) ptr;
  65:/mnt/c/Users/31740/Desktop/newcore/include/linux/err.h **** }
  66:/mnt/c/Users/31740/Desktop/newcore/include/linux/err.h **** 
  67:/mnt/c/Users/31740/Desktop/newcore/include/linux/err.h **** /* Read an error pointer from the percpu address space. */
  68:/mnt/c/Users/31740/Desktop/newcore/include/linux/err.h **** #define PTR_ERR_PCPU(ptr) (PTR_ERR((const void *)(__force const unsigned long)(ptr)))
  69:/mnt/c/Users/31740/Desktop/newcore/include/linux/err.h **** 
  70:/mnt/c/Users/31740/Desktop/newcore/include/linux/err.h **** /**
  71:/mnt/c/Users/31740/Desktop/newcore/include/linux/err.h ****  * IS_ERR - Detect an error pointer.
  72:/mnt/c/Users/31740/Desktop/newcore/include/linux/err.h ****  * @ptr: The pointer to check.
  73:/mnt/c/Users/31740/Desktop/newcore/include/linux/err.h ****  * Return: true if @ptr is an error pointer, false otherwise.
  74:/mnt/c/Users/31740/Desktop/newcore/include/linux/err.h ****  */
  75:/mnt/c/Users/31740/Desktop/newcore/include/linux/err.h **** static inline bool __must_check IS_ERR(__force const void *ptr)
 322              		.loc 5 75 33 is_stmt 1 view .LVU92
 323              	.LBB55:
  76:/mnt/c/Users/31740/Desktop/newcore/include/linux/err.h **** {
  77:/mnt/c/Users/31740/Desktop/newcore/include/linux/err.h **** 	return IS_ERR_VALUE((unsigned long)ptr);
 324              		.loc 5 77 2 view .LVU93
 325              		.loc 5 77 2 is_stmt 0 view .LVU94
 326              	.LBE55:
 327              	.LBE54:
  46:/mnt/c/Users/31740/Desktop/newcore/fs/vfs.c ****        
 328              		.loc 1 46 28 discriminator 1 view .LVU95
 329 0028 10F5805F 		cmn	r0, #4096
 330 002c EED9     		bls	.L21
 331              	.L23:
  48:/mnt/c/Users/31740/Desktop/newcore/fs/vfs.c ****         return -ENOENT; 
 332              		.loc 1 48 9 is_stmt 1 view .LVU96
 333 002e 2846     		mov	r0, r5
 334              	.LVL32:
  48:/mnt/c/Users/31740/Desktop/newcore/fs/vfs.c ****         return -ENOENT; 
 335              		.loc 1 48 9 is_stmt 0 view .LVU97
 336 0030 FFF7FEFF 		bl	__d_drop
 337              	.LVL33:
  49:/mnt/c/Users/31740/Desktop/newcore/fs/vfs.c ****     }
 338              		.loc 1 49 9 is_stmt 1 view .LVU98
  49:/mnt/c/Users/31740/Desktop/newcore/fs/vfs.c ****     }
 339              		.loc 1 49 16 is_stmt 0 view .LVU99
 340 0034 6FF00100 		mvn	r0, #1
 341 0038 E8E7     		b	.L21
 342              	.LVL34:
 343              	.L24:
  43:/mnt/c/Users/31740/Desktop/newcore/fs/vfs.c ****     struct dentry* son_dentry_ = NULL;
 344              		.loc 1 43 12 view .LVU100
 345 003a 6FF00B00 		mvn	r0, #11
 346              	.LVL35:
  43:/mnt/c/Users/31740/Desktop/newcore/fs/vfs.c ****     struct dentry* son_dentry_ = NULL;
 347              		.loc 1 43 12 view .LVU101
 348 003e E5E7     		b	.L21
 349              		.cfi_endproc
 350              	.LFE1036:
 352              		.section	.rodata.create_dentry.str1.4,"aMS",%progbits,1
 353              		.align	2
 354              	.LC0:
ARM GAS  /tmp/cccpLwD1.s 			page 12


 355 0000 66696C65 		.ascii	"file already exists: %s\012\000"
 355      20616C72 
 355      65616479 
 355      20657869 
 355      7374733A 
 356              		.section	.text.create_dentry,"ax",%progbits
 357              		.align	1
 358              		.syntax unified
 359              		.thumb
 360              		.thumb_func
 362              	create_dentry:
 363              	.LVL36:
 364              	.LFB1037:
  53:/mnt/c/Users/31740/Desktop/newcore/fs/vfs.c **** 
  54:/mnt/c/Users/31740/Desktop/newcore/fs/vfs.c **** static struct dentry* create_dentry(struct dentry* dir,char *name,umode_t i_mode)
  55:/mnt/c/Users/31740/Desktop/newcore/fs/vfs.c **** {
 365              		.loc 1 55 1 is_stmt 1 view -0
 366              		.cfi_startproc
 367              		@ args = 0, pretend = 0, frame = 0
 368              		@ frame_needed = 0, uses_anonymous_args = 0
 369              		.loc 1 55 1 is_stmt 0 view .LVU103
 370 0000 70B5     		push	{r4, r5, r6, lr}
 371              	.LCFI5:
 372              		.cfi_def_cfa_offset 16
 373              		.cfi_offset 4, -16
 374              		.cfi_offset 5, -12
 375              		.cfi_offset 6, -8
 376              		.cfi_offset 14, -4
 377 0002 82B0     		sub	sp, sp, #8
 378              	.LCFI6:
 379              		.cfi_def_cfa_offset 24
 380 0004 0546     		mov	r5, r0
 381 0006 0C46     		mov	r4, r1
 382 0008 1646     		mov	r6, r2
  56:/mnt/c/Users/31740/Desktop/newcore/fs/vfs.c ****     struct dentry* next_dentry = find_dentry(dir,name,0);     //Â¶ÇÊûúÂ∑≤ÊúâËØ•Êñá‰ª∂ÂàôÁõ¥Êé•ËøîÂõ
 383              		.loc 1 56 5 is_stmt 1 view .LVU104
 384              		.loc 1 56 34 is_stmt 0 view .LVU105
 385 000a 0022     		movs	r2, #0
 386              	.LVL37:
 387              		.loc 1 56 34 view .LVU106
 388 000c FFF7FEFF 		bl	find_dentry
 389              	.LVL38:
  57:/mnt/c/Users/31740/Desktop/newcore/fs/vfs.c ****     if(!IS_ERR(next_dentry)){
 390              		.loc 1 57 5 is_stmt 1 view .LVU107
 391              	.LBB56:
 392              	.LBI56:
  75:/mnt/c/Users/31740/Desktop/newcore/include/linux/err.h **** {
 393              		.loc 5 75 33 view .LVU108
 394              	.LBB57:
 395              		.loc 5 77 2 view .LVU109
 396              		.loc 5 77 2 is_stmt 0 view .LVU110
 397              	.LBE57:
 398              	.LBE56:
 399              		.loc 1 57 7 discriminator 1 view .LVU111
 400 0010 10F5805F 		cmn	r0, #4096
 401 0014 09D8     		bhi	.L28
  58:/mnt/c/Users/31740/Desktop/newcore/fs/vfs.c ****      pr_info("file already exists: %s\n", name);
ARM GAS  /tmp/cccpLwD1.s 			page 13


 402              		.loc 1 58 6 is_stmt 1 view .LVU112
 403 0016 2246     		mov	r2, r4
 404 0018 1A49     		ldr	r1, .L38
 405 001a 0620     		movs	r0, #6
 406              	.LVL39:
 407              		.loc 1 58 6 is_stmt 0 view .LVU113
 408 001c FFF7FEFF 		bl	printk
 409              	.LVL40:
  59:/mnt/c/Users/31740/Desktop/newcore/fs/vfs.c ****      return ERR_PTR(-EEXIST);
 410              		.loc 1 59 6 is_stmt 1 view .LVU114
 411              		.loc 1 59 13 is_stmt 0 view .LVU115
 412 0020 6FF01004 		mvn	r4, #16
 413              	.LVL41:
 414              	.L27:
  60:/mnt/c/Users/31740/Desktop/newcore/fs/vfs.c ****     }
  61:/mnt/c/Users/31740/Desktop/newcore/fs/vfs.c ****     next_dentry = d_alloc(dir,name); //ÂÖàÂàõÂª∫Â≠êdentryÊ®°ÊùøÔºåÊ≠§Êó∂ÂÆÉÂπ∂Ê≤°ÊúâË¢´ÁúüÂÆûÊ∑ªÂä†
  62:/mnt/c/Users/31740/Desktop/newcore/fs/vfs.c ****     if(next_dentry == NULL)
  63:/mnt/c/Users/31740/Desktop/newcore/fs/vfs.c ****     return ERR_PTR(-ENOMEM);
  64:/mnt/c/Users/31740/Desktop/newcore/fs/vfs.c ****     if(dir->d_inode->i_op->create == NULL){
  65:/mnt/c/Users/31740/Desktop/newcore/fs/vfs.c ****         __d_drop(next_dentry); //Êí§ÈîÄÂàÜÈÖçÊ≤°Êúâ‰ΩøÁî®ÁöÑdentry
  66:/mnt/c/Users/31740/Desktop/newcore/fs/vfs.c ****      return ERR_PTR(-EROFS);
  67:/mnt/c/Users/31740/Desktop/newcore/fs/vfs.c ****     }
  68:/mnt/c/Users/31740/Desktop/newcore/fs/vfs.c ****     int err;
  69:/mnt/c/Users/31740/Desktop/newcore/fs/vfs.c ****     if((i_mode & S_IFMT) == S_IFREG)
  70:/mnt/c/Users/31740/Desktop/newcore/fs/vfs.c ****     {
  71:/mnt/c/Users/31740/Desktop/newcore/fs/vfs.c ****        // pr_info("create file \n");
  72:/mnt/c/Users/31740/Desktop/newcore/fs/vfs.c ****         err = dir->d_inode->i_op->create(NULL,dir->d_inode,next_dentry,i_mode,0);
  73:/mnt/c/Users/31740/Desktop/newcore/fs/vfs.c ****     }
  74:/mnt/c/Users/31740/Desktop/newcore/fs/vfs.c ****     else if((i_mode &  S_IFMT) == S_IFDIR)
  75:/mnt/c/Users/31740/Desktop/newcore/fs/vfs.c ****     {
  76:/mnt/c/Users/31740/Desktop/newcore/fs/vfs.c ****        // pr_info("create dir \n");
  77:/mnt/c/Users/31740/Desktop/newcore/fs/vfs.c ****         err = dir->d_inode->i_op->mkdir(NULL,dir->d_inode,next_dentry,i_mode);
  78:/mnt/c/Users/31740/Desktop/newcore/fs/vfs.c ****     }
  79:/mnt/c/Users/31740/Desktop/newcore/fs/vfs.c ****     else 
  80:/mnt/c/Users/31740/Desktop/newcore/fs/vfs.c ****     err = -1;
  81:/mnt/c/Users/31740/Desktop/newcore/fs/vfs.c **** 
  82:/mnt/c/Users/31740/Desktop/newcore/fs/vfs.c ****     if(err < 0){
  83:/mnt/c/Users/31740/Desktop/newcore/fs/vfs.c ****         __d_drop(next_dentry); 
  84:/mnt/c/Users/31740/Desktop/newcore/fs/vfs.c ****      return ERR_PTR(-ENOMEM);
  85:/mnt/c/Users/31740/Desktop/newcore/fs/vfs.c ****     }
  86:/mnt/c/Users/31740/Desktop/newcore/fs/vfs.c ****     return next_dentry;
  87:/mnt/c/Users/31740/Desktop/newcore/fs/vfs.c **** }
 415              		.loc 1 87 1 view .LVU116
 416 0024 2046     		mov	r0, r4
 417 0026 02B0     		add	sp, sp, #8
 418              	.LCFI7:
 419              		.cfi_remember_state
 420              		.cfi_def_cfa_offset 16
 421              		@ sp needed
 422 0028 70BD     		pop	{r4, r5, r6, pc}
 423              	.LVL42:
 424              	.L28:
 425              	.LCFI8:
 426              		.cfi_restore_state
  61:/mnt/c/Users/31740/Desktop/newcore/fs/vfs.c ****     if(next_dentry == NULL)
 427              		.loc 1 61 5 is_stmt 1 view .LVU117
  61:/mnt/c/Users/31740/Desktop/newcore/fs/vfs.c ****     if(next_dentry == NULL)
ARM GAS  /tmp/cccpLwD1.s 			page 14


 428              		.loc 1 61 19 is_stmt 0 view .LVU118
 429 002a 2146     		mov	r1, r4
 430 002c 2846     		mov	r0, r5
 431              	.LVL43:
  61:/mnt/c/Users/31740/Desktop/newcore/fs/vfs.c ****     if(next_dentry == NULL)
 432              		.loc 1 61 19 view .LVU119
 433 002e FFF7FEFF 		bl	d_alloc
 434              	.LVL44:
  62:/mnt/c/Users/31740/Desktop/newcore/fs/vfs.c ****     return ERR_PTR(-ENOMEM);
 435              		.loc 1 62 5 is_stmt 1 view .LVU120
  62:/mnt/c/Users/31740/Desktop/newcore/fs/vfs.c ****     return ERR_PTR(-ENOMEM);
 436              		.loc 1 62 7 is_stmt 0 view .LVU121
 437 0032 0446     		mov	r4, r0
 438              	.LVL45:
  62:/mnt/c/Users/31740/Desktop/newcore/fs/vfs.c ****     return ERR_PTR(-ENOMEM);
 439              		.loc 1 62 7 view .LVU122
 440 0034 18B3     		cbz	r0, .L34
  64:/mnt/c/Users/31740/Desktop/newcore/fs/vfs.c ****         __d_drop(next_dentry); //Êí§ÈîÄÂàÜÈÖçÊ≤°Êúâ‰ΩøÁî®ÁöÑdentry
 441              		.loc 1 64 5 is_stmt 1 view .LVU123
  64:/mnt/c/Users/31740/Desktop/newcore/fs/vfs.c ****         __d_drop(next_dentry); //Êí§ÈîÄÂàÜÈÖçÊ≤°Êúâ‰ΩøÁî®ÁöÑdentry
 442              		.loc 1 64 11 is_stmt 0 view .LVU124
 443 0036 A96C     		ldr	r1, [r5, #72]
  64:/mnt/c/Users/31740/Desktop/newcore/fs/vfs.c ****         __d_drop(next_dentry); //Êí§ÈîÄÂàÜÈÖçÊ≤°Êúâ‰ΩøÁî®ÁöÑdentry
 444              		.loc 1 64 20 view .LVU125
 445 0038 0A69     		ldr	r2, [r1, #16]
  64:/mnt/c/Users/31740/Desktop/newcore/fs/vfs.c ****         __d_drop(next_dentry); //Êí§ÈîÄÂàÜÈÖçÊ≤°Êúâ‰ΩøÁî®ÁöÑdentry
 446              		.loc 1 64 26 view .LVU126
 447 003a 5569     		ldr	r5, [r2, #20]
 448              	.LVL46:
  64:/mnt/c/Users/31740/Desktop/newcore/fs/vfs.c ****         __d_drop(next_dentry); //Êí§ÈîÄÂàÜÈÖçÊ≤°Êúâ‰ΩøÁî®ÁöÑdentry
 449              		.loc 1 64 7 view .LVU127
 450 003c 6DB1     		cbz	r5, .L36
  68:/mnt/c/Users/31740/Desktop/newcore/fs/vfs.c ****     if((i_mode & S_IFMT) == S_IFREG)
 451              		.loc 1 68 5 is_stmt 1 view .LVU128
  69:/mnt/c/Users/31740/Desktop/newcore/fs/vfs.c ****     {
 452              		.loc 1 69 5 view .LVU129
 453 003e 06F47043 		and	r3, r6, #61440
  69:/mnt/c/Users/31740/Desktop/newcore/fs/vfs.c ****     {
 454              		.loc 1 69 7 is_stmt 0 view .LVU130
 455 0042 B3F5004F 		cmp	r3, #32768
 456 0046 0DD0     		beq	.L37
  74:/mnt/c/Users/31740/Desktop/newcore/fs/vfs.c ****     {
 457              		.loc 1 74 10 is_stmt 1 view .LVU131
  74:/mnt/c/Users/31740/Desktop/newcore/fs/vfs.c ****     {
 458              		.loc 1 74 12 is_stmt 0 view .LVU132
 459 0048 B3F5804F 		cmp	r3, #16384
 460 004c 11D1     		bne	.L33
  77:/mnt/c/Users/31740/Desktop/newcore/fs/vfs.c ****     }
 461              		.loc 1 77 9 is_stmt 1 view .LVU133
  77:/mnt/c/Users/31740/Desktop/newcore/fs/vfs.c ****     }
 462              		.loc 1 77 33 is_stmt 0 view .LVU134
 463 004e 556A     		ldr	r5, [r2, #36]
  77:/mnt/c/Users/31740/Desktop/newcore/fs/vfs.c ****     }
 464              		.loc 1 77 15 view .LVU135
 465 0050 3346     		mov	r3, r6
 466 0052 0246     		mov	r2, r0
 467 0054 0020     		movs	r0, #0
ARM GAS  /tmp/cccpLwD1.s 			page 15


 468              	.LVL47:
  77:/mnt/c/Users/31740/Desktop/newcore/fs/vfs.c ****     }
 469              		.loc 1 77 15 view .LVU136
 470 0056 A847     		blx	r5
 471              	.LVL48:
  77:/mnt/c/Users/31740/Desktop/newcore/fs/vfs.c ****     }
 472              		.loc 1 77 15 view .LVU137
 473 0058 09E0     		b	.L32
 474              	.LVL49:
 475              	.L36:
  65:/mnt/c/Users/31740/Desktop/newcore/fs/vfs.c ****      return ERR_PTR(-EROFS);
 476              		.loc 1 65 9 is_stmt 1 view .LVU138
 477 005a FFF7FEFF 		bl	__d_drop
 478              	.LVL50:
  66:/mnt/c/Users/31740/Desktop/newcore/fs/vfs.c ****     }
 479              		.loc 1 66 6 view .LVU139
  66:/mnt/c/Users/31740/Desktop/newcore/fs/vfs.c ****     }
 480              		.loc 1 66 13 is_stmt 0 view .LVU140
 481 005e 6FF01D04 		mvn	r4, #29
 482              	.LVL51:
  66:/mnt/c/Users/31740/Desktop/newcore/fs/vfs.c ****     }
 483              		.loc 1 66 13 view .LVU141
 484 0062 DFE7     		b	.L27
 485              	.LVL52:
 486              	.L37:
  72:/mnt/c/Users/31740/Desktop/newcore/fs/vfs.c ****     }
 487              		.loc 1 72 9 is_stmt 1 view .LVU142
  72:/mnt/c/Users/31740/Desktop/newcore/fs/vfs.c ****     }
 488              		.loc 1 72 15 is_stmt 0 view .LVU143
 489 0064 0020     		movs	r0, #0
 490              	.LVL53:
  72:/mnt/c/Users/31740/Desktop/newcore/fs/vfs.c ****     }
 491              		.loc 1 72 15 view .LVU144
 492 0066 0090     		str	r0, [sp]
 493 0068 3346     		mov	r3, r6
 494 006a 2246     		mov	r2, r4
 495 006c A847     		blx	r5
 496              	.LVL54:
 497              	.L32:
  82:/mnt/c/Users/31740/Desktop/newcore/fs/vfs.c ****         __d_drop(next_dentry); 
 498              		.loc 1 82 5 is_stmt 1 view .LVU145
  82:/mnt/c/Users/31740/Desktop/newcore/fs/vfs.c ****         __d_drop(next_dentry); 
 499              		.loc 1 82 7 is_stmt 0 view .LVU146
 500 006e 0028     		cmp	r0, #0
 501 0070 D8DA     		bge	.L27
 502              	.LVL55:
 503              	.L33:
  83:/mnt/c/Users/31740/Desktop/newcore/fs/vfs.c ****      return ERR_PTR(-ENOMEM);
 504              		.loc 1 83 9 is_stmt 1 view .LVU147
 505 0072 2046     		mov	r0, r4
 506 0074 FFF7FEFF 		bl	__d_drop
 507              	.LVL56:
  84:/mnt/c/Users/31740/Desktop/newcore/fs/vfs.c ****     }
 508              		.loc 1 84 6 view .LVU148
  84:/mnt/c/Users/31740/Desktop/newcore/fs/vfs.c ****     }
 509              		.loc 1 84 13 is_stmt 0 view .LVU149
 510 0078 6FF00B04 		mvn	r4, #11
ARM GAS  /tmp/cccpLwD1.s 			page 16


 511              	.LVL57:
  84:/mnt/c/Users/31740/Desktop/newcore/fs/vfs.c ****     }
 512              		.loc 1 84 13 view .LVU150
 513 007c D2E7     		b	.L27
 514              	.LVL58:
 515              	.L34:
  63:/mnt/c/Users/31740/Desktop/newcore/fs/vfs.c ****     if(dir->d_inode->i_op->create == NULL){
 516              		.loc 1 63 12 view .LVU151
 517 007e 6FF00B04 		mvn	r4, #11
 518 0082 CFE7     		b	.L27
 519              	.L39:
 520              		.align	2
 521              	.L38:
 522 0084 00000000 		.word	.LC0
 523              		.cfi_endproc
 524              	.LFE1037:
 526              		.section	.rodata.print_read_only_message.str1.4,"aMS",%progbits,1
 527              		.align	2
 528              	.LC1:
 529 0000 6B65726E 		.ascii	"kernel_write:this file is read only\012\000"
 529      656C5F77 
 529      72697465 
 529      3A746869 
 529      73206669 
 530              		.section	.text.print_read_only_message,"ax",%progbits
 531              		.align	1
 532              		.syntax unified
 533              		.thumb
 534              		.thumb_func
 536              	print_read_only_message:
 537              	.LFB1048:
  88:/mnt/c/Users/31740/Desktop/newcore/fs/vfs.c **** 
  89:/mnt/c/Users/31740/Desktop/newcore/fs/vfs.c **** 
  90:/mnt/c/Users/31740/Desktop/newcore/fs/vfs.c **** static int __remove_dentry(struct dentry* dentry)    
  91:/mnt/c/Users/31740/Desktop/newcore/fs/vfs.c **** {
  92:/mnt/c/Users/31740/Desktop/newcore/fs/vfs.c ****     if(dentry == NULL){                            
  93:/mnt/c/Users/31740/Desktop/newcore/fs/vfs.c ****         return -1;                                    
  94:/mnt/c/Users/31740/Desktop/newcore/fs/vfs.c ****     }
  95:/mnt/c/Users/31740/Desktop/newcore/fs/vfs.c ****     if(dentry->d_sb->s_root == dentry){
  96:/mnt/c/Users/31740/Desktop/newcore/fs/vfs.c ****         pr_warn("can not remove mount point\n");
  97:/mnt/c/Users/31740/Desktop/newcore/fs/vfs.c ****         return -1;
  98:/mnt/c/Users/31740/Desktop/newcore/fs/vfs.c ****     }
  99:/mnt/c/Users/31740/Desktop/newcore/fs/vfs.c ****     umode_t i_mode = dentry->d_inode->i_mode;      
 100:/mnt/c/Users/31740/Desktop/newcore/fs/vfs.c ****     if((i_mode &  S_IFMT) == S_IFCHR || (i_mode &  S_IFMT) == S_IFBLK  ){
 101:/mnt/c/Users/31740/Desktop/newcore/fs/vfs.c ****         return -1;
 102:/mnt/c/Users/31740/Desktop/newcore/fs/vfs.c ****     }
 103:/mnt/c/Users/31740/Desktop/newcore/fs/vfs.c ****     else if((i_mode &  S_IFDIR) == S_IFCHR)
 104:/mnt/c/Users/31740/Desktop/newcore/fs/vfs.c ****     {
 105:/mnt/c/Users/31740/Desktop/newcore/fs/vfs.c ****         dentry->d_inode->i_op->rmdir(dentry->d_parent->d_inode,dentry);
 106:/mnt/c/Users/31740/Desktop/newcore/fs/vfs.c ****     }
 107:/mnt/c/Users/31740/Desktop/newcore/fs/vfs.c ****     else{
 108:/mnt/c/Users/31740/Desktop/newcore/fs/vfs.c ****         dentry->d_inode->i_op->unlink(dentry->d_parent->d_inode,dentry);
 109:/mnt/c/Users/31740/Desktop/newcore/fs/vfs.c ****         simple_unlink(dentry->d_parent->d_inode,dentry);
 110:/mnt/c/Users/31740/Desktop/newcore/fs/vfs.c ****     }
 111:/mnt/c/Users/31740/Desktop/newcore/fs/vfs.c ****     return 0;
 112:/mnt/c/Users/31740/Desktop/newcore/fs/vfs.c **** }
 113:/mnt/c/Users/31740/Desktop/newcore/fs/vfs.c **** 
ARM GAS  /tmp/cccpLwD1.s 			page 17


 114:/mnt/c/Users/31740/Desktop/newcore/fs/vfs.c **** 
 115:/mnt/c/Users/31740/Desktop/newcore/fs/vfs.c **** struct  dentry * select_file(char * path , int offset)
 116:/mnt/c/Users/31740/Desktop/newcore/fs/vfs.c **** {   
 117:/mnt/c/Users/31740/Desktop/newcore/fs/vfs.c ****     if(path == NULL) 
 118:/mnt/c/Users/31740/Desktop/newcore/fs/vfs.c ****     return NULL;
 119:/mnt/c/Users/31740/Desktop/newcore/fs/vfs.c ****     if(path[0] == '/' && path[1] == '\0') 
 120:/mnt/c/Users/31740/Desktop/newcore/fs/vfs.c ****     return root_dentry;
 121:/mnt/c/Users/31740/Desktop/newcore/fs/vfs.c ****     int err;    
 122:/mnt/c/Users/31740/Desktop/newcore/fs/vfs.c ****     int path_numbers = get_dir_number(path);
 123:/mnt/c/Users/31740/Desktop/newcore/fs/vfs.c ****     char file_name[128];    
 124:/mnt/c/Users/31740/Desktop/newcore/fs/vfs.c ****     struct dentry * esarch_dentry = root_dentry;
 125:/mnt/c/Users/31740/Desktop/newcore/fs/vfs.c ****     for(int i = 1 ;i <= path_numbers - offset; i++){
 126:/mnt/c/Users/31740/Desktop/newcore/fs/vfs.c ****         get_dir_name(path,file_name,i); //‰∏çÂèØËÉΩÈîôËØØÊâÄ‰ª•‰∏çÈúÄË¶ÅÈ™åËØÅ
 127:/mnt/c/Users/31740/Desktop/newcore/fs/vfs.c ****         esarch_dentry = find_dentry(esarch_dentry,file_name,0); 
 128:/mnt/c/Users/31740/Desktop/newcore/fs/vfs.c ****         if(IS_ERR(esarch_dentry)){
 129:/mnt/c/Users/31740/Desktop/newcore/fs/vfs.c ****             return esarch_dentry;
 130:/mnt/c/Users/31740/Desktop/newcore/fs/vfs.c ****         }
 131:/mnt/c/Users/31740/Desktop/newcore/fs/vfs.c ****     }
 132:/mnt/c/Users/31740/Desktop/newcore/fs/vfs.c ****     return esarch_dentry;
 133:/mnt/c/Users/31740/Desktop/newcore/fs/vfs.c **** }
 134:/mnt/c/Users/31740/Desktop/newcore/fs/vfs.c **** 
 135:/mnt/c/Users/31740/Desktop/newcore/fs/vfs.c **** /**
 136:/mnt/c/Users/31740/Desktop/newcore/fs/vfs.c ****  * Ê†πÊçÆÂÆåÊï¥Ë∑ØÂæÑÂàõÂª∫ÊâÄÊúâÂøÖË¶ÅÁöÑÁõÆÂΩïÂíåÊúÄÁªàÊñá‰ª∂
 137:/mnt/c/Users/31740/Desktop/newcore/fs/vfs.c ****  * @param path ÂÆåÊï¥Ë∑ØÂæÑ(Â¶Ç"/a/b/c/file.txt")
 138:/mnt/c/Users/31740/Desktop/newcore/fs/vfs.c ****  * @param mode ÊúÄÁªàÊñá‰ª∂ÁöÑÊ®°Âºè
 139:/mnt/c/Users/31740/Desktop/newcore/fs/vfs.c ****  * @return ÊàêÂäüËøîÂõûÁõÆÊ†ádentryÔºåÂ§±Ë¥•ËøîÂõûÈîôËØØÊåáÈíà
 140:/mnt/c/Users/31740/Desktop/newcore/fs/vfs.c ****  */
 141:/mnt/c/Users/31740/Desktop/newcore/fs/vfs.c **** static struct dentry *create_path_and_file(const char *path, umode_t mode)
 142:/mnt/c/Users/31740/Desktop/newcore/fs/vfs.c **** {
 143:/mnt/c/Users/31740/Desktop/newcore/fs/vfs.c ****     struct dentry *parent = root_dentry;
 144:/mnt/c/Users/31740/Desktop/newcore/fs/vfs.c ****     struct dentry *child = NULL;
 145:/mnt/c/Users/31740/Desktop/newcore/fs/vfs.c ****     char component[NAME_MAX];
 146:/mnt/c/Users/31740/Desktop/newcore/fs/vfs.c ****     const char *start = path;
 147:/mnt/c/Users/31740/Desktop/newcore/fs/vfs.c ****     const char *end;
 148:/mnt/c/Users/31740/Desktop/newcore/fs/vfs.c ****     int err;
 149:/mnt/c/Users/31740/Desktop/newcore/fs/vfs.c ****     if (*start != '/') 
 150:/mnt/c/Users/31740/Desktop/newcore/fs/vfs.c ****     return NULL;
 151:/mnt/c/Users/31740/Desktop/newcore/fs/vfs.c **** 
 152:/mnt/c/Users/31740/Desktop/newcore/fs/vfs.c ****     if (*start == '/') start++;
 153:/mnt/c/Users/31740/Desktop/newcore/fs/vfs.c ****     while ((end = strchr(start, '/'))) {
 154:/mnt/c/Users/31740/Desktop/newcore/fs/vfs.c ****         size_t len = end - start;
 155:/mnt/c/Users/31740/Desktop/newcore/fs/vfs.c ****         if (len >= sizeof(component)) {
 156:/mnt/c/Users/31740/Desktop/newcore/fs/vfs.c ****             return ERR_PTR(-ENAMETOOLONG);
 157:/mnt/c/Users/31740/Desktop/newcore/fs/vfs.c ****         }
 158:/mnt/c/Users/31740/Desktop/newcore/fs/vfs.c ****         strncpy(component, start, len);
 159:/mnt/c/Users/31740/Desktop/newcore/fs/vfs.c ****         component[len] = '\0';
 160:/mnt/c/Users/31740/Desktop/newcore/fs/vfs.c ****         child = find_dentry(parent, component, 0);
 161:/mnt/c/Users/31740/Desktop/newcore/fs/vfs.c ****         if (IS_ERR(child)) {
 162:/mnt/c/Users/31740/Desktop/newcore/fs/vfs.c ****             child = create_dentry(parent, component, S_IFDIR | 0755);
 163:/mnt/c/Users/31740/Desktop/newcore/fs/vfs.c ****             if (IS_ERR(child)) {
 164:/mnt/c/Users/31740/Desktop/newcore/fs/vfs.c ****                 pr_err("Failed to create directory '%s': %ld\n",
 165:/mnt/c/Users/31740/Desktop/newcore/fs/vfs.c ****                       component, PTR_ERR(child));
 166:/mnt/c/Users/31740/Desktop/newcore/fs/vfs.c ****                 return child;
 167:/mnt/c/Users/31740/Desktop/newcore/fs/vfs.c ****             }
 168:/mnt/c/Users/31740/Desktop/newcore/fs/vfs.c ****         }
 169:/mnt/c/Users/31740/Desktop/newcore/fs/vfs.c ****         if (!S_ISDIR(child->d_inode->i_mode)) {
 170:/mnt/c/Users/31740/Desktop/newcore/fs/vfs.c ****             return ERR_PTR(-ENOTDIR);
ARM GAS  /tmp/cccpLwD1.s 			page 18


 171:/mnt/c/Users/31740/Desktop/newcore/fs/vfs.c ****         }
 172:/mnt/c/Users/31740/Desktop/newcore/fs/vfs.c ****         parent = child;
 173:/mnt/c/Users/31740/Desktop/newcore/fs/vfs.c ****         start = end + 1;
 174:/mnt/c/Users/31740/Desktop/newcore/fs/vfs.c ****     }
 175:/mnt/c/Users/31740/Desktop/newcore/fs/vfs.c ****     if (*start != '\0') {
 176:/mnt/c/Users/31740/Desktop/newcore/fs/vfs.c ****         child = create_dentry(parent, start, mode);
 177:/mnt/c/Users/31740/Desktop/newcore/fs/vfs.c ****         if (IS_ERR(child)) {
 178:/mnt/c/Users/31740/Desktop/newcore/fs/vfs.c ****             pr_err("Failed to create file '%s': %ld\n",
 179:/mnt/c/Users/31740/Desktop/newcore/fs/vfs.c ****                   start, PTR_ERR(child));
 180:/mnt/c/Users/31740/Desktop/newcore/fs/vfs.c ****             return child;
 181:/mnt/c/Users/31740/Desktop/newcore/fs/vfs.c ****         }
 182:/mnt/c/Users/31740/Desktop/newcore/fs/vfs.c ****         return child;
 183:/mnt/c/Users/31740/Desktop/newcore/fs/vfs.c ****     }
 184:/mnt/c/Users/31740/Desktop/newcore/fs/vfs.c ****     return parent;
 185:/mnt/c/Users/31740/Desktop/newcore/fs/vfs.c **** }
 186:/mnt/c/Users/31740/Desktop/newcore/fs/vfs.c **** 
 187:/mnt/c/Users/31740/Desktop/newcore/fs/vfs.c **** 
 188:/mnt/c/Users/31740/Desktop/newcore/fs/vfs.c **** 
 189:/mnt/c/Users/31740/Desktop/newcore/fs/vfs.c **** 
 190:/mnt/c/Users/31740/Desktop/newcore/fs/vfs.c **** 
 191:/mnt/c/Users/31740/Desktop/newcore/fs/vfs.c **** 
 192:/mnt/c/Users/31740/Desktop/newcore/fs/vfs.c **** 
 193:/mnt/c/Users/31740/Desktop/newcore/fs/vfs.c **** 
 194:/mnt/c/Users/31740/Desktop/newcore/fs/vfs.c **** 
 195:/mnt/c/Users/31740/Desktop/newcore/fs/vfs.c **** 
 196:/mnt/c/Users/31740/Desktop/newcore/fs/vfs.c **** 
 197:/mnt/c/Users/31740/Desktop/newcore/fs/vfs.c **** struct  dentry * create_new_dentry(char * path,umode_t i_mode)
 198:/mnt/c/Users/31740/Desktop/newcore/fs/vfs.c **** {
 199:/mnt/c/Users/31740/Desktop/newcore/fs/vfs.c ****     struct  dentry * p_dentry;
 200:/mnt/c/Users/31740/Desktop/newcore/fs/vfs.c **** 
 201:/mnt/c/Users/31740/Desktop/newcore/fs/vfs.c ****     p_dentry = select_file(path, 1); //Êü•ËØ¢Â≠êÁõÆÂΩï
 202:/mnt/c/Users/31740/Desktop/newcore/fs/vfs.c ****     if(IS_ERR(p_dentry)){
 203:/mnt/c/Users/31740/Desktop/newcore/fs/vfs.c ****         //pr_info("can not find parent dentry%d\n",(int)p_dentry);
 204:/mnt/c/Users/31740/Desktop/newcore/fs/vfs.c ****         return ERR_PTR(-ENOENT);
 205:/mnt/c/Users/31740/Desktop/newcore/fs/vfs.c ****     }
 206:/mnt/c/Users/31740/Desktop/newcore/fs/vfs.c ****     mode_t p_denrty_mode = p_dentry->d_inode->i_mode;
 207:/mnt/c/Users/31740/Desktop/newcore/fs/vfs.c ****     if((p_denrty_mode & S_IFMT) != S_IFDIR)
 208:/mnt/c/Users/31740/Desktop/newcore/fs/vfs.c ****     {
 209:/mnt/c/Users/31740/Desktop/newcore/fs/vfs.c ****         //pr_info("parent dentry : %s is not a dir\n",p_dentry->d_name.name);
 210:/mnt/c/Users/31740/Desktop/newcore/fs/vfs.c ****         return ERR_PTR(-ENOTDIR);
 211:/mnt/c/Users/31740/Desktop/newcore/fs/vfs.c ****     } 
 212:/mnt/c/Users/31740/Desktop/newcore/fs/vfs.c ****     char file_name[128];  
 213:/mnt/c/Users/31740/Desktop/newcore/fs/vfs.c ****     get_dir_name(path,file_name,get_dir_number(path));     
 214:/mnt/c/Users/31740/Desktop/newcore/fs/vfs.c ****     p_dentry = create_dentry(p_dentry,file_name,i_mode);
 215:/mnt/c/Users/31740/Desktop/newcore/fs/vfs.c ****     return p_dentry;
 216:/mnt/c/Users/31740/Desktop/newcore/fs/vfs.c **** }
 217:/mnt/c/Users/31740/Desktop/newcore/fs/vfs.c **** 
 218:/mnt/c/Users/31740/Desktop/newcore/fs/vfs.c **** 
 219:/mnt/c/Users/31740/Desktop/newcore/fs/vfs.c **** 
 220:/mnt/c/Users/31740/Desktop/newcore/fs/vfs.c **** 
 221:/mnt/c/Users/31740/Desktop/newcore/fs/vfs.c **** 
 222:/mnt/c/Users/31740/Desktop/newcore/fs/vfs.c **** 
 223:/mnt/c/Users/31740/Desktop/newcore/fs/vfs.c **** 
 224:/mnt/c/Users/31740/Desktop/newcore/fs/vfs.c **** 
 225:/mnt/c/Users/31740/Desktop/newcore/fs/vfs.c **** int remove_dentry(char* path)
 226:/mnt/c/Users/31740/Desktop/newcore/fs/vfs.c **** {
 227:/mnt/c/Users/31740/Desktop/newcore/fs/vfs.c ****     struct  dentry * dentry = select_file(path,0);
ARM GAS  /tmp/cccpLwD1.s 			page 19


 228:/mnt/c/Users/31740/Desktop/newcore/fs/vfs.c ****     if(!IS_ERR(dentry)){
 229:/mnt/c/Users/31740/Desktop/newcore/fs/vfs.c ****         __remove_dentry(dentry);
 230:/mnt/c/Users/31740/Desktop/newcore/fs/vfs.c ****         return 0;
 231:/mnt/c/Users/31740/Desktop/newcore/fs/vfs.c ****     }
 232:/mnt/c/Users/31740/Desktop/newcore/fs/vfs.c ****     return -1;
 233:/mnt/c/Users/31740/Desktop/newcore/fs/vfs.c **** }
 234:/mnt/c/Users/31740/Desktop/newcore/fs/vfs.c **** EXPORT_SYMBOL(remove_dentry);
 235:/mnt/c/Users/31740/Desktop/newcore/fs/vfs.c **** 
 236:/mnt/c/Users/31740/Desktop/newcore/fs/vfs.c **** struct block_device *blkdev_get_by_path(char *path, int flag,void* priv)
 237:/mnt/c/Users/31740/Desktop/newcore/fs/vfs.c **** {
 238:/mnt/c/Users/31740/Desktop/newcore/fs/vfs.c ****     struct dentry* dentry = select_file(path,0);
 239:/mnt/c/Users/31740/Desktop/newcore/fs/vfs.c ****     return devfs_get_blk_dev(dentry->d_inode);
 240:/mnt/c/Users/31740/Desktop/newcore/fs/vfs.c **** }
 241:/mnt/c/Users/31740/Desktop/newcore/fs/vfs.c **** EXPORT_SYMBOL(blkdev_get_by_path);
 242:/mnt/c/Users/31740/Desktop/newcore/fs/vfs.c **** 
 243:/mnt/c/Users/31740/Desktop/newcore/fs/vfs.c **** struct dentry* mkdir(char *path,umode_t mode){
 244:/mnt/c/Users/31740/Desktop/newcore/fs/vfs.c ****    if(mode == NULL) mode = 0755;
 245:/mnt/c/Users/31740/Desktop/newcore/fs/vfs.c ****    return create_new_dentry(path, S_IFDIR | (mode & 0777));
 246:/mnt/c/Users/31740/Desktop/newcore/fs/vfs.c **** }
 247:/mnt/c/Users/31740/Desktop/newcore/fs/vfs.c **** EXPORT_SYMBOL(mkdir);
 248:/mnt/c/Users/31740/Desktop/newcore/fs/vfs.c **** 
 249:/mnt/c/Users/31740/Desktop/newcore/fs/vfs.c **** 
 250:/mnt/c/Users/31740/Desktop/newcore/fs/vfs.c **** umode_t get_file_mode(char *path){
 251:/mnt/c/Users/31740/Desktop/newcore/fs/vfs.c ****     struct dentry*file_dentry = select_file(path,0);
 252:/mnt/c/Users/31740/Desktop/newcore/fs/vfs.c ****     if(IS_ERR(file_dentry)){
 253:/mnt/c/Users/31740/Desktop/newcore/fs/vfs.c ****         return 0;
 254:/mnt/c/Users/31740/Desktop/newcore/fs/vfs.c ****     }
 255:/mnt/c/Users/31740/Desktop/newcore/fs/vfs.c ****     return file_dentry->d_inode->i_mode;
 256:/mnt/c/Users/31740/Desktop/newcore/fs/vfs.c **** }
 257:/mnt/c/Users/31740/Desktop/newcore/fs/vfs.c **** void *print_mode(char *path)
 258:/mnt/c/Users/31740/Desktop/newcore/fs/vfs.c **** {
 259:/mnt/c/Users/31740/Desktop/newcore/fs/vfs.c ****     umode_t mode = get_file_mode(path);
 260:/mnt/c/Users/31740/Desktop/newcore/fs/vfs.c ****     char data[10];
 261:/mnt/c/Users/31740/Desktop/newcore/fs/vfs.c ****     data[0] = (S_ISDIR(mode)) ? 'd' : 
 262:/mnt/c/Users/31740/Desktop/newcore/fs/vfs.c ****     (S_ISCHR(mode)) ? 'c' : 
 263:/mnt/c/Users/31740/Desktop/newcore/fs/vfs.c ****     (S_ISBLK(mode)) ? 'b' : 
 264:/mnt/c/Users/31740/Desktop/newcore/fs/vfs.c ****     (S_ISFIFO(mode)) ? 'p' : 
 265:/mnt/c/Users/31740/Desktop/newcore/fs/vfs.c ****     (S_ISLNK(mode)) ? 'l' : 
 266:/mnt/c/Users/31740/Desktop/newcore/fs/vfs.c ****     (S_ISSOCK(mode)) ? 's' : '-';
 267:/mnt/c/Users/31740/Desktop/newcore/fs/vfs.c ****     data[1] = (mode & S_IRUSR) ? 'r' : '-';
 268:/mnt/c/Users/31740/Desktop/newcore/fs/vfs.c ****     data[2] = (mode & S_IWUSR) ? 'w' : '-';
 269:/mnt/c/Users/31740/Desktop/newcore/fs/vfs.c ****     data[3] = (mode & S_IXUSR) ? 'x' : '-';
 270:/mnt/c/Users/31740/Desktop/newcore/fs/vfs.c ****     data[4] = (mode & S_IRGRP) ? 'r' : '-';
 271:/mnt/c/Users/31740/Desktop/newcore/fs/vfs.c ****     data[5] = (mode & S_IWGRP) ? 'w' : '-';
 272:/mnt/c/Users/31740/Desktop/newcore/fs/vfs.c ****     data[6] = (mode & S_IXGRP) ? 'x' : '-';
 273:/mnt/c/Users/31740/Desktop/newcore/fs/vfs.c ****     data[7] = (mode & S_IROTH) ? 'r' : '-';
 274:/mnt/c/Users/31740/Desktop/newcore/fs/vfs.c ****     data[8] = (mode & S_IWOTH) ? 'w' : '-';
 275:/mnt/c/Users/31740/Desktop/newcore/fs/vfs.c ****     data[9] = (mode & S_IXOTH) ? 'x' : '-';
 276:/mnt/c/Users/31740/Desktop/newcore/fs/vfs.c ****     printk(KERN_INFO "File mode: %s\n", data);
 277:/mnt/c/Users/31740/Desktop/newcore/fs/vfs.c ****     return NULL;
 278:/mnt/c/Users/31740/Desktop/newcore/fs/vfs.c **** }
 279:/mnt/c/Users/31740/Desktop/newcore/fs/vfs.c **** 
 280:/mnt/c/Users/31740/Desktop/newcore/fs/vfs.c **** 
 281:/mnt/c/Users/31740/Desktop/newcore/fs/vfs.c **** 
 282:/mnt/c/Users/31740/Desktop/newcore/fs/vfs.c **** 
 283:/mnt/c/Users/31740/Desktop/newcore/fs/vfs.c **** 
 284:/mnt/c/Users/31740/Desktop/newcore/fs/vfs.c **** 
ARM GAS  /tmp/cccpLwD1.s 			page 20


 285:/mnt/c/Users/31740/Desktop/newcore/fs/vfs.c **** 
 286:/mnt/c/Users/31740/Desktop/newcore/fs/vfs.c **** 
 287:/mnt/c/Users/31740/Desktop/newcore/fs/vfs.c **** struct file *filp_open(const char * path, int flags, umode_t mode)
 288:/mnt/c/Users/31740/Desktop/newcore/fs/vfs.c **** {
 289:/mnt/c/Users/31740/Desktop/newcore/fs/vfs.c ****     printk(KERN_DEBUG "open file %s\n",path);
 290:/mnt/c/Users/31740/Desktop/newcore/fs/vfs.c ****     struct dentry*file_dentry = select_file(path,0);
 291:/mnt/c/Users/31740/Desktop/newcore/fs/vfs.c ****     if(IS_ERR(file_dentry))
 292:/mnt/c/Users/31740/Desktop/newcore/fs/vfs.c ****     {
 293:/mnt/c/Users/31740/Desktop/newcore/fs/vfs.c ****         pr_info("file not found\n");
 294:/mnt/c/Users/31740/Desktop/newcore/fs/vfs.c ****         if (PTR_ERR(file_dentry) == -ENOENT && (flags & O_CREAT)) 
 295:/mnt/c/Users/31740/Desktop/newcore/fs/vfs.c ****         {
 296:/mnt/c/Users/31740/Desktop/newcore/fs/vfs.c ****             pr_info("try create: %s\n", path);
 297:/mnt/c/Users/31740/Desktop/newcore/fs/vfs.c ****             file_dentry = create_new_dentry((char *)path, S_IFREG | mode);
 298:/mnt/c/Users/31740/Desktop/newcore/fs/vfs.c ****             if (IS_ERR(file_dentry)){
 299:/mnt/c/Users/31740/Desktop/newcore/fs/vfs.c ****                 pr_info("can not create file: %s\n", path);
 300:/mnt/c/Users/31740/Desktop/newcore/fs/vfs.c ****                 return (struct file *)file_dentry;
 301:/mnt/c/Users/31740/Desktop/newcore/fs/vfs.c ****             }
 302:/mnt/c/Users/31740/Desktop/newcore/fs/vfs.c ****         }
 303:/mnt/c/Users/31740/Desktop/newcore/fs/vfs.c ****         else {
 304:/mnt/c/Users/31740/Desktop/newcore/fs/vfs.c ****             return -ENOENT;
 305:/mnt/c/Users/31740/Desktop/newcore/fs/vfs.c ****         }      
 306:/mnt/c/Users/31740/Desktop/newcore/fs/vfs.c ****     }
 307:/mnt/c/Users/31740/Desktop/newcore/fs/vfs.c ****     struct file *file = f_get(file_dentry);
 308:/mnt/c/Users/31740/Desktop/newcore/fs/vfs.c ****     if(IS_ERR(file))
 309:/mnt/c/Users/31740/Desktop/newcore/fs/vfs.c ****         return ERR_PTR(-ENOMEM);
 310:/mnt/c/Users/31740/Desktop/newcore/fs/vfs.c **** 
 311:/mnt/c/Users/31740/Desktop/newcore/fs/vfs.c ****     if ((file->f_inode->i_mode & S_IFMT) == S_IFDIR) {
 312:/mnt/c/Users/31740/Desktop/newcore/fs/vfs.c ****         file->f_pos = 0;
 313:/mnt/c/Users/31740/Desktop/newcore/fs/vfs.c ****     }
 314:/mnt/c/Users/31740/Desktop/newcore/fs/vfs.c **** 
 315:/mnt/c/Users/31740/Desktop/newcore/fs/vfs.c ****     file->f_flags = flags;
 316:/mnt/c/Users/31740/Desktop/newcore/fs/vfs.c ****     file->f_mode = mode;
 317:/mnt/c/Users/31740/Desktop/newcore/fs/vfs.c ****     int flag = 0;
 318:/mnt/c/Users/31740/Desktop/newcore/fs/vfs.c ****     spin_lock(&file->f_slock);
 319:/mnt/c/Users/31740/Desktop/newcore/fs/vfs.c ****     if(file->f_op != NULL){
 320:/mnt/c/Users/31740/Desktop/newcore/fs/vfs.c ****         spin_lock(&file->f_inode->i_lock);
 321:/mnt/c/Users/31740/Desktop/newcore/fs/vfs.c ****         if(file->f_op->open != NULL)
 322:/mnt/c/Users/31740/Desktop/newcore/fs/vfs.c ****         flag = file->f_op->open(file->f_inode,file);
 323:/mnt/c/Users/31740/Desktop/newcore/fs/vfs.c ****         spin_unlock(&file->f_inode->i_lock);
 324:/mnt/c/Users/31740/Desktop/newcore/fs/vfs.c ****     }
 325:/mnt/c/Users/31740/Desktop/newcore/fs/vfs.c ****     spin_unlock(&file->f_slock);
 326:/mnt/c/Users/31740/Desktop/newcore/fs/vfs.c ****     if(flag < 0){
 327:/mnt/c/Users/31740/Desktop/newcore/fs/vfs.c ****         f_put(file);
 328:/mnt/c/Users/31740/Desktop/newcore/fs/vfs.c ****         return NULL;
 329:/mnt/c/Users/31740/Desktop/newcore/fs/vfs.c ****     }
 330:/mnt/c/Users/31740/Desktop/newcore/fs/vfs.c ****     if(file->f_op->write != NULL)
 331:/mnt/c/Users/31740/Desktop/newcore/fs/vfs.c ****     file->f_flags |= O_RDONLY;
 332:/mnt/c/Users/31740/Desktop/newcore/fs/vfs.c ****     file->f_inode->i_atime_nsec  = jiffies/HZ;
 333:/mnt/c/Users/31740/Desktop/newcore/fs/vfs.c ****     file->f_inode->i_atime_nsec  = jiffies%HZ;
 334:/mnt/c/Users/31740/Desktop/newcore/fs/vfs.c ****     return file;
 335:/mnt/c/Users/31740/Desktop/newcore/fs/vfs.c **** }
 336:/mnt/c/Users/31740/Desktop/newcore/fs/vfs.c **** EXPORT_SYMBOL(filp_open);
 337:/mnt/c/Users/31740/Desktop/newcore/fs/vfs.c **** 
 338:/mnt/c/Users/31740/Desktop/newcore/fs/vfs.c **** static void print_read_only_message()
 339:/mnt/c/Users/31740/Desktop/newcore/fs/vfs.c **** {
 538              		.loc 1 339 1 is_stmt 1 view -0
 539              		.cfi_startproc
ARM GAS  /tmp/cccpLwD1.s 			page 21


 540              		@ args = 0, pretend = 0, frame = 0
 541              		@ frame_needed = 0, uses_anonymous_args = 0
 542 0000 08B5     		push	{r3, lr}
 543              	.LCFI9:
 544              		.cfi_def_cfa_offset 8
 545              		.cfi_offset 3, -8
 546              		.cfi_offset 14, -4
 340:/mnt/c/Users/31740/Desktop/newcore/fs/vfs.c ****     pr_info("kernel_write:this file is read only\n");
 547              		.loc 1 340 5 view .LVU153
 548 0002 0249     		ldr	r1, .L42
 549 0004 0620     		movs	r0, #6
 550 0006 FFF7FEFF 		bl	printk
 551              	.LVL59:
 341:/mnt/c/Users/31740/Desktop/newcore/fs/vfs.c **** }
 552              		.loc 1 341 1 is_stmt 0 view .LVU154
 553 000a 08BD     		pop	{r3, pc}
 554              	.L43:
 555              		.align	2
 556              	.L42:
 557 000c 00000000 		.word	.LC1
 558              		.cfi_endproc
 559              	.LFE1048:
 561              		.section	.rodata.__remove_dentry.str1.4,"aMS",%progbits,1
 562              		.align	2
 563              	.LC2:
 564 0000 63616E20 		.ascii	"can not remove mount point\012\000"
 564      6E6F7420 
 564      72656D6F 
 564      7665206D 
 564      6F756E74 
 565              		.section	.text.__remove_dentry,"ax",%progbits
 566              		.align	1
 567              		.syntax unified
 568              		.thumb
 569              		.thumb_func
 571              	__remove_dentry:
 572              	.LVL60:
 573              	.LFB1038:
  91:/mnt/c/Users/31740/Desktop/newcore/fs/vfs.c ****     if(dentry == NULL){                            
 574              		.loc 1 91 1 is_stmt 1 view -0
 575              		.cfi_startproc
 576              		@ args = 0, pretend = 0, frame = 0
 577              		@ frame_needed = 0, uses_anonymous_args = 0
  92:/mnt/c/Users/31740/Desktop/newcore/fs/vfs.c ****         return -1;                                    
 578              		.loc 1 92 5 view .LVU156
  92:/mnt/c/Users/31740/Desktop/newcore/fs/vfs.c ****         return -1;                                    
 579              		.loc 1 92 7 is_stmt 0 view .LVU157
 580 0000 18B3     		cbz	r0, .L47
  91:/mnt/c/Users/31740/Desktop/newcore/fs/vfs.c ****     if(dentry == NULL){                            
 581              		.loc 1 91 1 view .LVU158
 582 0002 10B5     		push	{r4, lr}
 583              	.LCFI10:
 584              		.cfi_def_cfa_offset 8
 585              		.cfi_offset 4, -8
 586              		.cfi_offset 14, -4
 587 0004 0446     		mov	r4, r0
  95:/mnt/c/Users/31740/Desktop/newcore/fs/vfs.c ****         pr_warn("can not remove mount point\n");
ARM GAS  /tmp/cccpLwD1.s 			page 22


 588              		.loc 1 95 5 is_stmt 1 view .LVU159
  95:/mnt/c/Users/31740/Desktop/newcore/fs/vfs.c ****         pr_warn("can not remove mount point\n");
 589              		.loc 1 95 14 is_stmt 0 view .LVU160
 590 0006 036D     		ldr	r3, [r0, #80]
  95:/mnt/c/Users/31740/Desktop/newcore/fs/vfs.c ****         pr_warn("can not remove mount point\n");
 591              		.loc 1 95 20 view .LVU161
 592 0008 9B69     		ldr	r3, [r3, #24]
  95:/mnt/c/Users/31740/Desktop/newcore/fs/vfs.c ****         pr_warn("can not remove mount point\n");
 593              		.loc 1 95 7 view .LVU162
 594 000a 8342     		cmp	r3, r0
 595 000c 16D0     		beq	.L54
  99:/mnt/c/Users/31740/Desktop/newcore/fs/vfs.c ****     if((i_mode &  S_IFMT) == S_IFCHR || (i_mode &  S_IFMT) == S_IFBLK  ){
 596              		.loc 1 99 5 is_stmt 1 view .LVU163
  99:/mnt/c/Users/31740/Desktop/newcore/fs/vfs.c ****     if((i_mode &  S_IFMT) == S_IFCHR || (i_mode &  S_IFMT) == S_IFBLK  ){
 597              		.loc 1 99 28 is_stmt 0 view .LVU164
 598 000e 826C     		ldr	r2, [r0, #72]
  99:/mnt/c/Users/31740/Desktop/newcore/fs/vfs.c ****     if((i_mode &  S_IFMT) == S_IFCHR || (i_mode &  S_IFMT) == S_IFBLK  ){
 599              		.loc 1 99 13 view .LVU165
 600 0010 1388     		ldrh	r3, [r2]
 601              	.LVL61:
 100:/mnt/c/Users/31740/Desktop/newcore/fs/vfs.c ****         return -1;
 602              		.loc 1 100 5 is_stmt 1 view .LVU166
 603 0012 03F47043 		and	r3, r3, #61440
 100:/mnt/c/Users/31740/Desktop/newcore/fs/vfs.c ****         return -1;
 604              		.loc 1 100 7 is_stmt 0 view .LVU167
 605 0016 B3F5005F 		cmp	r3, #8192
 606 001a 19D0     		beq	.L48
 100:/mnt/c/Users/31740/Desktop/newcore/fs/vfs.c ****         return -1;
 607              		.loc 1 100 38 discriminator 1 view .LVU168
 608 001c B3F5C04F 		cmp	r3, #24576
 609 0020 19D0     		beq	.L49
 103:/mnt/c/Users/31740/Desktop/newcore/fs/vfs.c ****     {
 610              		.loc 1 103 10 is_stmt 1 view .LVU169
 108:/mnt/c/Users/31740/Desktop/newcore/fs/vfs.c ****         simple_unlink(dentry->d_parent->d_inode,dentry);
 611              		.loc 1 108 9 view .LVU170
 108:/mnt/c/Users/31740/Desktop/newcore/fs/vfs.c ****         simple_unlink(dentry->d_parent->d_inode,dentry);
 612              		.loc 1 108 24 is_stmt 0 view .LVU171
 613 0022 1369     		ldr	r3, [r2, #16]
 108:/mnt/c/Users/31740/Desktop/newcore/fs/vfs.c ****         simple_unlink(dentry->d_parent->d_inode,dentry);
 614              		.loc 1 108 30 view .LVU172
 615 0024 DB69     		ldr	r3, [r3, #28]
 108:/mnt/c/Users/31740/Desktop/newcore/fs/vfs.c ****         simple_unlink(dentry->d_parent->d_inode,dentry);
 616              		.loc 1 108 45 view .LVU173
 617 0026 4268     		ldr	r2, [r0, #4]
 618              	.LVL62:
 108:/mnt/c/Users/31740/Desktop/newcore/fs/vfs.c ****         simple_unlink(dentry->d_parent->d_inode,dentry);
 619              		.loc 1 108 9 view .LVU174
 620 0028 0146     		mov	r1, r0
 621 002a 906C     		ldr	r0, [r2, #72]
 622              	.LVL63:
 108:/mnt/c/Users/31740/Desktop/newcore/fs/vfs.c ****         simple_unlink(dentry->d_parent->d_inode,dentry);
 623              		.loc 1 108 9 view .LVU175
 624 002c 9847     		blx	r3
 625              	.LVL64:
 109:/mnt/c/Users/31740/Desktop/newcore/fs/vfs.c ****     }
 626              		.loc 1 109 9 is_stmt 1 view .LVU176
 109:/mnt/c/Users/31740/Desktop/newcore/fs/vfs.c ****     }
ARM GAS  /tmp/cccpLwD1.s 			page 23


 627              		.loc 1 109 29 is_stmt 0 view .LVU177
 628 002e 6368     		ldr	r3, [r4, #4]
 109:/mnt/c/Users/31740/Desktop/newcore/fs/vfs.c ****     }
 629              		.loc 1 109 9 view .LVU178
 630 0030 2146     		mov	r1, r4
 631 0032 986C     		ldr	r0, [r3, #72]
 632 0034 FFF7FEFF 		bl	simple_unlink
 633              	.LVL65:
 111:/mnt/c/Users/31740/Desktop/newcore/fs/vfs.c **** }
 634              		.loc 1 111 5 is_stmt 1 view .LVU179
 111:/mnt/c/Users/31740/Desktop/newcore/fs/vfs.c **** }
 635              		.loc 1 111 12 is_stmt 0 view .LVU180
 636 0038 0020     		movs	r0, #0
 637              	.LVL66:
 638              	.L44:
 112:/mnt/c/Users/31740/Desktop/newcore/fs/vfs.c **** 
 639              		.loc 1 112 1 view .LVU181
 640 003a 10BD     		pop	{r4, pc}
 641              	.LVL67:
 642              	.L54:
  96:/mnt/c/Users/31740/Desktop/newcore/fs/vfs.c ****         return -1;
 643              		.loc 1 96 9 is_stmt 1 view .LVU182
 644 003c 0749     		ldr	r1, .L55
 645 003e 0420     		movs	r0, #4
 646              	.LVL68:
  96:/mnt/c/Users/31740/Desktop/newcore/fs/vfs.c ****         return -1;
 647              		.loc 1 96 9 is_stmt 0 view .LVU183
 648 0040 FFF7FEFF 		bl	printk
 649              	.LVL69:
  97:/mnt/c/Users/31740/Desktop/newcore/fs/vfs.c ****     }
 650              		.loc 1 97 9 is_stmt 1 view .LVU184
  97:/mnt/c/Users/31740/Desktop/newcore/fs/vfs.c ****     }
 651              		.loc 1 97 16 is_stmt 0 view .LVU185
 652 0044 4FF0FF30 		mov	r0, #-1
 653 0048 F7E7     		b	.L44
 654              	.LVL70:
 655              	.L47:
 656              	.LCFI11:
 657              		.cfi_def_cfa_offset 0
 658              		.cfi_restore 4
 659              		.cfi_restore 14
  93:/mnt/c/Users/31740/Desktop/newcore/fs/vfs.c ****     }
 660              		.loc 1 93 16 view .LVU186
 661 004a 4FF0FF30 		mov	r0, #-1
 662              	.LVL71:
 112:/mnt/c/Users/31740/Desktop/newcore/fs/vfs.c **** 
 663              		.loc 1 112 1 view .LVU187
 664 004e 7047     		bx	lr
 665              	.LVL72:
 666              	.L48:
 667              	.LCFI12:
 668              		.cfi_def_cfa_offset 8
 669              		.cfi_offset 4, -8
 670              		.cfi_offset 14, -4
 101:/mnt/c/Users/31740/Desktop/newcore/fs/vfs.c ****     }
 671              		.loc 1 101 16 view .LVU188
 672 0050 4FF0FF30 		mov	r0, #-1
ARM GAS  /tmp/cccpLwD1.s 			page 24


 673              	.LVL73:
 101:/mnt/c/Users/31740/Desktop/newcore/fs/vfs.c ****     }
 674              		.loc 1 101 16 view .LVU189
 675 0054 F1E7     		b	.L44
 676              	.LVL74:
 677              	.L49:
 101:/mnt/c/Users/31740/Desktop/newcore/fs/vfs.c ****     }
 678              		.loc 1 101 16 view .LVU190
 679 0056 4FF0FF30 		mov	r0, #-1
 680              	.LVL75:
 101:/mnt/c/Users/31740/Desktop/newcore/fs/vfs.c ****     }
 681              		.loc 1 101 16 view .LVU191
 682 005a EEE7     		b	.L44
 683              	.L56:
 684              		.align	2
 685              	.L55:
 686 005c 00000000 		.word	.LC2
 687              		.cfi_endproc
 688              	.LFE1038:
 690              		.section	.text.__spin_lock,"ax",%progbits
 691              		.align	1
 692              		.syntax unified
 693              		.thumb
 694              		.thumb_func
 696              	__spin_lock:
 697              	.LVL76:
 698              	.LFB227:
  15:/mnt/c/Users/31740/Desktop/newcore/arch/arm_m/include/asm/spinlock.h **** 
 699              		.loc 2 15 47 is_stmt 1 view -0
 700              		.cfi_startproc
 701              		@ args = 0, pretend = 0, frame = 0
 702              		@ frame_needed = 0, uses_anonymous_args = 0
  15:/mnt/c/Users/31740/Desktop/newcore/arch/arm_m/include/asm/spinlock.h **** 
 703              		.loc 2 15 47 is_stmt 0 view .LVU193
 704 0000 38B5     		push	{r3, r4, r5, lr}
 705              	.LCFI13:
 706              		.cfi_def_cfa_offset 16
 707              		.cfi_offset 3, -16
 708              		.cfi_offset 4, -12
 709              		.cfi_offset 5, -8
 710              		.cfi_offset 14, -4
 711 0002 0446     		mov	r4, r0
  17:/mnt/c/Users/31740/Desktop/newcore/arch/arm_m/include/asm/spinlock.h ****     if(lock->flag == 0){
 712              		.loc 2 17 5 is_stmt 1 view .LVU194
 713 0004 FFF7FEFF 		bl	stop_all_scheduler
 714              	.LVL77:
  18:/mnt/c/Users/31740/Desktop/newcore/arch/arm_m/include/asm/spinlock.h ****           lock->flag = 1;  
 715              		.loc 2 18 5 view .LVU195
  18:/mnt/c/Users/31740/Desktop/newcore/arch/arm_m/include/asm/spinlock.h ****           lock->flag = 1;  
 716              		.loc 2 18 12 is_stmt 0 view .LVU196
 717 0008 2368     		ldr	r3, [r4]
  18:/mnt/c/Users/31740/Desktop/newcore/arch/arm_m/include/asm/spinlock.h ****           lock->flag = 1;  
 718              		.loc 2 18 7 view .LVU197
 719 000a 2BB9     		cbnz	r3, .L58
  19:/mnt/c/Users/31740/Desktop/newcore/arch/arm_m/include/asm/spinlock.h ****           start_all_scheduler();
 720              		.loc 2 19 11 is_stmt 1 view .LVU198
  19:/mnt/c/Users/31740/Desktop/newcore/arch/arm_m/include/asm/spinlock.h ****           start_all_scheduler();
ARM GAS  /tmp/cccpLwD1.s 			page 25


 721              		.loc 2 19 22 is_stmt 0 view .LVU199
 722 000c 0125     		movs	r5, #1
 723 000e 2560     		str	r5, [r4]
  20:/mnt/c/Users/31740/Desktop/newcore/arch/arm_m/include/asm/spinlock.h ****         return 1;
 724              		.loc 2 20 11 is_stmt 1 view .LVU200
 725 0010 FFF7FEFF 		bl	start_all_scheduler
 726              	.LVL78:
  21:/mnt/c/Users/31740/Desktop/newcore/arch/arm_m/include/asm/spinlock.h ****     }
 727              		.loc 2 21 9 view .LVU201
  21:/mnt/c/Users/31740/Desktop/newcore/arch/arm_m/include/asm/spinlock.h ****     }
 728              		.loc 2 21 16 is_stmt 0 view .LVU202
 729 0014 2846     		mov	r0, r5
 730              	.L57:
  28:/mnt/c/Users/31740/Desktop/newcore/arch/arm_m/include/asm/spinlock.h **** 
 731              		.loc 2 28 1 view .LVU203
 732 0016 38BD     		pop	{r3, r4, r5, pc}
 733              	.LVL79:
 734              	.L58:
  25:/mnt/c/Users/31740/Desktop/newcore/arch/arm_m/include/asm/spinlock.h ****         return 0;
 735              		.loc 2 25 9 is_stmt 1 view .LVU204
 736 0018 FFF7FEFF 		bl	start_all_scheduler
 737              	.LVL80:
  26:/mnt/c/Users/31740/Desktop/newcore/arch/arm_m/include/asm/spinlock.h ****     }
 738              		.loc 2 26 9 view .LVU205
  26:/mnt/c/Users/31740/Desktop/newcore/arch/arm_m/include/asm/spinlock.h ****     }
 739              		.loc 2 26 16 is_stmt 0 view .LVU206
 740 001c 0020     		movs	r0, #0
 741 001e FAE7     		b	.L57
 742              		.cfi_endproc
 743              	.LFE227:
 745              		.section	.text.spin_lock,"ax",%progbits
 746              		.align	1
 747              		.syntax unified
 748              		.thumb
 749              		.thumb_func
 751              	spin_lock:
 752              	.LVL81:
 753              	.LFB230:
  15:/mnt/c/Users/31740/Desktop/newcore/include/linux/spinlock.h ****     while (1)
 754              		.loc 3 15 1 is_stmt 1 view -0
 755              		.cfi_startproc
 756              		@ args = 0, pretend = 0, frame = 0
 757              		@ frame_needed = 0, uses_anonymous_args = 0
  15:/mnt/c/Users/31740/Desktop/newcore/include/linux/spinlock.h ****     while (1)
 758              		.loc 3 15 1 is_stmt 0 view .LVU208
 759 0000 38B5     		push	{r3, r4, r5, lr}
 760              	.LCFI14:
 761              		.cfi_def_cfa_offset 16
 762              		.cfi_offset 3, -16
 763              		.cfi_offset 4, -12
 764              		.cfi_offset 5, -8
 765              		.cfi_offset 14, -4
 766 0002 0446     		mov	r4, r0
 767 0004 06E0     		b	.L64
 768              	.LVL82:
 769              	.L66:
  19:/mnt/c/Users/31740/Desktop/newcore/include/linux/spinlock.h ****             break;
ARM GAS  /tmp/cccpLwD1.s 			page 26


 770              		.loc 3 19 13 is_stmt 1 view .LVU209
  19:/mnt/c/Users/31740/Desktop/newcore/include/linux/spinlock.h ****             break;
 771              		.loc 3 19 27 is_stmt 0 view .LVU210
 772 0006 FFF7FEFF 		bl	get_current_task
 773              	.LVL83:
  19:/mnt/c/Users/31740/Desktop/newcore/include/linux/spinlock.h ****             break;
 774              		.loc 3 19 25 discriminator 1 view .LVU211
 775 000a 2060     		str	r0, [r4]
  20:/mnt/c/Users/31740/Desktop/newcore/include/linux/spinlock.h ****         }
 776              		.loc 3 20 13 is_stmt 1 view .LVU212
 777              	.L61:
  29:/mnt/c/Users/31740/Desktop/newcore/include/linux/spinlock.h **** 
 778              		.loc 3 29 1 is_stmt 0 view .LVU213
 779 000c 38BD     		pop	{r3, r4, r5, pc}
 780              	.LVL84:
 781              	.L67:
  26:/mnt/c/Users/31740/Desktop/newcore/include/linux/spinlock.h ****         }
 782              		.loc 3 26 13 is_stmt 1 view .LVU214
 783 000e 0520     		movs	r0, #5
 784 0010 FFF7FEFF 		bl	__delay
 785              	.LVL85:
  16:/mnt/c/Users/31740/Desktop/newcore/include/linux/spinlock.h ****     {
 786              		.loc 3 16 11 view .LVU215
 787              	.L64:
  16:/mnt/c/Users/31740/Desktop/newcore/include/linux/spinlock.h ****     {
 788              		.loc 3 16 5 view .LVU216
  18:/mnt/c/Users/31740/Desktop/newcore/include/linux/spinlock.h ****             lock->owner = get_current_task();
 789              		.loc 3 18 9 view .LVU217
  18:/mnt/c/Users/31740/Desktop/newcore/include/linux/spinlock.h ****             lock->owner = get_current_task();
 790              		.loc 3 18 12 is_stmt 0 view .LVU218
 791 0014 2046     		mov	r0, r4
 792 0016 FFF7FEFF 		bl	__spin_lock
 793              	.LVL86:
  18:/mnt/c/Users/31740/Desktop/newcore/include/linux/spinlock.h ****             lock->owner = get_current_task();
 794              		.loc 3 18 11 discriminator 1 view .LVU219
 795 001a 0128     		cmp	r0, #1
 796 001c F3D0     		beq	.L66
  22:/mnt/c/Users/31740/Desktop/newcore/include/linux/spinlock.h ****             return;   
 797              		.loc 3 22 15 is_stmt 1 view .LVU220
  22:/mnt/c/Users/31740/Desktop/newcore/include/linux/spinlock.h ****             return;   
 798              		.loc 3 22 22 is_stmt 0 view .LVU221
 799 001e 2568     		ldr	r5, [r4]
  22:/mnt/c/Users/31740/Desktop/newcore/include/linux/spinlock.h ****             return;   
 800              		.loc 3 22 33 view .LVU222
 801 0020 FFF7FEFF 		bl	get_current_task
 802              	.LVL87:
  22:/mnt/c/Users/31740/Desktop/newcore/include/linux/spinlock.h ****             return;   
 803              		.loc 3 22 17 discriminator 1 view .LVU223
 804 0024 8542     		cmp	r5, r0
 805 0026 F2D1     		bne	.L67
 806 0028 F0E7     		b	.L61
 807              		.cfi_endproc
 808              	.LFE230:
 810              		.section	.text.kernel_read,"ax",%progbits
 811              		.align	1
 812              		.global	kernel_read
 813              		.syntax unified
ARM GAS  /tmp/cccpLwD1.s 			page 27


 814              		.thumb
 815              		.thumb_func
 817              	kernel_read:
 818              	.LVL88:
 819              	.LFB1049:
 342:/mnt/c/Users/31740/Desktop/newcore/fs/vfs.c **** ssize_t kernel_read(struct file *file, void * buf, size_t count, loff_t *ppos)
 343:/mnt/c/Users/31740/Desktop/newcore/fs/vfs.c **** {
 820              		.loc 1 343 1 is_stmt 1 view -0
 821              		.cfi_startproc
 822              		@ args = 0, pretend = 0, frame = 0
 823              		@ frame_needed = 0, uses_anonymous_args = 0
 824              		.loc 1 343 1 is_stmt 0 view .LVU225
 825 0000 2DE9F843 		push	{r3, r4, r5, r6, r7, r8, r9, lr}
 826              	.LCFI15:
 827              		.cfi_def_cfa_offset 32
 828              		.cfi_offset 3, -32
 829              		.cfi_offset 4, -28
 830              		.cfi_offset 5, -24
 831              		.cfi_offset 6, -20
 832              		.cfi_offset 7, -16
 833              		.cfi_offset 8, -12
 834              		.cfi_offset 9, -8
 835              		.cfi_offset 14, -4
 344:/mnt/c/Users/31740/Desktop/newcore/fs/vfs.c ****     if(file == NULL) return -1;
 836              		.loc 1 344 5 is_stmt 1 view .LVU226
 837              		.loc 1 344 7 is_stmt 0 view .LVU227
 838 0004 50B3     		cbz	r0, .L72
 839 0006 8846     		mov	r8, r1
 840 0008 1746     		mov	r7, r2
 841 000a 1D46     		mov	r5, r3
 842 000c 0446     		mov	r4, r0
 345:/mnt/c/Users/31740/Desktop/newcore/fs/vfs.c ****     ssize_t size =  -EBADF;
 843              		.loc 1 345 5 is_stmt 1 view .LVU228
 844              	.LVL89:
 346:/mnt/c/Users/31740/Desktop/newcore/fs/vfs.c ****     spin_lock(&file->f_slock);
 845              		.loc 1 346 5 view .LVU229
 846 000e 00F15C06 		add	r6, r0, #92
 847 0012 3046     		mov	r0, r6
 848              	.LVL90:
 849              		.loc 1 346 5 is_stmt 0 view .LVU230
 850 0014 FFF7FEFF 		bl	spin_lock
 851              	.LVL91:
 347:/mnt/c/Users/31740/Desktop/newcore/fs/vfs.c ****     if(file->f_op != NULL){
 852              		.loc 1 347 5 is_stmt 1 view .LVU231
 853              		.loc 1 347 12 is_stmt 0 view .LVU232
 854 0018 636A     		ldr	r3, [r4, #36]
 855              		.loc 1 347 7 view .LVU233
 856 001a E3B1     		cbz	r3, .L73
 348:/mnt/c/Users/31740/Desktop/newcore/fs/vfs.c ****         spin_lock(&file->f_inode->i_lock);
 857              		.loc 1 348 9 is_stmt 1 view .LVU234
 858              		.loc 1 348 24 is_stmt 0 view .LVU235
 859 001c E06A     		ldr	r0, [r4, #44]
 860              		.loc 1 348 9 view .LVU236
 861 001e 5830     		adds	r0, r0, #88
 862 0020 FFF7FEFF 		bl	spin_lock
 863              	.LVL92:
 349:/mnt/c/Users/31740/Desktop/newcore/fs/vfs.c ****         if(file->f_op->read != NULL)
ARM GAS  /tmp/cccpLwD1.s 			page 28


 864              		.loc 1 349 9 is_stmt 1 view .LVU237
 865              		.loc 1 349 16 is_stmt 0 view .LVU238
 866 0024 636A     		ldr	r3, [r4, #36]
 867              		.loc 1 349 22 view .LVU239
 868 0026 D3F80C90 		ldr	r9, [r3, #12]
 869              		.loc 1 349 11 view .LVU240
 870 002a B9F1000F 		cmp	r9, #0
 871 002e 0FD0     		beq	.L74
 350:/mnt/c/Users/31740/Desktop/newcore/fs/vfs.c ****         size = file->f_op->read(file,buf,count,ppos);
 872              		.loc 1 350 9 is_stmt 1 view .LVU241
 873              		.loc 1 350 16 is_stmt 0 view .LVU242
 874 0030 2B46     		mov	r3, r5
 875 0032 3A46     		mov	r2, r7
 876 0034 4146     		mov	r1, r8
 877 0036 2046     		mov	r0, r4
 878 0038 C847     		blx	r9
 879              	.LVL93:
 880 003a 0546     		mov	r5, r0
 881              	.LVL94:
 882              	.L71:
 351:/mnt/c/Users/31740/Desktop/newcore/fs/vfs.c ****         spin_unlock(&file->f_inode->i_lock);
 883              		.loc 1 351 9 is_stmt 1 view .LVU243
 884              		.loc 1 351 26 is_stmt 0 view .LVU244
 885 003c E06A     		ldr	r0, [r4, #44]
 886              		.loc 1 351 9 view .LVU245
 887 003e 5830     		adds	r0, r0, #88
 888 0040 FFF7FEFF 		bl	spin_unlock
 889              	.LVL95:
 890              	.L70:
 352:/mnt/c/Users/31740/Desktop/newcore/fs/vfs.c ****     }
 353:/mnt/c/Users/31740/Desktop/newcore/fs/vfs.c ****     spin_unlock(&file->f_slock);
 891              		.loc 1 353 5 is_stmt 1 view .LVU246
 892 0044 3046     		mov	r0, r6
 893 0046 FFF7FEFF 		bl	spin_unlock
 894              	.LVL96:
 354:/mnt/c/Users/31740/Desktop/newcore/fs/vfs.c ****     return size;
 895              		.loc 1 354 5 view .LVU247
 896              	.L68:
 355:/mnt/c/Users/31740/Desktop/newcore/fs/vfs.c **** }
 897              		.loc 1 355 1 is_stmt 0 view .LVU248
 898 004a 2846     		mov	r0, r5
 899 004c BDE8F883 		pop	{r3, r4, r5, r6, r7, r8, r9, pc}
 900              	.LVL97:
 901              	.L74:
 345:/mnt/c/Users/31740/Desktop/newcore/fs/vfs.c ****     spin_lock(&file->f_slock);
 902              		.loc 1 345 13 view .LVU249
 903 0050 6FF00805 		mvn	r5, #8
 904              	.LVL98:
 345:/mnt/c/Users/31740/Desktop/newcore/fs/vfs.c ****     spin_lock(&file->f_slock);
 905              		.loc 1 345 13 view .LVU250
 906 0054 F2E7     		b	.L71
 907              	.LVL99:
 908              	.L73:
 345:/mnt/c/Users/31740/Desktop/newcore/fs/vfs.c ****     spin_lock(&file->f_slock);
 909              		.loc 1 345 13 view .LVU251
 910 0056 6FF00805 		mvn	r5, #8
 911              	.LVL100:
ARM GAS  /tmp/cccpLwD1.s 			page 29


 345:/mnt/c/Users/31740/Desktop/newcore/fs/vfs.c ****     spin_lock(&file->f_slock);
 912              		.loc 1 345 13 view .LVU252
 913 005a F3E7     		b	.L70
 914              	.LVL101:
 915              	.L72:
 344:/mnt/c/Users/31740/Desktop/newcore/fs/vfs.c ****     ssize_t size =  -EBADF;
 916              		.loc 1 344 29 discriminator 1 view .LVU253
 917 005c 4FF0FF35 		mov	r5, #-1
 918 0060 F3E7     		b	.L68
 919              		.cfi_endproc
 920              	.LFE1049:
 922              		.section	.text.kernel_write,"ax",%progbits
 923              		.align	1
 924              		.global	kernel_write
 925              		.syntax unified
 926              		.thumb
 927              		.thumb_func
 929              	kernel_write:
 930              	.LVL102:
 931              	.LFB1050:
 356:/mnt/c/Users/31740/Desktop/newcore/fs/vfs.c **** EXPORT_SYMBOL(kernel_read);
 357:/mnt/c/Users/31740/Desktop/newcore/fs/vfs.c **** 
 358:/mnt/c/Users/31740/Desktop/newcore/fs/vfs.c **** ssize_t kernel_write(struct file *file,const void * buf, size_t count, loff_t *ppos)
 359:/mnt/c/Users/31740/Desktop/newcore/fs/vfs.c **** {   
 932              		.loc 1 359 1 is_stmt 1 view -0
 933              		.cfi_startproc
 934              		@ args = 0, pretend = 0, frame = 0
 935              		@ frame_needed = 0, uses_anonymous_args = 0
 936              		.loc 1 359 1 is_stmt 0 view .LVU255
 937 0000 2DE9F843 		push	{r3, r4, r5, r6, r7, r8, r9, lr}
 938              	.LCFI16:
 939              		.cfi_def_cfa_offset 32
 940              		.cfi_offset 3, -32
 941              		.cfi_offset 4, -28
 942              		.cfi_offset 5, -24
 943              		.cfi_offset 6, -20
 944              		.cfi_offset 7, -16
 945              		.cfi_offset 8, -12
 946              		.cfi_offset 9, -8
 947              		.cfi_offset 14, -4
 360:/mnt/c/Users/31740/Desktop/newcore/fs/vfs.c ****     ssize_t size = -EBADF;
 948              		.loc 1 360 5 is_stmt 1 view .LVU256
 949              	.LVL103:
 361:/mnt/c/Users/31740/Desktop/newcore/fs/vfs.c ****     if(file == NULL) return -1;
 950              		.loc 1 361 5 view .LVU257
 951              		.loc 1 361 7 is_stmt 0 view .LVU258
 952 0004 0028     		cmp	r0, #0
 953 0006 3ED0     		beq	.L80
 954 0008 8846     		mov	r8, r1
 955 000a 1746     		mov	r7, r2
 956 000c 1D46     		mov	r5, r3
 957 000e 0446     		mov	r4, r0
 362:/mnt/c/Users/31740/Desktop/newcore/fs/vfs.c ****     if ((file->f_flags & O_ACCMODE) == O_RDONLY) {
 958              		.loc 1 362 5 is_stmt 1 view .LVU259
 959              		.loc 1 362 14 is_stmt 0 view .LVU260
 960 0010 036B     		ldr	r3, [r0, #48]
 961              	.LVL104:
ARM GAS  /tmp/cccpLwD1.s 			page 30


 962              		.loc 1 362 8 view .LVU261
 963 0012 13F0030F 		tst	r3, #3
 964 0016 2ED0     		beq	.L83
 363:/mnt/c/Users/31740/Desktop/newcore/fs/vfs.c ****         print_read_only_message();
 364:/mnt/c/Users/31740/Desktop/newcore/fs/vfs.c ****         return -EBADF;  
 365:/mnt/c/Users/31740/Desktop/newcore/fs/vfs.c ****     }
 366:/mnt/c/Users/31740/Desktop/newcore/fs/vfs.c ****     spin_lock(&file->f_slock);
 965              		.loc 1 366 5 is_stmt 1 view .LVU262
 966 0018 00F15C06 		add	r6, r0, #92
 967 001c 3046     		mov	r0, r6
 968              	.LVL105:
 969              		.loc 1 366 5 is_stmt 0 view .LVU263
 970 001e FFF7FEFF 		bl	spin_lock
 971              	.LVL106:
 367:/mnt/c/Users/31740/Desktop/newcore/fs/vfs.c ****     if(file->f_op != NULL){
 972              		.loc 1 367 5 is_stmt 1 view .LVU264
 973              		.loc 1 367 12 is_stmt 0 view .LVU265
 974 0022 636A     		ldr	r3, [r4, #36]
 975              		.loc 1 367 7 view .LVU266
 976 0024 63B3     		cbz	r3, .L81
 368:/mnt/c/Users/31740/Desktop/newcore/fs/vfs.c ****         spin_lock(&file->f_inode->i_lock);
 977              		.loc 1 368 9 is_stmt 1 view .LVU267
 978              		.loc 1 368 24 is_stmt 0 view .LVU268
 979 0026 E06A     		ldr	r0, [r4, #44]
 980              		.loc 1 368 9 view .LVU269
 981 0028 5830     		adds	r0, r0, #88
 982 002a FFF7FEFF 		bl	spin_lock
 983              	.LVL107:
 369:/mnt/c/Users/31740/Desktop/newcore/fs/vfs.c ****         size = file->f_op->write(file,buf,count,ppos);   
 984              		.loc 1 369 9 is_stmt 1 view .LVU270
 985              		.loc 1 369 20 is_stmt 0 view .LVU271
 986 002e 636A     		ldr	r3, [r4, #36]
 987              		.loc 1 369 26 view .LVU272
 988 0030 D3F81090 		ldr	r9, [r3, #16]
 989              		.loc 1 369 16 view .LVU273
 990 0034 2B46     		mov	r3, r5
 991 0036 3A46     		mov	r2, r7
 992 0038 4146     		mov	r1, r8
 993 003a 2046     		mov	r0, r4
 994 003c C847     		blx	r9
 995              	.LVL108:
 996 003e 0546     		mov	r5, r0
 997              	.LVL109:
 370:/mnt/c/Users/31740/Desktop/newcore/fs/vfs.c ****         file->f_inode->i_mtime_sec   = jiffies/HZ;
 998              		.loc 1 370 9 is_stmt 1 view .LVU274
 999              		.loc 1 370 40 is_stmt 0 view .LVU275
 1000 0040 FFF7FEFF 		bl	ktime_get
 1001              	.LVL110:
 1002              		.loc 1 370 13 discriminator 1 view .LVU276
 1003 0044 E26A     		ldr	r2, [r4, #44]
 1004              		.loc 1 370 47 discriminator 1 view .LVU277
 1005 0046 114F     		ldr	r7, .L84
 1006              	.LVL111:
 1007              		.loc 1 370 47 discriminator 1 view .LVU278
 1008 0048 3B68     		ldr	r3, [r7]
 1009 004a B0FBF3F3 		udiv	r3, r0, r3
 1010              		.loc 1 370 38 discriminator 1 view .LVU279
ARM GAS  /tmp/cccpLwD1.s 			page 31


 1011 004e D362     		str	r3, [r2, #44]
 371:/mnt/c/Users/31740/Desktop/newcore/fs/vfs.c ****         file->f_inode->i_mtime_nsec  = jiffies%HZ; 
 1012              		.loc 1 371 9 is_stmt 1 view .LVU280
 1013              		.loc 1 371 40 is_stmt 0 view .LVU281
 1014 0050 FFF7FEFF 		bl	ktime_get
 1015              	.LVL112:
 1016              		.loc 1 371 13 discriminator 1 view .LVU282
 1017 0054 E26A     		ldr	r2, [r4, #44]
 1018              		.loc 1 371 47 discriminator 1 view .LVU283
 1019 0056 3B68     		ldr	r3, [r7]
 1020 0058 B0FBF3F1 		udiv	r1, r0, r3
 1021 005c 03FB1103 		mls	r3, r3, r1, r0
 1022              		.loc 1 371 38 discriminator 1 view .LVU284
 1023 0060 9363     		str	r3, [r2, #56]
 372:/mnt/c/Users/31740/Desktop/newcore/fs/vfs.c ****         spin_unlock(&file->f_inode->i_lock);
 1024              		.loc 1 372 9 is_stmt 1 view .LVU285
 1025              		.loc 1 372 26 is_stmt 0 view .LVU286
 1026 0062 E06A     		ldr	r0, [r4, #44]
 1027              		.loc 1 372 9 view .LVU287
 1028 0064 5830     		adds	r0, r0, #88
 1029 0066 FFF7FEFF 		bl	spin_unlock
 1030              	.LVL113:
 1031              	.L79:
 373:/mnt/c/Users/31740/Desktop/newcore/fs/vfs.c ****     }
 374:/mnt/c/Users/31740/Desktop/newcore/fs/vfs.c ****     spin_unlock(&file->f_slock);
 1032              		.loc 1 374 5 is_stmt 1 view .LVU288
 1033 006a 3046     		mov	r0, r6
 1034 006c FFF7FEFF 		bl	spin_unlock
 1035              	.LVL114:
 375:/mnt/c/Users/31740/Desktop/newcore/fs/vfs.c ****     return size;
 1036              		.loc 1 375 5 view .LVU289
 1037              	.L76:
 376:/mnt/c/Users/31740/Desktop/newcore/fs/vfs.c **** }
 1038              		.loc 1 376 1 is_stmt 0 view .LVU290
 1039 0070 2846     		mov	r0, r5
 1040 0072 BDE8F883 		pop	{r3, r4, r5, r6, r7, r8, r9, pc}
 1041              	.LVL115:
 1042              	.L83:
 363:/mnt/c/Users/31740/Desktop/newcore/fs/vfs.c ****         return -EBADF;  
 1043              		.loc 1 363 9 is_stmt 1 view .LVU291
 1044 0076 FFF7FEFF 		bl	print_read_only_message
 1045              	.LVL116:
 364:/mnt/c/Users/31740/Desktop/newcore/fs/vfs.c ****     }
 1046              		.loc 1 364 9 view .LVU292
 364:/mnt/c/Users/31740/Desktop/newcore/fs/vfs.c ****     }
 1047              		.loc 1 364 16 is_stmt 0 view .LVU293
 1048 007a 6FF00805 		mvn	r5, #8
 1049              	.LVL117:
 364:/mnt/c/Users/31740/Desktop/newcore/fs/vfs.c ****     }
 1050              		.loc 1 364 16 view .LVU294
 1051 007e F7E7     		b	.L76
 1052              	.LVL118:
 1053              	.L81:
 360:/mnt/c/Users/31740/Desktop/newcore/fs/vfs.c ****     if(file == NULL) return -1;
 1054              		.loc 1 360 13 view .LVU295
 1055 0080 6FF00805 		mvn	r5, #8
 1056              	.LVL119:
ARM GAS  /tmp/cccpLwD1.s 			page 32


 360:/mnt/c/Users/31740/Desktop/newcore/fs/vfs.c ****     if(file == NULL) return -1;
 1057              		.loc 1 360 13 view .LVU296
 1058 0084 F1E7     		b	.L79
 1059              	.LVL120:
 1060              	.L80:
 361:/mnt/c/Users/31740/Desktop/newcore/fs/vfs.c ****     if ((file->f_flags & O_ACCMODE) == O_RDONLY) {
 1061              		.loc 1 361 29 discriminator 1 view .LVU297
 1062 0086 4FF0FF35 		mov	r5, #-1
 1063 008a F1E7     		b	.L76
 1064              	.L85:
 1065              		.align	2
 1066              	.L84:
 1067 008c 00000000 		.word	HZ
 1068              		.cfi_endproc
 1069              	.LFE1050:
 1071              		.section	.text.vfs_ioctl,"ax",%progbits
 1072              		.align	1
 1073              		.global	vfs_ioctl
 1074              		.syntax unified
 1075              		.thumb
 1076              		.thumb_func
 1078              	vfs_ioctl:
 1079              	.LVL121:
 1080              	.LFB1051:
 377:/mnt/c/Users/31740/Desktop/newcore/fs/vfs.c **** EXPORT_SYMBOL(kernel_write);
 378:/mnt/c/Users/31740/Desktop/newcore/fs/vfs.c **** 
 379:/mnt/c/Users/31740/Desktop/newcore/fs/vfs.c **** 
 380:/mnt/c/Users/31740/Desktop/newcore/fs/vfs.c **** long vfs_ioctl(struct file *file, unsigned int cmd, unsigned long arg)
 381:/mnt/c/Users/31740/Desktop/newcore/fs/vfs.c **** {
 1081              		.loc 1 381 1 is_stmt 1 view -0
 1082              		.cfi_startproc
 1083              		@ args = 0, pretend = 0, frame = 0
 1084              		@ frame_needed = 0, uses_anonymous_args = 0
 1085              		.loc 1 381 1 is_stmt 0 view .LVU299
 1086 0000 F8B5     		push	{r3, r4, r5, r6, r7, lr}
 1087              	.LCFI17:
 1088              		.cfi_def_cfa_offset 24
 1089              		.cfi_offset 3, -24
 1090              		.cfi_offset 4, -20
 1091              		.cfi_offset 5, -16
 1092              		.cfi_offset 6, -12
 1093              		.cfi_offset 7, -8
 1094              		.cfi_offset 14, -4
 382:/mnt/c/Users/31740/Desktop/newcore/fs/vfs.c ****     ssize_t size =  -EBADF;
 1095              		.loc 1 382 5 is_stmt 1 view .LVU300
 1096              	.LVL122:
 383:/mnt/c/Users/31740/Desktop/newcore/fs/vfs.c ****     if(file == NULL) return -1;
 1097              		.loc 1 383 5 view .LVU301
 1098              		.loc 1 383 7 is_stmt 0 view .LVU302
 1099 0002 68B3     		cbz	r0, .L91
 1100 0004 0F46     		mov	r7, r1
 1101 0006 1546     		mov	r5, r2
 1102 0008 0446     		mov	r4, r0
 384:/mnt/c/Users/31740/Desktop/newcore/fs/vfs.c ****     if ((file->f_flags & O_ACCMODE) == O_RDONLY) {
 1103              		.loc 1 384 5 is_stmt 1 view .LVU303
 1104              		.loc 1 384 14 is_stmt 0 view .LVU304
 1105 000a 036B     		ldr	r3, [r0, #48]
ARM GAS  /tmp/cccpLwD1.s 			page 33


 1106              		.loc 1 384 8 view .LVU305
 1107 000c 13F0030F 		tst	r3, #3
 1108 0010 1BD0     		beq	.L95
 385:/mnt/c/Users/31740/Desktop/newcore/fs/vfs.c ****         print_read_only_message();
 386:/mnt/c/Users/31740/Desktop/newcore/fs/vfs.c ****         return -EBADF;  // Âè™ËØªÊâìÂºÄÔºå‰∏çÂÖÅËÆ∏ÂÜô
 387:/mnt/c/Users/31740/Desktop/newcore/fs/vfs.c ****     }
 388:/mnt/c/Users/31740/Desktop/newcore/fs/vfs.c ****     spin_lock(&file->f_slock);
 1109              		.loc 1 388 5 is_stmt 1 view .LVU306
 1110 0012 00F15C06 		add	r6, r0, #92
 1111 0016 3046     		mov	r0, r6
 1112              	.LVL123:
 1113              		.loc 1 388 5 is_stmt 0 view .LVU307
 1114 0018 FFF7FEFF 		bl	spin_lock
 1115              	.LVL124:
 389:/mnt/c/Users/31740/Desktop/newcore/fs/vfs.c ****     if(file->f_op != NULL){
 1116              		.loc 1 389 5 is_stmt 1 view .LVU308
 1117              		.loc 1 389 12 is_stmt 0 view .LVU309
 1118 001c 636A     		ldr	r3, [r4, #36]
 1119              		.loc 1 389 7 view .LVU310
 1120 001e E3B1     		cbz	r3, .L92
 390:/mnt/c/Users/31740/Desktop/newcore/fs/vfs.c ****         spin_lock(&file->f_inode->i_lock);
 1121              		.loc 1 390 9 is_stmt 1 view .LVU311
 1122              		.loc 1 390 24 is_stmt 0 view .LVU312
 1123 0020 E06A     		ldr	r0, [r4, #44]
 1124              		.loc 1 390 9 view .LVU313
 1125 0022 5830     		adds	r0, r0, #88
 1126 0024 FFF7FEFF 		bl	spin_lock
 1127              	.LVL125:
 391:/mnt/c/Users/31740/Desktop/newcore/fs/vfs.c ****         if(file->f_op->unlocked_ioctl != NULL)
 1128              		.loc 1 391 9 is_stmt 1 view .LVU314
 1129              		.loc 1 391 16 is_stmt 0 view .LVU315
 1130 0028 636A     		ldr	r3, [r4, #36]
 1131              		.loc 1 391 22 view .LVU316
 1132 002a 9B6A     		ldr	r3, [r3, #40]
 1133              		.loc 1 391 11 view .LVU317
 1134 002c 93B1     		cbz	r3, .L93
 392:/mnt/c/Users/31740/Desktop/newcore/fs/vfs.c ****         size = file->f_op->unlocked_ioctl(file,cmd,arg);
 1135              		.loc 1 392 9 is_stmt 1 view .LVU318
 1136              		.loc 1 392 16 is_stmt 0 view .LVU319
 1137 002e 2A46     		mov	r2, r5
 1138 0030 3946     		mov	r1, r7
 1139 0032 2046     		mov	r0, r4
 1140 0034 9847     		blx	r3
 1141              	.LVL126:
 1142 0036 0546     		mov	r5, r0
 1143              	.LVL127:
 1144              	.L90:
 393:/mnt/c/Users/31740/Desktop/newcore/fs/vfs.c ****         spin_unlock(&file->f_inode->i_lock); 
 1145              		.loc 1 393 9 is_stmt 1 view .LVU320
 1146              		.loc 1 393 26 is_stmt 0 view .LVU321
 1147 0038 E06A     		ldr	r0, [r4, #44]
 1148              		.loc 1 393 9 view .LVU322
 1149 003a 5830     		adds	r0, r0, #88
 1150 003c FFF7FEFF 		bl	spin_unlock
 1151              	.LVL128:
 1152              	.L89:
 394:/mnt/c/Users/31740/Desktop/newcore/fs/vfs.c ****     }
ARM GAS  /tmp/cccpLwD1.s 			page 34


 395:/mnt/c/Users/31740/Desktop/newcore/fs/vfs.c ****     spin_unlock(&file->f_slock);
 1153              		.loc 1 395 5 is_stmt 1 view .LVU323
 1154 0040 3046     		mov	r0, r6
 1155 0042 FFF7FEFF 		bl	spin_unlock
 1156              	.LVL129:
 396:/mnt/c/Users/31740/Desktop/newcore/fs/vfs.c ****     return size;
 1157              		.loc 1 396 5 view .LVU324
 1158              	.L86:
 397:/mnt/c/Users/31740/Desktop/newcore/fs/vfs.c **** }
 1159              		.loc 1 397 1 is_stmt 0 view .LVU325
 1160 0046 2846     		mov	r0, r5
 1161 0048 F8BD     		pop	{r3, r4, r5, r6, r7, pc}
 1162              	.LVL130:
 1163              	.L95:
 385:/mnt/c/Users/31740/Desktop/newcore/fs/vfs.c ****         return -EBADF;  // Âè™ËØªÊâìÂºÄÔºå‰∏çÂÖÅËÆ∏ÂÜô
 1164              		.loc 1 385 9 is_stmt 1 view .LVU326
 1165 004a FFF7FEFF 		bl	print_read_only_message
 1166              	.LVL131:
 386:/mnt/c/Users/31740/Desktop/newcore/fs/vfs.c ****     }
 1167              		.loc 1 386 9 view .LVU327
 386:/mnt/c/Users/31740/Desktop/newcore/fs/vfs.c ****     }
 1168              		.loc 1 386 16 is_stmt 0 view .LVU328
 1169 004e 6FF00805 		mvn	r5, #8
 1170              	.LVL132:
 386:/mnt/c/Users/31740/Desktop/newcore/fs/vfs.c ****     }
 1171              		.loc 1 386 16 view .LVU329
 1172 0052 F8E7     		b	.L86
 1173              	.LVL133:
 1174              	.L93:
 382:/mnt/c/Users/31740/Desktop/newcore/fs/vfs.c ****     if(file == NULL) return -1;
 1175              		.loc 1 382 13 view .LVU330
 1176 0054 6FF00805 		mvn	r5, #8
 1177              	.LVL134:
 382:/mnt/c/Users/31740/Desktop/newcore/fs/vfs.c ****     if(file == NULL) return -1;
 1178              		.loc 1 382 13 view .LVU331
 1179 0058 EEE7     		b	.L90
 1180              	.LVL135:
 1181              	.L92:
 382:/mnt/c/Users/31740/Desktop/newcore/fs/vfs.c ****     if(file == NULL) return -1;
 1182              		.loc 1 382 13 view .LVU332
 1183 005a 6FF00805 		mvn	r5, #8
 1184              	.LVL136:
 382:/mnt/c/Users/31740/Desktop/newcore/fs/vfs.c ****     if(file == NULL) return -1;
 1185              		.loc 1 382 13 view .LVU333
 1186 005e EFE7     		b	.L89
 1187              	.LVL137:
 1188              	.L91:
 383:/mnt/c/Users/31740/Desktop/newcore/fs/vfs.c ****     if ((file->f_flags & O_ACCMODE) == O_RDONLY) {
 1189              		.loc 1 383 29 discriminator 1 view .LVU334
 1190 0060 4FF0FF35 		mov	r5, #-1
 1191 0064 EFE7     		b	.L86
 1192              		.cfi_endproc
 1193              	.LFE1051:
 1195              		.section	.text.file_close,"ax",%progbits
 1196              		.align	1
 1197              		.global	file_close
 1198              		.syntax unified
ARM GAS  /tmp/cccpLwD1.s 			page 35


 1199              		.thumb
 1200              		.thumb_func
 1202              	file_close:
 1203              	.LVL138:
 1204              	.LFB1052:
 398:/mnt/c/Users/31740/Desktop/newcore/fs/vfs.c **** EXPORT_SYMBOL(vfs_ioctl);
 399:/mnt/c/Users/31740/Desktop/newcore/fs/vfs.c **** 
 400:/mnt/c/Users/31740/Desktop/newcore/fs/vfs.c **** int file_close(struct file *file, fl_owner_t id)
 401:/mnt/c/Users/31740/Desktop/newcore/fs/vfs.c **** {
 1205              		.loc 1 401 1 is_stmt 1 view -0
 1206              		.cfi_startproc
 1207              		@ args = 0, pretend = 0, frame = 0
 1208              		@ frame_needed = 0, uses_anonymous_args = 0
 402:/mnt/c/Users/31740/Desktop/newcore/fs/vfs.c ****     if(file == NULL) return -1;
 1209              		.loc 1 402 5 view .LVU336
 1210              		.loc 1 402 7 is_stmt 0 view .LVU337
 1211 0000 F0B1     		cbz	r0, .L100
 401:/mnt/c/Users/31740/Desktop/newcore/fs/vfs.c ****     if(file == NULL) return -1;
 1212              		.loc 1 401 1 view .LVU338
 1213 0002 38B5     		push	{r3, r4, r5, lr}
 1214              	.LCFI18:
 1215              		.cfi_def_cfa_offset 16
 1216              		.cfi_offset 3, -16
 1217              		.cfi_offset 4, -12
 1218              		.cfi_offset 5, -8
 1219              		.cfi_offset 14, -4
 1220 0004 0446     		mov	r4, r0
 403:/mnt/c/Users/31740/Desktop/newcore/fs/vfs.c ****     spin_lock(&file->f_slock);
 1221              		.loc 1 403 5 is_stmt 1 view .LVU339
 1222 0006 00F15C05 		add	r5, r0, #92
 1223 000a 2846     		mov	r0, r5
 1224              	.LVL139:
 1225              		.loc 1 403 5 is_stmt 0 view .LVU340
 1226 000c FFF7FEFF 		bl	spin_lock
 1227              	.LVL140:
 404:/mnt/c/Users/31740/Desktop/newcore/fs/vfs.c ****     if(file->f_op != NULL){
 1228              		.loc 1 404 5 is_stmt 1 view .LVU341
 1229              		.loc 1 404 12 is_stmt 0 view .LVU342
 1230 0010 636A     		ldr	r3, [r4, #36]
 1231              		.loc 1 404 7 view .LVU343
 1232 0012 6BB1     		cbz	r3, .L98
 405:/mnt/c/Users/31740/Desktop/newcore/fs/vfs.c ****         spin_lock(&file->f_inode->i_lock);
 1233              		.loc 1 405 9 is_stmt 1 view .LVU344
 1234              		.loc 1 405 24 is_stmt 0 view .LVU345
 1235 0014 E06A     		ldr	r0, [r4, #44]
 1236              		.loc 1 405 9 view .LVU346
 1237 0016 5830     		adds	r0, r0, #88
 1238 0018 FFF7FEFF 		bl	spin_lock
 1239              	.LVL141:
 406:/mnt/c/Users/31740/Desktop/newcore/fs/vfs.c ****         if(file->f_op->release != NULL)
 1240              		.loc 1 406 9 is_stmt 1 view .LVU347
 1241              		.loc 1 406 16 is_stmt 0 view .LVU348
 1242 001c 636A     		ldr	r3, [r4, #36]
 1243              		.loc 1 406 22 view .LVU349
 1244 001e DB6B     		ldr	r3, [r3, #60]
 1245              		.loc 1 406 11 view .LVU350
 1246 0020 13B1     		cbz	r3, .L99
ARM GAS  /tmp/cccpLwD1.s 			page 36


 407:/mnt/c/Users/31740/Desktop/newcore/fs/vfs.c ****          file->f_op->release(file->f_inode,file);
 1247              		.loc 1 407 10 is_stmt 1 view .LVU351
 1248 0022 2146     		mov	r1, r4
 1249 0024 E06A     		ldr	r0, [r4, #44]
 1250 0026 9847     		blx	r3
 1251              	.LVL142:
 1252              	.L99:
 408:/mnt/c/Users/31740/Desktop/newcore/fs/vfs.c ****         spin_unlock(&file->f_inode->i_lock);
 1253              		.loc 1 408 9 view .LVU352
 1254              		.loc 1 408 26 is_stmt 0 view .LVU353
 1255 0028 E06A     		ldr	r0, [r4, #44]
 1256              		.loc 1 408 9 view .LVU354
 1257 002a 5830     		adds	r0, r0, #88
 1258 002c FFF7FEFF 		bl	spin_unlock
 1259              	.LVL143:
 1260              	.L98:
 409:/mnt/c/Users/31740/Desktop/newcore/fs/vfs.c ****     }
 410:/mnt/c/Users/31740/Desktop/newcore/fs/vfs.c ****     spin_unlock(&file->f_slock);
 1261              		.loc 1 410 5 is_stmt 1 view .LVU355
 1262 0030 2846     		mov	r0, r5
 1263 0032 FFF7FEFF 		bl	spin_unlock
 1264              	.LVL144:
 411:/mnt/c/Users/31740/Desktop/newcore/fs/vfs.c ****     f_put(file);
 1265              		.loc 1 411 5 view .LVU356
 1266 0036 2046     		mov	r0, r4
 1267 0038 FFF7FEFF 		bl	f_put
 1268              	.LVL145:
 412:/mnt/c/Users/31740/Desktop/newcore/fs/vfs.c ****     return 0;
 1269              		.loc 1 412 5 view .LVU357
 1270              		.loc 1 412 12 is_stmt 0 view .LVU358
 1271 003c 0020     		movs	r0, #0
 413:/mnt/c/Users/31740/Desktop/newcore/fs/vfs.c **** }
 1272              		.loc 1 413 1 view .LVU359
 1273 003e 38BD     		pop	{r3, r4, r5, pc}
 1274              	.LVL146:
 1275              	.L100:
 1276              	.LCFI19:
 1277              		.cfi_def_cfa_offset 0
 1278              		.cfi_restore 3
 1279              		.cfi_restore 4
 1280              		.cfi_restore 5
 1281              		.cfi_restore 14
 402:/mnt/c/Users/31740/Desktop/newcore/fs/vfs.c ****     spin_lock(&file->f_slock);
 1282              		.loc 1 402 29 discriminator 1 view .LVU360
 1283 0040 4FF0FF30 		mov	r0, #-1
 1284              	.LVL147:
 1285              		.loc 1 413 1 view .LVU361
 1286 0044 7047     		bx	lr
 1287              		.cfi_endproc
 1288              	.LFE1052:
 1290              		.section	.rodata.create_path_and_file.str1.4,"aMS",%progbits,1
 1291              		.align	2
 1292              	.LC3:
 1293 0000 4661696C 		.ascii	"Failed to create directory '%s': %ld\012\000"
 1293      65642074 
 1293      6F206372 
 1293      65617465 
ARM GAS  /tmp/cccpLwD1.s 			page 37


 1293      20646972 
 1294 0026 0000     		.align	2
 1295              	.LC4:
 1296 0028 4661696C 		.ascii	"Failed to create file '%s': %ld\012\000"
 1296      65642074 
 1296      6F206372 
 1296      65617465 
 1296      2066696C 
 1297              		.section	.text.create_path_and_file,"ax",%progbits
 1298              		.align	1
 1299              		.syntax unified
 1300              		.thumb
 1301              		.thumb_func
 1303              	create_path_and_file:
 1304              	.LVL148:
 1305              	.LFB1040:
 142:/mnt/c/Users/31740/Desktop/newcore/fs/vfs.c ****     struct dentry *parent = root_dentry;
 1306              		.loc 1 142 1 is_stmt 1 view -0
 1307              		.cfi_startproc
 1308              		@ args = 0, pretend = 0, frame = 256
 1309              		@ frame_needed = 0, uses_anonymous_args = 0
 142:/mnt/c/Users/31740/Desktop/newcore/fs/vfs.c ****     struct dentry *parent = root_dentry;
 1310              		.loc 1 142 1 is_stmt 0 view .LVU363
 1311 0000 2DE9F041 		push	{r4, r5, r6, r7, r8, lr}
 1312              	.LCFI20:
 1313              		.cfi_def_cfa_offset 24
 1314              		.cfi_offset 4, -24
 1315              		.cfi_offset 5, -20
 1316              		.cfi_offset 6, -16
 1317              		.cfi_offset 7, -12
 1318              		.cfi_offset 8, -8
 1319              		.cfi_offset 14, -4
 1320 0004 C0B0     		sub	sp, sp, #256
 1321              	.LCFI21:
 1322              		.cfi_def_cfa_offset 280
 143:/mnt/c/Users/31740/Desktop/newcore/fs/vfs.c ****     struct dentry *child = NULL;
 1323              		.loc 1 143 5 is_stmt 1 view .LVU364
 143:/mnt/c/Users/31740/Desktop/newcore/fs/vfs.c ****     struct dentry *child = NULL;
 1324              		.loc 1 143 20 is_stmt 0 view .LVU365
 1325 0006 2C4B     		ldr	r3, .L115
 1326 0008 1F68     		ldr	r7, [r3]
 1327              	.LVL149:
 144:/mnt/c/Users/31740/Desktop/newcore/fs/vfs.c ****     char component[NAME_MAX];
 1328              		.loc 1 144 5 is_stmt 1 view .LVU366
 145:/mnt/c/Users/31740/Desktop/newcore/fs/vfs.c ****     const char *start = path;
 1329              		.loc 1 145 5 view .LVU367
 146:/mnt/c/Users/31740/Desktop/newcore/fs/vfs.c ****     const char *end;
 1330              		.loc 1 146 5 view .LVU368
 147:/mnt/c/Users/31740/Desktop/newcore/fs/vfs.c ****     int err;
 1331              		.loc 1 147 5 view .LVU369
 148:/mnt/c/Users/31740/Desktop/newcore/fs/vfs.c ****     if (*start != '/') 
 1332              		.loc 1 148 5 view .LVU370
 149:/mnt/c/Users/31740/Desktop/newcore/fs/vfs.c ****     return NULL;
 1333              		.loc 1 149 5 view .LVU371
 149:/mnt/c/Users/31740/Desktop/newcore/fs/vfs.c ****     return NULL;
 1334              		.loc 1 149 9 is_stmt 0 view .LVU372
 1335 000a 0378     		ldrb	r3, [r0]	@ zero_extendqisi2
ARM GAS  /tmp/cccpLwD1.s 			page 38


 149:/mnt/c/Users/31740/Desktop/newcore/fs/vfs.c ****     return NULL;
 1336              		.loc 1 149 8 view .LVU373
 1337 000c 2F2B     		cmp	r3, #47
 1338 000e 48D1     		bne	.L110
 1339 0010 8846     		mov	r8, r1
 152:/mnt/c/Users/31740/Desktop/newcore/fs/vfs.c ****     while ((end = strchr(start, '/'))) {
 1340              		.loc 1 152 5 is_stmt 1 view .LVU374
 152:/mnt/c/Users/31740/Desktop/newcore/fs/vfs.c ****     while ((end = strchr(start, '/'))) {
 1341              		.loc 1 152 24 discriminator 1 view .LVU375
 152:/mnt/c/Users/31740/Desktop/newcore/fs/vfs.c ****     while ((end = strchr(start, '/'))) {
 1342              		.loc 1 152 29 is_stmt 0 discriminator 1 view .LVU376
 1343 0012 451C     		adds	r5, r0, #1
 1344              	.LVL150:
 152:/mnt/c/Users/31740/Desktop/newcore/fs/vfs.c ****     while ((end = strchr(start, '/'))) {
 1345              		.loc 1 152 29 discriminator 1 view .LVU377
 1346 0014 08E0     		b	.L107
 1347              	.LVL151:
 1348              	.L108:
 1349              	.LBB58:
 169:/mnt/c/Users/31740/Desktop/newcore/fs/vfs.c ****             return ERR_PTR(-ENOTDIR);
 1350              		.loc 1 169 9 is_stmt 1 view .LVU378
 169:/mnt/c/Users/31740/Desktop/newcore/fs/vfs.c ****             return ERR_PTR(-ENOTDIR);
 1351              		.loc 1 169 14 is_stmt 0 view .LVU379
 1352 0016 A36C     		ldr	r3, [r4, #72]
 1353 0018 1B88     		ldrh	r3, [r3]
 169:/mnt/c/Users/31740/Desktop/newcore/fs/vfs.c ****             return ERR_PTR(-ENOTDIR);
 1354              		.loc 1 169 12 view .LVU380
 1355 001a 03F47043 		and	r3, r3, #61440
 1356 001e B3F5804F 		cmp	r3, #16384
 1357 0022 46D1     		bne	.L112
 172:/mnt/c/Users/31740/Desktop/newcore/fs/vfs.c ****         start = end + 1;
 1358              		.loc 1 172 9 is_stmt 1 view .LVU381
 1359              	.LVL152:
 173:/mnt/c/Users/31740/Desktop/newcore/fs/vfs.c ****     }
 1360              		.loc 1 173 9 view .LVU382
 173:/mnt/c/Users/31740/Desktop/newcore/fs/vfs.c ****     }
 1361              		.loc 1 173 15 is_stmt 0 view .LVU383
 1362 0024 751C     		adds	r5, r6, #1
 1363              	.LVL153:
 172:/mnt/c/Users/31740/Desktop/newcore/fs/vfs.c ****         start = end + 1;
 1364              		.loc 1 172 16 view .LVU384
 1365 0026 2746     		mov	r7, r4
 1366              	.LVL154:
 1367              	.L107:
 172:/mnt/c/Users/31740/Desktop/newcore/fs/vfs.c ****         start = end + 1;
 1368              		.loc 1 172 16 view .LVU385
 1369              	.LBE58:
 153:/mnt/c/Users/31740/Desktop/newcore/fs/vfs.c ****         size_t len = end - start;
 1370              		.loc 1 153 12 is_stmt 1 view .LVU386
 153:/mnt/c/Users/31740/Desktop/newcore/fs/vfs.c ****         size_t len = end - start;
 1371              		.loc 1 153 19 is_stmt 0 view .LVU387
 1372 0028 2F21     		movs	r1, #47
 1373 002a 2846     		mov	r0, r5
 1374 002c FFF7FEFF 		bl	strchr
 1375              	.LVL155:
 153:/mnt/c/Users/31740/Desktop/newcore/fs/vfs.c ****         size_t len = end - start;
 1376              		.loc 1 153 12 discriminator 1 view .LVU388
ARM GAS  /tmp/cccpLwD1.s 			page 39


 1377 0030 0646     		mov	r6, r0
 1378 0032 20B3     		cbz	r0, .L114
 1379              	.LBB65:
 154:/mnt/c/Users/31740/Desktop/newcore/fs/vfs.c ****         if (len >= sizeof(component)) {
 1380              		.loc 1 154 9 is_stmt 1 view .LVU389
 154:/mnt/c/Users/31740/Desktop/newcore/fs/vfs.c ****         if (len >= sizeof(component)) {
 1381              		.loc 1 154 26 is_stmt 0 view .LVU390
 1382 0034 741B     		subs	r4, r6, r5
 1383              	.LVL156:
 155:/mnt/c/Users/31740/Desktop/newcore/fs/vfs.c ****             return ERR_PTR(-ENAMETOOLONG);
 1384              		.loc 1 155 9 is_stmt 1 view .LVU391
 155:/mnt/c/Users/31740/Desktop/newcore/fs/vfs.c ****             return ERR_PTR(-ENAMETOOLONG);
 1385              		.loc 1 155 12 is_stmt 0 view .LVU392
 1386 0036 FE2C     		cmp	r4, #254
 1387 0038 38D8     		bhi	.L111
 158:/mnt/c/Users/31740/Desktop/newcore/fs/vfs.c ****         component[len] = '\0';
 1388              		.loc 1 158 9 is_stmt 1 view .LVU393
 1389 003a 2246     		mov	r2, r4
 1390 003c 2946     		mov	r1, r5
 1391 003e 6846     		mov	r0, sp
 1392              	.LVL157:
 158:/mnt/c/Users/31740/Desktop/newcore/fs/vfs.c ****         component[len] = '\0';
 1393              		.loc 1 158 9 is_stmt 0 view .LVU394
 1394 0040 FFF7FEFF 		bl	strncpy
 1395              	.LVL158:
 159:/mnt/c/Users/31740/Desktop/newcore/fs/vfs.c ****         child = find_dentry(parent, component, 0);
 1396              		.loc 1 159 9 is_stmt 1 view .LVU395
 159:/mnt/c/Users/31740/Desktop/newcore/fs/vfs.c ****         child = find_dentry(parent, component, 0);
 1397              		.loc 1 159 24 is_stmt 0 view .LVU396
 1398 0044 0022     		movs	r2, #0
 1399 0046 0DF80420 		strb	r2, [sp, r4]
 160:/mnt/c/Users/31740/Desktop/newcore/fs/vfs.c ****         if (IS_ERR(child)) {
 1400              		.loc 1 160 9 is_stmt 1 view .LVU397
 160:/mnt/c/Users/31740/Desktop/newcore/fs/vfs.c ****         if (IS_ERR(child)) {
 1401              		.loc 1 160 17 is_stmt 0 view .LVU398
 1402 004a 6946     		mov	r1, sp
 1403 004c 3846     		mov	r0, r7
 1404 004e FFF7FEFF 		bl	find_dentry
 1405              	.LVL159:
 1406 0052 0446     		mov	r4, r0
 1407              	.LVL160:
 161:/mnt/c/Users/31740/Desktop/newcore/fs/vfs.c ****             child = create_dentry(parent, component, S_IFDIR | 0755);
 1408              		.loc 1 161 9 is_stmt 1 view .LVU399
 1409              	.LBB59:
 1410              	.LBI59:
  75:/mnt/c/Users/31740/Desktop/newcore/include/linux/err.h **** {
 1411              		.loc 5 75 33 view .LVU400
 1412              	.LBB60:
 1413              		.loc 5 77 2 view .LVU401
 1414              		.loc 5 77 2 is_stmt 0 view .LVU402
 1415              	.LBE60:
 1416              	.LBE59:
 161:/mnt/c/Users/31740/Desktop/newcore/fs/vfs.c ****             child = create_dentry(parent, component, S_IFDIR | 0755);
 1417              		.loc 1 161 12 discriminator 1 view .LVU403
 1418 0054 10F5805F 		cmn	r0, #4096
 1419 0058 DDD9     		bls	.L108
 162:/mnt/c/Users/31740/Desktop/newcore/fs/vfs.c ****             if (IS_ERR(child)) {
ARM GAS  /tmp/cccpLwD1.s 			page 40


 1420              		.loc 1 162 13 is_stmt 1 view .LVU404
 162:/mnt/c/Users/31740/Desktop/newcore/fs/vfs.c ****             if (IS_ERR(child)) {
 1421              		.loc 1 162 21 is_stmt 0 view .LVU405
 1422 005a 44F2ED12 		movw	r2, #16877
 1423 005e 6946     		mov	r1, sp
 1424 0060 3846     		mov	r0, r7
 1425              	.LVL161:
 162:/mnt/c/Users/31740/Desktop/newcore/fs/vfs.c ****             if (IS_ERR(child)) {
 1426              		.loc 1 162 21 view .LVU406
 1427 0062 FFF7FEFF 		bl	create_dentry
 1428              	.LVL162:
 1429 0066 0446     		mov	r4, r0
 1430              	.LVL163:
 163:/mnt/c/Users/31740/Desktop/newcore/fs/vfs.c ****                 pr_err("Failed to create directory '%s': %ld\n",
 1431              		.loc 1 163 13 is_stmt 1 view .LVU407
 1432              	.LBB61:
 1433              	.LBI61:
  75:/mnt/c/Users/31740/Desktop/newcore/include/linux/err.h **** {
 1434              		.loc 5 75 33 view .LVU408
 1435              	.LBB62:
 1436              		.loc 5 77 2 view .LVU409
 1437              		.loc 5 77 2 is_stmt 0 view .LVU410
 1438              	.LBE62:
 1439              	.LBE61:
 163:/mnt/c/Users/31740/Desktop/newcore/fs/vfs.c ****                 pr_err("Failed to create directory '%s': %ld\n",
 1440              		.loc 1 163 16 discriminator 1 view .LVU411
 1441 0068 10F5805F 		cmn	r0, #4096
 1442 006c D3D9     		bls	.L108
 164:/mnt/c/Users/31740/Desktop/newcore/fs/vfs.c ****                       component, PTR_ERR(child));
 1443              		.loc 1 164 17 is_stmt 1 view .LVU412
 1444              	.LVL164:
 1445              	.LBB63:
 1446              	.LBI63:
  62:/mnt/c/Users/31740/Desktop/newcore/include/linux/err.h **** {
 1447              		.loc 5 62 33 view .LVU413
 1448              	.LBB64:
  64:/mnt/c/Users/31740/Desktop/newcore/include/linux/err.h **** }
 1449              		.loc 5 64 2 view .LVU414
  64:/mnt/c/Users/31740/Desktop/newcore/include/linux/err.h **** }
 1450              		.loc 5 64 2 is_stmt 0 view .LVU415
 1451              	.LBE64:
 1452              	.LBE63:
 164:/mnt/c/Users/31740/Desktop/newcore/fs/vfs.c ****                       component, PTR_ERR(child));
 1453              		.loc 1 164 17 discriminator 1 view .LVU416
 1454 006e 0346     		mov	r3, r0
 1455 0070 6A46     		mov	r2, sp
 1456 0072 1249     		ldr	r1, .L115+4
 1457 0074 0320     		movs	r0, #3
 1458              	.LVL165:
 164:/mnt/c/Users/31740/Desktop/newcore/fs/vfs.c ****                       component, PTR_ERR(child));
 1459              		.loc 1 164 17 discriminator 1 view .LVU417
 1460 0076 FFF7FEFF 		bl	printk
 1461              	.LVL166:
 166:/mnt/c/Users/31740/Desktop/newcore/fs/vfs.c ****             }
 1462              		.loc 1 166 17 is_stmt 1 view .LVU418
 166:/mnt/c/Users/31740/Desktop/newcore/fs/vfs.c ****             }
 1463              		.loc 1 166 24 is_stmt 0 view .LVU419
ARM GAS  /tmp/cccpLwD1.s 			page 41


 1464 007a 2746     		mov	r7, r4
 1465              	.LVL167:
 166:/mnt/c/Users/31740/Desktop/newcore/fs/vfs.c ****             }
 1466              		.loc 1 166 24 view .LVU420
 1467 007c 12E0     		b	.L105
 1468              	.LVL168:
 1469              	.L114:
 166:/mnt/c/Users/31740/Desktop/newcore/fs/vfs.c ****             }
 1470              		.loc 1 166 24 view .LVU421
 1471              	.LBE65:
 175:/mnt/c/Users/31740/Desktop/newcore/fs/vfs.c ****         child = create_dentry(parent, start, mode);
 1472              		.loc 1 175 5 is_stmt 1 view .LVU422
 175:/mnt/c/Users/31740/Desktop/newcore/fs/vfs.c ****         child = create_dentry(parent, start, mode);
 1473              		.loc 1 175 9 is_stmt 0 view .LVU423
 1474 007e 2B78     		ldrb	r3, [r5]	@ zero_extendqisi2
 175:/mnt/c/Users/31740/Desktop/newcore/fs/vfs.c ****         child = create_dentry(parent, start, mode);
 1475              		.loc 1 175 8 view .LVU424
 1476 0080 83B1     		cbz	r3, .L105
 176:/mnt/c/Users/31740/Desktop/newcore/fs/vfs.c ****         if (IS_ERR(child)) {
 1477              		.loc 1 176 9 is_stmt 1 view .LVU425
 176:/mnt/c/Users/31740/Desktop/newcore/fs/vfs.c ****         if (IS_ERR(child)) {
 1478              		.loc 1 176 17 is_stmt 0 view .LVU426
 1479 0082 4246     		mov	r2, r8
 1480 0084 2946     		mov	r1, r5
 1481 0086 3846     		mov	r0, r7
 1482              	.LVL169:
 176:/mnt/c/Users/31740/Desktop/newcore/fs/vfs.c ****         if (IS_ERR(child)) {
 1483              		.loc 1 176 17 view .LVU427
 1484 0088 FFF7FEFF 		bl	create_dentry
 1485              	.LVL170:
 1486 008c 0746     		mov	r7, r0
 1487              	.LVL171:
 177:/mnt/c/Users/31740/Desktop/newcore/fs/vfs.c ****             pr_err("Failed to create file '%s': %ld\n",
 1488              		.loc 1 177 9 is_stmt 1 view .LVU428
 1489              	.LBB66:
 1490              	.LBI66:
  75:/mnt/c/Users/31740/Desktop/newcore/include/linux/err.h **** {
 1491              		.loc 5 75 33 view .LVU429
 1492              	.LBB67:
 1493              		.loc 5 77 2 view .LVU430
 1494              		.loc 5 77 2 is_stmt 0 view .LVU431
 1495              	.LBE67:
 1496              	.LBE66:
 177:/mnt/c/Users/31740/Desktop/newcore/fs/vfs.c ****             pr_err("Failed to create file '%s': %ld\n",
 1497              		.loc 1 177 12 discriminator 1 view .LVU432
 1498 008e 10F5805F 		cmn	r0, #4096
 1499 0092 07D9     		bls	.L105
 178:/mnt/c/Users/31740/Desktop/newcore/fs/vfs.c ****                   start, PTR_ERR(child));
 1500              		.loc 1 178 13 is_stmt 1 view .LVU433
 1501              	.LVL172:
 1502              	.LBB68:
 1503              	.LBI68:
  62:/mnt/c/Users/31740/Desktop/newcore/include/linux/err.h **** {
 1504              		.loc 5 62 33 view .LVU434
 1505              	.LBB69:
  64:/mnt/c/Users/31740/Desktop/newcore/include/linux/err.h **** }
 1506              		.loc 5 64 2 view .LVU435
ARM GAS  /tmp/cccpLwD1.s 			page 42


  64:/mnt/c/Users/31740/Desktop/newcore/include/linux/err.h **** }
 1507              		.loc 5 64 2 is_stmt 0 view .LVU436
 1508              	.LBE69:
 1509              	.LBE68:
 178:/mnt/c/Users/31740/Desktop/newcore/fs/vfs.c ****                   start, PTR_ERR(child));
 1510              		.loc 1 178 13 discriminator 1 view .LVU437
 1511 0094 0346     		mov	r3, r0
 1512 0096 2A46     		mov	r2, r5
 1513 0098 0949     		ldr	r1, .L115+8
 1514 009a 0320     		movs	r0, #3
 1515              	.LVL173:
 178:/mnt/c/Users/31740/Desktop/newcore/fs/vfs.c ****                   start, PTR_ERR(child));
 1516              		.loc 1 178 13 discriminator 1 view .LVU438
 1517 009c FFF7FEFF 		bl	printk
 1518              	.LVL174:
 180:/mnt/c/Users/31740/Desktop/newcore/fs/vfs.c ****         }
 1519              		.loc 1 180 13 is_stmt 1 view .LVU439
 180:/mnt/c/Users/31740/Desktop/newcore/fs/vfs.c ****         }
 1520              		.loc 1 180 20 is_stmt 0 view .LVU440
 1521 00a0 00E0     		b	.L105
 1522              	.LVL175:
 1523              	.L110:
 150:/mnt/c/Users/31740/Desktop/newcore/fs/vfs.c **** 
 1524              		.loc 1 150 12 view .LVU441
 1525 00a2 0027     		movs	r7, #0
 1526              	.LVL176:
 1527              	.L105:
 185:/mnt/c/Users/31740/Desktop/newcore/fs/vfs.c **** 
 1528              		.loc 1 185 1 view .LVU442
 1529 00a4 3846     		mov	r0, r7
 1530 00a6 40B0     		add	sp, sp, #256
 1531              	.LCFI22:
 1532              		.cfi_remember_state
 1533              		.cfi_def_cfa_offset 24
 1534              		@ sp needed
 1535 00a8 BDE8F081 		pop	{r4, r5, r6, r7, r8, pc}
 1536              	.LVL177:
 1537              	.L111:
 1538              	.LCFI23:
 1539              		.cfi_restore_state
 1540              	.LBB70:
 156:/mnt/c/Users/31740/Desktop/newcore/fs/vfs.c ****         }
 1541              		.loc 1 156 20 view .LVU443
 1542 00ac 6FF03E07 		mvn	r7, #62
 1543              	.LVL178:
 156:/mnt/c/Users/31740/Desktop/newcore/fs/vfs.c ****         }
 1544              		.loc 1 156 20 view .LVU444
 1545 00b0 F8E7     		b	.L105
 1546              	.LVL179:
 1547              	.L112:
 170:/mnt/c/Users/31740/Desktop/newcore/fs/vfs.c ****         }
 1548              		.loc 1 170 20 view .LVU445
 1549 00b2 6FF01307 		mvn	r7, #19
 1550              	.LVL180:
 170:/mnt/c/Users/31740/Desktop/newcore/fs/vfs.c ****         }
 1551              		.loc 1 170 20 view .LVU446
 1552 00b6 F5E7     		b	.L105
ARM GAS  /tmp/cccpLwD1.s 			page 43


 1553              	.L116:
 1554              		.align	2
 1555              	.L115:
 1556 00b8 00000000 		.word	root_dentry
 1557 00bc 00000000 		.word	.LC3
 1558 00c0 28000000 		.word	.LC4
 1559              	.LBE70:
 1560              		.cfi_endproc
 1561              	.LFE1040:
 1563              		.section	.text.mountfile_to_initramfs,"ax",%progbits
 1564              		.align	1
 1565              		.syntax unified
 1566              		.thumb
 1567              		.thumb_func
 1569              	mountfile_to_initramfs:
 1570              	.LVL181:
 1571              	.LFB1053:
 414:/mnt/c/Users/31740/Desktop/newcore/fs/vfs.c **** EXPORT_SYMBOL(file_close);
 415:/mnt/c/Users/31740/Desktop/newcore/fs/vfs.c **** 
 416:/mnt/c/Users/31740/Desktop/newcore/fs/vfs.c **** 
 417:/mnt/c/Users/31740/Desktop/newcore/fs/vfs.c **** 
 418:/mnt/c/Users/31740/Desktop/newcore/fs/vfs.c **** 
 419:/mnt/c/Users/31740/Desktop/newcore/fs/vfs.c **** #include <linux/initramfs.h>
 420:/mnt/c/Users/31740/Desktop/newcore/fs/vfs.c **** static int mountfile_to_initramfs(__file_data *file_data)
 421:/mnt/c/Users/31740/Desktop/newcore/fs/vfs.c **** {
 1572              		.loc 1 421 1 is_stmt 1 view -0
 1573              		.cfi_startproc
 1574              		@ args = 0, pretend = 0, frame = 0
 1575              		@ frame_needed = 0, uses_anonymous_args = 0
 1576              		.loc 1 421 1 is_stmt 0 view .LVU448
 1577 0000 10B5     		push	{r4, lr}
 1578              	.LCFI24:
 1579              		.cfi_def_cfa_offset 8
 1580              		.cfi_offset 4, -8
 1581              		.cfi_offset 14, -4
 1582 0002 0446     		mov	r4, r0
 422:/mnt/c/Users/31740/Desktop/newcore/fs/vfs.c ****     struct dentry *file = create_path_and_file(file_data->path, S_IFREG | 0755);
 1583              		.loc 1 422 5 is_stmt 1 view .LVU449
 1584              		.loc 1 422 27 is_stmt 0 view .LVU450
 1585 0004 48F2ED11 		movw	r1, #33261
 1586 0008 0068     		ldr	r0, [r0]
 1587              	.LVL182:
 1588              		.loc 1 422 27 view .LVU451
 1589 000a FFF7FEFF 		bl	create_path_and_file
 1590              	.LVL183:
 423:/mnt/c/Users/31740/Desktop/newcore/fs/vfs.c ****     if(file == NULL){
 1591              		.loc 1 423 5 is_stmt 1 view .LVU452
 1592              		.loc 1 423 7 is_stmt 0 view .LVU453
 1593 000e 28B1     		cbz	r0, .L119
 424:/mnt/c/Users/31740/Desktop/newcore/fs/vfs.c ****         return -1;
 425:/mnt/c/Users/31740/Desktop/newcore/fs/vfs.c ****     }
 426:/mnt/c/Users/31740/Desktop/newcore/fs/vfs.c ****     initram_fs_mount_file(file->d_inode,file_data);
 1594              		.loc 1 426 5 is_stmt 1 view .LVU454
 1595 0010 2146     		mov	r1, r4
 1596 0012 806C     		ldr	r0, [r0, #72]
 1597              	.LVL184:
 1598              		.loc 1 426 5 is_stmt 0 view .LVU455
ARM GAS  /tmp/cccpLwD1.s 			page 44


 1599 0014 FFF7FEFF 		bl	initram_fs_mount_file
 1600              	.LVL185:
 427:/mnt/c/Users/31740/Desktop/newcore/fs/vfs.c ****     return 0;
 1601              		.loc 1 427 5 is_stmt 1 view .LVU456
 1602              		.loc 1 427 12 is_stmt 0 view .LVU457
 1603 0018 0020     		movs	r0, #0
 1604              	.L117:
 428:/mnt/c/Users/31740/Desktop/newcore/fs/vfs.c **** }
 1605              		.loc 1 428 1 view .LVU458
 1606 001a 10BD     		pop	{r4, pc}
 1607              	.LVL186:
 1608              	.L119:
 424:/mnt/c/Users/31740/Desktop/newcore/fs/vfs.c ****         return -1;
 1609              		.loc 1 424 16 view .LVU459
 1610 001c 4FF0FF30 		mov	r0, #-1
 1611              	.LVL187:
 424:/mnt/c/Users/31740/Desktop/newcore/fs/vfs.c ****         return -1;
 1612              		.loc 1 424 16 view .LVU460
 1613 0020 FBE7     		b	.L117
 1614              		.cfi_endproc
 1615              	.LFE1053:
 1617              		.section	.text.mount_all_file,"ax",%progbits
 1618              		.align	1
 1619              		.syntax unified
 1620              		.thumb
 1621              		.thumb_func
 1623              	mount_all_file:
 1624              	.LFB1054:
 429:/mnt/c/Users/31740/Desktop/newcore/fs/vfs.c **** static void mount_all_file(void){
 1625              		.loc 1 429 33 is_stmt 1 view -0
 1626              		.cfi_startproc
 1627              		@ args = 0, pretend = 0, frame = 0
 1628              		@ frame_needed = 0, uses_anonymous_args = 0
 1629 0000 10B5     		push	{r4, lr}
 1630              	.LCFI25:
 1631              		.cfi_def_cfa_offset 8
 1632              		.cfi_offset 4, -8
 1633              		.cfi_offset 14, -4
 430:/mnt/c/Users/31740/Desktop/newcore/fs/vfs.c ****     for (__file_data *file_head = __export_file_start; file_head != __export_file_end; file_head++)
 1634              		.loc 1 430 5 view .LVU462
 1635              	.LBB71:
 1636              		.loc 1 430 10 view .LVU463
 1637              	.LVL188:
 1638              		.loc 1 430 23 is_stmt 0 view .LVU464
 1639 0002 054C     		ldr	r4, .L125
 1640              		.loc 1 430 5 view .LVU465
 1641 0004 03E0     		b	.L122
 1642              	.LVL189:
 1643              	.L123:
 431:/mnt/c/Users/31740/Desktop/newcore/fs/vfs.c ****         mountfile_to_initramfs(file_head);
 1644              		.loc 1 431 9 is_stmt 1 view .LVU466
 1645 0006 2046     		mov	r0, r4
 1646 0008 FFF7FEFF 		bl	mountfile_to_initramfs
 1647              	.LVL190:
 430:/mnt/c/Users/31740/Desktop/newcore/fs/vfs.c ****     for (__file_data *file_head = __export_file_start; file_head != __export_file_end; file_head++)
 1648              		.loc 1 430 97 discriminator 3 view .LVU467
 1649 000c 1034     		adds	r4, r4, #16
ARM GAS  /tmp/cccpLwD1.s 			page 45


 1650              	.LVL191:
 1651              	.L122:
 430:/mnt/c/Users/31740/Desktop/newcore/fs/vfs.c ****     for (__file_data *file_head = __export_file_start; file_head != __export_file_end; file_head++)
 1652              		.loc 1 430 66 discriminator 1 view .LVU468
 1653 000e 034B     		ldr	r3, .L125+4
 1654 0010 9C42     		cmp	r4, r3
 1655 0012 F8D1     		bne	.L123
 1656              	.LBE71:
 432:/mnt/c/Users/31740/Desktop/newcore/fs/vfs.c ****     }
 433:/mnt/c/Users/31740/Desktop/newcore/fs/vfs.c **** }
 1657              		.loc 1 433 1 is_stmt 0 view .LVU469
 1658 0014 10BD     		pop	{r4, pc}
 1659              	.LVL192:
 1660              	.L126:
 1661              		.loc 1 433 1 view .LVU470
 1662 0016 00BF     		.align	2
 1663              	.L125:
 1664 0018 00000000 		.word	__export_file_start
 1665 001c 00000000 		.word	__export_file_end
 1666              		.cfi_endproc
 1667              	.LFE1054:
 1669              		.section	.text.select_file,"ax",%progbits
 1670              		.align	1
 1671              		.global	select_file
 1672              		.syntax unified
 1673              		.thumb
 1674              		.thumb_func
 1676              	select_file:
 1677              	.LVL193:
 1678              	.LFB1039:
 116:/mnt/c/Users/31740/Desktop/newcore/fs/vfs.c ****     if(path == NULL) 
 1679              		.loc 1 116 1 is_stmt 1 view -0
 1680              		.cfi_startproc
 1681              		@ args = 0, pretend = 0, frame = 128
 1682              		@ frame_needed = 0, uses_anonymous_args = 0
 116:/mnt/c/Users/31740/Desktop/newcore/fs/vfs.c ****     if(path == NULL) 
 1683              		.loc 1 116 1 is_stmt 0 view .LVU472
 1684 0000 2DE9F041 		push	{r4, r5, r6, r7, r8, lr}
 1685              	.LCFI26:
 1686              		.cfi_def_cfa_offset 24
 1687              		.cfi_offset 4, -24
 1688              		.cfi_offset 5, -20
 1689              		.cfi_offset 6, -16
 1690              		.cfi_offset 7, -12
 1691              		.cfi_offset 8, -8
 1692              		.cfi_offset 14, -4
 1693 0004 A0B0     		sub	sp, sp, #128
 1694              	.LCFI27:
 1695              		.cfi_def_cfa_offset 152
 117:/mnt/c/Users/31740/Desktop/newcore/fs/vfs.c ****     return NULL;
 1696              		.loc 1 117 5 is_stmt 1 view .LVU473
 117:/mnt/c/Users/31740/Desktop/newcore/fs/vfs.c ****     return NULL;
 1697              		.loc 1 117 7 is_stmt 0 view .LVU474
 1698 0006 0746     		mov	r7, r0
 1699 0008 38B3     		cbz	r0, .L132
 1700 000a 0E46     		mov	r6, r1
 119:/mnt/c/Users/31740/Desktop/newcore/fs/vfs.c ****     return root_dentry;
ARM GAS  /tmp/cccpLwD1.s 			page 46


 1701              		.loc 1 119 5 is_stmt 1 view .LVU475
 119:/mnt/c/Users/31740/Desktop/newcore/fs/vfs.c ****     return root_dentry;
 1702              		.loc 1 119 12 is_stmt 0 view .LVU476
 1703 000c 0378     		ldrb	r3, [r0]	@ zero_extendqisi2
 119:/mnt/c/Users/31740/Desktop/newcore/fs/vfs.c ****     return root_dentry;
 1704              		.loc 1 119 7 view .LVU477
 1705 000e 2F2B     		cmp	r3, #47
 1706 0010 1AD0     		beq	.L134
 1707              	.L129:
 121:/mnt/c/Users/31740/Desktop/newcore/fs/vfs.c ****     int path_numbers = get_dir_number(path);
 1708              		.loc 1 121 5 is_stmt 1 view .LVU478
 122:/mnt/c/Users/31740/Desktop/newcore/fs/vfs.c ****     char file_name[128];    
 1709              		.loc 1 122 5 view .LVU479
 122:/mnt/c/Users/31740/Desktop/newcore/fs/vfs.c ****     char file_name[128];    
 1710              		.loc 1 122 24 is_stmt 0 view .LVU480
 1711 0012 3846     		mov	r0, r7
 1712              	.LVL194:
 122:/mnt/c/Users/31740/Desktop/newcore/fs/vfs.c ****     char file_name[128];    
 1713              		.loc 1 122 24 view .LVU481
 1714 0014 FFF7FEFF 		bl	get_dir_number
 1715              	.LVL195:
 122:/mnt/c/Users/31740/Desktop/newcore/fs/vfs.c ****     char file_name[128];    
 1716              		.loc 1 122 24 view .LVU482
 1717 0018 8046     		mov	r8, r0
 1718              	.LVL196:
 123:/mnt/c/Users/31740/Desktop/newcore/fs/vfs.c ****     struct dentry * esarch_dentry = root_dentry;
 1719              		.loc 1 123 5 is_stmt 1 view .LVU483
 124:/mnt/c/Users/31740/Desktop/newcore/fs/vfs.c ****     for(int i = 1 ;i <= path_numbers - offset; i++){
 1720              		.loc 1 124 5 view .LVU484
 124:/mnt/c/Users/31740/Desktop/newcore/fs/vfs.c ****     for(int i = 1 ;i <= path_numbers - offset; i++){
 1721              		.loc 1 124 21 is_stmt 0 view .LVU485
 1722 001a 114B     		ldr	r3, .L135
 1723 001c 1C68     		ldr	r4, [r3]
 1724              	.LVL197:
 125:/mnt/c/Users/31740/Desktop/newcore/fs/vfs.c ****         get_dir_name(path,file_name,i); //‰∏çÂèØËÉΩÈîôËØØÊâÄ‰ª•‰∏çÈúÄË¶ÅÈ™åËØÅ
 1725              		.loc 1 125 5 is_stmt 1 view .LVU486
 1726              	.LBB72:
 125:/mnt/c/Users/31740/Desktop/newcore/fs/vfs.c ****         get_dir_name(path,file_name,i); //‰∏çÂèØËÉΩÈîôËØØÊâÄ‰ª•‰∏çÈúÄË¶ÅÈ™åËØÅ
 1727              		.loc 1 125 9 view .LVU487
 125:/mnt/c/Users/31740/Desktop/newcore/fs/vfs.c ****         get_dir_name(path,file_name,i); //‰∏çÂèØËÉΩÈîôËØØÊâÄ‰ª•‰∏çÈúÄË¶ÅÈ™åËØÅ
 1728              		.loc 1 125 13 is_stmt 0 view .LVU488
 1729 001e 0125     		movs	r5, #1
 1730              	.LVL198:
 1731              	.L130:
 125:/mnt/c/Users/31740/Desktop/newcore/fs/vfs.c ****         get_dir_name(path,file_name,i); //‰∏çÂèØËÉΩÈîôËØØÊâÄ‰ª•‰∏çÈúÄË¶ÅÈ™åËØÅ
 1732              		.loc 1 125 22 is_stmt 1 discriminator 1 view .LVU489
 125:/mnt/c/Users/31740/Desktop/newcore/fs/vfs.c ****         get_dir_name(path,file_name,i); //‰∏çÂèØËÉΩÈîôËØØÊâÄ‰ª•‰∏çÈúÄË¶ÅÈ™åËØÅ
 1733              		.loc 1 125 38 is_stmt 0 discriminator 1 view .LVU490
 1734 0020 A8EB0603 		sub	r3, r8, r6
 125:/mnt/c/Users/31740/Desktop/newcore/fs/vfs.c ****         get_dir_name(path,file_name,i); //‰∏çÂèØËÉΩÈîôËØØÊâÄ‰ª•‰∏çÈúÄË¶ÅÈ™åËØÅ
 1735              		.loc 1 125 22 discriminator 1 view .LVU491
 1736 0024 AB42     		cmp	r3, r5
 1737 0026 14DB     		blt	.L127
 126:/mnt/c/Users/31740/Desktop/newcore/fs/vfs.c ****         esarch_dentry = find_dentry(esarch_dentry,file_name,0); 
 1738              		.loc 1 126 9 is_stmt 1 view .LVU492
 1739 0028 2A46     		mov	r2, r5
 1740 002a 6946     		mov	r1, sp
ARM GAS  /tmp/cccpLwD1.s 			page 47


 1741 002c 3846     		mov	r0, r7
 1742 002e FFF7FEFF 		bl	get_dir_name
 1743              	.LVL199:
 127:/mnt/c/Users/31740/Desktop/newcore/fs/vfs.c ****         if(IS_ERR(esarch_dentry)){
 1744              		.loc 1 127 9 view .LVU493
 127:/mnt/c/Users/31740/Desktop/newcore/fs/vfs.c ****         if(IS_ERR(esarch_dentry)){
 1745              		.loc 1 127 25 is_stmt 0 view .LVU494
 1746 0032 0022     		movs	r2, #0
 1747 0034 6946     		mov	r1, sp
 1748 0036 2046     		mov	r0, r4
 1749 0038 FFF7FEFF 		bl	find_dentry
 1750              	.LVL200:
 1751 003c 0446     		mov	r4, r0
 1752              	.LVL201:
 128:/mnt/c/Users/31740/Desktop/newcore/fs/vfs.c ****             return esarch_dentry;
 1753              		.loc 1 128 9 is_stmt 1 view .LVU495
 1754              	.LBB73:
 1755              	.LBI73:
  75:/mnt/c/Users/31740/Desktop/newcore/include/linux/err.h **** {
 1756              		.loc 5 75 33 view .LVU496
 1757              	.LBB74:
 1758              		.loc 5 77 2 view .LVU497
 1759              		.loc 5 77 2 is_stmt 0 view .LVU498
 1760              	.LBE74:
 1761              	.LBE73:
 128:/mnt/c/Users/31740/Desktop/newcore/fs/vfs.c ****             return esarch_dentry;
 1762              		.loc 1 128 11 discriminator 1 view .LVU499
 1763 003e 10F5805F 		cmn	r0, #4096
 1764 0042 06D8     		bhi	.L127
 125:/mnt/c/Users/31740/Desktop/newcore/fs/vfs.c ****         get_dir_name(path,file_name,i); //‰∏çÂèØËÉΩÈîôËØØÊâÄ‰ª•‰∏çÈúÄË¶ÅÈ™åËØÅ
 1765              		.loc 1 125 49 is_stmt 1 discriminator 2 view .LVU500
 1766 0044 0135     		adds	r5, r5, #1
 1767              	.LVL202:
 125:/mnt/c/Users/31740/Desktop/newcore/fs/vfs.c ****         get_dir_name(path,file_name,i); //‰∏çÂèØËÉΩÈîôËØØÊâÄ‰ª•‰∏çÈúÄË¶ÅÈ™åËØÅ
 1768              		.loc 1 125 49 is_stmt 0 discriminator 2 view .LVU501
 1769 0046 EBE7     		b	.L130
 1770              	.LVL203:
 1771              	.L134:
 125:/mnt/c/Users/31740/Desktop/newcore/fs/vfs.c ****         get_dir_name(path,file_name,i); //‰∏çÂèØËÉΩÈîôËØØÊâÄ‰ª•‰∏çÈúÄË¶ÅÈ™åËØÅ
 1772              		.loc 1 125 49 discriminator 2 view .LVU502
 1773              	.LBE72:
 119:/mnt/c/Users/31740/Desktop/newcore/fs/vfs.c ****     return root_dentry;
 1774              		.loc 1 119 30 discriminator 1 view .LVU503
 1775 0048 4378     		ldrb	r3, [r0, #1]	@ zero_extendqisi2
 119:/mnt/c/Users/31740/Desktop/newcore/fs/vfs.c ****     return root_dentry;
 1776              		.loc 1 119 23 discriminator 1 view .LVU504
 1777 004a 002B     		cmp	r3, #0
 1778 004c E1D1     		bne	.L129
 120:/mnt/c/Users/31740/Desktop/newcore/fs/vfs.c ****     int err;    
 1779              		.loc 1 120 5 is_stmt 1 view .LVU505
 120:/mnt/c/Users/31740/Desktop/newcore/fs/vfs.c ****     int err;    
 1780              		.loc 1 120 12 is_stmt 0 view .LVU506
 1781 004e 044B     		ldr	r3, .L135
 1782 0050 1C68     		ldr	r4, [r3]
 1783              	.LVL204:
 1784              	.L127:
 133:/mnt/c/Users/31740/Desktop/newcore/fs/vfs.c **** 
ARM GAS  /tmp/cccpLwD1.s 			page 48


 1785              		.loc 1 133 1 view .LVU507
 1786 0052 2046     		mov	r0, r4
 1787 0054 20B0     		add	sp, sp, #128
 1788              	.LCFI28:
 1789              		.cfi_remember_state
 1790              		.cfi_def_cfa_offset 24
 1791              		@ sp needed
 1792 0056 BDE8F081 		pop	{r4, r5, r6, r7, r8, pc}
 1793              	.LVL205:
 1794              	.L132:
 1795              	.LCFI29:
 1796              		.cfi_restore_state
 118:/mnt/c/Users/31740/Desktop/newcore/fs/vfs.c ****     if(path[0] == '/' && path[1] == '\0') 
 1797              		.loc 1 118 12 view .LVU508
 1798 005a 0446     		mov	r4, r0
 1799 005c F9E7     		b	.L127
 1800              	.L136:
 1801 005e 00BF     		.align	2
 1802              	.L135:
 1803 0060 00000000 		.word	root_dentry
 1804              		.cfi_endproc
 1805              	.LFE1039:
 1807              		.section	.text.remove_dentry,"ax",%progbits
 1808              		.align	1
 1809              		.global	remove_dentry
 1810              		.syntax unified
 1811              		.thumb
 1812              		.thumb_func
 1814              	remove_dentry:
 1815              	.LVL206:
 1816              	.LFB1042:
 226:/mnt/c/Users/31740/Desktop/newcore/fs/vfs.c ****     struct  dentry * dentry = select_file(path,0);
 1817              		.loc 1 226 1 is_stmt 1 view -0
 1818              		.cfi_startproc
 1819              		@ args = 0, pretend = 0, frame = 0
 1820              		@ frame_needed = 0, uses_anonymous_args = 0
 226:/mnt/c/Users/31740/Desktop/newcore/fs/vfs.c ****     struct  dentry * dentry = select_file(path,0);
 1821              		.loc 1 226 1 is_stmt 0 view .LVU510
 1822 0000 10B5     		push	{r4, lr}
 1823              	.LCFI30:
 1824              		.cfi_def_cfa_offset 8
 1825              		.cfi_offset 4, -8
 1826              		.cfi_offset 14, -4
 227:/mnt/c/Users/31740/Desktop/newcore/fs/vfs.c ****     if(!IS_ERR(dentry)){
 1827              		.loc 1 227 5 is_stmt 1 view .LVU511
 227:/mnt/c/Users/31740/Desktop/newcore/fs/vfs.c ****     if(!IS_ERR(dentry)){
 1828              		.loc 1 227 31 is_stmt 0 view .LVU512
 1829 0002 0021     		movs	r1, #0
 1830 0004 FFF7FEFF 		bl	select_file
 1831              	.LVL207:
 228:/mnt/c/Users/31740/Desktop/newcore/fs/vfs.c ****         __remove_dentry(dentry);
 1832              		.loc 1 228 5 is_stmt 1 view .LVU513
 1833              	.LBB75:
 1834              	.LBI75:
  75:/mnt/c/Users/31740/Desktop/newcore/include/linux/err.h **** {
 1835              		.loc 5 75 33 view .LVU514
 1836              	.LBB76:
ARM GAS  /tmp/cccpLwD1.s 			page 49


 1837              		.loc 5 77 2 view .LVU515
 1838              		.loc 5 77 9 is_stmt 0 view .LVU516
 1839 0008 10F5805F 		cmn	r0, #4096
 1840 000c 94BF     		ite	ls
 1841 000e 0024     		movls	r4, #0
 1842 0010 0124     		movhi	r4, #1
 1843              	.LVL208:
 1844              		.loc 5 77 9 view .LVU517
 1845              	.LBE76:
 1846              	.LBE75:
 228:/mnt/c/Users/31740/Desktop/newcore/fs/vfs.c ****         __remove_dentry(dentry);
 1847              		.loc 1 228 7 discriminator 1 view .LVU518
 1848 0012 1CB9     		cbnz	r4, .L139
 229:/mnt/c/Users/31740/Desktop/newcore/fs/vfs.c ****         return 0;
 1849              		.loc 1 229 9 is_stmt 1 view .LVU519
 1850 0014 FFF7FEFF 		bl	__remove_dentry
 1851              	.LVL209:
 230:/mnt/c/Users/31740/Desktop/newcore/fs/vfs.c ****     }
 1852              		.loc 1 230 9 view .LVU520
 1853              	.L137:
 233:/mnt/c/Users/31740/Desktop/newcore/fs/vfs.c **** EXPORT_SYMBOL(remove_dentry);
 1854              		.loc 1 233 1 is_stmt 0 view .LVU521
 1855 0018 2046     		mov	r0, r4
 1856 001a 10BD     		pop	{r4, pc}
 1857              	.LVL210:
 1858              	.L139:
 232:/mnt/c/Users/31740/Desktop/newcore/fs/vfs.c **** }
 1859              		.loc 1 232 12 view .LVU522
 1860 001c 4FF0FF34 		mov	r4, #-1
 1861 0020 FAE7     		b	.L137
 1862              		.cfi_endproc
 1863              	.LFE1042:
 1865              		.section	.text.blkdev_get_by_path,"ax",%progbits
 1866              		.align	1
 1867              		.global	blkdev_get_by_path
 1868              		.syntax unified
 1869              		.thumb
 1870              		.thumb_func
 1872              	blkdev_get_by_path:
 1873              	.LVL211:
 1874              	.LFB1043:
 237:/mnt/c/Users/31740/Desktop/newcore/fs/vfs.c ****     struct dentry* dentry = select_file(path,0);
 1875              		.loc 1 237 1 is_stmt 1 view -0
 1876              		.cfi_startproc
 1877              		@ args = 0, pretend = 0, frame = 0
 1878              		@ frame_needed = 0, uses_anonymous_args = 0
 237:/mnt/c/Users/31740/Desktop/newcore/fs/vfs.c ****     struct dentry* dentry = select_file(path,0);
 1879              		.loc 1 237 1 is_stmt 0 view .LVU524
 1880 0000 08B5     		push	{r3, lr}
 1881              	.LCFI31:
 1882              		.cfi_def_cfa_offset 8
 1883              		.cfi_offset 3, -8
 1884              		.cfi_offset 14, -4
 238:/mnt/c/Users/31740/Desktop/newcore/fs/vfs.c ****     return devfs_get_blk_dev(dentry->d_inode);
 1885              		.loc 1 238 5 is_stmt 1 view .LVU525
 238:/mnt/c/Users/31740/Desktop/newcore/fs/vfs.c ****     return devfs_get_blk_dev(dentry->d_inode);
 1886              		.loc 1 238 29 is_stmt 0 view .LVU526
ARM GAS  /tmp/cccpLwD1.s 			page 50


 1887 0002 0021     		movs	r1, #0
 1888              	.LVL212:
 238:/mnt/c/Users/31740/Desktop/newcore/fs/vfs.c ****     return devfs_get_blk_dev(dentry->d_inode);
 1889              		.loc 1 238 29 view .LVU527
 1890 0004 FFF7FEFF 		bl	select_file
 1891              	.LVL213:
 239:/mnt/c/Users/31740/Desktop/newcore/fs/vfs.c **** }
 1892              		.loc 1 239 5 is_stmt 1 view .LVU528
 239:/mnt/c/Users/31740/Desktop/newcore/fs/vfs.c **** }
 1893              		.loc 1 239 12 is_stmt 0 view .LVU529
 1894 0008 806C     		ldr	r0, [r0, #72]
 1895              	.LVL214:
 239:/mnt/c/Users/31740/Desktop/newcore/fs/vfs.c **** }
 1896              		.loc 1 239 12 view .LVU530
 1897 000a FFF7FEFF 		bl	devfs_get_blk_dev
 1898              	.LVL215:
 240:/mnt/c/Users/31740/Desktop/newcore/fs/vfs.c **** EXPORT_SYMBOL(blkdev_get_by_path);
 1899              		.loc 1 240 1 view .LVU531
 1900 000e 08BD     		pop	{r3, pc}
 1901              		.cfi_endproc
 1902              	.LFE1043:
 1904              		.section	.text.create_new_dentry,"ax",%progbits
 1905              		.align	1
 1906              		.global	create_new_dentry
 1907              		.syntax unified
 1908              		.thumb
 1909              		.thumb_func
 1911              	create_new_dentry:
 1912              	.LVL216:
 1913              	.LFB1041:
 198:/mnt/c/Users/31740/Desktop/newcore/fs/vfs.c ****     struct  dentry * p_dentry;
 1914              		.loc 1 198 1 is_stmt 1 view -0
 1915              		.cfi_startproc
 1916              		@ args = 0, pretend = 0, frame = 128
 1917              		@ frame_needed = 0, uses_anonymous_args = 0
 198:/mnt/c/Users/31740/Desktop/newcore/fs/vfs.c ****     struct  dentry * p_dentry;
 1918              		.loc 1 198 1 is_stmt 0 view .LVU533
 1919 0000 70B5     		push	{r4, r5, r6, lr}
 1920              	.LCFI32:
 1921              		.cfi_def_cfa_offset 16
 1922              		.cfi_offset 4, -16
 1923              		.cfi_offset 5, -12
 1924              		.cfi_offset 6, -8
 1925              		.cfi_offset 14, -4
 1926 0002 A0B0     		sub	sp, sp, #128
 1927              	.LCFI33:
 1928              		.cfi_def_cfa_offset 144
 1929 0004 0646     		mov	r6, r0
 1930 0006 0D46     		mov	r5, r1
 199:/mnt/c/Users/31740/Desktop/newcore/fs/vfs.c **** 
 1931              		.loc 1 199 5 is_stmt 1 view .LVU534
 201:/mnt/c/Users/31740/Desktop/newcore/fs/vfs.c ****     if(IS_ERR(p_dentry)){
 1932              		.loc 1 201 5 view .LVU535
 201:/mnt/c/Users/31740/Desktop/newcore/fs/vfs.c ****     if(IS_ERR(p_dentry)){
 1933              		.loc 1 201 16 is_stmt 0 view .LVU536
 1934 0008 0121     		movs	r1, #1
 1935              	.LVL217:
ARM GAS  /tmp/cccpLwD1.s 			page 51


 201:/mnt/c/Users/31740/Desktop/newcore/fs/vfs.c ****     if(IS_ERR(p_dentry)){
 1936              		.loc 1 201 16 view .LVU537
 1937 000a FFF7FEFF 		bl	select_file
 1938              	.LVL218:
 202:/mnt/c/Users/31740/Desktop/newcore/fs/vfs.c ****         //pr_info("can not find parent dentry%d\n",(int)p_dentry);
 1939              		.loc 1 202 5 is_stmt 1 view .LVU538
 1940              	.LBB77:
 1941              	.LBI77:
  75:/mnt/c/Users/31740/Desktop/newcore/include/linux/err.h **** {
 1942              		.loc 5 75 33 view .LVU539
 1943              	.LBB78:
 1944              		.loc 5 77 2 view .LVU540
 1945              		.loc 5 77 2 is_stmt 0 view .LVU541
 1946              	.LBE78:
 1947              	.LBE77:
 202:/mnt/c/Users/31740/Desktop/newcore/fs/vfs.c ****         //pr_info("can not find parent dentry%d\n",(int)p_dentry);
 1948              		.loc 1 202 7 discriminator 1 view .LVU542
 1949 000e 10F5805F 		cmn	r0, #4096
 1950 0012 19D8     		bhi	.L145
 1951 0014 0446     		mov	r4, r0
 206:/mnt/c/Users/31740/Desktop/newcore/fs/vfs.c ****     if((p_denrty_mode & S_IFMT) != S_IFDIR)
 1952              		.loc 1 206 5 is_stmt 1 view .LVU543
 206:/mnt/c/Users/31740/Desktop/newcore/fs/vfs.c ****     if((p_denrty_mode & S_IFMT) != S_IFDIR)
 1953              		.loc 1 206 36 is_stmt 0 view .LVU544
 1954 0016 836C     		ldr	r3, [r0, #72]
 206:/mnt/c/Users/31740/Desktop/newcore/fs/vfs.c ****     if((p_denrty_mode & S_IFMT) != S_IFDIR)
 1955              		.loc 1 206 45 view .LVU545
 1956 0018 1B88     		ldrh	r3, [r3]
 1957              	.LVL219:
 207:/mnt/c/Users/31740/Desktop/newcore/fs/vfs.c ****     {
 1958              		.loc 1 207 5 is_stmt 1 view .LVU546
 207:/mnt/c/Users/31740/Desktop/newcore/fs/vfs.c ****     {
 1959              		.loc 1 207 7 is_stmt 0 view .LVU547
 1960 001a 03F47043 		and	r3, r3, #61440
 1961 001e B3F5804F 		cmp	r3, #16384
 1962 0022 03D0     		beq	.L148
 210:/mnt/c/Users/31740/Desktop/newcore/fs/vfs.c ****     } 
 1963              		.loc 1 210 16 view .LVU548
 1964 0024 6FF01300 		mvn	r0, #19
 1965              	.LVL220:
 1966              	.L143:
 216:/mnt/c/Users/31740/Desktop/newcore/fs/vfs.c **** 
 1967              		.loc 1 216 1 view .LVU549
 1968 0028 20B0     		add	sp, sp, #128
 1969              	.LCFI34:
 1970              		.cfi_remember_state
 1971              		.cfi_def_cfa_offset 16
 1972              		@ sp needed
 1973 002a 70BD     		pop	{r4, r5, r6, pc}
 1974              	.LVL221:
 1975              	.L148:
 1976              	.LCFI35:
 1977              		.cfi_restore_state
 212:/mnt/c/Users/31740/Desktop/newcore/fs/vfs.c ****     get_dir_name(path,file_name,get_dir_number(path));     
 1978              		.loc 1 212 5 is_stmt 1 view .LVU550
 213:/mnt/c/Users/31740/Desktop/newcore/fs/vfs.c ****     p_dentry = create_dentry(p_dentry,file_name,i_mode);
 1979              		.loc 1 213 5 view .LVU551
ARM GAS  /tmp/cccpLwD1.s 			page 52


 1980 002c 3046     		mov	r0, r6
 1981              	.LVL222:
 213:/mnt/c/Users/31740/Desktop/newcore/fs/vfs.c ****     p_dentry = create_dentry(p_dentry,file_name,i_mode);
 1982              		.loc 1 213 5 is_stmt 0 view .LVU552
 1983 002e FFF7FEFF 		bl	get_dir_number
 1984              	.LVL223:
 213:/mnt/c/Users/31740/Desktop/newcore/fs/vfs.c ****     p_dentry = create_dentry(p_dentry,file_name,i_mode);
 1985              		.loc 1 213 5 view .LVU553
 1986 0032 0246     		mov	r2, r0
 213:/mnt/c/Users/31740/Desktop/newcore/fs/vfs.c ****     p_dentry = create_dentry(p_dentry,file_name,i_mode);
 1987              		.loc 1 213 5 discriminator 1 view .LVU554
 1988 0034 6946     		mov	r1, sp
 1989 0036 3046     		mov	r0, r6
 1990 0038 FFF7FEFF 		bl	get_dir_name
 1991              	.LVL224:
 214:/mnt/c/Users/31740/Desktop/newcore/fs/vfs.c ****     return p_dentry;
 1992              		.loc 1 214 5 is_stmt 1 view .LVU555
 214:/mnt/c/Users/31740/Desktop/newcore/fs/vfs.c ****     return p_dentry;
 1993              		.loc 1 214 16 is_stmt 0 view .LVU556
 1994 003c 2A46     		mov	r2, r5
 1995 003e 6946     		mov	r1, sp
 1996 0040 2046     		mov	r0, r4
 1997 0042 FFF7FEFF 		bl	create_dentry
 1998              	.LVL225:
 215:/mnt/c/Users/31740/Desktop/newcore/fs/vfs.c **** }
 1999              		.loc 1 215 5 is_stmt 1 view .LVU557
 215:/mnt/c/Users/31740/Desktop/newcore/fs/vfs.c **** }
 2000              		.loc 1 215 12 is_stmt 0 view .LVU558
 2001 0046 EFE7     		b	.L143
 2002              	.LVL226:
 2003              	.L145:
 204:/mnt/c/Users/31740/Desktop/newcore/fs/vfs.c ****     }
 2004              		.loc 1 204 16 view .LVU559
 2005 0048 6FF00100 		mvn	r0, #1
 2006              	.LVL227:
 204:/mnt/c/Users/31740/Desktop/newcore/fs/vfs.c ****     }
 2007              		.loc 1 204 16 view .LVU560
 2008 004c ECE7     		b	.L143
 2009              		.cfi_endproc
 2010              	.LFE1041:
 2012              		.section	.text.mkdir,"ax",%progbits
 2013              		.align	1
 2014              		.global	mkdir
 2015              		.syntax unified
 2016              		.thumb
 2017              		.thumb_func
 2019              	mkdir:
 2020              	.LVL228:
 2021              	.LFB1044:
 243:/mnt/c/Users/31740/Desktop/newcore/fs/vfs.c ****    if(mode == NULL) mode = 0755;
 2022              		.loc 1 243 46 is_stmt 1 view -0
 2023              		.cfi_startproc
 2024              		@ args = 0, pretend = 0, frame = 0
 2025              		@ frame_needed = 0, uses_anonymous_args = 0
 243:/mnt/c/Users/31740/Desktop/newcore/fs/vfs.c ****    if(mode == NULL) mode = 0755;
 2026              		.loc 1 243 46 is_stmt 0 view .LVU562
 2027 0000 08B5     		push	{r3, lr}
ARM GAS  /tmp/cccpLwD1.s 			page 53


 2028              	.LCFI36:
 2029              		.cfi_def_cfa_offset 8
 2030              		.cfi_offset 3, -8
 2031              		.cfi_offset 14, -4
 244:/mnt/c/Users/31740/Desktop/newcore/fs/vfs.c ****    return create_new_dentry(path, S_IFDIR | (mode & 0777));
 2032              		.loc 1 244 4 is_stmt 1 view .LVU563
 244:/mnt/c/Users/31740/Desktop/newcore/fs/vfs.c ****    return create_new_dentry(path, S_IFDIR | (mode & 0777));
 2033              		.loc 1 244 6 is_stmt 0 view .LVU564
 2034 0002 0B46     		mov	r3, r1
 2035 0004 09B9     		cbnz	r1, .L150
 244:/mnt/c/Users/31740/Desktop/newcore/fs/vfs.c ****    return create_new_dentry(path, S_IFDIR | (mode & 0777));
 2036              		.loc 1 244 26 discriminator 1 view .LVU565
 2037 0006 40F2ED13 		movw	r3, #493
 2038              	.L150:
 2039              	.LVL229:
 245:/mnt/c/Users/31740/Desktop/newcore/fs/vfs.c **** }
 2040              		.loc 1 245 4 is_stmt 1 view .LVU566
 245:/mnt/c/Users/31740/Desktop/newcore/fs/vfs.c **** }
 2041              		.loc 1 245 11 is_stmt 0 view .LVU567
 2042 000a C3F30801 		ubfx	r1, r3, #0, #9
 2043 000e 41F48041 		orr	r1, r1, #16384
 2044 0012 FFF7FEFF 		bl	create_new_dentry
 2045              	.LVL230:
 246:/mnt/c/Users/31740/Desktop/newcore/fs/vfs.c **** EXPORT_SYMBOL(mkdir);
 2046              		.loc 1 246 1 view .LVU568
 2047 0016 08BD     		pop	{r3, pc}
 2048              		.cfi_endproc
 2049              	.LFE1044:
 2051              		.section	.rodata.root_fs_init.str1.4,"aMS",%progbits,1
 2052              		.align	2
 2053              	.LC5:
 2054 0000 696E6974 		.ascii	"initramfs\000"
 2054      72616D66 
 2054      7300
 2055 000a 0000     		.align	2
 2056              	.LC6:
 2057 000c 63616E20 		.ascii	"can not get root fs: devfs\012\000"
 2057      6E6F7420 
 2057      67657420 
 2057      726F6F74 
 2057      2066733A 
 2058              		.align	2
 2059              	.LC7:
 2060 0028 2F646576 		.ascii	"/dev\000"
 2060      00
 2061 002d 000000   		.align	2
 2062              	.LC8:
 2063 0030 2F746D70 		.ascii	"/tmp\000"
 2063      00
 2064 0035 000000   		.align	2
 2065              	.LC9:
 2066 0038 2F6D6E74 		.ascii	"/mnt\000"
 2066      00
 2067 003d 000000   		.align	2
 2068              	.LC10:
 2069 0040 2F737973 		.ascii	"/sys\000"
 2069      00
ARM GAS  /tmp/cccpLwD1.s 			page 54


 2070 0045 000000   		.align	2
 2071              	.LC11:
 2072 0048 2F746D70 		.ascii	"/tmp/pipe\000"
 2072      2F706970 
 2072      6500
 2073 0052 0000     		.align	2
 2074              	.LC12:
 2075 0054 64657666 		.ascii	"devfs\000"
 2075      7300
 2076 005a 0000     		.align	2
 2077              	.LC13:
 2078 005c 70697065 		.ascii	"pipefs\000"
 2078      667300
 2079 0063 00       		.align	2
 2080              	.LC14:
 2081 0064 73797366 		.ascii	"sysfs\000"
 2081      7300
 2082              		.section	.text.root_fs_init,"ax",%progbits
 2083              		.align	1
 2084              		.syntax unified
 2085              		.thumb
 2086              		.thumb_func
 2088              	root_fs_init:
 2089              	.LFB1055:
 434:/mnt/c/Users/31740/Desktop/newcore/fs/vfs.c **** 
 435:/mnt/c/Users/31740/Desktop/newcore/fs/vfs.c **** 
 436:/mnt/c/Users/31740/Desktop/newcore/fs/vfs.c **** static int root_fs_init()
 437:/mnt/c/Users/31740/Desktop/newcore/fs/vfs.c **** {
 2090              		.loc 1 437 1 is_stmt 1 view -0
 2091              		.cfi_startproc
 2092              		@ args = 0, pretend = 0, frame = 0
 2093              		@ frame_needed = 0, uses_anonymous_args = 0
 2094 0000 F0B5     		push	{r4, r5, r6, r7, lr}
 2095              	.LCFI37:
 2096              		.cfi_def_cfa_offset 20
 2097              		.cfi_offset 4, -20
 2098              		.cfi_offset 5, -16
 2099              		.cfi_offset 6, -12
 2100              		.cfi_offset 7, -8
 2101              		.cfi_offset 14, -4
 2102 0002 83B0     		sub	sp, sp, #12
 2103              	.LCFI38:
 2104              		.cfi_def_cfa_offset 32
 438:/mnt/c/Users/31740/Desktop/newcore/fs/vfs.c ****     int err;
 2105              		.loc 1 438 5 view .LVU570
 439:/mnt/c/Users/31740/Desktop/newcore/fs/vfs.c ****     err = mount_root_fs(CONFIG_ROOT_FILE_SYSTEM_MOUNT);
 2106              		.loc 1 439 5 view .LVU571
 2107              		.loc 1 439 11 is_stmt 0 view .LVU572
 2108 0004 2048     		ldr	r0, .L158
 2109 0006 FFF7FEFF 		bl	mount_root_fs
 2110              	.LVL231:
 440:/mnt/c/Users/31740/Desktop/newcore/fs/vfs.c ****     if(err < 0){
 2111              		.loc 1 440 5 is_stmt 1 view .LVU573
 2112              		.loc 1 440 7 is_stmt 0 view .LVU574
 2113 000a 0028     		cmp	r0, #0
 2114 000c 35DB     		blt	.L157
 441:/mnt/c/Users/31740/Desktop/newcore/fs/vfs.c ****         pr_info("can not get root fs: devfs\n");
ARM GAS  /tmp/cccpLwD1.s 			page 55


 442:/mnt/c/Users/31740/Desktop/newcore/fs/vfs.c ****         return -1;
 443:/mnt/c/Users/31740/Desktop/newcore/fs/vfs.c ****     }
 444:/mnt/c/Users/31740/Desktop/newcore/fs/vfs.c ****     
 445:/mnt/c/Users/31740/Desktop/newcore/fs/vfs.c ****     mount_all_file();
 2115              		.loc 1 445 5 is_stmt 1 view .LVU575
 2116 000e FFF7FEFF 		bl	mount_all_file
 2117              	.LVL232:
 446:/mnt/c/Users/31740/Desktop/newcore/fs/vfs.c ****     
 447:/mnt/c/Users/31740/Desktop/newcore/fs/vfs.c ****     mkdir("/dev",0755);
 2118              		.loc 1 447 5 view .LVU576
 2119 0012 1E4F     		ldr	r7, .L158+4
 2120 0014 40F2ED11 		movw	r1, #493
 2121 0018 3846     		mov	r0, r7
 2122 001a FFF7FEFF 		bl	mkdir
 2123              	.LVL233:
 448:/mnt/c/Users/31740/Desktop/newcore/fs/vfs.c ****     mkdir("/tmp",0755);
 2124              		.loc 1 448 5 view .LVU577
 2125 001e 40F2ED11 		movw	r1, #493
 2126 0022 1B48     		ldr	r0, .L158+8
 2127 0024 FFF7FEFF 		bl	mkdir
 2128              	.LVL234:
 449:/mnt/c/Users/31740/Desktop/newcore/fs/vfs.c ****     mkdir("/mnt",0755);
 2129              		.loc 1 449 5 view .LVU578
 2130 0028 40F2ED11 		movw	r1, #493
 2131 002c 1948     		ldr	r0, .L158+12
 2132 002e FFF7FEFF 		bl	mkdir
 2133              	.LVL235:
 450:/mnt/c/Users/31740/Desktop/newcore/fs/vfs.c ****     mkdir("/sys",0755);
 2134              		.loc 1 450 5 view .LVU579
 2135 0032 194D     		ldr	r5, .L158+16
 2136 0034 40F2ED11 		movw	r1, #493
 2137 0038 2846     		mov	r0, r5
 2138 003a FFF7FEFF 		bl	mkdir
 2139              	.LVL236:
 451:/mnt/c/Users/31740/Desktop/newcore/fs/vfs.c ****     mkdir("/tmp/pipe",NULL);
 2140              		.loc 1 451 5 view .LVU580
 2141 003e 174E     		ldr	r6, .L158+20
 2142 0040 0021     		movs	r1, #0
 2143 0042 3046     		mov	r0, r6
 2144 0044 FFF7FEFF 		bl	mkdir
 2145              	.LVL237:
 452:/mnt/c/Users/31740/Desktop/newcore/fs/vfs.c ****     sys_mount(NULL,"/dev","devfs",0,NULL);
 2146              		.loc 1 452 5 view .LVU581
 2147 0048 0024     		movs	r4, #0
 2148 004a 0094     		str	r4, [sp]
 2149 004c 2346     		mov	r3, r4
 2150 004e 144A     		ldr	r2, .L158+24
 2151 0050 3946     		mov	r1, r7
 2152 0052 2046     		mov	r0, r4
 2153 0054 FFF7FEFF 		bl	sys_mount
 2154              	.LVL238:
 453:/mnt/c/Users/31740/Desktop/newcore/fs/vfs.c ****     sys_mount(NULL,"/tmp/pipe","pipefs",0,NULL);
 2155              		.loc 1 453 5 view .LVU582
 2156 0058 0094     		str	r4, [sp]
 2157 005a 2346     		mov	r3, r4
 2158 005c 114A     		ldr	r2, .L158+28
 2159 005e 3146     		mov	r1, r6
ARM GAS  /tmp/cccpLwD1.s 			page 56


 2160 0060 2046     		mov	r0, r4
 2161 0062 FFF7FEFF 		bl	sys_mount
 2162              	.LVL239:
 454:/mnt/c/Users/31740/Desktop/newcore/fs/vfs.c ****     sys_mount(NULL,"/sys","sysfs",0,NULL);
 2163              		.loc 1 454 5 view .LVU583
 2164 0066 0094     		str	r4, [sp]
 2165 0068 2346     		mov	r3, r4
 2166 006a 0F4A     		ldr	r2, .L158+32
 2167 006c 2946     		mov	r1, r5
 2168 006e 2046     		mov	r0, r4
 2169 0070 FFF7FEFF 		bl	sys_mount
 2170              	.LVL240:
 455:/mnt/c/Users/31740/Desktop/newcore/fs/vfs.c ****     return 0;
 2171              		.loc 1 455 5 view .LVU584
 2172              		.loc 1 455 12 is_stmt 0 view .LVU585
 2173 0074 2046     		mov	r0, r4
 2174              	.L153:
 456:/mnt/c/Users/31740/Desktop/newcore/fs/vfs.c **** }
 2175              		.loc 1 456 1 view .LVU586
 2176 0076 03B0     		add	sp, sp, #12
 2177              	.LCFI39:
 2178              		.cfi_remember_state
 2179              		.cfi_def_cfa_offset 20
 2180              		@ sp needed
 2181 0078 F0BD     		pop	{r4, r5, r6, r7, pc}
 2182              	.LVL241:
 2183              	.L157:
 2184              	.LCFI40:
 2185              		.cfi_restore_state
 441:/mnt/c/Users/31740/Desktop/newcore/fs/vfs.c ****         return -1;
 2186              		.loc 1 441 9 is_stmt 1 view .LVU587
 2187 007a 0C49     		ldr	r1, .L158+36
 2188 007c 0620     		movs	r0, #6
 2189              	.LVL242:
 441:/mnt/c/Users/31740/Desktop/newcore/fs/vfs.c ****         return -1;
 2190              		.loc 1 441 9 is_stmt 0 view .LVU588
 2191 007e FFF7FEFF 		bl	printk
 2192              	.LVL243:
 442:/mnt/c/Users/31740/Desktop/newcore/fs/vfs.c ****     }
 2193              		.loc 1 442 9 is_stmt 1 view .LVU589
 442:/mnt/c/Users/31740/Desktop/newcore/fs/vfs.c ****     }
 2194              		.loc 1 442 16 is_stmt 0 view .LVU590
 2195 0082 4FF0FF30 		mov	r0, #-1
 2196 0086 F6E7     		b	.L153
 2197              	.L159:
 2198              		.align	2
 2199              	.L158:
 2200 0088 00000000 		.word	.LC5
 2201 008c 28000000 		.word	.LC7
 2202 0090 30000000 		.word	.LC8
 2203 0094 38000000 		.word	.LC9
 2204 0098 40000000 		.word	.LC10
 2205 009c 48000000 		.word	.LC11
 2206 00a0 54000000 		.word	.LC12
 2207 00a4 5C000000 		.word	.LC13
 2208 00a8 64000000 		.word	.LC14
 2209 00ac 0C000000 		.word	.LC6
ARM GAS  /tmp/cccpLwD1.s 			page 57


 2210              		.cfi_endproc
 2211              	.LFE1055:
 2213              		.section	.rodata.filp_open.str1.4,"aMS",%progbits,1
 2214              		.align	2
 2215              	.LC15:
 2216 0000 6F70656E 		.ascii	"open file %s\012\000"
 2216      2066696C 
 2216      65202573 
 2216      0A00
 2217 000e 0000     		.align	2
 2218              	.LC16:
 2219 0010 66696C65 		.ascii	"file not found\012\000"
 2219      206E6F74 
 2219      20666F75 
 2219      6E640A00 
 2220              		.align	2
 2221              	.LC17:
 2222 0020 74727920 		.ascii	"try create: %s\012\000"
 2222      63726561 
 2222      74653A20 
 2222      25730A00 
 2223              		.align	2
 2224              	.LC18:
 2225 0030 63616E20 		.ascii	"can not create file: %s\012\000"
 2225      6E6F7420 
 2225      63726561 
 2225      74652066 
 2225      696C653A 
 2226              		.section	.text.filp_open,"ax",%progbits
 2227              		.align	1
 2228              		.global	filp_open
 2229              		.syntax unified
 2230              		.thumb
 2231              		.thumb_func
 2233              	filp_open:
 2234              	.LVL244:
 2235              	.LFB1047:
 288:/mnt/c/Users/31740/Desktop/newcore/fs/vfs.c ****     printk(KERN_DEBUG "open file %s\n",path);
 2236              		.loc 1 288 1 is_stmt 1 view -0
 2237              		.cfi_startproc
 2238              		@ args = 0, pretend = 0, frame = 0
 2239              		@ frame_needed = 0, uses_anonymous_args = 0
 288:/mnt/c/Users/31740/Desktop/newcore/fs/vfs.c ****     printk(KERN_DEBUG "open file %s\n",path);
 2240              		.loc 1 288 1 is_stmt 0 view .LVU592
 2241 0000 F8B5     		push	{r3, r4, r5, r6, r7, lr}
 2242              	.LCFI41:
 2243              		.cfi_def_cfa_offset 24
 2244              		.cfi_offset 3, -24
 2245              		.cfi_offset 4, -20
 2246              		.cfi_offset 5, -16
 2247              		.cfi_offset 6, -12
 2248              		.cfi_offset 7, -8
 2249              		.cfi_offset 14, -4
 2250 0002 0546     		mov	r5, r0
 2251 0004 0E46     		mov	r6, r1
 2252 0006 1746     		mov	r7, r2
 289:/mnt/c/Users/31740/Desktop/newcore/fs/vfs.c ****     struct dentry*file_dentry = select_file(path,0);
ARM GAS  /tmp/cccpLwD1.s 			page 58


 2253              		.loc 1 289 5 is_stmt 1 view .LVU593
 2254 0008 0246     		mov	r2, r0
 2255              	.LVL245:
 289:/mnt/c/Users/31740/Desktop/newcore/fs/vfs.c ****     struct dentry*file_dentry = select_file(path,0);
 2256              		.loc 1 289 5 is_stmt 0 view .LVU594
 2257 000a 3E49     		ldr	r1, .L174
 2258              	.LVL246:
 289:/mnt/c/Users/31740/Desktop/newcore/fs/vfs.c ****     struct dentry*file_dentry = select_file(path,0);
 2259              		.loc 1 289 5 view .LVU595
 2260 000c 0720     		movs	r0, #7
 2261              	.LVL247:
 289:/mnt/c/Users/31740/Desktop/newcore/fs/vfs.c ****     struct dentry*file_dentry = select_file(path,0);
 2262              		.loc 1 289 5 view .LVU596
 2263 000e FFF7FEFF 		bl	printk
 2264              	.LVL248:
 290:/mnt/c/Users/31740/Desktop/newcore/fs/vfs.c ****     if(IS_ERR(file_dentry))
 2265              		.loc 1 290 5 is_stmt 1 view .LVU597
 290:/mnt/c/Users/31740/Desktop/newcore/fs/vfs.c ****     if(IS_ERR(file_dentry))
 2266              		.loc 1 290 33 is_stmt 0 view .LVU598
 2267 0012 0021     		movs	r1, #0
 2268 0014 2846     		mov	r0, r5
 2269 0016 FFF7FEFF 		bl	select_file
 2270              	.LVL249:
 2271 001a 0446     		mov	r4, r0
 2272              	.LVL250:
 291:/mnt/c/Users/31740/Desktop/newcore/fs/vfs.c ****     {
 2273              		.loc 1 291 5 is_stmt 1 view .LVU599
 2274              	.LBB79:
 2275              	.LBI79:
  75:/mnt/c/Users/31740/Desktop/newcore/include/linux/err.h **** {
 2276              		.loc 5 75 33 view .LVU600
 2277              	.LBB80:
 2278              		.loc 5 77 2 view .LVU601
 2279              		.loc 5 77 2 is_stmt 0 view .LVU602
 2280              	.LBE80:
 2281              	.LBE79:
 291:/mnt/c/Users/31740/Desktop/newcore/fs/vfs.c ****     {
 2282              		.loc 1 291 7 discriminator 1 view .LVU603
 2283 001c 10F5805F 		cmn	r0, #4096
 2284 0020 41D8     		bhi	.L170
 2285              	.L161:
 307:/mnt/c/Users/31740/Desktop/newcore/fs/vfs.c ****     if(IS_ERR(file))
 2286              		.loc 1 307 5 is_stmt 1 view .LVU604
 307:/mnt/c/Users/31740/Desktop/newcore/fs/vfs.c ****     if(IS_ERR(file))
 2287              		.loc 1 307 25 is_stmt 0 view .LVU605
 2288 0022 2046     		mov	r0, r4
 307:/mnt/c/Users/31740/Desktop/newcore/fs/vfs.c ****     if(IS_ERR(file))
 2289              		.loc 1 307 25 view .LVU606
 2290 0024 FFF7FEFF 		bl	f_get
 2291              	.LVL251:
 307:/mnt/c/Users/31740/Desktop/newcore/fs/vfs.c ****     if(IS_ERR(file))
 2292              		.loc 1 307 25 view .LVU607
 2293 0028 0446     		mov	r4, r0
 2294              	.LVL252:
 308:/mnt/c/Users/31740/Desktop/newcore/fs/vfs.c ****         return ERR_PTR(-ENOMEM);
 2295              		.loc 1 308 5 is_stmt 1 view .LVU608
 2296              	.LBB81:
ARM GAS  /tmp/cccpLwD1.s 			page 59


 2297              	.LBI81:
  75:/mnt/c/Users/31740/Desktop/newcore/include/linux/err.h **** {
 2298              		.loc 5 75 33 view .LVU609
 2299              	.LBB82:
 2300              		.loc 5 77 2 view .LVU610
 2301              		.loc 5 77 9 is_stmt 0 view .LVU611
 2302 002a 10F5805F 		cmn	r0, #4096
 2303 002e 94BF     		ite	ls
 2304 0030 0025     		movls	r5, #0
 2305              	.LVL253:
 2306              		.loc 5 77 9 view .LVU612
 2307 0032 0125     		movhi	r5, #1
 2308              	.LVL254:
 2309              		.loc 5 77 9 view .LVU613
 2310              	.LBE82:
 2311              	.LBE81:
 308:/mnt/c/Users/31740/Desktop/newcore/fs/vfs.c ****         return ERR_PTR(-ENOMEM);
 2312              		.loc 1 308 7 discriminator 1 view .LVU614
 2313 0034 002D     		cmp	r5, #0
 2314 0036 61D1     		bne	.L168
 311:/mnt/c/Users/31740/Desktop/newcore/fs/vfs.c ****         file->f_pos = 0;
 2315              		.loc 1 311 5 is_stmt 1 view .LVU615
 311:/mnt/c/Users/31740/Desktop/newcore/fs/vfs.c ****         file->f_pos = 0;
 2316              		.loc 1 311 14 is_stmt 0 view .LVU616
 2317 0038 C36A     		ldr	r3, [r0, #44]
 311:/mnt/c/Users/31740/Desktop/newcore/fs/vfs.c ****         file->f_pos = 0;
 2318              		.loc 1 311 23 view .LVU617
 2319 003a 1B88     		ldrh	r3, [r3]
 311:/mnt/c/Users/31740/Desktop/newcore/fs/vfs.c ****         file->f_pos = 0;
 2320              		.loc 1 311 8 view .LVU618
 2321 003c 03F47043 		and	r3, r3, #61440
 2322 0040 B3F5804F 		cmp	r3, #16384
 2323 0044 50D0     		beq	.L171
 2324              	.L163:
 315:/mnt/c/Users/31740/Desktop/newcore/fs/vfs.c ****     file->f_mode = mode;
 2325              		.loc 1 315 5 is_stmt 1 view .LVU619
 315:/mnt/c/Users/31740/Desktop/newcore/fs/vfs.c ****     file->f_mode = mode;
 2326              		.loc 1 315 19 is_stmt 0 view .LVU620
 2327 0046 2663     		str	r6, [r4, #48]
 316:/mnt/c/Users/31740/Desktop/newcore/fs/vfs.c ****     int flag = 0;
 2328              		.loc 1 316 5 is_stmt 1 view .LVU621
 316:/mnt/c/Users/31740/Desktop/newcore/fs/vfs.c ****     int flag = 0;
 2329              		.loc 1 316 18 is_stmt 0 view .LVU622
 2330 0048 2762     		str	r7, [r4, #32]
 317:/mnt/c/Users/31740/Desktop/newcore/fs/vfs.c ****     spin_lock(&file->f_slock);
 2331              		.loc 1 317 5 is_stmt 1 view .LVU623
 2332              	.LVL255:
 318:/mnt/c/Users/31740/Desktop/newcore/fs/vfs.c ****     if(file->f_op != NULL){
 2333              		.loc 1 318 5 view .LVU624
 2334 004a 04F15C06 		add	r6, r4, #92
 2335              	.LVL256:
 318:/mnt/c/Users/31740/Desktop/newcore/fs/vfs.c ****     if(file->f_op != NULL){
 2336              		.loc 1 318 5 is_stmt 0 view .LVU625
 2337 004e 3046     		mov	r0, r6
 2338              	.LVL257:
 318:/mnt/c/Users/31740/Desktop/newcore/fs/vfs.c ****     if(file->f_op != NULL){
 2339              		.loc 1 318 5 view .LVU626
ARM GAS  /tmp/cccpLwD1.s 			page 60


 2340 0050 FFF7FEFF 		bl	spin_lock
 2341              	.LVL258:
 319:/mnt/c/Users/31740/Desktop/newcore/fs/vfs.c ****         spin_lock(&file->f_inode->i_lock);
 2342              		.loc 1 319 5 is_stmt 1 view .LVU627
 319:/mnt/c/Users/31740/Desktop/newcore/fs/vfs.c ****         spin_lock(&file->f_inode->i_lock);
 2343              		.loc 1 319 12 is_stmt 0 view .LVU628
 2344 0054 636A     		ldr	r3, [r4, #36]
 319:/mnt/c/Users/31740/Desktop/newcore/fs/vfs.c ****         spin_lock(&file->f_inode->i_lock);
 2345              		.loc 1 319 7 view .LVU629
 2346 0056 73B1     		cbz	r3, .L164
 320:/mnt/c/Users/31740/Desktop/newcore/fs/vfs.c ****         if(file->f_op->open != NULL)
 2347              		.loc 1 320 9 is_stmt 1 view .LVU630
 320:/mnt/c/Users/31740/Desktop/newcore/fs/vfs.c ****         if(file->f_op->open != NULL)
 2348              		.loc 1 320 24 is_stmt 0 view .LVU631
 2349 0058 E06A     		ldr	r0, [r4, #44]
 320:/mnt/c/Users/31740/Desktop/newcore/fs/vfs.c ****         if(file->f_op->open != NULL)
 2350              		.loc 1 320 9 view .LVU632
 2351 005a 5830     		adds	r0, r0, #88
 2352 005c FFF7FEFF 		bl	spin_lock
 2353              	.LVL259:
 321:/mnt/c/Users/31740/Desktop/newcore/fs/vfs.c ****         flag = file->f_op->open(file->f_inode,file);
 2354              		.loc 1 321 9 is_stmt 1 view .LVU633
 321:/mnt/c/Users/31740/Desktop/newcore/fs/vfs.c ****         flag = file->f_op->open(file->f_inode,file);
 2355              		.loc 1 321 16 is_stmt 0 view .LVU634
 2356 0060 636A     		ldr	r3, [r4, #36]
 321:/mnt/c/Users/31740/Desktop/newcore/fs/vfs.c ****         flag = file->f_op->open(file->f_inode,file);
 2357              		.loc 1 321 22 view .LVU635
 2358 0062 5B6B     		ldr	r3, [r3, #52]
 321:/mnt/c/Users/31740/Desktop/newcore/fs/vfs.c ****         flag = file->f_op->open(file->f_inode,file);
 2359              		.loc 1 321 11 view .LVU636
 2360 0064 1BB1     		cbz	r3, .L165
 322:/mnt/c/Users/31740/Desktop/newcore/fs/vfs.c ****         spin_unlock(&file->f_inode->i_lock);
 2361              		.loc 1 322 9 is_stmt 1 view .LVU637
 322:/mnt/c/Users/31740/Desktop/newcore/fs/vfs.c ****         spin_unlock(&file->f_inode->i_lock);
 2362              		.loc 1 322 16 is_stmt 0 view .LVU638
 2363 0066 2146     		mov	r1, r4
 2364 0068 E06A     		ldr	r0, [r4, #44]
 2365 006a 9847     		blx	r3
 2366              	.LVL260:
 2367 006c 0546     		mov	r5, r0
 2368              	.LVL261:
 2369              	.L165:
 323:/mnt/c/Users/31740/Desktop/newcore/fs/vfs.c ****     }
 2370              		.loc 1 323 9 is_stmt 1 view .LVU639
 323:/mnt/c/Users/31740/Desktop/newcore/fs/vfs.c ****     }
 2371              		.loc 1 323 26 is_stmt 0 view .LVU640
 2372 006e E06A     		ldr	r0, [r4, #44]
 323:/mnt/c/Users/31740/Desktop/newcore/fs/vfs.c ****     }
 2373              		.loc 1 323 9 view .LVU641
 2374 0070 5830     		adds	r0, r0, #88
 2375 0072 FFF7FEFF 		bl	spin_unlock
 2376              	.LVL262:
 2377              	.L164:
 325:/mnt/c/Users/31740/Desktop/newcore/fs/vfs.c ****     if(flag < 0){
 2378              		.loc 1 325 5 is_stmt 1 view .LVU642
 2379 0076 3046     		mov	r0, r6
 2380 0078 FFF7FEFF 		bl	spin_unlock
ARM GAS  /tmp/cccpLwD1.s 			page 61


 2381              	.LVL263:
 326:/mnt/c/Users/31740/Desktop/newcore/fs/vfs.c ****         f_put(file);
 2382              		.loc 1 326 5 view .LVU643
 326:/mnt/c/Users/31740/Desktop/newcore/fs/vfs.c ****         f_put(file);
 2383              		.loc 1 326 7 is_stmt 0 view .LVU644
 2384 007c 002D     		cmp	r5, #0
 2385 007e 38DB     		blt	.L172
 330:/mnt/c/Users/31740/Desktop/newcore/fs/vfs.c ****     file->f_flags |= O_RDONLY;
 2386              		.loc 1 330 5 is_stmt 1 view .LVU645
 331:/mnt/c/Users/31740/Desktop/newcore/fs/vfs.c ****     file->f_inode->i_atime_nsec  = jiffies/HZ;
 2387              		.loc 1 331 5 view .LVU646
 332:/mnt/c/Users/31740/Desktop/newcore/fs/vfs.c ****     file->f_inode->i_atime_nsec  = jiffies%HZ;
 2388              		.loc 1 332 5 view .LVU647
 332:/mnt/c/Users/31740/Desktop/newcore/fs/vfs.c ****     file->f_inode->i_atime_nsec  = jiffies%HZ;
 2389              		.loc 1 332 36 is_stmt 0 view .LVU648
 2390 0080 FFF7FEFF 		bl	ktime_get
 2391              	.LVL264:
 332:/mnt/c/Users/31740/Desktop/newcore/fs/vfs.c ****     file->f_inode->i_atime_nsec  = jiffies%HZ;
 2392              		.loc 1 332 9 discriminator 1 view .LVU649
 2393 0084 E36A     		ldr	r3, [r4, #44]
 332:/mnt/c/Users/31740/Desktop/newcore/fs/vfs.c ****     file->f_inode->i_atime_nsec  = jiffies%HZ;
 2394              		.loc 1 332 43 discriminator 1 view .LVU650
 2395 0086 204D     		ldr	r5, .L174+4
 2396              	.LVL265:
 332:/mnt/c/Users/31740/Desktop/newcore/fs/vfs.c ****     file->f_inode->i_atime_nsec  = jiffies%HZ;
 2397              		.loc 1 332 43 discriminator 1 view .LVU651
 2398 0088 2A68     		ldr	r2, [r5]
 2399 008a B0FBF2F0 		udiv	r0, r0, r2
 332:/mnt/c/Users/31740/Desktop/newcore/fs/vfs.c ****     file->f_inode->i_atime_nsec  = jiffies%HZ;
 2400              		.loc 1 332 34 discriminator 1 view .LVU652
 2401 008e 5863     		str	r0, [r3, #52]
 333:/mnt/c/Users/31740/Desktop/newcore/fs/vfs.c ****     return file;
 2402              		.loc 1 333 5 is_stmt 1 view .LVU653
 333:/mnt/c/Users/31740/Desktop/newcore/fs/vfs.c ****     return file;
 2403              		.loc 1 333 36 is_stmt 0 view .LVU654
 2404 0090 FFF7FEFF 		bl	ktime_get
 2405              	.LVL266:
 333:/mnt/c/Users/31740/Desktop/newcore/fs/vfs.c ****     return file;
 2406              		.loc 1 333 9 discriminator 1 view .LVU655
 2407 0094 E26A     		ldr	r2, [r4, #44]
 333:/mnt/c/Users/31740/Desktop/newcore/fs/vfs.c ****     return file;
 2408              		.loc 1 333 43 discriminator 1 view .LVU656
 2409 0096 2B68     		ldr	r3, [r5]
 2410 0098 B0FBF3F1 		udiv	r1, r0, r3
 2411 009c 03FB1100 		mls	r0, r3, r1, r0
 333:/mnt/c/Users/31740/Desktop/newcore/fs/vfs.c ****     return file;
 2412              		.loc 1 333 34 discriminator 1 view .LVU657
 2413 00a0 5063     		str	r0, [r2, #52]
 334:/mnt/c/Users/31740/Desktop/newcore/fs/vfs.c **** }
 2414              		.loc 1 334 5 is_stmt 1 view .LVU658
 2415              	.LVL267:
 2416              	.L160:
 335:/mnt/c/Users/31740/Desktop/newcore/fs/vfs.c **** EXPORT_SYMBOL(filp_open);
 2417              		.loc 1 335 1 is_stmt 0 view .LVU659
 2418 00a2 2046     		mov	r0, r4
 2419 00a4 F8BD     		pop	{r3, r4, r5, r6, r7, pc}
 2420              	.LVL268:
ARM GAS  /tmp/cccpLwD1.s 			page 62


 2421              	.L170:
 293:/mnt/c/Users/31740/Desktop/newcore/fs/vfs.c ****         if (PTR_ERR(file_dentry) == -ENOENT && (flags & O_CREAT)) 
 2422              		.loc 1 293 9 is_stmt 1 view .LVU660
 2423 00a6 1949     		ldr	r1, .L174+8
 2424 00a8 0620     		movs	r0, #6
 2425              	.LVL269:
 293:/mnt/c/Users/31740/Desktop/newcore/fs/vfs.c ****         if (PTR_ERR(file_dentry) == -ENOENT && (flags & O_CREAT)) 
 2426              		.loc 1 293 9 is_stmt 0 view .LVU661
 2427 00aa FFF7FEFF 		bl	printk
 2428              	.LVL270:
 294:/mnt/c/Users/31740/Desktop/newcore/fs/vfs.c ****         {
 2429              		.loc 1 294 9 is_stmt 1 view .LVU662
 294:/mnt/c/Users/31740/Desktop/newcore/fs/vfs.c ****         {
 2430              		.loc 1 294 12 is_stmt 0 discriminator 1 view .LVU663
 2431 00ae 14F1020F 		cmn	r4, #2
 2432 00b2 02D0     		beq	.L173
 304:/mnt/c/Users/31740/Desktop/newcore/fs/vfs.c ****         }      
 2433              		.loc 1 304 20 view .LVU664
 2434 00b4 6FF00104 		mvn	r4, #1
 2435              	.LVL271:
 304:/mnt/c/Users/31740/Desktop/newcore/fs/vfs.c ****         }      
 2436              		.loc 1 304 20 view .LVU665
 2437 00b8 F3E7     		b	.L160
 2438              	.LVL272:
 2439              	.L173:
 294:/mnt/c/Users/31740/Desktop/newcore/fs/vfs.c ****         {
 2440              		.loc 1 294 45 discriminator 1 view .LVU666
 2441 00ba 16F0400F 		tst	r6, #64
 2442 00be F0D0     		beq	.L160
 296:/mnt/c/Users/31740/Desktop/newcore/fs/vfs.c ****             file_dentry = create_new_dentry((char *)path, S_IFREG | mode);
 2443              		.loc 1 296 13 is_stmt 1 view .LVU667
 2444 00c0 2A46     		mov	r2, r5
 2445 00c2 1349     		ldr	r1, .L174+12
 2446 00c4 0620     		movs	r0, #6
 2447 00c6 FFF7FEFF 		bl	printk
 2448              	.LVL273:
 297:/mnt/c/Users/31740/Desktop/newcore/fs/vfs.c ****             if (IS_ERR(file_dentry)){
 2449              		.loc 1 297 13 view .LVU668
 297:/mnt/c/Users/31740/Desktop/newcore/fs/vfs.c ****             if (IS_ERR(file_dentry)){
 2450              		.loc 1 297 27 is_stmt 0 view .LVU669
 2451 00ca 47F40041 		orr	r1, r7, #32768
 2452 00ce 2846     		mov	r0, r5
 2453 00d0 FFF7FEFF 		bl	create_new_dentry
 2454              	.LVL274:
 2455 00d4 0446     		mov	r4, r0
 2456              	.LVL275:
 298:/mnt/c/Users/31740/Desktop/newcore/fs/vfs.c ****                 pr_info("can not create file: %s\n", path);
 2457              		.loc 1 298 13 is_stmt 1 view .LVU670
 2458              	.LBB83:
 2459              	.LBI83:
  75:/mnt/c/Users/31740/Desktop/newcore/include/linux/err.h **** {
 2460              		.loc 5 75 33 view .LVU671
 2461              	.LBB84:
 2462              		.loc 5 77 2 view .LVU672
 2463              		.loc 5 77 2 is_stmt 0 view .LVU673
 2464              	.LBE84:
 2465              	.LBE83:
ARM GAS  /tmp/cccpLwD1.s 			page 63


 298:/mnt/c/Users/31740/Desktop/newcore/fs/vfs.c ****                 pr_info("can not create file: %s\n", path);
 2466              		.loc 1 298 16 discriminator 1 view .LVU674
 2467 00d6 10F5805F 		cmn	r0, #4096
 2468 00da A2D9     		bls	.L161
 299:/mnt/c/Users/31740/Desktop/newcore/fs/vfs.c ****                 return (struct file *)file_dentry;
 2469              		.loc 1 299 17 is_stmt 1 view .LVU675
 2470 00dc 2A46     		mov	r2, r5
 2471 00de 0D49     		ldr	r1, .L174+16
 2472 00e0 0620     		movs	r0, #6
 2473              	.LVL276:
 299:/mnt/c/Users/31740/Desktop/newcore/fs/vfs.c ****                 return (struct file *)file_dentry;
 2474              		.loc 1 299 17 is_stmt 0 view .LVU676
 2475 00e2 FFF7FEFF 		bl	printk
 2476              	.LVL277:
 300:/mnt/c/Users/31740/Desktop/newcore/fs/vfs.c ****             }
 2477              		.loc 1 300 17 is_stmt 1 view .LVU677
 300:/mnt/c/Users/31740/Desktop/newcore/fs/vfs.c ****             }
 2478              		.loc 1 300 24 is_stmt 0 view .LVU678
 2479 00e6 DCE7     		b	.L160
 2480              	.LVL278:
 2481              	.L171:
 312:/mnt/c/Users/31740/Desktop/newcore/fs/vfs.c ****     }
 2482              		.loc 1 312 9 is_stmt 1 view .LVU679
 312:/mnt/c/Users/31740/Desktop/newcore/fs/vfs.c ****     }
 2483              		.loc 1 312 21 is_stmt 0 view .LVU680
 2484 00e8 0022     		movs	r2, #0
 2485 00ea 0023     		movs	r3, #0
 2486 00ec C0E91423 		strd	r2, [r0, #80]
 2487 00f0 A9E7     		b	.L163
 2488              	.LVL279:
 2489              	.L172:
 327:/mnt/c/Users/31740/Desktop/newcore/fs/vfs.c ****         return NULL;
 2490              		.loc 1 327 9 is_stmt 1 view .LVU681
 2491 00f2 2046     		mov	r0, r4
 2492 00f4 FFF7FEFF 		bl	f_put
 2493              	.LVL280:
 328:/mnt/c/Users/31740/Desktop/newcore/fs/vfs.c ****     }
 2494              		.loc 1 328 9 view .LVU682
 328:/mnt/c/Users/31740/Desktop/newcore/fs/vfs.c ****     }
 2495              		.loc 1 328 16 is_stmt 0 view .LVU683
 2496 00f8 0024     		movs	r4, #0
 2497              	.LVL281:
 328:/mnt/c/Users/31740/Desktop/newcore/fs/vfs.c ****     }
 2498              		.loc 1 328 16 view .LVU684
 2499 00fa D2E7     		b	.L160
 2500              	.LVL282:
 2501              	.L168:
 309:/mnt/c/Users/31740/Desktop/newcore/fs/vfs.c **** 
 2502              		.loc 1 309 16 view .LVU685
 2503 00fc 6FF00B04 		mvn	r4, #11
 2504 0100 CFE7     		b	.L160
 2505              	.L175:
 2506 0102 00BF     		.align	2
 2507              	.L174:
 2508 0104 00000000 		.word	.LC15
 2509 0108 00000000 		.word	HZ
 2510 010c 10000000 		.word	.LC16
ARM GAS  /tmp/cccpLwD1.s 			page 64


 2511 0110 20000000 		.word	.LC17
 2512 0114 30000000 		.word	.LC18
 2513              		.cfi_endproc
 2514              	.LFE1047:
 2516              		.section	.text.get_file_mode,"ax",%progbits
 2517              		.align	1
 2518              		.global	get_file_mode
 2519              		.syntax unified
 2520              		.thumb
 2521              		.thumb_func
 2523              	get_file_mode:
 2524              	.LVL283:
 2525              	.LFB1045:
 250:/mnt/c/Users/31740/Desktop/newcore/fs/vfs.c ****     struct dentry*file_dentry = select_file(path,0);
 2526              		.loc 1 250 34 is_stmt 1 view -0
 2527              		.cfi_startproc
 2528              		@ args = 0, pretend = 0, frame = 0
 2529              		@ frame_needed = 0, uses_anonymous_args = 0
 250:/mnt/c/Users/31740/Desktop/newcore/fs/vfs.c ****     struct dentry*file_dentry = select_file(path,0);
 2530              		.loc 1 250 34 is_stmt 0 view .LVU687
 2531 0000 08B5     		push	{r3, lr}
 2532              	.LCFI42:
 2533              		.cfi_def_cfa_offset 8
 2534              		.cfi_offset 3, -8
 2535              		.cfi_offset 14, -4
 251:/mnt/c/Users/31740/Desktop/newcore/fs/vfs.c ****     if(IS_ERR(file_dentry)){
 2536              		.loc 1 251 5 is_stmt 1 view .LVU688
 251:/mnt/c/Users/31740/Desktop/newcore/fs/vfs.c ****     if(IS_ERR(file_dentry)){
 2537              		.loc 1 251 33 is_stmt 0 view .LVU689
 2538 0002 0021     		movs	r1, #0
 2539 0004 FFF7FEFF 		bl	select_file
 2540              	.LVL284:
 252:/mnt/c/Users/31740/Desktop/newcore/fs/vfs.c ****         return 0;
 2541              		.loc 1 252 5 is_stmt 1 view .LVU690
 2542              	.LBB85:
 2543              	.LBI85:
  75:/mnt/c/Users/31740/Desktop/newcore/include/linux/err.h **** {
 2544              		.loc 5 75 33 view .LVU691
 2545              	.LBB86:
 2546              		.loc 5 77 2 view .LVU692
 2547              		.loc 5 77 2 is_stmt 0 view .LVU693
 2548              	.LBE86:
 2549              	.LBE85:
 252:/mnt/c/Users/31740/Desktop/newcore/fs/vfs.c ****         return 0;
 2550              		.loc 1 252 7 discriminator 1 view .LVU694
 2551 0008 10F5805F 		cmn	r0, #4096
 2552 000c 02D8     		bhi	.L178
 255:/mnt/c/Users/31740/Desktop/newcore/fs/vfs.c **** }
 2553              		.loc 1 255 5 is_stmt 1 view .LVU695
 255:/mnt/c/Users/31740/Desktop/newcore/fs/vfs.c **** }
 2554              		.loc 1 255 23 is_stmt 0 view .LVU696
 2555 000e 836C     		ldr	r3, [r0, #72]
 255:/mnt/c/Users/31740/Desktop/newcore/fs/vfs.c **** }
 2556              		.loc 1 255 32 view .LVU697
 2557 0010 1888     		ldrh	r0, [r3]
 2558              	.LVL285:
 2559              	.L177:
ARM GAS  /tmp/cccpLwD1.s 			page 65


 256:/mnt/c/Users/31740/Desktop/newcore/fs/vfs.c **** void *print_mode(char *path)
 2560              		.loc 1 256 1 view .LVU698
 2561 0012 08BD     		pop	{r3, pc}
 2562              	.LVL286:
 2563              	.L178:
 253:/mnt/c/Users/31740/Desktop/newcore/fs/vfs.c ****     }
 2564              		.loc 1 253 16 view .LVU699
 2565 0014 0020     		movs	r0, #0
 2566              	.LVL287:
 253:/mnt/c/Users/31740/Desktop/newcore/fs/vfs.c ****     }
 2567              		.loc 1 253 16 view .LVU700
 2568 0016 FCE7     		b	.L177
 2569              		.cfi_endproc
 2570              	.LFE1045:
 2572              		.section	.rodata.print_mode.str1.4,"aMS",%progbits,1
 2573              		.align	2
 2574              	.LC19:
 2575 0000 46696C65 		.ascii	"File mode: %s\012\000"
 2575      206D6F64 
 2575      653A2025 
 2575      730A00
 2576              		.section	.text.print_mode,"ax",%progbits
 2577              		.align	1
 2578              		.global	print_mode
 2579              		.syntax unified
 2580              		.thumb
 2581              		.thumb_func
 2583              	print_mode:
 2584              	.LVL288:
 2585              	.LFB1046:
 258:/mnt/c/Users/31740/Desktop/newcore/fs/vfs.c ****     umode_t mode = get_file_mode(path);
 2586              		.loc 1 258 1 is_stmt 1 view -0
 2587              		.cfi_startproc
 2588              		@ args = 0, pretend = 0, frame = 16
 2589              		@ frame_needed = 0, uses_anonymous_args = 0
 258:/mnt/c/Users/31740/Desktop/newcore/fs/vfs.c ****     umode_t mode = get_file_mode(path);
 2590              		.loc 1 258 1 is_stmt 0 view .LVU702
 2591 0000 00B5     		push	{lr}
 2592              	.LCFI43:
 2593              		.cfi_def_cfa_offset 4
 2594              		.cfi_offset 14, -4
 2595 0002 85B0     		sub	sp, sp, #20
 2596              	.LCFI44:
 2597              		.cfi_def_cfa_offset 24
 259:/mnt/c/Users/31740/Desktop/newcore/fs/vfs.c ****     char data[10];
 2598              		.loc 1 259 5 is_stmt 1 view .LVU703
 259:/mnt/c/Users/31740/Desktop/newcore/fs/vfs.c ****     char data[10];
 2599              		.loc 1 259 20 is_stmt 0 view .LVU704
 2600 0004 FFF7FEFF 		bl	get_file_mode
 2601              	.LVL289:
 260:/mnt/c/Users/31740/Desktop/newcore/fs/vfs.c ****     data[0] = (S_ISDIR(mode)) ? 'd' : 
 2602              		.loc 1 260 5 is_stmt 1 view .LVU705
 261:/mnt/c/Users/31740/Desktop/newcore/fs/vfs.c ****     (S_ISCHR(mode)) ? 'c' : 
 2603              		.loc 1 261 5 view .LVU706
 2604 0008 00F47043 		and	r3, r0, #61440
 261:/mnt/c/Users/31740/Desktop/newcore/fs/vfs.c ****     (S_ISCHR(mode)) ? 'c' : 
 2605              		.loc 1 261 13 is_stmt 0 view .LVU707
ARM GAS  /tmp/cccpLwD1.s 			page 66


 2606 000c B3F5804F 		cmp	r3, #16384
 2607 0010 12D0     		beq	.L191
 261:/mnt/c/Users/31740/Desktop/newcore/fs/vfs.c ****     (S_ISCHR(mode)) ? 'c' : 
 2608              		.loc 1 261 13 discriminator 1 view .LVU708
 2609 0012 B3F5005F 		cmp	r3, #8192
 2610 0016 51D0     		beq	.L192
 261:/mnt/c/Users/31740/Desktop/newcore/fs/vfs.c ****     (S_ISCHR(mode)) ? 'c' : 
 2611              		.loc 1 261 13 discriminator 3 view .LVU709
 2612 0018 B3F5C04F 		cmp	r3, #24576
 2613 001c 50D0     		beq	.L193
 261:/mnt/c/Users/31740/Desktop/newcore/fs/vfs.c ****     (S_ISCHR(mode)) ? 'c' : 
 2614              		.loc 1 261 13 discriminator 5 view .LVU710
 2615 001e B3F5805F 		cmp	r3, #4096
 2616 0022 4FD0     		beq	.L194
 261:/mnt/c/Users/31740/Desktop/newcore/fs/vfs.c ****     (S_ISCHR(mode)) ? 'c' : 
 2617              		.loc 1 261 13 discriminator 7 view .LVU711
 2618 0024 B3F5204F 		cmp	r3, #40960
 2619 0028 4ED0     		beq	.L195
 261:/mnt/c/Users/31740/Desktop/newcore/fs/vfs.c ****     (S_ISCHR(mode)) ? 'c' : 
 2620              		.loc 1 261 13 discriminator 9 view .LVU712
 2621 002a B3F5404F 		cmp	r3, #49152
 2622 002e 01D0     		beq	.L207
 261:/mnt/c/Users/31740/Desktop/newcore/fs/vfs.c ****     (S_ISCHR(mode)) ? 'c' : 
 2623              		.loc 1 261 13 discriminator 12 view .LVU713
 2624 0030 2D23     		movs	r3, #45
 2625 0032 02E0     		b	.L181
 2626              	.L207:
 261:/mnt/c/Users/31740/Desktop/newcore/fs/vfs.c ****     (S_ISCHR(mode)) ? 'c' : 
 2627              		.loc 1 261 13 discriminator 11 view .LVU714
 2628 0034 7323     		movs	r3, #115
 2629 0036 00E0     		b	.L181
 2630              	.L191:
 261:/mnt/c/Users/31740/Desktop/newcore/fs/vfs.c ****     (S_ISCHR(mode)) ? 'c' : 
 2631              		.loc 1 261 13 discriminator 2 view .LVU715
 2632 0038 6423     		movs	r3, #100
 2633              	.L181:
 261:/mnt/c/Users/31740/Desktop/newcore/fs/vfs.c ****     (S_ISCHR(mode)) ? 'c' : 
 2634              		.loc 1 261 13 discriminator 24 view .LVU716
 2635 003a 8DF80430 		strb	r3, [sp, #4]
 267:/mnt/c/Users/31740/Desktop/newcore/fs/vfs.c ****     data[2] = (mode & S_IWUSR) ? 'w' : '-';
 2636              		.loc 1 267 5 is_stmt 1 view .LVU717
 267:/mnt/c/Users/31740/Desktop/newcore/fs/vfs.c ****     data[2] = (mode & S_IWUSR) ? 'w' : '-';
 2637              		.loc 1 267 13 is_stmt 0 view .LVU718
 2638 003e 10F4807F 		tst	r0, #256
 2639 0042 43D0     		beq	.L197
 267:/mnt/c/Users/31740/Desktop/newcore/fs/vfs.c ****     data[2] = (mode & S_IWUSR) ? 'w' : '-';
 2640              		.loc 1 267 13 discriminator 1 view .LVU719
 2641 0044 7223     		movs	r3, #114
 2642              	.L182:
 267:/mnt/c/Users/31740/Desktop/newcore/fs/vfs.c ****     data[2] = (mode & S_IWUSR) ? 'w' : '-';
 2643              		.loc 1 267 13 discriminator 4 view .LVU720
 2644 0046 8DF80530 		strb	r3, [sp, #5]
 268:/mnt/c/Users/31740/Desktop/newcore/fs/vfs.c ****     data[3] = (mode & S_IXUSR) ? 'x' : '-';
 2645              		.loc 1 268 5 is_stmt 1 view .LVU721
 268:/mnt/c/Users/31740/Desktop/newcore/fs/vfs.c ****     data[3] = (mode & S_IXUSR) ? 'x' : '-';
 2646              		.loc 1 268 13 is_stmt 0 view .LVU722
 2647 004a 10F0800F 		tst	r0, #128
ARM GAS  /tmp/cccpLwD1.s 			page 67


 2648 004e 3FD0     		beq	.L198
 268:/mnt/c/Users/31740/Desktop/newcore/fs/vfs.c ****     data[3] = (mode & S_IXUSR) ? 'x' : '-';
 2649              		.loc 1 268 13 discriminator 1 view .LVU723
 2650 0050 7723     		movs	r3, #119
 2651              	.L183:
 268:/mnt/c/Users/31740/Desktop/newcore/fs/vfs.c ****     data[3] = (mode & S_IXUSR) ? 'x' : '-';
 2652              		.loc 1 268 13 discriminator 4 view .LVU724
 2653 0052 8DF80630 		strb	r3, [sp, #6]
 269:/mnt/c/Users/31740/Desktop/newcore/fs/vfs.c ****     data[4] = (mode & S_IRGRP) ? 'r' : '-';
 2654              		.loc 1 269 5 is_stmt 1 view .LVU725
 269:/mnt/c/Users/31740/Desktop/newcore/fs/vfs.c ****     data[4] = (mode & S_IRGRP) ? 'r' : '-';
 2655              		.loc 1 269 13 is_stmt 0 view .LVU726
 2656 0056 10F0400F 		tst	r0, #64
 2657 005a 3BD0     		beq	.L199
 269:/mnt/c/Users/31740/Desktop/newcore/fs/vfs.c ****     data[4] = (mode & S_IRGRP) ? 'r' : '-';
 2658              		.loc 1 269 13 discriminator 1 view .LVU727
 2659 005c 7823     		movs	r3, #120
 2660              	.L184:
 269:/mnt/c/Users/31740/Desktop/newcore/fs/vfs.c ****     data[4] = (mode & S_IRGRP) ? 'r' : '-';
 2661              		.loc 1 269 13 discriminator 4 view .LVU728
 2662 005e 8DF80730 		strb	r3, [sp, #7]
 270:/mnt/c/Users/31740/Desktop/newcore/fs/vfs.c ****     data[5] = (mode & S_IWGRP) ? 'w' : '-';
 2663              		.loc 1 270 5 is_stmt 1 view .LVU729
 270:/mnt/c/Users/31740/Desktop/newcore/fs/vfs.c ****     data[5] = (mode & S_IWGRP) ? 'w' : '-';
 2664              		.loc 1 270 13 is_stmt 0 view .LVU730
 2665 0062 10F0200F 		tst	r0, #32
 2666 0066 37D0     		beq	.L200
 270:/mnt/c/Users/31740/Desktop/newcore/fs/vfs.c ****     data[5] = (mode & S_IWGRP) ? 'w' : '-';
 2667              		.loc 1 270 13 discriminator 1 view .LVU731
 2668 0068 7223     		movs	r3, #114
 2669              	.L185:
 270:/mnt/c/Users/31740/Desktop/newcore/fs/vfs.c ****     data[5] = (mode & S_IWGRP) ? 'w' : '-';
 2670              		.loc 1 270 13 discriminator 4 view .LVU732
 2671 006a 8DF80830 		strb	r3, [sp, #8]
 271:/mnt/c/Users/31740/Desktop/newcore/fs/vfs.c ****     data[6] = (mode & S_IXGRP) ? 'x' : '-';
 2672              		.loc 1 271 5 is_stmt 1 view .LVU733
 271:/mnt/c/Users/31740/Desktop/newcore/fs/vfs.c ****     data[6] = (mode & S_IXGRP) ? 'x' : '-';
 2673              		.loc 1 271 13 is_stmt 0 view .LVU734
 2674 006e 10F0100F 		tst	r0, #16
 2675 0072 33D0     		beq	.L201
 271:/mnt/c/Users/31740/Desktop/newcore/fs/vfs.c ****     data[6] = (mode & S_IXGRP) ? 'x' : '-';
 2676              		.loc 1 271 13 discriminator 1 view .LVU735
 2677 0074 7723     		movs	r3, #119
 2678              	.L186:
 271:/mnt/c/Users/31740/Desktop/newcore/fs/vfs.c ****     data[6] = (mode & S_IXGRP) ? 'x' : '-';
 2679              		.loc 1 271 13 discriminator 4 view .LVU736
 2680 0076 8DF80930 		strb	r3, [sp, #9]
 272:/mnt/c/Users/31740/Desktop/newcore/fs/vfs.c ****     data[7] = (mode & S_IROTH) ? 'r' : '-';
 2681              		.loc 1 272 5 is_stmt 1 view .LVU737
 272:/mnt/c/Users/31740/Desktop/newcore/fs/vfs.c ****     data[7] = (mode & S_IROTH) ? 'r' : '-';
 2682              		.loc 1 272 13 is_stmt 0 view .LVU738
 2683 007a 10F0080F 		tst	r0, #8
 2684 007e 2FD0     		beq	.L202
 272:/mnt/c/Users/31740/Desktop/newcore/fs/vfs.c ****     data[7] = (mode & S_IROTH) ? 'r' : '-';
 2685              		.loc 1 272 13 discriminator 1 view .LVU739
 2686 0080 7823     		movs	r3, #120
 2687              	.L187:
ARM GAS  /tmp/cccpLwD1.s 			page 68


 272:/mnt/c/Users/31740/Desktop/newcore/fs/vfs.c ****     data[7] = (mode & S_IROTH) ? 'r' : '-';
 2688              		.loc 1 272 13 discriminator 4 view .LVU740
 2689 0082 8DF80A30 		strb	r3, [sp, #10]
 273:/mnt/c/Users/31740/Desktop/newcore/fs/vfs.c ****     data[8] = (mode & S_IWOTH) ? 'w' : '-';
 2690              		.loc 1 273 5 is_stmt 1 view .LVU741
 273:/mnt/c/Users/31740/Desktop/newcore/fs/vfs.c ****     data[8] = (mode & S_IWOTH) ? 'w' : '-';
 2691              		.loc 1 273 13 is_stmt 0 view .LVU742
 2692 0086 10F0040F 		tst	r0, #4
 2693 008a 2BD0     		beq	.L203
 273:/mnt/c/Users/31740/Desktop/newcore/fs/vfs.c ****     data[8] = (mode & S_IWOTH) ? 'w' : '-';
 2694              		.loc 1 273 13 discriminator 1 view .LVU743
 2695 008c 7223     		movs	r3, #114
 2696              	.L188:
 273:/mnt/c/Users/31740/Desktop/newcore/fs/vfs.c ****     data[8] = (mode & S_IWOTH) ? 'w' : '-';
 2697              		.loc 1 273 13 discriminator 4 view .LVU744
 2698 008e 8DF80B30 		strb	r3, [sp, #11]
 274:/mnt/c/Users/31740/Desktop/newcore/fs/vfs.c ****     data[9] = (mode & S_IXOTH) ? 'x' : '-';
 2699              		.loc 1 274 5 is_stmt 1 view .LVU745
 274:/mnt/c/Users/31740/Desktop/newcore/fs/vfs.c ****     data[9] = (mode & S_IXOTH) ? 'x' : '-';
 2700              		.loc 1 274 13 is_stmt 0 view .LVU746
 2701 0092 10F0020F 		tst	r0, #2
 2702 0096 27D0     		beq	.L204
 274:/mnt/c/Users/31740/Desktop/newcore/fs/vfs.c ****     data[9] = (mode & S_IXOTH) ? 'x' : '-';
 2703              		.loc 1 274 13 discriminator 1 view .LVU747
 2704 0098 7723     		movs	r3, #119
 2705              	.L189:
 274:/mnt/c/Users/31740/Desktop/newcore/fs/vfs.c ****     data[9] = (mode & S_IXOTH) ? 'x' : '-';
 2706              		.loc 1 274 13 discriminator 4 view .LVU748
 2707 009a 8DF80C30 		strb	r3, [sp, #12]
 275:/mnt/c/Users/31740/Desktop/newcore/fs/vfs.c ****     printk(KERN_INFO "File mode: %s\n", data);
 2708              		.loc 1 275 5 is_stmt 1 view .LVU749
 275:/mnt/c/Users/31740/Desktop/newcore/fs/vfs.c ****     printk(KERN_INFO "File mode: %s\n", data);
 2709              		.loc 1 275 13 is_stmt 0 view .LVU750
 2710 009e 10F0010F 		tst	r0, #1
 2711 00a2 23D0     		beq	.L205
 275:/mnt/c/Users/31740/Desktop/newcore/fs/vfs.c ****     printk(KERN_INFO "File mode: %s\n", data);
 2712              		.loc 1 275 13 discriminator 1 view .LVU751
 2713 00a4 7823     		movs	r3, #120
 2714              	.L190:
 275:/mnt/c/Users/31740/Desktop/newcore/fs/vfs.c ****     printk(KERN_INFO "File mode: %s\n", data);
 2715              		.loc 1 275 13 discriminator 4 view .LVU752
 2716 00a6 8DF80D30 		strb	r3, [sp, #13]
 276:/mnt/c/Users/31740/Desktop/newcore/fs/vfs.c ****     return NULL;
 2717              		.loc 1 276 5 is_stmt 1 view .LVU753
 2718 00aa 01AA     		add	r2, sp, #4
 2719 00ac 1049     		ldr	r1, .L208
 2720 00ae 0620     		movs	r0, #6
 2721              	.LVL290:
 276:/mnt/c/Users/31740/Desktop/newcore/fs/vfs.c ****     return NULL;
 2722              		.loc 1 276 5 is_stmt 0 view .LVU754
 2723 00b0 FFF7FEFF 		bl	printk
 2724              	.LVL291:
 277:/mnt/c/Users/31740/Desktop/newcore/fs/vfs.c **** }
 2725              		.loc 1 277 5 is_stmt 1 view .LVU755
 278:/mnt/c/Users/31740/Desktop/newcore/fs/vfs.c **** 
 2726              		.loc 1 278 1 is_stmt 0 view .LVU756
 2727 00b4 0020     		movs	r0, #0
ARM GAS  /tmp/cccpLwD1.s 			page 69


 2728 00b6 05B0     		add	sp, sp, #20
 2729              	.LCFI45:
 2730              		.cfi_remember_state
 2731              		.cfi_def_cfa_offset 4
 2732              		@ sp needed
 2733 00b8 5DF804FB 		ldr	pc, [sp], #4
 2734              	.LVL292:
 2735              	.L192:
 2736              	.LCFI46:
 2737              		.cfi_restore_state
 261:/mnt/c/Users/31740/Desktop/newcore/fs/vfs.c ****     (S_ISCHR(mode)) ? 'c' : 
 2738              		.loc 1 261 13 discriminator 4 view .LVU757
 2739 00bc 6323     		movs	r3, #99
 2740 00be BCE7     		b	.L181
 2741              	.L193:
 261:/mnt/c/Users/31740/Desktop/newcore/fs/vfs.c ****     (S_ISCHR(mode)) ? 'c' : 
 2742              		.loc 1 261 13 discriminator 6 view .LVU758
 2743 00c0 6223     		movs	r3, #98
 2744 00c2 BAE7     		b	.L181
 2745              	.L194:
 261:/mnt/c/Users/31740/Desktop/newcore/fs/vfs.c ****     (S_ISCHR(mode)) ? 'c' : 
 2746              		.loc 1 261 13 discriminator 8 view .LVU759
 2747 00c4 7023     		movs	r3, #112
 2748 00c6 B8E7     		b	.L181
 2749              	.L195:
 261:/mnt/c/Users/31740/Desktop/newcore/fs/vfs.c ****     (S_ISCHR(mode)) ? 'c' : 
 2750              		.loc 1 261 13 discriminator 10 view .LVU760
 2751 00c8 6C23     		movs	r3, #108
 2752 00ca B6E7     		b	.L181
 2753              	.L197:
 267:/mnt/c/Users/31740/Desktop/newcore/fs/vfs.c ****     data[2] = (mode & S_IWUSR) ? 'w' : '-';
 2754              		.loc 1 267 13 discriminator 2 view .LVU761
 2755 00cc 2D23     		movs	r3, #45
 2756 00ce BAE7     		b	.L182
 2757              	.L198:
 268:/mnt/c/Users/31740/Desktop/newcore/fs/vfs.c ****     data[3] = (mode & S_IXUSR) ? 'x' : '-';
 2758              		.loc 1 268 13 discriminator 2 view .LVU762
 2759 00d0 2D23     		movs	r3, #45
 2760 00d2 BEE7     		b	.L183
 2761              	.L199:
 269:/mnt/c/Users/31740/Desktop/newcore/fs/vfs.c ****     data[4] = (mode & S_IRGRP) ? 'r' : '-';
 2762              		.loc 1 269 13 discriminator 2 view .LVU763
 2763 00d4 2D23     		movs	r3, #45
 2764 00d6 C2E7     		b	.L184
 2765              	.L200:
 270:/mnt/c/Users/31740/Desktop/newcore/fs/vfs.c ****     data[5] = (mode & S_IWGRP) ? 'w' : '-';
 2766              		.loc 1 270 13 discriminator 2 view .LVU764
 2767 00d8 2D23     		movs	r3, #45
 2768 00da C6E7     		b	.L185
 2769              	.L201:
 271:/mnt/c/Users/31740/Desktop/newcore/fs/vfs.c ****     data[6] = (mode & S_IXGRP) ? 'x' : '-';
 2770              		.loc 1 271 13 discriminator 2 view .LVU765
 2771 00dc 2D23     		movs	r3, #45
 2772 00de CAE7     		b	.L186
 2773              	.L202:
 272:/mnt/c/Users/31740/Desktop/newcore/fs/vfs.c ****     data[7] = (mode & S_IROTH) ? 'r' : '-';
 2774              		.loc 1 272 13 discriminator 2 view .LVU766
ARM GAS  /tmp/cccpLwD1.s 			page 70


 2775 00e0 2D23     		movs	r3, #45
 2776 00e2 CEE7     		b	.L187
 2777              	.L203:
 273:/mnt/c/Users/31740/Desktop/newcore/fs/vfs.c ****     data[8] = (mode & S_IWOTH) ? 'w' : '-';
 2778              		.loc 1 273 13 discriminator 2 view .LVU767
 2779 00e4 2D23     		movs	r3, #45
 2780 00e6 D2E7     		b	.L188
 2781              	.L204:
 274:/mnt/c/Users/31740/Desktop/newcore/fs/vfs.c ****     data[9] = (mode & S_IXOTH) ? 'x' : '-';
 2782              		.loc 1 274 13 discriminator 2 view .LVU768
 2783 00e8 2D23     		movs	r3, #45
 2784 00ea D6E7     		b	.L189
 2785              	.L205:
 275:/mnt/c/Users/31740/Desktop/newcore/fs/vfs.c ****     printk(KERN_INFO "File mode: %s\n", data);
 2786              		.loc 1 275 13 discriminator 2 view .LVU769
 2787 00ec 2D23     		movs	r3, #45
 2788 00ee DAE7     		b	.L190
 2789              	.L209:
 2790              		.align	2
 2791              	.L208:
 2792 00f0 00000000 		.word	.LC19
 2793              		.cfi_endproc
 2794              	.LFE1046:
 2796              		.section	.rootfsinitcall,"aw"
 2797              		.align	2
 2800              	_initcall_root_fs_init:
 2801 0000 00000000 		.word	root_fs_init
 2802              		.section	.rodata.str1.4,"aMS",%progbits,1
 2803              		.align	2
 2804              	.LC20:
 2805 0000 66696C65 		.ascii	"file_close\000"
 2805      5F636C6F 
 2805      736500
 2806 000b 00       		.align	2
 2807              	.LC21:
 2808 000c 00       		.ascii	"\000"
 2809              		.section	.export_table,"aw"
 2810              		.align	2
 2813              	file_close_export_struct:
 2814 0000 00000000 		.word	.LC20
 2815 0004 0C000000 		.word	.LC21
 2816 0008 00000000 		.word	file_close
 2817              		.section	.rodata.str1.4
 2818 000d 000000   		.align	2
 2819              	.LC22:
 2820 0010 7666735F 		.ascii	"vfs_ioctl\000"
 2820      696F6374 
 2820      6C00
 2821              		.section	.export_table
 2822              		.align	2
 2825              	vfs_ioctl_export_struct:
 2826 000c 10000000 		.word	.LC22
 2827 0010 0C000000 		.word	.LC21
 2828 0014 00000000 		.word	vfs_ioctl
 2829              		.section	.rodata.str1.4
 2830 001a 0000     		.align	2
 2831              	.LC23:
ARM GAS  /tmp/cccpLwD1.s 			page 71


 2832 001c 6B65726E 		.ascii	"kernel_write\000"
 2832      656C5F77 
 2832      72697465 
 2832      00
 2833              		.section	.export_table
 2834              		.align	2
 2837              	kernel_write_export_struct:
 2838 0018 1C000000 		.word	.LC23
 2839 001c 0C000000 		.word	.LC21
 2840 0020 00000000 		.word	kernel_write
 2841              		.section	.rodata.str1.4
 2842 0029 000000   		.align	2
 2843              	.LC24:
 2844 002c 6B65726E 		.ascii	"kernel_read\000"
 2844      656C5F72 
 2844      65616400 
 2845              		.section	.export_table
 2846              		.align	2
 2849              	kernel_read_export_struct:
 2850 0024 2C000000 		.word	.LC24
 2851 0028 0C000000 		.word	.LC21
 2852 002c 00000000 		.word	kernel_read
 2853              		.section	.rodata.str1.4
 2854              		.align	2
 2855              	.LC25:
 2856 0038 66696C70 		.ascii	"filp_open\000"
 2856      5F6F7065 
 2856      6E00
 2857              		.section	.export_table
 2858              		.align	2
 2861              	filp_open_export_struct:
 2862 0030 38000000 		.word	.LC25
 2863 0034 0C000000 		.word	.LC21
 2864 0038 00000000 		.word	filp_open
 2865              		.section	.rodata.str1.4
 2866 0042 0000     		.align	2
 2867              	.LC26:
 2868 0044 6D6B6469 		.ascii	"mkdir\000"
 2868      7200
 2869              		.section	.export_table
 2870              		.align	2
 2873              	mkdir_export_struct:
 2874 003c 44000000 		.word	.LC26
 2875 0040 0C000000 		.word	.LC21
 2876 0044 00000000 		.word	mkdir
 2877              		.section	.rodata.str1.4
 2878 004a 0000     		.align	2
 2879              	.LC27:
 2880 004c 626C6B64 		.ascii	"blkdev_get_by_path\000"
 2880      65765F67 
 2880      65745F62 
 2880      795F7061 
 2880      746800
 2881              		.section	.export_table
 2882              		.align	2
 2885              	blkdev_get_by_path_export_struct:
 2886 0048 4C000000 		.word	.LC27
ARM GAS  /tmp/cccpLwD1.s 			page 72


 2887 004c 0C000000 		.word	.LC21
 2888 0050 00000000 		.word	blkdev_get_by_path
 2889              		.section	.rodata.str1.4
 2890 005f 00       		.align	2
 2891              	.LC28:
 2892 0060 72656D6F 		.ascii	"remove_dentry\000"
 2892      76655F64 
 2892      656E7472 
 2892      7900
 2893              		.section	.export_table
 2894              		.align	2
 2897              	remove_dentry_export_struct:
 2898 0054 60000000 		.word	.LC28
 2899 0058 0C000000 		.word	.LC21
 2900 005c 00000000 		.word	remove_dentry
 2901              		.global	root_dentry
 2902              		.section	.bss.root_dentry,"aw",%nobits
 2903              		.align	2
 2906              	root_dentry:
 2907 0000 00000000 		.space	4
 2908              		.text
 2909              	.Letext0:
 2910              		.file 6 "/mnt/c/Users/31740/Desktop/newcore/include/asm-generic/int-l64.h"
 2911              		.file 7 "/mnt/c/Users/31740/Desktop/newcore/include/asm-generic/posix_types.h"
 2912              		.file 8 "/mnt/c/Users/31740/Desktop/newcore/include/uapi/linux/types.h"
 2913              		.file 9 "/mnt/c/Users/31740/Desktop/newcore/include/linux/types.h"
 2914              		.file 10 "/mnt/c/Users/31740/Desktop/newcore/include/linux/init.h"
 2915              		.file 11 "/mnt/c/Users/31740/Desktop/newcore/include/linux/export.h"
 2916              		.file 12 "/mnt/c/Users/31740/Desktop/newcore/include/linux/errseq.h"
 2917              		.file 13 "/mnt/c/Users/31740/Desktop/newcore/include/linux/time64.h"
 2918              		.file 14 "/mnt/c/Users/31740/Desktop/newcore/arch/arm_m/include/asm/sched.h"
 2919              		.file 15 "/mnt/c/Users/31740/Desktop/newcore/include/linux/sched.h"
 2920              		.file 16 "/mnt/c/Users/31740/Desktop/newcore/include/linux/spinlock_types_raw.h"
 2921              		.file 17 "/mnt/c/Users/31740/Desktop/newcore/include/linux/spinlock_types.h"
 2922              		.file 18 "/mnt/c/Users/31740/Desktop/newcore/include/linux/rbtree_types.h"
 2923              		.file 19 "/mnt/c/Users/31740/Desktop/newcore/include/linux/uidgid_types.h"
 2924              		.file 20 "/mnt/c/Users/31740/Desktop/newcore/include/linux/projid.h"
 2925              		.file 21 "/mnt/c/Users/31740/Desktop/newcore/include/linux/fs.h"
 2926              		.file 22 "/mnt/c/Users/31740/Desktop/newcore/include/linux/mnt_idmapping.h"
 2927              		.file 23 "/mnt/c/Users/31740/Desktop/newcore/include/linux/mutex.h"
 2928              		.file 24 "/mnt/c/Users/31740/Desktop/newcore/include/linux/uio.h"
 2929              		.file 25 "/mnt/c/Users/31740/Desktop/newcore/include/linux/migrate_mode.h"
 2930              		.file 26 "/mnt/c/Users/31740/Desktop/newcore/include/linux/wait.h"
 2931              		.file 27 "/mnt/c/Users/31740/Desktop/newcore/include/linux/xarray.h"
 2932              		.file 28 "/mnt/c/Users/31740/Desktop/newcore/include/linux/rw_hint.h"
 2933              		.file 29 "/mnt/c/Users/31740/Desktop/newcore/include/linux/reciprocal_div.h"
 2934              		.file 30 "/mnt/c/Users/31740/Desktop/newcore/include/linux/slab.h"
 2935              		.file 31 "/mnt/c/Users/31740/Desktop/newcore/include/linux/mm_type.h"
 2936              		.file 32 "/mnt/c/Users/31740/Desktop/newcore/include/linux/bvec.h"
 2937              		.file 33 "/mnt/c/Users/31740/Desktop/newcore/include/linux/blk_types.h"
 2938              		.file 34 "/mnt/c/Users/31740/Desktop/newcore/include/linux/blkdev.h"
 2939              		.file 35 "/mnt/c/Users/31740/Desktop/newcore/include/linux/bio.h"
 2940              		.file 36 "/mnt/c/Users/31740/Desktop/newcore/include/linux/mempool_super_haper.h"
 2941              		.file 37 "/mnt/c/Users/31740/Desktop/newcore/include/linux/mempool.h"
 2942              		.file 38 "/mnt/c/Users/31740/Desktop/newcore/include/linux/lockdep_types.h"
 2943              		.file 39 "/mnt/c/Users/31740/Desktop/newcore/include/linux/workqueue_types.h"
 2944              		.file 40 "/mnt/c/Users/31740/Desktop/newcore/include/linux/blk-mq.h"
ARM GAS  /tmp/cccpLwD1.s 			page 73


 2945              		.file 41 "/mnt/c/Users/31740/Desktop/newcore/include/linux/dcache.h"
 2946              		.file 42 "/mnt/c/Users/31740/Desktop/newcore/include/uapi/linux/pr.h"
 2947              		.file 43 "/mnt/c/Users/31740/Desktop/newcore/include/linux/pr.h"
 2948              		.file 44 "/mnt/c/Users/31740/Desktop/newcore/include/linux/hdreg.h"
 2949              		.file 45 "/mnt/c/Users/31740/Desktop/newcore/include/linux/lockref.h"
 2950              		.file 46 "/mnt/c/Users/31740/Desktop/newcore/include/linux/path.h"
 2951              		.file 47 "/mnt/c/Users/31740/Desktop/newcore/include/linux/statfs.h"
 2952              		.file 48 "/mnt/c/Users/31740/Desktop/newcore/include/linux/stat.h"
 2953              		.file 49 "/mnt/c/Users/31740/Desktop/newcore/include/linux/initramfs.h"
 2954              		.file 50 "/mnt/c/Users/31740/Desktop/newcore/arch/arm_m/include/asm/string.h"
 2955              		.file 51 "/mnt/c/Users/31740/Desktop/newcore/include/linux/string.h"
 2956              		.file 52 "/mnt/c/Users/31740/Desktop/newcore/include/linux/time.h"
 2957              		.file 53 "/mnt/c/Users/31740/Desktop/newcore/include/linux/printk.h"
ARM GAS  /tmp/cccpLwD1.s 			page 74


DEFINED SYMBOLS
                            *ABS*:00000000 vfs.c
     /tmp/cccpLwD1.s:21     .text.__spin_unlock:00000000 $t
     /tmp/cccpLwD1.s:26     .text.__spin_unlock:00000000 __spin_unlock
     /tmp/cccpLwD1.s:45     .text.spin_unlock:00000000 $t
     /tmp/cccpLwD1.s:50     .text.spin_unlock:00000000 spin_unlock
     /tmp/cccpLwD1.s:73     .text.get_dir_name:00000000 $t
     /tmp/cccpLwD1.s:78     .text.get_dir_name:00000000 get_dir_name
     /tmp/cccpLwD1.s:190    .text.get_dir_number:00000000 $t
     /tmp/cccpLwD1.s:195    .text.get_dir_number:00000000 get_dir_number
     /tmp/cccpLwD1.s:253    .text.find_dentry:00000000 $t
     /tmp/cccpLwD1.s:258    .text.find_dentry:00000000 find_dentry
     /tmp/cccpLwD1.s:353    .rodata.create_dentry.str1.4:00000000 $d
     /tmp/cccpLwD1.s:357    .text.create_dentry:00000000 $t
     /tmp/cccpLwD1.s:362    .text.create_dentry:00000000 create_dentry
     /tmp/cccpLwD1.s:522    .text.create_dentry:00000084 $d
     /tmp/cccpLwD1.s:527    .rodata.print_read_only_message.str1.4:00000000 $d
     /tmp/cccpLwD1.s:531    .text.print_read_only_message:00000000 $t
     /tmp/cccpLwD1.s:536    .text.print_read_only_message:00000000 print_read_only_message
     /tmp/cccpLwD1.s:557    .text.print_read_only_message:0000000c $d
     /tmp/cccpLwD1.s:562    .rodata.__remove_dentry.str1.4:00000000 $d
     /tmp/cccpLwD1.s:566    .text.__remove_dentry:00000000 $t
     /tmp/cccpLwD1.s:571    .text.__remove_dentry:00000000 __remove_dentry
     /tmp/cccpLwD1.s:686    .text.__remove_dentry:0000005c $d
     /tmp/cccpLwD1.s:691    .text.__spin_lock:00000000 $t
     /tmp/cccpLwD1.s:696    .text.__spin_lock:00000000 __spin_lock
     /tmp/cccpLwD1.s:746    .text.spin_lock:00000000 $t
     /tmp/cccpLwD1.s:751    .text.spin_lock:00000000 spin_lock
     /tmp/cccpLwD1.s:811    .text.kernel_read:00000000 $t
     /tmp/cccpLwD1.s:817    .text.kernel_read:00000000 kernel_read
     /tmp/cccpLwD1.s:923    .text.kernel_write:00000000 $t
     /tmp/cccpLwD1.s:929    .text.kernel_write:00000000 kernel_write
     /tmp/cccpLwD1.s:1067   .text.kernel_write:0000008c $d
     /tmp/cccpLwD1.s:1072   .text.vfs_ioctl:00000000 $t
     /tmp/cccpLwD1.s:1078   .text.vfs_ioctl:00000000 vfs_ioctl
     /tmp/cccpLwD1.s:1196   .text.file_close:00000000 $t
     /tmp/cccpLwD1.s:1202   .text.file_close:00000000 file_close
     /tmp/cccpLwD1.s:1291   .rodata.create_path_and_file.str1.4:00000000 $d
     /tmp/cccpLwD1.s:1298   .text.create_path_and_file:00000000 $t
     /tmp/cccpLwD1.s:1303   .text.create_path_and_file:00000000 create_path_and_file
     /tmp/cccpLwD1.s:1556   .text.create_path_and_file:000000b8 $d
     /tmp/cccpLwD1.s:2906   .bss.root_dentry:00000000 root_dentry
     /tmp/cccpLwD1.s:1564   .text.mountfile_to_initramfs:00000000 $t
     /tmp/cccpLwD1.s:1569   .text.mountfile_to_initramfs:00000000 mountfile_to_initramfs
     /tmp/cccpLwD1.s:1618   .text.mount_all_file:00000000 $t
     /tmp/cccpLwD1.s:1623   .text.mount_all_file:00000000 mount_all_file
     /tmp/cccpLwD1.s:1664   .text.mount_all_file:00000018 $d
     /tmp/cccpLwD1.s:1670   .text.select_file:00000000 $t
     /tmp/cccpLwD1.s:1676   .text.select_file:00000000 select_file
     /tmp/cccpLwD1.s:1803   .text.select_file:00000060 $d
     /tmp/cccpLwD1.s:1808   .text.remove_dentry:00000000 $t
     /tmp/cccpLwD1.s:1814   .text.remove_dentry:00000000 remove_dentry
     /tmp/cccpLwD1.s:1866   .text.blkdev_get_by_path:00000000 $t
     /tmp/cccpLwD1.s:1872   .text.blkdev_get_by_path:00000000 blkdev_get_by_path
     /tmp/cccpLwD1.s:1905   .text.create_new_dentry:00000000 $t
     /tmp/cccpLwD1.s:1911   .text.create_new_dentry:00000000 create_new_dentry
     /tmp/cccpLwD1.s:2013   .text.mkdir:00000000 $t
ARM GAS  /tmp/cccpLwD1.s 			page 75


     /tmp/cccpLwD1.s:2019   .text.mkdir:00000000 mkdir
     /tmp/cccpLwD1.s:2052   .rodata.root_fs_init.str1.4:00000000 $d
     /tmp/cccpLwD1.s:2083   .text.root_fs_init:00000000 $t
     /tmp/cccpLwD1.s:2088   .text.root_fs_init:00000000 root_fs_init
     /tmp/cccpLwD1.s:2200   .text.root_fs_init:00000088 $d
     /tmp/cccpLwD1.s:2214   .rodata.filp_open.str1.4:00000000 $d
     /tmp/cccpLwD1.s:2227   .text.filp_open:00000000 $t
     /tmp/cccpLwD1.s:2233   .text.filp_open:00000000 filp_open
     /tmp/cccpLwD1.s:2508   .text.filp_open:00000104 $d
     /tmp/cccpLwD1.s:2517   .text.get_file_mode:00000000 $t
     /tmp/cccpLwD1.s:2523   .text.get_file_mode:00000000 get_file_mode
     /tmp/cccpLwD1.s:2573   .rodata.print_mode.str1.4:00000000 $d
     /tmp/cccpLwD1.s:2577   .text.print_mode:00000000 $t
     /tmp/cccpLwD1.s:2583   .text.print_mode:00000000 print_mode
     /tmp/cccpLwD1.s:2792   .text.print_mode:000000f0 $d
     /tmp/cccpLwD1.s:2797   .rootfsinitcall:00000000 $d
     /tmp/cccpLwD1.s:2800   .rootfsinitcall:00000000 _initcall_root_fs_init
     /tmp/cccpLwD1.s:2803   .rodata.str1.4:00000000 $d
     /tmp/cccpLwD1.s:2810   .export_table:00000000 $d
     /tmp/cccpLwD1.s:2813   .export_table:00000000 file_close_export_struct
     /tmp/cccpLwD1.s:2825   .export_table:0000000c vfs_ioctl_export_struct
     /tmp/cccpLwD1.s:2837   .export_table:00000018 kernel_write_export_struct
     /tmp/cccpLwD1.s:2849   .export_table:00000024 kernel_read_export_struct
     /tmp/cccpLwD1.s:2861   .export_table:00000030 filp_open_export_struct
     /tmp/cccpLwD1.s:2873   .export_table:0000003c mkdir_export_struct
     /tmp/cccpLwD1.s:2885   .export_table:00000048 blkdev_get_by_path_export_struct
     /tmp/cccpLwD1.s:2897   .export_table:00000054 remove_dentry_export_struct
     /tmp/cccpLwD1.s:2903   .bss.root_dentry:00000000 $d

UNDEFINED SYMBOLS
d_lookup_dentry
d_alloc
__d_drop
printk
simple_unlink
stop_all_scheduler
start_all_scheduler
get_current_task
__delay
ktime_get
HZ
f_put
strchr
strncpy
initram_fs_mount_file
__export_file_start
__export_file_end
devfs_get_blk_dev
mount_root_fs
sys_mount
f_get
