ARM GAS  /tmp/ccyCLDig.s 			page 1


   1              		.cpu cortex-m4
   2              		.arch armv7e-m
   3              		.fpu fpv4-sp-d16
   4              		.eabi_attribute 27, 1
   5              		.eabi_attribute 28, 1
   6              		.eabi_attribute 20, 1
   7              		.eabi_attribute 21, 1
   8              		.eabi_attribute 23, 3
   9              		.eabi_attribute 24, 1
  10              		.eabi_attribute 25, 1
  11              		.eabi_attribute 26, 1
  12              		.eabi_attribute 30, 1
  13              		.eabi_attribute 34, 1
  14              		.eabi_attribute 18, 4
  15              		.file	"w25qxx.c"
  16              		.text
  17              	.Ltext0:
  18              		.cfi_sections	.debug_frame
  19              		.file 1 "/mnt/c/Users/31740/Desktop/newcore/drivers/storage/w25qxx/w25qxx.c"
  20              		.section	.text.__kmap,"ax",%progbits
  21              		.align	1
  22              		.syntax unified
  23              		.thumb
  24              		.thumb_func
  26              	__kmap:
  27              	.LVL0:
  28              	.LFB918:
  29              		.file 2 "/mnt/c/Users/31740/Desktop/newcore/include/linux/mm_type.h"
   1:/mnt/c/Users/31740/Desktop/newcore/include/linux/mm_type.h **** /* SPDX-License-Identifier: GPL-2.0 */
   2:/mnt/c/Users/31740/Desktop/newcore/include/linux/mm_type.h **** #ifndef _LINUX_MM_TYPES_H
   3:/mnt/c/Users/31740/Desktop/newcore/include/linux/mm_type.h **** #define _LINUX_MM_TYPES_H
   4:/mnt/c/Users/31740/Desktop/newcore/include/linux/mm_type.h **** 
   5:/mnt/c/Users/31740/Desktop/newcore/include/linux/mm_type.h **** #include <linux/list.h>
   6:/mnt/c/Users/31740/Desktop/newcore/include/linux/mm_type.h **** #include <linux/spinlock.h>
   7:/mnt/c/Users/31740/Desktop/newcore/include/linux/mm_type.h **** #include <linux/slab.h>
   8:/mnt/c/Users/31740/Desktop/newcore/include/linux/mm_type.h **** #include <linux/atomic.h>
   9:/mnt/c/Users/31740/Desktop/newcore/include/linux/mm_type.h **** #include <linux/errno.h>
  10:/mnt/c/Users/31740/Desktop/newcore/include/linux/mm_type.h **** 
  11:/mnt/c/Users/31740/Desktop/newcore/include/linux/mm_type.h **** 
  12:/mnt/c/Users/31740/Desktop/newcore/include/linux/mm_type.h **** 
  13:/mnt/c/Users/31740/Desktop/newcore/include/linux/mm_type.h **** struct page {
  14:/mnt/c/Users/31740/Desktop/newcore/include/linux/mm_type.h **** 	unsigned long flags;		/* Atomic flags, some possibly
  15:/mnt/c/Users/31740/Desktop/newcore/include/linux/mm_type.h **** 					 * updated asynchronously */
  16:/mnt/c/Users/31740/Desktop/newcore/include/linux/mm_type.h **** 	/*
  17:/mnt/c/Users/31740/Desktop/newcore/include/linux/mm_type.h **** 	 * Five words (20/40 bytes) are available in this union.
  18:/mnt/c/Users/31740/Desktop/newcore/include/linux/mm_type.h **** 	 * WARNING: bit 0 of the first word is used for PageTail(). That
  19:/mnt/c/Users/31740/Desktop/newcore/include/linux/mm_type.h **** 	 * means the other users of this union MUST NOT use the bit to
  20:/mnt/c/Users/31740/Desktop/newcore/include/linux/mm_type.h **** 	 * avoid collision and false-positive PageTail().
  21:/mnt/c/Users/31740/Desktop/newcore/include/linux/mm_type.h **** 	 */
  22:/mnt/c/Users/31740/Desktop/newcore/include/linux/mm_type.h **** 	union {
  23:/mnt/c/Users/31740/Desktop/newcore/include/linux/mm_type.h **** 		struct {	/* Page cache and anonymous pages */
  24:/mnt/c/Users/31740/Desktop/newcore/include/linux/mm_type.h **** 			/**
  25:/mnt/c/Users/31740/Desktop/newcore/include/linux/mm_type.h **** 			 * @lru: Pageout list, eg. active_list protected by
  26:/mnt/c/Users/31740/Desktop/newcore/include/linux/mm_type.h **** 			 * lruvec->lru_lock.  Sometimes used as a generic list
  27:/mnt/c/Users/31740/Desktop/newcore/include/linux/mm_type.h **** 			 * by the page owner.
  28:/mnt/c/Users/31740/Desktop/newcore/include/linux/mm_type.h **** 			 */
  29:/mnt/c/Users/31740/Desktop/newcore/include/linux/mm_type.h **** 			union {
ARM GAS  /tmp/ccyCLDig.s 			page 2


  30:/mnt/c/Users/31740/Desktop/newcore/include/linux/mm_type.h **** 				struct list_head lru;
  31:/mnt/c/Users/31740/Desktop/newcore/include/linux/mm_type.h **** 
  32:/mnt/c/Users/31740/Desktop/newcore/include/linux/mm_type.h **** 				/* Or, for the Unevictable "LRU list" slot */
  33:/mnt/c/Users/31740/Desktop/newcore/include/linux/mm_type.h **** 				struct {
  34:/mnt/c/Users/31740/Desktop/newcore/include/linux/mm_type.h **** 					/* Always even, to negate PageTail */
  35:/mnt/c/Users/31740/Desktop/newcore/include/linux/mm_type.h **** 					void *__filler;
  36:/mnt/c/Users/31740/Desktop/newcore/include/linux/mm_type.h **** 					/* Count page's or folio's mlocks */
  37:/mnt/c/Users/31740/Desktop/newcore/include/linux/mm_type.h **** 					unsigned int mlock_count;
  38:/mnt/c/Users/31740/Desktop/newcore/include/linux/mm_type.h **** 				};
  39:/mnt/c/Users/31740/Desktop/newcore/include/linux/mm_type.h **** 
  40:/mnt/c/Users/31740/Desktop/newcore/include/linux/mm_type.h **** 				/* Or, free page */
  41:/mnt/c/Users/31740/Desktop/newcore/include/linux/mm_type.h **** 				struct list_head buddy_list;
  42:/mnt/c/Users/31740/Desktop/newcore/include/linux/mm_type.h **** 				struct list_head pcp_list;
  43:/mnt/c/Users/31740/Desktop/newcore/include/linux/mm_type.h **** 			};
  44:/mnt/c/Users/31740/Desktop/newcore/include/linux/mm_type.h **** 			/* See page-flags.h for PAGE_MAPPING_FLAGS */
  45:/mnt/c/Users/31740/Desktop/newcore/include/linux/mm_type.h **** 			struct address_space *mapping;
  46:/mnt/c/Users/31740/Desktop/newcore/include/linux/mm_type.h **** 			union {
  47:/mnt/c/Users/31740/Desktop/newcore/include/linux/mm_type.h **** 				pgoff_t index;		/* Our offset within mapping. */
  48:/mnt/c/Users/31740/Desktop/newcore/include/linux/mm_type.h **** 				unsigned long share;	/* share count for fsdax */
  49:/mnt/c/Users/31740/Desktop/newcore/include/linux/mm_type.h **** 			};
  50:/mnt/c/Users/31740/Desktop/newcore/include/linux/mm_type.h **** 			/**
  51:/mnt/c/Users/31740/Desktop/newcore/include/linux/mm_type.h **** 			 * @private: Mapping-private opaque data.
  52:/mnt/c/Users/31740/Desktop/newcore/include/linux/mm_type.h **** 			 * Usually used for buffer_heads if PagePrivate.
  53:/mnt/c/Users/31740/Desktop/newcore/include/linux/mm_type.h **** 			 * Used for swp_entry_t if swapcache flag set.
  54:/mnt/c/Users/31740/Desktop/newcore/include/linux/mm_type.h **** 			 * Indicates order in the buddy system if PageBuddy.
  55:/mnt/c/Users/31740/Desktop/newcore/include/linux/mm_type.h **** 			 */
  56:/mnt/c/Users/31740/Desktop/newcore/include/linux/mm_type.h **** 			unsigned long private;
  57:/mnt/c/Users/31740/Desktop/newcore/include/linux/mm_type.h **** 		};
  58:/mnt/c/Users/31740/Desktop/newcore/include/linux/mm_type.h **** 		struct {	/* page_pool used by netstack */
  59:/mnt/c/Users/31740/Desktop/newcore/include/linux/mm_type.h **** 			/**
  60:/mnt/c/Users/31740/Desktop/newcore/include/linux/mm_type.h **** 			 * @pp_magic: magic value to avoid recycling non
  61:/mnt/c/Users/31740/Desktop/newcore/include/linux/mm_type.h **** 			 * page_pool allocated pages.
  62:/mnt/c/Users/31740/Desktop/newcore/include/linux/mm_type.h **** 			 */
  63:/mnt/c/Users/31740/Desktop/newcore/include/linux/mm_type.h **** 			unsigned long pp_magic;
  64:/mnt/c/Users/31740/Desktop/newcore/include/linux/mm_type.h **** 		//	struct page_pool *pp; 
  65:/mnt/c/Users/31740/Desktop/newcore/include/linux/mm_type.h **** 			unsigned long _pp_mapping_pad;
  66:/mnt/c/Users/31740/Desktop/newcore/include/linux/mm_type.h **** 			unsigned long dma_addr;
  67:/mnt/c/Users/31740/Desktop/newcore/include/linux/mm_type.h **** 		//	atomic_long_t pp_ref_count;
  68:/mnt/c/Users/31740/Desktop/newcore/include/linux/mm_type.h **** 		};
  69:/mnt/c/Users/31740/Desktop/newcore/include/linux/mm_type.h **** 		struct {	/* Tail pages of compound page */
  70:/mnt/c/Users/31740/Desktop/newcore/include/linux/mm_type.h **** 			unsigned long compound_head;	/* Bit zero is set */
  71:/mnt/c/Users/31740/Desktop/newcore/include/linux/mm_type.h **** 		};
  72:/mnt/c/Users/31740/Desktop/newcore/include/linux/mm_type.h **** 		struct {	/* ZONE_DEVICE pages */
  73:/mnt/c/Users/31740/Desktop/newcore/include/linux/mm_type.h **** 			/** @pgmap: Points to the hosting device page map. */
  74:/mnt/c/Users/31740/Desktop/newcore/include/linux/mm_type.h **** 			// struct dev_pagemap *pgmap;
  75:/mnt/c/Users/31740/Desktop/newcore/include/linux/mm_type.h **** 			void *zone_device_data;
  76:/mnt/c/Users/31740/Desktop/newcore/include/linux/mm_type.h **** 			/*
  77:/mnt/c/Users/31740/Desktop/newcore/include/linux/mm_type.h **** 			 * ZONE_DEVICE private pages are counted as being
  78:/mnt/c/Users/31740/Desktop/newcore/include/linux/mm_type.h **** 			 * mapped so the next 3 words hold the mapping, index,
  79:/mnt/c/Users/31740/Desktop/newcore/include/linux/mm_type.h **** 			 * and private fields from the source anonymous or
  80:/mnt/c/Users/31740/Desktop/newcore/include/linux/mm_type.h **** 			 * page cache page while the page is migrated to device
  81:/mnt/c/Users/31740/Desktop/newcore/include/linux/mm_type.h **** 			 * private memory.
  82:/mnt/c/Users/31740/Desktop/newcore/include/linux/mm_type.h **** 			 * ZONE_DEVICE MEMORY_DEVICE_FS_DAX pages also
  83:/mnt/c/Users/31740/Desktop/newcore/include/linux/mm_type.h **** 			 * use the mapping, index, and private fields when
  84:/mnt/c/Users/31740/Desktop/newcore/include/linux/mm_type.h **** 			 * pmem backed DAX files are mapped.
  85:/mnt/c/Users/31740/Desktop/newcore/include/linux/mm_type.h **** 			 */
  86:/mnt/c/Users/31740/Desktop/newcore/include/linux/mm_type.h **** 		};
ARM GAS  /tmp/ccyCLDig.s 			page 3


  87:/mnt/c/Users/31740/Desktop/newcore/include/linux/mm_type.h **** 
  88:/mnt/c/Users/31740/Desktop/newcore/include/linux/mm_type.h **** 		/** @rcu_head: You can use this to free a page by RCU. */
  89:/mnt/c/Users/31740/Desktop/newcore/include/linux/mm_type.h **** 		struct rcu_head rcu_head;
  90:/mnt/c/Users/31740/Desktop/newcore/include/linux/mm_type.h **** 	};
  91:/mnt/c/Users/31740/Desktop/newcore/include/linux/mm_type.h **** 
  92:/mnt/c/Users/31740/Desktop/newcore/include/linux/mm_type.h **** 	union {		/* This union is 4 bytes in size. */
  93:/mnt/c/Users/31740/Desktop/newcore/include/linux/mm_type.h **** 		/*
  94:/mnt/c/Users/31740/Desktop/newcore/include/linux/mm_type.h **** 		 * For head pages of typed folios, the value stored here
  95:/mnt/c/Users/31740/Desktop/newcore/include/linux/mm_type.h **** 		 * allows for determining what this page is used for. The
  96:/mnt/c/Users/31740/Desktop/newcore/include/linux/mm_type.h **** 		 * tail pages of typed folios will not store a type
  97:/mnt/c/Users/31740/Desktop/newcore/include/linux/mm_type.h **** 		 * (page_type == _mapcount == -1).
  98:/mnt/c/Users/31740/Desktop/newcore/include/linux/mm_type.h **** 		 *
  99:/mnt/c/Users/31740/Desktop/newcore/include/linux/mm_type.h **** 		 * See page-flags.h for a list of page types which are currently
 100:/mnt/c/Users/31740/Desktop/newcore/include/linux/mm_type.h **** 		 * stored here.
 101:/mnt/c/Users/31740/Desktop/newcore/include/linux/mm_type.h **** 		 *
 102:/mnt/c/Users/31740/Desktop/newcore/include/linux/mm_type.h **** 		 * Owners of typed folios may reuse the lower 16 bit of the
 103:/mnt/c/Users/31740/Desktop/newcore/include/linux/mm_type.h **** 		 * head page page_type field after setting the page type,
 104:/mnt/c/Users/31740/Desktop/newcore/include/linux/mm_type.h **** 		 * but must reset these 16 bit to -1 before clearing the
 105:/mnt/c/Users/31740/Desktop/newcore/include/linux/mm_type.h **** 		 * page type.
 106:/mnt/c/Users/31740/Desktop/newcore/include/linux/mm_type.h **** 		 */
 107:/mnt/c/Users/31740/Desktop/newcore/include/linux/mm_type.h **** 		unsigned int page_type;
 108:/mnt/c/Users/31740/Desktop/newcore/include/linux/mm_type.h **** 
 109:/mnt/c/Users/31740/Desktop/newcore/include/linux/mm_type.h **** 		/*
 110:/mnt/c/Users/31740/Desktop/newcore/include/linux/mm_type.h **** 		 * For pages that are part of non-typed folios for which mappings
 111:/mnt/c/Users/31740/Desktop/newcore/include/linux/mm_type.h **** 		 * are tracked via the RMAP, encodes the number of times this page
 112:/mnt/c/Users/31740/Desktop/newcore/include/linux/mm_type.h **** 		 * is directly referenced by a page table.
 113:/mnt/c/Users/31740/Desktop/newcore/include/linux/mm_type.h **** 		 *
 114:/mnt/c/Users/31740/Desktop/newcore/include/linux/mm_type.h **** 		 * Note that the mapcount is always initialized to -1, so that
 115:/mnt/c/Users/31740/Desktop/newcore/include/linux/mm_type.h **** 		 * transitions both from it and to it can be tracked, using
 116:/mnt/c/Users/31740/Desktop/newcore/include/linux/mm_type.h **** 		 * atomic_inc_and_test() and atomic_add_negative(-1).
 117:/mnt/c/Users/31740/Desktop/newcore/include/linux/mm_type.h **** 		 */
 118:/mnt/c/Users/31740/Desktop/newcore/include/linux/mm_type.h **** 		atomic_t _mapcount;
 119:/mnt/c/Users/31740/Desktop/newcore/include/linux/mm_type.h **** 	};
 120:/mnt/c/Users/31740/Desktop/newcore/include/linux/mm_type.h **** 
 121:/mnt/c/Users/31740/Desktop/newcore/include/linux/mm_type.h **** 	/* Usage count. *DO NOT USE DIRECTLY*. See page_ref.h */
 122:/mnt/c/Users/31740/Desktop/newcore/include/linux/mm_type.h **** 	atomic_t _refcount;
 123:/mnt/c/Users/31740/Desktop/newcore/include/linux/mm_type.h **** 
 124:/mnt/c/Users/31740/Desktop/newcore/include/linux/mm_type.h **** #ifdef CONFIG_MEMCG
 125:/mnt/c/Users/31740/Desktop/newcore/include/linux/mm_type.h **** 	unsigned long memcg_data;
 126:/mnt/c/Users/31740/Desktop/newcore/include/linux/mm_type.h **** #elif defined(CONFIG_SLAB_OBJ_EXT)
 127:/mnt/c/Users/31740/Desktop/newcore/include/linux/mm_type.h **** 	unsigned long _unused_slab_obj_exts;
 128:/mnt/c/Users/31740/Desktop/newcore/include/linux/mm_type.h **** #endif
 129:/mnt/c/Users/31740/Desktop/newcore/include/linux/mm_type.h **** 
 130:/mnt/c/Users/31740/Desktop/newcore/include/linux/mm_type.h **** 	/*
 131:/mnt/c/Users/31740/Desktop/newcore/include/linux/mm_type.h **** 	 * On machines where all RAM is mapped into kernel address space,
 132:/mnt/c/Users/31740/Desktop/newcore/include/linux/mm_type.h **** 	 * we can simply calculate the virtual address. On machines with
 133:/mnt/c/Users/31740/Desktop/newcore/include/linux/mm_type.h **** 	 * highmem some memory is mapped into kernel virtual memory
 134:/mnt/c/Users/31740/Desktop/newcore/include/linux/mm_type.h **** 	 * dynamically, so we need a place to store that address.
 135:/mnt/c/Users/31740/Desktop/newcore/include/linux/mm_type.h **** 	 * Note that this field could be 16 bits on x86 ... ;)
 136:/mnt/c/Users/31740/Desktop/newcore/include/linux/mm_type.h **** 	 *
 137:/mnt/c/Users/31740/Desktop/newcore/include/linux/mm_type.h **** 	 * Architectures with slow multiplication can define
 138:/mnt/c/Users/31740/Desktop/newcore/include/linux/mm_type.h **** 	 * WANT_PAGE_VIRTUAL in asm/page.h
 139:/mnt/c/Users/31740/Desktop/newcore/include/linux/mm_type.h **** 	 */
 140:/mnt/c/Users/31740/Desktop/newcore/include/linux/mm_type.h **** #if defined(WANT_PAGE_VIRTUAL)
 141:/mnt/c/Users/31740/Desktop/newcore/include/linux/mm_type.h **** 	void *virtual;			/* Kernel virtual address (NULL if
 142:/mnt/c/Users/31740/Desktop/newcore/include/linux/mm_type.h **** 					   not kmapped, ie. highmem) */
 143:/mnt/c/Users/31740/Desktop/newcore/include/linux/mm_type.h **** #endif /* WANT_PAGE_VIRTUAL */
ARM GAS  /tmp/ccyCLDig.s 			page 4


 144:/mnt/c/Users/31740/Desktop/newcore/include/linux/mm_type.h **** 
 145:/mnt/c/Users/31740/Desktop/newcore/include/linux/mm_type.h **** #ifdef LAST_CPUPID_NOT_IN_PAGE_FLAGS
 146:/mnt/c/Users/31740/Desktop/newcore/include/linux/mm_type.h **** 	int _last_cpupid;
 147:/mnt/c/Users/31740/Desktop/newcore/include/linux/mm_type.h **** #endif
 148:/mnt/c/Users/31740/Desktop/newcore/include/linux/mm_type.h **** 
 149:/mnt/c/Users/31740/Desktop/newcore/include/linux/mm_type.h **** #ifdef CONFIG_KMSAN
 150:/mnt/c/Users/31740/Desktop/newcore/include/linux/mm_type.h **** 	/*
 151:/mnt/c/Users/31740/Desktop/newcore/include/linux/mm_type.h **** 	 * KMSAN metadata for this page:
 152:/mnt/c/Users/31740/Desktop/newcore/include/linux/mm_type.h **** 	 *  - shadow page: every bit indicates whether the corresponding
 153:/mnt/c/Users/31740/Desktop/newcore/include/linux/mm_type.h **** 	 *    bit of the original page is initialized (0) or not (1);
 154:/mnt/c/Users/31740/Desktop/newcore/include/linux/mm_type.h **** 	 *  - origin page: every 4 bytes contain an id of the stack trace
 155:/mnt/c/Users/31740/Desktop/newcore/include/linux/mm_type.h **** 	 *    where the uninitialized value was created.
 156:/mnt/c/Users/31740/Desktop/newcore/include/linux/mm_type.h **** 	 */
 157:/mnt/c/Users/31740/Desktop/newcore/include/linux/mm_type.h **** 	struct page *kmsan_shadow;
 158:/mnt/c/Users/31740/Desktop/newcore/include/linux/mm_type.h **** 	struct page *kmsan_origin;
 159:/mnt/c/Users/31740/Desktop/newcore/include/linux/mm_type.h **** #endif
 160:/mnt/c/Users/31740/Desktop/newcore/include/linux/mm_type.h **** };
 161:/mnt/c/Users/31740/Desktop/newcore/include/linux/mm_type.h **** 
 162:/mnt/c/Users/31740/Desktop/newcore/include/linux/mm_type.h **** #if CONFIG_MMU 
 163:/mnt/c/Users/31740/Desktop/newcore/include/linux/mm_type.h ****   #include <mm_page.h>
 164:/mnt/c/Users/31740/Desktop/newcore/include/linux/mm_type.h **** 
 165:/mnt/c/Users/31740/Desktop/newcore/include/linux/mm_type.h **** #else
 166:/mnt/c/Users/31740/Desktop/newcore/include/linux/mm_type.h **** 
 167:/mnt/c/Users/31740/Desktop/newcore/include/linux/mm_type.h **** 
 168:/mnt/c/Users/31740/Desktop/newcore/include/linux/mm_type.h **** 
 169:/mnt/c/Users/31740/Desktop/newcore/include/linux/mm_type.h **** 
 170:/mnt/c/Users/31740/Desktop/newcore/include/linux/mm_type.h **** #define PG_locked       (1 << 0)
 171:/mnt/c/Users/31740/Desktop/newcore/include/linux/mm_type.h **** #define PG_referenced   (1 << 1)
 172:/mnt/c/Users/31740/Desktop/newcore/include/linux/mm_type.h **** #define PG_uptodate     (1 << 2)
 173:/mnt/c/Users/31740/Desktop/newcore/include/linux/mm_type.h **** #define PG_dirty        (1 << 11)
 174:/mnt/c/Users/31740/Desktop/newcore/include/linux/mm_type.h **** #define PG_active       (1 << 12)
 175:/mnt/c/Users/31740/Desktop/newcore/include/linux/mm_type.h **** 
 176:/mnt/c/Users/31740/Desktop/newcore/include/linux/mm_type.h **** static inline void __set_page_flag(struct page *page, unsigned long flag){
 177:/mnt/c/Users/31740/Desktop/newcore/include/linux/mm_type.h ****     if (page)
 178:/mnt/c/Users/31740/Desktop/newcore/include/linux/mm_type.h ****         page->flags |= flag;
 179:/mnt/c/Users/31740/Desktop/newcore/include/linux/mm_type.h **** }
 180:/mnt/c/Users/31740/Desktop/newcore/include/linux/mm_type.h **** static inline void __clear_page_flag(struct page *page, unsigned long flag){
 181:/mnt/c/Users/31740/Desktop/newcore/include/linux/mm_type.h ****     if (page)
 182:/mnt/c/Users/31740/Desktop/newcore/include/linux/mm_type.h ****         page->flags &= ~flag;
 183:/mnt/c/Users/31740/Desktop/newcore/include/linux/mm_type.h **** }
 184:/mnt/c/Users/31740/Desktop/newcore/include/linux/mm_type.h **** 
 185:/mnt/c/Users/31740/Desktop/newcore/include/linux/mm_type.h **** static inline int __test_page_flag(struct page *page, unsigned long flag){
 186:/mnt/c/Users/31740/Desktop/newcore/include/linux/mm_type.h ****     return (page && (page->flags & flag)) ? 1 : 0;
 187:/mnt/c/Users/31740/Desktop/newcore/include/linux/mm_type.h **** }
 188:/mnt/c/Users/31740/Desktop/newcore/include/linux/mm_type.h **** 
 189:/mnt/c/Users/31740/Desktop/newcore/include/linux/mm_type.h **** static inline struct page *__page_create(gfp_t flags ){
 190:/mnt/c/Users/31740/Desktop/newcore/include/linux/mm_type.h ****     struct page *page = (struct page *)kmalloc(sizeof(struct page), flags);
 191:/mnt/c/Users/31740/Desktop/newcore/include/linux/mm_type.h ****     if (page == NULL)
 192:/mnt/c/Users/31740/Desktop/newcore/include/linux/mm_type.h ****         return NULL;
 193:/mnt/c/Users/31740/Desktop/newcore/include/linux/mm_type.h ****     page->flags = 0;
 194:/mnt/c/Users/31740/Desktop/newcore/include/linux/mm_type.h ****     atomic_set(&page->_mapcount, 0);
 195:/mnt/c/Users/31740/Desktop/newcore/include/linux/mm_type.h ****     atomic_set(&page->_refcount, 0); 
 196:/mnt/c/Users/31740/Desktop/newcore/include/linux/mm_type.h ****     page->zone_device_data = NULL;
 197:/mnt/c/Users/31740/Desktop/newcore/include/linux/mm_type.h ****     return page;
 198:/mnt/c/Users/31740/Desktop/newcore/include/linux/mm_type.h **** }
 199:/mnt/c/Users/31740/Desktop/newcore/include/linux/mm_type.h **** static inline void __page_destroy(struct page *page){
 200:/mnt/c/Users/31740/Desktop/newcore/include/linux/mm_type.h ****     if (page) 
ARM GAS  /tmp/ccyCLDig.s 			page 5


 201:/mnt/c/Users/31740/Desktop/newcore/include/linux/mm_type.h **** 	{
 202:/mnt/c/Users/31740/Desktop/newcore/include/linux/mm_type.h ****         kfree(page);
 203:/mnt/c/Users/31740/Desktop/newcore/include/linux/mm_type.h **** 		page = NULL;
 204:/mnt/c/Users/31740/Desktop/newcore/include/linux/mm_type.h ****     }
 205:/mnt/c/Users/31740/Desktop/newcore/include/linux/mm_type.h **** }
 206:/mnt/c/Users/31740/Desktop/newcore/include/linux/mm_type.h **** 
 207:/mnt/c/Users/31740/Desktop/newcore/include/linux/mm_type.h **** 
 208:/mnt/c/Users/31740/Desktop/newcore/include/linux/mm_type.h **** static inline void *__page_address(struct page *page){
 209:/mnt/c/Users/31740/Desktop/newcore/include/linux/mm_type.h ****     return page ? page->zone_device_data : NULL; 
 210:/mnt/c/Users/31740/Desktop/newcore/include/linux/mm_type.h **** }
 211:/mnt/c/Users/31740/Desktop/newcore/include/linux/mm_type.h **** static inline void __set_page_dirty(struct page *page){
 212:/mnt/c/Users/31740/Desktop/newcore/include/linux/mm_type.h ****     if (page)
 213:/mnt/c/Users/31740/Desktop/newcore/include/linux/mm_type.h **** 	__set_page_flag(page, PG_dirty);
 214:/mnt/c/Users/31740/Desktop/newcore/include/linux/mm_type.h **** }
 215:/mnt/c/Users/31740/Desktop/newcore/include/linux/mm_type.h **** 
 216:/mnt/c/Users/31740/Desktop/newcore/include/linux/mm_type.h **** static inline void __clear_page_dirty(struct page *page){
 217:/mnt/c/Users/31740/Desktop/newcore/include/linux/mm_type.h ****     if (page)
 218:/mnt/c/Users/31740/Desktop/newcore/include/linux/mm_type.h **** 	__clear_page_flag(page, PG_dirty);
 219:/mnt/c/Users/31740/Desktop/newcore/include/linux/mm_type.h **** }
 220:/mnt/c/Users/31740/Desktop/newcore/include/linux/mm_type.h **** 
 221:/mnt/c/Users/31740/Desktop/newcore/include/linux/mm_type.h **** static inline struct page *__alloc_pages( gfp_t flags , unsigned int order ){
 222:/mnt/c/Users/31740/Desktop/newcore/include/linux/mm_type.h **** 	struct page *page = __page_create(flags);
 223:/mnt/c/Users/31740/Desktop/newcore/include/linux/mm_type.h **** 	if(page == NULL)
 224:/mnt/c/Users/31740/Desktop/newcore/include/linux/mm_type.h **** 		return -ENOMEM ;
 225:/mnt/c/Users/31740/Desktop/newcore/include/linux/mm_type.h **** 	void *data = (void *)kmalloc(PAGE_SIZE, flags);
 226:/mnt/c/Users/31740/Desktop/newcore/include/linux/mm_type.h **** 	if(data == NULL){
 227:/mnt/c/Users/31740/Desktop/newcore/include/linux/mm_type.h **** 		__page_destroy(page);
 228:/mnt/c/Users/31740/Desktop/newcore/include/linux/mm_type.h **** 		return -ENOMEM ;
 229:/mnt/c/Users/31740/Desktop/newcore/include/linux/mm_type.h **** 	}
 230:/mnt/c/Users/31740/Desktop/newcore/include/linux/mm_type.h **** 	page->page_type = 1234;
 231:/mnt/c/Users/31740/Desktop/newcore/include/linux/mm_type.h **** 	page->zone_device_data = data;
 232:/mnt/c/Users/31740/Desktop/newcore/include/linux/mm_type.h **** 	return page;
 233:/mnt/c/Users/31740/Desktop/newcore/include/linux/mm_type.h **** }
 234:/mnt/c/Users/31740/Desktop/newcore/include/linux/mm_type.h **** 
 235:/mnt/c/Users/31740/Desktop/newcore/include/linux/mm_type.h **** static inline void __free_pages(struct page *page, unsigned int order){
 236:/mnt/c/Users/31740/Desktop/newcore/include/linux/mm_type.h ****     if (page) {
 237:/mnt/c/Users/31740/Desktop/newcore/include/linux/mm_type.h **** 		if(page->page_type == 1234)
 238:/mnt/c/Users/31740/Desktop/newcore/include/linux/mm_type.h **** 		kfree(page->zone_device_data);
 239:/mnt/c/Users/31740/Desktop/newcore/include/linux/mm_type.h ****         __page_destroy(page);
 240:/mnt/c/Users/31740/Desktop/newcore/include/linux/mm_type.h ****     }
 241:/mnt/c/Users/31740/Desktop/newcore/include/linux/mm_type.h **** }
 242:/mnt/c/Users/31740/Desktop/newcore/include/linux/mm_type.h **** 
 243:/mnt/c/Users/31740/Desktop/newcore/include/linux/mm_type.h **** static inline struct page *__pfn_to_page(unsigned long pfn){
 244:/mnt/c/Users/31740/Desktop/newcore/include/linux/mm_type.h **** 	struct page *page = __page_create(GFP_KERNEL);
 245:/mnt/c/Users/31740/Desktop/newcore/include/linux/mm_type.h **** 	if(page == NULL)
 246:/mnt/c/Users/31740/Desktop/newcore/include/linux/mm_type.h **** 		return -ENOMEM ;
 247:/mnt/c/Users/31740/Desktop/newcore/include/linux/mm_type.h **** 	page->zone_device_data = (void *)(pfn << 0 );
 248:/mnt/c/Users/31740/Desktop/newcore/include/linux/mm_type.h **** 	return page;
 249:/mnt/c/Users/31740/Desktop/newcore/include/linux/mm_type.h **** }
 250:/mnt/c/Users/31740/Desktop/newcore/include/linux/mm_type.h **** 
 251:/mnt/c/Users/31740/Desktop/newcore/include/linux/mm_type.h **** 
 252:/mnt/c/Users/31740/Desktop/newcore/include/linux/mm_type.h **** static inline void __get_page(struct page *page){
 253:/mnt/c/Users/31740/Desktop/newcore/include/linux/mm_type.h ****     if (page)
 254:/mnt/c/Users/31740/Desktop/newcore/include/linux/mm_type.h ****         atomic_inc(&page->_refcount);
 255:/mnt/c/Users/31740/Desktop/newcore/include/linux/mm_type.h **** }
 256:/mnt/c/Users/31740/Desktop/newcore/include/linux/mm_type.h **** 
 257:/mnt/c/Users/31740/Desktop/newcore/include/linux/mm_type.h **** 
ARM GAS  /tmp/ccyCLDig.s 			page 6


 258:/mnt/c/Users/31740/Desktop/newcore/include/linux/mm_type.h **** static inline void __put_page(struct page *page){
 259:/mnt/c/Users/31740/Desktop/newcore/include/linux/mm_type.h ****     if (page && atomic_dec_and_test(&page->_refcount) ) {
 260:/mnt/c/Users/31740/Desktop/newcore/include/linux/mm_type.h ****         __free_pages(page, 0);
 261:/mnt/c/Users/31740/Desktop/newcore/include/linux/mm_type.h ****     }
 262:/mnt/c/Users/31740/Desktop/newcore/include/linux/mm_type.h **** 	else if(page->_refcount.counter < 0) {
 263:/mnt/c/Users/31740/Desktop/newcore/include/linux/mm_type.h **** 		__free_pages(page, 0);
 264:/mnt/c/Users/31740/Desktop/newcore/include/linux/mm_type.h **** 	}
 265:/mnt/c/Users/31740/Desktop/newcore/include/linux/mm_type.h **** }
 266:/mnt/c/Users/31740/Desktop/newcore/include/linux/mm_type.h **** 
 267:/mnt/c/Users/31740/Desktop/newcore/include/linux/mm_type.h **** static void* __kmap(struct page *page){
  30              		.loc 2 267 39 view -0
  31              		.cfi_startproc
  32              		@ args = 0, pretend = 0, frame = 0
  33              		@ frame_needed = 0, uses_anonymous_args = 0
  34              		@ link register save eliminated.
 268:/mnt/c/Users/31740/Desktop/newcore/include/linux/mm_type.h **** 	if (!page)
  35              		.loc 2 268 2 view .LVU1
  36              		.loc 2 268 5 is_stmt 0 view .LVU2
  37 0000 08B1     		cbz	r0, .L3
 269:/mnt/c/Users/31740/Desktop/newcore/include/linux/mm_type.h **** 		return NULL;
 270:/mnt/c/Users/31740/Desktop/newcore/include/linux/mm_type.h **** 	//__get_page(page);
 271:/mnt/c/Users/31740/Desktop/newcore/include/linux/mm_type.h **** 	return page->zone_device_data;
  38              		.loc 2 271 2 is_stmt 1 view .LVU3
  39              		.loc 2 271 13 is_stmt 0 view .LVU4
  40 0002 4068     		ldr	r0, [r0, #4]
  41              	.LVL1:
  42              		.loc 2 271 13 view .LVU5
  43 0004 7047     		bx	lr
  44              	.LVL2:
  45              	.L3:
 272:/mnt/c/Users/31740/Desktop/newcore/include/linux/mm_type.h **** }
  46              		.loc 2 272 1 view .LVU6
  47 0006 7047     		bx	lr
  48              		.cfi_endproc
  49              	.LFE918:
  51              		.section	.text.W25Qxx_write_enable,"ax",%progbits
  52              		.align	1
  53              		.syntax unified
  54              		.thumb
  55              		.thumb_func
  57              	W25Qxx_write_enable:
  58              	.LVL3:
  59              	.LFB1042:
  60              		.file 3 "/mnt/c/Users/31740/Desktop/newcore/drivers/storage/w25qxx/w25qxx.h"
   1:/mnt/c/Users/31740/Desktop/newcore/drivers/storage/w25qxx/w25qxx.h **** #ifndef __W25QXX_H__
   2:/mnt/c/Users/31740/Desktop/newcore/drivers/storage/w25qxx/w25qxx.h **** #define __W25QXX_H__
   3:/mnt/c/Users/31740/Desktop/newcore/drivers/storage/w25qxx/w25qxx.h **** 
   4:/mnt/c/Users/31740/Desktop/newcore/drivers/storage/w25qxx/w25qxx.h **** struct w25qxx_dev
   5:/mnt/c/Users/31740/Desktop/newcore/drivers/storage/w25qxx/w25qxx.h **** {
   6:/mnt/c/Users/31740/Desktop/newcore/drivers/storage/w25qxx/w25qxx.h ****     u8 status; 
   7:/mnt/c/Users/31740/Desktop/newcore/drivers/storage/w25qxx/w25qxx.h ****     struct file *spi_dev;
   8:/mnt/c/Users/31740/Desktop/newcore/drivers/storage/w25qxx/w25qxx.h ****     struct file *gpio_cs_dev;
   9:/mnt/c/Users/31740/Desktop/newcore/drivers/storage/w25qxx/w25qxx.h ****     struct spi_ioc_transfer xfer;
  10:/mnt/c/Users/31740/Desktop/newcore/drivers/storage/w25qxx/w25qxx.h ****     uint16_t id;
  11:/mnt/c/Users/31740/Desktop/newcore/drivers/storage/w25qxx/w25qxx.h ****     uint32_t size;
  12:/mnt/c/Users/31740/Desktop/newcore/drivers/storage/w25qxx/w25qxx.h ****     int (*send_data)(struct w25qxx_dev *w25qxx_dev,u8 *data,int len);
  13:/mnt/c/Users/31740/Desktop/newcore/drivers/storage/w25qxx/w25qxx.h ****     int (*read_data)(struct w25qxx_dev *w25qxx_dev,u8 *data,int len);
ARM GAS  /tmp/ccyCLDig.s 			page 7


  14:/mnt/c/Users/31740/Desktop/newcore/drivers/storage/w25qxx/w25qxx.h ****     void (*send_start)(struct w25qxx_dev *w25qxx_dev);
  15:/mnt/c/Users/31740/Desktop/newcore/drivers/storage/w25qxx/w25qxx.h ****     void (*send_stop)(struct w25qxx_dev *w25qxx_dev);
  16:/mnt/c/Users/31740/Desktop/newcore/drivers/storage/w25qxx/w25qxx.h **** };
  17:/mnt/c/Users/31740/Desktop/newcore/drivers/storage/w25qxx/w25qxx.h **** 
  18:/mnt/c/Users/31740/Desktop/newcore/drivers/storage/w25qxx/w25qxx.h **** struct w25qxx_dev *new_w25qxx_dev(char *spi_dev,int cs_pin_num);
  19:/mnt/c/Users/31740/Desktop/newcore/drivers/storage/w25qxx/w25qxx.h **** #define W25QXX_SECTOR_SIZE 4096
  20:/mnt/c/Users/31740/Desktop/newcore/drivers/storage/w25qxx/w25qxx.h **** 
  21:/mnt/c/Users/31740/Desktop/newcore/drivers/storage/w25qxx/w25qxx.h **** static int cs_pin_init(struct w25qxx_dev *w25qxx_dev,char *gpio_dev_name ,int pin_num)
  22:/mnt/c/Users/31740/Desktop/newcore/drivers/storage/w25qxx/w25qxx.h **** {
  23:/mnt/c/Users/31740/Desktop/newcore/drivers/storage/w25qxx/w25qxx.h ****     if(pin_num == -1)return 0;
  24:/mnt/c/Users/31740/Desktop/newcore/drivers/storage/w25qxx/w25qxx.h ****     
  25:/mnt/c/Users/31740/Desktop/newcore/drivers/storage/w25qxx/w25qxx.h ****     w25qxx_dev->gpio_cs_dev = filp_open(gpio_dev_name, O_RDWR, 0);
  26:/mnt/c/Users/31740/Desktop/newcore/drivers/storage/w25qxx/w25qxx.h ****     if(IS_ERR(w25qxx_dev->gpio_cs_dev)){
  27:/mnt/c/Users/31740/Desktop/newcore/drivers/storage/w25qxx/w25qxx.h ****         pr_info("open file failed\n\r");
  28:/mnt/c/Users/31740/Desktop/newcore/drivers/storage/w25qxx/w25qxx.h ****         return -1;
  29:/mnt/c/Users/31740/Desktop/newcore/drivers/storage/w25qxx/w25qxx.h ****     }
  30:/mnt/c/Users/31740/Desktop/newcore/drivers/storage/w25qxx/w25qxx.h ****     pr_info("set cs ping use %d\n\r",pin_num);
  31:/mnt/c/Users/31740/Desktop/newcore/drivers/storage/w25qxx/w25qxx.h ****     int i = vfs_ioctl(w25qxx_dev->gpio_cs_dev,GPIO_SET_PIN_NUMBER,pin_num);
  32:/mnt/c/Users/31740/Desktop/newcore/drivers/storage/w25qxx/w25qxx.h ****     if(i < 0){
  33:/mnt/c/Users/31740/Desktop/newcore/drivers/storage/w25qxx/w25qxx.h ****         pr_info("set pin number failed\n\r");
  34:/mnt/c/Users/31740/Desktop/newcore/drivers/storage/w25qxx/w25qxx.h ****         return -1;
  35:/mnt/c/Users/31740/Desktop/newcore/drivers/storage/w25qxx/w25qxx.h ****     }
  36:/mnt/c/Users/31740/Desktop/newcore/drivers/storage/w25qxx/w25qxx.h ****     vfs_ioctl(w25qxx_dev->gpio_cs_dev,GPIO_OUTPUT   ,0);
  37:/mnt/c/Users/31740/Desktop/newcore/drivers/storage/w25qxx/w25qxx.h ****     return 0;
  38:/mnt/c/Users/31740/Desktop/newcore/drivers/storage/w25qxx/w25qxx.h **** }
  39:/mnt/c/Users/31740/Desktop/newcore/drivers/storage/w25qxx/w25qxx.h ****  
  40:/mnt/c/Users/31740/Desktop/newcore/drivers/storage/w25qxx/w25qxx.h **** 
  41:/mnt/c/Users/31740/Desktop/newcore/drivers/storage/w25qxx/w25qxx.h **** static int spi_write_enable(struct w25qxx_dev *w25qxx_dev,char *name ,uint32_t speed)
  42:/mnt/c/Users/31740/Desktop/newcore/drivers/storage/w25qxx/w25qxx.h **** {
  43:/mnt/c/Users/31740/Desktop/newcore/drivers/storage/w25qxx/w25qxx.h ****     w25qxx_dev->spi_dev = filp_open("/dev/spidev1", O_RDWR, 0);
  44:/mnt/c/Users/31740/Desktop/newcore/drivers/storage/w25qxx/w25qxx.h ****     if(IS_ERR(w25qxx_dev->spi_dev)){
  45:/mnt/c/Users/31740/Desktop/newcore/drivers/storage/w25qxx/w25qxx.h ****         pr_info("open file failed\n\r");
  46:/mnt/c/Users/31740/Desktop/newcore/drivers/storage/w25qxx/w25qxx.h ****         return -1;
  47:/mnt/c/Users/31740/Desktop/newcore/drivers/storage/w25qxx/w25qxx.h ****     }
  48:/mnt/c/Users/31740/Desktop/newcore/drivers/storage/w25qxx/w25qxx.h ****     w25qxx_dev->xfer.speed_hz = speed;
  49:/mnt/c/Users/31740/Desktop/newcore/drivers/storage/w25qxx/w25qxx.h ****     w25qxx_dev->xfer.len = 1;
  50:/mnt/c/Users/31740/Desktop/newcore/drivers/storage/w25qxx/w25qxx.h ****     w25qxx_dev->xfer.delay_usecs = 0;
  51:/mnt/c/Users/31740/Desktop/newcore/drivers/storage/w25qxx/w25qxx.h ****     w25qxx_dev->xfer.bits_per_word = 8;
  52:/mnt/c/Users/31740/Desktop/newcore/drivers/storage/w25qxx/w25qxx.h ****     w25qxx_dev->xfer.cs_change = 0;
  53:/mnt/c/Users/31740/Desktop/newcore/drivers/storage/w25qxx/w25qxx.h **** }
  54:/mnt/c/Users/31740/Desktop/newcore/drivers/storage/w25qxx/w25qxx.h **** 
  55:/mnt/c/Users/31740/Desktop/newcore/drivers/storage/w25qxx/w25qxx.h **** 
  56:/mnt/c/Users/31740/Desktop/newcore/drivers/storage/w25qxx/w25qxx.h **** static int w25qxx_device_init(struct w25qxx_dev *dev,char *spi_dev,int cs_pin_num)
  57:/mnt/c/Users/31740/Desktop/newcore/drivers/storage/w25qxx/w25qxx.h **** {
  58:/mnt/c/Users/31740/Desktop/newcore/drivers/storage/w25qxx/w25qxx.h ****     dev->status = cs_pin_init(dev, "/dev/gpios",cs_pin_num);
  59:/mnt/c/Users/31740/Desktop/newcore/drivers/storage/w25qxx/w25qxx.h ****     if(dev->status < 0){
  60:/mnt/c/Users/31740/Desktop/newcore/drivers/storage/w25qxx/w25qxx.h ****         pr_info("cs_pin_init failed\n\r");
  61:/mnt/c/Users/31740/Desktop/newcore/drivers/storage/w25qxx/w25qxx.h ****         return -1;
  62:/mnt/c/Users/31740/Desktop/newcore/drivers/storage/w25qxx/w25qxx.h ****     }
  63:/mnt/c/Users/31740/Desktop/newcore/drivers/storage/w25qxx/w25qxx.h ****     dev->status = spi_write_enable(dev,spi_dev, 1000000);
  64:/mnt/c/Users/31740/Desktop/newcore/drivers/storage/w25qxx/w25qxx.h ****     if(dev->status < 0){
  65:/mnt/c/Users/31740/Desktop/newcore/drivers/storage/w25qxx/w25qxx.h ****         pr_info("spi_write_enable failed\n\r");
  66:/mnt/c/Users/31740/Desktop/newcore/drivers/storage/w25qxx/w25qxx.h ****         filp_close(dev->gpio_cs_dev, NULL);
  67:/mnt/c/Users/31740/Desktop/newcore/drivers/storage/w25qxx/w25qxx.h ****         return -1;
  68:/mnt/c/Users/31740/Desktop/newcore/drivers/storage/w25qxx/w25qxx.h ****     }
  69:/mnt/c/Users/31740/Desktop/newcore/drivers/storage/w25qxx/w25qxx.h ****     return 0;
  70:/mnt/c/Users/31740/Desktop/newcore/drivers/storage/w25qxx/w25qxx.h **** }
ARM GAS  /tmp/ccyCLDig.s 			page 8


  71:/mnt/c/Users/31740/Desktop/newcore/drivers/storage/w25qxx/w25qxx.h **** 
  72:/mnt/c/Users/31740/Desktop/newcore/drivers/storage/w25qxx/w25qxx.h **** 
  73:/mnt/c/Users/31740/Desktop/newcore/drivers/storage/w25qxx/w25qxx.h **** 
  74:/mnt/c/Users/31740/Desktop/newcore/drivers/storage/w25qxx/w25qxx.h **** static  void set_cs_pin_high(struct w25qxx_dev *w25qxx_dev){
  75:/mnt/c/Users/31740/Desktop/newcore/drivers/storage/w25qxx/w25qxx.h ****     int ret = kernel_write(w25qxx_dev->gpio_cs_dev, "1", 1, 0);
  76:/mnt/c/Users/31740/Desktop/newcore/drivers/storage/w25qxx/w25qxx.h ****     if(ret < 0){
  77:/mnt/c/Users/31740/Desktop/newcore/drivers/storage/w25qxx/w25qxx.h ****        pr_info("write error 1 \n\r");
  78:/mnt/c/Users/31740/Desktop/newcore/drivers/storage/w25qxx/w25qxx.h ****     }
  79:/mnt/c/Users/31740/Desktop/newcore/drivers/storage/w25qxx/w25qxx.h **** }
  80:/mnt/c/Users/31740/Desktop/newcore/drivers/storage/w25qxx/w25qxx.h **** 
  81:/mnt/c/Users/31740/Desktop/newcore/drivers/storage/w25qxx/w25qxx.h **** static  void set_cs_pin_low(struct w25qxx_dev *w25qxx_dev){
  82:/mnt/c/Users/31740/Desktop/newcore/drivers/storage/w25qxx/w25qxx.h ****    int ret = kernel_write(w25qxx_dev->gpio_cs_dev, "0", 1, 0);
  83:/mnt/c/Users/31740/Desktop/newcore/drivers/storage/w25qxx/w25qxx.h ****    if(ret < 0){
  84:/mnt/c/Users/31740/Desktop/newcore/drivers/storage/w25qxx/w25qxx.h ****       pr_info("write error 2 \n\r");
  85:/mnt/c/Users/31740/Desktop/newcore/drivers/storage/w25qxx/w25qxx.h ****    }
  86:/mnt/c/Users/31740/Desktop/newcore/drivers/storage/w25qxx/w25qxx.h **** }
  87:/mnt/c/Users/31740/Desktop/newcore/drivers/storage/w25qxx/w25qxx.h **** 
  88:/mnt/c/Users/31740/Desktop/newcore/drivers/storage/w25qxx/w25qxx.h **** static int w25qxx_send_data(struct w25qxx_dev *dev,u8 *data,int len)
  89:/mnt/c/Users/31740/Desktop/newcore/drivers/storage/w25qxx/w25qxx.h **** {
  90:/mnt/c/Users/31740/Desktop/newcore/drivers/storage/w25qxx/w25qxx.h ****     dev->xfer.tx_buf = data;
  91:/mnt/c/Users/31740/Desktop/newcore/drivers/storage/w25qxx/w25qxx.h ****     dev->xfer.rx_buf = NULL;
  92:/mnt/c/Users/31740/Desktop/newcore/drivers/storage/w25qxx/w25qxx.h ****     dev->xfer.len = len;
  93:/mnt/c/Users/31740/Desktop/newcore/drivers/storage/w25qxx/w25qxx.h ****     int i = vfs_ioctl(dev->spi_dev,SPI_IOC_MESSAGE(1),&dev->xfer);
  94:/mnt/c/Users/31740/Desktop/newcore/drivers/storage/w25qxx/w25qxx.h ****     return i;
  95:/mnt/c/Users/31740/Desktop/newcore/drivers/storage/w25qxx/w25qxx.h **** }
  96:/mnt/c/Users/31740/Desktop/newcore/drivers/storage/w25qxx/w25qxx.h **** static int w25qxx_read_data(struct w25qxx_dev *dev,u8 *data,int len)
  97:/mnt/c/Users/31740/Desktop/newcore/drivers/storage/w25qxx/w25qxx.h **** {
  98:/mnt/c/Users/31740/Desktop/newcore/drivers/storage/w25qxx/w25qxx.h ****     dev->xfer.tx_buf = NULL;
  99:/mnt/c/Users/31740/Desktop/newcore/drivers/storage/w25qxx/w25qxx.h ****     dev->xfer.rx_buf = data;
 100:/mnt/c/Users/31740/Desktop/newcore/drivers/storage/w25qxx/w25qxx.h ****     dev->xfer.len = len;
 101:/mnt/c/Users/31740/Desktop/newcore/drivers/storage/w25qxx/w25qxx.h ****     int i = vfs_ioctl(dev->spi_dev,SPI_IOC_MESSAGE(1),&dev->xfer);
 102:/mnt/c/Users/31740/Desktop/newcore/drivers/storage/w25qxx/w25qxx.h ****     return i;
 103:/mnt/c/Users/31740/Desktop/newcore/drivers/storage/w25qxx/w25qxx.h **** }
 104:/mnt/c/Users/31740/Desktop/newcore/drivers/storage/w25qxx/w25qxx.h **** 
 105:/mnt/c/Users/31740/Desktop/newcore/drivers/storage/w25qxx/w25qxx.h **** 
 106:/mnt/c/Users/31740/Desktop/newcore/drivers/storage/w25qxx/w25qxx.h **** 
 107:/mnt/c/Users/31740/Desktop/newcore/drivers/storage/w25qxx/w25qxx.h **** static int w25qxx_read_id(struct w25qxx_dev *dev)
 108:/mnt/c/Users/31740/Desktop/newcore/drivers/storage/w25qxx/w25qxx.h **** {
 109:/mnt/c/Users/31740/Desktop/newcore/drivers/storage/w25qxx/w25qxx.h ****     uint8_t cmd2 = 0x9F;
 110:/mnt/c/Users/31740/Desktop/newcore/drivers/storage/w25qxx/w25qxx.h ****     uint8_t id[3] = {0,0,0}; 
 111:/mnt/c/Users/31740/Desktop/newcore/drivers/storage/w25qxx/w25qxx.h ****     dev->send_start(dev);
 112:/mnt/c/Users/31740/Desktop/newcore/drivers/storage/w25qxx/w25qxx.h ****     dev->send_data(dev,&cmd2,1);
 113:/mnt/c/Users/31740/Desktop/newcore/drivers/storage/w25qxx/w25qxx.h ****     dev->read_data(dev,id,3);
 114:/mnt/c/Users/31740/Desktop/newcore/drivers/storage/w25qxx/w25qxx.h ****     dev->send_stop(dev);
 115:/mnt/c/Users/31740/Desktop/newcore/drivers/storage/w25qxx/w25qxx.h ****     dev->size = 0;
 116:/mnt/c/Users/31740/Desktop/newcore/drivers/storage/w25qxx/w25qxx.h ****     if(id[2]  >= 0x10 && id[2] <= 0x25){
 117:/mnt/c/Users/31740/Desktop/newcore/drivers/storage/w25qxx/w25qxx.h ****         dev->size  = 1 << id[2];
 118:/mnt/c/Users/31740/Desktop/newcore/drivers/storage/w25qxx/w25qxx.h ****     }
 119:/mnt/c/Users/31740/Desktop/newcore/drivers/storage/w25qxx/w25qxx.h ****     pr_info("FLASH JEDEC ID: 0x%02X 0x%02X 0x%02X ,Detected Flash Size: %d KB (%d MB)\r\n", id[0], 
 120:/mnt/c/Users/31740/Desktop/newcore/drivers/storage/w25qxx/w25qxx.h ****     u8 cmd[4] = {0x90,0x00,0x00,0x00};
 121:/mnt/c/Users/31740/Desktop/newcore/drivers/storage/w25qxx/w25qxx.h ****     dev->send_start(dev);
 122:/mnt/c/Users/31740/Desktop/newcore/drivers/storage/w25qxx/w25qxx.h ****     dev->send_data(dev,cmd,4);
 123:/mnt/c/Users/31740/Desktop/newcore/drivers/storage/w25qxx/w25qxx.h ****     dev->read_data(dev,&dev->id,2);
 124:/mnt/c/Users/31740/Desktop/newcore/drivers/storage/w25qxx/w25qxx.h ****     dev->send_stop(dev);
 125:/mnt/c/Users/31740/Desktop/newcore/drivers/storage/w25qxx/w25qxx.h ****     return 0;
 126:/mnt/c/Users/31740/Desktop/newcore/drivers/storage/w25qxx/w25qxx.h **** }
 127:/mnt/c/Users/31740/Desktop/newcore/drivers/storage/w25qxx/w25qxx.h **** 
ARM GAS  /tmp/ccyCLDig.s 			page 9


 128:/mnt/c/Users/31740/Desktop/newcore/drivers/storage/w25qxx/w25qxx.h **** 
 129:/mnt/c/Users/31740/Desktop/newcore/drivers/storage/w25qxx/w25qxx.h **** struct w25qxx_dev *new_w25qxx_dev(char *spi_dev,int cs_pin_num)
 130:/mnt/c/Users/31740/Desktop/newcore/drivers/storage/w25qxx/w25qxx.h **** {
 131:/mnt/c/Users/31740/Desktop/newcore/drivers/storage/w25qxx/w25qxx.h ****     struct w25qxx_dev *w25qxx_dev = kmalloc(sizeof(struct w25qxx_dev), GFP_KERNEL);
 132:/mnt/c/Users/31740/Desktop/newcore/drivers/storage/w25qxx/w25qxx.h ****     if(w25qxx_dev == NULL){
 133:/mnt/c/Users/31740/Desktop/newcore/drivers/storage/w25qxx/w25qxx.h ****         pr_info("malloc failed\n\r");
 134:/mnt/c/Users/31740/Desktop/newcore/drivers/storage/w25qxx/w25qxx.h ****         return NULL;
 135:/mnt/c/Users/31740/Desktop/newcore/drivers/storage/w25qxx/w25qxx.h ****     }
 136:/mnt/c/Users/31740/Desktop/newcore/drivers/storage/w25qxx/w25qxx.h ****     w25qxx_dev->send_data = w25qxx_send_data;
 137:/mnt/c/Users/31740/Desktop/newcore/drivers/storage/w25qxx/w25qxx.h ****     w25qxx_dev->read_data = w25qxx_read_data;
 138:/mnt/c/Users/31740/Desktop/newcore/drivers/storage/w25qxx/w25qxx.h ****     w25qxx_dev->send_start = set_cs_pin_low;
 139:/mnt/c/Users/31740/Desktop/newcore/drivers/storage/w25qxx/w25qxx.h ****     w25qxx_dev->send_stop = set_cs_pin_high;
 140:/mnt/c/Users/31740/Desktop/newcore/drivers/storage/w25qxx/w25qxx.h ****     w25qxx_dev->status = w25qxx_device_init(w25qxx_dev,spi_dev,cs_pin_num);
 141:/mnt/c/Users/31740/Desktop/newcore/drivers/storage/w25qxx/w25qxx.h ****     w25qxx_read_id(w25qxx_dev);
 142:/mnt/c/Users/31740/Desktop/newcore/drivers/storage/w25qxx/w25qxx.h ****     if(w25qxx_dev->status < 0){
 143:/mnt/c/Users/31740/Desktop/newcore/drivers/storage/w25qxx/w25qxx.h ****         kfree(w25qxx_dev);
 144:/mnt/c/Users/31740/Desktop/newcore/drivers/storage/w25qxx/w25qxx.h ****         return NULL;
 145:/mnt/c/Users/31740/Desktop/newcore/drivers/storage/w25qxx/w25qxx.h ****     }
 146:/mnt/c/Users/31740/Desktop/newcore/drivers/storage/w25qxx/w25qxx.h ****     return w25qxx_dev;
 147:/mnt/c/Users/31740/Desktop/newcore/drivers/storage/w25qxx/w25qxx.h **** }
 148:/mnt/c/Users/31740/Desktop/newcore/drivers/storage/w25qxx/w25qxx.h **** 
 149:/mnt/c/Users/31740/Desktop/newcore/drivers/storage/w25qxx/w25qxx.h **** static void W25Qxx_write_enable(struct w25qxx_dev *dev)
 150:/mnt/c/Users/31740/Desktop/newcore/drivers/storage/w25qxx/w25qxx.h **** {
  61              		.loc 3 150 1 is_stmt 1 view -0
  62              		.cfi_startproc
  63              		@ args = 0, pretend = 0, frame = 8
  64              		@ frame_needed = 0, uses_anonymous_args = 0
  65              		.loc 3 150 1 is_stmt 0 view .LVU8
  66 0000 10B5     		push	{r4, lr}
  67              	.LCFI0:
  68              		.cfi_def_cfa_offset 8
  69              		.cfi_offset 4, -8
  70              		.cfi_offset 14, -4
  71 0002 82B0     		sub	sp, sp, #8
  72              	.LCFI1:
  73              		.cfi_def_cfa_offset 16
  74 0004 0446     		mov	r4, r0
 151:/mnt/c/Users/31740/Desktop/newcore/drivers/storage/w25qxx/w25qxx.h ****     dev->send_start(dev);
  75              		.loc 3 151 5 is_stmt 1 view .LVU9
  76              		.loc 3 151 8 is_stmt 0 view .LVU10
  77 0006 436B     		ldr	r3, [r0, #52]
  78              		.loc 3 151 5 view .LVU11
  79 0008 9847     		blx	r3
  80              	.LVL4:
 152:/mnt/c/Users/31740/Desktop/newcore/drivers/storage/w25qxx/w25qxx.h ****     uint8_t cmd = 0x06;
  81              		.loc 3 152 5 is_stmt 1 view .LVU12
  82              		.loc 3 152 13 is_stmt 0 view .LVU13
  83 000a 0623     		movs	r3, #6
  84 000c 8DF80730 		strb	r3, [sp, #7]
 153:/mnt/c/Users/31740/Desktop/newcore/drivers/storage/w25qxx/w25qxx.h ****     dev->send_data(dev,&cmd,1);
  85              		.loc 3 153 5 is_stmt 1 view .LVU14
  86              		.loc 3 153 8 is_stmt 0 view .LVU15
  87 0010 E36A     		ldr	r3, [r4, #44]
  88              		.loc 3 153 5 view .LVU16
  89 0012 0122     		movs	r2, #1
  90 0014 0DF10701 		add	r1, sp, #7
  91 0018 2046     		mov	r0, r4
ARM GAS  /tmp/ccyCLDig.s 			page 10


  92 001a 9847     		blx	r3
  93              	.LVL5:
 154:/mnt/c/Users/31740/Desktop/newcore/drivers/storage/w25qxx/w25qxx.h ****     dev->send_stop(dev);
  94              		.loc 3 154 5 is_stmt 1 view .LVU17
  95              		.loc 3 154 8 is_stmt 0 view .LVU18
  96 001c A36B     		ldr	r3, [r4, #56]
  97              		.loc 3 154 5 view .LVU19
  98 001e 2046     		mov	r0, r4
  99 0020 9847     		blx	r3
 100              	.LVL6:
 155:/mnt/c/Users/31740/Desktop/newcore/drivers/storage/w25qxx/w25qxx.h **** }
 101              		.loc 3 155 1 view .LVU20
 102 0022 02B0     		add	sp, sp, #8
 103              	.LCFI2:
 104              		.cfi_def_cfa_offset 8
 105              		@ sp needed
 106 0024 10BD     		pop	{r4, pc}
 107              		.loc 3 155 1 view .LVU21
 108              		.cfi_endproc
 109              	.LFE1042:
 111              		.section	.text.W25Qxx_wait_busy,"ax",%progbits
 112              		.align	1
 113              		.syntax unified
 114              		.thumb
 115              		.thumb_func
 117              	W25Qxx_wait_busy:
 118              	.LVL7:
 119              	.LFB1043:
 156:/mnt/c/Users/31740/Desktop/newcore/drivers/storage/w25qxx/w25qxx.h **** 
 157:/mnt/c/Users/31740/Desktop/newcore/drivers/storage/w25qxx/w25qxx.h **** static void W25Qxx_wait_busy(struct w25qxx_dev *dev)
 158:/mnt/c/Users/31740/Desktop/newcore/drivers/storage/w25qxx/w25qxx.h **** {
 120              		.loc 3 158 1 is_stmt 1 view -0
 121              		.cfi_startproc
 122              		@ args = 0, pretend = 0, frame = 8
 123              		@ frame_needed = 0, uses_anonymous_args = 0
 124              		.loc 3 158 1 is_stmt 0 view .LVU23
 125 0000 10B5     		push	{r4, lr}
 126              	.LCFI3:
 127              		.cfi_def_cfa_offset 8
 128              		.cfi_offset 4, -8
 129              		.cfi_offset 14, -4
 130 0002 82B0     		sub	sp, sp, #8
 131              	.LCFI4:
 132              		.cfi_def_cfa_offset 16
 133 0004 0446     		mov	r4, r0
 159:/mnt/c/Users/31740/Desktop/newcore/drivers/storage/w25qxx/w25qxx.h ****     dev->send_start(dev);
 134              		.loc 3 159 5 is_stmt 1 view .LVU24
 135              		.loc 3 159 8 is_stmt 0 view .LVU25
 136 0006 436B     		ldr	r3, [r0, #52]
 137              		.loc 3 159 5 view .LVU26
 138 0008 9847     		blx	r3
 139              	.LVL8:
 160:/mnt/c/Users/31740/Desktop/newcore/drivers/storage/w25qxx/w25qxx.h ****     uint8_t cmd[2] = {0x05, 0xff};
 140              		.loc 3 160 5 is_stmt 1 view .LVU27
 141              		.loc 3 160 13 is_stmt 0 view .LVU28
 142 000a 4FF60573 		movw	r3, #65285
 143 000e ADF80430 		strh	r3, [sp, #4]	@ movhi
ARM GAS  /tmp/ccyCLDig.s 			page 11


 144              	.L7:
 161:/mnt/c/Users/31740/Desktop/newcore/drivers/storage/w25qxx/w25qxx.h ****     do{             
 145              		.loc 3 161 5 is_stmt 1 view .LVU29
 162:/mnt/c/Users/31740/Desktop/newcore/drivers/storage/w25qxx/w25qxx.h ****         cmd[1] = 0xff;
 146              		.loc 3 162 9 view .LVU30
 147              		.loc 3 162 16 is_stmt 0 view .LVU31
 148 0012 FF23     		movs	r3, #255
 149 0014 8DF80530 		strb	r3, [sp, #5]
 163:/mnt/c/Users/31740/Desktop/newcore/drivers/storage/w25qxx/w25qxx.h ****         dev->send_data(dev,cmd,2);
 150              		.loc 3 163 9 is_stmt 1 view .LVU32
 151              		.loc 3 163 12 is_stmt 0 view .LVU33
 152 0018 E36A     		ldr	r3, [r4, #44]
 153              		.loc 3 163 9 view .LVU34
 154 001a 0222     		movs	r2, #2
 155 001c 01A9     		add	r1, sp, #4
 156 001e 2046     		mov	r0, r4
 157 0020 9847     		blx	r3
 158              	.LVL9:
 164:/mnt/c/Users/31740/Desktop/newcore/drivers/storage/w25qxx/w25qxx.h ****         dev->read_data(dev,cmd,2);   
 159              		.loc 3 164 9 is_stmt 1 view .LVU35
 160              		.loc 3 164 12 is_stmt 0 view .LVU36
 161 0022 236B     		ldr	r3, [r4, #48]
 162              		.loc 3 164 9 view .LVU37
 163 0024 0222     		movs	r2, #2
 164 0026 01A9     		add	r1, sp, #4
 165 0028 2046     		mov	r0, r4
 166 002a 9847     		blx	r3
 167              	.LVL10:
 165:/mnt/c/Users/31740/Desktop/newcore/drivers/storage/w25qxx/w25qxx.h ****     }while((cmd[1] & 0x01) == 0x01);
 168              		.loc 3 165 28 is_stmt 1 discriminator 1 view .LVU38
 169              		.loc 3 165 16 is_stmt 0 discriminator 1 view .LVU39
 170 002c 9DF80530 		ldrb	r3, [sp, #5]	@ zero_extendqisi2
 171              		.loc 3 165 28 discriminator 1 view .LVU40
 172 0030 13F0010F 		tst	r3, #1
 173 0034 EDD1     		bne	.L7
 166:/mnt/c/Users/31740/Desktop/newcore/drivers/storage/w25qxx/w25qxx.h ****     dev->send_stop(dev);     
 174              		.loc 3 166 5 is_stmt 1 view .LVU41
 175              		.loc 3 166 8 is_stmt 0 view .LVU42
 176 0036 A36B     		ldr	r3, [r4, #56]
 177              		.loc 3 166 5 view .LVU43
 178 0038 2046     		mov	r0, r4
 179 003a 9847     		blx	r3
 180              	.LVL11:
 167:/mnt/c/Users/31740/Desktop/newcore/drivers/storage/w25qxx/w25qxx.h **** }
 181              		.loc 3 167 1 view .LVU44
 182 003c 02B0     		add	sp, sp, #8
 183              	.LCFI5:
 184              		.cfi_def_cfa_offset 8
 185              		@ sp needed
 186 003e 10BD     		pop	{r4, pc}
 187              		.loc 3 167 1 view .LVU45
 188              		.cfi_endproc
 189              	.LFE1043:
 191              		.section	.text.W25Qxx_erase_sector,"ax",%progbits
 192              		.align	1
 193              		.syntax unified
 194              		.thumb
ARM GAS  /tmp/ccyCLDig.s 			page 12


 195              		.thumb_func
 197              	W25Qxx_erase_sector:
 198              	.LVL12:
 199              	.LFB1044:
 168:/mnt/c/Users/31740/Desktop/newcore/drivers/storage/w25qxx/w25qxx.h **** 
 169:/mnt/c/Users/31740/Desktop/newcore/drivers/storage/w25qxx/w25qxx.h **** static void W25Qxx_erase_sector(struct w25qxx_dev *dev,u32 sector_num)
 170:/mnt/c/Users/31740/Desktop/newcore/drivers/storage/w25qxx/w25qxx.h **** {
 200              		.loc 3 170 1 is_stmt 1 view -0
 201              		.cfi_startproc
 202              		@ args = 0, pretend = 0, frame = 8
 203              		@ frame_needed = 0, uses_anonymous_args = 0
 204              		.loc 3 170 1 is_stmt 0 view .LVU47
 205 0000 30B5     		push	{r4, r5, lr}
 206              	.LCFI6:
 207              		.cfi_def_cfa_offset 12
 208              		.cfi_offset 4, -12
 209              		.cfi_offset 5, -8
 210              		.cfi_offset 14, -4
 211 0002 83B0     		sub	sp, sp, #12
 212              	.LCFI7:
 213              		.cfi_def_cfa_offset 24
 214 0004 0446     		mov	r4, r0
 171:/mnt/c/Users/31740/Desktop/newcore/drivers/storage/w25qxx/w25qxx.h ****     sector_num *= 4096;
 215              		.loc 3 171 5 is_stmt 1 view .LVU48
 216              		.loc 3 171 16 is_stmt 0 view .LVU49
 217 0006 0D03     		lsls	r5, r1, #12
 218              	.LVL13:
 172:/mnt/c/Users/31740/Desktop/newcore/drivers/storage/w25qxx/w25qxx.h ****     W25Qxx_write_enable(dev);
 219              		.loc 3 172 5 is_stmt 1 view .LVU50
 220 0008 FFF7FEFF 		bl	W25Qxx_write_enable
 221              	.LVL14:
 173:/mnt/c/Users/31740/Desktop/newcore/drivers/storage/w25qxx/w25qxx.h ****     dev->send_start(dev);
 222              		.loc 3 173 5 view .LVU51
 223              		.loc 3 173 8 is_stmt 0 view .LVU52
 224 000c 636B     		ldr	r3, [r4, #52]
 225              		.loc 3 173 5 view .LVU53
 226 000e 2046     		mov	r0, r4
 227 0010 9847     		blx	r3
 228              	.LVL15:
 174:/mnt/c/Users/31740/Desktop/newcore/drivers/storage/w25qxx/w25qxx.h ****     uint8_t cmd[4] = {0x20, (sector_num >> 16) & 0xff, (sector_num >> 8) & 0xff, sector_num & 0xff}
 229              		.loc 3 174 5 is_stmt 1 view .LVU54
 230              		.loc 3 174 13 is_stmt 0 view .LVU55
 231 0012 2023     		movs	r3, #32
 232 0014 8DF80430 		strb	r3, [sp, #4]
 233              		.loc 3 174 41 view .LVU56
 234 0018 2B0C     		lsrs	r3, r5, #16
 235              		.loc 3 174 13 view .LVU57
 236 001a 8DF80530 		strb	r3, [sp, #5]
 237              		.loc 3 174 68 view .LVU58
 238 001e 2B0A     		lsrs	r3, r5, #8
 239              		.loc 3 174 13 view .LVU59
 240 0020 8DF80630 		strb	r3, [sp, #6]
 241 0024 8DF80750 		strb	r5, [sp, #7]
 175:/mnt/c/Users/31740/Desktop/newcore/drivers/storage/w25qxx/w25qxx.h ****     dev->send_data(dev,cmd,4);
 242              		.loc 3 175 5 is_stmt 1 view .LVU60
 243              		.loc 3 175 8 is_stmt 0 view .LVU61
 244 0028 E36A     		ldr	r3, [r4, #44]
ARM GAS  /tmp/ccyCLDig.s 			page 13


 245              		.loc 3 175 5 view .LVU62
 246 002a 0422     		movs	r2, #4
 247 002c 0DEB0201 		add	r1, sp, r2
 248 0030 2046     		mov	r0, r4
 249 0032 9847     		blx	r3
 250              	.LVL16:
 176:/mnt/c/Users/31740/Desktop/newcore/drivers/storage/w25qxx/w25qxx.h ****     dev->send_stop(dev);
 251              		.loc 3 176 5 is_stmt 1 view .LVU63
 252              		.loc 3 176 8 is_stmt 0 view .LVU64
 253 0034 A36B     		ldr	r3, [r4, #56]
 254              		.loc 3 176 5 view .LVU65
 255 0036 2046     		mov	r0, r4
 256 0038 9847     		blx	r3
 257              	.LVL17:
 177:/mnt/c/Users/31740/Desktop/newcore/drivers/storage/w25qxx/w25qxx.h **** }
 258              		.loc 3 177 1 view .LVU66
 259 003a 03B0     		add	sp, sp, #12
 260              	.LCFI8:
 261              		.cfi_def_cfa_offset 12
 262              		@ sp needed
 263 003c 30BD     		pop	{r4, r5, pc}
 264              		.loc 3 177 1 view .LVU67
 265              		.cfi_endproc
 266              	.LFE1044:
 268              		.section	.text.W25Qxx_write,"ax",%progbits
 269              		.align	1
 270              		.syntax unified
 271              		.thumb
 272              		.thumb_func
 274              	W25Qxx_write:
 275              	.LVL18:
 276              	.LFB1045:
 178:/mnt/c/Users/31740/Desktop/newcore/drivers/storage/w25qxx/w25qxx.h **** static void W25Qxx_write(struct w25qxx_dev *dev,uint8_t* buffer, uint32_t addr, uint16_t numbyte)
 179:/mnt/c/Users/31740/Desktop/newcore/drivers/storage/w25qxx/w25qxx.h **** {
 277              		.loc 3 179 1 is_stmt 1 view -0
 278              		.cfi_startproc
 279              		@ args = 0, pretend = 0, frame = 8
 280              		@ frame_needed = 0, uses_anonymous_args = 0
 281              		.loc 3 179 1 is_stmt 0 view .LVU69
 282 0000 F0B5     		push	{r4, r5, r6, r7, lr}
 283              	.LCFI9:
 284              		.cfi_def_cfa_offset 20
 285              		.cfi_offset 4, -20
 286              		.cfi_offset 5, -16
 287              		.cfi_offset 6, -12
 288              		.cfi_offset 7, -8
 289              		.cfi_offset 14, -4
 290 0002 83B0     		sub	sp, sp, #12
 291              	.LCFI10:
 292              		.cfi_def_cfa_offset 32
 293 0004 0446     		mov	r4, r0
 294 0006 0E46     		mov	r6, r1
 295 0008 1546     		mov	r5, r2
 296 000a 1F46     		mov	r7, r3
 180:/mnt/c/Users/31740/Desktop/newcore/drivers/storage/w25qxx/w25qxx.h ****     W25Qxx_wait_busy(dev);
 297              		.loc 3 180 5 is_stmt 1 view .LVU70
 298 000c FFF7FEFF 		bl	W25Qxx_wait_busy
ARM GAS  /tmp/ccyCLDig.s 			page 14


 299              	.LVL19:
 181:/mnt/c/Users/31740/Desktop/newcore/drivers/storage/w25qxx/w25qxx.h ****     W25Qxx_write_enable(dev);
 300              		.loc 3 181 5 view .LVU71
 301 0010 2046     		mov	r0, r4
 302 0012 FFF7FEFF 		bl	W25Qxx_write_enable
 303              	.LVL20:
 182:/mnt/c/Users/31740/Desktop/newcore/drivers/storage/w25qxx/w25qxx.h ****     dev->send_start(dev);
 304              		.loc 3 182 5 view .LVU72
 305              		.loc 3 182 8 is_stmt 0 view .LVU73
 306 0016 636B     		ldr	r3, [r4, #52]
 307              		.loc 3 182 5 view .LVU74
 308 0018 2046     		mov	r0, r4
 309 001a 9847     		blx	r3
 310              	.LVL21:
 183:/mnt/c/Users/31740/Desktop/newcore/drivers/storage/w25qxx/w25qxx.h ****     uint8_t cmd[4] = {0x02, (addr >> 16) & 0xff, (addr >> 8) & 0xff, addr & 0xff};
 311              		.loc 3 183 5 is_stmt 1 view .LVU75
 312              		.loc 3 183 13 is_stmt 0 view .LVU76
 313 001c 0223     		movs	r3, #2
 314 001e 8DF80430 		strb	r3, [sp, #4]
 315              		.loc 3 183 35 view .LVU77
 316 0022 2B0C     		lsrs	r3, r5, #16
 317              		.loc 3 183 13 view .LVU78
 318 0024 8DF80530 		strb	r3, [sp, #5]
 319              		.loc 3 183 56 view .LVU79
 320 0028 2B0A     		lsrs	r3, r5, #8
 321              		.loc 3 183 13 view .LVU80
 322 002a 8DF80630 		strb	r3, [sp, #6]
 323 002e 8DF80750 		strb	r5, [sp, #7]
 184:/mnt/c/Users/31740/Desktop/newcore/drivers/storage/w25qxx/w25qxx.h ****     dev->send_data(dev,cmd,4);
 324              		.loc 3 184 5 is_stmt 1 view .LVU81
 325              		.loc 3 184 8 is_stmt 0 view .LVU82
 326 0032 E36A     		ldr	r3, [r4, #44]
 327              		.loc 3 184 5 view .LVU83
 328 0034 0422     		movs	r2, #4
 329 0036 0DEB0201 		add	r1, sp, r2
 330 003a 2046     		mov	r0, r4
 331 003c 9847     		blx	r3
 332              	.LVL22:
 185:/mnt/c/Users/31740/Desktop/newcore/drivers/storage/w25qxx/w25qxx.h ****     dev->send_data(dev,buffer,numbyte);
 333              		.loc 3 185 5 is_stmt 1 view .LVU84
 334              		.loc 3 185 8 is_stmt 0 view .LVU85
 335 003e E36A     		ldr	r3, [r4, #44]
 336              		.loc 3 185 5 view .LVU86
 337 0040 3A46     		mov	r2, r7
 338 0042 3146     		mov	r1, r6
 339 0044 2046     		mov	r0, r4
 340 0046 9847     		blx	r3
 341              	.LVL23:
 186:/mnt/c/Users/31740/Desktop/newcore/drivers/storage/w25qxx/w25qxx.h ****     dev->send_stop(dev);
 342              		.loc 3 186 5 is_stmt 1 view .LVU87
 343              		.loc 3 186 8 is_stmt 0 view .LVU88
 344 0048 A36B     		ldr	r3, [r4, #56]
 345              		.loc 3 186 5 view .LVU89
 346 004a 2046     		mov	r0, r4
 347 004c 9847     		blx	r3
 348              	.LVL24:
 187:/mnt/c/Users/31740/Desktop/newcore/drivers/storage/w25qxx/w25qxx.h **** }
ARM GAS  /tmp/ccyCLDig.s 			page 15


 349              		.loc 3 187 1 view .LVU90
 350 004e 03B0     		add	sp, sp, #12
 351              	.LCFI11:
 352              		.cfi_def_cfa_offset 20
 353              		@ sp needed
 354 0050 F0BD     		pop	{r4, r5, r6, r7, pc}
 355              		.loc 3 187 1 view .LVU91
 356              		.cfi_endproc
 357              	.LFE1045:
 359              		.section	.text.W25Qxx_read,"ax",%progbits
 360              		.align	1
 361              		.syntax unified
 362              		.thumb
 363              		.thumb_func
 365              	W25Qxx_read:
 366              	.LVL25:
 367              	.LFB1046:
 188:/mnt/c/Users/31740/Desktop/newcore/drivers/storage/w25qxx/w25qxx.h **** 
 189:/mnt/c/Users/31740/Desktop/newcore/drivers/storage/w25qxx/w25qxx.h **** static void W25Qxx_read(struct w25qxx_dev *dev,uint8_t* buffer, uint32_t addr, uint16_t numbyte)
 190:/mnt/c/Users/31740/Desktop/newcore/drivers/storage/w25qxx/w25qxx.h **** {
 368              		.loc 3 190 1 is_stmt 1 view -0
 369              		.cfi_startproc
 370              		@ args = 0, pretend = 0, frame = 8
 371              		@ frame_needed = 0, uses_anonymous_args = 0
 372              		.loc 3 190 1 is_stmt 0 view .LVU93
 373 0000 F0B5     		push	{r4, r5, r6, r7, lr}
 374              	.LCFI12:
 375              		.cfi_def_cfa_offset 20
 376              		.cfi_offset 4, -20
 377              		.cfi_offset 5, -16
 378              		.cfi_offset 6, -12
 379              		.cfi_offset 7, -8
 380              		.cfi_offset 14, -4
 381 0002 83B0     		sub	sp, sp, #12
 382              	.LCFI13:
 383              		.cfi_def_cfa_offset 32
 384 0004 0446     		mov	r4, r0
 385 0006 0E46     		mov	r6, r1
 386 0008 1546     		mov	r5, r2
 387 000a 1F46     		mov	r7, r3
 191:/mnt/c/Users/31740/Desktop/newcore/drivers/storage/w25qxx/w25qxx.h ****     W25Qxx_wait_busy(dev);
 388              		.loc 3 191 5 is_stmt 1 view .LVU94
 389 000c FFF7FEFF 		bl	W25Qxx_wait_busy
 390              	.LVL26:
 192:/mnt/c/Users/31740/Desktop/newcore/drivers/storage/w25qxx/w25qxx.h ****     dev->send_start(dev);
 391              		.loc 3 192 5 view .LVU95
 392              		.loc 3 192 8 is_stmt 0 view .LVU96
 393 0010 636B     		ldr	r3, [r4, #52]
 394              		.loc 3 192 5 view .LVU97
 395 0012 2046     		mov	r0, r4
 396 0014 9847     		blx	r3
 397              	.LVL27:
 193:/mnt/c/Users/31740/Desktop/newcore/drivers/storage/w25qxx/w25qxx.h ****     uint8_t cmd[4] = {0x03, (addr >> 16) & 0xff, (addr >> 8) & 0xff, addr & 0xff};
 398              		.loc 3 193 5 is_stmt 1 view .LVU98
 399              		.loc 3 193 13 is_stmt 0 view .LVU99
 400 0016 0323     		movs	r3, #3
 401 0018 8DF80430 		strb	r3, [sp, #4]
ARM GAS  /tmp/ccyCLDig.s 			page 16


 402              		.loc 3 193 35 view .LVU100
 403 001c 2B0C     		lsrs	r3, r5, #16
 404              		.loc 3 193 13 view .LVU101
 405 001e 8DF80530 		strb	r3, [sp, #5]
 406              		.loc 3 193 56 view .LVU102
 407 0022 2B0A     		lsrs	r3, r5, #8
 408              		.loc 3 193 13 view .LVU103
 409 0024 8DF80630 		strb	r3, [sp, #6]
 410 0028 8DF80750 		strb	r5, [sp, #7]
 194:/mnt/c/Users/31740/Desktop/newcore/drivers/storage/w25qxx/w25qxx.h ****     dev->send_data(dev,cmd,4);
 411              		.loc 3 194 5 is_stmt 1 view .LVU104
 412              		.loc 3 194 8 is_stmt 0 view .LVU105
 413 002c E36A     		ldr	r3, [r4, #44]
 414              		.loc 3 194 5 view .LVU106
 415 002e 0422     		movs	r2, #4
 416 0030 0DEB0201 		add	r1, sp, r2
 417 0034 2046     		mov	r0, r4
 418 0036 9847     		blx	r3
 419              	.LVL28:
 195:/mnt/c/Users/31740/Desktop/newcore/drivers/storage/w25qxx/w25qxx.h ****     dev->read_data(dev,buffer,numbyte);
 420              		.loc 3 195 5 is_stmt 1 view .LVU107
 421              		.loc 3 195 8 is_stmt 0 view .LVU108
 422 0038 236B     		ldr	r3, [r4, #48]
 423              		.loc 3 195 5 view .LVU109
 424 003a 3A46     		mov	r2, r7
 425 003c 3146     		mov	r1, r6
 426 003e 2046     		mov	r0, r4
 427 0040 9847     		blx	r3
 428              	.LVL29:
 196:/mnt/c/Users/31740/Desktop/newcore/drivers/storage/w25qxx/w25qxx.h ****     dev->send_stop(dev);
 429              		.loc 3 196 5 is_stmt 1 view .LVU110
 430              		.loc 3 196 8 is_stmt 0 view .LVU111
 431 0042 A36B     		ldr	r3, [r4, #56]
 432              		.loc 3 196 5 view .LVU112
 433 0044 2046     		mov	r0, r4
 434 0046 9847     		blx	r3
 435              	.LVL30:
 197:/mnt/c/Users/31740/Desktop/newcore/drivers/storage/w25qxx/w25qxx.h **** }
 436              		.loc 3 197 1 view .LVU113
 437 0048 03B0     		add	sp, sp, #12
 438              	.LCFI14:
 439              		.cfi_def_cfa_offset 20
 440              		@ sp needed
 441 004a F0BD     		pop	{r4, r5, r6, r7, pc}
 442              		.loc 3 197 1 view .LVU114
 443              		.cfi_endproc
 444              	.LFE1046:
 446              		.section	.text.W25Qxx_device_write_page,"ax",%progbits
 447              		.align	1
 448              		.syntax unified
 449              		.thumb
 450              		.thumb_func
 452              	W25Qxx_device_write_page:
 453              	.LVL31:
 454              	.LFB1047:
 198:/mnt/c/Users/31740/Desktop/newcore/drivers/storage/w25qxx/w25qxx.h **** 
 199:/mnt/c/Users/31740/Desktop/newcore/drivers/storage/w25qxx/w25qxx.h **** static int  W25Qxx_device_write_page(struct w25qxx_dev *dev,void *buf, int len,uint32_t page_4k)
ARM GAS  /tmp/ccyCLDig.s 			page 17


 200:/mnt/c/Users/31740/Desktop/newcore/drivers/storage/w25qxx/w25qxx.h **** {
 455              		.loc 3 200 1 is_stmt 1 view -0
 456              		.cfi_startproc
 457              		@ args = 0, pretend = 0, frame = 0
 458              		@ frame_needed = 0, uses_anonymous_args = 0
 459              		.loc 3 200 1 is_stmt 0 view .LVU116
 460 0000 2DE9F843 		push	{r3, r4, r5, r6, r7, r8, r9, lr}
 461              	.LCFI15:
 462              		.cfi_def_cfa_offset 32
 463              		.cfi_offset 3, -32
 464              		.cfi_offset 4, -28
 465              		.cfi_offset 5, -24
 466              		.cfi_offset 6, -20
 467              		.cfi_offset 7, -16
 468              		.cfi_offset 8, -12
 469              		.cfi_offset 9, -8
 470              		.cfi_offset 14, -4
 471 0004 0746     		mov	r7, r0
 472 0006 8846     		mov	r8, r1
 473 0008 9146     		mov	r9, r2
 474 000a 1D46     		mov	r5, r3
 201:/mnt/c/Users/31740/Desktop/newcore/drivers/storage/w25qxx/w25qxx.h ****     W25Qxx_erase_sector(dev,page_4k);
 475              		.loc 3 201 5 is_stmt 1 view .LVU117
 476 000c 1946     		mov	r1, r3
 477              	.LVL32:
 478              		.loc 3 201 5 is_stmt 0 view .LVU118
 479 000e FFF7FEFF 		bl	W25Qxx_erase_sector
 480              	.LVL33:
 202:/mnt/c/Users/31740/Desktop/newcore/drivers/storage/w25qxx/w25qxx.h ****     int times  = len / 256;
 481              		.loc 3 202 5 is_stmt 1 view .LVU119
 482              		.loc 3 202 9 is_stmt 0 view .LVU120
 483 0012 4E46     		mov	r6, r9
 484 0014 B9F1000F 		cmp	r9, #0
 485 0018 03DB     		blt	.L20
 486              	.L16:
 487              		.loc 3 202 9 view .LVU121
 488 001a 3612     		asrs	r6, r6, #8
 489              	.LVL34:
 203:/mnt/c/Users/31740/Desktop/newcore/drivers/storage/w25qxx/w25qxx.h ****     int offset = page_4k*4096;
 490              		.loc 3 203 5 is_stmt 1 view .LVU122
 491              		.loc 3 203 25 is_stmt 0 view .LVU123
 492 001c 2D03     		lsls	r5, r5, #12
 493              	.LVL35:
 204:/mnt/c/Users/31740/Desktop/newcore/drivers/storage/w25qxx/w25qxx.h ****     for(int i =0;i<times;i++){
 494              		.loc 3 204 5 is_stmt 1 view .LVU124
 495              	.LBB103:
 496              		.loc 3 204 9 view .LVU125
 497              		.loc 3 204 13 is_stmt 0 view .LVU126
 498 001e 0024     		movs	r4, #0
 499              		.loc 3 204 5 view .LVU127
 500 0020 0DE0     		b	.L17
 501              	.LVL36:
 502              	.L20:
 503              		.loc 3 204 5 view .LVU128
 504              	.LBE103:
 202:/mnt/c/Users/31740/Desktop/newcore/drivers/storage/w25qxx/w25qxx.h ****     int times  = len / 256;
 505              		.loc 3 202 9 view .LVU129
ARM GAS  /tmp/ccyCLDig.s 			page 18


 506 0022 09F1FF06 		add	r6, r9, #255
 507              	.LVL37:
 202:/mnt/c/Users/31740/Desktop/newcore/drivers/storage/w25qxx/w25qxx.h ****     int times  = len / 256;
 508              		.loc 3 202 9 view .LVU130
 509 0026 F8E7     		b	.L16
 510              	.LVL38:
 511              	.L18:
 512              	.LBB104:
 205:/mnt/c/Users/31740/Desktop/newcore/drivers/storage/w25qxx/w25qxx.h ****         W25Qxx_write(dev,(uint8_t *)buf + i*256, offset ,256);            
 513              		.loc 3 205 9 is_stmt 1 view .LVU131
 514 0028 4FF48073 		mov	r3, #256
 515 002c 2A46     		mov	r2, r5
 516 002e 08EB0421 		add	r1, r8, r4, lsl #8
 517 0032 3846     		mov	r0, r7
 518 0034 FFF7FEFF 		bl	W25Qxx_write
 519              	.LVL39:
 206:/mnt/c/Users/31740/Desktop/newcore/drivers/storage/w25qxx/w25qxx.h ****         offset += 256;
 520              		.loc 3 206 9 view .LVU132
 521              		.loc 3 206 16 is_stmt 0 view .LVU133
 522 0038 05F58075 		add	r5, r5, #256
 523              	.LVL40:
 204:/mnt/c/Users/31740/Desktop/newcore/drivers/storage/w25qxx/w25qxx.h ****     for(int i =0;i<times;i++){
 524              		.loc 3 204 27 is_stmt 1 discriminator 3 view .LVU134
 525 003c 0134     		adds	r4, r4, #1
 526              	.LVL41:
 527              	.L17:
 204:/mnt/c/Users/31740/Desktop/newcore/drivers/storage/w25qxx/w25qxx.h ****     for(int i =0;i<times;i++){
 528              		.loc 3 204 19 discriminator 1 view .LVU135
 529 003e B442     		cmp	r4, r6
 530 0040 F2DB     		blt	.L18
 204:/mnt/c/Users/31740/Desktop/newcore/drivers/storage/w25qxx/w25qxx.h ****     for(int i =0;i<times;i++){
 531              		.loc 3 204 19 is_stmt 0 discriminator 1 view .LVU136
 532              	.LBE104:
 207:/mnt/c/Users/31740/Desktop/newcore/drivers/storage/w25qxx/w25qxx.h ****     }
 208:/mnt/c/Users/31740/Desktop/newcore/drivers/storage/w25qxx/w25qxx.h ****     return len;
 533              		.loc 3 208 5 is_stmt 1 view .LVU137
 209:/mnt/c/Users/31740/Desktop/newcore/drivers/storage/w25qxx/w25qxx.h **** }
 534              		.loc 3 209 1 is_stmt 0 view .LVU138
 535 0042 4846     		mov	r0, r9
 536 0044 BDE8F883 		pop	{r3, r4, r5, r6, r7, r8, r9, pc}
 537              		.loc 3 209 1 view .LVU139
 538              		.cfi_endproc
 539              	.LFE1047:
 541              		.section	.text.W25Qxx_device_read_page,"ax",%progbits
 542              		.align	1
 543              		.syntax unified
 544              		.thumb
 545              		.thumb_func
 547              	W25Qxx_device_read_page:
 548              	.LVL42:
 549              	.LFB1048:
 210:/mnt/c/Users/31740/Desktop/newcore/drivers/storage/w25qxx/w25qxx.h **** 
 211:/mnt/c/Users/31740/Desktop/newcore/drivers/storage/w25qxx/w25qxx.h **** static int  W25Qxx_device_read_page(struct w25qxx_dev *dev,void *buf, int len,uint32_t page_512b){
 550              		.loc 3 211 98 is_stmt 1 view -0
 551              		.cfi_startproc
 552              		@ args = 0, pretend = 0, frame = 0
 553              		@ frame_needed = 0, uses_anonymous_args = 0
ARM GAS  /tmp/ccyCLDig.s 			page 19


 554              		.loc 3 211 98 is_stmt 0 view .LVU141
 555 0000 10B5     		push	{r4, lr}
 556              	.LCFI16:
 557              		.cfi_def_cfa_offset 8
 558              		.cfi_offset 4, -8
 559              		.cfi_offset 14, -4
 560 0002 1446     		mov	r4, r2
 561 0004 1A46     		mov	r2, r3
 562              	.LVL43:
 212:/mnt/c/Users/31740/Desktop/newcore/drivers/storage/w25qxx/w25qxx.h ****     W25Qxx_read(dev,buf,page_512b*512,len);
 563              		.loc 3 212 5 is_stmt 1 view .LVU142
 564 0006 A3B2     		uxth	r3, r4
 565              	.LVL44:
 566              		.loc 3 212 5 is_stmt 0 view .LVU143
 567 0008 5202     		lsls	r2, r2, #9
 568              	.LVL45:
 569              		.loc 3 212 5 view .LVU144
 570 000a FFF7FEFF 		bl	W25Qxx_read
 571              	.LVL46:
 213:/mnt/c/Users/31740/Desktop/newcore/drivers/storage/w25qxx/w25qxx.h ****     return len;
 572              		.loc 3 213 5 is_stmt 1 view .LVU145
 214:/mnt/c/Users/31740/Desktop/newcore/drivers/storage/w25qxx/w25qxx.h **** }
 573              		.loc 3 214 1 is_stmt 0 view .LVU146
 574 000e 2046     		mov	r0, r4
 575 0010 10BD     		pop	{r4, pc}
 576              		.loc 3 214 1 view .LVU147
 577              		.cfi_endproc
 578              	.LFE1048:
 580              		.section	.text.w25qxx_getgeo,"ax",%progbits
 581              		.align	1
 582              		.syntax unified
 583              		.thumb
 584              		.thumb_func
 586              	w25qxx_getgeo:
 587              	.LVL47:
 588              	.LFB1051:
   1:/mnt/c/Users/31740/Desktop/newcore/drivers/storage/w25qxx/w25qxx.c **** #include <linux/kernel.h>
   2:/mnt/c/Users/31740/Desktop/newcore/drivers/storage/w25qxx/w25qxx.c **** #include <linux/init.h>
   3:/mnt/c/Users/31740/Desktop/newcore/drivers/storage/w25qxx/w25qxx.c **** #include <linux/spi/spi.h>
   4:/mnt/c/Users/31740/Desktop/newcore/drivers/storage/w25qxx/w25qxx.c **** #include <linux/gpio/gpio.h>
   5:/mnt/c/Users/31740/Desktop/newcore/drivers/storage/w25qxx/w25qxx.c **** #include <linux/fs.h>
   6:/mnt/c/Users/31740/Desktop/newcore/drivers/storage/w25qxx/w25qxx.c **** #include <linux/blkdev.h>
   7:/mnt/c/Users/31740/Desktop/newcore/drivers/storage/w25qxx/w25qxx.c **** #include <linux/slab.h>
   8:/mnt/c/Users/31740/Desktop/newcore/drivers/storage/w25qxx/w25qxx.c **** #include <linux/module.h>
   9:/mnt/c/Users/31740/Desktop/newcore/drivers/storage/w25qxx/w25qxx.c **** #include <linux/spinlock.h>
  10:/mnt/c/Users/31740/Desktop/newcore/drivers/storage/w25qxx/w25qxx.c **** 
  11:/mnt/c/Users/31740/Desktop/newcore/drivers/storage/w25qxx/w25qxx.c **** #include "w25qxx.h"
  12:/mnt/c/Users/31740/Desktop/newcore/drivers/storage/w25qxx/w25qxx.c **** #ifdef  CONFIG_W25QXX_SPI_FLASH
  13:/mnt/c/Users/31740/Desktop/newcore/drivers/storage/w25qxx/w25qxx.c **** 
  14:/mnt/c/Users/31740/Desktop/newcore/drivers/storage/w25qxx/w25qxx.c **** static struct w25qxx_dev *w25qxx1_dev;
  15:/mnt/c/Users/31740/Desktop/newcore/drivers/storage/w25qxx/w25qxx.c **** static char *w25qxx_buffer;
  16:/mnt/c/Users/31740/Desktop/newcore/drivers/storage/w25qxx/w25qxx.c **** 
  17:/mnt/c/Users/31740/Desktop/newcore/drivers/storage/w25qxx/w25qxx.c **** 
  18:/mnt/c/Users/31740/Desktop/newcore/drivers/storage/w25qxx/w25qxx.c **** static int w25qxx_open(struct gendisk *disk, blk_mode_t mode){
  19:/mnt/c/Users/31740/Desktop/newcore/drivers/storage/w25qxx/w25qxx.c ****     pr_info("w25qxx block device opened\n\r");
  20:/mnt/c/Users/31740/Desktop/newcore/drivers/storage/w25qxx/w25qxx.c ****     return 0;
  21:/mnt/c/Users/31740/Desktop/newcore/drivers/storage/w25qxx/w25qxx.c **** }
ARM GAS  /tmp/ccyCLDig.s 			page 20


  22:/mnt/c/Users/31740/Desktop/newcore/drivers/storage/w25qxx/w25qxx.c **** 
  23:/mnt/c/Users/31740/Desktop/newcore/drivers/storage/w25qxx/w25qxx.c **** static void w25qxx_release(struct gendisk *disk, fmode_t mode){
  24:/mnt/c/Users/31740/Desktop/newcore/drivers/storage/w25qxx/w25qxx.c ****     pr_info("w25qxx block device released\n");
  25:/mnt/c/Users/31740/Desktop/newcore/drivers/storage/w25qxx/w25qxx.c **** }
  26:/mnt/c/Users/31740/Desktop/newcore/drivers/storage/w25qxx/w25qxx.c **** 
  27:/mnt/c/Users/31740/Desktop/newcore/drivers/storage/w25qxx/w25qxx.c **** static int w25qxx_getgeo(struct block_device * device , struct hd_geometry * geo){
 589              		.loc 1 27 82 is_stmt 1 view -0
 590              		.cfi_startproc
 591              		@ args = 0, pretend = 0, frame = 0
 592              		@ frame_needed = 0, uses_anonymous_args = 0
 593              		@ link register save eliminated.
  28:/mnt/c/Users/31740/Desktop/newcore/drivers/storage/w25qxx/w25qxx.c ****     geo->heads = 0x01; //
 594              		.loc 1 28 5 view .LVU149
 595              		.loc 1 28 16 is_stmt 0 view .LVU150
 596 0000 0123     		movs	r3, #1
 597 0002 0B70     		strb	r3, [r1]
  29:/mnt/c/Users/31740/Desktop/newcore/drivers/storage/w25qxx/w25qxx.c ****     geo->start = 0;
 598              		.loc 1 29 5 is_stmt 1 view .LVU151
 599              		.loc 1 29 16 is_stmt 0 view .LVU152
 600 0004 0020     		movs	r0, #0
 601              	.LVL48:
 602              		.loc 1 29 16 view .LVU153
 603 0006 4860     		str	r0, [r1, #4]
  30:/mnt/c/Users/31740/Desktop/newcore/drivers/storage/w25qxx/w25qxx.c ****     geo->sectors = w25qxx1_dev->size / 512; //
 604              		.loc 1 30 5 is_stmt 1 view .LVU154
 605              		.loc 1 30 31 is_stmt 0 view .LVU155
 606 0008 034B     		ldr	r3, .L24
 607 000a 1B68     		ldr	r3, [r3]
 608 000c 9B6A     		ldr	r3, [r3, #40]
 609              		.loc 1 30 38 view .LVU156
 610 000e 5B0A     		lsrs	r3, r3, #9
 611              		.loc 1 30 18 view .LVU157
 612 0010 4B70     		strb	r3, [r1, #1]
  31:/mnt/c/Users/31740/Desktop/newcore/drivers/storage/w25qxx/w25qxx.c ****     geo->cylinders = 0x00; // 
 613              		.loc 1 31 5 is_stmt 1 view .LVU158
 614              		.loc 1 31 20 is_stmt 0 view .LVU159
 615 0012 4880     		strh	r0, [r1, #2]	@ movhi
  32:/mnt/c/Users/31740/Desktop/newcore/drivers/storage/w25qxx/w25qxx.c ****     return 0;
 616              		.loc 1 32 5 is_stmt 1 view .LVU160
  33:/mnt/c/Users/31740/Desktop/newcore/drivers/storage/w25qxx/w25qxx.c **** }
 617              		.loc 1 33 1 is_stmt 0 view .LVU161
 618 0014 7047     		bx	lr
 619              	.L25:
 620 0016 00BF     		.align	2
 621              	.L24:
 622 0018 00000000 		.word	w25qxx1_dev
 623              		.cfi_endproc
 624              	.LFE1051:
 626              		.section	.rodata.w25qxx_read_id.str1.4,"aMS",%progbits,1
 627              		.align	2
 628              	.LC0:
 629 0000 464C4153 		.ascii	"FLASH JEDEC ID: 0x%02X 0x%02X 0x%02X ,Detected Flas"
 629      48204A45 
 629      44454320 
 629      49443A20 
 629      30782530 
 630 0033 68205369 		.ascii	"h Size: %d KB (%d MB)\015\012\000"
ARM GAS  /tmp/ccyCLDig.s 			page 21


 630      7A653A20 
 630      2564204B 
 630      42202825 
 630      64204D42 
 631              		.section	.text.w25qxx_read_id,"ax",%progbits
 632              		.align	1
 633              		.syntax unified
 634              		.thumb
 635              		.thumb_func
 637              	w25qxx_read_id:
 638              	.LVL49:
 639              	.LFB1040:
 108:/mnt/c/Users/31740/Desktop/newcore/drivers/storage/w25qxx/w25qxx.h ****     uint8_t cmd2 = 0x9F;
 640              		.loc 3 108 1 is_stmt 1 view -0
 641              		.cfi_startproc
 642              		@ args = 0, pretend = 0, frame = 8
 643              		@ frame_needed = 0, uses_anonymous_args = 0
 108:/mnt/c/Users/31740/Desktop/newcore/drivers/storage/w25qxx/w25qxx.h ****     uint8_t cmd2 = 0x9F;
 644              		.loc 3 108 1 is_stmt 0 view .LVU163
 645 0000 30B5     		push	{r4, r5, lr}
 646              	.LCFI17:
 647              		.cfi_def_cfa_offset 12
 648              		.cfi_offset 4, -12
 649              		.cfi_offset 5, -8
 650              		.cfi_offset 14, -4
 651 0002 87B0     		sub	sp, sp, #28
 652              	.LCFI18:
 653              		.cfi_def_cfa_offset 40
 654 0004 0446     		mov	r4, r0
 109:/mnt/c/Users/31740/Desktop/newcore/drivers/storage/w25qxx/w25qxx.h ****     uint8_t id[3] = {0,0,0}; 
 655              		.loc 3 109 5 is_stmt 1 view .LVU164
 109:/mnt/c/Users/31740/Desktop/newcore/drivers/storage/w25qxx/w25qxx.h ****     uint8_t id[3] = {0,0,0}; 
 656              		.loc 3 109 13 is_stmt 0 view .LVU165
 657 0006 9F23     		movs	r3, #159
 658 0008 8DF81730 		strb	r3, [sp, #23]
 110:/mnt/c/Users/31740/Desktop/newcore/drivers/storage/w25qxx/w25qxx.h ****     dev->send_start(dev);
 659              		.loc 3 110 5 is_stmt 1 view .LVU166
 110:/mnt/c/Users/31740/Desktop/newcore/drivers/storage/w25qxx/w25qxx.h ****     dev->send_start(dev);
 660              		.loc 3 110 13 is_stmt 0 view .LVU167
 661 000c 0025     		movs	r5, #0
 662 000e ADF81450 		strh	r5, [sp, #20]	@ movhi
 663 0012 8DF81650 		strb	r5, [sp, #22]
 111:/mnt/c/Users/31740/Desktop/newcore/drivers/storage/w25qxx/w25qxx.h ****     dev->send_data(dev,&cmd2,1);
 664              		.loc 3 111 5 is_stmt 1 view .LVU168
 111:/mnt/c/Users/31740/Desktop/newcore/drivers/storage/w25qxx/w25qxx.h ****     dev->send_data(dev,&cmd2,1);
 665              		.loc 3 111 8 is_stmt 0 view .LVU169
 666 0016 436B     		ldr	r3, [r0, #52]
 111:/mnt/c/Users/31740/Desktop/newcore/drivers/storage/w25qxx/w25qxx.h ****     dev->send_data(dev,&cmd2,1);
 667              		.loc 3 111 5 view .LVU170
 668 0018 9847     		blx	r3
 669              	.LVL50:
 112:/mnt/c/Users/31740/Desktop/newcore/drivers/storage/w25qxx/w25qxx.h ****     dev->read_data(dev,id,3);
 670              		.loc 3 112 5 is_stmt 1 view .LVU171
 112:/mnt/c/Users/31740/Desktop/newcore/drivers/storage/w25qxx/w25qxx.h ****     dev->read_data(dev,id,3);
 671              		.loc 3 112 8 is_stmt 0 view .LVU172
 672 001a E36A     		ldr	r3, [r4, #44]
 112:/mnt/c/Users/31740/Desktop/newcore/drivers/storage/w25qxx/w25qxx.h ****     dev->read_data(dev,id,3);
ARM GAS  /tmp/ccyCLDig.s 			page 22


 673              		.loc 3 112 5 view .LVU173
 674 001c 0122     		movs	r2, #1
 675 001e 0DF11701 		add	r1, sp, #23
 676 0022 2046     		mov	r0, r4
 677 0024 9847     		blx	r3
 678              	.LVL51:
 113:/mnt/c/Users/31740/Desktop/newcore/drivers/storage/w25qxx/w25qxx.h ****     dev->send_stop(dev);
 679              		.loc 3 113 5 is_stmt 1 view .LVU174
 113:/mnt/c/Users/31740/Desktop/newcore/drivers/storage/w25qxx/w25qxx.h ****     dev->send_stop(dev);
 680              		.loc 3 113 8 is_stmt 0 view .LVU175
 681 0026 236B     		ldr	r3, [r4, #48]
 113:/mnt/c/Users/31740/Desktop/newcore/drivers/storage/w25qxx/w25qxx.h ****     dev->send_stop(dev);
 682              		.loc 3 113 5 view .LVU176
 683 0028 0322     		movs	r2, #3
 684 002a 05A9     		add	r1, sp, #20
 685 002c 2046     		mov	r0, r4
 686 002e 9847     		blx	r3
 687              	.LVL52:
 114:/mnt/c/Users/31740/Desktop/newcore/drivers/storage/w25qxx/w25qxx.h ****     dev->size = 0;
 688              		.loc 3 114 5 is_stmt 1 view .LVU177
 114:/mnt/c/Users/31740/Desktop/newcore/drivers/storage/w25qxx/w25qxx.h ****     dev->size = 0;
 689              		.loc 3 114 8 is_stmt 0 view .LVU178
 690 0030 A36B     		ldr	r3, [r4, #56]
 114:/mnt/c/Users/31740/Desktop/newcore/drivers/storage/w25qxx/w25qxx.h ****     dev->size = 0;
 691              		.loc 3 114 5 view .LVU179
 692 0032 2046     		mov	r0, r4
 693 0034 9847     		blx	r3
 694              	.LVL53:
 115:/mnt/c/Users/31740/Desktop/newcore/drivers/storage/w25qxx/w25qxx.h ****     if(id[2]  >= 0x10 && id[2] <= 0x25){
 695              		.loc 3 115 5 is_stmt 1 view .LVU180
 115:/mnt/c/Users/31740/Desktop/newcore/drivers/storage/w25qxx/w25qxx.h ****     if(id[2]  >= 0x10 && id[2] <= 0x25){
 696              		.loc 3 115 15 is_stmt 0 view .LVU181
 697 0036 A562     		str	r5, [r4, #40]
 116:/mnt/c/Users/31740/Desktop/newcore/drivers/storage/w25qxx/w25qxx.h ****         dev->size  = 1 << id[2];
 698              		.loc 3 116 5 is_stmt 1 view .LVU182
 116:/mnt/c/Users/31740/Desktop/newcore/drivers/storage/w25qxx/w25qxx.h ****         dev->size  = 1 << id[2];
 699              		.loc 3 116 10 is_stmt 0 view .LVU183
 700 0038 9DF81620 		ldrb	r2, [sp, #22]	@ zero_extendqisi2
 116:/mnt/c/Users/31740/Desktop/newcore/drivers/storage/w25qxx/w25qxx.h ****         dev->size  = 1 << id[2];
 701              		.loc 3 116 23 view .LVU184
 702 003c A2F11003 		sub	r3, r2, #16
 703 0040 DBB2     		uxtb	r3, r3
 116:/mnt/c/Users/31740/Desktop/newcore/drivers/storage/w25qxx/w25qxx.h ****         dev->size  = 1 << id[2];
 704              		.loc 3 116 7 view .LVU185
 705 0042 152B     		cmp	r3, #21
 706 0044 02D8     		bhi	.L27
 117:/mnt/c/Users/31740/Desktop/newcore/drivers/storage/w25qxx/w25qxx.h ****     }
 707              		.loc 3 117 9 is_stmt 1 view .LVU186
 117:/mnt/c/Users/31740/Desktop/newcore/drivers/storage/w25qxx/w25qxx.h ****     }
 708              		.loc 3 117 24 is_stmt 0 view .LVU187
 709 0046 0123     		movs	r3, #1
 710 0048 9340     		lsls	r3, r3, r2
 117:/mnt/c/Users/31740/Desktop/newcore/drivers/storage/w25qxx/w25qxx.h ****     }
 711              		.loc 3 117 20 view .LVU188
 712 004a A362     		str	r3, [r4, #40]
 713              	.L27:
 119:/mnt/c/Users/31740/Desktop/newcore/drivers/storage/w25qxx/w25qxx.h ****     u8 cmd[4] = {0x90,0x00,0x00,0x00};
ARM GAS  /tmp/ccyCLDig.s 			page 23


 714              		.loc 3 119 5 is_stmt 1 view .LVU189
 715 004c A36A     		ldr	r3, [r4, #40]
 716 004e 190D     		lsrs	r1, r3, #20
 717 0050 0291     		str	r1, [sp, #8]
 718 0052 9B0A     		lsrs	r3, r3, #10
 719 0054 0193     		str	r3, [sp, #4]
 720 0056 0092     		str	r2, [sp]
 721 0058 9DF81530 		ldrb	r3, [sp, #21]	@ zero_extendqisi2
 722 005c 9DF81420 		ldrb	r2, [sp, #20]	@ zero_extendqisi2
 723 0060 0C49     		ldr	r1, .L29
 724 0062 0620     		movs	r0, #6
 725 0064 FFF7FEFF 		bl	printk
 726              	.LVL54:
 120:/mnt/c/Users/31740/Desktop/newcore/drivers/storage/w25qxx/w25qxx.h ****     dev->send_start(dev);
 727              		.loc 3 120 5 view .LVU190
 120:/mnt/c/Users/31740/Desktop/newcore/drivers/storage/w25qxx/w25qxx.h ****     dev->send_start(dev);
 728              		.loc 3 120 8 is_stmt 0 view .LVU191
 729 0068 9023     		movs	r3, #144
 730 006a 0493     		str	r3, [sp, #16]
 121:/mnt/c/Users/31740/Desktop/newcore/drivers/storage/w25qxx/w25qxx.h ****     dev->send_data(dev,cmd,4);
 731              		.loc 3 121 5 is_stmt 1 view .LVU192
 121:/mnt/c/Users/31740/Desktop/newcore/drivers/storage/w25qxx/w25qxx.h ****     dev->send_data(dev,cmd,4);
 732              		.loc 3 121 8 is_stmt 0 view .LVU193
 733 006c 636B     		ldr	r3, [r4, #52]
 121:/mnt/c/Users/31740/Desktop/newcore/drivers/storage/w25qxx/w25qxx.h ****     dev->send_data(dev,cmd,4);
 734              		.loc 3 121 5 view .LVU194
 735 006e 2046     		mov	r0, r4
 736 0070 9847     		blx	r3
 737              	.LVL55:
 122:/mnt/c/Users/31740/Desktop/newcore/drivers/storage/w25qxx/w25qxx.h ****     dev->read_data(dev,&dev->id,2);
 738              		.loc 3 122 5 is_stmt 1 view .LVU195
 122:/mnt/c/Users/31740/Desktop/newcore/drivers/storage/w25qxx/w25qxx.h ****     dev->read_data(dev,&dev->id,2);
 739              		.loc 3 122 8 is_stmt 0 view .LVU196
 740 0072 E36A     		ldr	r3, [r4, #44]
 122:/mnt/c/Users/31740/Desktop/newcore/drivers/storage/w25qxx/w25qxx.h ****     dev->read_data(dev,&dev->id,2);
 741              		.loc 3 122 5 view .LVU197
 742 0074 0422     		movs	r2, #4
 743 0076 04A9     		add	r1, sp, #16
 744 0078 2046     		mov	r0, r4
 745 007a 9847     		blx	r3
 746              	.LVL56:
 123:/mnt/c/Users/31740/Desktop/newcore/drivers/storage/w25qxx/w25qxx.h ****     dev->send_stop(dev);
 747              		.loc 3 123 5 is_stmt 1 view .LVU198
 123:/mnt/c/Users/31740/Desktop/newcore/drivers/storage/w25qxx/w25qxx.h ****     dev->send_stop(dev);
 748              		.loc 3 123 8 is_stmt 0 view .LVU199
 749 007c 236B     		ldr	r3, [r4, #48]
 123:/mnt/c/Users/31740/Desktop/newcore/drivers/storage/w25qxx/w25qxx.h ****     dev->send_stop(dev);
 750              		.loc 3 123 5 view .LVU200
 751 007e 0222     		movs	r2, #2
 752 0080 04F12401 		add	r1, r4, #36
 753 0084 2046     		mov	r0, r4
 754 0086 9847     		blx	r3
 755              	.LVL57:
 124:/mnt/c/Users/31740/Desktop/newcore/drivers/storage/w25qxx/w25qxx.h ****     return 0;
 756              		.loc 3 124 5 is_stmt 1 view .LVU201
 124:/mnt/c/Users/31740/Desktop/newcore/drivers/storage/w25qxx/w25qxx.h ****     return 0;
 757              		.loc 3 124 8 is_stmt 0 view .LVU202
ARM GAS  /tmp/ccyCLDig.s 			page 24


 758 0088 A36B     		ldr	r3, [r4, #56]
 124:/mnt/c/Users/31740/Desktop/newcore/drivers/storage/w25qxx/w25qxx.h ****     return 0;
 759              		.loc 3 124 5 view .LVU203
 760 008a 2046     		mov	r0, r4
 761 008c 9847     		blx	r3
 762              	.LVL58:
 125:/mnt/c/Users/31740/Desktop/newcore/drivers/storage/w25qxx/w25qxx.h **** }
 763              		.loc 3 125 5 is_stmt 1 view .LVU204
 126:/mnt/c/Users/31740/Desktop/newcore/drivers/storage/w25qxx/w25qxx.h **** 
 764              		.loc 3 126 1 is_stmt 0 view .LVU205
 765 008e 0020     		movs	r0, #0
 766 0090 07B0     		add	sp, sp, #28
 767              	.LCFI19:
 768              		.cfi_def_cfa_offset 12
 769              		@ sp needed
 770 0092 30BD     		pop	{r4, r5, pc}
 771              	.LVL59:
 772              	.L30:
 126:/mnt/c/Users/31740/Desktop/newcore/drivers/storage/w25qxx/w25qxx.h **** 
 773              		.loc 3 126 1 view .LVU206
 774              		.align	2
 775              	.L29:
 776 0094 00000000 		.word	.LC0
 777              		.cfi_endproc
 778              	.LFE1040:
 780              		.section	.rodata.w25qxx_release.str1.4,"aMS",%progbits,1
 781              		.align	2
 782              	.LC1:
 783 0000 77323571 		.ascii	"w25qxx block device released\012\000"
 783      78782062 
 783      6C6F636B 
 783      20646576 
 783      69636520 
 784              		.section	.text.w25qxx_release,"ax",%progbits
 785              		.align	1
 786              		.syntax unified
 787              		.thumb
 788              		.thumb_func
 790              	w25qxx_release:
 791              	.LVL60:
 792              	.LFB1050:
  23:/mnt/c/Users/31740/Desktop/newcore/drivers/storage/w25qxx/w25qxx.c ****     pr_info("w25qxx block device released\n");
 793              		.loc 1 23 63 is_stmt 1 view -0
 794              		.cfi_startproc
 795              		@ args = 0, pretend = 0, frame = 0
 796              		@ frame_needed = 0, uses_anonymous_args = 0
  23:/mnt/c/Users/31740/Desktop/newcore/drivers/storage/w25qxx/w25qxx.c ****     pr_info("w25qxx block device released\n");
 797              		.loc 1 23 63 is_stmt 0 view .LVU208
 798 0000 08B5     		push	{r3, lr}
 799              	.LCFI20:
 800              		.cfi_def_cfa_offset 8
 801              		.cfi_offset 3, -8
 802              		.cfi_offset 14, -4
  24:/mnt/c/Users/31740/Desktop/newcore/drivers/storage/w25qxx/w25qxx.c **** }
 803              		.loc 1 24 5 is_stmt 1 view .LVU209
 804 0002 0249     		ldr	r1, .L33
 805              	.LVL61:
ARM GAS  /tmp/ccyCLDig.s 			page 25


  24:/mnt/c/Users/31740/Desktop/newcore/drivers/storage/w25qxx/w25qxx.c **** }
 806              		.loc 1 24 5 is_stmt 0 view .LVU210
 807 0004 0620     		movs	r0, #6
 808              	.LVL62:
  24:/mnt/c/Users/31740/Desktop/newcore/drivers/storage/w25qxx/w25qxx.c **** }
 809              		.loc 1 24 5 view .LVU211
 810 0006 FFF7FEFF 		bl	printk
 811              	.LVL63:
  25:/mnt/c/Users/31740/Desktop/newcore/drivers/storage/w25qxx/w25qxx.c **** 
 812              		.loc 1 25 1 view .LVU212
 813 000a 08BD     		pop	{r3, pc}
 814              	.L34:
 815              		.align	2
 816              	.L33:
 817 000c 00000000 		.word	.LC1
 818              		.cfi_endproc
 819              	.LFE1050:
 821              		.section	.rodata.w25qxx_open.str1.4,"aMS",%progbits,1
 822              		.align	2
 823              	.LC2:
 824 0000 77323571 		.ascii	"w25qxx block device opened\012\015\000"
 824      78782062 
 824      6C6F636B 
 824      20646576 
 824      69636520 
 825              		.section	.text.w25qxx_open,"ax",%progbits
 826              		.align	1
 827              		.syntax unified
 828              		.thumb
 829              		.thumb_func
 831              	w25qxx_open:
 832              	.LVL64:
 833              	.LFB1049:
  18:/mnt/c/Users/31740/Desktop/newcore/drivers/storage/w25qxx/w25qxx.c ****     pr_info("w25qxx block device opened\n\r");
 834              		.loc 1 18 62 is_stmt 1 view -0
 835              		.cfi_startproc
 836              		@ args = 0, pretend = 0, frame = 0
 837              		@ frame_needed = 0, uses_anonymous_args = 0
  18:/mnt/c/Users/31740/Desktop/newcore/drivers/storage/w25qxx/w25qxx.c ****     pr_info("w25qxx block device opened\n\r");
 838              		.loc 1 18 62 is_stmt 0 view .LVU214
 839 0000 08B5     		push	{r3, lr}
 840              	.LCFI21:
 841              		.cfi_def_cfa_offset 8
 842              		.cfi_offset 3, -8
 843              		.cfi_offset 14, -4
  19:/mnt/c/Users/31740/Desktop/newcore/drivers/storage/w25qxx/w25qxx.c ****     return 0;
 844              		.loc 1 19 5 is_stmt 1 view .LVU215
 845 0002 0349     		ldr	r1, .L37
 846              	.LVL65:
  19:/mnt/c/Users/31740/Desktop/newcore/drivers/storage/w25qxx/w25qxx.c ****     return 0;
 847              		.loc 1 19 5 is_stmt 0 view .LVU216
 848 0004 0620     		movs	r0, #6
 849              	.LVL66:
  19:/mnt/c/Users/31740/Desktop/newcore/drivers/storage/w25qxx/w25qxx.c ****     return 0;
 850              		.loc 1 19 5 view .LVU217
 851 0006 FFF7FEFF 		bl	printk
 852              	.LVL67:
ARM GAS  /tmp/ccyCLDig.s 			page 26


  20:/mnt/c/Users/31740/Desktop/newcore/drivers/storage/w25qxx/w25qxx.c **** }
 853              		.loc 1 20 5 is_stmt 1 view .LVU218
  21:/mnt/c/Users/31740/Desktop/newcore/drivers/storage/w25qxx/w25qxx.c **** 
 854              		.loc 1 21 1 is_stmt 0 view .LVU219
 855 000a 0020     		movs	r0, #0
 856 000c 08BD     		pop	{r3, pc}
 857              	.L38:
 858 000e 00BF     		.align	2
 859              	.L37:
 860 0010 00000000 		.word	.LC2
 861              		.cfi_endproc
 862              	.LFE1049:
 864              		.section	.rodata.set_cs_pin_high.str1.4,"aMS",%progbits,1
 865              		.align	2
 866              	.LC3:
 867 0000 3100     		.ascii	"1\000"
 868 0002 0000     		.align	2
 869              	.LC4:
 870 0004 77726974 		.ascii	"write error 1 \012\015\000"
 870      65206572 
 870      726F7220 
 870      31200A0D 
 870      00
 871              		.section	.text.set_cs_pin_high,"ax",%progbits
 872              		.align	1
 873              		.syntax unified
 874              		.thumb
 875              		.thumb_func
 877              	set_cs_pin_high:
 878              	.LVL68:
 879              	.LFB1036:
  74:/mnt/c/Users/31740/Desktop/newcore/drivers/storage/w25qxx/w25qxx.h ****     int ret = kernel_write(w25qxx_dev->gpio_cs_dev, "1", 1, 0);
 880              		.loc 3 74 60 is_stmt 1 view -0
 881              		.cfi_startproc
 882              		@ args = 0, pretend = 0, frame = 0
 883              		@ frame_needed = 0, uses_anonymous_args = 0
  74:/mnt/c/Users/31740/Desktop/newcore/drivers/storage/w25qxx/w25qxx.h ****     int ret = kernel_write(w25qxx_dev->gpio_cs_dev, "1", 1, 0);
 884              		.loc 3 74 60 is_stmt 0 view .LVU221
 885 0000 08B5     		push	{r3, lr}
 886              	.LCFI22:
 887              		.cfi_def_cfa_offset 8
 888              		.cfi_offset 3, -8
 889              		.cfi_offset 14, -4
  75:/mnt/c/Users/31740/Desktop/newcore/drivers/storage/w25qxx/w25qxx.h ****     if(ret < 0){
 890              		.loc 3 75 5 is_stmt 1 view .LVU222
  75:/mnt/c/Users/31740/Desktop/newcore/drivers/storage/w25qxx/w25qxx.h ****     if(ret < 0){
 891              		.loc 3 75 15 is_stmt 0 view .LVU223
 892 0002 0023     		movs	r3, #0
 893 0004 0122     		movs	r2, #1
 894 0006 0649     		ldr	r1, .L43
 895 0008 8068     		ldr	r0, [r0, #8]
 896              	.LVL69:
  75:/mnt/c/Users/31740/Desktop/newcore/drivers/storage/w25qxx/w25qxx.h ****     if(ret < 0){
 897              		.loc 3 75 15 view .LVU224
 898 000a FFF7FEFF 		bl	kernel_write
 899              	.LVL70:
  76:/mnt/c/Users/31740/Desktop/newcore/drivers/storage/w25qxx/w25qxx.h ****        pr_info("write error 1 \n\r");
ARM GAS  /tmp/ccyCLDig.s 			page 27


 900              		.loc 3 76 5 is_stmt 1 view .LVU225
  76:/mnt/c/Users/31740/Desktop/newcore/drivers/storage/w25qxx/w25qxx.h ****        pr_info("write error 1 \n\r");
 901              		.loc 3 76 7 is_stmt 0 view .LVU226
 902 000e 0028     		cmp	r0, #0
 903 0010 00DB     		blt	.L42
 904              	.LVL71:
 905              	.L39:
  79:/mnt/c/Users/31740/Desktop/newcore/drivers/storage/w25qxx/w25qxx.h **** 
 906              		.loc 3 79 1 view .LVU227
 907 0012 08BD     		pop	{r3, pc}
 908              	.LVL72:
 909              	.L42:
  77:/mnt/c/Users/31740/Desktop/newcore/drivers/storage/w25qxx/w25qxx.h ****     }
 910              		.loc 3 77 8 is_stmt 1 view .LVU228
 911 0014 0349     		ldr	r1, .L43+4
 912 0016 0620     		movs	r0, #6
 913              	.LVL73:
  77:/mnt/c/Users/31740/Desktop/newcore/drivers/storage/w25qxx/w25qxx.h ****     }
 914              		.loc 3 77 8 is_stmt 0 view .LVU229
 915 0018 FFF7FEFF 		bl	printk
 916              	.LVL74:
  79:/mnt/c/Users/31740/Desktop/newcore/drivers/storage/w25qxx/w25qxx.h **** 
 917              		.loc 3 79 1 view .LVU230
 918 001c F9E7     		b	.L39
 919              	.L44:
 920 001e 00BF     		.align	2
 921              	.L43:
 922 0020 00000000 		.word	.LC3
 923 0024 04000000 		.word	.LC4
 924              		.cfi_endproc
 925              	.LFE1036:
 927              		.section	.rodata.set_cs_pin_low.str1.4,"aMS",%progbits,1
 928              		.align	2
 929              	.LC5:
 930 0000 3000     		.ascii	"0\000"
 931 0002 0000     		.align	2
 932              	.LC6:
 933 0004 77726974 		.ascii	"write error 2 \012\015\000"
 933      65206572 
 933      726F7220 
 933      32200A0D 
 933      00
 934              		.section	.text.set_cs_pin_low,"ax",%progbits
 935              		.align	1
 936              		.syntax unified
 937              		.thumb
 938              		.thumb_func
 940              	set_cs_pin_low:
 941              	.LVL75:
 942              	.LFB1037:
  81:/mnt/c/Users/31740/Desktop/newcore/drivers/storage/w25qxx/w25qxx.h ****    int ret = kernel_write(w25qxx_dev->gpio_cs_dev, "0", 1, 0);
 943              		.loc 3 81 59 is_stmt 1 view -0
 944              		.cfi_startproc
 945              		@ args = 0, pretend = 0, frame = 0
 946              		@ frame_needed = 0, uses_anonymous_args = 0
  81:/mnt/c/Users/31740/Desktop/newcore/drivers/storage/w25qxx/w25qxx.h ****    int ret = kernel_write(w25qxx_dev->gpio_cs_dev, "0", 1, 0);
 947              		.loc 3 81 59 is_stmt 0 view .LVU232
ARM GAS  /tmp/ccyCLDig.s 			page 28


 948 0000 08B5     		push	{r3, lr}
 949              	.LCFI23:
 950              		.cfi_def_cfa_offset 8
 951              		.cfi_offset 3, -8
 952              		.cfi_offset 14, -4
  82:/mnt/c/Users/31740/Desktop/newcore/drivers/storage/w25qxx/w25qxx.h ****    if(ret < 0){
 953              		.loc 3 82 4 is_stmt 1 view .LVU233
  82:/mnt/c/Users/31740/Desktop/newcore/drivers/storage/w25qxx/w25qxx.h ****    if(ret < 0){
 954              		.loc 3 82 14 is_stmt 0 view .LVU234
 955 0002 0023     		movs	r3, #0
 956 0004 0122     		movs	r2, #1
 957 0006 0649     		ldr	r1, .L49
 958 0008 8068     		ldr	r0, [r0, #8]
 959              	.LVL76:
  82:/mnt/c/Users/31740/Desktop/newcore/drivers/storage/w25qxx/w25qxx.h ****    if(ret < 0){
 960              		.loc 3 82 14 view .LVU235
 961 000a FFF7FEFF 		bl	kernel_write
 962              	.LVL77:
  83:/mnt/c/Users/31740/Desktop/newcore/drivers/storage/w25qxx/w25qxx.h ****       pr_info("write error 2 \n\r");
 963              		.loc 3 83 4 is_stmt 1 view .LVU236
  83:/mnt/c/Users/31740/Desktop/newcore/drivers/storage/w25qxx/w25qxx.h ****       pr_info("write error 2 \n\r");
 964              		.loc 3 83 6 is_stmt 0 view .LVU237
 965 000e 0028     		cmp	r0, #0
 966 0010 00DB     		blt	.L48
 967              	.LVL78:
 968              	.L45:
  86:/mnt/c/Users/31740/Desktop/newcore/drivers/storage/w25qxx/w25qxx.h **** 
 969              		.loc 3 86 1 view .LVU238
 970 0012 08BD     		pop	{r3, pc}
 971              	.LVL79:
 972              	.L48:
  84:/mnt/c/Users/31740/Desktop/newcore/drivers/storage/w25qxx/w25qxx.h ****    }
 973              		.loc 3 84 7 is_stmt 1 view .LVU239
 974 0014 0349     		ldr	r1, .L49+4
 975 0016 0620     		movs	r0, #6
 976              	.LVL80:
  84:/mnt/c/Users/31740/Desktop/newcore/drivers/storage/w25qxx/w25qxx.h ****    }
 977              		.loc 3 84 7 is_stmt 0 view .LVU240
 978 0018 FFF7FEFF 		bl	printk
 979              	.LVL81:
  86:/mnt/c/Users/31740/Desktop/newcore/drivers/storage/w25qxx/w25qxx.h **** 
 980              		.loc 3 86 1 view .LVU241
 981 001c F9E7     		b	.L45
 982              	.L50:
 983 001e 00BF     		.align	2
 984              	.L49:
 985 0020 00000000 		.word	.LC5
 986 0024 04000000 		.word	.LC6
 987              		.cfi_endproc
 988              	.LFE1037:
 990              		.section	.text.w25qxx_read_data,"ax",%progbits
 991              		.align	1
 992              		.syntax unified
 993              		.thumb
 994              		.thumb_func
 996              	w25qxx_read_data:
 997              	.LVL82:
ARM GAS  /tmp/ccyCLDig.s 			page 29


 998              	.LFB1039:
  97:/mnt/c/Users/31740/Desktop/newcore/drivers/storage/w25qxx/w25qxx.h ****     dev->xfer.tx_buf = NULL;
 999              		.loc 3 97 1 is_stmt 1 view -0
 1000              		.cfi_startproc
 1001              		@ args = 0, pretend = 0, frame = 0
 1002              		@ frame_needed = 0, uses_anonymous_args = 0
  97:/mnt/c/Users/31740/Desktop/newcore/drivers/storage/w25qxx/w25qxx.h ****     dev->xfer.tx_buf = NULL;
 1003              		.loc 3 97 1 is_stmt 0 view .LVU243
 1004 0000 08B5     		push	{r3, lr}
 1005              	.LCFI24:
 1006              		.cfi_def_cfa_offset 8
 1007              		.cfi_offset 3, -8
 1008              		.cfi_offset 14, -4
  98:/mnt/c/Users/31740/Desktop/newcore/drivers/storage/w25qxx/w25qxx.h ****     dev->xfer.rx_buf = data;
 1009              		.loc 3 98 5 is_stmt 1 view .LVU244
  98:/mnt/c/Users/31740/Desktop/newcore/drivers/storage/w25qxx/w25qxx.h ****     dev->xfer.rx_buf = data;
 1010              		.loc 3 98 22 is_stmt 0 view .LVU245
 1011 0002 0023     		movs	r3, #0
 1012 0004 C360     		str	r3, [r0, #12]
  99:/mnt/c/Users/31740/Desktop/newcore/drivers/storage/w25qxx/w25qxx.h ****     dev->xfer.len = len;
 1013              		.loc 3 99 5 is_stmt 1 view .LVU246
  99:/mnt/c/Users/31740/Desktop/newcore/drivers/storage/w25qxx/w25qxx.h ****     dev->xfer.len = len;
 1014              		.loc 3 99 22 is_stmt 0 view .LVU247
 1015 0006 0161     		str	r1, [r0, #16]
 100:/mnt/c/Users/31740/Desktop/newcore/drivers/storage/w25qxx/w25qxx.h ****     int i = vfs_ioctl(dev->spi_dev,SPI_IOC_MESSAGE(1),&dev->xfer);
 1016              		.loc 3 100 5 is_stmt 1 view .LVU248
 100:/mnt/c/Users/31740/Desktop/newcore/drivers/storage/w25qxx/w25qxx.h ****     int i = vfs_ioctl(dev->spi_dev,SPI_IOC_MESSAGE(1),&dev->xfer);
 1017              		.loc 3 100 19 is_stmt 0 view .LVU249
 1018 0008 4261     		str	r2, [r0, #20]
 101:/mnt/c/Users/31740/Desktop/newcore/drivers/storage/w25qxx/w25qxx.h ****     return i;
 1019              		.loc 3 101 5 is_stmt 1 view .LVU250
 101:/mnt/c/Users/31740/Desktop/newcore/drivers/storage/w25qxx/w25qxx.h ****     return i;
 1020              		.loc 3 101 13 is_stmt 0 view .LVU251
 1021 000a 00F10C02 		add	r2, r0, #12
 1022              	.LVL83:
 101:/mnt/c/Users/31740/Desktop/newcore/drivers/storage/w25qxx/w25qxx.h ****     return i;
 1023              		.loc 3 101 13 view .LVU252
 1024 000e 0121     		movs	r1, #1
 1025              	.LVL84:
 101:/mnt/c/Users/31740/Desktop/newcore/drivers/storage/w25qxx/w25qxx.h ****     return i;
 1026              		.loc 3 101 13 view .LVU253
 1027 0010 4068     		ldr	r0, [r0, #4]
 1028              	.LVL85:
 101:/mnt/c/Users/31740/Desktop/newcore/drivers/storage/w25qxx/w25qxx.h ****     return i;
 1029              		.loc 3 101 13 view .LVU254
 1030 0012 FFF7FEFF 		bl	vfs_ioctl
 1031              	.LVL86:
 102:/mnt/c/Users/31740/Desktop/newcore/drivers/storage/w25qxx/w25qxx.h **** }
 1032              		.loc 3 102 5 is_stmt 1 view .LVU255
 103:/mnt/c/Users/31740/Desktop/newcore/drivers/storage/w25qxx/w25qxx.h **** 
 1033              		.loc 3 103 1 is_stmt 0 view .LVU256
 1034 0016 08BD     		pop	{r3, pc}
 1035              		.cfi_endproc
 1036              	.LFE1039:
 1038              		.section	.text.w25qxx_send_data,"ax",%progbits
 1039              		.align	1
 1040              		.syntax unified
ARM GAS  /tmp/ccyCLDig.s 			page 30


 1041              		.thumb
 1042              		.thumb_func
 1044              	w25qxx_send_data:
 1045              	.LVL87:
 1046              	.LFB1038:
  89:/mnt/c/Users/31740/Desktop/newcore/drivers/storage/w25qxx/w25qxx.h ****     dev->xfer.tx_buf = data;
 1047              		.loc 3 89 1 is_stmt 1 view -0
 1048              		.cfi_startproc
 1049              		@ args = 0, pretend = 0, frame = 0
 1050              		@ frame_needed = 0, uses_anonymous_args = 0
  89:/mnt/c/Users/31740/Desktop/newcore/drivers/storage/w25qxx/w25qxx.h ****     dev->xfer.tx_buf = data;
 1051              		.loc 3 89 1 is_stmt 0 view .LVU258
 1052 0000 08B5     		push	{r3, lr}
 1053              	.LCFI25:
 1054              		.cfi_def_cfa_offset 8
 1055              		.cfi_offset 3, -8
 1056              		.cfi_offset 14, -4
  90:/mnt/c/Users/31740/Desktop/newcore/drivers/storage/w25qxx/w25qxx.h ****     dev->xfer.rx_buf = NULL;
 1057              		.loc 3 90 5 is_stmt 1 view .LVU259
  90:/mnt/c/Users/31740/Desktop/newcore/drivers/storage/w25qxx/w25qxx.h ****     dev->xfer.rx_buf = NULL;
 1058              		.loc 3 90 22 is_stmt 0 view .LVU260
 1059 0002 C160     		str	r1, [r0, #12]
  91:/mnt/c/Users/31740/Desktop/newcore/drivers/storage/w25qxx/w25qxx.h ****     dev->xfer.len = len;
 1060              		.loc 3 91 5 is_stmt 1 view .LVU261
  91:/mnt/c/Users/31740/Desktop/newcore/drivers/storage/w25qxx/w25qxx.h ****     dev->xfer.len = len;
 1061              		.loc 3 91 22 is_stmt 0 view .LVU262
 1062 0004 0023     		movs	r3, #0
 1063 0006 0361     		str	r3, [r0, #16]
  92:/mnt/c/Users/31740/Desktop/newcore/drivers/storage/w25qxx/w25qxx.h ****     int i = vfs_ioctl(dev->spi_dev,SPI_IOC_MESSAGE(1),&dev->xfer);
 1064              		.loc 3 92 5 is_stmt 1 view .LVU263
  92:/mnt/c/Users/31740/Desktop/newcore/drivers/storage/w25qxx/w25qxx.h ****     int i = vfs_ioctl(dev->spi_dev,SPI_IOC_MESSAGE(1),&dev->xfer);
 1065              		.loc 3 92 19 is_stmt 0 view .LVU264
 1066 0008 4261     		str	r2, [r0, #20]
  93:/mnt/c/Users/31740/Desktop/newcore/drivers/storage/w25qxx/w25qxx.h ****     return i;
 1067              		.loc 3 93 5 is_stmt 1 view .LVU265
  93:/mnt/c/Users/31740/Desktop/newcore/drivers/storage/w25qxx/w25qxx.h ****     return i;
 1068              		.loc 3 93 13 is_stmt 0 view .LVU266
 1069 000a 00F10C02 		add	r2, r0, #12
 1070              	.LVL88:
  93:/mnt/c/Users/31740/Desktop/newcore/drivers/storage/w25qxx/w25qxx.h ****     return i;
 1071              		.loc 3 93 13 view .LVU267
 1072 000e 0121     		movs	r1, #1
 1073              	.LVL89:
  93:/mnt/c/Users/31740/Desktop/newcore/drivers/storage/w25qxx/w25qxx.h ****     return i;
 1074              		.loc 3 93 13 view .LVU268
 1075 0010 4068     		ldr	r0, [r0, #4]
 1076              	.LVL90:
  93:/mnt/c/Users/31740/Desktop/newcore/drivers/storage/w25qxx/w25qxx.h ****     return i;
 1077              		.loc 3 93 13 view .LVU269
 1078 0012 FFF7FEFF 		bl	vfs_ioctl
 1079              	.LVL91:
  94:/mnt/c/Users/31740/Desktop/newcore/drivers/storage/w25qxx/w25qxx.h **** }
 1080              		.loc 3 94 5 is_stmt 1 view .LVU270
  95:/mnt/c/Users/31740/Desktop/newcore/drivers/storage/w25qxx/w25qxx.h **** static int w25qxx_read_data(struct w25qxx_dev *dev,u8 *data,int len)
 1081              		.loc 3 95 1 is_stmt 0 view .LVU271
 1082 0016 08BD     		pop	{r3, pc}
 1083              		.cfi_endproc
ARM GAS  /tmp/ccyCLDig.s 			page 31


 1084              	.LFE1038:
 1086              		.section	.rodata.cs_pin_init.str1.4,"aMS",%progbits,1
 1087              		.align	2
 1088              	.LC7:
 1089 0000 6F70656E 		.ascii	"open file failed\012\015\000"
 1089      2066696C 
 1089      65206661 
 1089      696C6564 
 1089      0A0D00
 1090 0013 00       		.align	2
 1091              	.LC8:
 1092 0014 73657420 		.ascii	"set cs ping use %d\012\015\000"
 1092      63732070 
 1092      696E6720 
 1092      75736520 
 1092      25640A0D 
 1093 0029 000000   		.align	2
 1094              	.LC9:
 1095 002c 73657420 		.ascii	"set pin number failed\012\015\000"
 1095      70696E20 
 1095      6E756D62 
 1095      65722066 
 1095      61696C65 
 1096              		.section	.text.cs_pin_init,"ax",%progbits
 1097              		.align	1
 1098              		.syntax unified
 1099              		.thumb
 1100              		.thumb_func
 1102              	cs_pin_init:
 1103              	.LVL92:
 1104              	.LFB1033:
  22:/mnt/c/Users/31740/Desktop/newcore/drivers/storage/w25qxx/w25qxx.h ****     if(pin_num == -1)return 0;
 1105              		.loc 3 22 1 is_stmt 1 view -0
 1106              		.cfi_startproc
 1107              		@ args = 0, pretend = 0, frame = 0
 1108              		@ frame_needed = 0, uses_anonymous_args = 0
  22:/mnt/c/Users/31740/Desktop/newcore/drivers/storage/w25qxx/w25qxx.h ****     if(pin_num == -1)return 0;
 1109              		.loc 3 22 1 is_stmt 0 view .LVU273
 1110 0000 70B5     		push	{r4, r5, r6, lr}
 1111              	.LCFI26:
 1112              		.cfi_def_cfa_offset 16
 1113              		.cfi_offset 4, -16
 1114              		.cfi_offset 5, -12
 1115              		.cfi_offset 6, -8
 1116              		.cfi_offset 14, -4
  23:/mnt/c/Users/31740/Desktop/newcore/drivers/storage/w25qxx/w25qxx.h ****     
 1117              		.loc 3 23 5 is_stmt 1 view .LVU274
  23:/mnt/c/Users/31740/Desktop/newcore/drivers/storage/w25qxx/w25qxx.h ****     
 1118              		.loc 3 23 7 is_stmt 0 view .LVU275
 1119 0002 B2F1FF3F 		cmp	r2, #-1
 1120 0006 2FD0     		beq	.L59
 1121 0008 0646     		mov	r6, r0
 1122 000a 0846     		mov	r0, r1
 1123              	.LVL93:
  23:/mnt/c/Users/31740/Desktop/newcore/drivers/storage/w25qxx/w25qxx.h ****     
 1124              		.loc 3 23 7 view .LVU276
 1125 000c 1546     		mov	r5, r2
ARM GAS  /tmp/ccyCLDig.s 			page 32


  25:/mnt/c/Users/31740/Desktop/newcore/drivers/storage/w25qxx/w25qxx.h ****     if(IS_ERR(w25qxx_dev->gpio_cs_dev)){
 1126              		.loc 3 25 5 is_stmt 1 view .LVU277
  25:/mnt/c/Users/31740/Desktop/newcore/drivers/storage/w25qxx/w25qxx.h ****     if(IS_ERR(w25qxx_dev->gpio_cs_dev)){
 1127              		.loc 3 25 31 is_stmt 0 view .LVU278
 1128 000e 0022     		movs	r2, #0
 1129              	.LVL94:
  25:/mnt/c/Users/31740/Desktop/newcore/drivers/storage/w25qxx/w25qxx.h ****     if(IS_ERR(w25qxx_dev->gpio_cs_dev)){
 1130              		.loc 3 25 31 view .LVU279
 1131 0010 0221     		movs	r1, #2
 1132              	.LVL95:
  25:/mnt/c/Users/31740/Desktop/newcore/drivers/storage/w25qxx/w25qxx.h ****     if(IS_ERR(w25qxx_dev->gpio_cs_dev)){
 1133              		.loc 3 25 31 view .LVU280
 1134 0012 FFF7FEFF 		bl	filp_open
 1135              	.LVL96:
  25:/mnt/c/Users/31740/Desktop/newcore/drivers/storage/w25qxx/w25qxx.h ****     if(IS_ERR(w25qxx_dev->gpio_cs_dev)){
 1136              		.loc 3 25 31 view .LVU281
 1137 0016 0446     		mov	r4, r0
  25:/mnt/c/Users/31740/Desktop/newcore/drivers/storage/w25qxx/w25qxx.h ****     if(IS_ERR(w25qxx_dev->gpio_cs_dev)){
 1138              		.loc 3 25 29 discriminator 1 view .LVU282
 1139 0018 B060     		str	r0, [r6, #8]
  26:/mnt/c/Users/31740/Desktop/newcore/drivers/storage/w25qxx/w25qxx.h ****         pr_info("open file failed\n\r");
 1140              		.loc 3 26 5 is_stmt 1 view .LVU283
 1141              	.LVL97:
 1142              	.LBB105:
 1143              	.LBI105:
 1144              		.file 4 "/mnt/c/Users/31740/Desktop/newcore/include/linux/err.h"
   1:/mnt/c/Users/31740/Desktop/newcore/include/linux/err.h **** /* SPDX-License-Identifier: GPL-2.0 */
   2:/mnt/c/Users/31740/Desktop/newcore/include/linux/err.h **** #ifndef _LINUX_ERR_H
   3:/mnt/c/Users/31740/Desktop/newcore/include/linux/err.h **** #define _LINUX_ERR_H
   4:/mnt/c/Users/31740/Desktop/newcore/include/linux/err.h **** 
   5:/mnt/c/Users/31740/Desktop/newcore/include/linux/err.h **** #include <linux/compiler_attributes.h>
   6:/mnt/c/Users/31740/Desktop/newcore/include/linux/err.h **** #include <linux/compiler.h>
   7:/mnt/c/Users/31740/Desktop/newcore/include/linux/err.h **** #include <linux/types.h>
   8:/mnt/c/Users/31740/Desktop/newcore/include/linux/err.h **** 
   9:/mnt/c/Users/31740/Desktop/newcore/include/linux/err.h **** #include <asm/errno.h>
  10:/mnt/c/Users/31740/Desktop/newcore/include/linux/err.h **** 
  11:/mnt/c/Users/31740/Desktop/newcore/include/linux/err.h **** /*
  12:/mnt/c/Users/31740/Desktop/newcore/include/linux/err.h ****  * Kernel pointers have redundant information, so we can use a
  13:/mnt/c/Users/31740/Desktop/newcore/include/linux/err.h ****  * scheme where we can return either an error code or a normal
  14:/mnt/c/Users/31740/Desktop/newcore/include/linux/err.h ****  * pointer with the same return value.
  15:/mnt/c/Users/31740/Desktop/newcore/include/linux/err.h ****  *
  16:/mnt/c/Users/31740/Desktop/newcore/include/linux/err.h ****  * This should be a per-architecture thing, to allow different
  17:/mnt/c/Users/31740/Desktop/newcore/include/linux/err.h ****  * error and pointer decisions.
  18:/mnt/c/Users/31740/Desktop/newcore/include/linux/err.h ****  */
  19:/mnt/c/Users/31740/Desktop/newcore/include/linux/err.h **** #define MAX_ERRNO	4095
  20:/mnt/c/Users/31740/Desktop/newcore/include/linux/err.h **** 
  21:/mnt/c/Users/31740/Desktop/newcore/include/linux/err.h **** #ifndef __ASSEMBLY__
  22:/mnt/c/Users/31740/Desktop/newcore/include/linux/err.h **** 
  23:/mnt/c/Users/31740/Desktop/newcore/include/linux/err.h **** /**
  24:/mnt/c/Users/31740/Desktop/newcore/include/linux/err.h ****  * IS_ERR_VALUE - Detect an error pointer.
  25:/mnt/c/Users/31740/Desktop/newcore/include/linux/err.h ****  * @x: The pointer to check.
  26:/mnt/c/Users/31740/Desktop/newcore/include/linux/err.h ****  *
  27:/mnt/c/Users/31740/Desktop/newcore/include/linux/err.h ****  * Like IS_ERR(), but does not generate a compiler warning if result is unused.
  28:/mnt/c/Users/31740/Desktop/newcore/include/linux/err.h ****  */
  29:/mnt/c/Users/31740/Desktop/newcore/include/linux/err.h **** 
  30:/mnt/c/Users/31740/Desktop/newcore/include/linux/err.h **** #ifndef unlikely
  31:/mnt/c/Users/31740/Desktop/newcore/include/linux/err.h **** #  define unlikely(x) __builtin_expect(!!(x), 0)
ARM GAS  /tmp/ccyCLDig.s 			page 33


  32:/mnt/c/Users/31740/Desktop/newcore/include/linux/err.h **** #endif
  33:/mnt/c/Users/31740/Desktop/newcore/include/linux/err.h **** 
  34:/mnt/c/Users/31740/Desktop/newcore/include/linux/err.h **** #ifndef likely
  35:/mnt/c/Users/31740/Desktop/newcore/include/linux/err.h **** #  define likely(x) __builtin_expect(!!(x), 1)
  36:/mnt/c/Users/31740/Desktop/newcore/include/linux/err.h **** #endif
  37:/mnt/c/Users/31740/Desktop/newcore/include/linux/err.h **** 
  38:/mnt/c/Users/31740/Desktop/newcore/include/linux/err.h **** #define IS_ERR_VALUE(x) unlikely((unsigned long)(void *)(x) >= (unsigned long)-MAX_ERRNO)
  39:/mnt/c/Users/31740/Desktop/newcore/include/linux/err.h **** 
  40:/mnt/c/Users/31740/Desktop/newcore/include/linux/err.h **** /**
  41:/mnt/c/Users/31740/Desktop/newcore/include/linux/err.h ****  * ERR_PTR - Create an error pointer.
  42:/mnt/c/Users/31740/Desktop/newcore/include/linux/err.h ****  * @error: A negative error code.
  43:/mnt/c/Users/31740/Desktop/newcore/include/linux/err.h ****  *
  44:/mnt/c/Users/31740/Desktop/newcore/include/linux/err.h ****  * Encodes @error into a pointer value. Users should consider the result
  45:/mnt/c/Users/31740/Desktop/newcore/include/linux/err.h ****  * opaque and not assume anything about how the error is encoded.
  46:/mnt/c/Users/31740/Desktop/newcore/include/linux/err.h ****  *
  47:/mnt/c/Users/31740/Desktop/newcore/include/linux/err.h ****  * Return: A pointer with @error encoded within its value.
  48:/mnt/c/Users/31740/Desktop/newcore/include/linux/err.h ****  */
  49:/mnt/c/Users/31740/Desktop/newcore/include/linux/err.h **** static inline void * __must_check ERR_PTR(long error)
  50:/mnt/c/Users/31740/Desktop/newcore/include/linux/err.h **** {
  51:/mnt/c/Users/31740/Desktop/newcore/include/linux/err.h **** 	return (void *) error;
  52:/mnt/c/Users/31740/Desktop/newcore/include/linux/err.h **** }
  53:/mnt/c/Users/31740/Desktop/newcore/include/linux/err.h **** 
  54:/mnt/c/Users/31740/Desktop/newcore/include/linux/err.h **** /* Return the pointer in the percpu address space. */
  55:/mnt/c/Users/31740/Desktop/newcore/include/linux/err.h **** #define ERR_PTR_PCPU(error) ((void __percpu *)(unsigned long)ERR_PTR(error))
  56:/mnt/c/Users/31740/Desktop/newcore/include/linux/err.h **** 
  57:/mnt/c/Users/31740/Desktop/newcore/include/linux/err.h **** /**
  58:/mnt/c/Users/31740/Desktop/newcore/include/linux/err.h ****  * PTR_ERR - Extract the error code from an error pointer.
  59:/mnt/c/Users/31740/Desktop/newcore/include/linux/err.h ****  * @ptr: An error pointer.
  60:/mnt/c/Users/31740/Desktop/newcore/include/linux/err.h ****  * Return: The error code within @ptr.
  61:/mnt/c/Users/31740/Desktop/newcore/include/linux/err.h ****  */
  62:/mnt/c/Users/31740/Desktop/newcore/include/linux/err.h **** static inline long __must_check PTR_ERR(__force const void *ptr)
  63:/mnt/c/Users/31740/Desktop/newcore/include/linux/err.h **** {
  64:/mnt/c/Users/31740/Desktop/newcore/include/linux/err.h **** 	return (long) ptr;
  65:/mnt/c/Users/31740/Desktop/newcore/include/linux/err.h **** }
  66:/mnt/c/Users/31740/Desktop/newcore/include/linux/err.h **** 
  67:/mnt/c/Users/31740/Desktop/newcore/include/linux/err.h **** /* Read an error pointer from the percpu address space. */
  68:/mnt/c/Users/31740/Desktop/newcore/include/linux/err.h **** #define PTR_ERR_PCPU(ptr) (PTR_ERR((const void *)(__force const unsigned long)(ptr)))
  69:/mnt/c/Users/31740/Desktop/newcore/include/linux/err.h **** 
  70:/mnt/c/Users/31740/Desktop/newcore/include/linux/err.h **** /**
  71:/mnt/c/Users/31740/Desktop/newcore/include/linux/err.h ****  * IS_ERR - Detect an error pointer.
  72:/mnt/c/Users/31740/Desktop/newcore/include/linux/err.h ****  * @ptr: The pointer to check.
  73:/mnt/c/Users/31740/Desktop/newcore/include/linux/err.h ****  * Return: true if @ptr is an error pointer, false otherwise.
  74:/mnt/c/Users/31740/Desktop/newcore/include/linux/err.h ****  */
  75:/mnt/c/Users/31740/Desktop/newcore/include/linux/err.h **** static inline bool __must_check IS_ERR(__force const void *ptr)
 1145              		.loc 4 75 33 view .LVU284
 1146              	.LBB106:
  76:/mnt/c/Users/31740/Desktop/newcore/include/linux/err.h **** {
  77:/mnt/c/Users/31740/Desktop/newcore/include/linux/err.h **** 	return IS_ERR_VALUE((unsigned long)ptr);
 1147              		.loc 4 77 2 view .LVU285
 1148              		.loc 4 77 9 is_stmt 0 view .LVU286
 1149 001a 10F5805F 		cmn	r0, #4096
 1150 001e 94BF     		ite	ls
 1151 0020 0024     		movls	r4, #0
 1152 0022 0124     		movhi	r4, #1
 1153              	.LVL98:
 1154              		.loc 4 77 9 view .LVU287
 1155              	.LBE106:
ARM GAS  /tmp/ccyCLDig.s 			page 34


 1156              	.LBE105:
  26:/mnt/c/Users/31740/Desktop/newcore/drivers/storage/w25qxx/w25qxx.h ****         pr_info("open file failed\n\r");
 1157              		.loc 3 26 7 discriminator 1 view .LVU288
 1158 0024 94B9     		cbnz	r4, .L61
  30:/mnt/c/Users/31740/Desktop/newcore/drivers/storage/w25qxx/w25qxx.h ****     int i = vfs_ioctl(w25qxx_dev->gpio_cs_dev,GPIO_SET_PIN_NUMBER,pin_num);
 1159              		.loc 3 30 5 is_stmt 1 view .LVU289
 1160 0026 2A46     		mov	r2, r5
 1161 0028 1049     		ldr	r1, .L63
 1162 002a 0620     		movs	r0, #6
 1163 002c FFF7FEFF 		bl	printk
 1164              	.LVL99:
  31:/mnt/c/Users/31740/Desktop/newcore/drivers/storage/w25qxx/w25qxx.h ****     if(i < 0){
 1165              		.loc 3 31 5 view .LVU290
  31:/mnt/c/Users/31740/Desktop/newcore/drivers/storage/w25qxx/w25qxx.h ****     if(i < 0){
 1166              		.loc 3 31 13 is_stmt 0 view .LVU291
 1167 0030 2A46     		mov	r2, r5
 1168 0032 4021     		movs	r1, #64
 1169 0034 B068     		ldr	r0, [r6, #8]
 1170 0036 FFF7FEFF 		bl	vfs_ioctl
 1171              	.LVL100:
  32:/mnt/c/Users/31740/Desktop/newcore/drivers/storage/w25qxx/w25qxx.h ****         pr_info("set pin number failed\n\r");
 1172              		.loc 3 32 5 is_stmt 1 view .LVU292
  32:/mnt/c/Users/31740/Desktop/newcore/drivers/storage/w25qxx/w25qxx.h ****         pr_info("set pin number failed\n\r");
 1173              		.loc 3 32 7 is_stmt 0 view .LVU293
 1174 003a 0028     		cmp	r0, #0
 1175 003c 0DDB     		blt	.L62
  36:/mnt/c/Users/31740/Desktop/newcore/drivers/storage/w25qxx/w25qxx.h ****     return 0;
 1176              		.loc 3 36 5 is_stmt 1 view .LVU294
 1177 003e 0022     		movs	r2, #0
 1178 0040 0221     		movs	r1, #2
 1179 0042 B068     		ldr	r0, [r6, #8]
 1180              	.LVL101:
  36:/mnt/c/Users/31740/Desktop/newcore/drivers/storage/w25qxx/w25qxx.h ****     return 0;
 1181              		.loc 3 36 5 is_stmt 0 view .LVU295
 1182 0044 FFF7FEFF 		bl	vfs_ioctl
 1183              	.LVL102:
  37:/mnt/c/Users/31740/Desktop/newcore/drivers/storage/w25qxx/w25qxx.h **** }
 1184              		.loc 3 37 5 is_stmt 1 view .LVU296
 1185              	.L55:
  38:/mnt/c/Users/31740/Desktop/newcore/drivers/storage/w25qxx/w25qxx.h ****  
 1186              		.loc 3 38 1 is_stmt 0 view .LVU297
 1187 0048 2046     		mov	r0, r4
 1188 004a 70BD     		pop	{r4, r5, r6, pc}
 1189              	.LVL103:
 1190              	.L61:
  27:/mnt/c/Users/31740/Desktop/newcore/drivers/storage/w25qxx/w25qxx.h ****         return -1;
 1191              		.loc 3 27 9 is_stmt 1 view .LVU298
 1192 004c 0849     		ldr	r1, .L63+4
 1193 004e 0620     		movs	r0, #6
 1194 0050 FFF7FEFF 		bl	printk
 1195              	.LVL104:
  28:/mnt/c/Users/31740/Desktop/newcore/drivers/storage/w25qxx/w25qxx.h ****     }
 1196              		.loc 3 28 9 view .LVU299
  28:/mnt/c/Users/31740/Desktop/newcore/drivers/storage/w25qxx/w25qxx.h ****     }
 1197              		.loc 3 28 16 is_stmt 0 view .LVU300
 1198 0054 4FF0FF34 		mov	r4, #-1
 1199 0058 F6E7     		b	.L55
ARM GAS  /tmp/ccyCLDig.s 			page 35


 1200              	.LVL105:
 1201              	.L62:
  33:/mnt/c/Users/31740/Desktop/newcore/drivers/storage/w25qxx/w25qxx.h ****         return -1;
 1202              		.loc 3 33 9 is_stmt 1 view .LVU301
 1203 005a 0649     		ldr	r1, .L63+8
 1204 005c 0620     		movs	r0, #6
 1205              	.LVL106:
  33:/mnt/c/Users/31740/Desktop/newcore/drivers/storage/w25qxx/w25qxx.h ****         return -1;
 1206              		.loc 3 33 9 is_stmt 0 view .LVU302
 1207 005e FFF7FEFF 		bl	printk
 1208              	.LVL107:
  34:/mnt/c/Users/31740/Desktop/newcore/drivers/storage/w25qxx/w25qxx.h ****     }
 1209              		.loc 3 34 9 is_stmt 1 view .LVU303
  34:/mnt/c/Users/31740/Desktop/newcore/drivers/storage/w25qxx/w25qxx.h ****     }
 1210              		.loc 3 34 16 is_stmt 0 view .LVU304
 1211 0062 4FF0FF34 		mov	r4, #-1
 1212 0066 EFE7     		b	.L55
 1213              	.LVL108:
 1214              	.L59:
  23:/mnt/c/Users/31740/Desktop/newcore/drivers/storage/w25qxx/w25qxx.h ****     
 1215              		.loc 3 23 29 discriminator 1 view .LVU305
 1216 0068 0024     		movs	r4, #0
 1217 006a EDE7     		b	.L55
 1218              	.L64:
 1219              		.align	2
 1220              	.L63:
 1221 006c 14000000 		.word	.LC8
 1222 0070 00000000 		.word	.LC7
 1223 0074 2C000000 		.word	.LC9
 1224              		.cfi_endproc
 1225              	.LFE1033:
 1227              		.section	.rodata.spi_write_enable.str1.4,"aMS",%progbits,1
 1228              		.align	2
 1229              	.LC10:
 1230 0000 2F646576 		.ascii	"/dev/spidev1\000"
 1230      2F737069 
 1230      64657631 
 1230      00
 1231              		.section	.text.spi_write_enable,"ax",%progbits
 1232              		.align	1
 1233              		.syntax unified
 1234              		.thumb
 1235              		.thumb_func
 1237              	spi_write_enable:
 1238              	.LVL109:
 1239              	.LFB1034:
  42:/mnt/c/Users/31740/Desktop/newcore/drivers/storage/w25qxx/w25qxx.h ****     w25qxx_dev->spi_dev = filp_open("/dev/spidev1", O_RDWR, 0);
 1240              		.loc 3 42 1 is_stmt 1 view -0
 1241              		.cfi_startproc
 1242              		@ args = 0, pretend = 0, frame = 0
 1243              		@ frame_needed = 0, uses_anonymous_args = 0
  42:/mnt/c/Users/31740/Desktop/newcore/drivers/storage/w25qxx/w25qxx.h ****     w25qxx_dev->spi_dev = filp_open("/dev/spidev1", O_RDWR, 0);
 1244              		.loc 3 42 1 is_stmt 0 view .LVU307
 1245 0000 38B5     		push	{r3, r4, r5, lr}
 1246              	.LCFI27:
 1247              		.cfi_def_cfa_offset 16
 1248              		.cfi_offset 3, -16
ARM GAS  /tmp/ccyCLDig.s 			page 36


 1249              		.cfi_offset 4, -12
 1250              		.cfi_offset 5, -8
 1251              		.cfi_offset 14, -4
 1252 0002 0446     		mov	r4, r0
 1253 0004 1546     		mov	r5, r2
  43:/mnt/c/Users/31740/Desktop/newcore/drivers/storage/w25qxx/w25qxx.h ****     if(IS_ERR(w25qxx_dev->spi_dev)){
 1254              		.loc 3 43 5 is_stmt 1 view .LVU308
  43:/mnt/c/Users/31740/Desktop/newcore/drivers/storage/w25qxx/w25qxx.h ****     if(IS_ERR(w25qxx_dev->spi_dev)){
 1255              		.loc 3 43 27 is_stmt 0 view .LVU309
 1256 0006 0022     		movs	r2, #0
 1257              	.LVL110:
  43:/mnt/c/Users/31740/Desktop/newcore/drivers/storage/w25qxx/w25qxx.h ****     if(IS_ERR(w25qxx_dev->spi_dev)){
 1258              		.loc 3 43 27 view .LVU310
 1259 0008 0221     		movs	r1, #2
 1260              	.LVL111:
  43:/mnt/c/Users/31740/Desktop/newcore/drivers/storage/w25qxx/w25qxx.h ****     if(IS_ERR(w25qxx_dev->spi_dev)){
 1261              		.loc 3 43 27 view .LVU311
 1262 000a 0C48     		ldr	r0, .L69
 1263              	.LVL112:
  43:/mnt/c/Users/31740/Desktop/newcore/drivers/storage/w25qxx/w25qxx.h ****     if(IS_ERR(w25qxx_dev->spi_dev)){
 1264              		.loc 3 43 27 view .LVU312
 1265 000c FFF7FEFF 		bl	filp_open
 1266              	.LVL113:
  43:/mnt/c/Users/31740/Desktop/newcore/drivers/storage/w25qxx/w25qxx.h ****     if(IS_ERR(w25qxx_dev->spi_dev)){
 1267              		.loc 3 43 25 discriminator 1 view .LVU313
 1268 0010 6060     		str	r0, [r4, #4]
  44:/mnt/c/Users/31740/Desktop/newcore/drivers/storage/w25qxx/w25qxx.h ****         pr_info("open file failed\n\r");
 1269              		.loc 3 44 5 is_stmt 1 view .LVU314
 1270              	.LVL114:
 1271              	.LBB107:
 1272              	.LBI107:
  75:/mnt/c/Users/31740/Desktop/newcore/include/linux/err.h **** {
 1273              		.loc 4 75 33 view .LVU315
 1274              	.LBB108:
 1275              		.loc 4 77 2 view .LVU316
 1276              		.loc 4 77 2 is_stmt 0 view .LVU317
 1277              	.LBE108:
 1278              	.LBE107:
  44:/mnt/c/Users/31740/Desktop/newcore/drivers/storage/w25qxx/w25qxx.h ****         pr_info("open file failed\n\r");
 1279              		.loc 3 44 7 discriminator 1 view .LVU318
 1280 0012 10F5805F 		cmn	r0, #4096
 1281 0016 09D8     		bhi	.L68
  48:/mnt/c/Users/31740/Desktop/newcore/drivers/storage/w25qxx/w25qxx.h ****     w25qxx_dev->xfer.len = 1;
 1282              		.loc 3 48 5 is_stmt 1 view .LVU319
  48:/mnt/c/Users/31740/Desktop/newcore/drivers/storage/w25qxx/w25qxx.h ****     w25qxx_dev->xfer.len = 1;
 1283              		.loc 3 48 31 is_stmt 0 view .LVU320
 1284 0018 A561     		str	r5, [r4, #24]
  49:/mnt/c/Users/31740/Desktop/newcore/drivers/storage/w25qxx/w25qxx.h ****     w25qxx_dev->xfer.delay_usecs = 0;
 1285              		.loc 3 49 5 is_stmt 1 view .LVU321
  49:/mnt/c/Users/31740/Desktop/newcore/drivers/storage/w25qxx/w25qxx.h ****     w25qxx_dev->xfer.delay_usecs = 0;
 1286              		.loc 3 49 26 is_stmt 0 view .LVU322
 1287 001a 0123     		movs	r3, #1
 1288 001c 6361     		str	r3, [r4, #20]
  50:/mnt/c/Users/31740/Desktop/newcore/drivers/storage/w25qxx/w25qxx.h ****     w25qxx_dev->xfer.bits_per_word = 8;
 1289              		.loc 3 50 5 is_stmt 1 view .LVU323
  50:/mnt/c/Users/31740/Desktop/newcore/drivers/storage/w25qxx/w25qxx.h ****     w25qxx_dev->xfer.bits_per_word = 8;
 1290              		.loc 3 50 34 is_stmt 0 view .LVU324
ARM GAS  /tmp/ccyCLDig.s 			page 37


 1291 001e 0023     		movs	r3, #0
 1292 0020 A383     		strh	r3, [r4, #28]	@ movhi
  51:/mnt/c/Users/31740/Desktop/newcore/drivers/storage/w25qxx/w25qxx.h ****     w25qxx_dev->xfer.cs_change = 0;
 1293              		.loc 3 51 5 is_stmt 1 view .LVU325
  51:/mnt/c/Users/31740/Desktop/newcore/drivers/storage/w25qxx/w25qxx.h ****     w25qxx_dev->xfer.cs_change = 0;
 1294              		.loc 3 51 36 is_stmt 0 view .LVU326
 1295 0022 0822     		movs	r2, #8
 1296 0024 A277     		strb	r2, [r4, #30]
  52:/mnt/c/Users/31740/Desktop/newcore/drivers/storage/w25qxx/w25qxx.h **** }
 1297              		.loc 3 52 5 is_stmt 1 view .LVU327
  52:/mnt/c/Users/31740/Desktop/newcore/drivers/storage/w25qxx/w25qxx.h **** }
 1298              		.loc 3 52 32 is_stmt 0 view .LVU328
 1299 0026 84F82330 		strb	r3, [r4, #35]
 1300              	.L65:
  53:/mnt/c/Users/31740/Desktop/newcore/drivers/storage/w25qxx/w25qxx.h **** 
 1301              		.loc 3 53 1 view .LVU329
 1302 002a 38BD     		pop	{r3, r4, r5, pc}
 1303              	.LVL115:
 1304              	.L68:
  45:/mnt/c/Users/31740/Desktop/newcore/drivers/storage/w25qxx/w25qxx.h ****         return -1;
 1305              		.loc 3 45 9 is_stmt 1 view .LVU330
 1306 002c 0449     		ldr	r1, .L69+4
 1307 002e 0620     		movs	r0, #6
 1308 0030 FFF7FEFF 		bl	printk
 1309              	.LVL116:
  46:/mnt/c/Users/31740/Desktop/newcore/drivers/storage/w25qxx/w25qxx.h ****     }
 1310              		.loc 3 46 9 view .LVU331
  46:/mnt/c/Users/31740/Desktop/newcore/drivers/storage/w25qxx/w25qxx.h ****     }
 1311              		.loc 3 46 16 is_stmt 0 discriminator 1 view .LVU332
 1312 0034 4FF0FF30 		mov	r0, #-1
  46:/mnt/c/Users/31740/Desktop/newcore/drivers/storage/w25qxx/w25qxx.h ****     }
 1313              		.loc 3 46 16 view .LVU333
 1314 0038 F7E7     		b	.L65
 1315              	.L70:
 1316 003a 00BF     		.align	2
 1317              	.L69:
 1318 003c 00000000 		.word	.LC10
 1319 0040 00000000 		.word	.LC7
 1320              		.cfi_endproc
 1321              	.LFE1034:
 1323              		.section	.rodata.w25qxx_device_init.str1.4,"aMS",%progbits,1
 1324              		.align	2
 1325              	.LC11:
 1326 0000 2F646576 		.ascii	"/dev/gpios\000"
 1326      2F677069 
 1326      6F7300
 1327              		.section	.text.w25qxx_device_init,"ax",%progbits
 1328              		.align	1
 1329              		.syntax unified
 1330              		.thumb
 1331              		.thumb_func
 1333              	w25qxx_device_init:
 1334              	.LVL117:
 1335              	.LFB1035:
  57:/mnt/c/Users/31740/Desktop/newcore/drivers/storage/w25qxx/w25qxx.h ****     dev->status = cs_pin_init(dev, "/dev/gpios",cs_pin_num);
 1336              		.loc 3 57 1 is_stmt 1 view -0
 1337              		.cfi_startproc
ARM GAS  /tmp/ccyCLDig.s 			page 38


 1338              		@ args = 0, pretend = 0, frame = 0
 1339              		@ frame_needed = 0, uses_anonymous_args = 0
  57:/mnt/c/Users/31740/Desktop/newcore/drivers/storage/w25qxx/w25qxx.h ****     dev->status = cs_pin_init(dev, "/dev/gpios",cs_pin_num);
 1340              		.loc 3 57 1 is_stmt 0 view .LVU335
 1341 0000 38B5     		push	{r3, r4, r5, lr}
 1342              	.LCFI28:
 1343              		.cfi_def_cfa_offset 16
 1344              		.cfi_offset 3, -16
 1345              		.cfi_offset 4, -12
 1346              		.cfi_offset 5, -8
 1347              		.cfi_offset 14, -4
 1348 0002 0446     		mov	r4, r0
 1349 0004 0D46     		mov	r5, r1
  58:/mnt/c/Users/31740/Desktop/newcore/drivers/storage/w25qxx/w25qxx.h ****     if(dev->status < 0){
 1350              		.loc 3 58 5 is_stmt 1 view .LVU336
  58:/mnt/c/Users/31740/Desktop/newcore/drivers/storage/w25qxx/w25qxx.h ****     if(dev->status < 0){
 1351              		.loc 3 58 19 is_stmt 0 view .LVU337
 1352 0006 0649     		ldr	r1, .L73
 1353              	.LVL118:
  58:/mnt/c/Users/31740/Desktop/newcore/drivers/storage/w25qxx/w25qxx.h ****     if(dev->status < 0){
 1354              		.loc 3 58 19 view .LVU338
 1355 0008 FFF7FEFF 		bl	cs_pin_init
 1356              	.LVL119:
  58:/mnt/c/Users/31740/Desktop/newcore/drivers/storage/w25qxx/w25qxx.h ****     if(dev->status < 0){
 1357              		.loc 3 58 17 discriminator 1 view .LVU339
 1358 000c 2070     		strb	r0, [r4]
  59:/mnt/c/Users/31740/Desktop/newcore/drivers/storage/w25qxx/w25qxx.h ****         pr_info("cs_pin_init failed\n\r");
 1359              		.loc 3 59 5 is_stmt 1 view .LVU340
  63:/mnt/c/Users/31740/Desktop/newcore/drivers/storage/w25qxx/w25qxx.h ****     if(dev->status < 0){
 1360              		.loc 3 63 5 view .LVU341
  63:/mnt/c/Users/31740/Desktop/newcore/drivers/storage/w25qxx/w25qxx.h ****     if(dev->status < 0){
 1361              		.loc 3 63 19 is_stmt 0 view .LVU342
 1362 000e 054A     		ldr	r2, .L73+4
 1363 0010 2946     		mov	r1, r5
 1364 0012 2046     		mov	r0, r4
 1365 0014 FFF7FEFF 		bl	spi_write_enable
 1366              	.LVL120:
  63:/mnt/c/Users/31740/Desktop/newcore/drivers/storage/w25qxx/w25qxx.h ****     if(dev->status < 0){
 1367              		.loc 3 63 17 discriminator 1 view .LVU343
 1368 0018 2070     		strb	r0, [r4]
  64:/mnt/c/Users/31740/Desktop/newcore/drivers/storage/w25qxx/w25qxx.h ****         pr_info("spi_write_enable failed\n\r");
 1369              		.loc 3 64 5 is_stmt 1 view .LVU344
  69:/mnt/c/Users/31740/Desktop/newcore/drivers/storage/w25qxx/w25qxx.h **** }
 1370              		.loc 3 69 5 view .LVU345
  70:/mnt/c/Users/31740/Desktop/newcore/drivers/storage/w25qxx/w25qxx.h **** 
 1371              		.loc 3 70 1 is_stmt 0 view .LVU346
 1372 001a 0020     		movs	r0, #0
 1373 001c 38BD     		pop	{r3, r4, r5, pc}
 1374              	.LVL121:
 1375              	.L74:
  70:/mnt/c/Users/31740/Desktop/newcore/drivers/storage/w25qxx/w25qxx.h **** 
 1376              		.loc 3 70 1 view .LVU347
 1377 001e 00BF     		.align	2
 1378              	.L73:
 1379 0020 00000000 		.word	.LC11
 1380 0024 40420F00 		.word	1000000
 1381              		.cfi_endproc
ARM GAS  /tmp/ccyCLDig.s 			page 39


 1382              	.LFE1035:
 1384              		.section	.text.add_disk,"ax",%progbits
 1385              		.align	1
 1386              		.syntax unified
 1387              		.thumb
 1388              		.thumb_func
 1390              	add_disk:
 1391              	.LVL122:
 1392              	.LFB1032:
 1393              		.file 5 "/mnt/c/Users/31740/Desktop/newcore/include/linux/fs.h"
   1:/mnt/c/Users/31740/Desktop/newcore/include/linux/fs.h **** /* SPDX-License-Identifier: GPL-2.0 */
   2:/mnt/c/Users/31740/Desktop/newcore/include/linux/fs.h **** #ifndef _LINUX_FS_H
   3:/mnt/c/Users/31740/Desktop/newcore/include/linux/fs.h **** #define _LINUX_FS_H
   4:/mnt/c/Users/31740/Desktop/newcore/include/linux/fs.h **** 
   5:/mnt/c/Users/31740/Desktop/newcore/include/linux/fs.h **** #include <linux/types.h>
   6:/mnt/c/Users/31740/Desktop/newcore/include/linux/fs.h **** #include <linux/errseq.h> 
   7:/mnt/c/Users/31740/Desktop/newcore/include/linux/fs.h **** #include <linux/spinlock.h> 
   8:/mnt/c/Users/31740/Desktop/newcore/include/linux/fs.h **** #include <linux/list.h>
   9:/mnt/c/Users/31740/Desktop/newcore/include/linux/fs.h **** #include <linux/rbtree_types.h>  
  10:/mnt/c/Users/31740/Desktop/newcore/include/linux/fs.h **** #include <linux/uuid.h>  
  11:/mnt/c/Users/31740/Desktop/newcore/include/linux/fs.h **** #include <linux/uidgid_types.h>   
  12:/mnt/c/Users/31740/Desktop/newcore/include/linux/fs.h **** #include <linux/projid.h>       
  13:/mnt/c/Users/31740/Desktop/newcore/include/linux/fs.h **** #include <linux/time64.h> 
  14:/mnt/c/Users/31740/Desktop/newcore/include/linux/fs.h **** #include <linux/mnt_idmapping.h>  
  15:/mnt/c/Users/31740/Desktop/newcore/include/linux/fs.h **** #include <linux/mutex.h>         
  16:/mnt/c/Users/31740/Desktop/newcore/include/linux/fs.h **** #include <linux/uio.h>              
  17:/mnt/c/Users/31740/Desktop/newcore/include/linux/fs.h **** #include <linux/migrate_mode.h>  
  18:/mnt/c/Users/31740/Desktop/newcore/include/linux/fs.h **** #include <linux/raid/pq.h> 
  19:/mnt/c/Users/31740/Desktop/newcore/include/linux/fs.h **** #include <linux/lockdep_types.h>
  20:/mnt/c/Users/31740/Desktop/newcore/include/linux/fs.h **** #include <linux/wait.h>				
  21:/mnt/c/Users/31740/Desktop/newcore/include/linux/fs.h **** #include <linux/pipe_fs_i.h>
  22:/mnt/c/Users/31740/Desktop/newcore/include/linux/fs.h **** #include <linux/fcntl.h>
  23:/mnt/c/Users/31740/Desktop/newcore/include/linux/fs.h **** #include <linux/xarray.h>
  24:/mnt/c/Users/31740/Desktop/newcore/include/linux/fs.h **** #include <linux/blkdev.h>
  25:/mnt/c/Users/31740/Desktop/newcore/include/linux/fs.h **** #include <linux/dcache.h>
  26:/mnt/c/Users/31740/Desktop/newcore/include/linux/fs.h **** #include <linux/mm_type.h>
  27:/mnt/c/Users/31740/Desktop/newcore/include/linux/fs.h **** #include <linux/statfs.h>
  28:/mnt/c/Users/31740/Desktop/newcore/include/linux/fs.h **** #include <linux/stat.h>
  29:/mnt/c/Users/31740/Desktop/newcore/include/linux/fs.h **** #include <linux/path.h>
  30:/mnt/c/Users/31740/Desktop/newcore/include/linux/fs.h **** #include <linux/fs_types.h>
  31:/mnt/c/Users/31740/Desktop/newcore/include/linux/fs.h **** 
  32:/mnt/c/Users/31740/Desktop/newcore/include/linux/fs.h **** struct dentry;
  33:/mnt/c/Users/31740/Desktop/newcore/include/linux/fs.h **** struct file;
  34:/mnt/c/Users/31740/Desktop/newcore/include/linux/fs.h **** struct inode;
  35:/mnt/c/Users/31740/Desktop/newcore/include/linux/fs.h **** struct kiocb;
  36:/mnt/c/Users/31740/Desktop/newcore/include/linux/fs.h **** struct file_operations;
  37:/mnt/c/Users/31740/Desktop/newcore/include/linux/fs.h **** struct inode_operations  ;
  38:/mnt/c/Users/31740/Desktop/newcore/include/linux/fs.h **** struct dentry_operations ;
  39:/mnt/c/Users/31740/Desktop/newcore/include/linux/fs.h **** struct writeback_control ;
  40:/mnt/c/Users/31740/Desktop/newcore/include/linux/fs.h **** struct address_space;
  41:/mnt/c/Users/31740/Desktop/newcore/include/linux/fs.h **** struct seq_file ;
  42:/mnt/c/Users/31740/Desktop/newcore/include/linux/fs.h **** struct shrink_control;
  43:/mnt/c/Users/31740/Desktop/newcore/include/linux/fs.h **** struct file_system_type;
  44:/mnt/c/Users/31740/Desktop/newcore/include/linux/fs.h **** struct buffer_head;
  45:/mnt/c/Users/31740/Desktop/newcore/include/linux/fs.h **** struct readahead_control;
  46:/mnt/c/Users/31740/Desktop/newcore/include/linux/fs.h **** 
  47:/mnt/c/Users/31740/Desktop/newcore/include/linux/fs.h **** #define MAY_EXEC		0x00000001
ARM GAS  /tmp/ccyCLDig.s 			page 40


  48:/mnt/c/Users/31740/Desktop/newcore/include/linux/fs.h **** #define MAY_WRITE		0x00000002
  49:/mnt/c/Users/31740/Desktop/newcore/include/linux/fs.h **** #define MAY_READ		0x00000004
  50:/mnt/c/Users/31740/Desktop/newcore/include/linux/fs.h **** #define MAY_APPEND		0x00000008
  51:/mnt/c/Users/31740/Desktop/newcore/include/linux/fs.h **** #define MAY_ACCESS		0x00000010
  52:/mnt/c/Users/31740/Desktop/newcore/include/linux/fs.h **** #define MAY_OPEN		0x00000020
  53:/mnt/c/Users/31740/Desktop/newcore/include/linux/fs.h **** #define MAY_CHDIR		0x00000040
  54:/mnt/c/Users/31740/Desktop/newcore/include/linux/fs.h **** /* called from RCU mode, don't block */
  55:/mnt/c/Users/31740/Desktop/newcore/include/linux/fs.h **** #define MAY_NOT_BLOCK		0x00000080
  56:/mnt/c/Users/31740/Desktop/newcore/include/linux/fs.h **** 
  57:/mnt/c/Users/31740/Desktop/newcore/include/linux/fs.h **** /*
  58:/mnt/c/Users/31740/Desktop/newcore/include/linux/fs.h ****  * flags in file.f_mode.  Note that FMODE_READ and FMODE_WRITE must correspond
  59:/mnt/c/Users/31740/Desktop/newcore/include/linux/fs.h ****  * to O_WRONLY and O_RDWR via the strange trick in do_dentry_open()
  60:/mnt/c/Users/31740/Desktop/newcore/include/linux/fs.h ****  */
  61:/mnt/c/Users/31740/Desktop/newcore/include/linux/fs.h **** 
  62:/mnt/c/Users/31740/Desktop/newcore/include/linux/fs.h **** /* file is open for reading */
  63:/mnt/c/Users/31740/Desktop/newcore/include/linux/fs.h **** #define FMODE_READ		((__force fmode_t)(1 << 0))
  64:/mnt/c/Users/31740/Desktop/newcore/include/linux/fs.h **** /* file is open for writing */
  65:/mnt/c/Users/31740/Desktop/newcore/include/linux/fs.h **** #define FMODE_WRITE		((__force fmode_t)(1 << 1))
  66:/mnt/c/Users/31740/Desktop/newcore/include/linux/fs.h **** /* file is seekable */
  67:/mnt/c/Users/31740/Desktop/newcore/include/linux/fs.h **** #define FMODE_LSEEK		((__force fmode_t)(1 << 2))
  68:/mnt/c/Users/31740/Desktop/newcore/include/linux/fs.h **** /* file can be accessed using pread */
  69:/mnt/c/Users/31740/Desktop/newcore/include/linux/fs.h **** #define FMODE_PREAD		((__force fmode_t)(1 << 3))
  70:/mnt/c/Users/31740/Desktop/newcore/include/linux/fs.h **** /* file can be accessed using pwrite */
  71:/mnt/c/Users/31740/Desktop/newcore/include/linux/fs.h **** #define FMODE_PWRITE		((__force fmode_t)(1 << 4))
  72:/mnt/c/Users/31740/Desktop/newcore/include/linux/fs.h **** /* File is opened for execution with sys_execve / sys_uselib */
  73:/mnt/c/Users/31740/Desktop/newcore/include/linux/fs.h **** #define FMODE_EXEC		((__force fmode_t)(1 << 5))
  74:/mnt/c/Users/31740/Desktop/newcore/include/linux/fs.h **** /* File writes are restricted (block device specific) */
  75:/mnt/c/Users/31740/Desktop/newcore/include/linux/fs.h **** #define FMODE_WRITE_RESTRICTED	((__force fmode_t)(1 << 6))
  76:/mnt/c/Users/31740/Desktop/newcore/include/linux/fs.h **** /* File supports atomic writes */
  77:/mnt/c/Users/31740/Desktop/newcore/include/linux/fs.h **** #define FMODE_CAN_ATOMIC_WRITE	((__force fmode_t)(1 << 7))
  78:/mnt/c/Users/31740/Desktop/newcore/include/linux/fs.h **** 
  79:/mnt/c/Users/31740/Desktop/newcore/include/linux/fs.h **** /* FMODE_* bit 8 */
  80:/mnt/c/Users/31740/Desktop/newcore/include/linux/fs.h **** 
  81:/mnt/c/Users/31740/Desktop/newcore/include/linux/fs.h **** /* 32bit hashes as llseek() offset (for directories) */
  82:/mnt/c/Users/31740/Desktop/newcore/include/linux/fs.h **** #define FMODE_32BITHASH         ((__force fmode_t)(1 << 9))
  83:/mnt/c/Users/31740/Desktop/newcore/include/linux/fs.h **** /* 64bit hashes as llseek() offset (for directories) */
  84:/mnt/c/Users/31740/Desktop/newcore/include/linux/fs.h **** #define FMODE_64BITHASH         ((__force fmode_t)(1 << 10))
  85:/mnt/c/Users/31740/Desktop/newcore/include/linux/fs.h **** 
  86:/mnt/c/Users/31740/Desktop/newcore/include/linux/fs.h **** /*
  87:/mnt/c/Users/31740/Desktop/newcore/include/linux/fs.h ****  * Don't update ctime and mtime.
  88:/mnt/c/Users/31740/Desktop/newcore/include/linux/fs.h ****  *
  89:/mnt/c/Users/31740/Desktop/newcore/include/linux/fs.h ****  * Currently a special hack for the XFS open_by_handle ioctl, but we'll
  90:/mnt/c/Users/31740/Desktop/newcore/include/linux/fs.h ****  * hopefully graduate it to a proper O_CMTIME flag supported by open(2) soon.
  91:/mnt/c/Users/31740/Desktop/newcore/include/linux/fs.h ****  */
  92:/mnt/c/Users/31740/Desktop/newcore/include/linux/fs.h **** #define FMODE_NOCMTIME		((__force fmode_t)(1 << 11))
  93:/mnt/c/Users/31740/Desktop/newcore/include/linux/fs.h **** 
  94:/mnt/c/Users/31740/Desktop/newcore/include/linux/fs.h **** /* Expect random access pattern */
  95:/mnt/c/Users/31740/Desktop/newcore/include/linux/fs.h **** #define FMODE_RANDOM		((__force fmode_t)(1 << 12))
  96:/mnt/c/Users/31740/Desktop/newcore/include/linux/fs.h **** 
  97:/mnt/c/Users/31740/Desktop/newcore/include/linux/fs.h **** /* FMODE_* bit 13 */
  98:/mnt/c/Users/31740/Desktop/newcore/include/linux/fs.h **** 
  99:/mnt/c/Users/31740/Desktop/newcore/include/linux/fs.h **** /* File is opened with O_PATH; almost nothing can be done with it */
 100:/mnt/c/Users/31740/Desktop/newcore/include/linux/fs.h **** #define FMODE_PATH		((__force fmode_t)(1 << 14))
 101:/mnt/c/Users/31740/Desktop/newcore/include/linux/fs.h **** 
 102:/mnt/c/Users/31740/Desktop/newcore/include/linux/fs.h **** /* File needs atomic accesses to f_pos */
 103:/mnt/c/Users/31740/Desktop/newcore/include/linux/fs.h **** #define FMODE_ATOMIC_POS	((__force fmode_t)(1 << 15))
 104:/mnt/c/Users/31740/Desktop/newcore/include/linux/fs.h **** /* Write access to underlying fs */
ARM GAS  /tmp/ccyCLDig.s 			page 41


 105:/mnt/c/Users/31740/Desktop/newcore/include/linux/fs.h **** #define FMODE_WRITER		((__force fmode_t)(1 << 16))
 106:/mnt/c/Users/31740/Desktop/newcore/include/linux/fs.h **** /* Has read method(s) */
 107:/mnt/c/Users/31740/Desktop/newcore/include/linux/fs.h **** #define FMODE_CAN_READ          ((__force fmode_t)(1 << 17))
 108:/mnt/c/Users/31740/Desktop/newcore/include/linux/fs.h **** /* Has write method(s) */
 109:/mnt/c/Users/31740/Desktop/newcore/include/linux/fs.h **** #define FMODE_CAN_WRITE         ((__force fmode_t)(1 << 18))
 110:/mnt/c/Users/31740/Desktop/newcore/include/linux/fs.h **** 
 111:/mnt/c/Users/31740/Desktop/newcore/include/linux/fs.h **** #define FMODE_OPENED		((__force fmode_t)(1 << 19))
 112:/mnt/c/Users/31740/Desktop/newcore/include/linux/fs.h **** #define FMODE_CREATED		((__force fmode_t)(1 << 20))
 113:/mnt/c/Users/31740/Desktop/newcore/include/linux/fs.h **** 
 114:/mnt/c/Users/31740/Desktop/newcore/include/linux/fs.h **** /* File is stream-like */
 115:/mnt/c/Users/31740/Desktop/newcore/include/linux/fs.h **** #define FMODE_STREAM		((__force fmode_t)(1 << 21))
 116:/mnt/c/Users/31740/Desktop/newcore/include/linux/fs.h **** 
 117:/mnt/c/Users/31740/Desktop/newcore/include/linux/fs.h **** /* File supports DIRECT IO */
 118:/mnt/c/Users/31740/Desktop/newcore/include/linux/fs.h **** #define	FMODE_CAN_ODIRECT	((__force fmode_t)(1 << 22))
 119:/mnt/c/Users/31740/Desktop/newcore/include/linux/fs.h **** 
 120:/mnt/c/Users/31740/Desktop/newcore/include/linux/fs.h **** #define	FMODE_NOREUSE		((__force fmode_t)(1 << 23))
 121:/mnt/c/Users/31740/Desktop/newcore/include/linux/fs.h **** 
 122:/mnt/c/Users/31740/Desktop/newcore/include/linux/fs.h **** /* FMODE_* bit 24 */
 123:/mnt/c/Users/31740/Desktop/newcore/include/linux/fs.h **** 
 124:/mnt/c/Users/31740/Desktop/newcore/include/linux/fs.h **** /* File is embedded in backing_file object */
 125:/mnt/c/Users/31740/Desktop/newcore/include/linux/fs.h **** #define FMODE_BACKING		((__force fmode_t)(1 << 25))
 126:/mnt/c/Users/31740/Desktop/newcore/include/linux/fs.h **** 
 127:/mnt/c/Users/31740/Desktop/newcore/include/linux/fs.h **** /* File was opened by fanotify and shouldn't generate fanotify events */
 128:/mnt/c/Users/31740/Desktop/newcore/include/linux/fs.h **** #define FMODE_NONOTIFY		((__force fmode_t)(1 << 26))
 129:/mnt/c/Users/31740/Desktop/newcore/include/linux/fs.h **** 
 130:/mnt/c/Users/31740/Desktop/newcore/include/linux/fs.h **** /* File is capable of returning -EAGAIN if I/O will block */
 131:/mnt/c/Users/31740/Desktop/newcore/include/linux/fs.h **** #define FMODE_NOWAIT		((__force fmode_t)(1 << 27))
 132:/mnt/c/Users/31740/Desktop/newcore/include/linux/fs.h **** 
 133:/mnt/c/Users/31740/Desktop/newcore/include/linux/fs.h **** /* File represents mount that needs unmounting */
 134:/mnt/c/Users/31740/Desktop/newcore/include/linux/fs.h **** #define FMODE_NEED_UNMOUNT	((__force fmode_t)(1 << 28))
 135:/mnt/c/Users/31740/Desktop/newcore/include/linux/fs.h **** 
 136:/mnt/c/Users/31740/Desktop/newcore/include/linux/fs.h **** /* File does not contribute to nr_files count */
 137:/mnt/c/Users/31740/Desktop/newcore/include/linux/fs.h **** #define FMODE_NOACCOUNT		((__force fmode_t)(1 << 29))
 138:/mnt/c/Users/31740/Desktop/newcore/include/linux/fs.h **** 
 139:/mnt/c/Users/31740/Desktop/newcore/include/linux/fs.h **** /*
 140:/mnt/c/Users/31740/Desktop/newcore/include/linux/fs.h ****  * Attribute flags.  These should be or-ed together to figure out what
 141:/mnt/c/Users/31740/Desktop/newcore/include/linux/fs.h ****  * has been changed!
 142:/mnt/c/Users/31740/Desktop/newcore/include/linux/fs.h ****  */
 143:/mnt/c/Users/31740/Desktop/newcore/include/linux/fs.h **** #define ATTR_MODE	(1 << 0)
 144:/mnt/c/Users/31740/Desktop/newcore/include/linux/fs.h **** #define ATTR_UID	(1 << 1)
 145:/mnt/c/Users/31740/Desktop/newcore/include/linux/fs.h **** #define ATTR_GID	(1 << 2)
 146:/mnt/c/Users/31740/Desktop/newcore/include/linux/fs.h **** #define ATTR_SIZE	(1 << 3)
 147:/mnt/c/Users/31740/Desktop/newcore/include/linux/fs.h **** #define ATTR_ATIME	(1 << 4)
 148:/mnt/c/Users/31740/Desktop/newcore/include/linux/fs.h **** #define ATTR_MTIME	(1 << 5)
 149:/mnt/c/Users/31740/Desktop/newcore/include/linux/fs.h **** #define ATTR_CTIME	(1 << 6)
 150:/mnt/c/Users/31740/Desktop/newcore/include/linux/fs.h **** #define ATTR_ATIME_SET	(1 << 7)
 151:/mnt/c/Users/31740/Desktop/newcore/include/linux/fs.h **** #define ATTR_MTIME_SET	(1 << 8)
 152:/mnt/c/Users/31740/Desktop/newcore/include/linux/fs.h **** #define ATTR_FORCE	(1 << 9) /* Not a change, but a change it */
 153:/mnt/c/Users/31740/Desktop/newcore/include/linux/fs.h **** #define ATTR_KILL_SUID	(1 << 11)
 154:/mnt/c/Users/31740/Desktop/newcore/include/linux/fs.h **** #define ATTR_KILL_SGID	(1 << 12)
 155:/mnt/c/Users/31740/Desktop/newcore/include/linux/fs.h **** #define ATTR_FILE	(1 << 13)
 156:/mnt/c/Users/31740/Desktop/newcore/include/linux/fs.h **** #define ATTR_KILL_PRIV	(1 << 14)
 157:/mnt/c/Users/31740/Desktop/newcore/include/linux/fs.h **** #define ATTR_OPEN	(1 << 15) /* Truncating from open(O_TRUNC) */
 158:/mnt/c/Users/31740/Desktop/newcore/include/linux/fs.h **** #define ATTR_TIMES_SET	(1 << 16)
 159:/mnt/c/Users/31740/Desktop/newcore/include/linux/fs.h **** #define ATTR_TOUCH	(1 << 17)
 160:/mnt/c/Users/31740/Desktop/newcore/include/linux/fs.h **** #define ATTR_DELEG	(1 << 18) /* Delegated attrs. Don't break write delegations */
 161:/mnt/c/Users/31740/Desktop/newcore/include/linux/fs.h **** 
ARM GAS  /tmp/ccyCLDig.s 			page 42


 162:/mnt/c/Users/31740/Desktop/newcore/include/linux/fs.h **** /*
 163:/mnt/c/Users/31740/Desktop/newcore/include/linux/fs.h ****  * Whiteout is represented by a char device.  The following constants define the
 164:/mnt/c/Users/31740/Desktop/newcore/include/linux/fs.h ****  * mode and device number to use.
 165:/mnt/c/Users/31740/Desktop/newcore/include/linux/fs.h ****  */
 166:/mnt/c/Users/31740/Desktop/newcore/include/linux/fs.h **** #define WHITEOUT_MODE 0
 167:/mnt/c/Users/31740/Desktop/newcore/include/linux/fs.h **** #define WHITEOUT_DEV 0
 168:/mnt/c/Users/31740/Desktop/newcore/include/linux/fs.h **** 
 169:/mnt/c/Users/31740/Desktop/newcore/include/linux/fs.h **** 
 170:/mnt/c/Users/31740/Desktop/newcore/include/linux/fs.h **** 
 171:/mnt/c/Users/31740/Desktop/newcore/include/linux/fs.h **** /********************************************************
 172:/mnt/c/Users/31740/Desktop/newcore/include/linux/fs.h ****  * 														*
 173:/mnt/c/Users/31740/Desktop/newcore/include/linux/fs.h ****  * 			   		     iattr  						*
 174:/mnt/c/Users/31740/Desktop/newcore/include/linux/fs.h ****  *														* 
 175:/mnt/c/Users/31740/Desktop/newcore/include/linux/fs.h **** *********************************************************/
 176:/mnt/c/Users/31740/Desktop/newcore/include/linux/fs.h **** 
 177:/mnt/c/Users/31740/Desktop/newcore/include/linux/fs.h **** 
 178:/mnt/c/Users/31740/Desktop/newcore/include/linux/fs.h **** struct iattr {
 179:/mnt/c/Users/31740/Desktop/newcore/include/linux/fs.h **** 	unsigned int	ia_valid;
 180:/mnt/c/Users/31740/Desktop/newcore/include/linux/fs.h **** 	umode_t		ia_mode;
 181:/mnt/c/Users/31740/Desktop/newcore/include/linux/fs.h **** 	union {
 182:/mnt/c/Users/31740/Desktop/newcore/include/linux/fs.h **** 		kuid_t		ia_uid;
 183:/mnt/c/Users/31740/Desktop/newcore/include/linux/fs.h **** 		vfsuid_t	ia_vfsuid;
 184:/mnt/c/Users/31740/Desktop/newcore/include/linux/fs.h **** 	};
 185:/mnt/c/Users/31740/Desktop/newcore/include/linux/fs.h **** 	union {
 186:/mnt/c/Users/31740/Desktop/newcore/include/linux/fs.h **** 		kgid_t		ia_gid;
 187:/mnt/c/Users/31740/Desktop/newcore/include/linux/fs.h **** 		vfsgid_t	ia_vfsgid;
 188:/mnt/c/Users/31740/Desktop/newcore/include/linux/fs.h **** 	};
 189:/mnt/c/Users/31740/Desktop/newcore/include/linux/fs.h **** 	loff_t		ia_size;
 190:/mnt/c/Users/31740/Desktop/newcore/include/linux/fs.h **** 	struct timespec64 ia_atime;
 191:/mnt/c/Users/31740/Desktop/newcore/include/linux/fs.h **** 	struct timespec64 ia_mtime;
 192:/mnt/c/Users/31740/Desktop/newcore/include/linux/fs.h **** 	struct timespec64 ia_ctime;
 193:/mnt/c/Users/31740/Desktop/newcore/include/linux/fs.h **** 	struct file	*ia_file;
 194:/mnt/c/Users/31740/Desktop/newcore/include/linux/fs.h **** };
 195:/mnt/c/Users/31740/Desktop/newcore/include/linux/fs.h **** 
 196:/mnt/c/Users/31740/Desktop/newcore/include/linux/fs.h **** /********************************************************
 197:/mnt/c/Users/31740/Desktop/newcore/include/linux/fs.h ****  * 														*
 198:/mnt/c/Users/31740/Desktop/newcore/include/linux/fs.h ****  * 			     address_space  						*
 199:/mnt/c/Users/31740/Desktop/newcore/include/linux/fs.h ****  *														* 
 200:/mnt/c/Users/31740/Desktop/newcore/include/linux/fs.h **** *********************************************************/
 201:/mnt/c/Users/31740/Desktop/newcore/include/linux/fs.h **** struct file_ra_state {
 202:/mnt/c/Users/31740/Desktop/newcore/include/linux/fs.h **** 	pgoff_t start;
 203:/mnt/c/Users/31740/Desktop/newcore/include/linux/fs.h **** 	unsigned int size;
 204:/mnt/c/Users/31740/Desktop/newcore/include/linux/fs.h **** 	unsigned int async_size;
 205:/mnt/c/Users/31740/Desktop/newcore/include/linux/fs.h **** 	unsigned int ra_pages;
 206:/mnt/c/Users/31740/Desktop/newcore/include/linux/fs.h **** 	unsigned int mmap_miss;
 207:/mnt/c/Users/31740/Desktop/newcore/include/linux/fs.h **** 	loff_t prev_pos;
 208:/mnt/c/Users/31740/Desktop/newcore/include/linux/fs.h **** };
 209:/mnt/c/Users/31740/Desktop/newcore/include/linux/fs.h **** 
 210:/mnt/c/Users/31740/Desktop/newcore/include/linux/fs.h **** struct iov_iter {
 211:/mnt/c/Users/31740/Desktop/newcore/include/linux/fs.h **** 	u8 iter_type;
 212:/mnt/c/Users/31740/Desktop/newcore/include/linux/fs.h **** 	bool nofault;
 213:/mnt/c/Users/31740/Desktop/newcore/include/linux/fs.h **** 	bool data_source;
 214:/mnt/c/Users/31740/Desktop/newcore/include/linux/fs.h **** 	size_t iov_offset;
 215:/mnt/c/Users/31740/Desktop/newcore/include/linux/fs.h **** 	/*
 216:/mnt/c/Users/31740/Desktop/newcore/include/linux/fs.h **** 	 * Hack alert: overlay ubuf_iovec with iovec + count, so
 217:/mnt/c/Users/31740/Desktop/newcore/include/linux/fs.h **** 	 * that the members resolve correctly regardless of the type
 218:/mnt/c/Users/31740/Desktop/newcore/include/linux/fs.h **** 	 * of iterator used. This means that you can use:
ARM GAS  /tmp/ccyCLDig.s 			page 43


 219:/mnt/c/Users/31740/Desktop/newcore/include/linux/fs.h **** 	 *
 220:/mnt/c/Users/31740/Desktop/newcore/include/linux/fs.h **** 	 * &iter->__ubuf_iovec or iter->__iov
 221:/mnt/c/Users/31740/Desktop/newcore/include/linux/fs.h **** 	 *
 222:/mnt/c/Users/31740/Desktop/newcore/include/linux/fs.h **** 	 * interchangably for the user_backed cases, hence simplifying
 223:/mnt/c/Users/31740/Desktop/newcore/include/linux/fs.h **** 	 * some of the cases that need to deal with both.
 224:/mnt/c/Users/31740/Desktop/newcore/include/linux/fs.h **** 	 */
 225:/mnt/c/Users/31740/Desktop/newcore/include/linux/fs.h **** 	union {
 226:/mnt/c/Users/31740/Desktop/newcore/include/linux/fs.h **** 		/*
 227:/mnt/c/Users/31740/Desktop/newcore/include/linux/fs.h **** 		 * This really should be a const, but we cannot do that without
 228:/mnt/c/Users/31740/Desktop/newcore/include/linux/fs.h **** 		 * also modifying any of the zero-filling iter init functions.
 229:/mnt/c/Users/31740/Desktop/newcore/include/linux/fs.h **** 		 * Leave it non-const for now, but it should be treated as such.
 230:/mnt/c/Users/31740/Desktop/newcore/include/linux/fs.h **** 		 */
 231:/mnt/c/Users/31740/Desktop/newcore/include/linux/fs.h **** 		struct iovec __ubuf_iovec;
 232:/mnt/c/Users/31740/Desktop/newcore/include/linux/fs.h **** 		struct {
 233:/mnt/c/Users/31740/Desktop/newcore/include/linux/fs.h **** 			union {
 234:/mnt/c/Users/31740/Desktop/newcore/include/linux/fs.h **** 				/* use iter_iov() to get the current vec */
 235:/mnt/c/Users/31740/Desktop/newcore/include/linux/fs.h **** 				const struct iovec *__iov;
 236:/mnt/c/Users/31740/Desktop/newcore/include/linux/fs.h **** 				const struct kvec *kvec;
 237:/mnt/c/Users/31740/Desktop/newcore/include/linux/fs.h **** 				const struct bio_vec *bvec;
 238:/mnt/c/Users/31740/Desktop/newcore/include/linux/fs.h **** 				const struct folio_queue *folioq;
 239:/mnt/c/Users/31740/Desktop/newcore/include/linux/fs.h **** 				struct xarray *xarray;
 240:/mnt/c/Users/31740/Desktop/newcore/include/linux/fs.h **** 				void __user *ubuf;
 241:/mnt/c/Users/31740/Desktop/newcore/include/linux/fs.h **** 			};
 242:/mnt/c/Users/31740/Desktop/newcore/include/linux/fs.h **** 			size_t count;
 243:/mnt/c/Users/31740/Desktop/newcore/include/linux/fs.h **** 		};
 244:/mnt/c/Users/31740/Desktop/newcore/include/linux/fs.h **** 	};
 245:/mnt/c/Users/31740/Desktop/newcore/include/linux/fs.h **** 	union {
 246:/mnt/c/Users/31740/Desktop/newcore/include/linux/fs.h **** 		unsigned long nr_segs;
 247:/mnt/c/Users/31740/Desktop/newcore/include/linux/fs.h **** 		u8 folioq_slot;
 248:/mnt/c/Users/31740/Desktop/newcore/include/linux/fs.h **** 		loff_t xarray_start;
 249:/mnt/c/Users/31740/Desktop/newcore/include/linux/fs.h **** 	};
 250:/mnt/c/Users/31740/Desktop/newcore/include/linux/fs.h **** };
 251:/mnt/c/Users/31740/Desktop/newcore/include/linux/fs.h **** 
 252:/mnt/c/Users/31740/Desktop/newcore/include/linux/fs.h **** struct address_space_operations {
 253:/mnt/c/Users/31740/Desktop/newcore/include/linux/fs.h **** 	int (*writepage)(struct page *page, struct writeback_control *wbc);
 254:/mnt/c/Users/31740/Desktop/newcore/include/linux/fs.h **** 	int (*read_folio)(struct file *, struct folio *);
 255:/mnt/c/Users/31740/Desktop/newcore/include/linux/fs.h **** 
 256:/mnt/c/Users/31740/Desktop/newcore/include/linux/fs.h **** 	/* Write back some dirty pages from this mapping. */
 257:/mnt/c/Users/31740/Desktop/newcore/include/linux/fs.h **** 	int (*writepages)(struct address_space *, struct writeback_control *);
 258:/mnt/c/Users/31740/Desktop/newcore/include/linux/fs.h **** 
 259:/mnt/c/Users/31740/Desktop/newcore/include/linux/fs.h **** 	/* Mark a folio dirty.  Return true if this dirtied it */
 260:/mnt/c/Users/31740/Desktop/newcore/include/linux/fs.h **** 	bool (*dirty_folio)(struct address_space *, struct folio *);
 261:/mnt/c/Users/31740/Desktop/newcore/include/linux/fs.h **** 
 262:/mnt/c/Users/31740/Desktop/newcore/include/linux/fs.h **** 	void (*readahead)(struct readahead_control *);
 263:/mnt/c/Users/31740/Desktop/newcore/include/linux/fs.h **** 
 264:/mnt/c/Users/31740/Desktop/newcore/include/linux/fs.h **** 	int (*write_begin)(struct file *, struct address_space *mapping,
 265:/mnt/c/Users/31740/Desktop/newcore/include/linux/fs.h **** 				loff_t pos, unsigned len,
 266:/mnt/c/Users/31740/Desktop/newcore/include/linux/fs.h **** 				struct folio **foliop, void **fsdata);
 267:/mnt/c/Users/31740/Desktop/newcore/include/linux/fs.h **** 	int (*write_end)(struct file *, struct address_space *mapping,
 268:/mnt/c/Users/31740/Desktop/newcore/include/linux/fs.h **** 				loff_t pos, unsigned len, unsigned copied,
 269:/mnt/c/Users/31740/Desktop/newcore/include/linux/fs.h **** 				struct folio *folio, void *fsdata);
 270:/mnt/c/Users/31740/Desktop/newcore/include/linux/fs.h **** 
 271:/mnt/c/Users/31740/Desktop/newcore/include/linux/fs.h **** 	/* Unfortunately this kludge is needed for FIBMAP. Don't use it */
 272:/mnt/c/Users/31740/Desktop/newcore/include/linux/fs.h **** 	sector_t (*bmap)(struct address_space *, sector_t);
 273:/mnt/c/Users/31740/Desktop/newcore/include/linux/fs.h **** 	void (*invalidate_folio) (struct folio *, size_t offset, size_t len);
 274:/mnt/c/Users/31740/Desktop/newcore/include/linux/fs.h **** 	bool (*release_folio)(struct folio *, gfp_t);
 275:/mnt/c/Users/31740/Desktop/newcore/include/linux/fs.h **** 	void (*free_folio)(struct folio *folio);
ARM GAS  /tmp/ccyCLDig.s 			page 44


 276:/mnt/c/Users/31740/Desktop/newcore/include/linux/fs.h **** 	ssize_t (*direct_IO)(struct kiocb *, struct iov_iter *iter);
 277:/mnt/c/Users/31740/Desktop/newcore/include/linux/fs.h **** 	/*
 278:/mnt/c/Users/31740/Desktop/newcore/include/linux/fs.h **** 	 * migrate the contents of a folio to the specified target. If
 279:/mnt/c/Users/31740/Desktop/newcore/include/linux/fs.h **** 	 * migrate_mode is MIGRATE_ASYNC, it must not block.
 280:/mnt/c/Users/31740/Desktop/newcore/include/linux/fs.h **** 	 */
 281:/mnt/c/Users/31740/Desktop/newcore/include/linux/fs.h **** 	int (*migrate_folio)(struct address_space *, struct folio *dst,
 282:/mnt/c/Users/31740/Desktop/newcore/include/linux/fs.h **** 			struct folio *src, enum migrate_mode);
 283:/mnt/c/Users/31740/Desktop/newcore/include/linux/fs.h **** 	int (*launder_folio)(struct folio *);
 284:/mnt/c/Users/31740/Desktop/newcore/include/linux/fs.h **** 	bool (*is_partially_uptodate) (struct folio *, size_t from,
 285:/mnt/c/Users/31740/Desktop/newcore/include/linux/fs.h **** 			size_t count);
 286:/mnt/c/Users/31740/Desktop/newcore/include/linux/fs.h **** 	void (*is_dirty_writeback) (struct folio *, bool *dirty, bool *wb);
 287:/mnt/c/Users/31740/Desktop/newcore/include/linux/fs.h **** 	int (*error_remove_folio)(struct address_space *, struct folio *);
 288:/mnt/c/Users/31740/Desktop/newcore/include/linux/fs.h **** 
 289:/mnt/c/Users/31740/Desktop/newcore/include/linux/fs.h **** 	/* swapfile support */
 290:/mnt/c/Users/31740/Desktop/newcore/include/linux/fs.h **** 	// int (*swap_activate)(struct swap_info_struct *sis, struct file *file,
 291:/mnt/c/Users/31740/Desktop/newcore/include/linux/fs.h **** 	// 			sector_t *span);
 292:/mnt/c/Users/31740/Desktop/newcore/include/linux/fs.h **** 	// void (*swap_deactivate)(struct file *file);
 293:/mnt/c/Users/31740/Desktop/newcore/include/linux/fs.h **** 	// int (*swap_rw)(struct kiocb *iocb, struct iov_iter *iter);
 294:/mnt/c/Users/31740/Desktop/newcore/include/linux/fs.h **** };
 295:/mnt/c/Users/31740/Desktop/newcore/include/linux/fs.h **** 
 296:/mnt/c/Users/31740/Desktop/newcore/include/linux/fs.h ****  struct address_space {
 297:/mnt/c/Users/31740/Desktop/newcore/include/linux/fs.h **** 	struct inode		*host;
 298:/mnt/c/Users/31740/Desktop/newcore/include/linux/fs.h **** 	struct xarray		i_pages;
 299:/mnt/c/Users/31740/Desktop/newcore/include/linux/fs.h **** 	gfp_t			gfp_mask;
 300:/mnt/c/Users/31740/Desktop/newcore/include/linux/fs.h **** 	atomic_t		i_mmap_writable;
 301:/mnt/c/Users/31740/Desktop/newcore/include/linux/fs.h **** #ifdef CONFIG_READ_ONLY_THP_FOR_FS
 302:/mnt/c/Users/31740/Desktop/newcore/include/linux/fs.h **** 	/* number of thp, only for non-shmem files */
 303:/mnt/c/Users/31740/Desktop/newcore/include/linux/fs.h **** 	atomic_t		nr_thps;
 304:/mnt/c/Users/31740/Desktop/newcore/include/linux/fs.h **** #endif
 305:/mnt/c/Users/31740/Desktop/newcore/include/linux/fs.h **** 	struct rb_root_cached	i_mmap;
 306:/mnt/c/Users/31740/Desktop/newcore/include/linux/fs.h **** 	unsigned long		nrpages;
 307:/mnt/c/Users/31740/Desktop/newcore/include/linux/fs.h **** 	pgoff_t			writeback_index;
 308:/mnt/c/Users/31740/Desktop/newcore/include/linux/fs.h **** 	const struct address_space_operations *a_ops;
 309:/mnt/c/Users/31740/Desktop/newcore/include/linux/fs.h **** 	unsigned long		flags;
 310:/mnt/c/Users/31740/Desktop/newcore/include/linux/fs.h **** 	errseq_t		wb_err;
 311:/mnt/c/Users/31740/Desktop/newcore/include/linux/fs.h **** 	spinlock_t		i_private_lock;
 312:/mnt/c/Users/31740/Desktop/newcore/include/linux/fs.h **** 	struct list_head	i_private_list;
 313:/mnt/c/Users/31740/Desktop/newcore/include/linux/fs.h **** 	void *			i_private_data;
 314:/mnt/c/Users/31740/Desktop/newcore/include/linux/fs.h **** } __attribute__((aligned(sizeof(long)))) __randomize_layout;
 315:/mnt/c/Users/31740/Desktop/newcore/include/linux/fs.h **** 
 316:/mnt/c/Users/31740/Desktop/newcore/include/linux/fs.h **** /********************************************************
 317:/mnt/c/Users/31740/Desktop/newcore/include/linux/fs.h ****  * 														*
 318:/mnt/c/Users/31740/Desktop/newcore/include/linux/fs.h ****  * 			   		  file struct						*
 319:/mnt/c/Users/31740/Desktop/newcore/include/linux/fs.h ****  *														* 
 320:/mnt/c/Users/31740/Desktop/newcore/include/linux/fs.h **** *********************************************************/
 321:/mnt/c/Users/31740/Desktop/newcore/include/linux/fs.h **** 
 322:/mnt/c/Users/31740/Desktop/newcore/include/linux/fs.h **** struct io_uring {
 323:/mnt/c/Users/31740/Desktop/newcore/include/linux/fs.h **** 	uint8_t 	magic;
 324:/mnt/c/Users/31740/Desktop/newcore/include/linux/fs.h **** };
 325:/mnt/c/Users/31740/Desktop/newcore/include/linux/fs.h **** struct io_uring_cmd {
 326:/mnt/c/Users/31740/Desktop/newcore/include/linux/fs.h **** 	uint8_t 	magic;
 327:/mnt/c/Users/31740/Desktop/newcore/include/linux/fs.h **** };
 328:/mnt/c/Users/31740/Desktop/newcore/include/linux/fs.h **** struct fs_context {
 329:/mnt/c/Users/31740/Desktop/newcore/include/linux/fs.h **** 	uint8_t 	magic;
 330:/mnt/c/Users/31740/Desktop/newcore/include/linux/fs.h **** };
 331:/mnt/c/Users/31740/Desktop/newcore/include/linux/fs.h **** struct file_lease{
 332:/mnt/c/Users/31740/Desktop/newcore/include/linux/fs.h **** 	uint8_t 	magic;
ARM GAS  /tmp/ccyCLDig.s 			page 45


 333:/mnt/c/Users/31740/Desktop/newcore/include/linux/fs.h **** };
 334:/mnt/c/Users/31740/Desktop/newcore/include/linux/fs.h **** struct file_lock {
 335:/mnt/c/Users/31740/Desktop/newcore/include/linux/fs.h **** 	uint8_t 	magic;
 336:/mnt/c/Users/31740/Desktop/newcore/include/linux/fs.h **** };
 337:/mnt/c/Users/31740/Desktop/newcore/include/linux/fs.h **** struct vm_area_struct{
 338:/mnt/c/Users/31740/Desktop/newcore/include/linux/fs.h **** 	uint8_t 	magic;
 339:/mnt/c/Users/31740/Desktop/newcore/include/linux/fs.h **** };
 340:/mnt/c/Users/31740/Desktop/newcore/include/linux/fs.h **** struct pipe_inode_info{
 341:/mnt/c/Users/31740/Desktop/newcore/include/linux/fs.h **** 	uint8_t 	magic;
 342:/mnt/c/Users/31740/Desktop/newcore/include/linux/fs.h **** };
 343:/mnt/c/Users/31740/Desktop/newcore/include/linux/fs.h **** struct readahead_control{
 344:/mnt/c/Users/31740/Desktop/newcore/include/linux/fs.h **** 	uint8_t 	magic;
 345:/mnt/c/Users/31740/Desktop/newcore/include/linux/fs.h **** };
 346:/mnt/c/Users/31740/Desktop/newcore/include/linux/fs.h **** 
 347:/mnt/c/Users/31740/Desktop/newcore/include/linux/fs.h **** struct fileattr {
 348:/mnt/c/Users/31740/Desktop/newcore/include/linux/fs.h **** 	uint8_t 	magic;
 349:/mnt/c/Users/31740/Desktop/newcore/include/linux/fs.h **** };
 350:/mnt/c/Users/31740/Desktop/newcore/include/linux/fs.h **** struct fiemap_extent_info {
 351:/mnt/c/Users/31740/Desktop/newcore/include/linux/fs.h **** 	uint8_t 	magic;
 352:/mnt/c/Users/31740/Desktop/newcore/include/linux/fs.h **** };
 353:/mnt/c/Users/31740/Desktop/newcore/include/linux/fs.h **** struct delayed_call {
 354:/mnt/c/Users/31740/Desktop/newcore/include/linux/fs.h **** 	uint8_t 	magic;
 355:/mnt/c/Users/31740/Desktop/newcore/include/linux/fs.h **** };
 356:/mnt/c/Users/31740/Desktop/newcore/include/linux/fs.h **** 
 357:/mnt/c/Users/31740/Desktop/newcore/include/linux/fs.h **** 
 358:/mnt/c/Users/31740/Desktop/newcore/include/linux/fs.h **** 
 359:/mnt/c/Users/31740/Desktop/newcore/include/linux/fs.h **** 
 360:/mnt/c/Users/31740/Desktop/newcore/include/linux/fs.h **** 
 361:/mnt/c/Users/31740/Desktop/newcore/include/linux/fs.h **** 
 362:/mnt/c/Users/31740/Desktop/newcore/include/linux/fs.h **** 
 363:/mnt/c/Users/31740/Desktop/newcore/include/linux/fs.h **** 
 364:/mnt/c/Users/31740/Desktop/newcore/include/linux/fs.h **** 
 365:/mnt/c/Users/31740/Desktop/newcore/include/linux/fs.h **** 
 366:/mnt/c/Users/31740/Desktop/newcore/include/linux/fs.h **** struct file {
 367:/mnt/c/Users/31740/Desktop/newcore/include/linux/fs.h **** 	struct mutex					f_ref;
 368:/mnt/c/Users/31740/Desktop/newcore/include/linux/fs.h **** 	struct mutex					f_lock;
 369:/mnt/c/Users/31740/Desktop/newcore/include/linux/fs.h **** 	fmode_t							f_mode;
 370:/mnt/c/Users/31740/Desktop/newcore/include/linux/fs.h **** 	const struct file_operations	*f_op;                            
 371:/mnt/c/Users/31740/Desktop/newcore/include/linux/fs.h **** 	//	struct address_space			*f_mapping;
 372:/mnt/c/Users/31740/Desktop/newcore/include/linux/fs.h **** 	void							*private_data;
 373:/mnt/c/Users/31740/Desktop/newcore/include/linux/fs.h **** 	struct inode					*f_inode;
 374:/mnt/c/Users/31740/Desktop/newcore/include/linux/fs.h **** 	unsigned int					f_flags;
 375:/mnt/c/Users/31740/Desktop/newcore/include/linux/fs.h **** 	unsigned int					f_iocb_flags;
 376:/mnt/c/Users/31740/Desktop/newcore/include/linux/fs.h **** 	char *						    f_path;
 377:/mnt/c/Users/31740/Desktop/newcore/include/linux/fs.h **** 	union {
 378:/mnt/c/Users/31740/Desktop/newcore/include/linux/fs.h **** 		struct mutex				f_pos_lock;
 379:/mnt/c/Users/31740/Desktop/newcore/include/linux/fs.h **** 		u64							f_pipe;
 380:/mnt/c/Users/31740/Desktop/newcore/include/linux/fs.h **** 	};
 381:/mnt/c/Users/31740/Desktop/newcore/include/linux/fs.h **** 	loff_t							f_pos;   //
 382:/mnt/c/Users/31740/Desktop/newcore/include/linux/fs.h **** 	void *							f_private;
 383:/mnt/c/Users/31740/Desktop/newcore/include/linux/fs.h **** 	spinlock_t                      f_slock;
 384:/mnt/c/Users/31740/Desktop/newcore/include/linux/fs.h **** }__attribute__((aligned(sizeof(long)))) __randomize_layout;	
 385:/mnt/c/Users/31740/Desktop/newcore/include/linux/fs.h **** 
 386:/mnt/c/Users/31740/Desktop/newcore/include/linux/fs.h **** 
 387:/mnt/c/Users/31740/Desktop/newcore/include/linux/fs.h **** /********************************************************
 388:/mnt/c/Users/31740/Desktop/newcore/include/linux/fs.h ****  * 														*
 389:/mnt/c/Users/31740/Desktop/newcore/include/linux/fs.h ****  * 			   		  inode struct						*
ARM GAS  /tmp/ccyCLDig.s 			page 46


 390:/mnt/c/Users/31740/Desktop/newcore/include/linux/fs.h ****  *														* 
 391:/mnt/c/Users/31740/Desktop/newcore/include/linux/fs.h **** *********************************************************/
 392:/mnt/c/Users/31740/Desktop/newcore/include/linux/fs.h **** 
 393:/mnt/c/Users/31740/Desktop/newcore/include/linux/fs.h **** #define IOP_FASTPERM	0x0001
 394:/mnt/c/Users/31740/Desktop/newcore/include/linux/fs.h **** #define IOP_LOOKUP	0x0002
 395:/mnt/c/Users/31740/Desktop/newcore/include/linux/fs.h **** #define IOP_NOFOLLOW	0x0004
 396:/mnt/c/Users/31740/Desktop/newcore/include/linux/fs.h **** #define IOP_XATTR	0x0008
 397:/mnt/c/Users/31740/Desktop/newcore/include/linux/fs.h **** #define IOP_DEFAULT_READLINK	0x0010
 398:/mnt/c/Users/31740/Desktop/newcore/include/linux/fs.h **** #define IOP_MGTIME	0x0020
 399:/mnt/c/Users/31740/Desktop/newcore/include/linux/fs.h **** 
 400:/mnt/c/Users/31740/Desktop/newcore/include/linux/fs.h **** /*
 401:/mnt/c/Users/31740/Desktop/newcore/include/linux/fs.h ****  * Keep mostly read-only and often accessed (especially for
 402:/mnt/c/Users/31740/Desktop/newcore/include/linux/fs.h ****  * the RCU path lookup and 'stat' data) fields at the beginning
 403:/mnt/c/Users/31740/Desktop/newcore/include/linux/fs.h ****  * of the 'struct inode'
 404:/mnt/c/Users/31740/Desktop/newcore/include/linux/fs.h ****  */
 405:/mnt/c/Users/31740/Desktop/newcore/include/linux/fs.h **** 
 406:/mnt/c/Users/31740/Desktop/newcore/include/linux/fs.h **** struct inode {
 407:/mnt/c/Users/31740/Desktop/newcore/include/linux/fs.h **** 	umode_t            i_mode;   
 408:/mnt/c/Users/31740/Desktop/newcore/include/linux/fs.h **** 
 409:/mnt/c/Users/31740/Desktop/newcore/include/linux/fs.h **** 	unsigned short     		i_opflags;     /* inode IOP */
 410:/mnt/c/Users/31740/Desktop/newcore/include/linux/fs.h **** 	kuid_t             i_uid;         /* ID */
 411:/mnt/c/Users/31740/Desktop/newcore/include/linux/fs.h **** 	kgid_t             i_gid;         /* ID */
 412:/mnt/c/Users/31740/Desktop/newcore/include/linux/fs.h **** 
 413:/mnt/c/Users/31740/Desktop/newcore/include/linux/fs.h **** 	unsigned int       i_flags;    
 414:/mnt/c/Users/31740/Desktop/newcore/include/linux/fs.h **** 	const struct inode_operations *i_op;     
 415:/mnt/c/Users/31740/Desktop/newcore/include/linux/fs.h **** 	struct super_block            *i_sb;       
 416:/mnt/c/Users/31740/Desktop/newcore/include/linux/fs.h **** 	struct address_space	      *i_mapping;   
 417:/mnt/c/Users/31740/Desktop/newcore/include/linux/fs.h **** 	dev_t             i_rdev;       
 418:/mnt/c/Users/31740/Desktop/newcore/include/linux/fs.h **** 	loff_t            i_size;        
 419:/mnt/c/Users/31740/Desktop/newcore/include/linux/fs.h **** 	time64_t          i_atime_sec;   
 420:/mnt/c/Users/31740/Desktop/newcore/include/linux/fs.h **** 	time64_t          i_mtime_sec;   
 421:/mnt/c/Users/31740/Desktop/newcore/include/linux/fs.h **** 	time64_t          i_ctime_sec;    
 422:/mnt/c/Users/31740/Desktop/newcore/include/linux/fs.h **** 	u32               i_atime_nsec;   
 423:/mnt/c/Users/31740/Desktop/newcore/include/linux/fs.h **** 	u32               i_mtime_nsec;   
 424:/mnt/c/Users/31740/Desktop/newcore/include/linux/fs.h **** 	u32               i_ctime_nsec;  
 425:/mnt/c/Users/31740/Desktop/newcore/include/linux/fs.h **** 	unsigned short    i_bytes;
 426:/mnt/c/Users/31740/Desktop/newcore/include/linux/fs.h **** 	u32			i_state;
 427:/mnt/c/Users/31740/Desktop/newcore/include/linux/fs.h **** 	struct hlist_node	i_hash;
 428:/mnt/c/Users/31740/Desktop/newcore/include/linux/fs.h **** 	struct list_head	i_io_list;	/* backing dev IO list */
 429:/mnt/c/Users/31740/Desktop/newcore/include/linux/fs.h **** 	spinlock_t	        i_lock;	/* i_blocks, i_bytes, maybe i_size */
 430:/mnt/c/Users/31740/Desktop/newcore/include/linux/fs.h **** 	struct list_head	i_sb_list;
 431:/mnt/c/Users/31740/Desktop/newcore/include/linux/fs.h **** 	struct list_head	i_dentry;
 432:/mnt/c/Users/31740/Desktop/newcore/include/linux/fs.h **** 	atomic_t		i_count;
 433:/mnt/c/Users/31740/Desktop/newcore/include/linux/fs.h **** 	const struct file_operations	*i_fop;	/* former ->i_op->default_file_ops */
 434:/mnt/c/Users/31740/Desktop/newcore/include/linux/fs.h **** 	void (*free_inode)(struct inode *);
 435:/mnt/c/Users/31740/Desktop/newcore/include/linux/fs.h **** 	void			*i_private; /* fs or device private pointer */
 436:/mnt/c/Users/31740/Desktop/newcore/include/linux/fs.h **** }__attribute__((aligned(sizeof(long)))) __randomize_layout;
 437:/mnt/c/Users/31740/Desktop/newcore/include/linux/fs.h **** 
 438:/mnt/c/Users/31740/Desktop/newcore/include/linux/fs.h **** /********************************************************
 439:/mnt/c/Users/31740/Desktop/newcore/include/linux/fs.h ****  * 														*
 440:/mnt/c/Users/31740/Desktop/newcore/include/linux/fs.h ****  * 			   inode inode_operations					*
 441:/mnt/c/Users/31740/Desktop/newcore/include/linux/fs.h ****  *														* 
 442:/mnt/c/Users/31740/Desktop/newcore/include/linux/fs.h **** *********************************************************/
 443:/mnt/c/Users/31740/Desktop/newcore/include/linux/fs.h **** 
 444:/mnt/c/Users/31740/Desktop/newcore/include/linux/fs.h **** struct mnt_idmap {void * no_data;};
 445:/mnt/c/Users/31740/Desktop/newcore/include/linux/fs.h **** 
 446:/mnt/c/Users/31740/Desktop/newcore/include/linux/fs.h **** struct inode_operations {
ARM GAS  /tmp/ccyCLDig.s 			page 47


 447:/mnt/c/Users/31740/Desktop/newcore/include/linux/fs.h **** 	struct dentry  	 *(*lookup) 	   (struct inode *    ,struct dentry *, unsigned int);
 448:/mnt/c/Users/31740/Desktop/newcore/include/linux/fs.h **** 	const char 	     *(*get_link) 	   (struct dentry *   , struct inode *, struct delayed_call *);
 449:/mnt/c/Users/31740/Desktop/newcore/include/linux/fs.h **** 	int 			  (*permission)    (struct mnt_idmap *, struct inode *, int);
 450:/mnt/c/Users/31740/Desktop/newcore/include/linux/fs.h **** 	struct posix_acl *(*get_inode_acl) (struct inode *	  , int, bool);
 451:/mnt/c/Users/31740/Desktop/newcore/include/linux/fs.h **** 	int 			  (*readlink) 	   (struct dentry *   , char __user * ,int);
 452:/mnt/c/Users/31740/Desktop/newcore/include/linux/fs.h **** 	int 			  (*create) 	   (struct mnt_idmap *, struct inode *,struct dentry *,umode_t, bool);
 453:/mnt/c/Users/31740/Desktop/newcore/include/linux/fs.h **** 	int 			  (*link) 		   (struct dentry *   ,struct inode * ,struct dentry *);
 454:/mnt/c/Users/31740/Desktop/newcore/include/linux/fs.h **** 	int 			  (*unlink) 	   (struct inode *	  ,struct dentry * );
 455:/mnt/c/Users/31740/Desktop/newcore/include/linux/fs.h **** 	int 			  (*symlink) 	   (struct mnt_idmap *, struct inode *,struct dentry *,const char *);
 456:/mnt/c/Users/31740/Desktop/newcore/include/linux/fs.h **** 	int 			  (*mkdir) 		   (struct mnt_idmap *, struct inode *,struct dentry *,umode_t);
 457:/mnt/c/Users/31740/Desktop/newcore/include/linux/fs.h **** 	int 			  (*rmdir)		   (struct inode *	  ,struct dentry * );
 458:/mnt/c/Users/31740/Desktop/newcore/include/linux/fs.h **** 	int 			  (*mknod) 		   (struct mnt_idmap *, struct inode *,struct dentry *,umode_t,dev_t);
 459:/mnt/c/Users/31740/Desktop/newcore/include/linux/fs.h **** 	int 			  (*rename) 	   (struct mnt_idmap *, struct inode *, struct dentry *,struct inode *, struct
 460:/mnt/c/Users/31740/Desktop/newcore/include/linux/fs.h **** 	int 			  (*setattr)	   (struct mnt_idmap *, struct dentry*, struct iattr *);
 461:/mnt/c/Users/31740/Desktop/newcore/include/linux/fs.h **** 	int 			  (*getattr) 	   (struct mnt_idmap *, const struct path *,struct kstat *, u32, unsigned int
 462:/mnt/c/Users/31740/Desktop/newcore/include/linux/fs.h **** 	ssize_t 		  (*listxattr) 	   (struct dentry *	  , char *		  , size_t);
 463:/mnt/c/Users/31740/Desktop/newcore/include/linux/fs.h **** 	int 			  (*fiemap)		   (struct inode *	  , struct fiemap_extent_info *, u64 start,u64 len);
 464:/mnt/c/Users/31740/Desktop/newcore/include/linux/fs.h **** 	int 			  (*update_time)   (struct inode *    , int);
 465:/mnt/c/Users/31740/Desktop/newcore/include/linux/fs.h **** 	int 			  (*atomic_open)   (struct inode *    , struct dentry*,struct file *, unsigned open_flag,um
 466:/mnt/c/Users/31740/Desktop/newcore/include/linux/fs.h **** 	int 			  (*tmpfile)	   (struct mnt_idmap *, struct inode *,struct file *, umode_t);
 467:/mnt/c/Users/31740/Desktop/newcore/include/linux/fs.h **** 	struct posix_acl *(*get_acl)	   (struct mnt_idmap *, struct dentry*,int);
 468:/mnt/c/Users/31740/Desktop/newcore/include/linux/fs.h **** 	int 			  (*set_acl)	   (struct mnt_idmap *, struct dentry*,struct posix_acl *, int);
 469:/mnt/c/Users/31740/Desktop/newcore/include/linux/fs.h **** 	int 			  (*fileattr_set)  (struct mnt_idmap *idmap,struct dentry *dentry, struct fileattr *fa);
 470:/mnt/c/Users/31740/Desktop/newcore/include/linux/fs.h **** 	int 			  (*fileattr_get)  (struct dentry *dentry  , struct fileattr *fa);
 471:/mnt/c/Users/31740/Desktop/newcore/include/linux/fs.h **** 	struct offset_ctx*(*get_offset_ctx)(struct inode *inode);
 472:/mnt/c/Users/31740/Desktop/newcore/include/linux/fs.h **** };
 473:/mnt/c/Users/31740/Desktop/newcore/include/linux/fs.h **** 
 474:/mnt/c/Users/31740/Desktop/newcore/include/linux/fs.h **** /********************************************************
 475:/mnt/c/Users/31740/Desktop/newcore/include/linux/fs.h ****  * 														*
 476:/mnt/c/Users/31740/Desktop/newcore/include/linux/fs.h ****  * 			       file_operations						*
 477:/mnt/c/Users/31740/Desktop/newcore/include/linux/fs.h ****  *														* 
 478:/mnt/c/Users/31740/Desktop/newcore/include/linux/fs.h **** *********************************************************/
 479:/mnt/c/Users/31740/Desktop/newcore/include/linux/fs.h **** 
 480:/mnt/c/Users/31740/Desktop/newcore/include/linux/fs.h **** struct kiocb {
 481:/mnt/c/Users/31740/Desktop/newcore/include/linux/fs.h **** 	struct file		*ki_filp;
 482:/mnt/c/Users/31740/Desktop/newcore/include/linux/fs.h **** 	loff_t			ki_pos;
 483:/mnt/c/Users/31740/Desktop/newcore/include/linux/fs.h **** 	void (*ki_complete)(struct kiocb *iocb, long ret);
 484:/mnt/c/Users/31740/Desktop/newcore/include/linux/fs.h **** 	void			*private;
 485:/mnt/c/Users/31740/Desktop/newcore/include/linux/fs.h **** 	int			ki_flags;
 486:/mnt/c/Users/31740/Desktop/newcore/include/linux/fs.h **** 	u16			ki_ioprio; /* See linux/ioprio.h */
 487:/mnt/c/Users/31740/Desktop/newcore/include/linux/fs.h **** 	union {
 488:/mnt/c/Users/31740/Desktop/newcore/include/linux/fs.h **** 	//	struct wait_page_queue	*ki_waitq;
 489:/mnt/c/Users/31740/Desktop/newcore/include/linux/fs.h **** 		ssize_t (*dio_complete)(void *data);
 490:/mnt/c/Users/31740/Desktop/newcore/include/linux/fs.h **** 	};
 491:/mnt/c/Users/31740/Desktop/newcore/include/linux/fs.h **** };
 492:/mnt/c/Users/31740/Desktop/newcore/include/linux/fs.h **** 
 493:/mnt/c/Users/31740/Desktop/newcore/include/linux/fs.h **** struct dir_context;
 494:/mnt/c/Users/31740/Desktop/newcore/include/linux/fs.h **** typedef bool (*filldir_t)(struct dir_context *, const char *, int, loff_t, u64,
 495:/mnt/c/Users/31740/Desktop/newcore/include/linux/fs.h **** 			 unsigned);
 496:/mnt/c/Users/31740/Desktop/newcore/include/linux/fs.h **** 
 497:/mnt/c/Users/31740/Desktop/newcore/include/linux/fs.h **** struct dir_context {
 498:/mnt/c/Users/31740/Desktop/newcore/include/linux/fs.h **** 	filldir_t actor;
 499:/mnt/c/Users/31740/Desktop/newcore/include/linux/fs.h **** 	loff_t pos;
 500:/mnt/c/Users/31740/Desktop/newcore/include/linux/fs.h **** };
 501:/mnt/c/Users/31740/Desktop/newcore/include/linux/fs.h **** 
 502:/mnt/c/Users/31740/Desktop/newcore/include/linux/fs.h **** 
 503:/mnt/c/Users/31740/Desktop/newcore/include/linux/fs.h **** static inline bool dir_emit(struct dir_context *ctx,
ARM GAS  /tmp/ccyCLDig.s 			page 48


 504:/mnt/c/Users/31740/Desktop/newcore/include/linux/fs.h **** 			    const char *name, int namelen,
 505:/mnt/c/Users/31740/Desktop/newcore/include/linux/fs.h **** 			    u64 ino, unsigned type)
 506:/mnt/c/Users/31740/Desktop/newcore/include/linux/fs.h **** {
 507:/mnt/c/Users/31740/Desktop/newcore/include/linux/fs.h **** 	return ctx->actor(ctx, name, namelen, ctx->pos, ino, type);
 508:/mnt/c/Users/31740/Desktop/newcore/include/linux/fs.h **** }
 509:/mnt/c/Users/31740/Desktop/newcore/include/linux/fs.h **** 
 510:/mnt/c/Users/31740/Desktop/newcore/include/linux/fs.h **** struct poll_table_struct;
 511:/mnt/c/Users/31740/Desktop/newcore/include/linux/fs.h **** typedef void (*poll_queue_proc)(struct file *, wait_queue_head_t *, struct poll_table_struct *);
 512:/mnt/c/Users/31740/Desktop/newcore/include/linux/fs.h **** typedef struct poll_table_struct {
 513:/mnt/c/Users/31740/Desktop/newcore/include/linux/fs.h **** 	poll_queue_proc _qproc;
 514:/mnt/c/Users/31740/Desktop/newcore/include/linux/fs.h **** 	__poll_t _key;
 515:/mnt/c/Users/31740/Desktop/newcore/include/linux/fs.h **** } poll_table;
 516:/mnt/c/Users/31740/Desktop/newcore/include/linux/fs.h **** 
 517:/mnt/c/Users/31740/Desktop/newcore/include/linux/fs.h **** 
 518:/mnt/c/Users/31740/Desktop/newcore/include/linux/fs.h **** 
 519:/mnt/c/Users/31740/Desktop/newcore/include/linux/fs.h **** typedef unsigned int __bitwise fop_flags_t;
 520:/mnt/c/Users/31740/Desktop/newcore/include/linux/fs.h **** typedef void *fl_owner_t;
 521:/mnt/c/Users/31740/Desktop/newcore/include/linux/fs.h **** 
 522:/mnt/c/Users/31740/Desktop/newcore/include/linux/fs.h **** struct file_operations {
 523:/mnt/c/Users/31740/Desktop/newcore/include/linux/fs.h **** 	void *owner;
 524:/mnt/c/Users/31740/Desktop/newcore/include/linux/fs.h **** 	fop_flags_t fop_flags;
 525:/mnt/c/Users/31740/Desktop/newcore/include/linux/fs.h **** 	loff_t (*llseek) (struct file *, loff_t, int);
 526:/mnt/c/Users/31740/Desktop/newcore/include/linux/fs.h **** 	ssize_t (*read) (struct file *, char __user *, size_t, loff_t *);
 527:/mnt/c/Users/31740/Desktop/newcore/include/linux/fs.h **** 	ssize_t (*write) (struct file *, const char __user *, size_t, loff_t *);
 528:/mnt/c/Users/31740/Desktop/newcore/include/linux/fs.h **** ssize_t (*read_iter) (struct kiocb *, struct iov_iter *);
 529:/mnt/c/Users/31740/Desktop/newcore/include/linux/fs.h **** ssize_t (*write_iter) (struct kiocb *, struct iov_iter *);
 530:/mnt/c/Users/31740/Desktop/newcore/include/linux/fs.h **** 	int (*iopoll)(struct kiocb *kiocb, struct io_comp_batch *,unsigned int flags);
 531:/mnt/c/Users/31740/Desktop/newcore/include/linux/fs.h **** 	int (*iterate_shared) (struct file *, struct dir_context *);
 532:/mnt/c/Users/31740/Desktop/newcore/include/linux/fs.h **** 	__poll_t (*poll) (struct file *, struct poll_table_struct *);
 533:/mnt/c/Users/31740/Desktop/newcore/include/linux/fs.h **** 	long (*unlocked_ioctl) (struct file *, unsigned int, unsigned long);
 534:/mnt/c/Users/31740/Desktop/newcore/include/linux/fs.h **** 	long (*compat_ioctl) (struct file *, unsigned int, unsigned long);
 535:/mnt/c/Users/31740/Desktop/newcore/include/linux/fs.h **** int (*mmap) (struct file *, struct vm_area_struct *);
 536:/mnt/c/Users/31740/Desktop/newcore/include/linux/fs.h **** 	int (*open) (struct inode *, struct file *);
 537:/mnt/c/Users/31740/Desktop/newcore/include/linux/fs.h **** 	int (*flush) (struct file *, fl_owner_t id);
 538:/mnt/c/Users/31740/Desktop/newcore/include/linux/fs.h **** 	int (*release) (struct inode *, struct file *);
 539:/mnt/c/Users/31740/Desktop/newcore/include/linux/fs.h **** 	int (*fsync) (struct file *, loff_t, loff_t, int datasync);
 540:/mnt/c/Users/31740/Desktop/newcore/include/linux/fs.h **** 	int (*fasync) (int, struct file *, int);
 541:/mnt/c/Users/31740/Desktop/newcore/include/linux/fs.h **** 	int (*lock) (struct file *, int, struct file_lock *);
 542:/mnt/c/Users/31740/Desktop/newcore/include/linux/fs.h **** 	unsigned long (*get_unmapped_area)(struct file *, unsigned long, unsigned long, unsigned long, uns
 543:/mnt/c/Users/31740/Desktop/newcore/include/linux/fs.h **** 	int (*check_flags)(int);
 544:/mnt/c/Users/31740/Desktop/newcore/include/linux/fs.h **** 	int (*flock) (struct file *, int, struct file_lock *);
 545:/mnt/c/Users/31740/Desktop/newcore/include/linux/fs.h **** ssize_t (*splice_write)(struct pipe_inode_info *, struct file *, loff_t *, size_t, unsigned int);
 546:/mnt/c/Users/31740/Desktop/newcore/include/linux/fs.h **** ssize_t (*splice_read)(struct file *, loff_t *, struct pipe_inode_info *, size_t, unsigned int);
 547:/mnt/c/Users/31740/Desktop/newcore/include/linux/fs.h **** 	void (*splice_eof)(struct file *file);
 548:/mnt/c/Users/31740/Desktop/newcore/include/linux/fs.h **** 	int (*setlease)(struct file *, int, struct file_lease **, void **);
 549:/mnt/c/Users/31740/Desktop/newcore/include/linux/fs.h **** 	long (*fallocate)(struct file *file, int mode, loff_t offset,loff_t len);
 550:/mnt/c/Users/31740/Desktop/newcore/include/linux/fs.h **** 	void (*show_fdinfo)(struct seq_file *m, struct file *f);
 551:/mnt/c/Users/31740/Desktop/newcore/include/linux/fs.h **** #ifndef CONFIG_MMU
 552:/mnt/c/Users/31740/Desktop/newcore/include/linux/fs.h **** 	unsigned (*mmap_capabilities)(struct file *);
 553:/mnt/c/Users/31740/Desktop/newcore/include/linux/fs.h **** #endif
 554:/mnt/c/Users/31740/Desktop/newcore/include/linux/fs.h **** 	ssize_t (*copy_file_range)(struct file *, loff_t, struct file *,loff_t, size_t, unsigned int);
 555:/mnt/c/Users/31740/Desktop/newcore/include/linux/fs.h **** 	loff_t (*remap_file_range)(struct file *file_in, loff_t pos_in,struct file *file_out, loff_t pos_o
 556:/mnt/c/Users/31740/Desktop/newcore/include/linux/fs.h **** 	int (*fadvise)(struct file *, loff_t, loff_t, int);
 557:/mnt/c/Users/31740/Desktop/newcore/include/linux/fs.h **** 	int (*uring_cmd)(struct io_uring_cmd *ioucmd, unsigned int issue_flags);
 558:/mnt/c/Users/31740/Desktop/newcore/include/linux/fs.h **** 	int (*uring_cmd_iopoll)(struct io_uring_cmd *, struct io_comp_batch *,unsigned int poll_flags);
 559:/mnt/c/Users/31740/Desktop/newcore/include/linux/fs.h **** };
 560:/mnt/c/Users/31740/Desktop/newcore/include/linux/fs.h **** 
ARM GAS  /tmp/ccyCLDig.s 			page 49


 561:/mnt/c/Users/31740/Desktop/newcore/include/linux/fs.h **** 
 562:/mnt/c/Users/31740/Desktop/newcore/include/linux/fs.h **** /********************************************************
 563:/mnt/c/Users/31740/Desktop/newcore/include/linux/fs.h ****  * 														*
 564:/mnt/c/Users/31740/Desktop/newcore/include/linux/fs.h ****  * 			       super_block							*
 565:/mnt/c/Users/31740/Desktop/newcore/include/linux/fs.h ****  *														* 
 566:/mnt/c/Users/31740/Desktop/newcore/include/linux/fs.h **** *********************************************************/
 567:/mnt/c/Users/31740/Desktop/newcore/include/linux/fs.h **** 
 568:/mnt/c/Users/31740/Desktop/newcore/include/linux/fs.h **** struct rcu_sync {
 569:/mnt/c/Users/31740/Desktop/newcore/include/linux/fs.h **** 	int			gp_state;
 570:/mnt/c/Users/31740/Desktop/newcore/include/linux/fs.h **** 	int			gp_count;
 571:/mnt/c/Users/31740/Desktop/newcore/include/linux/fs.h **** 	wait_queue_head_t	gp_wait;
 572:/mnt/c/Users/31740/Desktop/newcore/include/linux/fs.h **** 
 573:/mnt/c/Users/31740/Desktop/newcore/include/linux/fs.h **** 	struct rcu_head		cb_head;
 574:/mnt/c/Users/31740/Desktop/newcore/include/linux/fs.h **** };
 575:/mnt/c/Users/31740/Desktop/newcore/include/linux/fs.h **** 
 576:/mnt/c/Users/31740/Desktop/newcore/include/linux/fs.h **** struct rcuwait {
 577:/mnt/c/Users/31740/Desktop/newcore/include/linux/fs.h **** 	//struct task_struct __rcu *task;
 578:/mnt/c/Users/31740/Desktop/newcore/include/linux/fs.h **** };
 579:/mnt/c/Users/31740/Desktop/newcore/include/linux/fs.h **** 
 580:/mnt/c/Users/31740/Desktop/newcore/include/linux/fs.h **** struct percpu_rw_semaphore {
 581:/mnt/c/Users/31740/Desktop/newcore/include/linux/fs.h **** 	struct rcu_sync		rss;
 582:/mnt/c/Users/31740/Desktop/newcore/include/linux/fs.h **** 	unsigned int __percpu	*read_count;
 583:/mnt/c/Users/31740/Desktop/newcore/include/linux/fs.h **** 	struct rcuwait		writer;
 584:/mnt/c/Users/31740/Desktop/newcore/include/linux/fs.h **** 	wait_queue_head_t	waiters;
 585:/mnt/c/Users/31740/Desktop/newcore/include/linux/fs.h **** 	atomic_t		block;
 586:/mnt/c/Users/31740/Desktop/newcore/include/linux/fs.h **** #ifdef CONFIG_DEBUG_LOCK_ALLOC
 587:/mnt/c/Users/31740/Desktop/newcore/include/linux/fs.h **** 	struct lockdep_map	dep_map;
 588:/mnt/c/Users/31740/Desktop/newcore/include/linux/fs.h **** #endif
 589:/mnt/c/Users/31740/Desktop/newcore/include/linux/fs.h **** };
 590:/mnt/c/Users/31740/Desktop/newcore/include/linux/fs.h **** 
 591:/mnt/c/Users/31740/Desktop/newcore/include/linux/fs.h **** /*
 592:/mnt/c/Users/31740/Desktop/newcore/include/linux/fs.h ****  * sb->s_flags.  Note that these mirror the equivalent MS_* flags where
 593:/mnt/c/Users/31740/Desktop/newcore/include/linux/fs.h ****  * represented in both.
 594:/mnt/c/Users/31740/Desktop/newcore/include/linux/fs.h ****  */
 595:/mnt/c/Users/31740/Desktop/newcore/include/linux/fs.h **** #define SB_RDONLY       BIT(0)	/* Mount read-only */
 596:/mnt/c/Users/31740/Desktop/newcore/include/linux/fs.h **** #define SB_NOSUID       BIT(1)	/* Ignore suid and sgid bits */
 597:/mnt/c/Users/31740/Desktop/newcore/include/linux/fs.h **** #define SB_NODEV        BIT(2)	/* Disallow access to device special files */
 598:/mnt/c/Users/31740/Desktop/newcore/include/linux/fs.h **** #define SB_NOEXEC       BIT(3)	/* Disallow program execution */
 599:/mnt/c/Users/31740/Desktop/newcore/include/linux/fs.h **** #define SB_SYNCHRONOUS  BIT(4)	/* Writes are synced at once */
 600:/mnt/c/Users/31740/Desktop/newcore/include/linux/fs.h **** #define SB_MANDLOCK     BIT(6)	/* Allow mandatory locks on an FS */
 601:/mnt/c/Users/31740/Desktop/newcore/include/linux/fs.h **** #define SB_DIRSYNC      BIT(7)	/* Directory modifications are synchronous */
 602:/mnt/c/Users/31740/Desktop/newcore/include/linux/fs.h **** #define SB_NOATIME      BIT(10)	/* Do not update access times. */
 603:/mnt/c/Users/31740/Desktop/newcore/include/linux/fs.h **** #define SB_NODIRATIME   BIT(11)	/* Do not update directory access times */
 604:/mnt/c/Users/31740/Desktop/newcore/include/linux/fs.h **** #define SB_SILENT       BIT(15)
 605:/mnt/c/Users/31740/Desktop/newcore/include/linux/fs.h **** #define SB_POSIXACL     BIT(16)	/* Supports POSIX ACLs */
 606:/mnt/c/Users/31740/Desktop/newcore/include/linux/fs.h **** #define SB_INLINECRYPT  BIT(17)	/* Use blk-crypto for encrypted files */
 607:/mnt/c/Users/31740/Desktop/newcore/include/linux/fs.h **** #define SB_KERNMOUNT    BIT(22)	/* this is a kern_mount call */
 608:/mnt/c/Users/31740/Desktop/newcore/include/linux/fs.h **** #define SB_I_VERSION    BIT(23)	/* Update inode I_version field */
 609:/mnt/c/Users/31740/Desktop/newcore/include/linux/fs.h **** #define SB_LAZYTIME     BIT(25)	/* Update the on-disk [acm]times lazily */
 610:/mnt/c/Users/31740/Desktop/newcore/include/linux/fs.h **** 
 611:/mnt/c/Users/31740/Desktop/newcore/include/linux/fs.h **** /* These sb flags are internal to the kernel */
 612:/mnt/c/Users/31740/Desktop/newcore/include/linux/fs.h **** #define SB_DEAD         BIT(21)
 613:/mnt/c/Users/31740/Desktop/newcore/include/linux/fs.h **** #define SB_DYING        BIT(24)
 614:/mnt/c/Users/31740/Desktop/newcore/include/linux/fs.h **** #define SB_SUBMOUNT     BIT(26)
 615:/mnt/c/Users/31740/Desktop/newcore/include/linux/fs.h **** #define SB_FORCE        BIT(27)
 616:/mnt/c/Users/31740/Desktop/newcore/include/linux/fs.h **** #define SB_NOSEC        BIT(28)
 617:/mnt/c/Users/31740/Desktop/newcore/include/linux/fs.h **** #define SB_BORN         BIT(29)
ARM GAS  /tmp/ccyCLDig.s 			page 50


 618:/mnt/c/Users/31740/Desktop/newcore/include/linux/fs.h **** #define SB_ACTIVE       BIT(30)
 619:/mnt/c/Users/31740/Desktop/newcore/include/linux/fs.h **** #define SB_NOUSER       BIT(31)
 620:/mnt/c/Users/31740/Desktop/newcore/include/linux/fs.h **** 
 621:/mnt/c/Users/31740/Desktop/newcore/include/linux/fs.h **** /* These flags relate to encoding and casefolding */
 622:/mnt/c/Users/31740/Desktop/newcore/include/linux/fs.h **** #define SB_ENC_STRICT_MODE_FL	(1 << 0)
 623:/mnt/c/Users/31740/Desktop/newcore/include/linux/fs.h **** 
 624:/mnt/c/Users/31740/Desktop/newcore/include/linux/fs.h **** #define sb_has_strict_encoding(sb) \
 625:/mnt/c/Users/31740/Desktop/newcore/include/linux/fs.h **** 	(sb->s_encoding_flags & SB_ENC_STRICT_MODE_FL)
 626:/mnt/c/Users/31740/Desktop/newcore/include/linux/fs.h **** 
 627:/mnt/c/Users/31740/Desktop/newcore/include/linux/fs.h **** /*
 628:/mnt/c/Users/31740/Desktop/newcore/include/linux/fs.h ****  *	Umount options
 629:/mnt/c/Users/31740/Desktop/newcore/include/linux/fs.h ****  */
 630:/mnt/c/Users/31740/Desktop/newcore/include/linux/fs.h **** 
 631:/mnt/c/Users/31740/Desktop/newcore/include/linux/fs.h **** #define MNT_FORCE	0x00000001	/* Attempt to forcibily umount */
 632:/mnt/c/Users/31740/Desktop/newcore/include/linux/fs.h **** #define MNT_DETACH	0x00000002	/* Just detach from the tree */
 633:/mnt/c/Users/31740/Desktop/newcore/include/linux/fs.h **** #define MNT_EXPIRE	0x00000004	/* Mark for expiry */
 634:/mnt/c/Users/31740/Desktop/newcore/include/linux/fs.h **** #define UMOUNT_NOFOLLOW	0x00000008	/* Don't follow symlink on umount */
 635:/mnt/c/Users/31740/Desktop/newcore/include/linux/fs.h **** #define UMOUNT_UNUSED	0x80000000	/* Flag guaranteed to be unused */
 636:/mnt/c/Users/31740/Desktop/newcore/include/linux/fs.h **** 
 637:/mnt/c/Users/31740/Desktop/newcore/include/linux/fs.h **** /* sb->s_iflags */
 638:/mnt/c/Users/31740/Desktop/newcore/include/linux/fs.h **** #define SB_I_CGROUPWB	0x00000001	/* cgroup-aware writeback enabled */
 639:/mnt/c/Users/31740/Desktop/newcore/include/linux/fs.h **** #define SB_I_NOEXEC	0x00000002	/* Ignore executables on this fs */
 640:/mnt/c/Users/31740/Desktop/newcore/include/linux/fs.h **** #define SB_I_NODEV	0x00000004	/* Ignore devices on this fs */
 641:/mnt/c/Users/31740/Desktop/newcore/include/linux/fs.h **** #define SB_I_STABLE_WRITES 0x00000008	/* don't modify blks until WB is done */
 642:/mnt/c/Users/31740/Desktop/newcore/include/linux/fs.h **** 
 643:/mnt/c/Users/31740/Desktop/newcore/include/linux/fs.h **** /* sb->s_iflags to limit user namespace mounts */
 644:/mnt/c/Users/31740/Desktop/newcore/include/linux/fs.h **** #define SB_I_USERNS_VISIBLE		0x00000010 /* fstype already mounted */
 645:/mnt/c/Users/31740/Desktop/newcore/include/linux/fs.h **** #define SB_I_IMA_UNVERIFIABLE_SIGNATURE	0x00000020
 646:/mnt/c/Users/31740/Desktop/newcore/include/linux/fs.h **** #define SB_I_UNTRUSTED_MOUNTER		0x00000040
 647:/mnt/c/Users/31740/Desktop/newcore/include/linux/fs.h **** #define SB_I_EVM_HMAC_UNSUPPORTED	0x00000080
 648:/mnt/c/Users/31740/Desktop/newcore/include/linux/fs.h **** 
 649:/mnt/c/Users/31740/Desktop/newcore/include/linux/fs.h **** #define SB_I_SKIP_SYNC	0x00000100	/* Skip superblock at global sync */
 650:/mnt/c/Users/31740/Desktop/newcore/include/linux/fs.h **** #define SB_I_PERSB_BDI	0x00000200	/* has a per-sb bdi */
 651:/mnt/c/Users/31740/Desktop/newcore/include/linux/fs.h **** #define SB_I_TS_EXPIRY_WARNED 0x00000400 /* warned about timestamp range expiry */
 652:/mnt/c/Users/31740/Desktop/newcore/include/linux/fs.h **** #define SB_I_RETIRED	0x00000800	/* superblock shouldn't be reused */
 653:/mnt/c/Users/31740/Desktop/newcore/include/linux/fs.h **** #define SB_I_NOUMASK	0x00001000	/* VFS does not apply umask */
 654:/mnt/c/Users/31740/Desktop/newcore/include/linux/fs.h **** #define SB_I_NOIDMAP	0x00002000	/* No idmapped mounts on this superblock */
 655:/mnt/c/Users/31740/Desktop/newcore/include/linux/fs.h **** 
 656:/mnt/c/Users/31740/Desktop/newcore/include/linux/fs.h **** 
 657:/mnt/c/Users/31740/Desktop/newcore/include/linux/fs.h **** enum {
 658:/mnt/c/Users/31740/Desktop/newcore/include/linux/fs.h **** 	SB_UNFROZEN = 0,		/* FS is unfrozen */
 659:/mnt/c/Users/31740/Desktop/newcore/include/linux/fs.h **** 	SB_FREEZE_WRITE	= 1,		/* Writes, dir ops, ioctls frozen */
 660:/mnt/c/Users/31740/Desktop/newcore/include/linux/fs.h **** 	SB_FREEZE_PAGEFAULT = 2,	/* Page faults stopped as well */
 661:/mnt/c/Users/31740/Desktop/newcore/include/linux/fs.h **** 	SB_FREEZE_FS = 3,		/* For internal FS use (e.g. to stop
 662:/mnt/c/Users/31740/Desktop/newcore/include/linux/fs.h **** 					 	* internal threads if needed) */
 663:/mnt/c/Users/31740/Desktop/newcore/include/linux/fs.h **** 	SB_FREEZE_COMPLETE = 4,		/* ->freeze_fs finished successfully */
 664:/mnt/c/Users/31740/Desktop/newcore/include/linux/fs.h **** };
 665:/mnt/c/Users/31740/Desktop/newcore/include/linux/fs.h **** 
 666:/mnt/c/Users/31740/Desktop/newcore/include/linux/fs.h **** #define SB_FREEZE_LEVELS (SB_FREEZE_COMPLETE - 1)
 667:/mnt/c/Users/31740/Desktop/newcore/include/linux/fs.h **** 
 668:/mnt/c/Users/31740/Desktop/newcore/include/linux/fs.h **** struct sb_writers {
 669:/mnt/c/Users/31740/Desktop/newcore/include/linux/fs.h **** 	unsigned short			frozen;		/* Is sb frozen? */
 670:/mnt/c/Users/31740/Desktop/newcore/include/linux/fs.h **** 	int				freeze_kcount;	/* How many kernel freeze requests? */
 671:/mnt/c/Users/31740/Desktop/newcore/include/linux/fs.h **** 	int				freeze_ucount;	/* How many userspace freeze requests? */
 672:/mnt/c/Users/31740/Desktop/newcore/include/linux/fs.h **** 	struct percpu_rw_semaphore	rw_sem[SB_FREEZE_LEVELS];
 673:/mnt/c/Users/31740/Desktop/newcore/include/linux/fs.h **** };
 674:/mnt/c/Users/31740/Desktop/newcore/include/linux/fs.h **** 
ARM GAS  /tmp/ccyCLDig.s 			page 51


 675:/mnt/c/Users/31740/Desktop/newcore/include/linux/fs.h **** #define	UUID_STRING_LEN		36
 676:/mnt/c/Users/31740/Desktop/newcore/include/linux/fs.h **** 
 677:/mnt/c/Users/31740/Desktop/newcore/include/linux/fs.h **** 
 678:/mnt/c/Users/31740/Desktop/newcore/include/linux/fs.h **** 
 679:/mnt/c/Users/31740/Desktop/newcore/include/linux/fs.h **** struct super_block 
 680:/mnt/c/Users/31740/Desktop/newcore/include/linux/fs.h **** { 
 681:/mnt/c/Users/31740/Desktop/newcore/include/linux/fs.h **** 	struct list_head				s_list;		/* Keep this first */
 682:/mnt/c/Users/31740/Desktop/newcore/include/linux/fs.h ****     dev_t							s_dev;		/* search index; _not_ kdev_t */
 683:/mnt/c/Users/31740/Desktop/newcore/include/linux/fs.h **** 	unsigned long					s_blocksize;
 684:/mnt/c/Users/31740/Desktop/newcore/include/linux/fs.h ****     const struct super_operations	*s_op;
 685:/mnt/c/Users/31740/Desktop/newcore/include/linux/fs.h **** 	const struct dquot_operations	*dq_op;
 686:/mnt/c/Users/31740/Desktop/newcore/include/linux/fs.h **** 
 687:/mnt/c/Users/31740/Desktop/newcore/include/linux/fs.h **** 	struct dentry		*s_root;      //superblock
 688:/mnt/c/Users/31740/Desktop/newcore/include/linux/fs.h **** 	struct block_device	*s_bdev; 
 689:/mnt/c/Users/31740/Desktop/newcore/include/linux/fs.h **** 	struct hlist_node	s_instances;
 690:/mnt/c/Users/31740/Desktop/newcore/include/linux/fs.h **** 	struct list_head	s_mounts;
 691:/mnt/c/Users/31740/Desktop/newcore/include/linux/fs.h **** 	void			   *s_fs_info;	/* Filesystem private info */
 692:/mnt/c/Users/31740/Desktop/newcore/include/linux/fs.h **** 	char			    s_sysfs_name[UUID_STRING_LEN + 1];
 693:/mnt/c/Users/31740/Desktop/newcore/include/linux/fs.h **** 	unsigned int		s_max_links;
 694:/mnt/c/Users/31740/Desktop/newcore/include/linux/fs.h **** 	struct mutex            		s_vfs_rename_mutex;	/* Kludge */
 695:/mnt/c/Users/31740/Desktop/newcore/include/linux/fs.h **** 	const struct dentry_operations *s_d_op; /* default d_op for dentries */
 696:/mnt/c/Users/31740/Desktop/newcore/include/linux/fs.h **** 	struct hlist_head s_pins;
 697:/mnt/c/Users/31740/Desktop/newcore/include/linux/fs.h **** };
 698:/mnt/c/Users/31740/Desktop/newcore/include/linux/fs.h **** 
 699:/mnt/c/Users/31740/Desktop/newcore/include/linux/fs.h **** 
 700:/mnt/c/Users/31740/Desktop/newcore/include/linux/fs.h **** /********************************************************
 701:/mnt/c/Users/31740/Desktop/newcore/include/linux/fs.h ****  * 														*
 702:/mnt/c/Users/31740/Desktop/newcore/include/linux/fs.h ****  * 			       super_operations						*
 703:/mnt/c/Users/31740/Desktop/newcore/include/linux/fs.h ****  *														* 
 704:/mnt/c/Users/31740/Desktop/newcore/include/linux/fs.h **** *********************************************************/
 705:/mnt/c/Users/31740/Desktop/newcore/include/linux/fs.h **** 
 706:/mnt/c/Users/31740/Desktop/newcore/include/linux/fs.h **** struct seq_operations ;
 707:/mnt/c/Users/31740/Desktop/newcore/include/linux/fs.h **** struct seq_file {
 708:/mnt/c/Users/31740/Desktop/newcore/include/linux/fs.h **** 	char *buf;
 709:/mnt/c/Users/31740/Desktop/newcore/include/linux/fs.h **** 	size_t size;
 710:/mnt/c/Users/31740/Desktop/newcore/include/linux/fs.h **** 	size_t from;
 711:/mnt/c/Users/31740/Desktop/newcore/include/linux/fs.h **** 	size_t count;
 712:/mnt/c/Users/31740/Desktop/newcore/include/linux/fs.h **** 	size_t pad_until;
 713:/mnt/c/Users/31740/Desktop/newcore/include/linux/fs.h **** 	loff_t index;
 714:/mnt/c/Users/31740/Desktop/newcore/include/linux/fs.h **** 	loff_t read_pos;
 715:/mnt/c/Users/31740/Desktop/newcore/include/linux/fs.h **** 	struct mutex lock;
 716:/mnt/c/Users/31740/Desktop/newcore/include/linux/fs.h **** 	const struct seq_operations *op;
 717:/mnt/c/Users/31740/Desktop/newcore/include/linux/fs.h **** 	int poll_event;
 718:/mnt/c/Users/31740/Desktop/newcore/include/linux/fs.h **** 	const struct file *file;
 719:/mnt/c/Users/31740/Desktop/newcore/include/linux/fs.h **** 	void *private;
 720:/mnt/c/Users/31740/Desktop/newcore/include/linux/fs.h **** };
 721:/mnt/c/Users/31740/Desktop/newcore/include/linux/fs.h **** 
 722:/mnt/c/Users/31740/Desktop/newcore/include/linux/fs.h **** struct seq_operations {
 723:/mnt/c/Users/31740/Desktop/newcore/include/linux/fs.h **** 	void * (*start) (struct seq_file *m, loff_t *pos);
 724:/mnt/c/Users/31740/Desktop/newcore/include/linux/fs.h **** 	void (*stop) (struct seq_file *m, void *v);
 725:/mnt/c/Users/31740/Desktop/newcore/include/linux/fs.h **** 	void * (*next) (struct seq_file *m, void *v, loff_t *pos);
 726:/mnt/c/Users/31740/Desktop/newcore/include/linux/fs.h **** 	int (*show) (struct seq_file *m, void *v);
 727:/mnt/c/Users/31740/Desktop/newcore/include/linux/fs.h **** };
 728:/mnt/c/Users/31740/Desktop/newcore/include/linux/fs.h **** 
 729:/mnt/c/Users/31740/Desktop/newcore/include/linux/fs.h **** enum freeze_holder {
 730:/mnt/c/Users/31740/Desktop/newcore/include/linux/fs.h **** 	FREEZE_HOLDER_KERNEL	= (1U << 0),
 731:/mnt/c/Users/31740/Desktop/newcore/include/linux/fs.h **** 	FREEZE_HOLDER_USERSPACE	= (1U << 1),
ARM GAS  /tmp/ccyCLDig.s 			page 52


 732:/mnt/c/Users/31740/Desktop/newcore/include/linux/fs.h **** 	FREEZE_MAY_NEST		= (1U << 2),
 733:/mnt/c/Users/31740/Desktop/newcore/include/linux/fs.h **** };
 734:/mnt/c/Users/31740/Desktop/newcore/include/linux/fs.h **** 
 735:/mnt/c/Users/31740/Desktop/newcore/include/linux/fs.h **** struct writeback_control {
 736:/mnt/c/Users/31740/Desktop/newcore/include/linux/fs.h **** 	unsigned long nr_to_write;
 737:/mnt/c/Users/31740/Desktop/newcore/include/linux/fs.h **** };
 738:/mnt/c/Users/31740/Desktop/newcore/include/linux/fs.h **** 
 739:/mnt/c/Users/31740/Desktop/newcore/include/linux/fs.h **** 
 740:/mnt/c/Users/31740/Desktop/newcore/include/linux/fs.h **** struct shrink_control {
 741:/mnt/c/Users/31740/Desktop/newcore/include/linux/fs.h **** 	gfp_t gfp_mask;
 742:/mnt/c/Users/31740/Desktop/newcore/include/linux/fs.h **** 	int nid;
 743:/mnt/c/Users/31740/Desktop/newcore/include/linux/fs.h **** 	unsigned long nr_to_scan;
 744:/mnt/c/Users/31740/Desktop/newcore/include/linux/fs.h **** 	unsigned long nr_scanned;
 745:/mnt/c/Users/31740/Desktop/newcore/include/linux/fs.h ****     //struct mem_cgroup *memcg;
 746:/mnt/c/Users/31740/Desktop/newcore/include/linux/fs.h **** };
 747:/mnt/c/Users/31740/Desktop/newcore/include/linux/fs.h **** 
 748:/mnt/c/Users/31740/Desktop/newcore/include/linux/fs.h **** struct super_operations {
 749:/mnt/c/Users/31740/Desktop/newcore/include/linux/fs.h ****    	struct inode *(*alloc_inode)(struct super_block *sb);
 750:/mnt/c/Users/31740/Desktop/newcore/include/linux/fs.h **** 	void (*destroy_inode)       (struct inode *);
 751:/mnt/c/Users/31740/Desktop/newcore/include/linux/fs.h **** 	void (*free_inode)          (struct inode *);
 752:/mnt/c/Users/31740/Desktop/newcore/include/linux/fs.h ****    	void (*dirty_inode)         (struct inode *, int flags);
 753:/mnt/c/Users/31740/Desktop/newcore/include/linux/fs.h **** 	int  (*write_inode)         (struct inode *, struct writeback_control *wbc);
 754:/mnt/c/Users/31740/Desktop/newcore/include/linux/fs.h **** 	int  (*drop_inode)          (struct inode *);
 755:/mnt/c/Users/31740/Desktop/newcore/include/linux/fs.h **** 	void (*evict_inode)         (struct inode *);
 756:/mnt/c/Users/31740/Desktop/newcore/include/linux/fs.h **** 	void (*put_super)           (struct super_block *);
 757:/mnt/c/Users/31740/Desktop/newcore/include/linux/fs.h **** 	int  (*sync_fs)             (struct super_block *sb, int wait);
 758:/mnt/c/Users/31740/Desktop/newcore/include/linux/fs.h **** 	int  (*freeze_super)        (struct super_block *, enum freeze_holder who);
 759:/mnt/c/Users/31740/Desktop/newcore/include/linux/fs.h **** 	int  (*freeze_fs)           (struct super_block *);
 760:/mnt/c/Users/31740/Desktop/newcore/include/linux/fs.h **** 	int  (*thaw_super)          (struct super_block *, enum freeze_holder who);
 761:/mnt/c/Users/31740/Desktop/newcore/include/linux/fs.h **** 	int  (*unfreeze_fs)         (struct super_block *);
 762:/mnt/c/Users/31740/Desktop/newcore/include/linux/fs.h **** 	int  (*statfs)              (struct dentry *, struct kstatfs *);
 763:/mnt/c/Users/31740/Desktop/newcore/include/linux/fs.h **** 	int  (*remount_fs)          (struct super_block *, int *, char *);
 764:/mnt/c/Users/31740/Desktop/newcore/include/linux/fs.h **** 	void (*umount_begin)        (struct super_block *);
 765:/mnt/c/Users/31740/Desktop/newcore/include/linux/fs.h **** 	int  (*show_options)        (struct seq_file *, struct dentry *);
 766:/mnt/c/Users/31740/Desktop/newcore/include/linux/fs.h **** 	int  (*show_devname)        (struct seq_file *, struct dentry *);
 767:/mnt/c/Users/31740/Desktop/newcore/include/linux/fs.h **** 	int  (*show_path)           (struct seq_file *, struct dentry *);
 768:/mnt/c/Users/31740/Desktop/newcore/include/linux/fs.h **** 	int  (*show_stats)          (struct seq_file *, struct dentry *);
 769:/mnt/c/Users/31740/Desktop/newcore/include/linux/fs.h **** 
 770:/mnt/c/Users/31740/Desktop/newcore/include/linux/fs.h **** #ifdef CONFIG_QUOTA
 771:/mnt/c/Users/31740/Desktop/newcore/include/linux/fs.h **** 	ssize_t (*quota_read)(struct super_block *, int, char *, size_t, loff_t);
 772:/mnt/c/Users/31740/Desktop/newcore/include/linux/fs.h **** 	ssize_t (*quota_write)(struct super_block *, int, const char *, size_t, loff_t);
 773:/mnt/c/Users/31740/Desktop/newcore/include/linux/fs.h **** 	struct dquot __rcu **(*get_dquots)(struct inode *);
 774:/mnt/c/Users/31740/Desktop/newcore/include/linux/fs.h **** #endif
 775:/mnt/c/Users/31740/Desktop/newcore/include/linux/fs.h **** 
 776:/mnt/c/Users/31740/Desktop/newcore/include/linux/fs.h **** 	long (*nr_cached_objects)(struct super_block *,struct shrink_control *);
 777:/mnt/c/Users/31740/Desktop/newcore/include/linux/fs.h **** 	long (*free_cached_objects)(struct super_block *,struct shrink_control *);
 778:/mnt/c/Users/31740/Desktop/newcore/include/linux/fs.h **** 	void (*shutdown)(struct super_block *sb);
 779:/mnt/c/Users/31740/Desktop/newcore/include/linux/fs.h **** };
 780:/mnt/c/Users/31740/Desktop/newcore/include/linux/fs.h **** 
 781:/mnt/c/Users/31740/Desktop/newcore/include/linux/fs.h **** 
 782:/mnt/c/Users/31740/Desktop/newcore/include/linux/fs.h **** 
 783:/mnt/c/Users/31740/Desktop/newcore/include/linux/fs.h **** /********************************************************
 784:/mnt/c/Users/31740/Desktop/newcore/include/linux/fs.h ****  * 														*
 785:/mnt/c/Users/31740/Desktop/newcore/include/linux/fs.h ****  * 			       dquot_operations						*
 786:/mnt/c/Users/31740/Desktop/newcore/include/linux/fs.h ****  *														* 
 787:/mnt/c/Users/31740/Desktop/newcore/include/linux/fs.h **** *********************************************************/
 788:/mnt/c/Users/31740/Desktop/newcore/include/linux/fs.h **** 
ARM GAS  /tmp/ccyCLDig.s 			page 53


 789:/mnt/c/Users/31740/Desktop/newcore/include/linux/fs.h **** typedef __kernel_uid32_t 	qid_t; /* Type in which we store ids in memory */
 790:/mnt/c/Users/31740/Desktop/newcore/include/linux/fs.h **** typedef long long 			qsize_t;	/* Type in which we store sizes */
 791:/mnt/c/Users/31740/Desktop/newcore/include/linux/fs.h **** 
 792:/mnt/c/Users/31740/Desktop/newcore/include/linux/fs.h **** #undef USRQUOTA
 793:/mnt/c/Users/31740/Desktop/newcore/include/linux/fs.h **** #undef GRPQUOTA
 794:/mnt/c/Users/31740/Desktop/newcore/include/linux/fs.h **** #undef PRJQUOTA
 795:/mnt/c/Users/31740/Desktop/newcore/include/linux/fs.h **** enum quota_type {
 796:/mnt/c/Users/31740/Desktop/newcore/include/linux/fs.h **** 	USRQUOTA = 0,		/* element used for user quotas */
 797:/mnt/c/Users/31740/Desktop/newcore/include/linux/fs.h **** 	GRPQUOTA = 1,		/* element used for group quotas */
 798:/mnt/c/Users/31740/Desktop/newcore/include/linux/fs.h **** 	PRJQUOTA = 2,		/* element used for project quotas */
 799:/mnt/c/Users/31740/Desktop/newcore/include/linux/fs.h **** };
 800:/mnt/c/Users/31740/Desktop/newcore/include/linux/fs.h **** 
 801:/mnt/c/Users/31740/Desktop/newcore/include/linux/fs.h **** struct kqid {			/* Type in which we store the quota identifier */
 802:/mnt/c/Users/31740/Desktop/newcore/include/linux/fs.h **** 	union {
 803:/mnt/c/Users/31740/Desktop/newcore/include/linux/fs.h **** 		kuid_t uid;
 804:/mnt/c/Users/31740/Desktop/newcore/include/linux/fs.h **** 		kgid_t gid;
 805:/mnt/c/Users/31740/Desktop/newcore/include/linux/fs.h **** 		kprojid_t projid;
 806:/mnt/c/Users/31740/Desktop/newcore/include/linux/fs.h **** 	};
 807:/mnt/c/Users/31740/Desktop/newcore/include/linux/fs.h **** 	enum quota_type type;  /* USRQUOTA (uid) or GRPQUOTA (gid) or PRJQUOTA (projid) */
 808:/mnt/c/Users/31740/Desktop/newcore/include/linux/fs.h **** };
 809:/mnt/c/Users/31740/Desktop/newcore/include/linux/fs.h **** 
 810:/mnt/c/Users/31740/Desktop/newcore/include/linux/fs.h **** struct mem_dqblk {
 811:/mnt/c/Users/31740/Desktop/newcore/include/linux/fs.h **** 	qsize_t dqb_bhardlimit;	/* absolute limit on disk blks alloc */
 812:/mnt/c/Users/31740/Desktop/newcore/include/linux/fs.h **** 	qsize_t dqb_bsoftlimit;	/* preferred limit on disk blks */
 813:/mnt/c/Users/31740/Desktop/newcore/include/linux/fs.h **** 	qsize_t dqb_curspace;	/* current used space */
 814:/mnt/c/Users/31740/Desktop/newcore/include/linux/fs.h **** 	qsize_t dqb_rsvspace;   /* current reserved space for delalloc*/
 815:/mnt/c/Users/31740/Desktop/newcore/include/linux/fs.h **** 	qsize_t dqb_ihardlimit;	/* absolute limit on allocated inodes */
 816:/mnt/c/Users/31740/Desktop/newcore/include/linux/fs.h **** 	qsize_t dqb_isoftlimit;	/* preferred inode limit */
 817:/mnt/c/Users/31740/Desktop/newcore/include/linux/fs.h **** 	qsize_t dqb_curinodes;	/* current # allocated inodes */
 818:/mnt/c/Users/31740/Desktop/newcore/include/linux/fs.h **** 	time64_t dqb_btime;	/* time limit for excessive disk use */
 819:/mnt/c/Users/31740/Desktop/newcore/include/linux/fs.h **** 	time64_t dqb_itime;	/* time limit for excessive inode use */
 820:/mnt/c/Users/31740/Desktop/newcore/include/linux/fs.h **** };
 821:/mnt/c/Users/31740/Desktop/newcore/include/linux/fs.h **** 
 822:/mnt/c/Users/31740/Desktop/newcore/include/linux/fs.h **** struct dquot {
 823:/mnt/c/Users/31740/Desktop/newcore/include/linux/fs.h **** 	struct hlist_node dq_hash;	/* Hash list in memory [dq_list_lock] */
 824:/mnt/c/Users/31740/Desktop/newcore/include/linux/fs.h **** 	struct list_head dq_inuse;	/* List of all quotas [dq_list_lock] */
 825:/mnt/c/Users/31740/Desktop/newcore/include/linux/fs.h **** 	struct list_head dq_free;	/* Free list element [dq_list_lock] */
 826:/mnt/c/Users/31740/Desktop/newcore/include/linux/fs.h **** 	struct list_head dq_dirty;	/* List of dirty dquots [dq_list_lock] */
 827:/mnt/c/Users/31740/Desktop/newcore/include/linux/fs.h **** 	struct mutex dq_lock;		/* dquot IO lock */
 828:/mnt/c/Users/31740/Desktop/newcore/include/linux/fs.h **** //	spinlock_t dq_dqb_lock;		/* Lock protecting dq_dqb changes */
 829:/mnt/c/Users/31740/Desktop/newcore/include/linux/fs.h **** 	atomic_t dq_count;		/* Use count */
 830:/mnt/c/Users/31740/Desktop/newcore/include/linux/fs.h **** 	struct super_block *dq_sb;	/* superblock this applies to */
 831:/mnt/c/Users/31740/Desktop/newcore/include/linux/fs.h **** 	struct kqid dq_id;		/* ID this applies to (uid, gid, projid) */
 832:/mnt/c/Users/31740/Desktop/newcore/include/linux/fs.h **** 	loff_t dq_off;			/* Offset of dquot on disk [dq_lock, stable once set] */
 833:/mnt/c/Users/31740/Desktop/newcore/include/linux/fs.h **** 	unsigned long dq_flags;		/* See DQ_* */
 834:/mnt/c/Users/31740/Desktop/newcore/include/linux/fs.h **** 	struct mem_dqblk dq_dqb;	/* Diskquota usage [dq_dqb_lock] */
 835:/mnt/c/Users/31740/Desktop/newcore/include/linux/fs.h **** };
 836:/mnt/c/Users/31740/Desktop/newcore/include/linux/fs.h **** 
 837:/mnt/c/Users/31740/Desktop/newcore/include/linux/fs.h **** /* Operations which must be implemented by each quota format */
 838:/mnt/c/Users/31740/Desktop/newcore/include/linux/fs.h **** 
 839:/mnt/c/Users/31740/Desktop/newcore/include/linux/fs.h **** struct quota_format_ops {
 840:/mnt/c/Users/31740/Desktop/newcore/include/linux/fs.h **** 	int (*check_quota_file)(struct super_block *sb, int type);	/* Detect whether file is in our format
 841:/mnt/c/Users/31740/Desktop/newcore/include/linux/fs.h **** 	int (*read_file_info)(struct super_block *sb, int type);	/* Read main info about file - called on 
 842:/mnt/c/Users/31740/Desktop/newcore/include/linux/fs.h **** 	int (*write_file_info)(struct super_block *sb, int type);	/* Write main info about file */
 843:/mnt/c/Users/31740/Desktop/newcore/include/linux/fs.h **** 	int (*free_file_info)(struct super_block *sb, int type);	/* Called on quotaoff() */
 844:/mnt/c/Users/31740/Desktop/newcore/include/linux/fs.h **** 	int (*read_dqblk)(struct dquot *dquot);		/* Read structure for one user */
 845:/mnt/c/Users/31740/Desktop/newcore/include/linux/fs.h **** 	int (*commit_dqblk)(struct dquot *dquot);	/* Write structure for one user */
ARM GAS  /tmp/ccyCLDig.s 			page 54


 846:/mnt/c/Users/31740/Desktop/newcore/include/linux/fs.h **** 	int (*release_dqblk)(struct dquot *dquot);	/* Called when last reference to dquot is being dropped
 847:/mnt/c/Users/31740/Desktop/newcore/include/linux/fs.h **** 	int (*get_next_id)(struct super_block *sb, struct kqid *qid);	/* Get next ID with existing structu
 848:/mnt/c/Users/31740/Desktop/newcore/include/linux/fs.h **** };
 849:/mnt/c/Users/31740/Desktop/newcore/include/linux/fs.h **** 
 850:/mnt/c/Users/31740/Desktop/newcore/include/linux/fs.h **** struct dquot_operations {
 851:/mnt/c/Users/31740/Desktop/newcore/include/linux/fs.h **** 	int (*write_dquot) (struct dquot *);		/* Ordinary dquot write */
 852:/mnt/c/Users/31740/Desktop/newcore/include/linux/fs.h **** 	struct dquot *(*alloc_dquot)(struct super_block *, int);	/* Allocate memory for new dquot */
 853:/mnt/c/Users/31740/Desktop/newcore/include/linux/fs.h **** 	void (*destroy_dquot)(struct dquot *);		/* Free memory for dquot */
 854:/mnt/c/Users/31740/Desktop/newcore/include/linux/fs.h **** 	int (*acquire_dquot) (struct dquot *);		/* Quota is going to be created on disk */
 855:/mnt/c/Users/31740/Desktop/newcore/include/linux/fs.h **** 	int (*release_dquot) (struct dquot *);		/* Quota is going to be deleted from disk */
 856:/mnt/c/Users/31740/Desktop/newcore/include/linux/fs.h **** 	int (*mark_dirty) (struct dquot *);		/* Dquot is marked dirty */
 857:/mnt/c/Users/31740/Desktop/newcore/include/linux/fs.h **** 	int (*write_info) (struct super_block *, int);	/* Write of quota "superblock" */
 858:/mnt/c/Users/31740/Desktop/newcore/include/linux/fs.h **** 	/* get reserved quota for delayed alloc, value returned is managed by
 859:/mnt/c/Users/31740/Desktop/newcore/include/linux/fs.h **** 	 * quota code only */
 860:/mnt/c/Users/31740/Desktop/newcore/include/linux/fs.h **** 	qsize_t *(*get_reserved_space) (struct inode *);
 861:/mnt/c/Users/31740/Desktop/newcore/include/linux/fs.h **** 	int (*get_projid) (struct inode *, kprojid_t *);/* Get project ID */
 862:/mnt/c/Users/31740/Desktop/newcore/include/linux/fs.h **** 	/* Get number of inodes that were charged for a given inode */
 863:/mnt/c/Users/31740/Desktop/newcore/include/linux/fs.h **** 	int (*get_inode_usage) (struct inode *, qsize_t *);
 864:/mnt/c/Users/31740/Desktop/newcore/include/linux/fs.h **** 	/* Get next ID with active quota structure */
 865:/mnt/c/Users/31740/Desktop/newcore/include/linux/fs.h **** 	int (*get_next_id) (struct super_block *sb, struct kqid *qid);
 866:/mnt/c/Users/31740/Desktop/newcore/include/linux/fs.h **** };
 867:/mnt/c/Users/31740/Desktop/newcore/include/linux/fs.h **** 
 868:/mnt/c/Users/31740/Desktop/newcore/include/linux/fs.h **** /********************************************************
 869:/mnt/c/Users/31740/Desktop/newcore/include/linux/fs.h ****  * 														*
 870:/mnt/c/Users/31740/Desktop/newcore/include/linux/fs.h ****  * 			       file_system_type						*
 871:/mnt/c/Users/31740/Desktop/newcore/include/linux/fs.h ****  *														* 
 872:/mnt/c/Users/31740/Desktop/newcore/include/linux/fs.h **** *********************************************************/
 873:/mnt/c/Users/31740/Desktop/newcore/include/linux/fs.h **** 
 874:/mnt/c/Users/31740/Desktop/newcore/include/linux/fs.h **** struct fs_parameter_spec {
 875:/mnt/c/Users/31740/Desktop/newcore/include/linux/fs.h **** 	const char		*name;
 876:/mnt/c/Users/31740/Desktop/newcore/include/linux/fs.h **** //	fs_param_type		*type;	/* The desired parameter type */
 877:/mnt/c/Users/31740/Desktop/newcore/include/linux/fs.h **** 	u8			opt;	/* Option number (returned by fs_parse()) */
 878:/mnt/c/Users/31740/Desktop/newcore/include/linux/fs.h **** 	unsigned short		flags;
 879:/mnt/c/Users/31740/Desktop/newcore/include/linux/fs.h **** #define fs_param_neg_with_no	0x0002	/* "noxxx" is negative param */
 880:/mnt/c/Users/31740/Desktop/newcore/include/linux/fs.h **** #define fs_param_can_be_empty	0x0004	/* "xxx=" is allowed */
 881:/mnt/c/Users/31740/Desktop/newcore/include/linux/fs.h **** #define fs_param_deprecated	0x0008	/* The param is deprecated */
 882:/mnt/c/Users/31740/Desktop/newcore/include/linux/fs.h **** 	const void		*data;
 883:/mnt/c/Users/31740/Desktop/newcore/include/linux/fs.h **** };
 884:/mnt/c/Users/31740/Desktop/newcore/include/linux/fs.h **** 
 885:/mnt/c/Users/31740/Desktop/newcore/include/linux/fs.h **** 
 886:/mnt/c/Users/31740/Desktop/newcore/include/linux/fs.h **** struct file_system_type {
 887:/mnt/c/Users/31740/Desktop/newcore/include/linux/fs.h **** 	const char *name;
 888:/mnt/c/Users/31740/Desktop/newcore/include/linux/fs.h **** 	int fs_flags;
 889:/mnt/c/Users/31740/Desktop/newcore/include/linux/fs.h **** #define FS_REQUIRES_DEV		1 
 890:/mnt/c/Users/31740/Desktop/newcore/include/linux/fs.h **** #define FS_BINARY_MOUNTDATA	2
 891:/mnt/c/Users/31740/Desktop/newcore/include/linux/fs.h **** #define FS_HAS_SUBTYPE		4
 892:/mnt/c/Users/31740/Desktop/newcore/include/linux/fs.h **** #define FS_USERNS_MOUNT		8	/* Can be mounted by userns root */
 893:/mnt/c/Users/31740/Desktop/newcore/include/linux/fs.h **** #define FS_DISALLOW_NOTIFY_PERM	16	/* Disable fanotify permission events */
 894:/mnt/c/Users/31740/Desktop/newcore/include/linux/fs.h **** #define FS_ALLOW_IDMAP         32      /* FS has been updated to handle vfs idmappings. */
 895:/mnt/c/Users/31740/Desktop/newcore/include/linux/fs.h **** #define FS_MGTIME		64	/* FS uses multigrain timestamps */
 896:/mnt/c/Users/31740/Desktop/newcore/include/linux/fs.h **** #define FS_RENAME_DOES_D_MOVE	32768	/* FS will handle d_move() during rename() internally. */
 897:/mnt/c/Users/31740/Desktop/newcore/include/linux/fs.h **** 	int (*init_fs_context)(struct fs_context *);
 898:/mnt/c/Users/31740/Desktop/newcore/include/linux/fs.h **** 	const struct fs_parameter_spec *parameters;
 899:/mnt/c/Users/31740/Desktop/newcore/include/linux/fs.h **** 	struct dentry *(*mount) (struct file_system_type *, int,
 900:/mnt/c/Users/31740/Desktop/newcore/include/linux/fs.h **** 		       const char *, void *);
 901:/mnt/c/Users/31740/Desktop/newcore/include/linux/fs.h **** 	void (*kill_sb) (struct super_block *);
 902:/mnt/c/Users/31740/Desktop/newcore/include/linux/fs.h **** 	void *owner;
ARM GAS  /tmp/ccyCLDig.s 			page 55


 903:/mnt/c/Users/31740/Desktop/newcore/include/linux/fs.h **** 	struct file_system_type * next;
 904:/mnt/c/Users/31740/Desktop/newcore/include/linux/fs.h **** 	struct hlist_head fs_supers;
 905:/mnt/c/Users/31740/Desktop/newcore/include/linux/fs.h **** 
 906:/mnt/c/Users/31740/Desktop/newcore/include/linux/fs.h **** 	struct lock_class_key s_lock_key;
 907:/mnt/c/Users/31740/Desktop/newcore/include/linux/fs.h **** 	struct lock_class_key s_umount_key;
 908:/mnt/c/Users/31740/Desktop/newcore/include/linux/fs.h **** 	struct lock_class_key s_vfs_rename_key;
 909:/mnt/c/Users/31740/Desktop/newcore/include/linux/fs.h **** 	struct lock_class_key s_writers_key[SB_FREEZE_LEVELS];
 910:/mnt/c/Users/31740/Desktop/newcore/include/linux/fs.h **** 	struct lock_class_key i_lock_key;
 911:/mnt/c/Users/31740/Desktop/newcore/include/linux/fs.h **** 	struct lock_class_key i_mutex_key;
 912:/mnt/c/Users/31740/Desktop/newcore/include/linux/fs.h **** 	struct lock_class_key invalidate_lock_key;
 913:/mnt/c/Users/31740/Desktop/newcore/include/linux/fs.h **** 	struct lock_class_key i_mutex_dir_key;
 914:/mnt/c/Users/31740/Desktop/newcore/include/linux/fs.h **** };
 915:/mnt/c/Users/31740/Desktop/newcore/include/linux/fs.h **** 
 916:/mnt/c/Users/31740/Desktop/newcore/include/linux/fs.h **** 
 917:/mnt/c/Users/31740/Desktop/newcore/include/linux/fs.h **** 
 918:/mnt/c/Users/31740/Desktop/newcore/include/linux/fs.h **** extern int register_filesystem(struct file_system_type *);
 919:/mnt/c/Users/31740/Desktop/newcore/include/linux/fs.h **** extern int unregister_filesystem(struct file_system_type *);
 920:/mnt/c/Users/31740/Desktop/newcore/include/linux/fs.h **** extern struct file_system_type *lookup_fs_type(const char *name);
 921:/mnt/c/Users/31740/Desktop/newcore/include/linux/fs.h **** 
 922:/mnt/c/Users/31740/Desktop/newcore/include/linux/fs.h **** /*--------------------------------------------------------------------------*/
 923:/mnt/c/Users/31740/Desktop/newcore/include/linux/fs.h **** static inline bool is_sync_kiocb(struct kiocb *kiocb){
 924:/mnt/c/Users/31740/Desktop/newcore/include/linux/fs.h **** 	return kiocb->ki_complete == NULL;
 925:/mnt/c/Users/31740/Desktop/newcore/include/linux/fs.h **** }
 926:/mnt/c/Users/31740/Desktop/newcore/include/linux/fs.h **** static inline struct inode *file_inode(const struct file *f){
 927:/mnt/c/Users/31740/Desktop/newcore/include/linux/fs.h **** 	return f->f_inode;
 928:/mnt/c/Users/31740/Desktop/newcore/include/linux/fs.h **** }
 929:/mnt/c/Users/31740/Desktop/newcore/include/linux/fs.h **** /*--------------------------------------------------------------------------*/
 930:/mnt/c/Users/31740/Desktop/newcore/include/linux/fs.h **** 
 931:/mnt/c/Users/31740/Desktop/newcore/include/linux/fs.h **** extern int remove_dentry(char* path);
 932:/mnt/c/Users/31740/Desktop/newcore/include/linux/fs.h **** extern struct file *filp_open(const char * path, int flags, umode_t mode);
 933:/mnt/c/Users/31740/Desktop/newcore/include/linux/fs.h **** extern ssize_t kernel_read(struct file *file, void * buf, size_t count, loff_t *ppos);
 934:/mnt/c/Users/31740/Desktop/newcore/include/linux/fs.h **** extern ssize_t kernel_write(struct file *file,const void * buf, size_t count, loff_t *ppos);
 935:/mnt/c/Users/31740/Desktop/newcore/include/linux/fs.h **** extern long vfs_ioctl(struct file *file, unsigned int cmd, unsigned long arg);
 936:/mnt/c/Users/31740/Desktop/newcore/include/linux/fs.h **** extern int file_close(struct file *file, fl_owner_t id);
 937:/mnt/c/Users/31740/Desktop/newcore/include/linux/fs.h **** 
 938:/mnt/c/Users/31740/Desktop/newcore/include/linux/fs.h **** 
 939:/mnt/c/Users/31740/Desktop/newcore/include/linux/fs.h **** 
 940:/mnt/c/Users/31740/Desktop/newcore/include/linux/fs.h **** /* fs/char_dev.c */
 941:/mnt/c/Users/31740/Desktop/newcore/include/linux/fs.h **** #define CHRDEV_MAJOR_MAX 512
 942:/mnt/c/Users/31740/Desktop/newcore/include/linux/fs.h **** /* Marks the bottom of the first segment of free char majors */
 943:/mnt/c/Users/31740/Desktop/newcore/include/linux/fs.h **** #define CHRDEV_MAJOR_DYN_END 234
 944:/mnt/c/Users/31740/Desktop/newcore/include/linux/fs.h **** /* Marks the top and bottom of the second segment of free char majors */
 945:/mnt/c/Users/31740/Desktop/newcore/include/linux/fs.h **** #define CHRDEV_MAJOR_DYN_EXT_START 511
 946:/mnt/c/Users/31740/Desktop/newcore/include/linux/fs.h **** #define CHRDEV_MAJOR_DYN_EXT_END 384
 947:/mnt/c/Users/31740/Desktop/newcore/include/linux/fs.h **** 
 948:/mnt/c/Users/31740/Desktop/newcore/include/linux/fs.h **** 
 949:/mnt/c/Users/31740/Desktop/newcore/include/linux/fs.h **** 
 950:/mnt/c/Users/31740/Desktop/newcore/include/linux/fs.h **** extern int alloc_chrdev_region(dev_t *, unsigned, unsigned, const char *);
 951:/mnt/c/Users/31740/Desktop/newcore/include/linux/fs.h **** extern int register_chrdev_region(dev_t, unsigned, const char *);
 952:/mnt/c/Users/31740/Desktop/newcore/include/linux/fs.h **** extern int __register_chrdev(unsigned int major, unsigned int baseminor,
 953:/mnt/c/Users/31740/Desktop/newcore/include/linux/fs.h ****     unsigned int count, const char *name,
 954:/mnt/c/Users/31740/Desktop/newcore/include/linux/fs.h ****     const struct file_operations *fops);
 955:/mnt/c/Users/31740/Desktop/newcore/include/linux/fs.h **** extern void __unregister_chrdev(unsigned int major, unsigned int baseminor,
 956:/mnt/c/Users/31740/Desktop/newcore/include/linux/fs.h **** 		unsigned int count, const char *name);
 957:/mnt/c/Users/31740/Desktop/newcore/include/linux/fs.h **** extern void unregister_chrdev_region(dev_t, unsigned);
 958:/mnt/c/Users/31740/Desktop/newcore/include/linux/fs.h **** 
 959:/mnt/c/Users/31740/Desktop/newcore/include/linux/fs.h **** static inline int register_chrdev(unsigned int major, const char *name,
ARM GAS  /tmp/ccyCLDig.s 			page 56


 960:/mnt/c/Users/31740/Desktop/newcore/include/linux/fs.h **** 	const struct file_operations *fops)
 961:/mnt/c/Users/31740/Desktop/newcore/include/linux/fs.h **** {
 962:/mnt/c/Users/31740/Desktop/newcore/include/linux/fs.h **** return __register_chrdev(major, 0, 256, name, fops);
 963:/mnt/c/Users/31740/Desktop/newcore/include/linux/fs.h **** }
 964:/mnt/c/Users/31740/Desktop/newcore/include/linux/fs.h **** 
 965:/mnt/c/Users/31740/Desktop/newcore/include/linux/fs.h **** static inline void unregister_chrdev(
 966:/mnt/c/Users/31740/Desktop/newcore/include/linux/fs.h **** 	unsigned int major, const char *name)
 967:/mnt/c/Users/31740/Desktop/newcore/include/linux/fs.h **** {
 968:/mnt/c/Users/31740/Desktop/newcore/include/linux/fs.h **** 	__unregister_chrdev(major, 0, 256, name);
 969:/mnt/c/Users/31740/Desktop/newcore/include/linux/fs.h **** }
 970:/mnt/c/Users/31740/Desktop/newcore/include/linux/fs.h **** 
 971:/mnt/c/Users/31740/Desktop/newcore/include/linux/fs.h **** 
 972:/mnt/c/Users/31740/Desktop/newcore/include/linux/fs.h **** 
 973:/mnt/c/Users/31740/Desktop/newcore/include/linux/fs.h **** 
 974:/mnt/c/Users/31740/Desktop/newcore/include/linux/fs.h **** 
 975:/mnt/c/Users/31740/Desktop/newcore/include/linux/fs.h **** extern struct block_device *blkdev_get_by_path(char*, int,void*);
 976:/mnt/c/Users/31740/Desktop/newcore/include/linux/fs.h **** 
 977:/mnt/c/Users/31740/Desktop/newcore/include/linux/fs.h **** 
 978:/mnt/c/Users/31740/Desktop/newcore/include/linux/fs.h **** 
 979:/mnt/c/Users/31740/Desktop/newcore/include/linux/fs.h **** 
 980:/mnt/c/Users/31740/Desktop/newcore/include/linux/fs.h **** extern int __add_disk(struct gendisk *disk);
 981:/mnt/c/Users/31740/Desktop/newcore/include/linux/fs.h **** static int add_disk(struct gendisk *disk){
 1394              		.loc 5 981 42 is_stmt 1 view -0
 1395              		.cfi_startproc
 1396              		@ args = 0, pretend = 0, frame = 0
 1397              		@ frame_needed = 0, uses_anonymous_args = 0
 1398              		.loc 5 981 42 is_stmt 0 view .LVU349
 1399 0000 08B5     		push	{r3, lr}
 1400              	.LCFI29:
 1401              		.cfi_def_cfa_offset 8
 1402              		.cfi_offset 3, -8
 1403              		.cfi_offset 14, -4
 982:/mnt/c/Users/31740/Desktop/newcore/include/linux/fs.h **** 	return __add_disk(disk);
 1404              		.loc 5 982 2 is_stmt 1 view .LVU350
 1405              		.loc 5 982 9 is_stmt 0 view .LVU351
 1406 0002 FFF7FEFF 		bl	__add_disk
 1407              	.LVL123:
 983:/mnt/c/Users/31740/Desktop/newcore/include/linux/fs.h **** }
 1408              		.loc 5 983 1 view .LVU352
 1409 0006 08BD     		pop	{r3, pc}
 1410              		.cfi_endproc
 1411              	.LFE1032:
 1413              		.section	.text.__free_pages,"ax",%progbits
 1414              		.align	1
 1415              		.syntax unified
 1416              		.thumb
 1417              		.thumb_func
 1419              	__free_pages:
 1420              	.LVL124:
 1421              	.LFB914:
 235:/mnt/c/Users/31740/Desktop/newcore/include/linux/mm_type.h ****     if (page) {
 1422              		.loc 2 235 71 is_stmt 1 view -0
 1423              		.cfi_startproc
 1424              		@ args = 0, pretend = 0, frame = 0
 1425              		@ frame_needed = 0, uses_anonymous_args = 0
 236:/mnt/c/Users/31740/Desktop/newcore/include/linux/mm_type.h **** 		if(page->page_type == 1234)
 1426              		.loc 2 236 5 view .LVU354
ARM GAS  /tmp/ccyCLDig.s 			page 57


 236:/mnt/c/Users/31740/Desktop/newcore/include/linux/mm_type.h **** 		if(page->page_type == 1234)
 1427              		.loc 2 236 8 is_stmt 0 view .LVU355
 1428 0000 70B1     		cbz	r0, .L81
 235:/mnt/c/Users/31740/Desktop/newcore/include/linux/mm_type.h ****     if (page) {
 1429              		.loc 2 235 71 view .LVU356
 1430 0002 10B5     		push	{r4, lr}
 1431              	.LCFI30:
 1432              		.cfi_def_cfa_offset 8
 1433              		.cfi_offset 4, -8
 1434              		.cfi_offset 14, -4
 1435 0004 0446     		mov	r4, r0
 237:/mnt/c/Users/31740/Desktop/newcore/include/linux/mm_type.h **** 		kfree(page->zone_device_data);
 1436              		.loc 2 237 3 is_stmt 1 view .LVU357
 237:/mnt/c/Users/31740/Desktop/newcore/include/linux/mm_type.h **** 		kfree(page->zone_device_data);
 1437              		.loc 2 237 10 is_stmt 0 view .LVU358
 1438 0006 8269     		ldr	r2, [r0, #24]
 237:/mnt/c/Users/31740/Desktop/newcore/include/linux/mm_type.h **** 		kfree(page->zone_device_data);
 1439              		.loc 2 237 5 view .LVU359
 1440 0008 40F2D243 		movw	r3, #1234
 1441 000c 9A42     		cmp	r2, r3
 1442 000e 03D0     		beq	.L84
 1443              	.LVL125:
 1444              	.L79:
 1445              	.LBB109:
 1446              	.LBB110:
 202:/mnt/c/Users/31740/Desktop/newcore/include/linux/mm_type.h **** 		page = NULL;
 1447              		.loc 2 202 9 is_stmt 1 view .LVU360
 1448              	.LBB111:
 1449              	.LBI111:
 1450              		.file 6 "/mnt/c/Users/31740/Desktop/newcore/include/linux/slab.h"
   1:/mnt/c/Users/31740/Desktop/newcore/include/linux/slab.h **** /* SPDX-License-Identifier: GPL-2.0 */
   2:/mnt/c/Users/31740/Desktop/newcore/include/linux/slab.h **** /*
   3:/mnt/c/Users/31740/Desktop/newcore/include/linux/slab.h ****  * Written by Mark Hemment, 1996 (markhe@nextd.demon.co.uk).
   4:/mnt/c/Users/31740/Desktop/newcore/include/linux/slab.h ****  *
   5:/mnt/c/Users/31740/Desktop/newcore/include/linux/slab.h ****  * (C) SGI 2006, Christoph Lameter
   6:/mnt/c/Users/31740/Desktop/newcore/include/linux/slab.h ****  * 	Cleaned up and restructured to ease the addition of alternative
   7:/mnt/c/Users/31740/Desktop/newcore/include/linux/slab.h ****  * 	implementations of SLAB allocators.
   8:/mnt/c/Users/31740/Desktop/newcore/include/linux/slab.h ****  * (C) Linux Foundation 2008-2013
   9:/mnt/c/Users/31740/Desktop/newcore/include/linux/slab.h ****  *      Unified interface for all slab allocators
  10:/mnt/c/Users/31740/Desktop/newcore/include/linux/slab.h ****  */
  11:/mnt/c/Users/31740/Desktop/newcore/include/linux/slab.h **** 
  12:/mnt/c/Users/31740/Desktop/newcore/include/linux/slab.h **** #ifndef _LINUX_SLAB_H
  13:/mnt/c/Users/31740/Desktop/newcore/include/linux/slab.h **** #define	_LINUX_SLAB_H
  14:/mnt/c/Users/31740/Desktop/newcore/include/linux/slab.h **** 
  15:/mnt/c/Users/31740/Desktop/newcore/include/linux/slab.h **** #include <linux/cache.h>
  16:/mnt/c/Users/31740/Desktop/newcore/include/linux/slab.h **** #include <linux/overflow.h>
  17:/mnt/c/Users/31740/Desktop/newcore/include/linux/slab.h **** #include <linux/types.h>
  18:/mnt/c/Users/31740/Desktop/newcore/include/linux/slab.h **** #include <linux/raid/pq.h>
  19:/mnt/c/Users/31740/Desktop/newcore/include/linux/slab.h **** #include <linux/gfp_types.h>
  20:/mnt/c/Users/31740/Desktop/newcore/include/linux/slab.h **** #include <linux/numa.h>
  21:/mnt/c/Users/31740/Desktop/newcore/include/linux/slab.h **** #include <linux/reciprocal_div.h>
  22:/mnt/c/Users/31740/Desktop/newcore/include/linux/slab.h **** #include <linux/spinlock.h>
  23:/mnt/c/Users/31740/Desktop/newcore/include/linux/slab.h **** 
  24:/mnt/c/Users/31740/Desktop/newcore/include/linux/slab.h **** enum _slab_flag_bits {
  25:/mnt/c/Users/31740/Desktop/newcore/include/linux/slab.h **** 	_SLAB_CONSISTENCY_CHECKS,
  26:/mnt/c/Users/31740/Desktop/newcore/include/linux/slab.h **** 	_SLAB_RED_ZONE,
  27:/mnt/c/Users/31740/Desktop/newcore/include/linux/slab.h **** 	_SLAB_POISON,
ARM GAS  /tmp/ccyCLDig.s 			page 58


  28:/mnt/c/Users/31740/Desktop/newcore/include/linux/slab.h **** 	_SLAB_KMALLOC,
  29:/mnt/c/Users/31740/Desktop/newcore/include/linux/slab.h **** 	_SLAB_HWCACHE_ALIGN,
  30:/mnt/c/Users/31740/Desktop/newcore/include/linux/slab.h **** 	_SLAB_CACHE_DMA,
  31:/mnt/c/Users/31740/Desktop/newcore/include/linux/slab.h **** 	_SLAB_CACHE_DMA32,
  32:/mnt/c/Users/31740/Desktop/newcore/include/linux/slab.h **** 	_SLAB_STORE_USER,
  33:/mnt/c/Users/31740/Desktop/newcore/include/linux/slab.h **** 	_SLAB_PANIC,
  34:/mnt/c/Users/31740/Desktop/newcore/include/linux/slab.h **** 	_SLAB_TYPESAFE_BY_RCU,
  35:/mnt/c/Users/31740/Desktop/newcore/include/linux/slab.h **** 	_SLAB_TRACE,
  36:/mnt/c/Users/31740/Desktop/newcore/include/linux/slab.h **** #ifdef CONFIG_DEBUG_OBJECTS
  37:/mnt/c/Users/31740/Desktop/newcore/include/linux/slab.h **** 	_SLAB_DEBUG_OBJECTS,
  38:/mnt/c/Users/31740/Desktop/newcore/include/linux/slab.h **** #endif
  39:/mnt/c/Users/31740/Desktop/newcore/include/linux/slab.h **** 	_SLAB_NOLEAKTRACE,
  40:/mnt/c/Users/31740/Desktop/newcore/include/linux/slab.h **** 	_SLAB_NO_MERGE,
  41:/mnt/c/Users/31740/Desktop/newcore/include/linux/slab.h **** #ifdef CONFIG_FAILSLAB
  42:/mnt/c/Users/31740/Desktop/newcore/include/linux/slab.h **** 	_SLAB_FAILSLAB,
  43:/mnt/c/Users/31740/Desktop/newcore/include/linux/slab.h **** #endif
  44:/mnt/c/Users/31740/Desktop/newcore/include/linux/slab.h **** #ifdef CONFIG_MEMCG
  45:/mnt/c/Users/31740/Desktop/newcore/include/linux/slab.h **** 	_SLAB_ACCOUNT,
  46:/mnt/c/Users/31740/Desktop/newcore/include/linux/slab.h **** #endif
  47:/mnt/c/Users/31740/Desktop/newcore/include/linux/slab.h **** #ifdef CONFIG_KASAN_GENERIC
  48:/mnt/c/Users/31740/Desktop/newcore/include/linux/slab.h **** 	_SLAB_KASAN,
  49:/mnt/c/Users/31740/Desktop/newcore/include/linux/slab.h **** #endif
  50:/mnt/c/Users/31740/Desktop/newcore/include/linux/slab.h **** 	_SLAB_NO_USER_FLAGS,
  51:/mnt/c/Users/31740/Desktop/newcore/include/linux/slab.h **** #ifdef CONFIG_KFENCE
  52:/mnt/c/Users/31740/Desktop/newcore/include/linux/slab.h **** 	_SLAB_SKIP_KFENCE,
  53:/mnt/c/Users/31740/Desktop/newcore/include/linux/slab.h **** #endif
  54:/mnt/c/Users/31740/Desktop/newcore/include/linux/slab.h **** #ifndef CONFIG_SLUB_TINY
  55:/mnt/c/Users/31740/Desktop/newcore/include/linux/slab.h **** 	_SLAB_RECLAIM_ACCOUNT,
  56:/mnt/c/Users/31740/Desktop/newcore/include/linux/slab.h **** #endif
  57:/mnt/c/Users/31740/Desktop/newcore/include/linux/slab.h **** 	_SLAB_OBJECT_POISON,
  58:/mnt/c/Users/31740/Desktop/newcore/include/linux/slab.h **** 	_SLAB_CMPXCHG_DOUBLE,
  59:/mnt/c/Users/31740/Desktop/newcore/include/linux/slab.h **** #ifdef CONFIG_SLAB_OBJ_EXT
  60:/mnt/c/Users/31740/Desktop/newcore/include/linux/slab.h **** 	_SLAB_NO_OBJ_EXT,
  61:/mnt/c/Users/31740/Desktop/newcore/include/linux/slab.h **** #endif
  62:/mnt/c/Users/31740/Desktop/newcore/include/linux/slab.h **** 	_SLAB_FLAGS_LAST_BIT
  63:/mnt/c/Users/31740/Desktop/newcore/include/linux/slab.h **** };
  64:/mnt/c/Users/31740/Desktop/newcore/include/linux/slab.h **** 
  65:/mnt/c/Users/31740/Desktop/newcore/include/linux/slab.h **** 
  66:/mnt/c/Users/31740/Desktop/newcore/include/linux/slab.h **** 
  67:/mnt/c/Users/31740/Desktop/newcore/include/linux/slab.h **** #define __SLAB_FLAG_BIT(nr)	((slab_flags_t __force)(1U << (nr)))
  68:/mnt/c/Users/31740/Desktop/newcore/include/linux/slab.h **** #define __SLAB_FLAG_UNUSED	((slab_flags_t __force)(0U))
  69:/mnt/c/Users/31740/Desktop/newcore/include/linux/slab.h **** 
  70:/mnt/c/Users/31740/Desktop/newcore/include/linux/slab.h **** /*
  71:/mnt/c/Users/31740/Desktop/newcore/include/linux/slab.h ****  * Flags to pass to kmem_cache_create().
  72:/mnt/c/Users/31740/Desktop/newcore/include/linux/slab.h ****  * The ones marked DEBUG need CONFIG_SLUB_DEBUG enabled, otherwise are no-op
  73:/mnt/c/Users/31740/Desktop/newcore/include/linux/slab.h ****  */
  74:/mnt/c/Users/31740/Desktop/newcore/include/linux/slab.h **** /* DEBUG: Perform (expensive) checks on alloc/free */
  75:/mnt/c/Users/31740/Desktop/newcore/include/linux/slab.h **** #define SLAB_CONSISTENCY_CHECKS	__SLAB_FLAG_BIT(_SLAB_CONSISTENCY_CHECKS)
  76:/mnt/c/Users/31740/Desktop/newcore/include/linux/slab.h **** /* DEBUG: Red zone objs in a cache */
  77:/mnt/c/Users/31740/Desktop/newcore/include/linux/slab.h **** #define SLAB_RED_ZONE		__SLAB_FLAG_BIT(_SLAB_RED_ZONE)
  78:/mnt/c/Users/31740/Desktop/newcore/include/linux/slab.h **** /* DEBUG: Poison objects */
  79:/mnt/c/Users/31740/Desktop/newcore/include/linux/slab.h **** #define SLAB_POISON		__SLAB_FLAG_BIT(_SLAB_POISON)
  80:/mnt/c/Users/31740/Desktop/newcore/include/linux/slab.h **** /* Indicate a kmalloc slab */
  81:/mnt/c/Users/31740/Desktop/newcore/include/linux/slab.h **** #define SLAB_KMALLOC		__SLAB_FLAG_BIT(_SLAB_KMALLOC)
  82:/mnt/c/Users/31740/Desktop/newcore/include/linux/slab.h **** /**
  83:/mnt/c/Users/31740/Desktop/newcore/include/linux/slab.h ****  * define SLAB_HWCACHE_ALIGN - Align objects on cache line boundaries.
  84:/mnt/c/Users/31740/Desktop/newcore/include/linux/slab.h ****  *
ARM GAS  /tmp/ccyCLDig.s 			page 59


  85:/mnt/c/Users/31740/Desktop/newcore/include/linux/slab.h ****  * Sufficiently large objects are aligned on cache line boundary. For object
  86:/mnt/c/Users/31740/Desktop/newcore/include/linux/slab.h ****  * size smaller than a half of cache line size, the alignment is on the half of
  87:/mnt/c/Users/31740/Desktop/newcore/include/linux/slab.h ****  * cache line size. In general, if object size is smaller than 1/2^n of cache
  88:/mnt/c/Users/31740/Desktop/newcore/include/linux/slab.h ****  * line size, the alignment is adjusted to 1/2^n.
  89:/mnt/c/Users/31740/Desktop/newcore/include/linux/slab.h ****  *
  90:/mnt/c/Users/31740/Desktop/newcore/include/linux/slab.h ****  * If explicit alignment is also requested by the respective
  91:/mnt/c/Users/31740/Desktop/newcore/include/linux/slab.h ****  * &struct kmem_cache_args field, the greater of both is alignments is applied.
  92:/mnt/c/Users/31740/Desktop/newcore/include/linux/slab.h ****  */
  93:/mnt/c/Users/31740/Desktop/newcore/include/linux/slab.h **** #define SLAB_HWCACHE_ALIGN	__SLAB_FLAG_BIT(_SLAB_HWCACHE_ALIGN)
  94:/mnt/c/Users/31740/Desktop/newcore/include/linux/slab.h **** /* Use GFP_DMA memory */
  95:/mnt/c/Users/31740/Desktop/newcore/include/linux/slab.h **** #define SLAB_CACHE_DMA		__SLAB_FLAG_BIT(_SLAB_CACHE_DMA)
  96:/mnt/c/Users/31740/Desktop/newcore/include/linux/slab.h **** /* Use GFP_DMA32 memory */
  97:/mnt/c/Users/31740/Desktop/newcore/include/linux/slab.h **** #define SLAB_CACHE_DMA32	__SLAB_FLAG_BIT(_SLAB_CACHE_DMA32)
  98:/mnt/c/Users/31740/Desktop/newcore/include/linux/slab.h **** /* DEBUG: Store the last owner for bug hunting */
  99:/mnt/c/Users/31740/Desktop/newcore/include/linux/slab.h **** #define SLAB_STORE_USER		__SLAB_FLAG_BIT(_SLAB_STORE_USER)
 100:/mnt/c/Users/31740/Desktop/newcore/include/linux/slab.h **** /* Panic if kmem_cache_create() fails */
 101:/mnt/c/Users/31740/Desktop/newcore/include/linux/slab.h **** #define SLAB_PANIC		__SLAB_FLAG_BIT(_SLAB_PANIC)
 102:/mnt/c/Users/31740/Desktop/newcore/include/linux/slab.h **** /**
 103:/mnt/c/Users/31740/Desktop/newcore/include/linux/slab.h ****  * define SLAB_TYPESAFE_BY_RCU - **WARNING** READ THIS!
 104:/mnt/c/Users/31740/Desktop/newcore/include/linux/slab.h ****  *
 105:/mnt/c/Users/31740/Desktop/newcore/include/linux/slab.h ****  * This delays freeing the SLAB page by a grace period, it does _NOT_
 106:/mnt/c/Users/31740/Desktop/newcore/include/linux/slab.h ****  * delay object freeing. This means that if you do kmem_cache_free()
 107:/mnt/c/Users/31740/Desktop/newcore/include/linux/slab.h ****  * that memory location is free to be reused at any time. Thus it may
 108:/mnt/c/Users/31740/Desktop/newcore/include/linux/slab.h ****  * be possible to see another object there in the same RCU grace period.
 109:/mnt/c/Users/31740/Desktop/newcore/include/linux/slab.h ****  *
 110:/mnt/c/Users/31740/Desktop/newcore/include/linux/slab.h ****  * This feature only ensures the memory location backing the object
 111:/mnt/c/Users/31740/Desktop/newcore/include/linux/slab.h ****  * stays valid, the trick to using this is relying on an independent
 112:/mnt/c/Users/31740/Desktop/newcore/include/linux/slab.h ****  * object validation pass. Something like:
 113:/mnt/c/Users/31740/Desktop/newcore/include/linux/slab.h ****  *
 114:/mnt/c/Users/31740/Desktop/newcore/include/linux/slab.h ****  * ::
 115:/mnt/c/Users/31740/Desktop/newcore/include/linux/slab.h ****  *
 116:/mnt/c/Users/31740/Desktop/newcore/include/linux/slab.h ****  *  begin:
 117:/mnt/c/Users/31740/Desktop/newcore/include/linux/slab.h ****  *   rcu_read_lock();
 118:/mnt/c/Users/31740/Desktop/newcore/include/linux/slab.h ****  *   obj = lockless_lookup(key);
 119:/mnt/c/Users/31740/Desktop/newcore/include/linux/slab.h ****  *   if (obj) {
 120:/mnt/c/Users/31740/Desktop/newcore/include/linux/slab.h ****  *     if (!try_get_ref(obj)) // might fail for free objects
 121:/mnt/c/Users/31740/Desktop/newcore/include/linux/slab.h ****  *       rcu_read_unlock();
 122:/mnt/c/Users/31740/Desktop/newcore/include/linux/slab.h ****  *       goto begin;
 123:/mnt/c/Users/31740/Desktop/newcore/include/linux/slab.h ****  *
 124:/mnt/c/Users/31740/Desktop/newcore/include/linux/slab.h ****  *     if (obj->key != key) { // not the object we expected
 125:/mnt/c/Users/31740/Desktop/newcore/include/linux/slab.h ****  *       put_ref(obj);
 126:/mnt/c/Users/31740/Desktop/newcore/include/linux/slab.h ****  *       rcu_read_unlock();
 127:/mnt/c/Users/31740/Desktop/newcore/include/linux/slab.h ****  *       goto begin;
 128:/mnt/c/Users/31740/Desktop/newcore/include/linux/slab.h ****  *     }
 129:/mnt/c/Users/31740/Desktop/newcore/include/linux/slab.h ****  *   }
 130:/mnt/c/Users/31740/Desktop/newcore/include/linux/slab.h ****  *  rcu_read_unlock();
 131:/mnt/c/Users/31740/Desktop/newcore/include/linux/slab.h ****  *
 132:/mnt/c/Users/31740/Desktop/newcore/include/linux/slab.h ****  * This is useful if we need to approach a kernel structure obliquely,
 133:/mnt/c/Users/31740/Desktop/newcore/include/linux/slab.h ****  * from its address obtained without the usual locking. We can lock
 134:/mnt/c/Users/31740/Desktop/newcore/include/linux/slab.h ****  * the structure to stabilize it and check it's still at the given address,
 135:/mnt/c/Users/31740/Desktop/newcore/include/linux/slab.h ****  * only if we can be sure that the memory has not been meanwhile reused
 136:/mnt/c/Users/31740/Desktop/newcore/include/linux/slab.h ****  * for some other kind of object (which our subsystem's lock might corrupt).
 137:/mnt/c/Users/31740/Desktop/newcore/include/linux/slab.h ****  *
 138:/mnt/c/Users/31740/Desktop/newcore/include/linux/slab.h ****  * rcu_read_lock before reading the address, then rcu_read_unlock after
 139:/mnt/c/Users/31740/Desktop/newcore/include/linux/slab.h ****  * taking the spinlock within the structure expected at that address.
 140:/mnt/c/Users/31740/Desktop/newcore/include/linux/slab.h ****  *
 141:/mnt/c/Users/31740/Desktop/newcore/include/linux/slab.h ****  * Note that it is not possible to acquire a lock within a structure
ARM GAS  /tmp/ccyCLDig.s 			page 60


 142:/mnt/c/Users/31740/Desktop/newcore/include/linux/slab.h ****  * allocated with SLAB_TYPESAFE_BY_RCU without first acquiring a reference
 143:/mnt/c/Users/31740/Desktop/newcore/include/linux/slab.h ****  * as described above.  The reason is that SLAB_TYPESAFE_BY_RCU pages
 144:/mnt/c/Users/31740/Desktop/newcore/include/linux/slab.h ****  * are not zeroed before being given to the slab, which means that any
 145:/mnt/c/Users/31740/Desktop/newcore/include/linux/slab.h ****  * locks must be initialized after each and every kmem_struct_alloc().
 146:/mnt/c/Users/31740/Desktop/newcore/include/linux/slab.h ****  * Alternatively, make the ctor passed to kmem_cache_create() initialize
 147:/mnt/c/Users/31740/Desktop/newcore/include/linux/slab.h ****  * the locks at page-allocation time, as is done in __i915_request_ctor(),
 148:/mnt/c/Users/31740/Desktop/newcore/include/linux/slab.h ****  * sighand_ctor(), and anon_vma_ctor().  Such a ctor permits readers
 149:/mnt/c/Users/31740/Desktop/newcore/include/linux/slab.h ****  * to safely acquire those ctor-initialized locks under rcu_read_lock()
 150:/mnt/c/Users/31740/Desktop/newcore/include/linux/slab.h ****  * protection.
 151:/mnt/c/Users/31740/Desktop/newcore/include/linux/slab.h ****  *
 152:/mnt/c/Users/31740/Desktop/newcore/include/linux/slab.h ****  * Note that SLAB_TYPESAFE_BY_RCU was originally named SLAB_DESTROY_BY_RCU.
 153:/mnt/c/Users/31740/Desktop/newcore/include/linux/slab.h ****  */
 154:/mnt/c/Users/31740/Desktop/newcore/include/linux/slab.h **** #define SLAB_TYPESAFE_BY_RCU	__SLAB_FLAG_BIT(_SLAB_TYPESAFE_BY_RCU)
 155:/mnt/c/Users/31740/Desktop/newcore/include/linux/slab.h **** /* Trace allocations and frees */
 156:/mnt/c/Users/31740/Desktop/newcore/include/linux/slab.h **** #define SLAB_TRACE		__SLAB_FLAG_BIT(_SLAB_TRACE)
 157:/mnt/c/Users/31740/Desktop/newcore/include/linux/slab.h **** 
 158:/mnt/c/Users/31740/Desktop/newcore/include/linux/slab.h **** /* Flag to prevent checks on free */
 159:/mnt/c/Users/31740/Desktop/newcore/include/linux/slab.h **** #ifdef CONFIG_DEBUG_OBJECTS
 160:/mnt/c/Users/31740/Desktop/newcore/include/linux/slab.h **** # define SLAB_DEBUG_OBJECTS	__SLAB_FLAG_BIT(_SLAB_DEBUG_OBJECTS)
 161:/mnt/c/Users/31740/Desktop/newcore/include/linux/slab.h **** #else
 162:/mnt/c/Users/31740/Desktop/newcore/include/linux/slab.h **** # define SLAB_DEBUG_OBJECTS	__SLAB_FLAG_UNUSED
 163:/mnt/c/Users/31740/Desktop/newcore/include/linux/slab.h **** #endif
 164:/mnt/c/Users/31740/Desktop/newcore/include/linux/slab.h **** 
 165:/mnt/c/Users/31740/Desktop/newcore/include/linux/slab.h **** /* Avoid kmemleak tracing */
 166:/mnt/c/Users/31740/Desktop/newcore/include/linux/slab.h **** #define SLAB_NOLEAKTRACE	__SLAB_FLAG_BIT(_SLAB_NOLEAKTRACE)
 167:/mnt/c/Users/31740/Desktop/newcore/include/linux/slab.h **** 
 168:/mnt/c/Users/31740/Desktop/newcore/include/linux/slab.h **** /*
 169:/mnt/c/Users/31740/Desktop/newcore/include/linux/slab.h ****  * Prevent merging with compatible kmem caches. This flag should be used
 170:/mnt/c/Users/31740/Desktop/newcore/include/linux/slab.h ****  * cautiously. Valid use cases:
 171:/mnt/c/Users/31740/Desktop/newcore/include/linux/slab.h ****  *
 172:/mnt/c/Users/31740/Desktop/newcore/include/linux/slab.h ****  * - caches created for self-tests (e.g. kunit)
 173:/mnt/c/Users/31740/Desktop/newcore/include/linux/slab.h ****  * - general caches created and used by a subsystem, only when a
 174:/mnt/c/Users/31740/Desktop/newcore/include/linux/slab.h ****  *   (subsystem-specific) debug option is enabled
 175:/mnt/c/Users/31740/Desktop/newcore/include/linux/slab.h ****  * - performance critical caches, should be very rare and consulted with slab
 176:/mnt/c/Users/31740/Desktop/newcore/include/linux/slab.h ****  *   maintainers, and not used together with CONFIG_SLUB_TINY
 177:/mnt/c/Users/31740/Desktop/newcore/include/linux/slab.h ****  */
 178:/mnt/c/Users/31740/Desktop/newcore/include/linux/slab.h **** #define SLAB_NO_MERGE		__SLAB_FLAG_BIT(_SLAB_NO_MERGE)
 179:/mnt/c/Users/31740/Desktop/newcore/include/linux/slab.h **** 
 180:/mnt/c/Users/31740/Desktop/newcore/include/linux/slab.h **** /* Fault injection mark */
 181:/mnt/c/Users/31740/Desktop/newcore/include/linux/slab.h **** #ifdef CONFIG_FAILSLAB
 182:/mnt/c/Users/31740/Desktop/newcore/include/linux/slab.h **** # define SLAB_FAILSLAB		__SLAB_FLAG_BIT(_SLAB_FAILSLAB)
 183:/mnt/c/Users/31740/Desktop/newcore/include/linux/slab.h **** #else
 184:/mnt/c/Users/31740/Desktop/newcore/include/linux/slab.h **** # define SLAB_FAILSLAB		__SLAB_FLAG_UNUSED
 185:/mnt/c/Users/31740/Desktop/newcore/include/linux/slab.h **** #endif
 186:/mnt/c/Users/31740/Desktop/newcore/include/linux/slab.h **** /**
 187:/mnt/c/Users/31740/Desktop/newcore/include/linux/slab.h ****  * define SLAB_ACCOUNT - Account allocations to memcg.
 188:/mnt/c/Users/31740/Desktop/newcore/include/linux/slab.h ****  *
 189:/mnt/c/Users/31740/Desktop/newcore/include/linux/slab.h ****  * All object allocations from this cache will be memcg accounted, regardless of
 190:/mnt/c/Users/31740/Desktop/newcore/include/linux/slab.h ****  * __GFP_ACCOUNT being or not being passed to individual allocations.
 191:/mnt/c/Users/31740/Desktop/newcore/include/linux/slab.h ****  */
 192:/mnt/c/Users/31740/Desktop/newcore/include/linux/slab.h **** #ifdef CONFIG_MEMCG
 193:/mnt/c/Users/31740/Desktop/newcore/include/linux/slab.h **** # define SLAB_ACCOUNT		__SLAB_FLAG_BIT(_SLAB_ACCOUNT)
 194:/mnt/c/Users/31740/Desktop/newcore/include/linux/slab.h **** #else
 195:/mnt/c/Users/31740/Desktop/newcore/include/linux/slab.h **** # define SLAB_ACCOUNT		__SLAB_FLAG_UNUSED
 196:/mnt/c/Users/31740/Desktop/newcore/include/linux/slab.h **** #endif
 197:/mnt/c/Users/31740/Desktop/newcore/include/linux/slab.h **** 
 198:/mnt/c/Users/31740/Desktop/newcore/include/linux/slab.h **** #ifdef CONFIG_KASAN_GENERIC
ARM GAS  /tmp/ccyCLDig.s 			page 61


 199:/mnt/c/Users/31740/Desktop/newcore/include/linux/slab.h **** #define SLAB_KASAN		__SLAB_FLAG_BIT(_SLAB_KASAN)
 200:/mnt/c/Users/31740/Desktop/newcore/include/linux/slab.h **** #else
 201:/mnt/c/Users/31740/Desktop/newcore/include/linux/slab.h **** #define SLAB_KASAN		__SLAB_FLAG_UNUSED
 202:/mnt/c/Users/31740/Desktop/newcore/include/linux/slab.h **** #endif
 203:/mnt/c/Users/31740/Desktop/newcore/include/linux/slab.h **** 
 204:/mnt/c/Users/31740/Desktop/newcore/include/linux/slab.h **** /*
 205:/mnt/c/Users/31740/Desktop/newcore/include/linux/slab.h ****  * Ignore user specified debugging flags.
 206:/mnt/c/Users/31740/Desktop/newcore/include/linux/slab.h ****  * Intended for caches created for self-tests so they have only flags
 207:/mnt/c/Users/31740/Desktop/newcore/include/linux/slab.h ****  * specified in the code and other flags are ignored.
 208:/mnt/c/Users/31740/Desktop/newcore/include/linux/slab.h ****  */
 209:/mnt/c/Users/31740/Desktop/newcore/include/linux/slab.h **** #define SLAB_NO_USER_FLAGS	__SLAB_FLAG_BIT(_SLAB_NO_USER_FLAGS)
 210:/mnt/c/Users/31740/Desktop/newcore/include/linux/slab.h **** 
 211:/mnt/c/Users/31740/Desktop/newcore/include/linux/slab.h **** #ifdef CONFIG_KFENCE
 212:/mnt/c/Users/31740/Desktop/newcore/include/linux/slab.h **** #define SLAB_SKIP_KFENCE	__SLAB_FLAG_BIT(_SLAB_SKIP_KFENCE)
 213:/mnt/c/Users/31740/Desktop/newcore/include/linux/slab.h **** #else
 214:/mnt/c/Users/31740/Desktop/newcore/include/linux/slab.h **** #define SLAB_SKIP_KFENCE	__SLAB_FLAG_UNUSED
 215:/mnt/c/Users/31740/Desktop/newcore/include/linux/slab.h **** #endif
 216:/mnt/c/Users/31740/Desktop/newcore/include/linux/slab.h **** 
 217:/mnt/c/Users/31740/Desktop/newcore/include/linux/slab.h **** /* The following flags affect the page allocator grouping pages by mobility */
 218:/mnt/c/Users/31740/Desktop/newcore/include/linux/slab.h **** /**
 219:/mnt/c/Users/31740/Desktop/newcore/include/linux/slab.h ****  * define SLAB_RECLAIM_ACCOUNT - Objects are reclaimable.
 220:/mnt/c/Users/31740/Desktop/newcore/include/linux/slab.h ****  *
 221:/mnt/c/Users/31740/Desktop/newcore/include/linux/slab.h ****  * Use this flag for caches that have an associated shrinker. As a result, slab
 222:/mnt/c/Users/31740/Desktop/newcore/include/linux/slab.h ****  * pages are allocated with __GFP_RECLAIMABLE, which affects grouping pages by
 223:/mnt/c/Users/31740/Desktop/newcore/include/linux/slab.h ****  * mobility, and are accounted in SReclaimable counter in /proc/meminfo
 224:/mnt/c/Users/31740/Desktop/newcore/include/linux/slab.h ****  */
 225:/mnt/c/Users/31740/Desktop/newcore/include/linux/slab.h **** #ifndef CONFIG_SLUB_TINY
 226:/mnt/c/Users/31740/Desktop/newcore/include/linux/slab.h **** #define SLAB_RECLAIM_ACCOUNT	__SLAB_FLAG_BIT(_SLAB_RECLAIM_ACCOUNT)
 227:/mnt/c/Users/31740/Desktop/newcore/include/linux/slab.h **** #else
 228:/mnt/c/Users/31740/Desktop/newcore/include/linux/slab.h **** #define SLAB_RECLAIM_ACCOUNT	__SLAB_FLAG_UNUSED
 229:/mnt/c/Users/31740/Desktop/newcore/include/linux/slab.h **** #endif
 230:/mnt/c/Users/31740/Desktop/newcore/include/linux/slab.h **** #define SLAB_TEMPORARY		SLAB_RECLAIM_ACCOUNT	/* Objects are short-lived */
 231:/mnt/c/Users/31740/Desktop/newcore/include/linux/slab.h **** 
 232:/mnt/c/Users/31740/Desktop/newcore/include/linux/slab.h **** /* Slab created using create_boot_cache */
 233:/mnt/c/Users/31740/Desktop/newcore/include/linux/slab.h **** #ifdef CONFIG_SLAB_OBJ_EXT
 234:/mnt/c/Users/31740/Desktop/newcore/include/linux/slab.h **** #define SLAB_NO_OBJ_EXT		__SLAB_FLAG_BIT(_SLAB_NO_OBJ_EXT)
 235:/mnt/c/Users/31740/Desktop/newcore/include/linux/slab.h **** #else
 236:/mnt/c/Users/31740/Desktop/newcore/include/linux/slab.h **** #define SLAB_NO_OBJ_EXT		__SLAB_FLAG_UNUSED
 237:/mnt/c/Users/31740/Desktop/newcore/include/linux/slab.h **** #endif
 238:/mnt/c/Users/31740/Desktop/newcore/include/linux/slab.h **** 
 239:/mnt/c/Users/31740/Desktop/newcore/include/linux/slab.h **** /*
 240:/mnt/c/Users/31740/Desktop/newcore/include/linux/slab.h ****  * freeptr_t represents a SLUB freelist pointer, which might be encoded
 241:/mnt/c/Users/31740/Desktop/newcore/include/linux/slab.h ****  * and not dereferenceable if CONFIG_SLAB_FREELIST_HARDENED is enabled.
 242:/mnt/c/Users/31740/Desktop/newcore/include/linux/slab.h ****  */
 243:/mnt/c/Users/31740/Desktop/newcore/include/linux/slab.h **** typedef struct { unsigned long v; } freeptr_t;
 244:/mnt/c/Users/31740/Desktop/newcore/include/linux/slab.h **** 
 245:/mnt/c/Users/31740/Desktop/newcore/include/linux/slab.h **** /*
 246:/mnt/c/Users/31740/Desktop/newcore/include/linux/slab.h ****  * ZERO_SIZE_PTR will be returned for zero sized kmalloc requests.
 247:/mnt/c/Users/31740/Desktop/newcore/include/linux/slab.h ****  *
 248:/mnt/c/Users/31740/Desktop/newcore/include/linux/slab.h ****  * Dereferencing ZERO_SIZE_PTR will lead to a distinct access fault.
 249:/mnt/c/Users/31740/Desktop/newcore/include/linux/slab.h ****  *
 250:/mnt/c/Users/31740/Desktop/newcore/include/linux/slab.h ****  * ZERO_SIZE_PTR can be passed to kfree though in the same way that NULL can.
 251:/mnt/c/Users/31740/Desktop/newcore/include/linux/slab.h ****  * Both make kfree a no-op.
 252:/mnt/c/Users/31740/Desktop/newcore/include/linux/slab.h ****  */
 253:/mnt/c/Users/31740/Desktop/newcore/include/linux/slab.h **** #define ZERO_SIZE_PTR ((void *)16)
 254:/mnt/c/Users/31740/Desktop/newcore/include/linux/slab.h **** 
 255:/mnt/c/Users/31740/Desktop/newcore/include/linux/slab.h **** #define ZERO_OR_NULL_PTR(x) ((unsigned long)(x) <= \
ARM GAS  /tmp/ccyCLDig.s 			page 62


 256:/mnt/c/Users/31740/Desktop/newcore/include/linux/slab.h **** 				(unsigned long)ZERO_SIZE_PTR)
 257:/mnt/c/Users/31740/Desktop/newcore/include/linux/slab.h **** 
 258:/mnt/c/Users/31740/Desktop/newcore/include/linux/slab.h **** 
 259:/mnt/c/Users/31740/Desktop/newcore/include/linux/slab.h **** 
 260:/mnt/c/Users/31740/Desktop/newcore/include/linux/slab.h **** 
 261:/mnt/c/Users/31740/Desktop/newcore/include/linux/slab.h **** 
 262:/mnt/c/Users/31740/Desktop/newcore/include/linux/slab.h **** #ifdef CONFIG_SLUB_CPU_PARTIAL
 263:/mnt/c/Users/31740/Desktop/newcore/include/linux/slab.h **** #define slub_percpu_partial(c)			((c)->partial)
 264:/mnt/c/Users/31740/Desktop/newcore/include/linux/slab.h **** 
 265:/mnt/c/Users/31740/Desktop/newcore/include/linux/slab.h **** #define slub_set_percpu_partial(c, p)		\
 266:/mnt/c/Users/31740/Desktop/newcore/include/linux/slab.h **** ({						\
 267:/mnt/c/Users/31740/Desktop/newcore/include/linux/slab.h **** 	slub_percpu_partial(c) = (p)->next;	\
 268:/mnt/c/Users/31740/Desktop/newcore/include/linux/slab.h **** })
 269:/mnt/c/Users/31740/Desktop/newcore/include/linux/slab.h **** 
 270:/mnt/c/Users/31740/Desktop/newcore/include/linux/slab.h **** #define slub_percpu_partial_read_once(c)	READ_ONCE(slub_percpu_partial(c))
 271:/mnt/c/Users/31740/Desktop/newcore/include/linux/slab.h **** #else
 272:/mnt/c/Users/31740/Desktop/newcore/include/linux/slab.h **** #define slub_percpu_partial(c)			NULL
 273:/mnt/c/Users/31740/Desktop/newcore/include/linux/slab.h **** 
 274:/mnt/c/Users/31740/Desktop/newcore/include/linux/slab.h **** #define slub_set_percpu_partial(c, p)
 275:/mnt/c/Users/31740/Desktop/newcore/include/linux/slab.h **** 
 276:/mnt/c/Users/31740/Desktop/newcore/include/linux/slab.h **** #define slub_percpu_partial_read_once(c)	NULL
 277:/mnt/c/Users/31740/Desktop/newcore/include/linux/slab.h **** 
 278:/mnt/c/Users/31740/Desktop/newcore/include/linux/slab.h **** 
 279:/mnt/c/Users/31740/Desktop/newcore/include/linux/slab.h **** #endif // CONFIG_SLUB_CPU_PARTIAL
 280:/mnt/c/Users/31740/Desktop/newcore/include/linux/slab.h **** 
 281:/mnt/c/Users/31740/Desktop/newcore/include/linux/slab.h **** /*
 282:/mnt/c/Users/31740/Desktop/newcore/include/linux/slab.h **** 	* Word size structure that can be atomically updated or read and that
 283:/mnt/c/Users/31740/Desktop/newcore/include/linux/slab.h **** 	* contains both the order and the number of objects that a slab of the
 284:/mnt/c/Users/31740/Desktop/newcore/include/linux/slab.h **** 	* given order would contain.
 285:/mnt/c/Users/31740/Desktop/newcore/include/linux/slab.h **** 	*/				
 286:/mnt/c/Users/31740/Desktop/newcore/include/linux/slab.h **** struct kmem_cache_order_objects {
 287:/mnt/c/Users/31740/Desktop/newcore/include/linux/slab.h **** 	unsigned int x;
 288:/mnt/c/Users/31740/Desktop/newcore/include/linux/slab.h **** };
 289:/mnt/c/Users/31740/Desktop/newcore/include/linux/slab.h **** 
 290:/mnt/c/Users/31740/Desktop/newcore/include/linux/slab.h **** struct kmem_cache_node {
 291:/mnt/c/Users/31740/Desktop/newcore/include/linux/slab.h **** 	spinlock_t list_lock;
 292:/mnt/c/Users/31740/Desktop/newcore/include/linux/slab.h **** 	unsigned long nr_partial;
 293:/mnt/c/Users/31740/Desktop/newcore/include/linux/slab.h **** 	struct list_head partial;
 294:/mnt/c/Users/31740/Desktop/newcore/include/linux/slab.h **** #ifdef CONFIG_SLUB_DEBUG
 295:/mnt/c/Users/31740/Desktop/newcore/include/linux/slab.h **** 	atomic_long_t nr_slabs;
 296:/mnt/c/Users/31740/Desktop/newcore/include/linux/slab.h **** 	atomic_long_t total_objects;
 297:/mnt/c/Users/31740/Desktop/newcore/include/linux/slab.h **** 	struct list_head full;
 298:/mnt/c/Users/31740/Desktop/newcore/include/linux/slab.h **** #endif
 299:/mnt/c/Users/31740/Desktop/newcore/include/linux/slab.h **** };
 300:/mnt/c/Users/31740/Desktop/newcore/include/linux/slab.h **** 
 301:/mnt/c/Users/31740/Desktop/newcore/include/linux/slab.h **** struct kmem_cache {
 302:/mnt/c/Users/31740/Desktop/newcore/include/linux/slab.h **** 	#ifndef CONFIG_SLUB_TINY
 303:/mnt/c/Users/31740/Desktop/newcore/include/linux/slab.h **** 	//	struct kmem_cache_cpu __percpu *cpu_slab;
 304:/mnt/c/Users/31740/Desktop/newcore/include/linux/slab.h **** 	#endif
 305:/mnt/c/Users/31740/Desktop/newcore/include/linux/slab.h **** 		/* Used for retrieving partial slabs, etc. */
 306:/mnt/c/Users/31740/Desktop/newcore/include/linux/slab.h **** 		slab_flags_t flags;
 307:/mnt/c/Users/31740/Desktop/newcore/include/linux/slab.h **** 		unsigned long min_partial;
 308:/mnt/c/Users/31740/Desktop/newcore/include/linux/slab.h **** 		unsigned int size;		/* Object size including metadata */
 309:/mnt/c/Users/31740/Desktop/newcore/include/linux/slab.h **** 		unsigned int object_size;	/* Object size without metadata */
 310:/mnt/c/Users/31740/Desktop/newcore/include/linux/slab.h **** 		struct reciprocal_value reciprocal_size;
 311:/mnt/c/Users/31740/Desktop/newcore/include/linux/slab.h **** 		unsigned int offset;		/* Free pointer offset */
 312:/mnt/c/Users/31740/Desktop/newcore/include/linux/slab.h **** 	#ifdef CONFIG_SLUB_CPU_PARTIAL
ARM GAS  /tmp/ccyCLDig.s 			page 63


 313:/mnt/c/Users/31740/Desktop/newcore/include/linux/slab.h **** 		/* Number of per cpu partial objects to keep around */
 314:/mnt/c/Users/31740/Desktop/newcore/include/linux/slab.h **** 		unsigned int cpu_partial;
 315:/mnt/c/Users/31740/Desktop/newcore/include/linux/slab.h **** 		/* Number of per cpu partial slabs to keep around */
 316:/mnt/c/Users/31740/Desktop/newcore/include/linux/slab.h **** 		unsigned int cpu_partial_slabs;
 317:/mnt/c/Users/31740/Desktop/newcore/include/linux/slab.h **** 	#endif
 318:/mnt/c/Users/31740/Desktop/newcore/include/linux/slab.h **** 		struct kmem_cache_order_objects oo;
 319:/mnt/c/Users/31740/Desktop/newcore/include/linux/slab.h **** 	
 320:/mnt/c/Users/31740/Desktop/newcore/include/linux/slab.h **** 		/* Allocation and freeing of slabs */
 321:/mnt/c/Users/31740/Desktop/newcore/include/linux/slab.h **** 		struct kmem_cache_order_objects min;
 322:/mnt/c/Users/31740/Desktop/newcore/include/linux/slab.h **** 		gfp_t allocflags;		/* gfp flags to use on each alloc */
 323:/mnt/c/Users/31740/Desktop/newcore/include/linux/slab.h **** 		int refcount;			/* Refcount for slab cache destroy */
 324:/mnt/c/Users/31740/Desktop/newcore/include/linux/slab.h **** 		void (*ctor)(void *object);	/* Object constructor */
 325:/mnt/c/Users/31740/Desktop/newcore/include/linux/slab.h **** 		unsigned int inuse;		/* Offset to metadata */
 326:/mnt/c/Users/31740/Desktop/newcore/include/linux/slab.h **** 		unsigned int align;		/* Alignment */
 327:/mnt/c/Users/31740/Desktop/newcore/include/linux/slab.h **** 		unsigned int red_left_pad;	/* Left redzone padding size */
 328:/mnt/c/Users/31740/Desktop/newcore/include/linux/slab.h **** 		const char *name;		/* Name (only for display!) */
 329:/mnt/c/Users/31740/Desktop/newcore/include/linux/slab.h **** 		struct list_head list;		/* List of slab caches */
 330:/mnt/c/Users/31740/Desktop/newcore/include/linux/slab.h **** 	#ifdef CONFIG_SYSFS
 331:/mnt/c/Users/31740/Desktop/newcore/include/linux/slab.h **** 		struct kobject kobj;		/* For sysfs */
 332:/mnt/c/Users/31740/Desktop/newcore/include/linux/slab.h **** 	#endif
 333:/mnt/c/Users/31740/Desktop/newcore/include/linux/slab.h **** 	#ifdef CONFIG_SLAB_FREELIST_HARDENED
 334:/mnt/c/Users/31740/Desktop/newcore/include/linux/slab.h **** 		unsigned long random;
 335:/mnt/c/Users/31740/Desktop/newcore/include/linux/slab.h **** 	#endif
 336:/mnt/c/Users/31740/Desktop/newcore/include/linux/slab.h **** 	
 337:/mnt/c/Users/31740/Desktop/newcore/include/linux/slab.h **** 	#ifdef CONFIG_NUMA
 338:/mnt/c/Users/31740/Desktop/newcore/include/linux/slab.h **** 		/*
 339:/mnt/c/Users/31740/Desktop/newcore/include/linux/slab.h **** 			* Defragmentation by allocating from a remote node.
 340:/mnt/c/Users/31740/Desktop/newcore/include/linux/slab.h **** 			*/
 341:/mnt/c/Users/31740/Desktop/newcore/include/linux/slab.h **** 		unsigned int remote_node_defrag_ratio;
 342:/mnt/c/Users/31740/Desktop/newcore/include/linux/slab.h **** 	#endif
 343:/mnt/c/Users/31740/Desktop/newcore/include/linux/slab.h **** 	
 344:/mnt/c/Users/31740/Desktop/newcore/include/linux/slab.h **** 	#ifdef CONFIG_SLAB_FREELIST_RANDOM
 345:/mnt/c/Users/31740/Desktop/newcore/include/linux/slab.h **** 		unsigned int *random_seq;
 346:/mnt/c/Users/31740/Desktop/newcore/include/linux/slab.h **** 	#endif
 347:/mnt/c/Users/31740/Desktop/newcore/include/linux/slab.h **** 	
 348:/mnt/c/Users/31740/Desktop/newcore/include/linux/slab.h **** 	#ifdef CONFIG_KASAN_GENERIC
 349:/mnt/c/Users/31740/Desktop/newcore/include/linux/slab.h **** 		struct kasan_cache kasan_info;
 350:/mnt/c/Users/31740/Desktop/newcore/include/linux/slab.h **** 	#endif
 351:/mnt/c/Users/31740/Desktop/newcore/include/linux/slab.h **** 	
 352:/mnt/c/Users/31740/Desktop/newcore/include/linux/slab.h **** 	#ifdef CONFIG_HARDENED_USERCOPY
 353:/mnt/c/Users/31740/Desktop/newcore/include/linux/slab.h **** 		unsigned int useroffset;	/* Usercopy region offset */
 354:/mnt/c/Users/31740/Desktop/newcore/include/linux/slab.h **** 		unsigned int usersize;		/* Usercopy region size */
 355:/mnt/c/Users/31740/Desktop/newcore/include/linux/slab.h **** 	#endif
 356:/mnt/c/Users/31740/Desktop/newcore/include/linux/slab.h **** 	
 357:/mnt/c/Users/31740/Desktop/newcore/include/linux/slab.h **** 		struct kmem_cache_node *node[MAX_NUMNODES];
 358:/mnt/c/Users/31740/Desktop/newcore/include/linux/slab.h **** 	};
 359:/mnt/c/Users/31740/Desktop/newcore/include/linux/slab.h **** 					
 360:/mnt/c/Users/31740/Desktop/newcore/include/linux/slab.h **** 
 361:/mnt/c/Users/31740/Desktop/newcore/include/linux/slab.h **** 
 362:/mnt/c/Users/31740/Desktop/newcore/include/linux/slab.h **** 
 363:/mnt/c/Users/31740/Desktop/newcore/include/linux/slab.h **** 
 364:/mnt/c/Users/31740/Desktop/newcore/include/linux/slab.h **** #define KMALLOC_WAIT 1
 365:/mnt/c/Users/31740/Desktop/newcore/include/linux/slab.h **** 
 366:/mnt/c/Users/31740/Desktop/newcore/include/linux/slab.h **** 
 367:/mnt/c/Users/31740/Desktop/newcore/include/linux/slab.h **** extern void* __smalloc__(u32 size, gfp_t flags);
 368:/mnt/c/Users/31740/Desktop/newcore/include/linux/slab.h **** extern void  __sfree__(void* addr);
 369:/mnt/c/Users/31740/Desktop/newcore/include/linux/slab.h **** 
ARM GAS  /tmp/ccyCLDig.s 			page 64


 370:/mnt/c/Users/31740/Desktop/newcore/include/linux/slab.h **** 
 371:/mnt/c/Users/31740/Desktop/newcore/include/linux/slab.h **** static void inline *vmalloc(unsigned long size){
 372:/mnt/c/Users/31740/Desktop/newcore/include/linux/slab.h **** 	return __smalloc__(size,GFP_TRANSHUGE_LIGHT);
 373:/mnt/c/Users/31740/Desktop/newcore/include/linux/slab.h **** }
 374:/mnt/c/Users/31740/Desktop/newcore/include/linux/slab.h **** 
 375:/mnt/c/Users/31740/Desktop/newcore/include/linux/slab.h **** static void inline vfree(void *addr){
 376:/mnt/c/Users/31740/Desktop/newcore/include/linux/slab.h **** 	__sfree__(addr);
 377:/mnt/c/Users/31740/Desktop/newcore/include/linux/slab.h **** }
 378:/mnt/c/Users/31740/Desktop/newcore/include/linux/slab.h **** 
 379:/mnt/c/Users/31740/Desktop/newcore/include/linux/slab.h **** static void inline *kmalloc(size_t size, gfp_t flags){
 380:/mnt/c/Users/31740/Desktop/newcore/include/linux/slab.h **** 	return __smalloc__((u32)size,flags);
 381:/mnt/c/Users/31740/Desktop/newcore/include/linux/slab.h **** }
 382:/mnt/c/Users/31740/Desktop/newcore/include/linux/slab.h **** 
 383:/mnt/c/Users/31740/Desktop/newcore/include/linux/slab.h **** static void inline kfree(const void *ptr){
 1451              		.loc 6 383 20 view .LVU361
 1452              	.LBB112:
 384:/mnt/c/Users/31740/Desktop/newcore/include/linux/slab.h **** 	__sfree__((void*)ptr);
 1453              		.loc 6 384 2 view .LVU362
 1454 0010 2046     		mov	r0, r4
 1455 0012 FFF7FEFF 		bl	__sfree__
 1456              	.LVL126:
 1457              		.loc 6 384 2 is_stmt 0 view .LVU363
 1458              	.LBE112:
 1459              	.LBE111:
 203:/mnt/c/Users/31740/Desktop/newcore/include/linux/mm_type.h ****     }
 1460              		.loc 2 203 3 is_stmt 1 view .LVU364
 1461              	.LBE110:
 1462              	.LBE109:
 241:/mnt/c/Users/31740/Desktop/newcore/include/linux/mm_type.h **** 
 1463              		.loc 2 241 1 is_stmt 0 view .LVU365
 1464 0016 10BD     		pop	{r4, pc}
 1465              	.LVL127:
 1466              	.L84:
 238:/mnt/c/Users/31740/Desktop/newcore/include/linux/mm_type.h ****         __page_destroy(page);
 1467              		.loc 2 238 3 is_stmt 1 view .LVU366
 1468              	.LBB114:
 1469              	.LBI114:
 383:/mnt/c/Users/31740/Desktop/newcore/include/linux/slab.h **** 	__sfree__((void*)ptr);
 1470              		.loc 6 383 20 view .LVU367
 1471              	.LBB115:
 1472              		.loc 6 384 2 view .LVU368
 1473 0018 4068     		ldr	r0, [r0, #4]
 1474              	.LVL128:
 1475              		.loc 6 384 2 is_stmt 0 view .LVU369
 1476 001a FFF7FEFF 		bl	__sfree__
 1477              	.LVL129:
 1478              		.loc 6 384 2 view .LVU370
 1479              	.LBE115:
 1480              	.LBE114:
 239:/mnt/c/Users/31740/Desktop/newcore/include/linux/mm_type.h ****     }
 1481              		.loc 2 239 9 is_stmt 1 view .LVU371
 1482              	.LBB116:
 1483              	.LBI109:
 199:/mnt/c/Users/31740/Desktop/newcore/include/linux/mm_type.h ****     if (page) 
 1484              		.loc 2 199 20 view .LVU372
 1485              	.LBB113:
 200:/mnt/c/Users/31740/Desktop/newcore/include/linux/mm_type.h **** 	{
ARM GAS  /tmp/ccyCLDig.s 			page 65


 1486              		.loc 2 200 5 view .LVU373
 1487 001e F7E7     		b	.L79
 1488              	.LVL130:
 1489              	.L81:
 1490              	.LCFI31:
 1491              		.cfi_def_cfa_offset 0
 1492              		.cfi_restore 4
 1493              		.cfi_restore 14
 200:/mnt/c/Users/31740/Desktop/newcore/include/linux/mm_type.h **** 	{
 1494              		.loc 2 200 5 is_stmt 0 view .LVU374
 1495 0020 7047     		bx	lr
 1496              	.LBE113:
 1497              	.LBE116:
 1498              		.cfi_endproc
 1499              	.LFE914:
 1501              		.section	.text.__put_page,"ax",%progbits
 1502              		.align	1
 1503              		.syntax unified
 1504              		.thumb
 1505              		.thumb_func
 1507              	__put_page:
 1508              	.LVL131:
 1509              	.LFB917:
 258:/mnt/c/Users/31740/Desktop/newcore/include/linux/mm_type.h ****     if (page && atomic_dec_and_test(&page->_refcount) ) {
 1510              		.loc 2 258 49 is_stmt 1 view -0
 1511              		.cfi_startproc
 1512              		@ args = 0, pretend = 0, frame = 0
 1513              		@ frame_needed = 0, uses_anonymous_args = 0
 258:/mnt/c/Users/31740/Desktop/newcore/include/linux/mm_type.h ****     if (page && atomic_dec_and_test(&page->_refcount) ) {
 1514              		.loc 2 258 49 is_stmt 0 view .LVU376
 1515 0000 08B5     		push	{r3, lr}
 1516              	.LCFI32:
 1517              		.cfi_def_cfa_offset 8
 1518              		.cfi_offset 3, -8
 1519              		.cfi_offset 14, -4
 259:/mnt/c/Users/31740/Desktop/newcore/include/linux/mm_type.h ****         __free_pages(page, 0);
 1520              		.loc 2 259 5 is_stmt 1 view .LVU377
 259:/mnt/c/Users/31740/Desktop/newcore/include/linux/mm_type.h ****         __free_pages(page, 0);
 1521              		.loc 2 259 8 is_stmt 0 view .LVU378
 1522 0002 0246     		mov	r2, r0
 1523 0004 58B1     		cbz	r0, .L86
 259:/mnt/c/Users/31740/Desktop/newcore/include/linux/mm_type.h ****         __free_pages(page, 0);
 1524              		.loc 2 259 17 discriminator 1 view .LVU379
 1525 0006 00F11C03 		add	r3, r0, #28
 1526              	.LBB117:
 1527              	.LBI117:
 1528              		.file 7 "/mnt/c/Users/31740/Desktop/newcore/include/linux/atomic/atomic-instrumented.h"
   1:/mnt/c/Users/31740/Desktop/newcore/include/linux/atomic/atomic-instrumented.h **** // SPDX-License-Identifier: GPL-2.0
   2:/mnt/c/Users/31740/Desktop/newcore/include/linux/atomic/atomic-instrumented.h **** 
   3:/mnt/c/Users/31740/Desktop/newcore/include/linux/atomic/atomic-instrumented.h **** // Generated by scripts/atomic/gen-atomic-instrumented.sh 
   4:/mnt/c/Users/31740/Desktop/newcore/include/linux/atomic/atomic-instrumented.h **** // DO NOT MODIFY THIS FILE DIRECTLY
   5:/mnt/c/Users/31740/Desktop/newcore/include/linux/atomic/atomic-instrumented.h **** 
   6:/mnt/c/Users/31740/Desktop/newcore/include/linux/atomic/atomic-instrumented.h **** /*
   7:/mnt/c/Users/31740/Desktop/newcore/include/linux/atomic/atomic-instrumented.h ****  * This file provoides atomic operations with explicit instrumentation (e.g.
   8:/mnt/c/Users/31740/Desktop/newcore/include/linux/atomic/atomic-instrumented.h ****  * KASAN, KCSAN), which should be used unless it is necessary to avoid
   9:/mnt/c/Users/31740/Desktop/newcore/include/linux/atomic/atomic-instrumented.h ****  * instrumentation. Where it is necessary to aovid instrumenation, the
  10:/mnt/c/Users/31740/Desktop/newcore/include/linux/atomic/atomic-instrumented.h ****  * raw_atomic*() operations should be used.
ARM GAS  /tmp/ccyCLDig.s 			page 66


  11:/mnt/c/Users/31740/Desktop/newcore/include/linux/atomic/atomic-instrumented.h ****  */
  12:/mnt/c/Users/31740/Desktop/newcore/include/linux/atomic/atomic-instrumented.h **** #ifndef _LINUX_ATOMIC_INSTRUMENTED_H
  13:/mnt/c/Users/31740/Desktop/newcore/include/linux/atomic/atomic-instrumented.h **** #define _LINUX_ATOMIC_INSTRUMENTED_H
  14:/mnt/c/Users/31740/Desktop/newcore/include/linux/atomic/atomic-instrumented.h **** 
  15:/mnt/c/Users/31740/Desktop/newcore/include/linux/atomic/atomic-instrumented.h **** #include <linux/build_bug.h>
  16:/mnt/c/Users/31740/Desktop/newcore/include/linux/atomic/atomic-instrumented.h **** #include <linux/compiler.h>
  17:/mnt/c/Users/31740/Desktop/newcore/include/linux/atomic/atomic-instrumented.h **** #include <linux/instrumented.h>
  18:/mnt/c/Users/31740/Desktop/newcore/include/linux/atomic/atomic-instrumented.h **** 
  19:/mnt/c/Users/31740/Desktop/newcore/include/linux/atomic/atomic-instrumented.h **** /**
  20:/mnt/c/Users/31740/Desktop/newcore/include/linux/atomic/atomic-instrumented.h ****  * atomic_read() - atomic load with relaxed ordering
  21:/mnt/c/Users/31740/Desktop/newcore/include/linux/atomic/atomic-instrumented.h ****  * @v: pointer to atomic_t
  22:/mnt/c/Users/31740/Desktop/newcore/include/linux/atomic/atomic-instrumented.h ****  *
  23:/mnt/c/Users/31740/Desktop/newcore/include/linux/atomic/atomic-instrumented.h ****  * Atomically loads the value of @v with relaxed ordering.
  24:/mnt/c/Users/31740/Desktop/newcore/include/linux/atomic/atomic-instrumented.h ****  *
  25:/mnt/c/Users/31740/Desktop/newcore/include/linux/atomic/atomic-instrumented.h ****  * Unsafe to use in noinstr code; use raw_atomic_read() there.
  26:/mnt/c/Users/31740/Desktop/newcore/include/linux/atomic/atomic-instrumented.h ****  *
  27:/mnt/c/Users/31740/Desktop/newcore/include/linux/atomic/atomic-instrumented.h ****  * Return: The value loaded from @v.
  28:/mnt/c/Users/31740/Desktop/newcore/include/linux/atomic/atomic-instrumented.h ****  */
  29:/mnt/c/Users/31740/Desktop/newcore/include/linux/atomic/atomic-instrumented.h **** static __always_inline int
  30:/mnt/c/Users/31740/Desktop/newcore/include/linux/atomic/atomic-instrumented.h **** atomic_read(const atomic_t *v)
  31:/mnt/c/Users/31740/Desktop/newcore/include/linux/atomic/atomic-instrumented.h **** {
  32:/mnt/c/Users/31740/Desktop/newcore/include/linux/atomic/atomic-instrumented.h **** 	instrument_atomic_read(v, sizeof(*v));
  33:/mnt/c/Users/31740/Desktop/newcore/include/linux/atomic/atomic-instrumented.h **** 	return raw_atomic_read(v);
  34:/mnt/c/Users/31740/Desktop/newcore/include/linux/atomic/atomic-instrumented.h **** }
  35:/mnt/c/Users/31740/Desktop/newcore/include/linux/atomic/atomic-instrumented.h **** 
  36:/mnt/c/Users/31740/Desktop/newcore/include/linux/atomic/atomic-instrumented.h **** /**
  37:/mnt/c/Users/31740/Desktop/newcore/include/linux/atomic/atomic-instrumented.h ****  * atomic_read_acquire() - atomic load with acquire ordering
  38:/mnt/c/Users/31740/Desktop/newcore/include/linux/atomic/atomic-instrumented.h ****  * @v: pointer to atomic_t
  39:/mnt/c/Users/31740/Desktop/newcore/include/linux/atomic/atomic-instrumented.h ****  *
  40:/mnt/c/Users/31740/Desktop/newcore/include/linux/atomic/atomic-instrumented.h ****  * Atomically loads the value of @v with acquire ordering.
  41:/mnt/c/Users/31740/Desktop/newcore/include/linux/atomic/atomic-instrumented.h ****  *
  42:/mnt/c/Users/31740/Desktop/newcore/include/linux/atomic/atomic-instrumented.h ****  * Unsafe to use in noinstr code; use raw_atomic_read_acquire() there.
  43:/mnt/c/Users/31740/Desktop/newcore/include/linux/atomic/atomic-instrumented.h ****  *
  44:/mnt/c/Users/31740/Desktop/newcore/include/linux/atomic/atomic-instrumented.h ****  * Return: The value loaded from @v.
  45:/mnt/c/Users/31740/Desktop/newcore/include/linux/atomic/atomic-instrumented.h ****  */
  46:/mnt/c/Users/31740/Desktop/newcore/include/linux/atomic/atomic-instrumented.h **** static __always_inline int
  47:/mnt/c/Users/31740/Desktop/newcore/include/linux/atomic/atomic-instrumented.h **** atomic_read_acquire(const atomic_t *v)
  48:/mnt/c/Users/31740/Desktop/newcore/include/linux/atomic/atomic-instrumented.h **** {
  49:/mnt/c/Users/31740/Desktop/newcore/include/linux/atomic/atomic-instrumented.h **** 	instrument_atomic_read(v, sizeof(*v));
  50:/mnt/c/Users/31740/Desktop/newcore/include/linux/atomic/atomic-instrumented.h **** 	return raw_atomic_read_acquire(v);
  51:/mnt/c/Users/31740/Desktop/newcore/include/linux/atomic/atomic-instrumented.h **** }
  52:/mnt/c/Users/31740/Desktop/newcore/include/linux/atomic/atomic-instrumented.h **** 
  53:/mnt/c/Users/31740/Desktop/newcore/include/linux/atomic/atomic-instrumented.h **** /**
  54:/mnt/c/Users/31740/Desktop/newcore/include/linux/atomic/atomic-instrumented.h ****  * atomic_set() - atomic set with relaxed ordering
  55:/mnt/c/Users/31740/Desktop/newcore/include/linux/atomic/atomic-instrumented.h ****  * @v: pointer to atomic_t
  56:/mnt/c/Users/31740/Desktop/newcore/include/linux/atomic/atomic-instrumented.h ****  * @i: int value to assign
  57:/mnt/c/Users/31740/Desktop/newcore/include/linux/atomic/atomic-instrumented.h ****  *
  58:/mnt/c/Users/31740/Desktop/newcore/include/linux/atomic/atomic-instrumented.h ****  * Atomically sets @v to @i with relaxed ordering.
  59:/mnt/c/Users/31740/Desktop/newcore/include/linux/atomic/atomic-instrumented.h ****  *
  60:/mnt/c/Users/31740/Desktop/newcore/include/linux/atomic/atomic-instrumented.h ****  * Unsafe to use in noinstr code; use raw_atomic_set() there.
  61:/mnt/c/Users/31740/Desktop/newcore/include/linux/atomic/atomic-instrumented.h ****  *
  62:/mnt/c/Users/31740/Desktop/newcore/include/linux/atomic/atomic-instrumented.h ****  * Return: Nothing.
  63:/mnt/c/Users/31740/Desktop/newcore/include/linux/atomic/atomic-instrumented.h ****  */
  64:/mnt/c/Users/31740/Desktop/newcore/include/linux/atomic/atomic-instrumented.h **** static __always_inline void
  65:/mnt/c/Users/31740/Desktop/newcore/include/linux/atomic/atomic-instrumented.h **** atomic_set(atomic_t *v, int i)
  66:/mnt/c/Users/31740/Desktop/newcore/include/linux/atomic/atomic-instrumented.h **** {
  67:/mnt/c/Users/31740/Desktop/newcore/include/linux/atomic/atomic-instrumented.h **** 	instrument_atomic_write(v, sizeof(*v));
ARM GAS  /tmp/ccyCLDig.s 			page 67


  68:/mnt/c/Users/31740/Desktop/newcore/include/linux/atomic/atomic-instrumented.h **** 	raw_atomic_set(v, i);
  69:/mnt/c/Users/31740/Desktop/newcore/include/linux/atomic/atomic-instrumented.h **** }
  70:/mnt/c/Users/31740/Desktop/newcore/include/linux/atomic/atomic-instrumented.h **** 
  71:/mnt/c/Users/31740/Desktop/newcore/include/linux/atomic/atomic-instrumented.h **** /**
  72:/mnt/c/Users/31740/Desktop/newcore/include/linux/atomic/atomic-instrumented.h ****  * atomic_set_release() - atomic set with release ordering
  73:/mnt/c/Users/31740/Desktop/newcore/include/linux/atomic/atomic-instrumented.h ****  * @v: pointer to atomic_t
  74:/mnt/c/Users/31740/Desktop/newcore/include/linux/atomic/atomic-instrumented.h ****  * @i: int value to assign
  75:/mnt/c/Users/31740/Desktop/newcore/include/linux/atomic/atomic-instrumented.h ****  *
  76:/mnt/c/Users/31740/Desktop/newcore/include/linux/atomic/atomic-instrumented.h ****  * Atomically sets @v to @i with release ordering.
  77:/mnt/c/Users/31740/Desktop/newcore/include/linux/atomic/atomic-instrumented.h ****  *
  78:/mnt/c/Users/31740/Desktop/newcore/include/linux/atomic/atomic-instrumented.h ****  * Unsafe to use in noinstr code; use raw_atomic_set_release() there.
  79:/mnt/c/Users/31740/Desktop/newcore/include/linux/atomic/atomic-instrumented.h ****  *
  80:/mnt/c/Users/31740/Desktop/newcore/include/linux/atomic/atomic-instrumented.h ****  * Return: Nothing.
  81:/mnt/c/Users/31740/Desktop/newcore/include/linux/atomic/atomic-instrumented.h ****  */
  82:/mnt/c/Users/31740/Desktop/newcore/include/linux/atomic/atomic-instrumented.h **** static __always_inline void
  83:/mnt/c/Users/31740/Desktop/newcore/include/linux/atomic/atomic-instrumented.h **** atomic_set_release(atomic_t *v, int i)
  84:/mnt/c/Users/31740/Desktop/newcore/include/linux/atomic/atomic-instrumented.h **** {
  85:/mnt/c/Users/31740/Desktop/newcore/include/linux/atomic/atomic-instrumented.h **** 	kcsan_release();
  86:/mnt/c/Users/31740/Desktop/newcore/include/linux/atomic/atomic-instrumented.h **** 	instrument_atomic_write(v, sizeof(*v));
  87:/mnt/c/Users/31740/Desktop/newcore/include/linux/atomic/atomic-instrumented.h **** 	raw_atomic_set_release(v, i);
  88:/mnt/c/Users/31740/Desktop/newcore/include/linux/atomic/atomic-instrumented.h **** }
  89:/mnt/c/Users/31740/Desktop/newcore/include/linux/atomic/atomic-instrumented.h **** 
  90:/mnt/c/Users/31740/Desktop/newcore/include/linux/atomic/atomic-instrumented.h **** /**
  91:/mnt/c/Users/31740/Desktop/newcore/include/linux/atomic/atomic-instrumented.h ****  * atomic_add() - atomic add with relaxed ordering
  92:/mnt/c/Users/31740/Desktop/newcore/include/linux/atomic/atomic-instrumented.h ****  * @i: int value to add
  93:/mnt/c/Users/31740/Desktop/newcore/include/linux/atomic/atomic-instrumented.h ****  * @v: pointer to atomic_t
  94:/mnt/c/Users/31740/Desktop/newcore/include/linux/atomic/atomic-instrumented.h ****  *
  95:/mnt/c/Users/31740/Desktop/newcore/include/linux/atomic/atomic-instrumented.h ****  * Atomically updates @v to (@v + @i) with relaxed ordering.
  96:/mnt/c/Users/31740/Desktop/newcore/include/linux/atomic/atomic-instrumented.h ****  *
  97:/mnt/c/Users/31740/Desktop/newcore/include/linux/atomic/atomic-instrumented.h ****  * Unsafe to use in noinstr code; use raw_atomic_add() there.
  98:/mnt/c/Users/31740/Desktop/newcore/include/linux/atomic/atomic-instrumented.h ****  *
  99:/mnt/c/Users/31740/Desktop/newcore/include/linux/atomic/atomic-instrumented.h ****  * Return: Nothing.
 100:/mnt/c/Users/31740/Desktop/newcore/include/linux/atomic/atomic-instrumented.h ****  */
 101:/mnt/c/Users/31740/Desktop/newcore/include/linux/atomic/atomic-instrumented.h **** static __always_inline void
 102:/mnt/c/Users/31740/Desktop/newcore/include/linux/atomic/atomic-instrumented.h **** atomic_add(int i, atomic_t *v)
 103:/mnt/c/Users/31740/Desktop/newcore/include/linux/atomic/atomic-instrumented.h **** {
 104:/mnt/c/Users/31740/Desktop/newcore/include/linux/atomic/atomic-instrumented.h **** 	instrument_atomic_read_write(v, sizeof(*v));
 105:/mnt/c/Users/31740/Desktop/newcore/include/linux/atomic/atomic-instrumented.h **** 	raw_atomic_add(i, v);
 106:/mnt/c/Users/31740/Desktop/newcore/include/linux/atomic/atomic-instrumented.h **** }
 107:/mnt/c/Users/31740/Desktop/newcore/include/linux/atomic/atomic-instrumented.h **** 
 108:/mnt/c/Users/31740/Desktop/newcore/include/linux/atomic/atomic-instrumented.h **** /**
 109:/mnt/c/Users/31740/Desktop/newcore/include/linux/atomic/atomic-instrumented.h ****  * atomic_add_return() - atomic add with full ordering
 110:/mnt/c/Users/31740/Desktop/newcore/include/linux/atomic/atomic-instrumented.h ****  * @i: int value to add
 111:/mnt/c/Users/31740/Desktop/newcore/include/linux/atomic/atomic-instrumented.h ****  * @v: pointer to atomic_t
 112:/mnt/c/Users/31740/Desktop/newcore/include/linux/atomic/atomic-instrumented.h ****  *
 113:/mnt/c/Users/31740/Desktop/newcore/include/linux/atomic/atomic-instrumented.h ****  * Atomically updates @v to (@v + @i) with full ordering.
 114:/mnt/c/Users/31740/Desktop/newcore/include/linux/atomic/atomic-instrumented.h ****  *
 115:/mnt/c/Users/31740/Desktop/newcore/include/linux/atomic/atomic-instrumented.h ****  * Unsafe to use in noinstr code; use raw_atomic_add_return() there.
 116:/mnt/c/Users/31740/Desktop/newcore/include/linux/atomic/atomic-instrumented.h ****  *
 117:/mnt/c/Users/31740/Desktop/newcore/include/linux/atomic/atomic-instrumented.h ****  * Return: The updated value of @v.
 118:/mnt/c/Users/31740/Desktop/newcore/include/linux/atomic/atomic-instrumented.h ****  */
 119:/mnt/c/Users/31740/Desktop/newcore/include/linux/atomic/atomic-instrumented.h **** static __always_inline int
 120:/mnt/c/Users/31740/Desktop/newcore/include/linux/atomic/atomic-instrumented.h **** atomic_add_return(int i, atomic_t *v)
 121:/mnt/c/Users/31740/Desktop/newcore/include/linux/atomic/atomic-instrumented.h **** {
 122:/mnt/c/Users/31740/Desktop/newcore/include/linux/atomic/atomic-instrumented.h **** 	kcsan_mb();
 123:/mnt/c/Users/31740/Desktop/newcore/include/linux/atomic/atomic-instrumented.h **** 	instrument_atomic_read_write(v, sizeof(*v));
 124:/mnt/c/Users/31740/Desktop/newcore/include/linux/atomic/atomic-instrumented.h **** 	return raw_atomic_add_return(i, v);
ARM GAS  /tmp/ccyCLDig.s 			page 68


 125:/mnt/c/Users/31740/Desktop/newcore/include/linux/atomic/atomic-instrumented.h **** }
 126:/mnt/c/Users/31740/Desktop/newcore/include/linux/atomic/atomic-instrumented.h **** 
 127:/mnt/c/Users/31740/Desktop/newcore/include/linux/atomic/atomic-instrumented.h **** /**
 128:/mnt/c/Users/31740/Desktop/newcore/include/linux/atomic/atomic-instrumented.h ****  * atomic_add_return_acquire() - atomic add with acquire ordering
 129:/mnt/c/Users/31740/Desktop/newcore/include/linux/atomic/atomic-instrumented.h ****  * @i: int value to add
 130:/mnt/c/Users/31740/Desktop/newcore/include/linux/atomic/atomic-instrumented.h ****  * @v: pointer to atomic_t
 131:/mnt/c/Users/31740/Desktop/newcore/include/linux/atomic/atomic-instrumented.h ****  *
 132:/mnt/c/Users/31740/Desktop/newcore/include/linux/atomic/atomic-instrumented.h ****  * Atomically updates @v to (@v + @i) with acquire ordering.
 133:/mnt/c/Users/31740/Desktop/newcore/include/linux/atomic/atomic-instrumented.h ****  *
 134:/mnt/c/Users/31740/Desktop/newcore/include/linux/atomic/atomic-instrumented.h ****  * Unsafe to use in noinstr code; use raw_atomic_add_return_acquire() there.
 135:/mnt/c/Users/31740/Desktop/newcore/include/linux/atomic/atomic-instrumented.h ****  *
 136:/mnt/c/Users/31740/Desktop/newcore/include/linux/atomic/atomic-instrumented.h ****  * Return: The updated value of @v.
 137:/mnt/c/Users/31740/Desktop/newcore/include/linux/atomic/atomic-instrumented.h ****  */
 138:/mnt/c/Users/31740/Desktop/newcore/include/linux/atomic/atomic-instrumented.h **** static __always_inline int
 139:/mnt/c/Users/31740/Desktop/newcore/include/linux/atomic/atomic-instrumented.h **** atomic_add_return_acquire(int i, atomic_t *v)
 140:/mnt/c/Users/31740/Desktop/newcore/include/linux/atomic/atomic-instrumented.h **** {
 141:/mnt/c/Users/31740/Desktop/newcore/include/linux/atomic/atomic-instrumented.h **** 	instrument_atomic_read_write(v, sizeof(*v));
 142:/mnt/c/Users/31740/Desktop/newcore/include/linux/atomic/atomic-instrumented.h **** 	return raw_atomic_add_return_acquire(i, v);
 143:/mnt/c/Users/31740/Desktop/newcore/include/linux/atomic/atomic-instrumented.h **** }
 144:/mnt/c/Users/31740/Desktop/newcore/include/linux/atomic/atomic-instrumented.h **** 
 145:/mnt/c/Users/31740/Desktop/newcore/include/linux/atomic/atomic-instrumented.h **** /**
 146:/mnt/c/Users/31740/Desktop/newcore/include/linux/atomic/atomic-instrumented.h ****  * atomic_add_return_release() - atomic add with release ordering
 147:/mnt/c/Users/31740/Desktop/newcore/include/linux/atomic/atomic-instrumented.h ****  * @i: int value to add
 148:/mnt/c/Users/31740/Desktop/newcore/include/linux/atomic/atomic-instrumented.h ****  * @v: pointer to atomic_t
 149:/mnt/c/Users/31740/Desktop/newcore/include/linux/atomic/atomic-instrumented.h ****  *
 150:/mnt/c/Users/31740/Desktop/newcore/include/linux/atomic/atomic-instrumented.h ****  * Atomically updates @v to (@v + @i) with release ordering.
 151:/mnt/c/Users/31740/Desktop/newcore/include/linux/atomic/atomic-instrumented.h ****  *
 152:/mnt/c/Users/31740/Desktop/newcore/include/linux/atomic/atomic-instrumented.h ****  * Unsafe to use in noinstr code; use raw_atomic_add_return_release() there.
 153:/mnt/c/Users/31740/Desktop/newcore/include/linux/atomic/atomic-instrumented.h ****  *
 154:/mnt/c/Users/31740/Desktop/newcore/include/linux/atomic/atomic-instrumented.h ****  * Return: The updated value of @v.
 155:/mnt/c/Users/31740/Desktop/newcore/include/linux/atomic/atomic-instrumented.h ****  */
 156:/mnt/c/Users/31740/Desktop/newcore/include/linux/atomic/atomic-instrumented.h **** static __always_inline int
 157:/mnt/c/Users/31740/Desktop/newcore/include/linux/atomic/atomic-instrumented.h **** atomic_add_return_release(int i, atomic_t *v)
 158:/mnt/c/Users/31740/Desktop/newcore/include/linux/atomic/atomic-instrumented.h **** {
 159:/mnt/c/Users/31740/Desktop/newcore/include/linux/atomic/atomic-instrumented.h **** 	kcsan_release();
 160:/mnt/c/Users/31740/Desktop/newcore/include/linux/atomic/atomic-instrumented.h **** 	instrument_atomic_read_write(v, sizeof(*v));
 161:/mnt/c/Users/31740/Desktop/newcore/include/linux/atomic/atomic-instrumented.h **** 	return raw_atomic_add_return_release(i, v);
 162:/mnt/c/Users/31740/Desktop/newcore/include/linux/atomic/atomic-instrumented.h **** }
 163:/mnt/c/Users/31740/Desktop/newcore/include/linux/atomic/atomic-instrumented.h **** 
 164:/mnt/c/Users/31740/Desktop/newcore/include/linux/atomic/atomic-instrumented.h **** /**
 165:/mnt/c/Users/31740/Desktop/newcore/include/linux/atomic/atomic-instrumented.h ****  * atomic_add_return_relaxed() - atomic add with relaxed ordering
 166:/mnt/c/Users/31740/Desktop/newcore/include/linux/atomic/atomic-instrumented.h ****  * @i: int value to add
 167:/mnt/c/Users/31740/Desktop/newcore/include/linux/atomic/atomic-instrumented.h ****  * @v: pointer to atomic_t
 168:/mnt/c/Users/31740/Desktop/newcore/include/linux/atomic/atomic-instrumented.h ****  *
 169:/mnt/c/Users/31740/Desktop/newcore/include/linux/atomic/atomic-instrumented.h ****  * Atomically updates @v to (@v + @i) with relaxed ordering.
 170:/mnt/c/Users/31740/Desktop/newcore/include/linux/atomic/atomic-instrumented.h ****  *
 171:/mnt/c/Users/31740/Desktop/newcore/include/linux/atomic/atomic-instrumented.h ****  * Unsafe to use in noinstr code; use raw_atomic_add_return_relaxed() there.
 172:/mnt/c/Users/31740/Desktop/newcore/include/linux/atomic/atomic-instrumented.h ****  *
 173:/mnt/c/Users/31740/Desktop/newcore/include/linux/atomic/atomic-instrumented.h ****  * Return: The updated value of @v.
 174:/mnt/c/Users/31740/Desktop/newcore/include/linux/atomic/atomic-instrumented.h ****  */
 175:/mnt/c/Users/31740/Desktop/newcore/include/linux/atomic/atomic-instrumented.h **** static __always_inline int
 176:/mnt/c/Users/31740/Desktop/newcore/include/linux/atomic/atomic-instrumented.h **** atomic_add_return_relaxed(int i, atomic_t *v)
 177:/mnt/c/Users/31740/Desktop/newcore/include/linux/atomic/atomic-instrumented.h **** {
 178:/mnt/c/Users/31740/Desktop/newcore/include/linux/atomic/atomic-instrumented.h **** 	instrument_atomic_read_write(v, sizeof(*v));
 179:/mnt/c/Users/31740/Desktop/newcore/include/linux/atomic/atomic-instrumented.h **** 	return raw_atomic_add_return_relaxed(i, v);
 180:/mnt/c/Users/31740/Desktop/newcore/include/linux/atomic/atomic-instrumented.h **** }
 181:/mnt/c/Users/31740/Desktop/newcore/include/linux/atomic/atomic-instrumented.h **** 
ARM GAS  /tmp/ccyCLDig.s 			page 69


 182:/mnt/c/Users/31740/Desktop/newcore/include/linux/atomic/atomic-instrumented.h **** /**
 183:/mnt/c/Users/31740/Desktop/newcore/include/linux/atomic/atomic-instrumented.h ****  * atomic_fetch_add() - atomic add with full ordering
 184:/mnt/c/Users/31740/Desktop/newcore/include/linux/atomic/atomic-instrumented.h ****  * @i: int value to add
 185:/mnt/c/Users/31740/Desktop/newcore/include/linux/atomic/atomic-instrumented.h ****  * @v: pointer to atomic_t
 186:/mnt/c/Users/31740/Desktop/newcore/include/linux/atomic/atomic-instrumented.h ****  *
 187:/mnt/c/Users/31740/Desktop/newcore/include/linux/atomic/atomic-instrumented.h ****  * Atomically updates @v to (@v + @i) with full ordering.
 188:/mnt/c/Users/31740/Desktop/newcore/include/linux/atomic/atomic-instrumented.h ****  *
 189:/mnt/c/Users/31740/Desktop/newcore/include/linux/atomic/atomic-instrumented.h ****  * Unsafe to use in noinstr code; use raw_atomic_fetch_add() there.
 190:/mnt/c/Users/31740/Desktop/newcore/include/linux/atomic/atomic-instrumented.h ****  *
 191:/mnt/c/Users/31740/Desktop/newcore/include/linux/atomic/atomic-instrumented.h ****  * Return: The original value of @v.
 192:/mnt/c/Users/31740/Desktop/newcore/include/linux/atomic/atomic-instrumented.h ****  */
 193:/mnt/c/Users/31740/Desktop/newcore/include/linux/atomic/atomic-instrumented.h **** static __always_inline int
 194:/mnt/c/Users/31740/Desktop/newcore/include/linux/atomic/atomic-instrumented.h **** atomic_fetch_add(int i, atomic_t *v)
 195:/mnt/c/Users/31740/Desktop/newcore/include/linux/atomic/atomic-instrumented.h **** {
 196:/mnt/c/Users/31740/Desktop/newcore/include/linux/atomic/atomic-instrumented.h **** 	kcsan_mb();
 197:/mnt/c/Users/31740/Desktop/newcore/include/linux/atomic/atomic-instrumented.h **** 	instrument_atomic_read_write(v, sizeof(*v));
 198:/mnt/c/Users/31740/Desktop/newcore/include/linux/atomic/atomic-instrumented.h **** 	return raw_atomic_fetch_add(i, v);
 199:/mnt/c/Users/31740/Desktop/newcore/include/linux/atomic/atomic-instrumented.h **** }
 200:/mnt/c/Users/31740/Desktop/newcore/include/linux/atomic/atomic-instrumented.h **** 
 201:/mnt/c/Users/31740/Desktop/newcore/include/linux/atomic/atomic-instrumented.h **** /**
 202:/mnt/c/Users/31740/Desktop/newcore/include/linux/atomic/atomic-instrumented.h ****  * atomic_fetch_add_acquire() - atomic add with acquire ordering
 203:/mnt/c/Users/31740/Desktop/newcore/include/linux/atomic/atomic-instrumented.h ****  * @i: int value to add
 204:/mnt/c/Users/31740/Desktop/newcore/include/linux/atomic/atomic-instrumented.h ****  * @v: pointer to atomic_t
 205:/mnt/c/Users/31740/Desktop/newcore/include/linux/atomic/atomic-instrumented.h ****  *
 206:/mnt/c/Users/31740/Desktop/newcore/include/linux/atomic/atomic-instrumented.h ****  * Atomically updates @v to (@v + @i) with acquire ordering.
 207:/mnt/c/Users/31740/Desktop/newcore/include/linux/atomic/atomic-instrumented.h ****  *
 208:/mnt/c/Users/31740/Desktop/newcore/include/linux/atomic/atomic-instrumented.h ****  * Unsafe to use in noinstr code; use raw_atomic_fetch_add_acquire() there.
 209:/mnt/c/Users/31740/Desktop/newcore/include/linux/atomic/atomic-instrumented.h ****  *
 210:/mnt/c/Users/31740/Desktop/newcore/include/linux/atomic/atomic-instrumented.h ****  * Return: The original value of @v.
 211:/mnt/c/Users/31740/Desktop/newcore/include/linux/atomic/atomic-instrumented.h ****  */
 212:/mnt/c/Users/31740/Desktop/newcore/include/linux/atomic/atomic-instrumented.h **** static __always_inline int
 213:/mnt/c/Users/31740/Desktop/newcore/include/linux/atomic/atomic-instrumented.h **** atomic_fetch_add_acquire(int i, atomic_t *v)
 214:/mnt/c/Users/31740/Desktop/newcore/include/linux/atomic/atomic-instrumented.h **** {
 215:/mnt/c/Users/31740/Desktop/newcore/include/linux/atomic/atomic-instrumented.h **** 	instrument_atomic_read_write(v, sizeof(*v));
 216:/mnt/c/Users/31740/Desktop/newcore/include/linux/atomic/atomic-instrumented.h **** 	return raw_atomic_fetch_add_acquire(i, v);
 217:/mnt/c/Users/31740/Desktop/newcore/include/linux/atomic/atomic-instrumented.h **** }
 218:/mnt/c/Users/31740/Desktop/newcore/include/linux/atomic/atomic-instrumented.h **** 
 219:/mnt/c/Users/31740/Desktop/newcore/include/linux/atomic/atomic-instrumented.h **** /**
 220:/mnt/c/Users/31740/Desktop/newcore/include/linux/atomic/atomic-instrumented.h ****  * atomic_fetch_add_release() - atomic add with release ordering
 221:/mnt/c/Users/31740/Desktop/newcore/include/linux/atomic/atomic-instrumented.h ****  * @i: int value to add
 222:/mnt/c/Users/31740/Desktop/newcore/include/linux/atomic/atomic-instrumented.h ****  * @v: pointer to atomic_t
 223:/mnt/c/Users/31740/Desktop/newcore/include/linux/atomic/atomic-instrumented.h ****  *
 224:/mnt/c/Users/31740/Desktop/newcore/include/linux/atomic/atomic-instrumented.h ****  * Atomically updates @v to (@v + @i) with release ordering.
 225:/mnt/c/Users/31740/Desktop/newcore/include/linux/atomic/atomic-instrumented.h ****  *
 226:/mnt/c/Users/31740/Desktop/newcore/include/linux/atomic/atomic-instrumented.h ****  * Unsafe to use in noinstr code; use raw_atomic_fetch_add_release() there.
 227:/mnt/c/Users/31740/Desktop/newcore/include/linux/atomic/atomic-instrumented.h ****  *
 228:/mnt/c/Users/31740/Desktop/newcore/include/linux/atomic/atomic-instrumented.h ****  * Return: The original value of @v.
 229:/mnt/c/Users/31740/Desktop/newcore/include/linux/atomic/atomic-instrumented.h ****  */
 230:/mnt/c/Users/31740/Desktop/newcore/include/linux/atomic/atomic-instrumented.h **** static __always_inline int
 231:/mnt/c/Users/31740/Desktop/newcore/include/linux/atomic/atomic-instrumented.h **** atomic_fetch_add_release(int i, atomic_t *v)
 232:/mnt/c/Users/31740/Desktop/newcore/include/linux/atomic/atomic-instrumented.h **** {
 233:/mnt/c/Users/31740/Desktop/newcore/include/linux/atomic/atomic-instrumented.h **** 	kcsan_release();
 234:/mnt/c/Users/31740/Desktop/newcore/include/linux/atomic/atomic-instrumented.h **** 	instrument_atomic_read_write(v, sizeof(*v));
 235:/mnt/c/Users/31740/Desktop/newcore/include/linux/atomic/atomic-instrumented.h **** 	return raw_atomic_fetch_add_release(i, v);
 236:/mnt/c/Users/31740/Desktop/newcore/include/linux/atomic/atomic-instrumented.h **** }
 237:/mnt/c/Users/31740/Desktop/newcore/include/linux/atomic/atomic-instrumented.h **** 
 238:/mnt/c/Users/31740/Desktop/newcore/include/linux/atomic/atomic-instrumented.h **** /**
ARM GAS  /tmp/ccyCLDig.s 			page 70


 239:/mnt/c/Users/31740/Desktop/newcore/include/linux/atomic/atomic-instrumented.h ****  * atomic_fetch_add_relaxed() - atomic add with relaxed ordering
 240:/mnt/c/Users/31740/Desktop/newcore/include/linux/atomic/atomic-instrumented.h ****  * @i: int value to add
 241:/mnt/c/Users/31740/Desktop/newcore/include/linux/atomic/atomic-instrumented.h ****  * @v: pointer to atomic_t
 242:/mnt/c/Users/31740/Desktop/newcore/include/linux/atomic/atomic-instrumented.h ****  *
 243:/mnt/c/Users/31740/Desktop/newcore/include/linux/atomic/atomic-instrumented.h ****  * Atomically updates @v to (@v + @i) with relaxed ordering.
 244:/mnt/c/Users/31740/Desktop/newcore/include/linux/atomic/atomic-instrumented.h ****  *
 245:/mnt/c/Users/31740/Desktop/newcore/include/linux/atomic/atomic-instrumented.h ****  * Unsafe to use in noinstr code; use raw_atomic_fetch_add_relaxed() there.
 246:/mnt/c/Users/31740/Desktop/newcore/include/linux/atomic/atomic-instrumented.h ****  *
 247:/mnt/c/Users/31740/Desktop/newcore/include/linux/atomic/atomic-instrumented.h ****  * Return: The original value of @v.
 248:/mnt/c/Users/31740/Desktop/newcore/include/linux/atomic/atomic-instrumented.h ****  */
 249:/mnt/c/Users/31740/Desktop/newcore/include/linux/atomic/atomic-instrumented.h **** static __always_inline int
 250:/mnt/c/Users/31740/Desktop/newcore/include/linux/atomic/atomic-instrumented.h **** atomic_fetch_add_relaxed(int i, atomic_t *v)
 251:/mnt/c/Users/31740/Desktop/newcore/include/linux/atomic/atomic-instrumented.h **** {
 252:/mnt/c/Users/31740/Desktop/newcore/include/linux/atomic/atomic-instrumented.h **** 	instrument_atomic_read_write(v, sizeof(*v));
 253:/mnt/c/Users/31740/Desktop/newcore/include/linux/atomic/atomic-instrumented.h **** 	return raw_atomic_fetch_add_relaxed(i, v);
 254:/mnt/c/Users/31740/Desktop/newcore/include/linux/atomic/atomic-instrumented.h **** }
 255:/mnt/c/Users/31740/Desktop/newcore/include/linux/atomic/atomic-instrumented.h **** 
 256:/mnt/c/Users/31740/Desktop/newcore/include/linux/atomic/atomic-instrumented.h **** /**
 257:/mnt/c/Users/31740/Desktop/newcore/include/linux/atomic/atomic-instrumented.h ****  * atomic_sub() - atomic subtract with relaxed ordering
 258:/mnt/c/Users/31740/Desktop/newcore/include/linux/atomic/atomic-instrumented.h ****  * @i: int value to subtract
 259:/mnt/c/Users/31740/Desktop/newcore/include/linux/atomic/atomic-instrumented.h ****  * @v: pointer to atomic_t
 260:/mnt/c/Users/31740/Desktop/newcore/include/linux/atomic/atomic-instrumented.h ****  *
 261:/mnt/c/Users/31740/Desktop/newcore/include/linux/atomic/atomic-instrumented.h ****  * Atomically updates @v to (@v - @i) with relaxed ordering.
 262:/mnt/c/Users/31740/Desktop/newcore/include/linux/atomic/atomic-instrumented.h ****  *
 263:/mnt/c/Users/31740/Desktop/newcore/include/linux/atomic/atomic-instrumented.h ****  * Unsafe to use in noinstr code; use raw_atomic_sub() there.
 264:/mnt/c/Users/31740/Desktop/newcore/include/linux/atomic/atomic-instrumented.h ****  *
 265:/mnt/c/Users/31740/Desktop/newcore/include/linux/atomic/atomic-instrumented.h ****  * Return: Nothing.
 266:/mnt/c/Users/31740/Desktop/newcore/include/linux/atomic/atomic-instrumented.h ****  */
 267:/mnt/c/Users/31740/Desktop/newcore/include/linux/atomic/atomic-instrumented.h **** static __always_inline void
 268:/mnt/c/Users/31740/Desktop/newcore/include/linux/atomic/atomic-instrumented.h **** atomic_sub(int i, atomic_t *v)
 269:/mnt/c/Users/31740/Desktop/newcore/include/linux/atomic/atomic-instrumented.h **** {
 270:/mnt/c/Users/31740/Desktop/newcore/include/linux/atomic/atomic-instrumented.h **** 	instrument_atomic_read_write(v, sizeof(*v));
 271:/mnt/c/Users/31740/Desktop/newcore/include/linux/atomic/atomic-instrumented.h **** 	raw_atomic_sub(i, v);
 272:/mnt/c/Users/31740/Desktop/newcore/include/linux/atomic/atomic-instrumented.h **** }
 273:/mnt/c/Users/31740/Desktop/newcore/include/linux/atomic/atomic-instrumented.h **** 
 274:/mnt/c/Users/31740/Desktop/newcore/include/linux/atomic/atomic-instrumented.h **** /**
 275:/mnt/c/Users/31740/Desktop/newcore/include/linux/atomic/atomic-instrumented.h ****  * atomic_sub_return() - atomic subtract with full ordering
 276:/mnt/c/Users/31740/Desktop/newcore/include/linux/atomic/atomic-instrumented.h ****  * @i: int value to subtract
 277:/mnt/c/Users/31740/Desktop/newcore/include/linux/atomic/atomic-instrumented.h ****  * @v: pointer to atomic_t
 278:/mnt/c/Users/31740/Desktop/newcore/include/linux/atomic/atomic-instrumented.h ****  *
 279:/mnt/c/Users/31740/Desktop/newcore/include/linux/atomic/atomic-instrumented.h ****  * Atomically updates @v to (@v - @i) with full ordering.
 280:/mnt/c/Users/31740/Desktop/newcore/include/linux/atomic/atomic-instrumented.h ****  *
 281:/mnt/c/Users/31740/Desktop/newcore/include/linux/atomic/atomic-instrumented.h ****  * Unsafe to use in noinstr code; use raw_atomic_sub_return() there.
 282:/mnt/c/Users/31740/Desktop/newcore/include/linux/atomic/atomic-instrumented.h ****  *
 283:/mnt/c/Users/31740/Desktop/newcore/include/linux/atomic/atomic-instrumented.h ****  * Return: The updated value of @v.
 284:/mnt/c/Users/31740/Desktop/newcore/include/linux/atomic/atomic-instrumented.h ****  */
 285:/mnt/c/Users/31740/Desktop/newcore/include/linux/atomic/atomic-instrumented.h **** static __always_inline int
 286:/mnt/c/Users/31740/Desktop/newcore/include/linux/atomic/atomic-instrumented.h **** atomic_sub_return(int i, atomic_t *v)
 287:/mnt/c/Users/31740/Desktop/newcore/include/linux/atomic/atomic-instrumented.h **** {
 288:/mnt/c/Users/31740/Desktop/newcore/include/linux/atomic/atomic-instrumented.h **** 	kcsan_mb();
 289:/mnt/c/Users/31740/Desktop/newcore/include/linux/atomic/atomic-instrumented.h **** 	instrument_atomic_read_write(v, sizeof(*v));
 290:/mnt/c/Users/31740/Desktop/newcore/include/linux/atomic/atomic-instrumented.h **** 	return raw_atomic_sub_return(i, v);
 291:/mnt/c/Users/31740/Desktop/newcore/include/linux/atomic/atomic-instrumented.h **** }
 292:/mnt/c/Users/31740/Desktop/newcore/include/linux/atomic/atomic-instrumented.h **** 
 293:/mnt/c/Users/31740/Desktop/newcore/include/linux/atomic/atomic-instrumented.h **** /**
 294:/mnt/c/Users/31740/Desktop/newcore/include/linux/atomic/atomic-instrumented.h ****  * atomic_sub_return_acquire() - atomic subtract with acquire ordering
 295:/mnt/c/Users/31740/Desktop/newcore/include/linux/atomic/atomic-instrumented.h ****  * @i: int value to subtract
ARM GAS  /tmp/ccyCLDig.s 			page 71


 296:/mnt/c/Users/31740/Desktop/newcore/include/linux/atomic/atomic-instrumented.h ****  * @v: pointer to atomic_t
 297:/mnt/c/Users/31740/Desktop/newcore/include/linux/atomic/atomic-instrumented.h ****  *
 298:/mnt/c/Users/31740/Desktop/newcore/include/linux/atomic/atomic-instrumented.h ****  * Atomically updates @v to (@v - @i) with acquire ordering.
 299:/mnt/c/Users/31740/Desktop/newcore/include/linux/atomic/atomic-instrumented.h ****  *
 300:/mnt/c/Users/31740/Desktop/newcore/include/linux/atomic/atomic-instrumented.h ****  * Unsafe to use in noinstr code; use raw_atomic_sub_return_acquire() there.
 301:/mnt/c/Users/31740/Desktop/newcore/include/linux/atomic/atomic-instrumented.h ****  *
 302:/mnt/c/Users/31740/Desktop/newcore/include/linux/atomic/atomic-instrumented.h ****  * Return: The updated value of @v.
 303:/mnt/c/Users/31740/Desktop/newcore/include/linux/atomic/atomic-instrumented.h ****  */
 304:/mnt/c/Users/31740/Desktop/newcore/include/linux/atomic/atomic-instrumented.h **** static __always_inline int
 305:/mnt/c/Users/31740/Desktop/newcore/include/linux/atomic/atomic-instrumented.h **** atomic_sub_return_acquire(int i, atomic_t *v)
 306:/mnt/c/Users/31740/Desktop/newcore/include/linux/atomic/atomic-instrumented.h **** {
 307:/mnt/c/Users/31740/Desktop/newcore/include/linux/atomic/atomic-instrumented.h **** 	instrument_atomic_read_write(v, sizeof(*v));
 308:/mnt/c/Users/31740/Desktop/newcore/include/linux/atomic/atomic-instrumented.h **** 	return raw_atomic_sub_return_acquire(i, v);
 309:/mnt/c/Users/31740/Desktop/newcore/include/linux/atomic/atomic-instrumented.h **** }
 310:/mnt/c/Users/31740/Desktop/newcore/include/linux/atomic/atomic-instrumented.h **** 
 311:/mnt/c/Users/31740/Desktop/newcore/include/linux/atomic/atomic-instrumented.h **** /**
 312:/mnt/c/Users/31740/Desktop/newcore/include/linux/atomic/atomic-instrumented.h ****  * atomic_sub_return_release() - atomic subtract with release ordering
 313:/mnt/c/Users/31740/Desktop/newcore/include/linux/atomic/atomic-instrumented.h ****  * @i: int value to subtract
 314:/mnt/c/Users/31740/Desktop/newcore/include/linux/atomic/atomic-instrumented.h ****  * @v: pointer to atomic_t
 315:/mnt/c/Users/31740/Desktop/newcore/include/linux/atomic/atomic-instrumented.h ****  *
 316:/mnt/c/Users/31740/Desktop/newcore/include/linux/atomic/atomic-instrumented.h ****  * Atomically updates @v to (@v - @i) with release ordering.
 317:/mnt/c/Users/31740/Desktop/newcore/include/linux/atomic/atomic-instrumented.h ****  *
 318:/mnt/c/Users/31740/Desktop/newcore/include/linux/atomic/atomic-instrumented.h ****  * Unsafe to use in noinstr code; use raw_atomic_sub_return_release() there.
 319:/mnt/c/Users/31740/Desktop/newcore/include/linux/atomic/atomic-instrumented.h ****  *
 320:/mnt/c/Users/31740/Desktop/newcore/include/linux/atomic/atomic-instrumented.h ****  * Return: The updated value of @v.
 321:/mnt/c/Users/31740/Desktop/newcore/include/linux/atomic/atomic-instrumented.h ****  */
 322:/mnt/c/Users/31740/Desktop/newcore/include/linux/atomic/atomic-instrumented.h **** static __always_inline int
 323:/mnt/c/Users/31740/Desktop/newcore/include/linux/atomic/atomic-instrumented.h **** atomic_sub_return_release(int i, atomic_t *v)
 324:/mnt/c/Users/31740/Desktop/newcore/include/linux/atomic/atomic-instrumented.h **** {
 325:/mnt/c/Users/31740/Desktop/newcore/include/linux/atomic/atomic-instrumented.h **** 	kcsan_release();
 326:/mnt/c/Users/31740/Desktop/newcore/include/linux/atomic/atomic-instrumented.h **** 	instrument_atomic_read_write(v, sizeof(*v));
 327:/mnt/c/Users/31740/Desktop/newcore/include/linux/atomic/atomic-instrumented.h **** 	return raw_atomic_sub_return_release(i, v);
 328:/mnt/c/Users/31740/Desktop/newcore/include/linux/atomic/atomic-instrumented.h **** }
 329:/mnt/c/Users/31740/Desktop/newcore/include/linux/atomic/atomic-instrumented.h **** 
 330:/mnt/c/Users/31740/Desktop/newcore/include/linux/atomic/atomic-instrumented.h **** /**
 331:/mnt/c/Users/31740/Desktop/newcore/include/linux/atomic/atomic-instrumented.h ****  * atomic_sub_return_relaxed() - atomic subtract with relaxed ordering
 332:/mnt/c/Users/31740/Desktop/newcore/include/linux/atomic/atomic-instrumented.h ****  * @i: int value to subtract
 333:/mnt/c/Users/31740/Desktop/newcore/include/linux/atomic/atomic-instrumented.h ****  * @v: pointer to atomic_t
 334:/mnt/c/Users/31740/Desktop/newcore/include/linux/atomic/atomic-instrumented.h ****  *
 335:/mnt/c/Users/31740/Desktop/newcore/include/linux/atomic/atomic-instrumented.h ****  * Atomically updates @v to (@v - @i) with relaxed ordering.
 336:/mnt/c/Users/31740/Desktop/newcore/include/linux/atomic/atomic-instrumented.h ****  *
 337:/mnt/c/Users/31740/Desktop/newcore/include/linux/atomic/atomic-instrumented.h ****  * Unsafe to use in noinstr code; use raw_atomic_sub_return_relaxed() there.
 338:/mnt/c/Users/31740/Desktop/newcore/include/linux/atomic/atomic-instrumented.h ****  *
 339:/mnt/c/Users/31740/Desktop/newcore/include/linux/atomic/atomic-instrumented.h ****  * Return: The updated value of @v.
 340:/mnt/c/Users/31740/Desktop/newcore/include/linux/atomic/atomic-instrumented.h ****  */
 341:/mnt/c/Users/31740/Desktop/newcore/include/linux/atomic/atomic-instrumented.h **** static __always_inline int
 342:/mnt/c/Users/31740/Desktop/newcore/include/linux/atomic/atomic-instrumented.h **** atomic_sub_return_relaxed(int i, atomic_t *v)
 343:/mnt/c/Users/31740/Desktop/newcore/include/linux/atomic/atomic-instrumented.h **** {
 344:/mnt/c/Users/31740/Desktop/newcore/include/linux/atomic/atomic-instrumented.h **** 	instrument_atomic_read_write(v, sizeof(*v));
 345:/mnt/c/Users/31740/Desktop/newcore/include/linux/atomic/atomic-instrumented.h **** 	return raw_atomic_sub_return_relaxed(i, v);
 346:/mnt/c/Users/31740/Desktop/newcore/include/linux/atomic/atomic-instrumented.h **** }
 347:/mnt/c/Users/31740/Desktop/newcore/include/linux/atomic/atomic-instrumented.h **** 
 348:/mnt/c/Users/31740/Desktop/newcore/include/linux/atomic/atomic-instrumented.h **** /**
 349:/mnt/c/Users/31740/Desktop/newcore/include/linux/atomic/atomic-instrumented.h ****  * atomic_fetch_sub() - atomic subtract with full ordering
 350:/mnt/c/Users/31740/Desktop/newcore/include/linux/atomic/atomic-instrumented.h ****  * @i: int value to subtract
 351:/mnt/c/Users/31740/Desktop/newcore/include/linux/atomic/atomic-instrumented.h ****  * @v: pointer to atomic_t
 352:/mnt/c/Users/31740/Desktop/newcore/include/linux/atomic/atomic-instrumented.h ****  *
ARM GAS  /tmp/ccyCLDig.s 			page 72


 353:/mnt/c/Users/31740/Desktop/newcore/include/linux/atomic/atomic-instrumented.h ****  * Atomically updates @v to (@v - @i) with full ordering.
 354:/mnt/c/Users/31740/Desktop/newcore/include/linux/atomic/atomic-instrumented.h ****  *
 355:/mnt/c/Users/31740/Desktop/newcore/include/linux/atomic/atomic-instrumented.h ****  * Unsafe to use in noinstr code; use raw_atomic_fetch_sub() there.
 356:/mnt/c/Users/31740/Desktop/newcore/include/linux/atomic/atomic-instrumented.h ****  *
 357:/mnt/c/Users/31740/Desktop/newcore/include/linux/atomic/atomic-instrumented.h ****  * Return: The original value of @v.
 358:/mnt/c/Users/31740/Desktop/newcore/include/linux/atomic/atomic-instrumented.h ****  */
 359:/mnt/c/Users/31740/Desktop/newcore/include/linux/atomic/atomic-instrumented.h **** static __always_inline int
 360:/mnt/c/Users/31740/Desktop/newcore/include/linux/atomic/atomic-instrumented.h **** atomic_fetch_sub(int i, atomic_t *v)
 361:/mnt/c/Users/31740/Desktop/newcore/include/linux/atomic/atomic-instrumented.h **** {
 362:/mnt/c/Users/31740/Desktop/newcore/include/linux/atomic/atomic-instrumented.h **** 	kcsan_mb();
 363:/mnt/c/Users/31740/Desktop/newcore/include/linux/atomic/atomic-instrumented.h **** 	instrument_atomic_read_write(v, sizeof(*v));
 364:/mnt/c/Users/31740/Desktop/newcore/include/linux/atomic/atomic-instrumented.h **** 	return raw_atomic_fetch_sub(i, v);
 365:/mnt/c/Users/31740/Desktop/newcore/include/linux/atomic/atomic-instrumented.h **** }
 366:/mnt/c/Users/31740/Desktop/newcore/include/linux/atomic/atomic-instrumented.h **** 
 367:/mnt/c/Users/31740/Desktop/newcore/include/linux/atomic/atomic-instrumented.h **** /**
 368:/mnt/c/Users/31740/Desktop/newcore/include/linux/atomic/atomic-instrumented.h ****  * atomic_fetch_sub_acquire() - atomic subtract with acquire ordering
 369:/mnt/c/Users/31740/Desktop/newcore/include/linux/atomic/atomic-instrumented.h ****  * @i: int value to subtract
 370:/mnt/c/Users/31740/Desktop/newcore/include/linux/atomic/atomic-instrumented.h ****  * @v: pointer to atomic_t
 371:/mnt/c/Users/31740/Desktop/newcore/include/linux/atomic/atomic-instrumented.h ****  *
 372:/mnt/c/Users/31740/Desktop/newcore/include/linux/atomic/atomic-instrumented.h ****  * Atomically updates @v to (@v - @i) with acquire ordering.
 373:/mnt/c/Users/31740/Desktop/newcore/include/linux/atomic/atomic-instrumented.h ****  *
 374:/mnt/c/Users/31740/Desktop/newcore/include/linux/atomic/atomic-instrumented.h ****  * Unsafe to use in noinstr code; use raw_atomic_fetch_sub_acquire() there.
 375:/mnt/c/Users/31740/Desktop/newcore/include/linux/atomic/atomic-instrumented.h ****  *
 376:/mnt/c/Users/31740/Desktop/newcore/include/linux/atomic/atomic-instrumented.h ****  * Return: The original value of @v.
 377:/mnt/c/Users/31740/Desktop/newcore/include/linux/atomic/atomic-instrumented.h ****  */
 378:/mnt/c/Users/31740/Desktop/newcore/include/linux/atomic/atomic-instrumented.h **** static __always_inline int
 379:/mnt/c/Users/31740/Desktop/newcore/include/linux/atomic/atomic-instrumented.h **** atomic_fetch_sub_acquire(int i, atomic_t *v)
 380:/mnt/c/Users/31740/Desktop/newcore/include/linux/atomic/atomic-instrumented.h **** {
 381:/mnt/c/Users/31740/Desktop/newcore/include/linux/atomic/atomic-instrumented.h **** 	instrument_atomic_read_write(v, sizeof(*v));
 382:/mnt/c/Users/31740/Desktop/newcore/include/linux/atomic/atomic-instrumented.h **** 	return raw_atomic_fetch_sub_acquire(i, v);
 383:/mnt/c/Users/31740/Desktop/newcore/include/linux/atomic/atomic-instrumented.h **** }
 384:/mnt/c/Users/31740/Desktop/newcore/include/linux/atomic/atomic-instrumented.h **** 
 385:/mnt/c/Users/31740/Desktop/newcore/include/linux/atomic/atomic-instrumented.h **** /**
 386:/mnt/c/Users/31740/Desktop/newcore/include/linux/atomic/atomic-instrumented.h ****  * atomic_fetch_sub_release() - atomic subtract with release ordering
 387:/mnt/c/Users/31740/Desktop/newcore/include/linux/atomic/atomic-instrumented.h ****  * @i: int value to subtract
 388:/mnt/c/Users/31740/Desktop/newcore/include/linux/atomic/atomic-instrumented.h ****  * @v: pointer to atomic_t
 389:/mnt/c/Users/31740/Desktop/newcore/include/linux/atomic/atomic-instrumented.h ****  *
 390:/mnt/c/Users/31740/Desktop/newcore/include/linux/atomic/atomic-instrumented.h ****  * Atomically updates @v to (@v - @i) with release ordering.
 391:/mnt/c/Users/31740/Desktop/newcore/include/linux/atomic/atomic-instrumented.h ****  *
 392:/mnt/c/Users/31740/Desktop/newcore/include/linux/atomic/atomic-instrumented.h ****  * Unsafe to use in noinstr code; use raw_atomic_fetch_sub_release() there.
 393:/mnt/c/Users/31740/Desktop/newcore/include/linux/atomic/atomic-instrumented.h ****  *
 394:/mnt/c/Users/31740/Desktop/newcore/include/linux/atomic/atomic-instrumented.h ****  * Return: The original value of @v.
 395:/mnt/c/Users/31740/Desktop/newcore/include/linux/atomic/atomic-instrumented.h ****  */
 396:/mnt/c/Users/31740/Desktop/newcore/include/linux/atomic/atomic-instrumented.h **** static __always_inline int
 397:/mnt/c/Users/31740/Desktop/newcore/include/linux/atomic/atomic-instrumented.h **** atomic_fetch_sub_release(int i, atomic_t *v)
 398:/mnt/c/Users/31740/Desktop/newcore/include/linux/atomic/atomic-instrumented.h **** {
 399:/mnt/c/Users/31740/Desktop/newcore/include/linux/atomic/atomic-instrumented.h **** 	kcsan_release();
 400:/mnt/c/Users/31740/Desktop/newcore/include/linux/atomic/atomic-instrumented.h **** 	instrument_atomic_read_write(v, sizeof(*v));
 401:/mnt/c/Users/31740/Desktop/newcore/include/linux/atomic/atomic-instrumented.h **** 	return raw_atomic_fetch_sub_release(i, v);
 402:/mnt/c/Users/31740/Desktop/newcore/include/linux/atomic/atomic-instrumented.h **** }
 403:/mnt/c/Users/31740/Desktop/newcore/include/linux/atomic/atomic-instrumented.h **** 
 404:/mnt/c/Users/31740/Desktop/newcore/include/linux/atomic/atomic-instrumented.h **** /**
 405:/mnt/c/Users/31740/Desktop/newcore/include/linux/atomic/atomic-instrumented.h ****  * atomic_fetch_sub_relaxed() - atomic subtract with relaxed ordering
 406:/mnt/c/Users/31740/Desktop/newcore/include/linux/atomic/atomic-instrumented.h ****  * @i: int value to subtract
 407:/mnt/c/Users/31740/Desktop/newcore/include/linux/atomic/atomic-instrumented.h ****  * @v: pointer to atomic_t
 408:/mnt/c/Users/31740/Desktop/newcore/include/linux/atomic/atomic-instrumented.h ****  *
 409:/mnt/c/Users/31740/Desktop/newcore/include/linux/atomic/atomic-instrumented.h ****  * Atomically updates @v to (@v - @i) with relaxed ordering.
ARM GAS  /tmp/ccyCLDig.s 			page 73


 410:/mnt/c/Users/31740/Desktop/newcore/include/linux/atomic/atomic-instrumented.h ****  *
 411:/mnt/c/Users/31740/Desktop/newcore/include/linux/atomic/atomic-instrumented.h ****  * Unsafe to use in noinstr code; use raw_atomic_fetch_sub_relaxed() there.
 412:/mnt/c/Users/31740/Desktop/newcore/include/linux/atomic/atomic-instrumented.h ****  *
 413:/mnt/c/Users/31740/Desktop/newcore/include/linux/atomic/atomic-instrumented.h ****  * Return: The original value of @v.
 414:/mnt/c/Users/31740/Desktop/newcore/include/linux/atomic/atomic-instrumented.h ****  */
 415:/mnt/c/Users/31740/Desktop/newcore/include/linux/atomic/atomic-instrumented.h **** static __always_inline int
 416:/mnt/c/Users/31740/Desktop/newcore/include/linux/atomic/atomic-instrumented.h **** atomic_fetch_sub_relaxed(int i, atomic_t *v)
 417:/mnt/c/Users/31740/Desktop/newcore/include/linux/atomic/atomic-instrumented.h **** {
 418:/mnt/c/Users/31740/Desktop/newcore/include/linux/atomic/atomic-instrumented.h **** 	instrument_atomic_read_write(v, sizeof(*v));
 419:/mnt/c/Users/31740/Desktop/newcore/include/linux/atomic/atomic-instrumented.h **** 	return raw_atomic_fetch_sub_relaxed(i, v);
 420:/mnt/c/Users/31740/Desktop/newcore/include/linux/atomic/atomic-instrumented.h **** }
 421:/mnt/c/Users/31740/Desktop/newcore/include/linux/atomic/atomic-instrumented.h **** 
 422:/mnt/c/Users/31740/Desktop/newcore/include/linux/atomic/atomic-instrumented.h **** /**
 423:/mnt/c/Users/31740/Desktop/newcore/include/linux/atomic/atomic-instrumented.h ****  * atomic_inc() - atomic increment with relaxed ordering
 424:/mnt/c/Users/31740/Desktop/newcore/include/linux/atomic/atomic-instrumented.h ****  * @v: pointer to atomic_t
 425:/mnt/c/Users/31740/Desktop/newcore/include/linux/atomic/atomic-instrumented.h ****  *
 426:/mnt/c/Users/31740/Desktop/newcore/include/linux/atomic/atomic-instrumented.h ****  * Atomically updates @v to (@v + 1) with relaxed ordering.
 427:/mnt/c/Users/31740/Desktop/newcore/include/linux/atomic/atomic-instrumented.h ****  *
 428:/mnt/c/Users/31740/Desktop/newcore/include/linux/atomic/atomic-instrumented.h ****  * Unsafe to use in noinstr code; use raw_atomic_inc() there.
 429:/mnt/c/Users/31740/Desktop/newcore/include/linux/atomic/atomic-instrumented.h ****  *
 430:/mnt/c/Users/31740/Desktop/newcore/include/linux/atomic/atomic-instrumented.h ****  * Return: Nothing.
 431:/mnt/c/Users/31740/Desktop/newcore/include/linux/atomic/atomic-instrumented.h ****  */
 432:/mnt/c/Users/31740/Desktop/newcore/include/linux/atomic/atomic-instrumented.h **** static __always_inline void
 433:/mnt/c/Users/31740/Desktop/newcore/include/linux/atomic/atomic-instrumented.h **** atomic_inc(atomic_t *v)
 434:/mnt/c/Users/31740/Desktop/newcore/include/linux/atomic/atomic-instrumented.h **** {
 435:/mnt/c/Users/31740/Desktop/newcore/include/linux/atomic/atomic-instrumented.h **** 	instrument_atomic_read_write(v, sizeof(*v));
 436:/mnt/c/Users/31740/Desktop/newcore/include/linux/atomic/atomic-instrumented.h **** 	raw_atomic_inc(v);
 437:/mnt/c/Users/31740/Desktop/newcore/include/linux/atomic/atomic-instrumented.h **** }
 438:/mnt/c/Users/31740/Desktop/newcore/include/linux/atomic/atomic-instrumented.h **** 
 439:/mnt/c/Users/31740/Desktop/newcore/include/linux/atomic/atomic-instrumented.h **** /**
 440:/mnt/c/Users/31740/Desktop/newcore/include/linux/atomic/atomic-instrumented.h ****  * atomic_inc_return() - atomic increment with full ordering
 441:/mnt/c/Users/31740/Desktop/newcore/include/linux/atomic/atomic-instrumented.h ****  * @v: pointer to atomic_t
 442:/mnt/c/Users/31740/Desktop/newcore/include/linux/atomic/atomic-instrumented.h ****  *
 443:/mnt/c/Users/31740/Desktop/newcore/include/linux/atomic/atomic-instrumented.h ****  * Atomically updates @v to (@v + 1) with full ordering.
 444:/mnt/c/Users/31740/Desktop/newcore/include/linux/atomic/atomic-instrumented.h ****  *
 445:/mnt/c/Users/31740/Desktop/newcore/include/linux/atomic/atomic-instrumented.h ****  * Unsafe to use in noinstr code; use raw_atomic_inc_return() there.
 446:/mnt/c/Users/31740/Desktop/newcore/include/linux/atomic/atomic-instrumented.h ****  *
 447:/mnt/c/Users/31740/Desktop/newcore/include/linux/atomic/atomic-instrumented.h ****  * Return: The updated value of @v.
 448:/mnt/c/Users/31740/Desktop/newcore/include/linux/atomic/atomic-instrumented.h ****  */
 449:/mnt/c/Users/31740/Desktop/newcore/include/linux/atomic/atomic-instrumented.h **** static __always_inline int
 450:/mnt/c/Users/31740/Desktop/newcore/include/linux/atomic/atomic-instrumented.h **** atomic_inc_return(atomic_t *v)
 451:/mnt/c/Users/31740/Desktop/newcore/include/linux/atomic/atomic-instrumented.h **** {
 452:/mnt/c/Users/31740/Desktop/newcore/include/linux/atomic/atomic-instrumented.h **** 	kcsan_mb();
 453:/mnt/c/Users/31740/Desktop/newcore/include/linux/atomic/atomic-instrumented.h **** 	instrument_atomic_read_write(v, sizeof(*v));
 454:/mnt/c/Users/31740/Desktop/newcore/include/linux/atomic/atomic-instrumented.h **** 	return raw_atomic_inc_return(v);
 455:/mnt/c/Users/31740/Desktop/newcore/include/linux/atomic/atomic-instrumented.h **** }
 456:/mnt/c/Users/31740/Desktop/newcore/include/linux/atomic/atomic-instrumented.h **** 
 457:/mnt/c/Users/31740/Desktop/newcore/include/linux/atomic/atomic-instrumented.h **** /**
 458:/mnt/c/Users/31740/Desktop/newcore/include/linux/atomic/atomic-instrumented.h ****  * atomic_inc_return_acquire() - atomic increment with acquire ordering
 459:/mnt/c/Users/31740/Desktop/newcore/include/linux/atomic/atomic-instrumented.h ****  * @v: pointer to atomic_t
 460:/mnt/c/Users/31740/Desktop/newcore/include/linux/atomic/atomic-instrumented.h ****  *
 461:/mnt/c/Users/31740/Desktop/newcore/include/linux/atomic/atomic-instrumented.h ****  * Atomically updates @v to (@v + 1) with acquire ordering.
 462:/mnt/c/Users/31740/Desktop/newcore/include/linux/atomic/atomic-instrumented.h ****  *
 463:/mnt/c/Users/31740/Desktop/newcore/include/linux/atomic/atomic-instrumented.h ****  * Unsafe to use in noinstr code; use raw_atomic_inc_return_acquire() there.
 464:/mnt/c/Users/31740/Desktop/newcore/include/linux/atomic/atomic-instrumented.h ****  *
 465:/mnt/c/Users/31740/Desktop/newcore/include/linux/atomic/atomic-instrumented.h ****  * Return: The updated value of @v.
 466:/mnt/c/Users/31740/Desktop/newcore/include/linux/atomic/atomic-instrumented.h ****  */
ARM GAS  /tmp/ccyCLDig.s 			page 74


 467:/mnt/c/Users/31740/Desktop/newcore/include/linux/atomic/atomic-instrumented.h **** static __always_inline int
 468:/mnt/c/Users/31740/Desktop/newcore/include/linux/atomic/atomic-instrumented.h **** atomic_inc_return_acquire(atomic_t *v)
 469:/mnt/c/Users/31740/Desktop/newcore/include/linux/atomic/atomic-instrumented.h **** {
 470:/mnt/c/Users/31740/Desktop/newcore/include/linux/atomic/atomic-instrumented.h **** 	instrument_atomic_read_write(v, sizeof(*v));
 471:/mnt/c/Users/31740/Desktop/newcore/include/linux/atomic/atomic-instrumented.h **** 	return raw_atomic_inc_return_acquire(v);
 472:/mnt/c/Users/31740/Desktop/newcore/include/linux/atomic/atomic-instrumented.h **** }
 473:/mnt/c/Users/31740/Desktop/newcore/include/linux/atomic/atomic-instrumented.h **** 
 474:/mnt/c/Users/31740/Desktop/newcore/include/linux/atomic/atomic-instrumented.h **** /**
 475:/mnt/c/Users/31740/Desktop/newcore/include/linux/atomic/atomic-instrumented.h ****  * atomic_inc_return_release() - atomic increment with release ordering
 476:/mnt/c/Users/31740/Desktop/newcore/include/linux/atomic/atomic-instrumented.h ****  * @v: pointer to atomic_t
 477:/mnt/c/Users/31740/Desktop/newcore/include/linux/atomic/atomic-instrumented.h ****  *
 478:/mnt/c/Users/31740/Desktop/newcore/include/linux/atomic/atomic-instrumented.h ****  * Atomically updates @v to (@v + 1) with release ordering.
 479:/mnt/c/Users/31740/Desktop/newcore/include/linux/atomic/atomic-instrumented.h ****  *
 480:/mnt/c/Users/31740/Desktop/newcore/include/linux/atomic/atomic-instrumented.h ****  * Unsafe to use in noinstr code; use raw_atomic_inc_return_release() there.
 481:/mnt/c/Users/31740/Desktop/newcore/include/linux/atomic/atomic-instrumented.h ****  *
 482:/mnt/c/Users/31740/Desktop/newcore/include/linux/atomic/atomic-instrumented.h ****  * Return: The updated value of @v.
 483:/mnt/c/Users/31740/Desktop/newcore/include/linux/atomic/atomic-instrumented.h ****  */
 484:/mnt/c/Users/31740/Desktop/newcore/include/linux/atomic/atomic-instrumented.h **** static __always_inline int
 485:/mnt/c/Users/31740/Desktop/newcore/include/linux/atomic/atomic-instrumented.h **** atomic_inc_return_release(atomic_t *v)
 486:/mnt/c/Users/31740/Desktop/newcore/include/linux/atomic/atomic-instrumented.h **** {
 487:/mnt/c/Users/31740/Desktop/newcore/include/linux/atomic/atomic-instrumented.h **** 	kcsan_release();
 488:/mnt/c/Users/31740/Desktop/newcore/include/linux/atomic/atomic-instrumented.h **** 	instrument_atomic_read_write(v, sizeof(*v));
 489:/mnt/c/Users/31740/Desktop/newcore/include/linux/atomic/atomic-instrumented.h **** 	return raw_atomic_inc_return_release(v);
 490:/mnt/c/Users/31740/Desktop/newcore/include/linux/atomic/atomic-instrumented.h **** }
 491:/mnt/c/Users/31740/Desktop/newcore/include/linux/atomic/atomic-instrumented.h **** 
 492:/mnt/c/Users/31740/Desktop/newcore/include/linux/atomic/atomic-instrumented.h **** /**
 493:/mnt/c/Users/31740/Desktop/newcore/include/linux/atomic/atomic-instrumented.h ****  * atomic_inc_return_relaxed() - atomic increment with relaxed ordering
 494:/mnt/c/Users/31740/Desktop/newcore/include/linux/atomic/atomic-instrumented.h ****  * @v: pointer to atomic_t
 495:/mnt/c/Users/31740/Desktop/newcore/include/linux/atomic/atomic-instrumented.h ****  *
 496:/mnt/c/Users/31740/Desktop/newcore/include/linux/atomic/atomic-instrumented.h ****  * Atomically updates @v to (@v + 1) with relaxed ordering.
 497:/mnt/c/Users/31740/Desktop/newcore/include/linux/atomic/atomic-instrumented.h ****  *
 498:/mnt/c/Users/31740/Desktop/newcore/include/linux/atomic/atomic-instrumented.h ****  * Unsafe to use in noinstr code; use raw_atomic_inc_return_relaxed() there.
 499:/mnt/c/Users/31740/Desktop/newcore/include/linux/atomic/atomic-instrumented.h ****  *
 500:/mnt/c/Users/31740/Desktop/newcore/include/linux/atomic/atomic-instrumented.h ****  * Return: The updated value of @v.
 501:/mnt/c/Users/31740/Desktop/newcore/include/linux/atomic/atomic-instrumented.h ****  */
 502:/mnt/c/Users/31740/Desktop/newcore/include/linux/atomic/atomic-instrumented.h **** static __always_inline int
 503:/mnt/c/Users/31740/Desktop/newcore/include/linux/atomic/atomic-instrumented.h **** atomic_inc_return_relaxed(atomic_t *v)
 504:/mnt/c/Users/31740/Desktop/newcore/include/linux/atomic/atomic-instrumented.h **** {
 505:/mnt/c/Users/31740/Desktop/newcore/include/linux/atomic/atomic-instrumented.h **** 	instrument_atomic_read_write(v, sizeof(*v));
 506:/mnt/c/Users/31740/Desktop/newcore/include/linux/atomic/atomic-instrumented.h **** 	return raw_atomic_inc_return_relaxed(v);
 507:/mnt/c/Users/31740/Desktop/newcore/include/linux/atomic/atomic-instrumented.h **** }
 508:/mnt/c/Users/31740/Desktop/newcore/include/linux/atomic/atomic-instrumented.h **** 
 509:/mnt/c/Users/31740/Desktop/newcore/include/linux/atomic/atomic-instrumented.h **** /**
 510:/mnt/c/Users/31740/Desktop/newcore/include/linux/atomic/atomic-instrumented.h ****  * atomic_fetch_inc() - atomic increment with full ordering
 511:/mnt/c/Users/31740/Desktop/newcore/include/linux/atomic/atomic-instrumented.h ****  * @v: pointer to atomic_t
 512:/mnt/c/Users/31740/Desktop/newcore/include/linux/atomic/atomic-instrumented.h ****  *
 513:/mnt/c/Users/31740/Desktop/newcore/include/linux/atomic/atomic-instrumented.h ****  * Atomically updates @v to (@v + 1) with full ordering.
 514:/mnt/c/Users/31740/Desktop/newcore/include/linux/atomic/atomic-instrumented.h ****  *
 515:/mnt/c/Users/31740/Desktop/newcore/include/linux/atomic/atomic-instrumented.h ****  * Unsafe to use in noinstr code; use raw_atomic_fetch_inc() there.
 516:/mnt/c/Users/31740/Desktop/newcore/include/linux/atomic/atomic-instrumented.h ****  *
 517:/mnt/c/Users/31740/Desktop/newcore/include/linux/atomic/atomic-instrumented.h ****  * Return: The original value of @v.
 518:/mnt/c/Users/31740/Desktop/newcore/include/linux/atomic/atomic-instrumented.h ****  */
 519:/mnt/c/Users/31740/Desktop/newcore/include/linux/atomic/atomic-instrumented.h **** static __always_inline int
 520:/mnt/c/Users/31740/Desktop/newcore/include/linux/atomic/atomic-instrumented.h **** atomic_fetch_inc(atomic_t *v)
 521:/mnt/c/Users/31740/Desktop/newcore/include/linux/atomic/atomic-instrumented.h **** {
 522:/mnt/c/Users/31740/Desktop/newcore/include/linux/atomic/atomic-instrumented.h **** 	kcsan_mb();
 523:/mnt/c/Users/31740/Desktop/newcore/include/linux/atomic/atomic-instrumented.h **** 	instrument_atomic_read_write(v, sizeof(*v));
ARM GAS  /tmp/ccyCLDig.s 			page 75


 524:/mnt/c/Users/31740/Desktop/newcore/include/linux/atomic/atomic-instrumented.h **** 	return raw_atomic_fetch_inc(v);
 525:/mnt/c/Users/31740/Desktop/newcore/include/linux/atomic/atomic-instrumented.h **** }
 526:/mnt/c/Users/31740/Desktop/newcore/include/linux/atomic/atomic-instrumented.h **** 
 527:/mnt/c/Users/31740/Desktop/newcore/include/linux/atomic/atomic-instrumented.h **** /**
 528:/mnt/c/Users/31740/Desktop/newcore/include/linux/atomic/atomic-instrumented.h ****  * atomic_fetch_inc_acquire() - atomic increment with acquire ordering
 529:/mnt/c/Users/31740/Desktop/newcore/include/linux/atomic/atomic-instrumented.h ****  * @v: pointer to atomic_t
 530:/mnt/c/Users/31740/Desktop/newcore/include/linux/atomic/atomic-instrumented.h ****  *
 531:/mnt/c/Users/31740/Desktop/newcore/include/linux/atomic/atomic-instrumented.h ****  * Atomically updates @v to (@v + 1) with acquire ordering.
 532:/mnt/c/Users/31740/Desktop/newcore/include/linux/atomic/atomic-instrumented.h ****  *
 533:/mnt/c/Users/31740/Desktop/newcore/include/linux/atomic/atomic-instrumented.h ****  * Unsafe to use in noinstr code; use raw_atomic_fetch_inc_acquire() there.
 534:/mnt/c/Users/31740/Desktop/newcore/include/linux/atomic/atomic-instrumented.h ****  *
 535:/mnt/c/Users/31740/Desktop/newcore/include/linux/atomic/atomic-instrumented.h ****  * Return: The original value of @v.
 536:/mnt/c/Users/31740/Desktop/newcore/include/linux/atomic/atomic-instrumented.h ****  */
 537:/mnt/c/Users/31740/Desktop/newcore/include/linux/atomic/atomic-instrumented.h **** static __always_inline int
 538:/mnt/c/Users/31740/Desktop/newcore/include/linux/atomic/atomic-instrumented.h **** atomic_fetch_inc_acquire(atomic_t *v)
 539:/mnt/c/Users/31740/Desktop/newcore/include/linux/atomic/atomic-instrumented.h **** {
 540:/mnt/c/Users/31740/Desktop/newcore/include/linux/atomic/atomic-instrumented.h **** 	instrument_atomic_read_write(v, sizeof(*v));
 541:/mnt/c/Users/31740/Desktop/newcore/include/linux/atomic/atomic-instrumented.h **** 	return raw_atomic_fetch_inc_acquire(v);
 542:/mnt/c/Users/31740/Desktop/newcore/include/linux/atomic/atomic-instrumented.h **** }
 543:/mnt/c/Users/31740/Desktop/newcore/include/linux/atomic/atomic-instrumented.h **** 
 544:/mnt/c/Users/31740/Desktop/newcore/include/linux/atomic/atomic-instrumented.h **** /**
 545:/mnt/c/Users/31740/Desktop/newcore/include/linux/atomic/atomic-instrumented.h ****  * atomic_fetch_inc_release() - atomic increment with release ordering
 546:/mnt/c/Users/31740/Desktop/newcore/include/linux/atomic/atomic-instrumented.h ****  * @v: pointer to atomic_t
 547:/mnt/c/Users/31740/Desktop/newcore/include/linux/atomic/atomic-instrumented.h ****  *
 548:/mnt/c/Users/31740/Desktop/newcore/include/linux/atomic/atomic-instrumented.h ****  * Atomically updates @v to (@v + 1) with release ordering.
 549:/mnt/c/Users/31740/Desktop/newcore/include/linux/atomic/atomic-instrumented.h ****  *
 550:/mnt/c/Users/31740/Desktop/newcore/include/linux/atomic/atomic-instrumented.h ****  * Unsafe to use in noinstr code; use raw_atomic_fetch_inc_release() there.
 551:/mnt/c/Users/31740/Desktop/newcore/include/linux/atomic/atomic-instrumented.h ****  *
 552:/mnt/c/Users/31740/Desktop/newcore/include/linux/atomic/atomic-instrumented.h ****  * Return: The original value of @v.
 553:/mnt/c/Users/31740/Desktop/newcore/include/linux/atomic/atomic-instrumented.h ****  */
 554:/mnt/c/Users/31740/Desktop/newcore/include/linux/atomic/atomic-instrumented.h **** static __always_inline int
 555:/mnt/c/Users/31740/Desktop/newcore/include/linux/atomic/atomic-instrumented.h **** atomic_fetch_inc_release(atomic_t *v)
 556:/mnt/c/Users/31740/Desktop/newcore/include/linux/atomic/atomic-instrumented.h **** {
 557:/mnt/c/Users/31740/Desktop/newcore/include/linux/atomic/atomic-instrumented.h **** 	kcsan_release();
 558:/mnt/c/Users/31740/Desktop/newcore/include/linux/atomic/atomic-instrumented.h **** 	instrument_atomic_read_write(v, sizeof(*v));
 559:/mnt/c/Users/31740/Desktop/newcore/include/linux/atomic/atomic-instrumented.h **** 	return raw_atomic_fetch_inc_release(v);
 560:/mnt/c/Users/31740/Desktop/newcore/include/linux/atomic/atomic-instrumented.h **** }
 561:/mnt/c/Users/31740/Desktop/newcore/include/linux/atomic/atomic-instrumented.h **** 
 562:/mnt/c/Users/31740/Desktop/newcore/include/linux/atomic/atomic-instrumented.h **** /**
 563:/mnt/c/Users/31740/Desktop/newcore/include/linux/atomic/atomic-instrumented.h ****  * atomic_fetch_inc_relaxed() - atomic increment with relaxed ordering
 564:/mnt/c/Users/31740/Desktop/newcore/include/linux/atomic/atomic-instrumented.h ****  * @v: pointer to atomic_t
 565:/mnt/c/Users/31740/Desktop/newcore/include/linux/atomic/atomic-instrumented.h ****  *
 566:/mnt/c/Users/31740/Desktop/newcore/include/linux/atomic/atomic-instrumented.h ****  * Atomically updates @v to (@v + 1) with relaxed ordering.
 567:/mnt/c/Users/31740/Desktop/newcore/include/linux/atomic/atomic-instrumented.h ****  *
 568:/mnt/c/Users/31740/Desktop/newcore/include/linux/atomic/atomic-instrumented.h ****  * Unsafe to use in noinstr code; use raw_atomic_fetch_inc_relaxed() there.
 569:/mnt/c/Users/31740/Desktop/newcore/include/linux/atomic/atomic-instrumented.h ****  *
 570:/mnt/c/Users/31740/Desktop/newcore/include/linux/atomic/atomic-instrumented.h ****  * Return: The original value of @v.
 571:/mnt/c/Users/31740/Desktop/newcore/include/linux/atomic/atomic-instrumented.h ****  */
 572:/mnt/c/Users/31740/Desktop/newcore/include/linux/atomic/atomic-instrumented.h **** static __always_inline int
 573:/mnt/c/Users/31740/Desktop/newcore/include/linux/atomic/atomic-instrumented.h **** atomic_fetch_inc_relaxed(atomic_t *v)
 574:/mnt/c/Users/31740/Desktop/newcore/include/linux/atomic/atomic-instrumented.h **** {
 575:/mnt/c/Users/31740/Desktop/newcore/include/linux/atomic/atomic-instrumented.h **** 	instrument_atomic_read_write(v, sizeof(*v));
 576:/mnt/c/Users/31740/Desktop/newcore/include/linux/atomic/atomic-instrumented.h **** 	return raw_atomic_fetch_inc_relaxed(v);
 577:/mnt/c/Users/31740/Desktop/newcore/include/linux/atomic/atomic-instrumented.h **** }
 578:/mnt/c/Users/31740/Desktop/newcore/include/linux/atomic/atomic-instrumented.h **** 
 579:/mnt/c/Users/31740/Desktop/newcore/include/linux/atomic/atomic-instrumented.h **** /**
 580:/mnt/c/Users/31740/Desktop/newcore/include/linux/atomic/atomic-instrumented.h ****  * atomic_dec() - atomic decrement with relaxed ordering
ARM GAS  /tmp/ccyCLDig.s 			page 76


 581:/mnt/c/Users/31740/Desktop/newcore/include/linux/atomic/atomic-instrumented.h ****  * @v: pointer to atomic_t
 582:/mnt/c/Users/31740/Desktop/newcore/include/linux/atomic/atomic-instrumented.h ****  *
 583:/mnt/c/Users/31740/Desktop/newcore/include/linux/atomic/atomic-instrumented.h ****  * Atomically updates @v to (@v - 1) with relaxed ordering.
 584:/mnt/c/Users/31740/Desktop/newcore/include/linux/atomic/atomic-instrumented.h ****  *
 585:/mnt/c/Users/31740/Desktop/newcore/include/linux/atomic/atomic-instrumented.h ****  * Unsafe to use in noinstr code; use raw_atomic_dec() there.
 586:/mnt/c/Users/31740/Desktop/newcore/include/linux/atomic/atomic-instrumented.h ****  *
 587:/mnt/c/Users/31740/Desktop/newcore/include/linux/atomic/atomic-instrumented.h ****  * Return: Nothing.
 588:/mnt/c/Users/31740/Desktop/newcore/include/linux/atomic/atomic-instrumented.h ****  */
 589:/mnt/c/Users/31740/Desktop/newcore/include/linux/atomic/atomic-instrumented.h **** static __always_inline void
 590:/mnt/c/Users/31740/Desktop/newcore/include/linux/atomic/atomic-instrumented.h **** atomic_dec(atomic_t *v)
 591:/mnt/c/Users/31740/Desktop/newcore/include/linux/atomic/atomic-instrumented.h **** {
 592:/mnt/c/Users/31740/Desktop/newcore/include/linux/atomic/atomic-instrumented.h **** 	instrument_atomic_read_write(v, sizeof(*v));
 593:/mnt/c/Users/31740/Desktop/newcore/include/linux/atomic/atomic-instrumented.h **** 	raw_atomic_dec(v);
 594:/mnt/c/Users/31740/Desktop/newcore/include/linux/atomic/atomic-instrumented.h **** }
 595:/mnt/c/Users/31740/Desktop/newcore/include/linux/atomic/atomic-instrumented.h **** 
 596:/mnt/c/Users/31740/Desktop/newcore/include/linux/atomic/atomic-instrumented.h **** /**
 597:/mnt/c/Users/31740/Desktop/newcore/include/linux/atomic/atomic-instrumented.h ****  * atomic_dec_return() - atomic decrement with full ordering
 598:/mnt/c/Users/31740/Desktop/newcore/include/linux/atomic/atomic-instrumented.h ****  * @v: pointer to atomic_t
 599:/mnt/c/Users/31740/Desktop/newcore/include/linux/atomic/atomic-instrumented.h ****  *
 600:/mnt/c/Users/31740/Desktop/newcore/include/linux/atomic/atomic-instrumented.h ****  * Atomically updates @v to (@v - 1) with full ordering.
 601:/mnt/c/Users/31740/Desktop/newcore/include/linux/atomic/atomic-instrumented.h ****  *
 602:/mnt/c/Users/31740/Desktop/newcore/include/linux/atomic/atomic-instrumented.h ****  * Unsafe to use in noinstr code; use raw_atomic_dec_return() there.
 603:/mnt/c/Users/31740/Desktop/newcore/include/linux/atomic/atomic-instrumented.h ****  *
 604:/mnt/c/Users/31740/Desktop/newcore/include/linux/atomic/atomic-instrumented.h ****  * Return: The updated value of @v.
 605:/mnt/c/Users/31740/Desktop/newcore/include/linux/atomic/atomic-instrumented.h ****  */
 606:/mnt/c/Users/31740/Desktop/newcore/include/linux/atomic/atomic-instrumented.h **** static __always_inline int
 607:/mnt/c/Users/31740/Desktop/newcore/include/linux/atomic/atomic-instrumented.h **** atomic_dec_return(atomic_t *v)
 608:/mnt/c/Users/31740/Desktop/newcore/include/linux/atomic/atomic-instrumented.h **** {
 609:/mnt/c/Users/31740/Desktop/newcore/include/linux/atomic/atomic-instrumented.h **** 	kcsan_mb();
 610:/mnt/c/Users/31740/Desktop/newcore/include/linux/atomic/atomic-instrumented.h **** 	instrument_atomic_read_write(v, sizeof(*v));
 611:/mnt/c/Users/31740/Desktop/newcore/include/linux/atomic/atomic-instrumented.h **** 	return raw_atomic_dec_return(v);
 612:/mnt/c/Users/31740/Desktop/newcore/include/linux/atomic/atomic-instrumented.h **** }
 613:/mnt/c/Users/31740/Desktop/newcore/include/linux/atomic/atomic-instrumented.h **** 
 614:/mnt/c/Users/31740/Desktop/newcore/include/linux/atomic/atomic-instrumented.h **** /**
 615:/mnt/c/Users/31740/Desktop/newcore/include/linux/atomic/atomic-instrumented.h ****  * atomic_dec_return_acquire() - atomic decrement with acquire ordering
 616:/mnt/c/Users/31740/Desktop/newcore/include/linux/atomic/atomic-instrumented.h ****  * @v: pointer to atomic_t
 617:/mnt/c/Users/31740/Desktop/newcore/include/linux/atomic/atomic-instrumented.h ****  *
 618:/mnt/c/Users/31740/Desktop/newcore/include/linux/atomic/atomic-instrumented.h ****  * Atomically updates @v to (@v - 1) with acquire ordering.
 619:/mnt/c/Users/31740/Desktop/newcore/include/linux/atomic/atomic-instrumented.h ****  *
 620:/mnt/c/Users/31740/Desktop/newcore/include/linux/atomic/atomic-instrumented.h ****  * Unsafe to use in noinstr code; use raw_atomic_dec_return_acquire() there.
 621:/mnt/c/Users/31740/Desktop/newcore/include/linux/atomic/atomic-instrumented.h ****  *
 622:/mnt/c/Users/31740/Desktop/newcore/include/linux/atomic/atomic-instrumented.h ****  * Return: The updated value of @v.
 623:/mnt/c/Users/31740/Desktop/newcore/include/linux/atomic/atomic-instrumented.h ****  */
 624:/mnt/c/Users/31740/Desktop/newcore/include/linux/atomic/atomic-instrumented.h **** static __always_inline int
 625:/mnt/c/Users/31740/Desktop/newcore/include/linux/atomic/atomic-instrumented.h **** atomic_dec_return_acquire(atomic_t *v)
 626:/mnt/c/Users/31740/Desktop/newcore/include/linux/atomic/atomic-instrumented.h **** {
 627:/mnt/c/Users/31740/Desktop/newcore/include/linux/atomic/atomic-instrumented.h **** 	instrument_atomic_read_write(v, sizeof(*v));
 628:/mnt/c/Users/31740/Desktop/newcore/include/linux/atomic/atomic-instrumented.h **** 	return raw_atomic_dec_return_acquire(v);
 629:/mnt/c/Users/31740/Desktop/newcore/include/linux/atomic/atomic-instrumented.h **** }
 630:/mnt/c/Users/31740/Desktop/newcore/include/linux/atomic/atomic-instrumented.h **** 
 631:/mnt/c/Users/31740/Desktop/newcore/include/linux/atomic/atomic-instrumented.h **** /**
 632:/mnt/c/Users/31740/Desktop/newcore/include/linux/atomic/atomic-instrumented.h ****  * atomic_dec_return_release() - atomic decrement with release ordering
 633:/mnt/c/Users/31740/Desktop/newcore/include/linux/atomic/atomic-instrumented.h ****  * @v: pointer to atomic_t
 634:/mnt/c/Users/31740/Desktop/newcore/include/linux/atomic/atomic-instrumented.h ****  *
 635:/mnt/c/Users/31740/Desktop/newcore/include/linux/atomic/atomic-instrumented.h ****  * Atomically updates @v to (@v - 1) with release ordering.
 636:/mnt/c/Users/31740/Desktop/newcore/include/linux/atomic/atomic-instrumented.h ****  *
 637:/mnt/c/Users/31740/Desktop/newcore/include/linux/atomic/atomic-instrumented.h ****  * Unsafe to use in noinstr code; use raw_atomic_dec_return_release() there.
ARM GAS  /tmp/ccyCLDig.s 			page 77


 638:/mnt/c/Users/31740/Desktop/newcore/include/linux/atomic/atomic-instrumented.h ****  *
 639:/mnt/c/Users/31740/Desktop/newcore/include/linux/atomic/atomic-instrumented.h ****  * Return: The updated value of @v.
 640:/mnt/c/Users/31740/Desktop/newcore/include/linux/atomic/atomic-instrumented.h ****  */
 641:/mnt/c/Users/31740/Desktop/newcore/include/linux/atomic/atomic-instrumented.h **** static __always_inline int
 642:/mnt/c/Users/31740/Desktop/newcore/include/linux/atomic/atomic-instrumented.h **** atomic_dec_return_release(atomic_t *v)
 643:/mnt/c/Users/31740/Desktop/newcore/include/linux/atomic/atomic-instrumented.h **** {
 644:/mnt/c/Users/31740/Desktop/newcore/include/linux/atomic/atomic-instrumented.h **** 	kcsan_release();
 645:/mnt/c/Users/31740/Desktop/newcore/include/linux/atomic/atomic-instrumented.h **** 	instrument_atomic_read_write(v, sizeof(*v));
 646:/mnt/c/Users/31740/Desktop/newcore/include/linux/atomic/atomic-instrumented.h **** 	return raw_atomic_dec_return_release(v);
 647:/mnt/c/Users/31740/Desktop/newcore/include/linux/atomic/atomic-instrumented.h **** }
 648:/mnt/c/Users/31740/Desktop/newcore/include/linux/atomic/atomic-instrumented.h **** 
 649:/mnt/c/Users/31740/Desktop/newcore/include/linux/atomic/atomic-instrumented.h **** /**
 650:/mnt/c/Users/31740/Desktop/newcore/include/linux/atomic/atomic-instrumented.h ****  * atomic_dec_return_relaxed() - atomic decrement with relaxed ordering
 651:/mnt/c/Users/31740/Desktop/newcore/include/linux/atomic/atomic-instrumented.h ****  * @v: pointer to atomic_t
 652:/mnt/c/Users/31740/Desktop/newcore/include/linux/atomic/atomic-instrumented.h ****  *
 653:/mnt/c/Users/31740/Desktop/newcore/include/linux/atomic/atomic-instrumented.h ****  * Atomically updates @v to (@v - 1) with relaxed ordering.
 654:/mnt/c/Users/31740/Desktop/newcore/include/linux/atomic/atomic-instrumented.h ****  *
 655:/mnt/c/Users/31740/Desktop/newcore/include/linux/atomic/atomic-instrumented.h ****  * Unsafe to use in noinstr code; use raw_atomic_dec_return_relaxed() there.
 656:/mnt/c/Users/31740/Desktop/newcore/include/linux/atomic/atomic-instrumented.h ****  *
 657:/mnt/c/Users/31740/Desktop/newcore/include/linux/atomic/atomic-instrumented.h ****  * Return: The updated value of @v.
 658:/mnt/c/Users/31740/Desktop/newcore/include/linux/atomic/atomic-instrumented.h ****  */
 659:/mnt/c/Users/31740/Desktop/newcore/include/linux/atomic/atomic-instrumented.h **** static __always_inline int
 660:/mnt/c/Users/31740/Desktop/newcore/include/linux/atomic/atomic-instrumented.h **** atomic_dec_return_relaxed(atomic_t *v)
 661:/mnt/c/Users/31740/Desktop/newcore/include/linux/atomic/atomic-instrumented.h **** {
 662:/mnt/c/Users/31740/Desktop/newcore/include/linux/atomic/atomic-instrumented.h **** 	instrument_atomic_read_write(v, sizeof(*v));
 663:/mnt/c/Users/31740/Desktop/newcore/include/linux/atomic/atomic-instrumented.h **** 	return raw_atomic_dec_return_relaxed(v);
 664:/mnt/c/Users/31740/Desktop/newcore/include/linux/atomic/atomic-instrumented.h **** }
 665:/mnt/c/Users/31740/Desktop/newcore/include/linux/atomic/atomic-instrumented.h **** 
 666:/mnt/c/Users/31740/Desktop/newcore/include/linux/atomic/atomic-instrumented.h **** /**
 667:/mnt/c/Users/31740/Desktop/newcore/include/linux/atomic/atomic-instrumented.h ****  * atomic_fetch_dec() - atomic decrement with full ordering
 668:/mnt/c/Users/31740/Desktop/newcore/include/linux/atomic/atomic-instrumented.h ****  * @v: pointer to atomic_t
 669:/mnt/c/Users/31740/Desktop/newcore/include/linux/atomic/atomic-instrumented.h ****  *
 670:/mnt/c/Users/31740/Desktop/newcore/include/linux/atomic/atomic-instrumented.h ****  * Atomically updates @v to (@v - 1) with full ordering.
 671:/mnt/c/Users/31740/Desktop/newcore/include/linux/atomic/atomic-instrumented.h ****  *
 672:/mnt/c/Users/31740/Desktop/newcore/include/linux/atomic/atomic-instrumented.h ****  * Unsafe to use in noinstr code; use raw_atomic_fetch_dec() there.
 673:/mnt/c/Users/31740/Desktop/newcore/include/linux/atomic/atomic-instrumented.h ****  *
 674:/mnt/c/Users/31740/Desktop/newcore/include/linux/atomic/atomic-instrumented.h ****  * Return: The original value of @v.
 675:/mnt/c/Users/31740/Desktop/newcore/include/linux/atomic/atomic-instrumented.h ****  */
 676:/mnt/c/Users/31740/Desktop/newcore/include/linux/atomic/atomic-instrumented.h **** static __always_inline int
 677:/mnt/c/Users/31740/Desktop/newcore/include/linux/atomic/atomic-instrumented.h **** atomic_fetch_dec(atomic_t *v)
 678:/mnt/c/Users/31740/Desktop/newcore/include/linux/atomic/atomic-instrumented.h **** {
 679:/mnt/c/Users/31740/Desktop/newcore/include/linux/atomic/atomic-instrumented.h **** 	kcsan_mb();
 680:/mnt/c/Users/31740/Desktop/newcore/include/linux/atomic/atomic-instrumented.h **** 	instrument_atomic_read_write(v, sizeof(*v));
 681:/mnt/c/Users/31740/Desktop/newcore/include/linux/atomic/atomic-instrumented.h **** 	return raw_atomic_fetch_dec(v);
 682:/mnt/c/Users/31740/Desktop/newcore/include/linux/atomic/atomic-instrumented.h **** }
 683:/mnt/c/Users/31740/Desktop/newcore/include/linux/atomic/atomic-instrumented.h **** 
 684:/mnt/c/Users/31740/Desktop/newcore/include/linux/atomic/atomic-instrumented.h **** /**
 685:/mnt/c/Users/31740/Desktop/newcore/include/linux/atomic/atomic-instrumented.h ****  * atomic_fetch_dec_acquire() - atomic decrement with acquire ordering
 686:/mnt/c/Users/31740/Desktop/newcore/include/linux/atomic/atomic-instrumented.h ****  * @v: pointer to atomic_t
 687:/mnt/c/Users/31740/Desktop/newcore/include/linux/atomic/atomic-instrumented.h ****  *
 688:/mnt/c/Users/31740/Desktop/newcore/include/linux/atomic/atomic-instrumented.h ****  * Atomically updates @v to (@v - 1) with acquire ordering.
 689:/mnt/c/Users/31740/Desktop/newcore/include/linux/atomic/atomic-instrumented.h ****  *
 690:/mnt/c/Users/31740/Desktop/newcore/include/linux/atomic/atomic-instrumented.h ****  * Unsafe to use in noinstr code; use raw_atomic_fetch_dec_acquire() there.
 691:/mnt/c/Users/31740/Desktop/newcore/include/linux/atomic/atomic-instrumented.h ****  *
 692:/mnt/c/Users/31740/Desktop/newcore/include/linux/atomic/atomic-instrumented.h ****  * Return: The original value of @v.
 693:/mnt/c/Users/31740/Desktop/newcore/include/linux/atomic/atomic-instrumented.h ****  */
 694:/mnt/c/Users/31740/Desktop/newcore/include/linux/atomic/atomic-instrumented.h **** static __always_inline int
ARM GAS  /tmp/ccyCLDig.s 			page 78


 695:/mnt/c/Users/31740/Desktop/newcore/include/linux/atomic/atomic-instrumented.h **** atomic_fetch_dec_acquire(atomic_t *v)
 696:/mnt/c/Users/31740/Desktop/newcore/include/linux/atomic/atomic-instrumented.h **** {
 697:/mnt/c/Users/31740/Desktop/newcore/include/linux/atomic/atomic-instrumented.h **** 	instrument_atomic_read_write(v, sizeof(*v));
 698:/mnt/c/Users/31740/Desktop/newcore/include/linux/atomic/atomic-instrumented.h **** 	return raw_atomic_fetch_dec_acquire(v);
 699:/mnt/c/Users/31740/Desktop/newcore/include/linux/atomic/atomic-instrumented.h **** }
 700:/mnt/c/Users/31740/Desktop/newcore/include/linux/atomic/atomic-instrumented.h **** 
 701:/mnt/c/Users/31740/Desktop/newcore/include/linux/atomic/atomic-instrumented.h **** /**
 702:/mnt/c/Users/31740/Desktop/newcore/include/linux/atomic/atomic-instrumented.h ****  * atomic_fetch_dec_release() - atomic decrement with release ordering
 703:/mnt/c/Users/31740/Desktop/newcore/include/linux/atomic/atomic-instrumented.h ****  * @v: pointer to atomic_t
 704:/mnt/c/Users/31740/Desktop/newcore/include/linux/atomic/atomic-instrumented.h ****  *
 705:/mnt/c/Users/31740/Desktop/newcore/include/linux/atomic/atomic-instrumented.h ****  * Atomically updates @v to (@v - 1) with release ordering.
 706:/mnt/c/Users/31740/Desktop/newcore/include/linux/atomic/atomic-instrumented.h ****  *
 707:/mnt/c/Users/31740/Desktop/newcore/include/linux/atomic/atomic-instrumented.h ****  * Unsafe to use in noinstr code; use raw_atomic_fetch_dec_release() there.
 708:/mnt/c/Users/31740/Desktop/newcore/include/linux/atomic/atomic-instrumented.h ****  *
 709:/mnt/c/Users/31740/Desktop/newcore/include/linux/atomic/atomic-instrumented.h ****  * Return: The original value of @v.
 710:/mnt/c/Users/31740/Desktop/newcore/include/linux/atomic/atomic-instrumented.h ****  */
 711:/mnt/c/Users/31740/Desktop/newcore/include/linux/atomic/atomic-instrumented.h **** static __always_inline int
 712:/mnt/c/Users/31740/Desktop/newcore/include/linux/atomic/atomic-instrumented.h **** atomic_fetch_dec_release(atomic_t *v)
 713:/mnt/c/Users/31740/Desktop/newcore/include/linux/atomic/atomic-instrumented.h **** {
 714:/mnt/c/Users/31740/Desktop/newcore/include/linux/atomic/atomic-instrumented.h **** 	kcsan_release();
 715:/mnt/c/Users/31740/Desktop/newcore/include/linux/atomic/atomic-instrumented.h **** 	instrument_atomic_read_write(v, sizeof(*v));
 716:/mnt/c/Users/31740/Desktop/newcore/include/linux/atomic/atomic-instrumented.h **** 	return raw_atomic_fetch_dec_release(v);
 717:/mnt/c/Users/31740/Desktop/newcore/include/linux/atomic/atomic-instrumented.h **** }
 718:/mnt/c/Users/31740/Desktop/newcore/include/linux/atomic/atomic-instrumented.h **** 
 719:/mnt/c/Users/31740/Desktop/newcore/include/linux/atomic/atomic-instrumented.h **** /**
 720:/mnt/c/Users/31740/Desktop/newcore/include/linux/atomic/atomic-instrumented.h ****  * atomic_fetch_dec_relaxed() - atomic decrement with relaxed ordering
 721:/mnt/c/Users/31740/Desktop/newcore/include/linux/atomic/atomic-instrumented.h ****  * @v: pointer to atomic_t
 722:/mnt/c/Users/31740/Desktop/newcore/include/linux/atomic/atomic-instrumented.h ****  *
 723:/mnt/c/Users/31740/Desktop/newcore/include/linux/atomic/atomic-instrumented.h ****  * Atomically updates @v to (@v - 1) with relaxed ordering.
 724:/mnt/c/Users/31740/Desktop/newcore/include/linux/atomic/atomic-instrumented.h ****  *
 725:/mnt/c/Users/31740/Desktop/newcore/include/linux/atomic/atomic-instrumented.h ****  * Unsafe to use in noinstr code; use raw_atomic_fetch_dec_relaxed() there.
 726:/mnt/c/Users/31740/Desktop/newcore/include/linux/atomic/atomic-instrumented.h ****  *
 727:/mnt/c/Users/31740/Desktop/newcore/include/linux/atomic/atomic-instrumented.h ****  * Return: The original value of @v.
 728:/mnt/c/Users/31740/Desktop/newcore/include/linux/atomic/atomic-instrumented.h ****  */
 729:/mnt/c/Users/31740/Desktop/newcore/include/linux/atomic/atomic-instrumented.h **** static __always_inline int
 730:/mnt/c/Users/31740/Desktop/newcore/include/linux/atomic/atomic-instrumented.h **** atomic_fetch_dec_relaxed(atomic_t *v)
 731:/mnt/c/Users/31740/Desktop/newcore/include/linux/atomic/atomic-instrumented.h **** {
 732:/mnt/c/Users/31740/Desktop/newcore/include/linux/atomic/atomic-instrumented.h **** 	instrument_atomic_read_write(v, sizeof(*v));
 733:/mnt/c/Users/31740/Desktop/newcore/include/linux/atomic/atomic-instrumented.h **** 	return raw_atomic_fetch_dec_relaxed(v);
 734:/mnt/c/Users/31740/Desktop/newcore/include/linux/atomic/atomic-instrumented.h **** }
 735:/mnt/c/Users/31740/Desktop/newcore/include/linux/atomic/atomic-instrumented.h **** 
 736:/mnt/c/Users/31740/Desktop/newcore/include/linux/atomic/atomic-instrumented.h **** /**
 737:/mnt/c/Users/31740/Desktop/newcore/include/linux/atomic/atomic-instrumented.h ****  * atomic_and() - atomic bitwise AND with relaxed ordering
 738:/mnt/c/Users/31740/Desktop/newcore/include/linux/atomic/atomic-instrumented.h ****  * @i: int value
 739:/mnt/c/Users/31740/Desktop/newcore/include/linux/atomic/atomic-instrumented.h ****  * @v: pointer to atomic_t
 740:/mnt/c/Users/31740/Desktop/newcore/include/linux/atomic/atomic-instrumented.h ****  *
 741:/mnt/c/Users/31740/Desktop/newcore/include/linux/atomic/atomic-instrumented.h ****  * Atomically updates @v to (@v & @i) with relaxed ordering.
 742:/mnt/c/Users/31740/Desktop/newcore/include/linux/atomic/atomic-instrumented.h ****  *
 743:/mnt/c/Users/31740/Desktop/newcore/include/linux/atomic/atomic-instrumented.h ****  * Unsafe to use in noinstr code; use raw_atomic_and() there.
 744:/mnt/c/Users/31740/Desktop/newcore/include/linux/atomic/atomic-instrumented.h ****  *
 745:/mnt/c/Users/31740/Desktop/newcore/include/linux/atomic/atomic-instrumented.h ****  * Return: Nothing.
 746:/mnt/c/Users/31740/Desktop/newcore/include/linux/atomic/atomic-instrumented.h ****  */
 747:/mnt/c/Users/31740/Desktop/newcore/include/linux/atomic/atomic-instrumented.h **** static __always_inline void
 748:/mnt/c/Users/31740/Desktop/newcore/include/linux/atomic/atomic-instrumented.h **** atomic_and(int i, atomic_t *v)
 749:/mnt/c/Users/31740/Desktop/newcore/include/linux/atomic/atomic-instrumented.h **** {
 750:/mnt/c/Users/31740/Desktop/newcore/include/linux/atomic/atomic-instrumented.h **** 	instrument_atomic_read_write(v, sizeof(*v));
 751:/mnt/c/Users/31740/Desktop/newcore/include/linux/atomic/atomic-instrumented.h **** 	raw_atomic_and(i, v);
ARM GAS  /tmp/ccyCLDig.s 			page 79


 752:/mnt/c/Users/31740/Desktop/newcore/include/linux/atomic/atomic-instrumented.h **** }
 753:/mnt/c/Users/31740/Desktop/newcore/include/linux/atomic/atomic-instrumented.h **** 
 754:/mnt/c/Users/31740/Desktop/newcore/include/linux/atomic/atomic-instrumented.h **** /**
 755:/mnt/c/Users/31740/Desktop/newcore/include/linux/atomic/atomic-instrumented.h ****  * atomic_fetch_and() - atomic bitwise AND with full ordering
 756:/mnt/c/Users/31740/Desktop/newcore/include/linux/atomic/atomic-instrumented.h ****  * @i: int value
 757:/mnt/c/Users/31740/Desktop/newcore/include/linux/atomic/atomic-instrumented.h ****  * @v: pointer to atomic_t
 758:/mnt/c/Users/31740/Desktop/newcore/include/linux/atomic/atomic-instrumented.h ****  *
 759:/mnt/c/Users/31740/Desktop/newcore/include/linux/atomic/atomic-instrumented.h ****  * Atomically updates @v to (@v & @i) with full ordering.
 760:/mnt/c/Users/31740/Desktop/newcore/include/linux/atomic/atomic-instrumented.h ****  *
 761:/mnt/c/Users/31740/Desktop/newcore/include/linux/atomic/atomic-instrumented.h ****  * Unsafe to use in noinstr code; use raw_atomic_fetch_and() there.
 762:/mnt/c/Users/31740/Desktop/newcore/include/linux/atomic/atomic-instrumented.h ****  *
 763:/mnt/c/Users/31740/Desktop/newcore/include/linux/atomic/atomic-instrumented.h ****  * Return: The original value of @v.
 764:/mnt/c/Users/31740/Desktop/newcore/include/linux/atomic/atomic-instrumented.h ****  */
 765:/mnt/c/Users/31740/Desktop/newcore/include/linux/atomic/atomic-instrumented.h **** static __always_inline int
 766:/mnt/c/Users/31740/Desktop/newcore/include/linux/atomic/atomic-instrumented.h **** atomic_fetch_and(int i, atomic_t *v)
 767:/mnt/c/Users/31740/Desktop/newcore/include/linux/atomic/atomic-instrumented.h **** {
 768:/mnt/c/Users/31740/Desktop/newcore/include/linux/atomic/atomic-instrumented.h **** 	kcsan_mb();
 769:/mnt/c/Users/31740/Desktop/newcore/include/linux/atomic/atomic-instrumented.h **** 	instrument_atomic_read_write(v, sizeof(*v));
 770:/mnt/c/Users/31740/Desktop/newcore/include/linux/atomic/atomic-instrumented.h **** 	return raw_atomic_fetch_and(i, v);
 771:/mnt/c/Users/31740/Desktop/newcore/include/linux/atomic/atomic-instrumented.h **** }
 772:/mnt/c/Users/31740/Desktop/newcore/include/linux/atomic/atomic-instrumented.h **** 
 773:/mnt/c/Users/31740/Desktop/newcore/include/linux/atomic/atomic-instrumented.h **** /**
 774:/mnt/c/Users/31740/Desktop/newcore/include/linux/atomic/atomic-instrumented.h ****  * atomic_fetch_and_acquire() - atomic bitwise AND with acquire ordering
 775:/mnt/c/Users/31740/Desktop/newcore/include/linux/atomic/atomic-instrumented.h ****  * @i: int value
 776:/mnt/c/Users/31740/Desktop/newcore/include/linux/atomic/atomic-instrumented.h ****  * @v: pointer to atomic_t
 777:/mnt/c/Users/31740/Desktop/newcore/include/linux/atomic/atomic-instrumented.h ****  *
 778:/mnt/c/Users/31740/Desktop/newcore/include/linux/atomic/atomic-instrumented.h ****  * Atomically updates @v to (@v & @i) with acquire ordering.
 779:/mnt/c/Users/31740/Desktop/newcore/include/linux/atomic/atomic-instrumented.h ****  *
 780:/mnt/c/Users/31740/Desktop/newcore/include/linux/atomic/atomic-instrumented.h ****  * Unsafe to use in noinstr code; use raw_atomic_fetch_and_acquire() there.
 781:/mnt/c/Users/31740/Desktop/newcore/include/linux/atomic/atomic-instrumented.h ****  *
 782:/mnt/c/Users/31740/Desktop/newcore/include/linux/atomic/atomic-instrumented.h ****  * Return: The original value of @v.
 783:/mnt/c/Users/31740/Desktop/newcore/include/linux/atomic/atomic-instrumented.h ****  */
 784:/mnt/c/Users/31740/Desktop/newcore/include/linux/atomic/atomic-instrumented.h **** static __always_inline int
 785:/mnt/c/Users/31740/Desktop/newcore/include/linux/atomic/atomic-instrumented.h **** atomic_fetch_and_acquire(int i, atomic_t *v)
 786:/mnt/c/Users/31740/Desktop/newcore/include/linux/atomic/atomic-instrumented.h **** {
 787:/mnt/c/Users/31740/Desktop/newcore/include/linux/atomic/atomic-instrumented.h **** 	instrument_atomic_read_write(v, sizeof(*v));
 788:/mnt/c/Users/31740/Desktop/newcore/include/linux/atomic/atomic-instrumented.h **** 	return raw_atomic_fetch_and_acquire(i, v);
 789:/mnt/c/Users/31740/Desktop/newcore/include/linux/atomic/atomic-instrumented.h **** }
 790:/mnt/c/Users/31740/Desktop/newcore/include/linux/atomic/atomic-instrumented.h **** 
 791:/mnt/c/Users/31740/Desktop/newcore/include/linux/atomic/atomic-instrumented.h **** /**
 792:/mnt/c/Users/31740/Desktop/newcore/include/linux/atomic/atomic-instrumented.h ****  * atomic_fetch_and_release() - atomic bitwise AND with release ordering
 793:/mnt/c/Users/31740/Desktop/newcore/include/linux/atomic/atomic-instrumented.h ****  * @i: int value
 794:/mnt/c/Users/31740/Desktop/newcore/include/linux/atomic/atomic-instrumented.h ****  * @v: pointer to atomic_t
 795:/mnt/c/Users/31740/Desktop/newcore/include/linux/atomic/atomic-instrumented.h ****  *
 796:/mnt/c/Users/31740/Desktop/newcore/include/linux/atomic/atomic-instrumented.h ****  * Atomically updates @v to (@v & @i) with release ordering.
 797:/mnt/c/Users/31740/Desktop/newcore/include/linux/atomic/atomic-instrumented.h ****  *
 798:/mnt/c/Users/31740/Desktop/newcore/include/linux/atomic/atomic-instrumented.h ****  * Unsafe to use in noinstr code; use raw_atomic_fetch_and_release() there.
 799:/mnt/c/Users/31740/Desktop/newcore/include/linux/atomic/atomic-instrumented.h ****  *
 800:/mnt/c/Users/31740/Desktop/newcore/include/linux/atomic/atomic-instrumented.h ****  * Return: The original value of @v.
 801:/mnt/c/Users/31740/Desktop/newcore/include/linux/atomic/atomic-instrumented.h ****  */
 802:/mnt/c/Users/31740/Desktop/newcore/include/linux/atomic/atomic-instrumented.h **** static __always_inline int
 803:/mnt/c/Users/31740/Desktop/newcore/include/linux/atomic/atomic-instrumented.h **** atomic_fetch_and_release(int i, atomic_t *v)
 804:/mnt/c/Users/31740/Desktop/newcore/include/linux/atomic/atomic-instrumented.h **** {
 805:/mnt/c/Users/31740/Desktop/newcore/include/linux/atomic/atomic-instrumented.h **** 	kcsan_release();
 806:/mnt/c/Users/31740/Desktop/newcore/include/linux/atomic/atomic-instrumented.h **** 	instrument_atomic_read_write(v, sizeof(*v));
 807:/mnt/c/Users/31740/Desktop/newcore/include/linux/atomic/atomic-instrumented.h **** 	return raw_atomic_fetch_and_release(i, v);
 808:/mnt/c/Users/31740/Desktop/newcore/include/linux/atomic/atomic-instrumented.h **** }
ARM GAS  /tmp/ccyCLDig.s 			page 80


 809:/mnt/c/Users/31740/Desktop/newcore/include/linux/atomic/atomic-instrumented.h **** 
 810:/mnt/c/Users/31740/Desktop/newcore/include/linux/atomic/atomic-instrumented.h **** /**
 811:/mnt/c/Users/31740/Desktop/newcore/include/linux/atomic/atomic-instrumented.h ****  * atomic_fetch_and_relaxed() - atomic bitwise AND with relaxed ordering
 812:/mnt/c/Users/31740/Desktop/newcore/include/linux/atomic/atomic-instrumented.h ****  * @i: int value
 813:/mnt/c/Users/31740/Desktop/newcore/include/linux/atomic/atomic-instrumented.h ****  * @v: pointer to atomic_t
 814:/mnt/c/Users/31740/Desktop/newcore/include/linux/atomic/atomic-instrumented.h ****  *
 815:/mnt/c/Users/31740/Desktop/newcore/include/linux/atomic/atomic-instrumented.h ****  * Atomically updates @v to (@v & @i) with relaxed ordering.
 816:/mnt/c/Users/31740/Desktop/newcore/include/linux/atomic/atomic-instrumented.h ****  *
 817:/mnt/c/Users/31740/Desktop/newcore/include/linux/atomic/atomic-instrumented.h ****  * Unsafe to use in noinstr code; use raw_atomic_fetch_and_relaxed() there.
 818:/mnt/c/Users/31740/Desktop/newcore/include/linux/atomic/atomic-instrumented.h ****  *
 819:/mnt/c/Users/31740/Desktop/newcore/include/linux/atomic/atomic-instrumented.h ****  * Return: The original value of @v.
 820:/mnt/c/Users/31740/Desktop/newcore/include/linux/atomic/atomic-instrumented.h ****  */
 821:/mnt/c/Users/31740/Desktop/newcore/include/linux/atomic/atomic-instrumented.h **** static __always_inline int
 822:/mnt/c/Users/31740/Desktop/newcore/include/linux/atomic/atomic-instrumented.h **** atomic_fetch_and_relaxed(int i, atomic_t *v)
 823:/mnt/c/Users/31740/Desktop/newcore/include/linux/atomic/atomic-instrumented.h **** {
 824:/mnt/c/Users/31740/Desktop/newcore/include/linux/atomic/atomic-instrumented.h **** 	instrument_atomic_read_write(v, sizeof(*v));
 825:/mnt/c/Users/31740/Desktop/newcore/include/linux/atomic/atomic-instrumented.h **** 	return raw_atomic_fetch_and_relaxed(i, v);
 826:/mnt/c/Users/31740/Desktop/newcore/include/linux/atomic/atomic-instrumented.h **** }
 827:/mnt/c/Users/31740/Desktop/newcore/include/linux/atomic/atomic-instrumented.h **** 
 828:/mnt/c/Users/31740/Desktop/newcore/include/linux/atomic/atomic-instrumented.h **** /**
 829:/mnt/c/Users/31740/Desktop/newcore/include/linux/atomic/atomic-instrumented.h ****  * atomic_andnot() - atomic bitwise AND NOT with relaxed ordering
 830:/mnt/c/Users/31740/Desktop/newcore/include/linux/atomic/atomic-instrumented.h ****  * @i: int value
 831:/mnt/c/Users/31740/Desktop/newcore/include/linux/atomic/atomic-instrumented.h ****  * @v: pointer to atomic_t
 832:/mnt/c/Users/31740/Desktop/newcore/include/linux/atomic/atomic-instrumented.h ****  *
 833:/mnt/c/Users/31740/Desktop/newcore/include/linux/atomic/atomic-instrumented.h ****  * Atomically updates @v to (@v & ~@i) with relaxed ordering.
 834:/mnt/c/Users/31740/Desktop/newcore/include/linux/atomic/atomic-instrumented.h ****  *
 835:/mnt/c/Users/31740/Desktop/newcore/include/linux/atomic/atomic-instrumented.h ****  * Unsafe to use in noinstr code; use raw_atomic_andnot() there.
 836:/mnt/c/Users/31740/Desktop/newcore/include/linux/atomic/atomic-instrumented.h ****  *
 837:/mnt/c/Users/31740/Desktop/newcore/include/linux/atomic/atomic-instrumented.h ****  * Return: Nothing.
 838:/mnt/c/Users/31740/Desktop/newcore/include/linux/atomic/atomic-instrumented.h ****  */
 839:/mnt/c/Users/31740/Desktop/newcore/include/linux/atomic/atomic-instrumented.h **** static __always_inline void
 840:/mnt/c/Users/31740/Desktop/newcore/include/linux/atomic/atomic-instrumented.h **** atomic_andnot(int i, atomic_t *v)
 841:/mnt/c/Users/31740/Desktop/newcore/include/linux/atomic/atomic-instrumented.h **** {
 842:/mnt/c/Users/31740/Desktop/newcore/include/linux/atomic/atomic-instrumented.h **** 	instrument_atomic_read_write(v, sizeof(*v));
 843:/mnt/c/Users/31740/Desktop/newcore/include/linux/atomic/atomic-instrumented.h **** 	raw_atomic_andnot(i, v);
 844:/mnt/c/Users/31740/Desktop/newcore/include/linux/atomic/atomic-instrumented.h **** }
 845:/mnt/c/Users/31740/Desktop/newcore/include/linux/atomic/atomic-instrumented.h **** 
 846:/mnt/c/Users/31740/Desktop/newcore/include/linux/atomic/atomic-instrumented.h **** /**
 847:/mnt/c/Users/31740/Desktop/newcore/include/linux/atomic/atomic-instrumented.h ****  * atomic_fetch_andnot() - atomic bitwise AND NOT with full ordering
 848:/mnt/c/Users/31740/Desktop/newcore/include/linux/atomic/atomic-instrumented.h ****  * @i: int value
 849:/mnt/c/Users/31740/Desktop/newcore/include/linux/atomic/atomic-instrumented.h ****  * @v: pointer to atomic_t
 850:/mnt/c/Users/31740/Desktop/newcore/include/linux/atomic/atomic-instrumented.h ****  *
 851:/mnt/c/Users/31740/Desktop/newcore/include/linux/atomic/atomic-instrumented.h ****  * Atomically updates @v to (@v & ~@i) with full ordering.
 852:/mnt/c/Users/31740/Desktop/newcore/include/linux/atomic/atomic-instrumented.h ****  *
 853:/mnt/c/Users/31740/Desktop/newcore/include/linux/atomic/atomic-instrumented.h ****  * Unsafe to use in noinstr code; use raw_atomic_fetch_andnot() there.
 854:/mnt/c/Users/31740/Desktop/newcore/include/linux/atomic/atomic-instrumented.h ****  *
 855:/mnt/c/Users/31740/Desktop/newcore/include/linux/atomic/atomic-instrumented.h ****  * Return: The original value of @v.
 856:/mnt/c/Users/31740/Desktop/newcore/include/linux/atomic/atomic-instrumented.h ****  */
 857:/mnt/c/Users/31740/Desktop/newcore/include/linux/atomic/atomic-instrumented.h **** static __always_inline int
 858:/mnt/c/Users/31740/Desktop/newcore/include/linux/atomic/atomic-instrumented.h **** atomic_fetch_andnot(int i, atomic_t *v)
 859:/mnt/c/Users/31740/Desktop/newcore/include/linux/atomic/atomic-instrumented.h **** {
 860:/mnt/c/Users/31740/Desktop/newcore/include/linux/atomic/atomic-instrumented.h **** 	kcsan_mb();
 861:/mnt/c/Users/31740/Desktop/newcore/include/linux/atomic/atomic-instrumented.h **** 	instrument_atomic_read_write(v, sizeof(*v));
 862:/mnt/c/Users/31740/Desktop/newcore/include/linux/atomic/atomic-instrumented.h **** 	return raw_atomic_fetch_andnot(i, v);
 863:/mnt/c/Users/31740/Desktop/newcore/include/linux/atomic/atomic-instrumented.h **** }
 864:/mnt/c/Users/31740/Desktop/newcore/include/linux/atomic/atomic-instrumented.h **** 
 865:/mnt/c/Users/31740/Desktop/newcore/include/linux/atomic/atomic-instrumented.h **** /**
ARM GAS  /tmp/ccyCLDig.s 			page 81


 866:/mnt/c/Users/31740/Desktop/newcore/include/linux/atomic/atomic-instrumented.h ****  * atomic_fetch_andnot_acquire() - atomic bitwise AND NOT with acquire ordering
 867:/mnt/c/Users/31740/Desktop/newcore/include/linux/atomic/atomic-instrumented.h ****  * @i: int value
 868:/mnt/c/Users/31740/Desktop/newcore/include/linux/atomic/atomic-instrumented.h ****  * @v: pointer to atomic_t
 869:/mnt/c/Users/31740/Desktop/newcore/include/linux/atomic/atomic-instrumented.h ****  *
 870:/mnt/c/Users/31740/Desktop/newcore/include/linux/atomic/atomic-instrumented.h ****  * Atomically updates @v to (@v & ~@i) with acquire ordering.
 871:/mnt/c/Users/31740/Desktop/newcore/include/linux/atomic/atomic-instrumented.h ****  *
 872:/mnt/c/Users/31740/Desktop/newcore/include/linux/atomic/atomic-instrumented.h ****  * Unsafe to use in noinstr code; use raw_atomic_fetch_andnot_acquire() there.
 873:/mnt/c/Users/31740/Desktop/newcore/include/linux/atomic/atomic-instrumented.h ****  *
 874:/mnt/c/Users/31740/Desktop/newcore/include/linux/atomic/atomic-instrumented.h ****  * Return: The original value of @v.
 875:/mnt/c/Users/31740/Desktop/newcore/include/linux/atomic/atomic-instrumented.h ****  */
 876:/mnt/c/Users/31740/Desktop/newcore/include/linux/atomic/atomic-instrumented.h **** static __always_inline int
 877:/mnt/c/Users/31740/Desktop/newcore/include/linux/atomic/atomic-instrumented.h **** atomic_fetch_andnot_acquire(int i, atomic_t *v)
 878:/mnt/c/Users/31740/Desktop/newcore/include/linux/atomic/atomic-instrumented.h **** {
 879:/mnt/c/Users/31740/Desktop/newcore/include/linux/atomic/atomic-instrumented.h **** 	instrument_atomic_read_write(v, sizeof(*v));
 880:/mnt/c/Users/31740/Desktop/newcore/include/linux/atomic/atomic-instrumented.h **** 	return raw_atomic_fetch_andnot_acquire(i, v);
 881:/mnt/c/Users/31740/Desktop/newcore/include/linux/atomic/atomic-instrumented.h **** }
 882:/mnt/c/Users/31740/Desktop/newcore/include/linux/atomic/atomic-instrumented.h **** 
 883:/mnt/c/Users/31740/Desktop/newcore/include/linux/atomic/atomic-instrumented.h **** /**
 884:/mnt/c/Users/31740/Desktop/newcore/include/linux/atomic/atomic-instrumented.h ****  * atomic_fetch_andnot_release() - atomic bitwise AND NOT with release ordering
 885:/mnt/c/Users/31740/Desktop/newcore/include/linux/atomic/atomic-instrumented.h ****  * @i: int value
 886:/mnt/c/Users/31740/Desktop/newcore/include/linux/atomic/atomic-instrumented.h ****  * @v: pointer to atomic_t
 887:/mnt/c/Users/31740/Desktop/newcore/include/linux/atomic/atomic-instrumented.h ****  *
 888:/mnt/c/Users/31740/Desktop/newcore/include/linux/atomic/atomic-instrumented.h ****  * Atomically updates @v to (@v & ~@i) with release ordering.
 889:/mnt/c/Users/31740/Desktop/newcore/include/linux/atomic/atomic-instrumented.h ****  *
 890:/mnt/c/Users/31740/Desktop/newcore/include/linux/atomic/atomic-instrumented.h ****  * Unsafe to use in noinstr code; use raw_atomic_fetch_andnot_release() there.
 891:/mnt/c/Users/31740/Desktop/newcore/include/linux/atomic/atomic-instrumented.h ****  *
 892:/mnt/c/Users/31740/Desktop/newcore/include/linux/atomic/atomic-instrumented.h ****  * Return: The original value of @v.
 893:/mnt/c/Users/31740/Desktop/newcore/include/linux/atomic/atomic-instrumented.h ****  */
 894:/mnt/c/Users/31740/Desktop/newcore/include/linux/atomic/atomic-instrumented.h **** static __always_inline int
 895:/mnt/c/Users/31740/Desktop/newcore/include/linux/atomic/atomic-instrumented.h **** atomic_fetch_andnot_release(int i, atomic_t *v)
 896:/mnt/c/Users/31740/Desktop/newcore/include/linux/atomic/atomic-instrumented.h **** {
 897:/mnt/c/Users/31740/Desktop/newcore/include/linux/atomic/atomic-instrumented.h **** 	kcsan_release();
 898:/mnt/c/Users/31740/Desktop/newcore/include/linux/atomic/atomic-instrumented.h **** 	instrument_atomic_read_write(v, sizeof(*v));
 899:/mnt/c/Users/31740/Desktop/newcore/include/linux/atomic/atomic-instrumented.h **** 	return raw_atomic_fetch_andnot_release(i, v);
 900:/mnt/c/Users/31740/Desktop/newcore/include/linux/atomic/atomic-instrumented.h **** }
 901:/mnt/c/Users/31740/Desktop/newcore/include/linux/atomic/atomic-instrumented.h **** 
 902:/mnt/c/Users/31740/Desktop/newcore/include/linux/atomic/atomic-instrumented.h **** /**
 903:/mnt/c/Users/31740/Desktop/newcore/include/linux/atomic/atomic-instrumented.h ****  * atomic_fetch_andnot_relaxed() - atomic bitwise AND NOT with relaxed ordering
 904:/mnt/c/Users/31740/Desktop/newcore/include/linux/atomic/atomic-instrumented.h ****  * @i: int value
 905:/mnt/c/Users/31740/Desktop/newcore/include/linux/atomic/atomic-instrumented.h ****  * @v: pointer to atomic_t
 906:/mnt/c/Users/31740/Desktop/newcore/include/linux/atomic/atomic-instrumented.h ****  *
 907:/mnt/c/Users/31740/Desktop/newcore/include/linux/atomic/atomic-instrumented.h ****  * Atomically updates @v to (@v & ~@i) with relaxed ordering.
 908:/mnt/c/Users/31740/Desktop/newcore/include/linux/atomic/atomic-instrumented.h ****  *
 909:/mnt/c/Users/31740/Desktop/newcore/include/linux/atomic/atomic-instrumented.h ****  * Unsafe to use in noinstr code; use raw_atomic_fetch_andnot_relaxed() there.
 910:/mnt/c/Users/31740/Desktop/newcore/include/linux/atomic/atomic-instrumented.h ****  *
 911:/mnt/c/Users/31740/Desktop/newcore/include/linux/atomic/atomic-instrumented.h ****  * Return: The original value of @v.
 912:/mnt/c/Users/31740/Desktop/newcore/include/linux/atomic/atomic-instrumented.h ****  */
 913:/mnt/c/Users/31740/Desktop/newcore/include/linux/atomic/atomic-instrumented.h **** static __always_inline int
 914:/mnt/c/Users/31740/Desktop/newcore/include/linux/atomic/atomic-instrumented.h **** atomic_fetch_andnot_relaxed(int i, atomic_t *v)
 915:/mnt/c/Users/31740/Desktop/newcore/include/linux/atomic/atomic-instrumented.h **** {
 916:/mnt/c/Users/31740/Desktop/newcore/include/linux/atomic/atomic-instrumented.h **** 	instrument_atomic_read_write(v, sizeof(*v));
 917:/mnt/c/Users/31740/Desktop/newcore/include/linux/atomic/atomic-instrumented.h **** 	return raw_atomic_fetch_andnot_relaxed(i, v);
 918:/mnt/c/Users/31740/Desktop/newcore/include/linux/atomic/atomic-instrumented.h **** }
 919:/mnt/c/Users/31740/Desktop/newcore/include/linux/atomic/atomic-instrumented.h **** 
 920:/mnt/c/Users/31740/Desktop/newcore/include/linux/atomic/atomic-instrumented.h **** /**
 921:/mnt/c/Users/31740/Desktop/newcore/include/linux/atomic/atomic-instrumented.h ****  * atomic_or() - atomic bitwise OR with relaxed ordering
 922:/mnt/c/Users/31740/Desktop/newcore/include/linux/atomic/atomic-instrumented.h ****  * @i: int value
ARM GAS  /tmp/ccyCLDig.s 			page 82


 923:/mnt/c/Users/31740/Desktop/newcore/include/linux/atomic/atomic-instrumented.h ****  * @v: pointer to atomic_t
 924:/mnt/c/Users/31740/Desktop/newcore/include/linux/atomic/atomic-instrumented.h ****  *
 925:/mnt/c/Users/31740/Desktop/newcore/include/linux/atomic/atomic-instrumented.h ****  * Atomically updates @v to (@v | @i) with relaxed ordering.
 926:/mnt/c/Users/31740/Desktop/newcore/include/linux/atomic/atomic-instrumented.h ****  *
 927:/mnt/c/Users/31740/Desktop/newcore/include/linux/atomic/atomic-instrumented.h ****  * Unsafe to use in noinstr code; use raw_atomic_or() there.
 928:/mnt/c/Users/31740/Desktop/newcore/include/linux/atomic/atomic-instrumented.h ****  *
 929:/mnt/c/Users/31740/Desktop/newcore/include/linux/atomic/atomic-instrumented.h ****  * Return: Nothing.
 930:/mnt/c/Users/31740/Desktop/newcore/include/linux/atomic/atomic-instrumented.h ****  */
 931:/mnt/c/Users/31740/Desktop/newcore/include/linux/atomic/atomic-instrumented.h **** static __always_inline void
 932:/mnt/c/Users/31740/Desktop/newcore/include/linux/atomic/atomic-instrumented.h **** atomic_or(int i, atomic_t *v)
 933:/mnt/c/Users/31740/Desktop/newcore/include/linux/atomic/atomic-instrumented.h **** {
 934:/mnt/c/Users/31740/Desktop/newcore/include/linux/atomic/atomic-instrumented.h **** 	instrument_atomic_read_write(v, sizeof(*v));
 935:/mnt/c/Users/31740/Desktop/newcore/include/linux/atomic/atomic-instrumented.h **** 	raw_atomic_or(i, v);
 936:/mnt/c/Users/31740/Desktop/newcore/include/linux/atomic/atomic-instrumented.h **** }
 937:/mnt/c/Users/31740/Desktop/newcore/include/linux/atomic/atomic-instrumented.h **** 
 938:/mnt/c/Users/31740/Desktop/newcore/include/linux/atomic/atomic-instrumented.h **** /**
 939:/mnt/c/Users/31740/Desktop/newcore/include/linux/atomic/atomic-instrumented.h ****  * atomic_fetch_or() - atomic bitwise OR with full ordering
 940:/mnt/c/Users/31740/Desktop/newcore/include/linux/atomic/atomic-instrumented.h ****  * @i: int value
 941:/mnt/c/Users/31740/Desktop/newcore/include/linux/atomic/atomic-instrumented.h ****  * @v: pointer to atomic_t
 942:/mnt/c/Users/31740/Desktop/newcore/include/linux/atomic/atomic-instrumented.h ****  *
 943:/mnt/c/Users/31740/Desktop/newcore/include/linux/atomic/atomic-instrumented.h ****  * Atomically updates @v to (@v | @i) with full ordering.
 944:/mnt/c/Users/31740/Desktop/newcore/include/linux/atomic/atomic-instrumented.h ****  *
 945:/mnt/c/Users/31740/Desktop/newcore/include/linux/atomic/atomic-instrumented.h ****  * Unsafe to use in noinstr code; use raw_atomic_fetch_or() there.
 946:/mnt/c/Users/31740/Desktop/newcore/include/linux/atomic/atomic-instrumented.h ****  *
 947:/mnt/c/Users/31740/Desktop/newcore/include/linux/atomic/atomic-instrumented.h ****  * Return: The original value of @v.
 948:/mnt/c/Users/31740/Desktop/newcore/include/linux/atomic/atomic-instrumented.h ****  */
 949:/mnt/c/Users/31740/Desktop/newcore/include/linux/atomic/atomic-instrumented.h **** static __always_inline int
 950:/mnt/c/Users/31740/Desktop/newcore/include/linux/atomic/atomic-instrumented.h **** atomic_fetch_or(int i, atomic_t *v)
 951:/mnt/c/Users/31740/Desktop/newcore/include/linux/atomic/atomic-instrumented.h **** {
 952:/mnt/c/Users/31740/Desktop/newcore/include/linux/atomic/atomic-instrumented.h **** 	kcsan_mb();
 953:/mnt/c/Users/31740/Desktop/newcore/include/linux/atomic/atomic-instrumented.h **** 	instrument_atomic_read_write(v, sizeof(*v));
 954:/mnt/c/Users/31740/Desktop/newcore/include/linux/atomic/atomic-instrumented.h **** 	return raw_atomic_fetch_or(i, v);
 955:/mnt/c/Users/31740/Desktop/newcore/include/linux/atomic/atomic-instrumented.h **** }
 956:/mnt/c/Users/31740/Desktop/newcore/include/linux/atomic/atomic-instrumented.h **** 
 957:/mnt/c/Users/31740/Desktop/newcore/include/linux/atomic/atomic-instrumented.h **** /**
 958:/mnt/c/Users/31740/Desktop/newcore/include/linux/atomic/atomic-instrumented.h ****  * atomic_fetch_or_acquire() - atomic bitwise OR with acquire ordering
 959:/mnt/c/Users/31740/Desktop/newcore/include/linux/atomic/atomic-instrumented.h ****  * @i: int value
 960:/mnt/c/Users/31740/Desktop/newcore/include/linux/atomic/atomic-instrumented.h ****  * @v: pointer to atomic_t
 961:/mnt/c/Users/31740/Desktop/newcore/include/linux/atomic/atomic-instrumented.h ****  *
 962:/mnt/c/Users/31740/Desktop/newcore/include/linux/atomic/atomic-instrumented.h ****  * Atomically updates @v to (@v | @i) with acquire ordering.
 963:/mnt/c/Users/31740/Desktop/newcore/include/linux/atomic/atomic-instrumented.h ****  *
 964:/mnt/c/Users/31740/Desktop/newcore/include/linux/atomic/atomic-instrumented.h ****  * Unsafe to use in noinstr code; use raw_atomic_fetch_or_acquire() there.
 965:/mnt/c/Users/31740/Desktop/newcore/include/linux/atomic/atomic-instrumented.h ****  *
 966:/mnt/c/Users/31740/Desktop/newcore/include/linux/atomic/atomic-instrumented.h ****  * Return: The original value of @v.
 967:/mnt/c/Users/31740/Desktop/newcore/include/linux/atomic/atomic-instrumented.h ****  */
 968:/mnt/c/Users/31740/Desktop/newcore/include/linux/atomic/atomic-instrumented.h **** static __always_inline int
 969:/mnt/c/Users/31740/Desktop/newcore/include/linux/atomic/atomic-instrumented.h **** atomic_fetch_or_acquire(int i, atomic_t *v)
 970:/mnt/c/Users/31740/Desktop/newcore/include/linux/atomic/atomic-instrumented.h **** {
 971:/mnt/c/Users/31740/Desktop/newcore/include/linux/atomic/atomic-instrumented.h **** 	instrument_atomic_read_write(v, sizeof(*v));
 972:/mnt/c/Users/31740/Desktop/newcore/include/linux/atomic/atomic-instrumented.h **** 	return raw_atomic_fetch_or_acquire(i, v);
 973:/mnt/c/Users/31740/Desktop/newcore/include/linux/atomic/atomic-instrumented.h **** }
 974:/mnt/c/Users/31740/Desktop/newcore/include/linux/atomic/atomic-instrumented.h **** 
 975:/mnt/c/Users/31740/Desktop/newcore/include/linux/atomic/atomic-instrumented.h **** /**
 976:/mnt/c/Users/31740/Desktop/newcore/include/linux/atomic/atomic-instrumented.h ****  * atomic_fetch_or_release() - atomic bitwise OR with release ordering
 977:/mnt/c/Users/31740/Desktop/newcore/include/linux/atomic/atomic-instrumented.h ****  * @i: int value
 978:/mnt/c/Users/31740/Desktop/newcore/include/linux/atomic/atomic-instrumented.h ****  * @v: pointer to atomic_t
 979:/mnt/c/Users/31740/Desktop/newcore/include/linux/atomic/atomic-instrumented.h ****  *
ARM GAS  /tmp/ccyCLDig.s 			page 83


 980:/mnt/c/Users/31740/Desktop/newcore/include/linux/atomic/atomic-instrumented.h ****  * Atomically updates @v to (@v | @i) with release ordering.
 981:/mnt/c/Users/31740/Desktop/newcore/include/linux/atomic/atomic-instrumented.h ****  *
 982:/mnt/c/Users/31740/Desktop/newcore/include/linux/atomic/atomic-instrumented.h ****  * Unsafe to use in noinstr code; use raw_atomic_fetch_or_release() there.
 983:/mnt/c/Users/31740/Desktop/newcore/include/linux/atomic/atomic-instrumented.h ****  *
 984:/mnt/c/Users/31740/Desktop/newcore/include/linux/atomic/atomic-instrumented.h ****  * Return: The original value of @v.
 985:/mnt/c/Users/31740/Desktop/newcore/include/linux/atomic/atomic-instrumented.h ****  */
 986:/mnt/c/Users/31740/Desktop/newcore/include/linux/atomic/atomic-instrumented.h **** static __always_inline int
 987:/mnt/c/Users/31740/Desktop/newcore/include/linux/atomic/atomic-instrumented.h **** atomic_fetch_or_release(int i, atomic_t *v)
 988:/mnt/c/Users/31740/Desktop/newcore/include/linux/atomic/atomic-instrumented.h **** {
 989:/mnt/c/Users/31740/Desktop/newcore/include/linux/atomic/atomic-instrumented.h **** 	kcsan_release();
 990:/mnt/c/Users/31740/Desktop/newcore/include/linux/atomic/atomic-instrumented.h **** 	instrument_atomic_read_write(v, sizeof(*v));
 991:/mnt/c/Users/31740/Desktop/newcore/include/linux/atomic/atomic-instrumented.h **** 	return raw_atomic_fetch_or_release(i, v);
 992:/mnt/c/Users/31740/Desktop/newcore/include/linux/atomic/atomic-instrumented.h **** }
 993:/mnt/c/Users/31740/Desktop/newcore/include/linux/atomic/atomic-instrumented.h **** 
 994:/mnt/c/Users/31740/Desktop/newcore/include/linux/atomic/atomic-instrumented.h **** /**
 995:/mnt/c/Users/31740/Desktop/newcore/include/linux/atomic/atomic-instrumented.h ****  * atomic_fetch_or_relaxed() - atomic bitwise OR with relaxed ordering
 996:/mnt/c/Users/31740/Desktop/newcore/include/linux/atomic/atomic-instrumented.h ****  * @i: int value
 997:/mnt/c/Users/31740/Desktop/newcore/include/linux/atomic/atomic-instrumented.h ****  * @v: pointer to atomic_t
 998:/mnt/c/Users/31740/Desktop/newcore/include/linux/atomic/atomic-instrumented.h ****  *
 999:/mnt/c/Users/31740/Desktop/newcore/include/linux/atomic/atomic-instrumented.h ****  * Atomically updates @v to (@v | @i) with relaxed ordering.
1000:/mnt/c/Users/31740/Desktop/newcore/include/linux/atomic/atomic-instrumented.h ****  *
1001:/mnt/c/Users/31740/Desktop/newcore/include/linux/atomic/atomic-instrumented.h ****  * Unsafe to use in noinstr code; use raw_atomic_fetch_or_relaxed() there.
1002:/mnt/c/Users/31740/Desktop/newcore/include/linux/atomic/atomic-instrumented.h ****  *
1003:/mnt/c/Users/31740/Desktop/newcore/include/linux/atomic/atomic-instrumented.h ****  * Return: The original value of @v.
1004:/mnt/c/Users/31740/Desktop/newcore/include/linux/atomic/atomic-instrumented.h ****  */
1005:/mnt/c/Users/31740/Desktop/newcore/include/linux/atomic/atomic-instrumented.h **** static __always_inline int
1006:/mnt/c/Users/31740/Desktop/newcore/include/linux/atomic/atomic-instrumented.h **** atomic_fetch_or_relaxed(int i, atomic_t *v)
1007:/mnt/c/Users/31740/Desktop/newcore/include/linux/atomic/atomic-instrumented.h **** {
1008:/mnt/c/Users/31740/Desktop/newcore/include/linux/atomic/atomic-instrumented.h **** 	instrument_atomic_read_write(v, sizeof(*v));
1009:/mnt/c/Users/31740/Desktop/newcore/include/linux/atomic/atomic-instrumented.h **** 	return raw_atomic_fetch_or_relaxed(i, v);
1010:/mnt/c/Users/31740/Desktop/newcore/include/linux/atomic/atomic-instrumented.h **** }
1011:/mnt/c/Users/31740/Desktop/newcore/include/linux/atomic/atomic-instrumented.h **** 
1012:/mnt/c/Users/31740/Desktop/newcore/include/linux/atomic/atomic-instrumented.h **** /**
1013:/mnt/c/Users/31740/Desktop/newcore/include/linux/atomic/atomic-instrumented.h ****  * atomic_xor() - atomic bitwise XOR with relaxed ordering
1014:/mnt/c/Users/31740/Desktop/newcore/include/linux/atomic/atomic-instrumented.h ****  * @i: int value
1015:/mnt/c/Users/31740/Desktop/newcore/include/linux/atomic/atomic-instrumented.h ****  * @v: pointer to atomic_t
1016:/mnt/c/Users/31740/Desktop/newcore/include/linux/atomic/atomic-instrumented.h ****  *
1017:/mnt/c/Users/31740/Desktop/newcore/include/linux/atomic/atomic-instrumented.h ****  * Atomically updates @v to (@v ^ @i) with relaxed ordering.
1018:/mnt/c/Users/31740/Desktop/newcore/include/linux/atomic/atomic-instrumented.h ****  *
1019:/mnt/c/Users/31740/Desktop/newcore/include/linux/atomic/atomic-instrumented.h ****  * Unsafe to use in noinstr code; use raw_atomic_xor() there.
1020:/mnt/c/Users/31740/Desktop/newcore/include/linux/atomic/atomic-instrumented.h ****  *
1021:/mnt/c/Users/31740/Desktop/newcore/include/linux/atomic/atomic-instrumented.h ****  * Return: Nothing.
1022:/mnt/c/Users/31740/Desktop/newcore/include/linux/atomic/atomic-instrumented.h ****  */
1023:/mnt/c/Users/31740/Desktop/newcore/include/linux/atomic/atomic-instrumented.h **** static __always_inline void
1024:/mnt/c/Users/31740/Desktop/newcore/include/linux/atomic/atomic-instrumented.h **** atomic_xor(int i, atomic_t *v)
1025:/mnt/c/Users/31740/Desktop/newcore/include/linux/atomic/atomic-instrumented.h **** {
1026:/mnt/c/Users/31740/Desktop/newcore/include/linux/atomic/atomic-instrumented.h **** 	instrument_atomic_read_write(v, sizeof(*v));
1027:/mnt/c/Users/31740/Desktop/newcore/include/linux/atomic/atomic-instrumented.h **** 	raw_atomic_xor(i, v);
1028:/mnt/c/Users/31740/Desktop/newcore/include/linux/atomic/atomic-instrumented.h **** }
1029:/mnt/c/Users/31740/Desktop/newcore/include/linux/atomic/atomic-instrumented.h **** 
1030:/mnt/c/Users/31740/Desktop/newcore/include/linux/atomic/atomic-instrumented.h **** /**
1031:/mnt/c/Users/31740/Desktop/newcore/include/linux/atomic/atomic-instrumented.h ****  * atomic_fetch_xor() - atomic bitwise XOR with full ordering
1032:/mnt/c/Users/31740/Desktop/newcore/include/linux/atomic/atomic-instrumented.h ****  * @i: int value
1033:/mnt/c/Users/31740/Desktop/newcore/include/linux/atomic/atomic-instrumented.h ****  * @v: pointer to atomic_t
1034:/mnt/c/Users/31740/Desktop/newcore/include/linux/atomic/atomic-instrumented.h ****  *
1035:/mnt/c/Users/31740/Desktop/newcore/include/linux/atomic/atomic-instrumented.h ****  * Atomically updates @v to (@v ^ @i) with full ordering.
1036:/mnt/c/Users/31740/Desktop/newcore/include/linux/atomic/atomic-instrumented.h ****  *
ARM GAS  /tmp/ccyCLDig.s 			page 84


1037:/mnt/c/Users/31740/Desktop/newcore/include/linux/atomic/atomic-instrumented.h ****  * Unsafe to use in noinstr code; use raw_atomic_fetch_xor() there.
1038:/mnt/c/Users/31740/Desktop/newcore/include/linux/atomic/atomic-instrumented.h ****  *
1039:/mnt/c/Users/31740/Desktop/newcore/include/linux/atomic/atomic-instrumented.h ****  * Return: The original value of @v.
1040:/mnt/c/Users/31740/Desktop/newcore/include/linux/atomic/atomic-instrumented.h ****  */
1041:/mnt/c/Users/31740/Desktop/newcore/include/linux/atomic/atomic-instrumented.h **** static __always_inline int
1042:/mnt/c/Users/31740/Desktop/newcore/include/linux/atomic/atomic-instrumented.h **** atomic_fetch_xor(int i, atomic_t *v)
1043:/mnt/c/Users/31740/Desktop/newcore/include/linux/atomic/atomic-instrumented.h **** {
1044:/mnt/c/Users/31740/Desktop/newcore/include/linux/atomic/atomic-instrumented.h **** 	kcsan_mb();
1045:/mnt/c/Users/31740/Desktop/newcore/include/linux/atomic/atomic-instrumented.h **** 	instrument_atomic_read_write(v, sizeof(*v));
1046:/mnt/c/Users/31740/Desktop/newcore/include/linux/atomic/atomic-instrumented.h **** 	return raw_atomic_fetch_xor(i, v);
1047:/mnt/c/Users/31740/Desktop/newcore/include/linux/atomic/atomic-instrumented.h **** }
1048:/mnt/c/Users/31740/Desktop/newcore/include/linux/atomic/atomic-instrumented.h **** 
1049:/mnt/c/Users/31740/Desktop/newcore/include/linux/atomic/atomic-instrumented.h **** /**
1050:/mnt/c/Users/31740/Desktop/newcore/include/linux/atomic/atomic-instrumented.h ****  * atomic_fetch_xor_acquire() - atomic bitwise XOR with acquire ordering
1051:/mnt/c/Users/31740/Desktop/newcore/include/linux/atomic/atomic-instrumented.h ****  * @i: int value
1052:/mnt/c/Users/31740/Desktop/newcore/include/linux/atomic/atomic-instrumented.h ****  * @v: pointer to atomic_t
1053:/mnt/c/Users/31740/Desktop/newcore/include/linux/atomic/atomic-instrumented.h ****  *
1054:/mnt/c/Users/31740/Desktop/newcore/include/linux/atomic/atomic-instrumented.h ****  * Atomically updates @v to (@v ^ @i) with acquire ordering.
1055:/mnt/c/Users/31740/Desktop/newcore/include/linux/atomic/atomic-instrumented.h ****  *
1056:/mnt/c/Users/31740/Desktop/newcore/include/linux/atomic/atomic-instrumented.h ****  * Unsafe to use in noinstr code; use raw_atomic_fetch_xor_acquire() there.
1057:/mnt/c/Users/31740/Desktop/newcore/include/linux/atomic/atomic-instrumented.h ****  *
1058:/mnt/c/Users/31740/Desktop/newcore/include/linux/atomic/atomic-instrumented.h ****  * Return: The original value of @v.
1059:/mnt/c/Users/31740/Desktop/newcore/include/linux/atomic/atomic-instrumented.h ****  */
1060:/mnt/c/Users/31740/Desktop/newcore/include/linux/atomic/atomic-instrumented.h **** static __always_inline int
1061:/mnt/c/Users/31740/Desktop/newcore/include/linux/atomic/atomic-instrumented.h **** atomic_fetch_xor_acquire(int i, atomic_t *v)
1062:/mnt/c/Users/31740/Desktop/newcore/include/linux/atomic/atomic-instrumented.h **** {
1063:/mnt/c/Users/31740/Desktop/newcore/include/linux/atomic/atomic-instrumented.h **** 	instrument_atomic_read_write(v, sizeof(*v));
1064:/mnt/c/Users/31740/Desktop/newcore/include/linux/atomic/atomic-instrumented.h **** 	return raw_atomic_fetch_xor_acquire(i, v);
1065:/mnt/c/Users/31740/Desktop/newcore/include/linux/atomic/atomic-instrumented.h **** }
1066:/mnt/c/Users/31740/Desktop/newcore/include/linux/atomic/atomic-instrumented.h **** 
1067:/mnt/c/Users/31740/Desktop/newcore/include/linux/atomic/atomic-instrumented.h **** /**
1068:/mnt/c/Users/31740/Desktop/newcore/include/linux/atomic/atomic-instrumented.h ****  * atomic_fetch_xor_release() - atomic bitwise XOR with release ordering
1069:/mnt/c/Users/31740/Desktop/newcore/include/linux/atomic/atomic-instrumented.h ****  * @i: int value
1070:/mnt/c/Users/31740/Desktop/newcore/include/linux/atomic/atomic-instrumented.h ****  * @v: pointer to atomic_t
1071:/mnt/c/Users/31740/Desktop/newcore/include/linux/atomic/atomic-instrumented.h ****  *
1072:/mnt/c/Users/31740/Desktop/newcore/include/linux/atomic/atomic-instrumented.h ****  * Atomically updates @v to (@v ^ @i) with release ordering.
1073:/mnt/c/Users/31740/Desktop/newcore/include/linux/atomic/atomic-instrumented.h ****  *
1074:/mnt/c/Users/31740/Desktop/newcore/include/linux/atomic/atomic-instrumented.h ****  * Unsafe to use in noinstr code; use raw_atomic_fetch_xor_release() there.
1075:/mnt/c/Users/31740/Desktop/newcore/include/linux/atomic/atomic-instrumented.h ****  *
1076:/mnt/c/Users/31740/Desktop/newcore/include/linux/atomic/atomic-instrumented.h ****  * Return: The original value of @v.
1077:/mnt/c/Users/31740/Desktop/newcore/include/linux/atomic/atomic-instrumented.h ****  */
1078:/mnt/c/Users/31740/Desktop/newcore/include/linux/atomic/atomic-instrumented.h **** static __always_inline int
1079:/mnt/c/Users/31740/Desktop/newcore/include/linux/atomic/atomic-instrumented.h **** atomic_fetch_xor_release(int i, atomic_t *v)
1080:/mnt/c/Users/31740/Desktop/newcore/include/linux/atomic/atomic-instrumented.h **** {
1081:/mnt/c/Users/31740/Desktop/newcore/include/linux/atomic/atomic-instrumented.h **** 	kcsan_release();
1082:/mnt/c/Users/31740/Desktop/newcore/include/linux/atomic/atomic-instrumented.h **** 	instrument_atomic_read_write(v, sizeof(*v));
1083:/mnt/c/Users/31740/Desktop/newcore/include/linux/atomic/atomic-instrumented.h **** 	return raw_atomic_fetch_xor_release(i, v);
1084:/mnt/c/Users/31740/Desktop/newcore/include/linux/atomic/atomic-instrumented.h **** }
1085:/mnt/c/Users/31740/Desktop/newcore/include/linux/atomic/atomic-instrumented.h **** 
1086:/mnt/c/Users/31740/Desktop/newcore/include/linux/atomic/atomic-instrumented.h **** /**
1087:/mnt/c/Users/31740/Desktop/newcore/include/linux/atomic/atomic-instrumented.h ****  * atomic_fetch_xor_relaxed() - atomic bitwise XOR with relaxed ordering
1088:/mnt/c/Users/31740/Desktop/newcore/include/linux/atomic/atomic-instrumented.h ****  * @i: int value
1089:/mnt/c/Users/31740/Desktop/newcore/include/linux/atomic/atomic-instrumented.h ****  * @v: pointer to atomic_t
1090:/mnt/c/Users/31740/Desktop/newcore/include/linux/atomic/atomic-instrumented.h ****  *
1091:/mnt/c/Users/31740/Desktop/newcore/include/linux/atomic/atomic-instrumented.h ****  * Atomically updates @v to (@v ^ @i) with relaxed ordering.
1092:/mnt/c/Users/31740/Desktop/newcore/include/linux/atomic/atomic-instrumented.h ****  *
1093:/mnt/c/Users/31740/Desktop/newcore/include/linux/atomic/atomic-instrumented.h ****  * Unsafe to use in noinstr code; use raw_atomic_fetch_xor_relaxed() there.
ARM GAS  /tmp/ccyCLDig.s 			page 85


1094:/mnt/c/Users/31740/Desktop/newcore/include/linux/atomic/atomic-instrumented.h ****  *
1095:/mnt/c/Users/31740/Desktop/newcore/include/linux/atomic/atomic-instrumented.h ****  * Return: The original value of @v.
1096:/mnt/c/Users/31740/Desktop/newcore/include/linux/atomic/atomic-instrumented.h ****  */
1097:/mnt/c/Users/31740/Desktop/newcore/include/linux/atomic/atomic-instrumented.h **** static __always_inline int
1098:/mnt/c/Users/31740/Desktop/newcore/include/linux/atomic/atomic-instrumented.h **** atomic_fetch_xor_relaxed(int i, atomic_t *v)
1099:/mnt/c/Users/31740/Desktop/newcore/include/linux/atomic/atomic-instrumented.h **** {
1100:/mnt/c/Users/31740/Desktop/newcore/include/linux/atomic/atomic-instrumented.h **** 	instrument_atomic_read_write(v, sizeof(*v));
1101:/mnt/c/Users/31740/Desktop/newcore/include/linux/atomic/atomic-instrumented.h **** 	return raw_atomic_fetch_xor_relaxed(i, v);
1102:/mnt/c/Users/31740/Desktop/newcore/include/linux/atomic/atomic-instrumented.h **** }
1103:/mnt/c/Users/31740/Desktop/newcore/include/linux/atomic/atomic-instrumented.h **** 
1104:/mnt/c/Users/31740/Desktop/newcore/include/linux/atomic/atomic-instrumented.h **** /**
1105:/mnt/c/Users/31740/Desktop/newcore/include/linux/atomic/atomic-instrumented.h ****  * atomic_xchg() - atomic exchange with full ordering
1106:/mnt/c/Users/31740/Desktop/newcore/include/linux/atomic/atomic-instrumented.h ****  * @v: pointer to atomic_t
1107:/mnt/c/Users/31740/Desktop/newcore/include/linux/atomic/atomic-instrumented.h ****  * @new: int value to assign
1108:/mnt/c/Users/31740/Desktop/newcore/include/linux/atomic/atomic-instrumented.h ****  *
1109:/mnt/c/Users/31740/Desktop/newcore/include/linux/atomic/atomic-instrumented.h ****  * Atomically updates @v to @new with full ordering.
1110:/mnt/c/Users/31740/Desktop/newcore/include/linux/atomic/atomic-instrumented.h ****  *
1111:/mnt/c/Users/31740/Desktop/newcore/include/linux/atomic/atomic-instrumented.h ****  * Unsafe to use in noinstr code; use raw_atomic_xchg() there.
1112:/mnt/c/Users/31740/Desktop/newcore/include/linux/atomic/atomic-instrumented.h ****  *
1113:/mnt/c/Users/31740/Desktop/newcore/include/linux/atomic/atomic-instrumented.h ****  * Return: The original value of @v.
1114:/mnt/c/Users/31740/Desktop/newcore/include/linux/atomic/atomic-instrumented.h ****  */
1115:/mnt/c/Users/31740/Desktop/newcore/include/linux/atomic/atomic-instrumented.h **** static __always_inline int
1116:/mnt/c/Users/31740/Desktop/newcore/include/linux/atomic/atomic-instrumented.h **** atomic_xchg(atomic_t *v, int new)
1117:/mnt/c/Users/31740/Desktop/newcore/include/linux/atomic/atomic-instrumented.h **** {
1118:/mnt/c/Users/31740/Desktop/newcore/include/linux/atomic/atomic-instrumented.h **** 	kcsan_mb();
1119:/mnt/c/Users/31740/Desktop/newcore/include/linux/atomic/atomic-instrumented.h **** 	instrument_atomic_read_write(v, sizeof(*v));
1120:/mnt/c/Users/31740/Desktop/newcore/include/linux/atomic/atomic-instrumented.h **** 	return raw_atomic_xchg(v, new);
1121:/mnt/c/Users/31740/Desktop/newcore/include/linux/atomic/atomic-instrumented.h **** }
1122:/mnt/c/Users/31740/Desktop/newcore/include/linux/atomic/atomic-instrumented.h **** 
1123:/mnt/c/Users/31740/Desktop/newcore/include/linux/atomic/atomic-instrumented.h **** /**
1124:/mnt/c/Users/31740/Desktop/newcore/include/linux/atomic/atomic-instrumented.h ****  * atomic_xchg_acquire() - atomic exchange with acquire ordering
1125:/mnt/c/Users/31740/Desktop/newcore/include/linux/atomic/atomic-instrumented.h ****  * @v: pointer to atomic_t
1126:/mnt/c/Users/31740/Desktop/newcore/include/linux/atomic/atomic-instrumented.h ****  * @new: int value to assign
1127:/mnt/c/Users/31740/Desktop/newcore/include/linux/atomic/atomic-instrumented.h ****  *
1128:/mnt/c/Users/31740/Desktop/newcore/include/linux/atomic/atomic-instrumented.h ****  * Atomically updates @v to @new with acquire ordering.
1129:/mnt/c/Users/31740/Desktop/newcore/include/linux/atomic/atomic-instrumented.h ****  *
1130:/mnt/c/Users/31740/Desktop/newcore/include/linux/atomic/atomic-instrumented.h ****  * Unsafe to use in noinstr code; use raw_atomic_xchg_acquire() there.
1131:/mnt/c/Users/31740/Desktop/newcore/include/linux/atomic/atomic-instrumented.h ****  *
1132:/mnt/c/Users/31740/Desktop/newcore/include/linux/atomic/atomic-instrumented.h ****  * Return: The original value of @v.
1133:/mnt/c/Users/31740/Desktop/newcore/include/linux/atomic/atomic-instrumented.h ****  */
1134:/mnt/c/Users/31740/Desktop/newcore/include/linux/atomic/atomic-instrumented.h **** static __always_inline int
1135:/mnt/c/Users/31740/Desktop/newcore/include/linux/atomic/atomic-instrumented.h **** atomic_xchg_acquire(atomic_t *v, int new)
1136:/mnt/c/Users/31740/Desktop/newcore/include/linux/atomic/atomic-instrumented.h **** {
1137:/mnt/c/Users/31740/Desktop/newcore/include/linux/atomic/atomic-instrumented.h **** 	instrument_atomic_read_write(v, sizeof(*v));
1138:/mnt/c/Users/31740/Desktop/newcore/include/linux/atomic/atomic-instrumented.h **** 	return raw_atomic_xchg_acquire(v, new);
1139:/mnt/c/Users/31740/Desktop/newcore/include/linux/atomic/atomic-instrumented.h **** }
1140:/mnt/c/Users/31740/Desktop/newcore/include/linux/atomic/atomic-instrumented.h **** 
1141:/mnt/c/Users/31740/Desktop/newcore/include/linux/atomic/atomic-instrumented.h **** /**
1142:/mnt/c/Users/31740/Desktop/newcore/include/linux/atomic/atomic-instrumented.h ****  * atomic_xchg_release() - atomic exchange with release ordering
1143:/mnt/c/Users/31740/Desktop/newcore/include/linux/atomic/atomic-instrumented.h ****  * @v: pointer to atomic_t
1144:/mnt/c/Users/31740/Desktop/newcore/include/linux/atomic/atomic-instrumented.h ****  * @new: int value to assign
1145:/mnt/c/Users/31740/Desktop/newcore/include/linux/atomic/atomic-instrumented.h ****  *
1146:/mnt/c/Users/31740/Desktop/newcore/include/linux/atomic/atomic-instrumented.h ****  * Atomically updates @v to @new with release ordering.
1147:/mnt/c/Users/31740/Desktop/newcore/include/linux/atomic/atomic-instrumented.h ****  *
1148:/mnt/c/Users/31740/Desktop/newcore/include/linux/atomic/atomic-instrumented.h ****  * Unsafe to use in noinstr code; use raw_atomic_xchg_release() there.
1149:/mnt/c/Users/31740/Desktop/newcore/include/linux/atomic/atomic-instrumented.h ****  *
1150:/mnt/c/Users/31740/Desktop/newcore/include/linux/atomic/atomic-instrumented.h ****  * Return: The original value of @v.
ARM GAS  /tmp/ccyCLDig.s 			page 86


1151:/mnt/c/Users/31740/Desktop/newcore/include/linux/atomic/atomic-instrumented.h ****  */
1152:/mnt/c/Users/31740/Desktop/newcore/include/linux/atomic/atomic-instrumented.h **** static __always_inline int
1153:/mnt/c/Users/31740/Desktop/newcore/include/linux/atomic/atomic-instrumented.h **** atomic_xchg_release(atomic_t *v, int new)
1154:/mnt/c/Users/31740/Desktop/newcore/include/linux/atomic/atomic-instrumented.h **** {
1155:/mnt/c/Users/31740/Desktop/newcore/include/linux/atomic/atomic-instrumented.h **** 	kcsan_release();
1156:/mnt/c/Users/31740/Desktop/newcore/include/linux/atomic/atomic-instrumented.h **** 	instrument_atomic_read_write(v, sizeof(*v));
1157:/mnt/c/Users/31740/Desktop/newcore/include/linux/atomic/atomic-instrumented.h **** 	return raw_atomic_xchg_release(v, new);
1158:/mnt/c/Users/31740/Desktop/newcore/include/linux/atomic/atomic-instrumented.h **** }
1159:/mnt/c/Users/31740/Desktop/newcore/include/linux/atomic/atomic-instrumented.h **** 
1160:/mnt/c/Users/31740/Desktop/newcore/include/linux/atomic/atomic-instrumented.h **** /**
1161:/mnt/c/Users/31740/Desktop/newcore/include/linux/atomic/atomic-instrumented.h ****  * atomic_xchg_relaxed() - atomic exchange with relaxed ordering
1162:/mnt/c/Users/31740/Desktop/newcore/include/linux/atomic/atomic-instrumented.h ****  * @v: pointer to atomic_t
1163:/mnt/c/Users/31740/Desktop/newcore/include/linux/atomic/atomic-instrumented.h ****  * @new: int value to assign
1164:/mnt/c/Users/31740/Desktop/newcore/include/linux/atomic/atomic-instrumented.h ****  *
1165:/mnt/c/Users/31740/Desktop/newcore/include/linux/atomic/atomic-instrumented.h ****  * Atomically updates @v to @new with relaxed ordering.
1166:/mnt/c/Users/31740/Desktop/newcore/include/linux/atomic/atomic-instrumented.h ****  *
1167:/mnt/c/Users/31740/Desktop/newcore/include/linux/atomic/atomic-instrumented.h ****  * Unsafe to use in noinstr code; use raw_atomic_xchg_relaxed() there.
1168:/mnt/c/Users/31740/Desktop/newcore/include/linux/atomic/atomic-instrumented.h ****  *
1169:/mnt/c/Users/31740/Desktop/newcore/include/linux/atomic/atomic-instrumented.h ****  * Return: The original value of @v.
1170:/mnt/c/Users/31740/Desktop/newcore/include/linux/atomic/atomic-instrumented.h ****  */
1171:/mnt/c/Users/31740/Desktop/newcore/include/linux/atomic/atomic-instrumented.h **** static __always_inline int
1172:/mnt/c/Users/31740/Desktop/newcore/include/linux/atomic/atomic-instrumented.h **** atomic_xchg_relaxed(atomic_t *v, int new)
1173:/mnt/c/Users/31740/Desktop/newcore/include/linux/atomic/atomic-instrumented.h **** {
1174:/mnt/c/Users/31740/Desktop/newcore/include/linux/atomic/atomic-instrumented.h **** 	instrument_atomic_read_write(v, sizeof(*v));
1175:/mnt/c/Users/31740/Desktop/newcore/include/linux/atomic/atomic-instrumented.h **** 	return raw_atomic_xchg_relaxed(v, new);
1176:/mnt/c/Users/31740/Desktop/newcore/include/linux/atomic/atomic-instrumented.h **** }
1177:/mnt/c/Users/31740/Desktop/newcore/include/linux/atomic/atomic-instrumented.h **** 
1178:/mnt/c/Users/31740/Desktop/newcore/include/linux/atomic/atomic-instrumented.h **** /**
1179:/mnt/c/Users/31740/Desktop/newcore/include/linux/atomic/atomic-instrumented.h ****  * atomic_cmpxchg() - atomic compare and exchange with full ordering
1180:/mnt/c/Users/31740/Desktop/newcore/include/linux/atomic/atomic-instrumented.h ****  * @v: pointer to atomic_t
1181:/mnt/c/Users/31740/Desktop/newcore/include/linux/atomic/atomic-instrumented.h ****  * @old: int value to compare with
1182:/mnt/c/Users/31740/Desktop/newcore/include/linux/atomic/atomic-instrumented.h ****  * @new: int value to assign
1183:/mnt/c/Users/31740/Desktop/newcore/include/linux/atomic/atomic-instrumented.h ****  *
1184:/mnt/c/Users/31740/Desktop/newcore/include/linux/atomic/atomic-instrumented.h ****  * If (@v == @old), atomically updates @v to @new with full ordering.
1185:/mnt/c/Users/31740/Desktop/newcore/include/linux/atomic/atomic-instrumented.h ****  * Otherwise, @v is not modified and relaxed ordering is provided.
1186:/mnt/c/Users/31740/Desktop/newcore/include/linux/atomic/atomic-instrumented.h ****  *
1187:/mnt/c/Users/31740/Desktop/newcore/include/linux/atomic/atomic-instrumented.h ****  * Unsafe to use in noinstr code; use raw_atomic_cmpxchg() there.
1188:/mnt/c/Users/31740/Desktop/newcore/include/linux/atomic/atomic-instrumented.h ****  *
1189:/mnt/c/Users/31740/Desktop/newcore/include/linux/atomic/atomic-instrumented.h ****  * Return: The original value of @v.
1190:/mnt/c/Users/31740/Desktop/newcore/include/linux/atomic/atomic-instrumented.h ****  */
1191:/mnt/c/Users/31740/Desktop/newcore/include/linux/atomic/atomic-instrumented.h **** static __always_inline int
1192:/mnt/c/Users/31740/Desktop/newcore/include/linux/atomic/atomic-instrumented.h **** atomic_cmpxchg(atomic_t *v, int old, int new)
1193:/mnt/c/Users/31740/Desktop/newcore/include/linux/atomic/atomic-instrumented.h **** {
1194:/mnt/c/Users/31740/Desktop/newcore/include/linux/atomic/atomic-instrumented.h **** 	kcsan_mb();
1195:/mnt/c/Users/31740/Desktop/newcore/include/linux/atomic/atomic-instrumented.h **** 	instrument_atomic_read_write(v, sizeof(*v));
1196:/mnt/c/Users/31740/Desktop/newcore/include/linux/atomic/atomic-instrumented.h **** 	return raw_atomic_cmpxchg(v, old, new);
1197:/mnt/c/Users/31740/Desktop/newcore/include/linux/atomic/atomic-instrumented.h **** }
1198:/mnt/c/Users/31740/Desktop/newcore/include/linux/atomic/atomic-instrumented.h **** 
1199:/mnt/c/Users/31740/Desktop/newcore/include/linux/atomic/atomic-instrumented.h **** /**
1200:/mnt/c/Users/31740/Desktop/newcore/include/linux/atomic/atomic-instrumented.h ****  * atomic_cmpxchg_acquire() - atomic compare and exchange with acquire ordering
1201:/mnt/c/Users/31740/Desktop/newcore/include/linux/atomic/atomic-instrumented.h ****  * @v: pointer to atomic_t
1202:/mnt/c/Users/31740/Desktop/newcore/include/linux/atomic/atomic-instrumented.h ****  * @old: int value to compare with
1203:/mnt/c/Users/31740/Desktop/newcore/include/linux/atomic/atomic-instrumented.h ****  * @new: int value to assign
1204:/mnt/c/Users/31740/Desktop/newcore/include/linux/atomic/atomic-instrumented.h ****  *
1205:/mnt/c/Users/31740/Desktop/newcore/include/linux/atomic/atomic-instrumented.h ****  * If (@v == @old), atomically updates @v to @new with acquire ordering.
1206:/mnt/c/Users/31740/Desktop/newcore/include/linux/atomic/atomic-instrumented.h ****  * Otherwise, @v is not modified and relaxed ordering is provided.
1207:/mnt/c/Users/31740/Desktop/newcore/include/linux/atomic/atomic-instrumented.h ****  *
ARM GAS  /tmp/ccyCLDig.s 			page 87


1208:/mnt/c/Users/31740/Desktop/newcore/include/linux/atomic/atomic-instrumented.h ****  * Unsafe to use in noinstr code; use raw_atomic_cmpxchg_acquire() there.
1209:/mnt/c/Users/31740/Desktop/newcore/include/linux/atomic/atomic-instrumented.h ****  *
1210:/mnt/c/Users/31740/Desktop/newcore/include/linux/atomic/atomic-instrumented.h ****  * Return: The original value of @v.
1211:/mnt/c/Users/31740/Desktop/newcore/include/linux/atomic/atomic-instrumented.h ****  */
1212:/mnt/c/Users/31740/Desktop/newcore/include/linux/atomic/atomic-instrumented.h **** static __always_inline int
1213:/mnt/c/Users/31740/Desktop/newcore/include/linux/atomic/atomic-instrumented.h **** atomic_cmpxchg_acquire(atomic_t *v, int old, int new)
1214:/mnt/c/Users/31740/Desktop/newcore/include/linux/atomic/atomic-instrumented.h **** {
1215:/mnt/c/Users/31740/Desktop/newcore/include/linux/atomic/atomic-instrumented.h **** 	instrument_atomic_read_write(v, sizeof(*v));
1216:/mnt/c/Users/31740/Desktop/newcore/include/linux/atomic/atomic-instrumented.h **** 	return raw_atomic_cmpxchg_acquire(v, old, new);
1217:/mnt/c/Users/31740/Desktop/newcore/include/linux/atomic/atomic-instrumented.h **** }
1218:/mnt/c/Users/31740/Desktop/newcore/include/linux/atomic/atomic-instrumented.h **** 
1219:/mnt/c/Users/31740/Desktop/newcore/include/linux/atomic/atomic-instrumented.h **** /**
1220:/mnt/c/Users/31740/Desktop/newcore/include/linux/atomic/atomic-instrumented.h ****  * atomic_cmpxchg_release() - atomic compare and exchange with release ordering
1221:/mnt/c/Users/31740/Desktop/newcore/include/linux/atomic/atomic-instrumented.h ****  * @v: pointer to atomic_t
1222:/mnt/c/Users/31740/Desktop/newcore/include/linux/atomic/atomic-instrumented.h ****  * @old: int value to compare with
1223:/mnt/c/Users/31740/Desktop/newcore/include/linux/atomic/atomic-instrumented.h ****  * @new: int value to assign
1224:/mnt/c/Users/31740/Desktop/newcore/include/linux/atomic/atomic-instrumented.h ****  *
1225:/mnt/c/Users/31740/Desktop/newcore/include/linux/atomic/atomic-instrumented.h ****  * If (@v == @old), atomically updates @v to @new with release ordering.
1226:/mnt/c/Users/31740/Desktop/newcore/include/linux/atomic/atomic-instrumented.h ****  * Otherwise, @v is not modified and relaxed ordering is provided.
1227:/mnt/c/Users/31740/Desktop/newcore/include/linux/atomic/atomic-instrumented.h ****  *
1228:/mnt/c/Users/31740/Desktop/newcore/include/linux/atomic/atomic-instrumented.h ****  * Unsafe to use in noinstr code; use raw_atomic_cmpxchg_release() there.
1229:/mnt/c/Users/31740/Desktop/newcore/include/linux/atomic/atomic-instrumented.h ****  *
1230:/mnt/c/Users/31740/Desktop/newcore/include/linux/atomic/atomic-instrumented.h ****  * Return: The original value of @v.
1231:/mnt/c/Users/31740/Desktop/newcore/include/linux/atomic/atomic-instrumented.h ****  */
1232:/mnt/c/Users/31740/Desktop/newcore/include/linux/atomic/atomic-instrumented.h **** static __always_inline int
1233:/mnt/c/Users/31740/Desktop/newcore/include/linux/atomic/atomic-instrumented.h **** atomic_cmpxchg_release(atomic_t *v, int old, int new)
1234:/mnt/c/Users/31740/Desktop/newcore/include/linux/atomic/atomic-instrumented.h **** {
1235:/mnt/c/Users/31740/Desktop/newcore/include/linux/atomic/atomic-instrumented.h **** 	kcsan_release();
1236:/mnt/c/Users/31740/Desktop/newcore/include/linux/atomic/atomic-instrumented.h **** 	instrument_atomic_read_write(v, sizeof(*v));
1237:/mnt/c/Users/31740/Desktop/newcore/include/linux/atomic/atomic-instrumented.h **** 	return raw_atomic_cmpxchg_release(v, old, new);
1238:/mnt/c/Users/31740/Desktop/newcore/include/linux/atomic/atomic-instrumented.h **** }
1239:/mnt/c/Users/31740/Desktop/newcore/include/linux/atomic/atomic-instrumented.h **** 
1240:/mnt/c/Users/31740/Desktop/newcore/include/linux/atomic/atomic-instrumented.h **** /**
1241:/mnt/c/Users/31740/Desktop/newcore/include/linux/atomic/atomic-instrumented.h ****  * atomic_cmpxchg_relaxed() - atomic compare and exchange with relaxed ordering
1242:/mnt/c/Users/31740/Desktop/newcore/include/linux/atomic/atomic-instrumented.h ****  * @v: pointer to atomic_t
1243:/mnt/c/Users/31740/Desktop/newcore/include/linux/atomic/atomic-instrumented.h ****  * @old: int value to compare with
1244:/mnt/c/Users/31740/Desktop/newcore/include/linux/atomic/atomic-instrumented.h ****  * @new: int value to assign
1245:/mnt/c/Users/31740/Desktop/newcore/include/linux/atomic/atomic-instrumented.h ****  *
1246:/mnt/c/Users/31740/Desktop/newcore/include/linux/atomic/atomic-instrumented.h ****  * If (@v == @old), atomically updates @v to @new with relaxed ordering.
1247:/mnt/c/Users/31740/Desktop/newcore/include/linux/atomic/atomic-instrumented.h ****  * Otherwise, @v is not modified and relaxed ordering is provided.
1248:/mnt/c/Users/31740/Desktop/newcore/include/linux/atomic/atomic-instrumented.h ****  *
1249:/mnt/c/Users/31740/Desktop/newcore/include/linux/atomic/atomic-instrumented.h ****  * Unsafe to use in noinstr code; use raw_atomic_cmpxchg_relaxed() there.
1250:/mnt/c/Users/31740/Desktop/newcore/include/linux/atomic/atomic-instrumented.h ****  *
1251:/mnt/c/Users/31740/Desktop/newcore/include/linux/atomic/atomic-instrumented.h ****  * Return: The original value of @v.
1252:/mnt/c/Users/31740/Desktop/newcore/include/linux/atomic/atomic-instrumented.h ****  */
1253:/mnt/c/Users/31740/Desktop/newcore/include/linux/atomic/atomic-instrumented.h **** static __always_inline int
1254:/mnt/c/Users/31740/Desktop/newcore/include/linux/atomic/atomic-instrumented.h **** atomic_cmpxchg_relaxed(atomic_t *v, int old, int new)
1255:/mnt/c/Users/31740/Desktop/newcore/include/linux/atomic/atomic-instrumented.h **** {
1256:/mnt/c/Users/31740/Desktop/newcore/include/linux/atomic/atomic-instrumented.h **** 	instrument_atomic_read_write(v, sizeof(*v));
1257:/mnt/c/Users/31740/Desktop/newcore/include/linux/atomic/atomic-instrumented.h **** 	return raw_atomic_cmpxchg_relaxed(v, old, new);
1258:/mnt/c/Users/31740/Desktop/newcore/include/linux/atomic/atomic-instrumented.h **** }
1259:/mnt/c/Users/31740/Desktop/newcore/include/linux/atomic/atomic-instrumented.h **** 
1260:/mnt/c/Users/31740/Desktop/newcore/include/linux/atomic/atomic-instrumented.h **** /**
1261:/mnt/c/Users/31740/Desktop/newcore/include/linux/atomic/atomic-instrumented.h ****  * atomic_try_cmpxchg() - atomic compare and exchange with full ordering
1262:/mnt/c/Users/31740/Desktop/newcore/include/linux/atomic/atomic-instrumented.h ****  * @v: pointer to atomic_t
1263:/mnt/c/Users/31740/Desktop/newcore/include/linux/atomic/atomic-instrumented.h ****  * @old: pointer to int value to compare with
1264:/mnt/c/Users/31740/Desktop/newcore/include/linux/atomic/atomic-instrumented.h ****  * @new: int value to assign
ARM GAS  /tmp/ccyCLDig.s 			page 88


1265:/mnt/c/Users/31740/Desktop/newcore/include/linux/atomic/atomic-instrumented.h ****  *
1266:/mnt/c/Users/31740/Desktop/newcore/include/linux/atomic/atomic-instrumented.h ****  * If (@v == @old), atomically updates @v to @new with full ordering.
1267:/mnt/c/Users/31740/Desktop/newcore/include/linux/atomic/atomic-instrumented.h ****  * Otherwise, @v is not modified, @old is updated to the current value of @v,
1268:/mnt/c/Users/31740/Desktop/newcore/include/linux/atomic/atomic-instrumented.h ****  * and relaxed ordering is provided.
1269:/mnt/c/Users/31740/Desktop/newcore/include/linux/atomic/atomic-instrumented.h ****  *
1270:/mnt/c/Users/31740/Desktop/newcore/include/linux/atomic/atomic-instrumented.h ****  * Unsafe to use in noinstr code; use raw_atomic_try_cmpxchg() there.
1271:/mnt/c/Users/31740/Desktop/newcore/include/linux/atomic/atomic-instrumented.h ****  *
1272:/mnt/c/Users/31740/Desktop/newcore/include/linux/atomic/atomic-instrumented.h ****  * Return: @true if the exchange occured, @false otherwise.
1273:/mnt/c/Users/31740/Desktop/newcore/include/linux/atomic/atomic-instrumented.h ****  */
1274:/mnt/c/Users/31740/Desktop/newcore/include/linux/atomic/atomic-instrumented.h **** static __always_inline bool
1275:/mnt/c/Users/31740/Desktop/newcore/include/linux/atomic/atomic-instrumented.h **** atomic_try_cmpxchg(atomic_t *v, int *old, int new)
1276:/mnt/c/Users/31740/Desktop/newcore/include/linux/atomic/atomic-instrumented.h **** {
1277:/mnt/c/Users/31740/Desktop/newcore/include/linux/atomic/atomic-instrumented.h **** 	kcsan_mb();
1278:/mnt/c/Users/31740/Desktop/newcore/include/linux/atomic/atomic-instrumented.h **** 	instrument_atomic_read_write(v, sizeof(*v));
1279:/mnt/c/Users/31740/Desktop/newcore/include/linux/atomic/atomic-instrumented.h **** 	instrument_atomic_read_write(old, sizeof(*old));
1280:/mnt/c/Users/31740/Desktop/newcore/include/linux/atomic/atomic-instrumented.h **** 	return raw_atomic_try_cmpxchg(v, old, new);
1281:/mnt/c/Users/31740/Desktop/newcore/include/linux/atomic/atomic-instrumented.h **** }
1282:/mnt/c/Users/31740/Desktop/newcore/include/linux/atomic/atomic-instrumented.h **** 
1283:/mnt/c/Users/31740/Desktop/newcore/include/linux/atomic/atomic-instrumented.h **** /**
1284:/mnt/c/Users/31740/Desktop/newcore/include/linux/atomic/atomic-instrumented.h ****  * atomic_try_cmpxchg_acquire() - atomic compare and exchange with acquire ordering
1285:/mnt/c/Users/31740/Desktop/newcore/include/linux/atomic/atomic-instrumented.h ****  * @v: pointer to atomic_t
1286:/mnt/c/Users/31740/Desktop/newcore/include/linux/atomic/atomic-instrumented.h ****  * @old: pointer to int value to compare with
1287:/mnt/c/Users/31740/Desktop/newcore/include/linux/atomic/atomic-instrumented.h ****  * @new: int value to assign
1288:/mnt/c/Users/31740/Desktop/newcore/include/linux/atomic/atomic-instrumented.h ****  *
1289:/mnt/c/Users/31740/Desktop/newcore/include/linux/atomic/atomic-instrumented.h ****  * If (@v == @old), atomically updates @v to @new with acquire ordering.
1290:/mnt/c/Users/31740/Desktop/newcore/include/linux/atomic/atomic-instrumented.h ****  * Otherwise, @v is not modified, @old is updated to the current value of @v,
1291:/mnt/c/Users/31740/Desktop/newcore/include/linux/atomic/atomic-instrumented.h ****  * and relaxed ordering is provided.
1292:/mnt/c/Users/31740/Desktop/newcore/include/linux/atomic/atomic-instrumented.h ****  *
1293:/mnt/c/Users/31740/Desktop/newcore/include/linux/atomic/atomic-instrumented.h ****  * Unsafe to use in noinstr code; use raw_atomic_try_cmpxchg_acquire() there.
1294:/mnt/c/Users/31740/Desktop/newcore/include/linux/atomic/atomic-instrumented.h ****  *
1295:/mnt/c/Users/31740/Desktop/newcore/include/linux/atomic/atomic-instrumented.h ****  * Return: @true if the exchange occured, @false otherwise.
1296:/mnt/c/Users/31740/Desktop/newcore/include/linux/atomic/atomic-instrumented.h ****  */
1297:/mnt/c/Users/31740/Desktop/newcore/include/linux/atomic/atomic-instrumented.h **** static __always_inline bool
1298:/mnt/c/Users/31740/Desktop/newcore/include/linux/atomic/atomic-instrumented.h **** atomic_try_cmpxchg_acquire(atomic_t *v, int *old, int new)
1299:/mnt/c/Users/31740/Desktop/newcore/include/linux/atomic/atomic-instrumented.h **** {
1300:/mnt/c/Users/31740/Desktop/newcore/include/linux/atomic/atomic-instrumented.h **** 	instrument_atomic_read_write(v, sizeof(*v));
1301:/mnt/c/Users/31740/Desktop/newcore/include/linux/atomic/atomic-instrumented.h **** 	instrument_atomic_read_write(old, sizeof(*old));
1302:/mnt/c/Users/31740/Desktop/newcore/include/linux/atomic/atomic-instrumented.h **** 	return raw_atomic_try_cmpxchg_acquire(v, old, new);
1303:/mnt/c/Users/31740/Desktop/newcore/include/linux/atomic/atomic-instrumented.h **** }
1304:/mnt/c/Users/31740/Desktop/newcore/include/linux/atomic/atomic-instrumented.h **** 
1305:/mnt/c/Users/31740/Desktop/newcore/include/linux/atomic/atomic-instrumented.h **** /**
1306:/mnt/c/Users/31740/Desktop/newcore/include/linux/atomic/atomic-instrumented.h ****  * atomic_try_cmpxchg_release() - atomic compare and exchange with release ordering
1307:/mnt/c/Users/31740/Desktop/newcore/include/linux/atomic/atomic-instrumented.h ****  * @v: pointer to atomic_t
1308:/mnt/c/Users/31740/Desktop/newcore/include/linux/atomic/atomic-instrumented.h ****  * @old: pointer to int value to compare with
1309:/mnt/c/Users/31740/Desktop/newcore/include/linux/atomic/atomic-instrumented.h ****  * @new: int value to assign
1310:/mnt/c/Users/31740/Desktop/newcore/include/linux/atomic/atomic-instrumented.h ****  *
1311:/mnt/c/Users/31740/Desktop/newcore/include/linux/atomic/atomic-instrumented.h ****  * If (@v == @old), atomically updates @v to @new with release ordering.
1312:/mnt/c/Users/31740/Desktop/newcore/include/linux/atomic/atomic-instrumented.h ****  * Otherwise, @v is not modified, @old is updated to the current value of @v,
1313:/mnt/c/Users/31740/Desktop/newcore/include/linux/atomic/atomic-instrumented.h ****  * and relaxed ordering is provided.
1314:/mnt/c/Users/31740/Desktop/newcore/include/linux/atomic/atomic-instrumented.h ****  *
1315:/mnt/c/Users/31740/Desktop/newcore/include/linux/atomic/atomic-instrumented.h ****  * Unsafe to use in noinstr code; use raw_atomic_try_cmpxchg_release() there.
1316:/mnt/c/Users/31740/Desktop/newcore/include/linux/atomic/atomic-instrumented.h ****  *
1317:/mnt/c/Users/31740/Desktop/newcore/include/linux/atomic/atomic-instrumented.h ****  * Return: @true if the exchange occured, @false otherwise.
1318:/mnt/c/Users/31740/Desktop/newcore/include/linux/atomic/atomic-instrumented.h ****  */
1319:/mnt/c/Users/31740/Desktop/newcore/include/linux/atomic/atomic-instrumented.h **** static __always_inline bool
1320:/mnt/c/Users/31740/Desktop/newcore/include/linux/atomic/atomic-instrumented.h **** atomic_try_cmpxchg_release(atomic_t *v, int *old, int new)
1321:/mnt/c/Users/31740/Desktop/newcore/include/linux/atomic/atomic-instrumented.h **** {
ARM GAS  /tmp/ccyCLDig.s 			page 89


1322:/mnt/c/Users/31740/Desktop/newcore/include/linux/atomic/atomic-instrumented.h **** 	kcsan_release();
1323:/mnt/c/Users/31740/Desktop/newcore/include/linux/atomic/atomic-instrumented.h **** 	instrument_atomic_read_write(v, sizeof(*v));
1324:/mnt/c/Users/31740/Desktop/newcore/include/linux/atomic/atomic-instrumented.h **** 	instrument_atomic_read_write(old, sizeof(*old));
1325:/mnt/c/Users/31740/Desktop/newcore/include/linux/atomic/atomic-instrumented.h **** 	return raw_atomic_try_cmpxchg_release(v, old, new);
1326:/mnt/c/Users/31740/Desktop/newcore/include/linux/atomic/atomic-instrumented.h **** }
1327:/mnt/c/Users/31740/Desktop/newcore/include/linux/atomic/atomic-instrumented.h **** 
1328:/mnt/c/Users/31740/Desktop/newcore/include/linux/atomic/atomic-instrumented.h **** /**
1329:/mnt/c/Users/31740/Desktop/newcore/include/linux/atomic/atomic-instrumented.h ****  * atomic_try_cmpxchg_relaxed() - atomic compare and exchange with relaxed ordering
1330:/mnt/c/Users/31740/Desktop/newcore/include/linux/atomic/atomic-instrumented.h ****  * @v: pointer to atomic_t
1331:/mnt/c/Users/31740/Desktop/newcore/include/linux/atomic/atomic-instrumented.h ****  * @old: pointer to int value to compare with
1332:/mnt/c/Users/31740/Desktop/newcore/include/linux/atomic/atomic-instrumented.h ****  * @new: int value to assign
1333:/mnt/c/Users/31740/Desktop/newcore/include/linux/atomic/atomic-instrumented.h ****  *
1334:/mnt/c/Users/31740/Desktop/newcore/include/linux/atomic/atomic-instrumented.h ****  * If (@v == @old), atomically updates @v to @new with relaxed ordering.
1335:/mnt/c/Users/31740/Desktop/newcore/include/linux/atomic/atomic-instrumented.h ****  * Otherwise, @v is not modified, @old is updated to the current value of @v,
1336:/mnt/c/Users/31740/Desktop/newcore/include/linux/atomic/atomic-instrumented.h ****  * and relaxed ordering is provided.
1337:/mnt/c/Users/31740/Desktop/newcore/include/linux/atomic/atomic-instrumented.h ****  *
1338:/mnt/c/Users/31740/Desktop/newcore/include/linux/atomic/atomic-instrumented.h ****  * Unsafe to use in noinstr code; use raw_atomic_try_cmpxchg_relaxed() there.
1339:/mnt/c/Users/31740/Desktop/newcore/include/linux/atomic/atomic-instrumented.h ****  *
1340:/mnt/c/Users/31740/Desktop/newcore/include/linux/atomic/atomic-instrumented.h ****  * Return: @true if the exchange occured, @false otherwise.
1341:/mnt/c/Users/31740/Desktop/newcore/include/linux/atomic/atomic-instrumented.h ****  */
1342:/mnt/c/Users/31740/Desktop/newcore/include/linux/atomic/atomic-instrumented.h **** static __always_inline bool
1343:/mnt/c/Users/31740/Desktop/newcore/include/linux/atomic/atomic-instrumented.h **** atomic_try_cmpxchg_relaxed(atomic_t *v, int *old, int new)
1344:/mnt/c/Users/31740/Desktop/newcore/include/linux/atomic/atomic-instrumented.h **** {
1345:/mnt/c/Users/31740/Desktop/newcore/include/linux/atomic/atomic-instrumented.h **** 	instrument_atomic_read_write(v, sizeof(*v));
1346:/mnt/c/Users/31740/Desktop/newcore/include/linux/atomic/atomic-instrumented.h **** 	instrument_atomic_read_write(old, sizeof(*old));
1347:/mnt/c/Users/31740/Desktop/newcore/include/linux/atomic/atomic-instrumented.h **** 	return raw_atomic_try_cmpxchg_relaxed(v, old, new);
1348:/mnt/c/Users/31740/Desktop/newcore/include/linux/atomic/atomic-instrumented.h **** }
1349:/mnt/c/Users/31740/Desktop/newcore/include/linux/atomic/atomic-instrumented.h **** 
1350:/mnt/c/Users/31740/Desktop/newcore/include/linux/atomic/atomic-instrumented.h **** /**
1351:/mnt/c/Users/31740/Desktop/newcore/include/linux/atomic/atomic-instrumented.h ****  * atomic_sub_and_test() - atomic subtract and test if zero with full ordering
1352:/mnt/c/Users/31740/Desktop/newcore/include/linux/atomic/atomic-instrumented.h ****  * @i: int value to subtract
1353:/mnt/c/Users/31740/Desktop/newcore/include/linux/atomic/atomic-instrumented.h ****  * @v: pointer to atomic_t
1354:/mnt/c/Users/31740/Desktop/newcore/include/linux/atomic/atomic-instrumented.h ****  *
1355:/mnt/c/Users/31740/Desktop/newcore/include/linux/atomic/atomic-instrumented.h ****  * Atomically updates @v to (@v - @i) with full ordering.
1356:/mnt/c/Users/31740/Desktop/newcore/include/linux/atomic/atomic-instrumented.h ****  *
1357:/mnt/c/Users/31740/Desktop/newcore/include/linux/atomic/atomic-instrumented.h ****  * Unsafe to use in noinstr code; use raw_atomic_sub_and_test() there.
1358:/mnt/c/Users/31740/Desktop/newcore/include/linux/atomic/atomic-instrumented.h ****  *
1359:/mnt/c/Users/31740/Desktop/newcore/include/linux/atomic/atomic-instrumented.h ****  * Return: @true if the resulting value of @v is zero, @false otherwise.
1360:/mnt/c/Users/31740/Desktop/newcore/include/linux/atomic/atomic-instrumented.h ****  */
1361:/mnt/c/Users/31740/Desktop/newcore/include/linux/atomic/atomic-instrumented.h **** static __always_inline bool
1362:/mnt/c/Users/31740/Desktop/newcore/include/linux/atomic/atomic-instrumented.h **** atomic_sub_and_test(int i, atomic_t *v)
1363:/mnt/c/Users/31740/Desktop/newcore/include/linux/atomic/atomic-instrumented.h **** {
1364:/mnt/c/Users/31740/Desktop/newcore/include/linux/atomic/atomic-instrumented.h **** 	kcsan_mb();
1365:/mnt/c/Users/31740/Desktop/newcore/include/linux/atomic/atomic-instrumented.h **** 	instrument_atomic_read_write(v, sizeof(*v));
1366:/mnt/c/Users/31740/Desktop/newcore/include/linux/atomic/atomic-instrumented.h **** 	return raw_atomic_sub_and_test(i, v);
1367:/mnt/c/Users/31740/Desktop/newcore/include/linux/atomic/atomic-instrumented.h **** }
1368:/mnt/c/Users/31740/Desktop/newcore/include/linux/atomic/atomic-instrumented.h **** 
1369:/mnt/c/Users/31740/Desktop/newcore/include/linux/atomic/atomic-instrumented.h **** /**
1370:/mnt/c/Users/31740/Desktop/newcore/include/linux/atomic/atomic-instrumented.h ****  * atomic_dec_and_test() - atomic decrement and test if zero with full ordering
1371:/mnt/c/Users/31740/Desktop/newcore/include/linux/atomic/atomic-instrumented.h ****  * @v: pointer to atomic_t
1372:/mnt/c/Users/31740/Desktop/newcore/include/linux/atomic/atomic-instrumented.h ****  *
1373:/mnt/c/Users/31740/Desktop/newcore/include/linux/atomic/atomic-instrumented.h ****  * Atomically updates @v to (@v - 1) with full ordering.
1374:/mnt/c/Users/31740/Desktop/newcore/include/linux/atomic/atomic-instrumented.h ****  *
1375:/mnt/c/Users/31740/Desktop/newcore/include/linux/atomic/atomic-instrumented.h ****  * Unsafe to use in noinstr code; use raw_atomic_dec_and_test() there.
1376:/mnt/c/Users/31740/Desktop/newcore/include/linux/atomic/atomic-instrumented.h ****  *
1377:/mnt/c/Users/31740/Desktop/newcore/include/linux/atomic/atomic-instrumented.h ****  * Return: @true if the resulting value of @v is zero, @false otherwise.
1378:/mnt/c/Users/31740/Desktop/newcore/include/linux/atomic/atomic-instrumented.h ****  */
ARM GAS  /tmp/ccyCLDig.s 			page 90


1379:/mnt/c/Users/31740/Desktop/newcore/include/linux/atomic/atomic-instrumented.h **** static __always_inline bool
1380:/mnt/c/Users/31740/Desktop/newcore/include/linux/atomic/atomic-instrumented.h **** atomic_dec_and_test(atomic_t *v)
 1529              		.loc 7 1380 1 is_stmt 1 view .LVU380
1381:/mnt/c/Users/31740/Desktop/newcore/include/linux/atomic/atomic-instrumented.h **** {
1382:/mnt/c/Users/31740/Desktop/newcore/include/linux/atomic/atomic-instrumented.h **** 	kcsan_mb();
 1530              		.loc 7 1382 2 view .LVU381
 1531              		.loc 7 1382 2 view .LVU382
 1532              		.loc 7 1382 2 view .LVU383
1383:/mnt/c/Users/31740/Desktop/newcore/include/linux/atomic/atomic-instrumented.h **** 	instrument_atomic_read_write(v, sizeof(*v));
 1533              		.loc 7 1383 2 view .LVU384
1384:/mnt/c/Users/31740/Desktop/newcore/include/linux/atomic/atomic-instrumented.h **** 	return raw_atomic_dec_and_test(v);
 1534              		.loc 7 1384 2 view .LVU385
 1535              	.LBB118:
 1536              	.LBI118:
 1537              		.file 8 "/mnt/c/Users/31740/Desktop/newcore/include/linux/atomic/atomic-arch-fallback.h"
   1:/mnt/c/Users/31740/Desktop/newcore/include/linux/atomic/atomic-arch-fallback.h **** // SPDX-License-Identifier: GPL-2.0
   2:/mnt/c/Users/31740/Desktop/newcore/include/linux/atomic/atomic-arch-fallback.h **** 
   3:/mnt/c/Users/31740/Desktop/newcore/include/linux/atomic/atomic-arch-fallback.h **** // Generated by scripts/atomic/gen-atomic-fallback.sh
   4:/mnt/c/Users/31740/Desktop/newcore/include/linux/atomic/atomic-arch-fallback.h **** // DO NOT MODIFY THIS FILE DIRECTLY
   5:/mnt/c/Users/31740/Desktop/newcore/include/linux/atomic/atomic-arch-fallback.h **** 
   6:/mnt/c/Users/31740/Desktop/newcore/include/linux/atomic/atomic-arch-fallback.h **** #ifndef _LINUX_ATOMIC_FALLBACK_H
   7:/mnt/c/Users/31740/Desktop/newcore/include/linux/atomic/atomic-arch-fallback.h **** #define _LINUX_ATOMIC_FALLBACK_H
   8:/mnt/c/Users/31740/Desktop/newcore/include/linux/atomic/atomic-arch-fallback.h **** 
   9:/mnt/c/Users/31740/Desktop/newcore/include/linux/atomic/atomic-arch-fallback.h **** #include <linux/compiler.h>
  10:/mnt/c/Users/31740/Desktop/newcore/include/linux/atomic/atomic-arch-fallback.h **** 
  11:/mnt/c/Users/31740/Desktop/newcore/include/linux/atomic/atomic-arch-fallback.h **** #if defined(arch_xchg)
  12:/mnt/c/Users/31740/Desktop/newcore/include/linux/atomic/atomic-arch-fallback.h **** #define raw_xchg arch_xchg
  13:/mnt/c/Users/31740/Desktop/newcore/include/linux/atomic/atomic-arch-fallback.h **** #elif defined(arch_xchg_relaxed)
  14:/mnt/c/Users/31740/Desktop/newcore/include/linux/atomic/atomic-arch-fallback.h **** #define raw_xchg(...) \
  15:/mnt/c/Users/31740/Desktop/newcore/include/linux/atomic/atomic-arch-fallback.h **** 	__atomic_op_fence(arch_xchg, __VA_ARGS__)
  16:/mnt/c/Users/31740/Desktop/newcore/include/linux/atomic/atomic-arch-fallback.h **** #else
  17:/mnt/c/Users/31740/Desktop/newcore/include/linux/atomic/atomic-arch-fallback.h **** extern void raw_xchg_not_implemented(void);
  18:/mnt/c/Users/31740/Desktop/newcore/include/linux/atomic/atomic-arch-fallback.h **** #define raw_xchg(...) raw_xchg_not_implemented()
  19:/mnt/c/Users/31740/Desktop/newcore/include/linux/atomic/atomic-arch-fallback.h **** #endif
  20:/mnt/c/Users/31740/Desktop/newcore/include/linux/atomic/atomic-arch-fallback.h **** 
  21:/mnt/c/Users/31740/Desktop/newcore/include/linux/atomic/atomic-arch-fallback.h **** #if defined(arch_xchg_acquire)
  22:/mnt/c/Users/31740/Desktop/newcore/include/linux/atomic/atomic-arch-fallback.h **** #define raw_xchg_acquire arch_xchg_acquire
  23:/mnt/c/Users/31740/Desktop/newcore/include/linux/atomic/atomic-arch-fallback.h **** #elif defined(arch_xchg_relaxed)
  24:/mnt/c/Users/31740/Desktop/newcore/include/linux/atomic/atomic-arch-fallback.h **** #define raw_xchg_acquire(...) \
  25:/mnt/c/Users/31740/Desktop/newcore/include/linux/atomic/atomic-arch-fallback.h **** 	__atomic_op_acquire(arch_xchg, __VA_ARGS__)
  26:/mnt/c/Users/31740/Desktop/newcore/include/linux/atomic/atomic-arch-fallback.h **** #elif defined(arch_xchg)
  27:/mnt/c/Users/31740/Desktop/newcore/include/linux/atomic/atomic-arch-fallback.h **** #define raw_xchg_acquire arch_xchg
  28:/mnt/c/Users/31740/Desktop/newcore/include/linux/atomic/atomic-arch-fallback.h **** #else
  29:/mnt/c/Users/31740/Desktop/newcore/include/linux/atomic/atomic-arch-fallback.h **** extern void raw_xchg_acquire_not_implemented(void);
  30:/mnt/c/Users/31740/Desktop/newcore/include/linux/atomic/atomic-arch-fallback.h **** #define raw_xchg_acquire(...) raw_xchg_acquire_not_implemented()
  31:/mnt/c/Users/31740/Desktop/newcore/include/linux/atomic/atomic-arch-fallback.h **** #endif
  32:/mnt/c/Users/31740/Desktop/newcore/include/linux/atomic/atomic-arch-fallback.h **** 
  33:/mnt/c/Users/31740/Desktop/newcore/include/linux/atomic/atomic-arch-fallback.h **** #if defined(arch_xchg_release)
  34:/mnt/c/Users/31740/Desktop/newcore/include/linux/atomic/atomic-arch-fallback.h **** #define raw_xchg_release arch_xchg_release
  35:/mnt/c/Users/31740/Desktop/newcore/include/linux/atomic/atomic-arch-fallback.h **** #elif defined(arch_xchg_relaxed)
  36:/mnt/c/Users/31740/Desktop/newcore/include/linux/atomic/atomic-arch-fallback.h **** #define raw_xchg_release(...) \
  37:/mnt/c/Users/31740/Desktop/newcore/include/linux/atomic/atomic-arch-fallback.h **** 	__atomic_op_release(arch_xchg, __VA_ARGS__)
  38:/mnt/c/Users/31740/Desktop/newcore/include/linux/atomic/atomic-arch-fallback.h **** #elif defined(arch_xchg)
  39:/mnt/c/Users/31740/Desktop/newcore/include/linux/atomic/atomic-arch-fallback.h **** #define raw_xchg_release arch_xchg
  40:/mnt/c/Users/31740/Desktop/newcore/include/linux/atomic/atomic-arch-fallback.h **** #else
  41:/mnt/c/Users/31740/Desktop/newcore/include/linux/atomic/atomic-arch-fallback.h **** extern void raw_xchg_release_not_implemented(void);
  42:/mnt/c/Users/31740/Desktop/newcore/include/linux/atomic/atomic-arch-fallback.h **** #define raw_xchg_release(...) raw_xchg_release_not_implemented()
ARM GAS  /tmp/ccyCLDig.s 			page 91


  43:/mnt/c/Users/31740/Desktop/newcore/include/linux/atomic/atomic-arch-fallback.h **** #endif
  44:/mnt/c/Users/31740/Desktop/newcore/include/linux/atomic/atomic-arch-fallback.h **** 
  45:/mnt/c/Users/31740/Desktop/newcore/include/linux/atomic/atomic-arch-fallback.h **** #if defined(arch_xchg_relaxed)
  46:/mnt/c/Users/31740/Desktop/newcore/include/linux/atomic/atomic-arch-fallback.h **** #define raw_xchg_relaxed arch_xchg_relaxed
  47:/mnt/c/Users/31740/Desktop/newcore/include/linux/atomic/atomic-arch-fallback.h **** #elif defined(arch_xchg)
  48:/mnt/c/Users/31740/Desktop/newcore/include/linux/atomic/atomic-arch-fallback.h **** #define raw_xchg_relaxed arch_xchg
  49:/mnt/c/Users/31740/Desktop/newcore/include/linux/atomic/atomic-arch-fallback.h **** #else
  50:/mnt/c/Users/31740/Desktop/newcore/include/linux/atomic/atomic-arch-fallback.h **** extern void raw_xchg_relaxed_not_implemented(void);
  51:/mnt/c/Users/31740/Desktop/newcore/include/linux/atomic/atomic-arch-fallback.h **** #define raw_xchg_relaxed(...) raw_xchg_relaxed_not_implemented()
  52:/mnt/c/Users/31740/Desktop/newcore/include/linux/atomic/atomic-arch-fallback.h **** #endif
  53:/mnt/c/Users/31740/Desktop/newcore/include/linux/atomic/atomic-arch-fallback.h **** 
  54:/mnt/c/Users/31740/Desktop/newcore/include/linux/atomic/atomic-arch-fallback.h **** #if defined(arch_cmpxchg)
  55:/mnt/c/Users/31740/Desktop/newcore/include/linux/atomic/atomic-arch-fallback.h **** #define raw_cmpxchg arch_cmpxchg
  56:/mnt/c/Users/31740/Desktop/newcore/include/linux/atomic/atomic-arch-fallback.h **** #elif defined(arch_cmpxchg_relaxed)
  57:/mnt/c/Users/31740/Desktop/newcore/include/linux/atomic/atomic-arch-fallback.h **** #define raw_cmpxchg(...) \
  58:/mnt/c/Users/31740/Desktop/newcore/include/linux/atomic/atomic-arch-fallback.h **** 	__atomic_op_fence(arch_cmpxchg, __VA_ARGS__)
  59:/mnt/c/Users/31740/Desktop/newcore/include/linux/atomic/atomic-arch-fallback.h **** #else
  60:/mnt/c/Users/31740/Desktop/newcore/include/linux/atomic/atomic-arch-fallback.h **** extern void raw_cmpxchg_not_implemented(void);
  61:/mnt/c/Users/31740/Desktop/newcore/include/linux/atomic/atomic-arch-fallback.h **** #define raw_cmpxchg(...) raw_cmpxchg_not_implemented()
  62:/mnt/c/Users/31740/Desktop/newcore/include/linux/atomic/atomic-arch-fallback.h **** #endif
  63:/mnt/c/Users/31740/Desktop/newcore/include/linux/atomic/atomic-arch-fallback.h **** 
  64:/mnt/c/Users/31740/Desktop/newcore/include/linux/atomic/atomic-arch-fallback.h **** #if defined(arch_cmpxchg_acquire)
  65:/mnt/c/Users/31740/Desktop/newcore/include/linux/atomic/atomic-arch-fallback.h **** #define raw_cmpxchg_acquire arch_cmpxchg_acquire
  66:/mnt/c/Users/31740/Desktop/newcore/include/linux/atomic/atomic-arch-fallback.h **** #elif defined(arch_cmpxchg_relaxed)
  67:/mnt/c/Users/31740/Desktop/newcore/include/linux/atomic/atomic-arch-fallback.h **** #define raw_cmpxchg_acquire(...) \
  68:/mnt/c/Users/31740/Desktop/newcore/include/linux/atomic/atomic-arch-fallback.h **** 	__atomic_op_acquire(arch_cmpxchg, __VA_ARGS__)
  69:/mnt/c/Users/31740/Desktop/newcore/include/linux/atomic/atomic-arch-fallback.h **** #elif defined(arch_cmpxchg)
  70:/mnt/c/Users/31740/Desktop/newcore/include/linux/atomic/atomic-arch-fallback.h **** #define raw_cmpxchg_acquire arch_cmpxchg
  71:/mnt/c/Users/31740/Desktop/newcore/include/linux/atomic/atomic-arch-fallback.h **** #else
  72:/mnt/c/Users/31740/Desktop/newcore/include/linux/atomic/atomic-arch-fallback.h **** extern void raw_cmpxchg_acquire_not_implemented(void);
  73:/mnt/c/Users/31740/Desktop/newcore/include/linux/atomic/atomic-arch-fallback.h **** #define raw_cmpxchg_acquire(...) raw_cmpxchg_acquire_not_implemented()
  74:/mnt/c/Users/31740/Desktop/newcore/include/linux/atomic/atomic-arch-fallback.h **** #endif
  75:/mnt/c/Users/31740/Desktop/newcore/include/linux/atomic/atomic-arch-fallback.h **** 
  76:/mnt/c/Users/31740/Desktop/newcore/include/linux/atomic/atomic-arch-fallback.h **** #if defined(arch_cmpxchg_release)
  77:/mnt/c/Users/31740/Desktop/newcore/include/linux/atomic/atomic-arch-fallback.h **** #define raw_cmpxchg_release arch_cmpxchg_release
  78:/mnt/c/Users/31740/Desktop/newcore/include/linux/atomic/atomic-arch-fallback.h **** #elif defined(arch_cmpxchg_relaxed)
  79:/mnt/c/Users/31740/Desktop/newcore/include/linux/atomic/atomic-arch-fallback.h **** #define raw_cmpxchg_release(...) \
  80:/mnt/c/Users/31740/Desktop/newcore/include/linux/atomic/atomic-arch-fallback.h **** 	__atomic_op_release(arch_cmpxchg, __VA_ARGS__)
  81:/mnt/c/Users/31740/Desktop/newcore/include/linux/atomic/atomic-arch-fallback.h **** #elif defined(arch_cmpxchg)
  82:/mnt/c/Users/31740/Desktop/newcore/include/linux/atomic/atomic-arch-fallback.h **** #define raw_cmpxchg_release arch_cmpxchg
  83:/mnt/c/Users/31740/Desktop/newcore/include/linux/atomic/atomic-arch-fallback.h **** #else
  84:/mnt/c/Users/31740/Desktop/newcore/include/linux/atomic/atomic-arch-fallback.h **** extern void raw_cmpxchg_release_not_implemented(void);
  85:/mnt/c/Users/31740/Desktop/newcore/include/linux/atomic/atomic-arch-fallback.h **** #define raw_cmpxchg_release(...) raw_cmpxchg_release_not_implemented()
  86:/mnt/c/Users/31740/Desktop/newcore/include/linux/atomic/atomic-arch-fallback.h **** #endif
  87:/mnt/c/Users/31740/Desktop/newcore/include/linux/atomic/atomic-arch-fallback.h **** 
  88:/mnt/c/Users/31740/Desktop/newcore/include/linux/atomic/atomic-arch-fallback.h **** #if defined(arch_cmpxchg_relaxed)
  89:/mnt/c/Users/31740/Desktop/newcore/include/linux/atomic/atomic-arch-fallback.h **** #define raw_cmpxchg_relaxed arch_cmpxchg_relaxed
  90:/mnt/c/Users/31740/Desktop/newcore/include/linux/atomic/atomic-arch-fallback.h **** #elif defined(arch_cmpxchg)
  91:/mnt/c/Users/31740/Desktop/newcore/include/linux/atomic/atomic-arch-fallback.h **** #define raw_cmpxchg_relaxed arch_cmpxchg
  92:/mnt/c/Users/31740/Desktop/newcore/include/linux/atomic/atomic-arch-fallback.h **** #else
  93:/mnt/c/Users/31740/Desktop/newcore/include/linux/atomic/atomic-arch-fallback.h **** extern void raw_cmpxchg_relaxed_not_implemented(void);
  94:/mnt/c/Users/31740/Desktop/newcore/include/linux/atomic/atomic-arch-fallback.h **** #define raw_cmpxchg_relaxed(...) raw_cmpxchg_relaxed_not_implemented()
  95:/mnt/c/Users/31740/Desktop/newcore/include/linux/atomic/atomic-arch-fallback.h **** #endif
  96:/mnt/c/Users/31740/Desktop/newcore/include/linux/atomic/atomic-arch-fallback.h **** 
  97:/mnt/c/Users/31740/Desktop/newcore/include/linux/atomic/atomic-arch-fallback.h **** #if defined(arch_cmpxchg64)
  98:/mnt/c/Users/31740/Desktop/newcore/include/linux/atomic/atomic-arch-fallback.h **** #define raw_cmpxchg64 arch_cmpxchg64
  99:/mnt/c/Users/31740/Desktop/newcore/include/linux/atomic/atomic-arch-fallback.h **** #elif defined(arch_cmpxchg64_relaxed)
ARM GAS  /tmp/ccyCLDig.s 			page 92


 100:/mnt/c/Users/31740/Desktop/newcore/include/linux/atomic/atomic-arch-fallback.h **** #define raw_cmpxchg64(...) \
 101:/mnt/c/Users/31740/Desktop/newcore/include/linux/atomic/atomic-arch-fallback.h **** 	__atomic_op_fence(arch_cmpxchg64, __VA_ARGS__)
 102:/mnt/c/Users/31740/Desktop/newcore/include/linux/atomic/atomic-arch-fallback.h **** #else
 103:/mnt/c/Users/31740/Desktop/newcore/include/linux/atomic/atomic-arch-fallback.h **** extern void raw_cmpxchg64_not_implemented(void);
 104:/mnt/c/Users/31740/Desktop/newcore/include/linux/atomic/atomic-arch-fallback.h **** #define raw_cmpxchg64(...) raw_cmpxchg64_not_implemented()
 105:/mnt/c/Users/31740/Desktop/newcore/include/linux/atomic/atomic-arch-fallback.h **** #endif
 106:/mnt/c/Users/31740/Desktop/newcore/include/linux/atomic/atomic-arch-fallback.h **** 
 107:/mnt/c/Users/31740/Desktop/newcore/include/linux/atomic/atomic-arch-fallback.h **** #if defined(arch_cmpxchg64_acquire)
 108:/mnt/c/Users/31740/Desktop/newcore/include/linux/atomic/atomic-arch-fallback.h **** #define raw_cmpxchg64_acquire arch_cmpxchg64_acquire
 109:/mnt/c/Users/31740/Desktop/newcore/include/linux/atomic/atomic-arch-fallback.h **** #elif defined(arch_cmpxchg64_relaxed)
 110:/mnt/c/Users/31740/Desktop/newcore/include/linux/atomic/atomic-arch-fallback.h **** #define raw_cmpxchg64_acquire(...) \
 111:/mnt/c/Users/31740/Desktop/newcore/include/linux/atomic/atomic-arch-fallback.h **** 	__atomic_op_acquire(arch_cmpxchg64, __VA_ARGS__)
 112:/mnt/c/Users/31740/Desktop/newcore/include/linux/atomic/atomic-arch-fallback.h **** #elif defined(arch_cmpxchg64)
 113:/mnt/c/Users/31740/Desktop/newcore/include/linux/atomic/atomic-arch-fallback.h **** #define raw_cmpxchg64_acquire arch_cmpxchg64
 114:/mnt/c/Users/31740/Desktop/newcore/include/linux/atomic/atomic-arch-fallback.h **** #else
 115:/mnt/c/Users/31740/Desktop/newcore/include/linux/atomic/atomic-arch-fallback.h **** extern void raw_cmpxchg64_acquire_not_implemented(void);
 116:/mnt/c/Users/31740/Desktop/newcore/include/linux/atomic/atomic-arch-fallback.h **** #define raw_cmpxchg64_acquire(...) raw_cmpxchg64_acquire_not_implemented()
 117:/mnt/c/Users/31740/Desktop/newcore/include/linux/atomic/atomic-arch-fallback.h **** #endif
 118:/mnt/c/Users/31740/Desktop/newcore/include/linux/atomic/atomic-arch-fallback.h **** 
 119:/mnt/c/Users/31740/Desktop/newcore/include/linux/atomic/atomic-arch-fallback.h **** #if defined(arch_cmpxchg64_release)
 120:/mnt/c/Users/31740/Desktop/newcore/include/linux/atomic/atomic-arch-fallback.h **** #define raw_cmpxchg64_release arch_cmpxchg64_release
 121:/mnt/c/Users/31740/Desktop/newcore/include/linux/atomic/atomic-arch-fallback.h **** #elif defined(arch_cmpxchg64_relaxed)
 122:/mnt/c/Users/31740/Desktop/newcore/include/linux/atomic/atomic-arch-fallback.h **** #define raw_cmpxchg64_release(...) \
 123:/mnt/c/Users/31740/Desktop/newcore/include/linux/atomic/atomic-arch-fallback.h **** 	__atomic_op_release(arch_cmpxchg64, __VA_ARGS__)
 124:/mnt/c/Users/31740/Desktop/newcore/include/linux/atomic/atomic-arch-fallback.h **** #elif defined(arch_cmpxchg64)
 125:/mnt/c/Users/31740/Desktop/newcore/include/linux/atomic/atomic-arch-fallback.h **** #define raw_cmpxchg64_release arch_cmpxchg64
 126:/mnt/c/Users/31740/Desktop/newcore/include/linux/atomic/atomic-arch-fallback.h **** #else
 127:/mnt/c/Users/31740/Desktop/newcore/include/linux/atomic/atomic-arch-fallback.h **** extern void raw_cmpxchg64_release_not_implemented(void);
 128:/mnt/c/Users/31740/Desktop/newcore/include/linux/atomic/atomic-arch-fallback.h **** #define raw_cmpxchg64_release(...) raw_cmpxchg64_release_not_implemented()
 129:/mnt/c/Users/31740/Desktop/newcore/include/linux/atomic/atomic-arch-fallback.h **** #endif
 130:/mnt/c/Users/31740/Desktop/newcore/include/linux/atomic/atomic-arch-fallback.h **** 
 131:/mnt/c/Users/31740/Desktop/newcore/include/linux/atomic/atomic-arch-fallback.h **** #if defined(arch_cmpxchg64_relaxed)
 132:/mnt/c/Users/31740/Desktop/newcore/include/linux/atomic/atomic-arch-fallback.h **** #define raw_cmpxchg64_relaxed arch_cmpxchg64_relaxed
 133:/mnt/c/Users/31740/Desktop/newcore/include/linux/atomic/atomic-arch-fallback.h **** #elif defined(arch_cmpxchg64)
 134:/mnt/c/Users/31740/Desktop/newcore/include/linux/atomic/atomic-arch-fallback.h **** #define raw_cmpxchg64_relaxed arch_cmpxchg64
 135:/mnt/c/Users/31740/Desktop/newcore/include/linux/atomic/atomic-arch-fallback.h **** #else
 136:/mnt/c/Users/31740/Desktop/newcore/include/linux/atomic/atomic-arch-fallback.h **** extern void raw_cmpxchg64_relaxed_not_implemented(void);
 137:/mnt/c/Users/31740/Desktop/newcore/include/linux/atomic/atomic-arch-fallback.h **** #define raw_cmpxchg64_relaxed(...) raw_cmpxchg64_relaxed_not_implemented()
 138:/mnt/c/Users/31740/Desktop/newcore/include/linux/atomic/atomic-arch-fallback.h **** #endif
 139:/mnt/c/Users/31740/Desktop/newcore/include/linux/atomic/atomic-arch-fallback.h **** 
 140:/mnt/c/Users/31740/Desktop/newcore/include/linux/atomic/atomic-arch-fallback.h **** #if defined(arch_cmpxchg128)
 141:/mnt/c/Users/31740/Desktop/newcore/include/linux/atomic/atomic-arch-fallback.h **** #define raw_cmpxchg128 arch_cmpxchg128
 142:/mnt/c/Users/31740/Desktop/newcore/include/linux/atomic/atomic-arch-fallback.h **** #elif defined(arch_cmpxchg128_relaxed)
 143:/mnt/c/Users/31740/Desktop/newcore/include/linux/atomic/atomic-arch-fallback.h **** #define raw_cmpxchg128(...) \
 144:/mnt/c/Users/31740/Desktop/newcore/include/linux/atomic/atomic-arch-fallback.h **** 	__atomic_op_fence(arch_cmpxchg128, __VA_ARGS__)
 145:/mnt/c/Users/31740/Desktop/newcore/include/linux/atomic/atomic-arch-fallback.h **** #else
 146:/mnt/c/Users/31740/Desktop/newcore/include/linux/atomic/atomic-arch-fallback.h **** extern void raw_cmpxchg128_not_implemented(void);
 147:/mnt/c/Users/31740/Desktop/newcore/include/linux/atomic/atomic-arch-fallback.h **** #define raw_cmpxchg128(...) raw_cmpxchg128_not_implemented()
 148:/mnt/c/Users/31740/Desktop/newcore/include/linux/atomic/atomic-arch-fallback.h **** #endif
 149:/mnt/c/Users/31740/Desktop/newcore/include/linux/atomic/atomic-arch-fallback.h **** 
 150:/mnt/c/Users/31740/Desktop/newcore/include/linux/atomic/atomic-arch-fallback.h **** #if defined(arch_cmpxchg128_acquire)
 151:/mnt/c/Users/31740/Desktop/newcore/include/linux/atomic/atomic-arch-fallback.h **** #define raw_cmpxchg128_acquire arch_cmpxchg128_acquire
 152:/mnt/c/Users/31740/Desktop/newcore/include/linux/atomic/atomic-arch-fallback.h **** #elif defined(arch_cmpxchg128_relaxed)
 153:/mnt/c/Users/31740/Desktop/newcore/include/linux/atomic/atomic-arch-fallback.h **** #define raw_cmpxchg128_acquire(...) \
 154:/mnt/c/Users/31740/Desktop/newcore/include/linux/atomic/atomic-arch-fallback.h **** 	__atomic_op_acquire(arch_cmpxchg128, __VA_ARGS__)
 155:/mnt/c/Users/31740/Desktop/newcore/include/linux/atomic/atomic-arch-fallback.h **** #elif defined(arch_cmpxchg128)
 156:/mnt/c/Users/31740/Desktop/newcore/include/linux/atomic/atomic-arch-fallback.h **** #define raw_cmpxchg128_acquire arch_cmpxchg128
ARM GAS  /tmp/ccyCLDig.s 			page 93


 157:/mnt/c/Users/31740/Desktop/newcore/include/linux/atomic/atomic-arch-fallback.h **** #else
 158:/mnt/c/Users/31740/Desktop/newcore/include/linux/atomic/atomic-arch-fallback.h **** extern void raw_cmpxchg128_acquire_not_implemented(void);
 159:/mnt/c/Users/31740/Desktop/newcore/include/linux/atomic/atomic-arch-fallback.h **** #define raw_cmpxchg128_acquire(...) raw_cmpxchg128_acquire_not_implemented()
 160:/mnt/c/Users/31740/Desktop/newcore/include/linux/atomic/atomic-arch-fallback.h **** #endif
 161:/mnt/c/Users/31740/Desktop/newcore/include/linux/atomic/atomic-arch-fallback.h **** 
 162:/mnt/c/Users/31740/Desktop/newcore/include/linux/atomic/atomic-arch-fallback.h **** #if defined(arch_cmpxchg128_release)
 163:/mnt/c/Users/31740/Desktop/newcore/include/linux/atomic/atomic-arch-fallback.h **** #define raw_cmpxchg128_release arch_cmpxchg128_release
 164:/mnt/c/Users/31740/Desktop/newcore/include/linux/atomic/atomic-arch-fallback.h **** #elif defined(arch_cmpxchg128_relaxed)
 165:/mnt/c/Users/31740/Desktop/newcore/include/linux/atomic/atomic-arch-fallback.h **** #define raw_cmpxchg128_release(...) \
 166:/mnt/c/Users/31740/Desktop/newcore/include/linux/atomic/atomic-arch-fallback.h **** 	__atomic_op_release(arch_cmpxchg128, __VA_ARGS__)
 167:/mnt/c/Users/31740/Desktop/newcore/include/linux/atomic/atomic-arch-fallback.h **** #elif defined(arch_cmpxchg128)
 168:/mnt/c/Users/31740/Desktop/newcore/include/linux/atomic/atomic-arch-fallback.h **** #define raw_cmpxchg128_release arch_cmpxchg128
 169:/mnt/c/Users/31740/Desktop/newcore/include/linux/atomic/atomic-arch-fallback.h **** #else
 170:/mnt/c/Users/31740/Desktop/newcore/include/linux/atomic/atomic-arch-fallback.h **** extern void raw_cmpxchg128_release_not_implemented(void);
 171:/mnt/c/Users/31740/Desktop/newcore/include/linux/atomic/atomic-arch-fallback.h **** #define raw_cmpxchg128_release(...) raw_cmpxchg128_release_not_implemented()
 172:/mnt/c/Users/31740/Desktop/newcore/include/linux/atomic/atomic-arch-fallback.h **** #endif
 173:/mnt/c/Users/31740/Desktop/newcore/include/linux/atomic/atomic-arch-fallback.h **** 
 174:/mnt/c/Users/31740/Desktop/newcore/include/linux/atomic/atomic-arch-fallback.h **** #if defined(arch_cmpxchg128_relaxed)
 175:/mnt/c/Users/31740/Desktop/newcore/include/linux/atomic/atomic-arch-fallback.h **** #define raw_cmpxchg128_relaxed arch_cmpxchg128_relaxed
 176:/mnt/c/Users/31740/Desktop/newcore/include/linux/atomic/atomic-arch-fallback.h **** #elif defined(arch_cmpxchg128)
 177:/mnt/c/Users/31740/Desktop/newcore/include/linux/atomic/atomic-arch-fallback.h **** #define raw_cmpxchg128_relaxed arch_cmpxchg128
 178:/mnt/c/Users/31740/Desktop/newcore/include/linux/atomic/atomic-arch-fallback.h **** #else
 179:/mnt/c/Users/31740/Desktop/newcore/include/linux/atomic/atomic-arch-fallback.h **** extern void raw_cmpxchg128_relaxed_not_implemented(void);
 180:/mnt/c/Users/31740/Desktop/newcore/include/linux/atomic/atomic-arch-fallback.h **** #define raw_cmpxchg128_relaxed(...) raw_cmpxchg128_relaxed_not_implemented()
 181:/mnt/c/Users/31740/Desktop/newcore/include/linux/atomic/atomic-arch-fallback.h **** #endif
 182:/mnt/c/Users/31740/Desktop/newcore/include/linux/atomic/atomic-arch-fallback.h **** 
 183:/mnt/c/Users/31740/Desktop/newcore/include/linux/atomic/atomic-arch-fallback.h **** 
 184:/mnt/c/Users/31740/Desktop/newcore/include/linux/atomic/atomic-arch-fallback.h **** 
 185:/mnt/c/Users/31740/Desktop/newcore/include/linux/atomic/atomic-arch-fallback.h **** 
 186:/mnt/c/Users/31740/Desktop/newcore/include/linux/atomic/atomic-arch-fallback.h **** 
 187:/mnt/c/Users/31740/Desktop/newcore/include/linux/atomic/atomic-arch-fallback.h **** 
 188:/mnt/c/Users/31740/Desktop/newcore/include/linux/atomic/atomic-arch-fallback.h **** 
 189:/mnt/c/Users/31740/Desktop/newcore/include/linux/atomic/atomic-arch-fallback.h **** #if defined(arch_try_cmpxchg)
 190:/mnt/c/Users/31740/Desktop/newcore/include/linux/atomic/atomic-arch-fallback.h **** #define raw_try_cmpxchg arch_try_cmpxchg
 191:/mnt/c/Users/31740/Desktop/newcore/include/linux/atomic/atomic-arch-fallback.h **** #elif defined(arch_try_cmpxchg_relaxed)
 192:/mnt/c/Users/31740/Desktop/newcore/include/linux/atomic/atomic-arch-fallback.h **** #define raw_try_cmpxchg(...) \
 193:/mnt/c/Users/31740/Desktop/newcore/include/linux/atomic/atomic-arch-fallback.h **** 	__atomic_op_fence(arch_try_cmpxchg, __VA_ARGS__)
 194:/mnt/c/Users/31740/Desktop/newcore/include/linux/atomic/atomic-arch-fallback.h **** #else
 195:/mnt/c/Users/31740/Desktop/newcore/include/linux/atomic/atomic-arch-fallback.h **** #define raw_try_cmpxchg(_ptr, _oldp, _new) \
 196:/mnt/c/Users/31740/Desktop/newcore/include/linux/atomic/atomic-arch-fallback.h **** ({ \
 197:/mnt/c/Users/31740/Desktop/newcore/include/linux/atomic/atomic-arch-fallback.h **** 	typeof(*(_ptr)) *___op = (_oldp), ___o = *___op, ___r; \
 198:/mnt/c/Users/31740/Desktop/newcore/include/linux/atomic/atomic-arch-fallback.h **** 	___r = raw_cmpxchg((_ptr), ___o, (_new)); \
 199:/mnt/c/Users/31740/Desktop/newcore/include/linux/atomic/atomic-arch-fallback.h **** 	if (unlikely(___r != ___o)) \
 200:/mnt/c/Users/31740/Desktop/newcore/include/linux/atomic/atomic-arch-fallback.h **** 		*___op = ___r; \
 201:/mnt/c/Users/31740/Desktop/newcore/include/linux/atomic/atomic-arch-fallback.h **** 	likely(___r == ___o); \
 202:/mnt/c/Users/31740/Desktop/newcore/include/linux/atomic/atomic-arch-fallback.h **** })
 203:/mnt/c/Users/31740/Desktop/newcore/include/linux/atomic/atomic-arch-fallback.h **** #endif
 204:/mnt/c/Users/31740/Desktop/newcore/include/linux/atomic/atomic-arch-fallback.h **** 
 205:/mnt/c/Users/31740/Desktop/newcore/include/linux/atomic/atomic-arch-fallback.h **** #if defined(arch_try_cmpxchg_acquire)
 206:/mnt/c/Users/31740/Desktop/newcore/include/linux/atomic/atomic-arch-fallback.h **** #define raw_try_cmpxchg_acquire arch_try_cmpxchg_acquire
 207:/mnt/c/Users/31740/Desktop/newcore/include/linux/atomic/atomic-arch-fallback.h **** #elif defined(arch_try_cmpxchg_relaxed)
 208:/mnt/c/Users/31740/Desktop/newcore/include/linux/atomic/atomic-arch-fallback.h **** #define raw_try_cmpxchg_acquire(...) \
 209:/mnt/c/Users/31740/Desktop/newcore/include/linux/atomic/atomic-arch-fallback.h **** 	__atomic_op_acquire(arch_try_cmpxchg, __VA_ARGS__)
 210:/mnt/c/Users/31740/Desktop/newcore/include/linux/atomic/atomic-arch-fallback.h **** #elif defined(arch_try_cmpxchg)
 211:/mnt/c/Users/31740/Desktop/newcore/include/linux/atomic/atomic-arch-fallback.h **** #define raw_try_cmpxchg_acquire arch_try_cmpxchg
 212:/mnt/c/Users/31740/Desktop/newcore/include/linux/atomic/atomic-arch-fallback.h **** #else
 213:/mnt/c/Users/31740/Desktop/newcore/include/linux/atomic/atomic-arch-fallback.h **** #define raw_try_cmpxchg_acquire(_ptr, _oldp, _new) \
ARM GAS  /tmp/ccyCLDig.s 			page 94


 214:/mnt/c/Users/31740/Desktop/newcore/include/linux/atomic/atomic-arch-fallback.h **** ({ \
 215:/mnt/c/Users/31740/Desktop/newcore/include/linux/atomic/atomic-arch-fallback.h **** 	typeof(*(_ptr)) *___op = (_oldp), ___o = *___op, ___r; \
 216:/mnt/c/Users/31740/Desktop/newcore/include/linux/atomic/atomic-arch-fallback.h **** 	___r = raw_cmpxchg_acquire((_ptr), ___o, (_new)); \
 217:/mnt/c/Users/31740/Desktop/newcore/include/linux/atomic/atomic-arch-fallback.h **** 	if (unlikely(___r != ___o)) \
 218:/mnt/c/Users/31740/Desktop/newcore/include/linux/atomic/atomic-arch-fallback.h **** 		*___op = ___r; \
 219:/mnt/c/Users/31740/Desktop/newcore/include/linux/atomic/atomic-arch-fallback.h **** 	likely(___r == ___o); \
 220:/mnt/c/Users/31740/Desktop/newcore/include/linux/atomic/atomic-arch-fallback.h **** })
 221:/mnt/c/Users/31740/Desktop/newcore/include/linux/atomic/atomic-arch-fallback.h **** #endif
 222:/mnt/c/Users/31740/Desktop/newcore/include/linux/atomic/atomic-arch-fallback.h **** 
 223:/mnt/c/Users/31740/Desktop/newcore/include/linux/atomic/atomic-arch-fallback.h **** #if defined(arch_try_cmpxchg_release)
 224:/mnt/c/Users/31740/Desktop/newcore/include/linux/atomic/atomic-arch-fallback.h **** #define raw_try_cmpxchg_release arch_try_cmpxchg_release
 225:/mnt/c/Users/31740/Desktop/newcore/include/linux/atomic/atomic-arch-fallback.h **** #elif defined(arch_try_cmpxchg_relaxed)
 226:/mnt/c/Users/31740/Desktop/newcore/include/linux/atomic/atomic-arch-fallback.h **** #define raw_try_cmpxchg_release(...) \
 227:/mnt/c/Users/31740/Desktop/newcore/include/linux/atomic/atomic-arch-fallback.h **** 	__atomic_op_release(arch_try_cmpxchg, __VA_ARGS__)
 228:/mnt/c/Users/31740/Desktop/newcore/include/linux/atomic/atomic-arch-fallback.h **** #elif defined(arch_try_cmpxchg)
 229:/mnt/c/Users/31740/Desktop/newcore/include/linux/atomic/atomic-arch-fallback.h **** #define raw_try_cmpxchg_release arch_try_cmpxchg
 230:/mnt/c/Users/31740/Desktop/newcore/include/linux/atomic/atomic-arch-fallback.h **** #else
 231:/mnt/c/Users/31740/Desktop/newcore/include/linux/atomic/atomic-arch-fallback.h **** #define raw_try_cmpxchg_release(_ptr, _oldp, _new) \
 232:/mnt/c/Users/31740/Desktop/newcore/include/linux/atomic/atomic-arch-fallback.h **** ({ \
 233:/mnt/c/Users/31740/Desktop/newcore/include/linux/atomic/atomic-arch-fallback.h **** 	typeof(*(_ptr)) *___op = (_oldp), ___o = *___op, ___r; \
 234:/mnt/c/Users/31740/Desktop/newcore/include/linux/atomic/atomic-arch-fallback.h **** 	___r = raw_cmpxchg_release((_ptr), ___o, (_new)); \
 235:/mnt/c/Users/31740/Desktop/newcore/include/linux/atomic/atomic-arch-fallback.h **** 	if (unlikely(___r != ___o)) \
 236:/mnt/c/Users/31740/Desktop/newcore/include/linux/atomic/atomic-arch-fallback.h **** 		*___op = ___r; \
 237:/mnt/c/Users/31740/Desktop/newcore/include/linux/atomic/atomic-arch-fallback.h **** 	likely(___r == ___o); \
 238:/mnt/c/Users/31740/Desktop/newcore/include/linux/atomic/atomic-arch-fallback.h **** })
 239:/mnt/c/Users/31740/Desktop/newcore/include/linux/atomic/atomic-arch-fallback.h **** #endif
 240:/mnt/c/Users/31740/Desktop/newcore/include/linux/atomic/atomic-arch-fallback.h **** 
 241:/mnt/c/Users/31740/Desktop/newcore/include/linux/atomic/atomic-arch-fallback.h **** #if defined(arch_try_cmpxchg_relaxed)
 242:/mnt/c/Users/31740/Desktop/newcore/include/linux/atomic/atomic-arch-fallback.h **** #define raw_try_cmpxchg_relaxed arch_try_cmpxchg_relaxed
 243:/mnt/c/Users/31740/Desktop/newcore/include/linux/atomic/atomic-arch-fallback.h **** #elif defined(arch_try_cmpxchg)
 244:/mnt/c/Users/31740/Desktop/newcore/include/linux/atomic/atomic-arch-fallback.h **** #define raw_try_cmpxchg_relaxed arch_try_cmpxchg
 245:/mnt/c/Users/31740/Desktop/newcore/include/linux/atomic/atomic-arch-fallback.h **** #else
 246:/mnt/c/Users/31740/Desktop/newcore/include/linux/atomic/atomic-arch-fallback.h **** #define raw_try_cmpxchg_relaxed(_ptr, _oldp, _new) \
 247:/mnt/c/Users/31740/Desktop/newcore/include/linux/atomic/atomic-arch-fallback.h **** ({ \
 248:/mnt/c/Users/31740/Desktop/newcore/include/linux/atomic/atomic-arch-fallback.h **** 	typeof(*(_ptr)) *___op = (_oldp), ___o = *___op, ___r; \
 249:/mnt/c/Users/31740/Desktop/newcore/include/linux/atomic/atomic-arch-fallback.h **** 	___r = raw_cmpxchg_relaxed((_ptr), ___o, (_new)); \
 250:/mnt/c/Users/31740/Desktop/newcore/include/linux/atomic/atomic-arch-fallback.h **** 	if (unlikely(___r != ___o)) \
 251:/mnt/c/Users/31740/Desktop/newcore/include/linux/atomic/atomic-arch-fallback.h **** 		*___op = ___r; \
 252:/mnt/c/Users/31740/Desktop/newcore/include/linux/atomic/atomic-arch-fallback.h **** 	likely(___r == ___o); \
 253:/mnt/c/Users/31740/Desktop/newcore/include/linux/atomic/atomic-arch-fallback.h **** })
 254:/mnt/c/Users/31740/Desktop/newcore/include/linux/atomic/atomic-arch-fallback.h **** #endif
 255:/mnt/c/Users/31740/Desktop/newcore/include/linux/atomic/atomic-arch-fallback.h **** 
 256:/mnt/c/Users/31740/Desktop/newcore/include/linux/atomic/atomic-arch-fallback.h **** #if defined(arch_try_cmpxchg64)
 257:/mnt/c/Users/31740/Desktop/newcore/include/linux/atomic/atomic-arch-fallback.h **** #define raw_try_cmpxchg64 arch_try_cmpxchg64
 258:/mnt/c/Users/31740/Desktop/newcore/include/linux/atomic/atomic-arch-fallback.h **** #elif defined(arch_try_cmpxchg64_relaxed)
 259:/mnt/c/Users/31740/Desktop/newcore/include/linux/atomic/atomic-arch-fallback.h **** #define raw_try_cmpxchg64(...) \
 260:/mnt/c/Users/31740/Desktop/newcore/include/linux/atomic/atomic-arch-fallback.h **** 	__atomic_op_fence(arch_try_cmpxchg64, __VA_ARGS__)
 261:/mnt/c/Users/31740/Desktop/newcore/include/linux/atomic/atomic-arch-fallback.h **** #else
 262:/mnt/c/Users/31740/Desktop/newcore/include/linux/atomic/atomic-arch-fallback.h **** #define raw_try_cmpxchg64(_ptr, _oldp, _new) \
 263:/mnt/c/Users/31740/Desktop/newcore/include/linux/atomic/atomic-arch-fallback.h **** ({ \
 264:/mnt/c/Users/31740/Desktop/newcore/include/linux/atomic/atomic-arch-fallback.h **** 	typeof(*(_ptr)) *___op = (_oldp), ___o = *___op, ___r; \
 265:/mnt/c/Users/31740/Desktop/newcore/include/linux/atomic/atomic-arch-fallback.h **** 	___r = raw_cmpxchg64((_ptr), ___o, (_new)); \
 266:/mnt/c/Users/31740/Desktop/newcore/include/linux/atomic/atomic-arch-fallback.h **** 	if (unlikely(___r != ___o)) \
 267:/mnt/c/Users/31740/Desktop/newcore/include/linux/atomic/atomic-arch-fallback.h **** 		*___op = ___r; \
 268:/mnt/c/Users/31740/Desktop/newcore/include/linux/atomic/atomic-arch-fallback.h **** 	likely(___r == ___o); \
 269:/mnt/c/Users/31740/Desktop/newcore/include/linux/atomic/atomic-arch-fallback.h **** })
 270:/mnt/c/Users/31740/Desktop/newcore/include/linux/atomic/atomic-arch-fallback.h **** #endif
ARM GAS  /tmp/ccyCLDig.s 			page 95


 271:/mnt/c/Users/31740/Desktop/newcore/include/linux/atomic/atomic-arch-fallback.h **** 
 272:/mnt/c/Users/31740/Desktop/newcore/include/linux/atomic/atomic-arch-fallback.h **** #if defined(arch_try_cmpxchg64_acquire)
 273:/mnt/c/Users/31740/Desktop/newcore/include/linux/atomic/atomic-arch-fallback.h **** #define raw_try_cmpxchg64_acquire arch_try_cmpxchg64_acquire
 274:/mnt/c/Users/31740/Desktop/newcore/include/linux/atomic/atomic-arch-fallback.h **** #elif defined(arch_try_cmpxchg64_relaxed)
 275:/mnt/c/Users/31740/Desktop/newcore/include/linux/atomic/atomic-arch-fallback.h **** #define raw_try_cmpxchg64_acquire(...) \
 276:/mnt/c/Users/31740/Desktop/newcore/include/linux/atomic/atomic-arch-fallback.h **** 	__atomic_op_acquire(arch_try_cmpxchg64, __VA_ARGS__)
 277:/mnt/c/Users/31740/Desktop/newcore/include/linux/atomic/atomic-arch-fallback.h **** #elif defined(arch_try_cmpxchg64)
 278:/mnt/c/Users/31740/Desktop/newcore/include/linux/atomic/atomic-arch-fallback.h **** #define raw_try_cmpxchg64_acquire arch_try_cmpxchg64
 279:/mnt/c/Users/31740/Desktop/newcore/include/linux/atomic/atomic-arch-fallback.h **** #else
 280:/mnt/c/Users/31740/Desktop/newcore/include/linux/atomic/atomic-arch-fallback.h **** #define raw_try_cmpxchg64_acquire(_ptr, _oldp, _new) \
 281:/mnt/c/Users/31740/Desktop/newcore/include/linux/atomic/atomic-arch-fallback.h **** ({ \
 282:/mnt/c/Users/31740/Desktop/newcore/include/linux/atomic/atomic-arch-fallback.h **** 	typeof(*(_ptr)) *___op = (_oldp), ___o = *___op, ___r; \
 283:/mnt/c/Users/31740/Desktop/newcore/include/linux/atomic/atomic-arch-fallback.h **** 	___r = raw_cmpxchg64_acquire((_ptr), ___o, (_new)); \
 284:/mnt/c/Users/31740/Desktop/newcore/include/linux/atomic/atomic-arch-fallback.h **** 	if (unlikely(___r != ___o)) \
 285:/mnt/c/Users/31740/Desktop/newcore/include/linux/atomic/atomic-arch-fallback.h **** 		*___op = ___r; \
 286:/mnt/c/Users/31740/Desktop/newcore/include/linux/atomic/atomic-arch-fallback.h **** 	likely(___r == ___o); \
 287:/mnt/c/Users/31740/Desktop/newcore/include/linux/atomic/atomic-arch-fallback.h **** })
 288:/mnt/c/Users/31740/Desktop/newcore/include/linux/atomic/atomic-arch-fallback.h **** #endif
 289:/mnt/c/Users/31740/Desktop/newcore/include/linux/atomic/atomic-arch-fallback.h **** 
 290:/mnt/c/Users/31740/Desktop/newcore/include/linux/atomic/atomic-arch-fallback.h **** #if defined(arch_try_cmpxchg64_release)
 291:/mnt/c/Users/31740/Desktop/newcore/include/linux/atomic/atomic-arch-fallback.h **** #define raw_try_cmpxchg64_release arch_try_cmpxchg64_release
 292:/mnt/c/Users/31740/Desktop/newcore/include/linux/atomic/atomic-arch-fallback.h **** #elif defined(arch_try_cmpxchg64_relaxed)
 293:/mnt/c/Users/31740/Desktop/newcore/include/linux/atomic/atomic-arch-fallback.h **** #define raw_try_cmpxchg64_release(...) \
 294:/mnt/c/Users/31740/Desktop/newcore/include/linux/atomic/atomic-arch-fallback.h **** 	__atomic_op_release(arch_try_cmpxchg64, __VA_ARGS__)
 295:/mnt/c/Users/31740/Desktop/newcore/include/linux/atomic/atomic-arch-fallback.h **** #elif defined(arch_try_cmpxchg64)
 296:/mnt/c/Users/31740/Desktop/newcore/include/linux/atomic/atomic-arch-fallback.h **** #define raw_try_cmpxchg64_release arch_try_cmpxchg64
 297:/mnt/c/Users/31740/Desktop/newcore/include/linux/atomic/atomic-arch-fallback.h **** #else
 298:/mnt/c/Users/31740/Desktop/newcore/include/linux/atomic/atomic-arch-fallback.h **** #define raw_try_cmpxchg64_release(_ptr, _oldp, _new) \
 299:/mnt/c/Users/31740/Desktop/newcore/include/linux/atomic/atomic-arch-fallback.h **** ({ \
 300:/mnt/c/Users/31740/Desktop/newcore/include/linux/atomic/atomic-arch-fallback.h **** 	typeof(*(_ptr)) *___op = (_oldp), ___o = *___op, ___r; \
 301:/mnt/c/Users/31740/Desktop/newcore/include/linux/atomic/atomic-arch-fallback.h **** 	___r = raw_cmpxchg64_release((_ptr), ___o, (_new)); \
 302:/mnt/c/Users/31740/Desktop/newcore/include/linux/atomic/atomic-arch-fallback.h **** 	if (unlikely(___r != ___o)) \
 303:/mnt/c/Users/31740/Desktop/newcore/include/linux/atomic/atomic-arch-fallback.h **** 		*___op = ___r; \
 304:/mnt/c/Users/31740/Desktop/newcore/include/linux/atomic/atomic-arch-fallback.h **** 	likely(___r == ___o); \
 305:/mnt/c/Users/31740/Desktop/newcore/include/linux/atomic/atomic-arch-fallback.h **** })
 306:/mnt/c/Users/31740/Desktop/newcore/include/linux/atomic/atomic-arch-fallback.h **** #endif
 307:/mnt/c/Users/31740/Desktop/newcore/include/linux/atomic/atomic-arch-fallback.h **** 
 308:/mnt/c/Users/31740/Desktop/newcore/include/linux/atomic/atomic-arch-fallback.h **** #if defined(arch_try_cmpxchg64_relaxed)
 309:/mnt/c/Users/31740/Desktop/newcore/include/linux/atomic/atomic-arch-fallback.h **** #define raw_try_cmpxchg64_relaxed arch_try_cmpxchg64_relaxed
 310:/mnt/c/Users/31740/Desktop/newcore/include/linux/atomic/atomic-arch-fallback.h **** #elif defined(arch_try_cmpxchg64)
 311:/mnt/c/Users/31740/Desktop/newcore/include/linux/atomic/atomic-arch-fallback.h **** #define raw_try_cmpxchg64_relaxed arch_try_cmpxchg64
 312:/mnt/c/Users/31740/Desktop/newcore/include/linux/atomic/atomic-arch-fallback.h **** #else
 313:/mnt/c/Users/31740/Desktop/newcore/include/linux/atomic/atomic-arch-fallback.h **** #define raw_try_cmpxchg64_relaxed(_ptr, _oldp, _new) \
 314:/mnt/c/Users/31740/Desktop/newcore/include/linux/atomic/atomic-arch-fallback.h **** ({ \
 315:/mnt/c/Users/31740/Desktop/newcore/include/linux/atomic/atomic-arch-fallback.h **** 	typeof(*(_ptr)) *___op = (_oldp), ___o = *___op, ___r; \
 316:/mnt/c/Users/31740/Desktop/newcore/include/linux/atomic/atomic-arch-fallback.h **** 	___r = raw_cmpxchg64_relaxed((_ptr), ___o, (_new)); \
 317:/mnt/c/Users/31740/Desktop/newcore/include/linux/atomic/atomic-arch-fallback.h **** 	if (unlikely(___r != ___o)) \
 318:/mnt/c/Users/31740/Desktop/newcore/include/linux/atomic/atomic-arch-fallback.h **** 		*___op = ___r; \
 319:/mnt/c/Users/31740/Desktop/newcore/include/linux/atomic/atomic-arch-fallback.h **** 	likely(___r == ___o); \
 320:/mnt/c/Users/31740/Desktop/newcore/include/linux/atomic/atomic-arch-fallback.h **** })
 321:/mnt/c/Users/31740/Desktop/newcore/include/linux/atomic/atomic-arch-fallback.h **** #endif
 322:/mnt/c/Users/31740/Desktop/newcore/include/linux/atomic/atomic-arch-fallback.h **** 
 323:/mnt/c/Users/31740/Desktop/newcore/include/linux/atomic/atomic-arch-fallback.h **** #if defined(arch_try_cmpxchg128)
 324:/mnt/c/Users/31740/Desktop/newcore/include/linux/atomic/atomic-arch-fallback.h **** #define raw_try_cmpxchg128 arch_try_cmpxchg128
 325:/mnt/c/Users/31740/Desktop/newcore/include/linux/atomic/atomic-arch-fallback.h **** #elif defined(arch_try_cmpxchg128_relaxed)
 326:/mnt/c/Users/31740/Desktop/newcore/include/linux/atomic/atomic-arch-fallback.h **** #define raw_try_cmpxchg128(...) \
 327:/mnt/c/Users/31740/Desktop/newcore/include/linux/atomic/atomic-arch-fallback.h **** 	__atomic_op_fence(arch_try_cmpxchg128, __VA_ARGS__)
ARM GAS  /tmp/ccyCLDig.s 			page 96


 328:/mnt/c/Users/31740/Desktop/newcore/include/linux/atomic/atomic-arch-fallback.h **** #else
 329:/mnt/c/Users/31740/Desktop/newcore/include/linux/atomic/atomic-arch-fallback.h **** #define raw_try_cmpxchg128(_ptr, _oldp, _new) \
 330:/mnt/c/Users/31740/Desktop/newcore/include/linux/atomic/atomic-arch-fallback.h **** ({ \
 331:/mnt/c/Users/31740/Desktop/newcore/include/linux/atomic/atomic-arch-fallback.h **** 	typeof(*(_ptr)) *___op = (_oldp), ___o = *___op, ___r; \
 332:/mnt/c/Users/31740/Desktop/newcore/include/linux/atomic/atomic-arch-fallback.h **** 	___r = raw_cmpxchg128((_ptr), ___o, (_new)); \
 333:/mnt/c/Users/31740/Desktop/newcore/include/linux/atomic/atomic-arch-fallback.h **** 	if (unlikely(___r != ___o)) \
 334:/mnt/c/Users/31740/Desktop/newcore/include/linux/atomic/atomic-arch-fallback.h **** 		*___op = ___r; \
 335:/mnt/c/Users/31740/Desktop/newcore/include/linux/atomic/atomic-arch-fallback.h **** 	likely(___r == ___o); \
 336:/mnt/c/Users/31740/Desktop/newcore/include/linux/atomic/atomic-arch-fallback.h **** })
 337:/mnt/c/Users/31740/Desktop/newcore/include/linux/atomic/atomic-arch-fallback.h **** #endif
 338:/mnt/c/Users/31740/Desktop/newcore/include/linux/atomic/atomic-arch-fallback.h **** 
 339:/mnt/c/Users/31740/Desktop/newcore/include/linux/atomic/atomic-arch-fallback.h **** #if defined(arch_try_cmpxchg128_acquire)
 340:/mnt/c/Users/31740/Desktop/newcore/include/linux/atomic/atomic-arch-fallback.h **** #define raw_try_cmpxchg128_acquire arch_try_cmpxchg128_acquire
 341:/mnt/c/Users/31740/Desktop/newcore/include/linux/atomic/atomic-arch-fallback.h **** #elif defined(arch_try_cmpxchg128_relaxed)
 342:/mnt/c/Users/31740/Desktop/newcore/include/linux/atomic/atomic-arch-fallback.h **** #define raw_try_cmpxchg128_acquire(...) \
 343:/mnt/c/Users/31740/Desktop/newcore/include/linux/atomic/atomic-arch-fallback.h **** 	__atomic_op_acquire(arch_try_cmpxchg128, __VA_ARGS__)
 344:/mnt/c/Users/31740/Desktop/newcore/include/linux/atomic/atomic-arch-fallback.h **** #elif defined(arch_try_cmpxchg128)
 345:/mnt/c/Users/31740/Desktop/newcore/include/linux/atomic/atomic-arch-fallback.h **** #define raw_try_cmpxchg128_acquire arch_try_cmpxchg128
 346:/mnt/c/Users/31740/Desktop/newcore/include/linux/atomic/atomic-arch-fallback.h **** #else
 347:/mnt/c/Users/31740/Desktop/newcore/include/linux/atomic/atomic-arch-fallback.h **** #define raw_try_cmpxchg128_acquire(_ptr, _oldp, _new) \
 348:/mnt/c/Users/31740/Desktop/newcore/include/linux/atomic/atomic-arch-fallback.h **** ({ \
 349:/mnt/c/Users/31740/Desktop/newcore/include/linux/atomic/atomic-arch-fallback.h **** 	typeof(*(_ptr)) *___op = (_oldp), ___o = *___op, ___r; \
 350:/mnt/c/Users/31740/Desktop/newcore/include/linux/atomic/atomic-arch-fallback.h **** 	___r = raw_cmpxchg128_acquire((_ptr), ___o, (_new)); \
 351:/mnt/c/Users/31740/Desktop/newcore/include/linux/atomic/atomic-arch-fallback.h **** 	if (unlikely(___r != ___o)) \
 352:/mnt/c/Users/31740/Desktop/newcore/include/linux/atomic/atomic-arch-fallback.h **** 		*___op = ___r; \
 353:/mnt/c/Users/31740/Desktop/newcore/include/linux/atomic/atomic-arch-fallback.h **** 	likely(___r == ___o); \
 354:/mnt/c/Users/31740/Desktop/newcore/include/linux/atomic/atomic-arch-fallback.h **** })
 355:/mnt/c/Users/31740/Desktop/newcore/include/linux/atomic/atomic-arch-fallback.h **** #endif
 356:/mnt/c/Users/31740/Desktop/newcore/include/linux/atomic/atomic-arch-fallback.h **** 
 357:/mnt/c/Users/31740/Desktop/newcore/include/linux/atomic/atomic-arch-fallback.h **** #if defined(arch_try_cmpxchg128_release)
 358:/mnt/c/Users/31740/Desktop/newcore/include/linux/atomic/atomic-arch-fallback.h **** #define raw_try_cmpxchg128_release arch_try_cmpxchg128_release
 359:/mnt/c/Users/31740/Desktop/newcore/include/linux/atomic/atomic-arch-fallback.h **** #elif defined(arch_try_cmpxchg128_relaxed)
 360:/mnt/c/Users/31740/Desktop/newcore/include/linux/atomic/atomic-arch-fallback.h **** #define raw_try_cmpxchg128_release(...) \
 361:/mnt/c/Users/31740/Desktop/newcore/include/linux/atomic/atomic-arch-fallback.h **** 	__atomic_op_release(arch_try_cmpxchg128, __VA_ARGS__)
 362:/mnt/c/Users/31740/Desktop/newcore/include/linux/atomic/atomic-arch-fallback.h **** #elif defined(arch_try_cmpxchg128)
 363:/mnt/c/Users/31740/Desktop/newcore/include/linux/atomic/atomic-arch-fallback.h **** #define raw_try_cmpxchg128_release arch_try_cmpxchg128
 364:/mnt/c/Users/31740/Desktop/newcore/include/linux/atomic/atomic-arch-fallback.h **** #else
 365:/mnt/c/Users/31740/Desktop/newcore/include/linux/atomic/atomic-arch-fallback.h **** #define raw_try_cmpxchg128_release(_ptr, _oldp, _new) \
 366:/mnt/c/Users/31740/Desktop/newcore/include/linux/atomic/atomic-arch-fallback.h **** ({ \
 367:/mnt/c/Users/31740/Desktop/newcore/include/linux/atomic/atomic-arch-fallback.h **** 	typeof(*(_ptr)) *___op = (_oldp), ___o = *___op, ___r; \
 368:/mnt/c/Users/31740/Desktop/newcore/include/linux/atomic/atomic-arch-fallback.h **** 	___r = raw_cmpxchg128_release((_ptr), ___o, (_new)); \
 369:/mnt/c/Users/31740/Desktop/newcore/include/linux/atomic/atomic-arch-fallback.h **** 	if (unlikely(___r != ___o)) \
 370:/mnt/c/Users/31740/Desktop/newcore/include/linux/atomic/atomic-arch-fallback.h **** 		*___op = ___r; \
 371:/mnt/c/Users/31740/Desktop/newcore/include/linux/atomic/atomic-arch-fallback.h **** 	likely(___r == ___o); \
 372:/mnt/c/Users/31740/Desktop/newcore/include/linux/atomic/atomic-arch-fallback.h **** })
 373:/mnt/c/Users/31740/Desktop/newcore/include/linux/atomic/atomic-arch-fallback.h **** #endif
 374:/mnt/c/Users/31740/Desktop/newcore/include/linux/atomic/atomic-arch-fallback.h **** 
 375:/mnt/c/Users/31740/Desktop/newcore/include/linux/atomic/atomic-arch-fallback.h **** #if defined(arch_try_cmpxchg128_relaxed)
 376:/mnt/c/Users/31740/Desktop/newcore/include/linux/atomic/atomic-arch-fallback.h **** #define raw_try_cmpxchg128_relaxed arch_try_cmpxchg128_relaxed
 377:/mnt/c/Users/31740/Desktop/newcore/include/linux/atomic/atomic-arch-fallback.h **** #elif defined(arch_try_cmpxchg128)
 378:/mnt/c/Users/31740/Desktop/newcore/include/linux/atomic/atomic-arch-fallback.h **** #define raw_try_cmpxchg128_relaxed arch_try_cmpxchg128
 379:/mnt/c/Users/31740/Desktop/newcore/include/linux/atomic/atomic-arch-fallback.h **** #else
 380:/mnt/c/Users/31740/Desktop/newcore/include/linux/atomic/atomic-arch-fallback.h **** #define raw_try_cmpxchg128_relaxed(_ptr, _oldp, _new) \
 381:/mnt/c/Users/31740/Desktop/newcore/include/linux/atomic/atomic-arch-fallback.h **** ({ \
 382:/mnt/c/Users/31740/Desktop/newcore/include/linux/atomic/atomic-arch-fallback.h **** 	typeof(*(_ptr)) *___op = (_oldp), ___o = *___op, ___r; \
 383:/mnt/c/Users/31740/Desktop/newcore/include/linux/atomic/atomic-arch-fallback.h **** 	___r = raw_cmpxchg128_relaxed((_ptr), ___o, (_new)); \
 384:/mnt/c/Users/31740/Desktop/newcore/include/linux/atomic/atomic-arch-fallback.h **** 	if (unlikely(___r != ___o)) \
ARM GAS  /tmp/ccyCLDig.s 			page 97


 385:/mnt/c/Users/31740/Desktop/newcore/include/linux/atomic/atomic-arch-fallback.h **** 		*___op = ___r; \
 386:/mnt/c/Users/31740/Desktop/newcore/include/linux/atomic/atomic-arch-fallback.h **** 	likely(___r == ___o); \
 387:/mnt/c/Users/31740/Desktop/newcore/include/linux/atomic/atomic-arch-fallback.h **** })
 388:/mnt/c/Users/31740/Desktop/newcore/include/linux/atomic/atomic-arch-fallback.h **** #endif
 389:/mnt/c/Users/31740/Desktop/newcore/include/linux/atomic/atomic-arch-fallback.h **** 
 390:/mnt/c/Users/31740/Desktop/newcore/include/linux/atomic/atomic-arch-fallback.h **** #define raw_cmpxchg_local arch_cmpxchg_local
 391:/mnt/c/Users/31740/Desktop/newcore/include/linux/atomic/atomic-arch-fallback.h **** 
 392:/mnt/c/Users/31740/Desktop/newcore/include/linux/atomic/atomic-arch-fallback.h **** #ifdef arch_try_cmpxchg_local
 393:/mnt/c/Users/31740/Desktop/newcore/include/linux/atomic/atomic-arch-fallback.h **** #define raw_try_cmpxchg_local arch_try_cmpxchg_local
 394:/mnt/c/Users/31740/Desktop/newcore/include/linux/atomic/atomic-arch-fallback.h **** #else
 395:/mnt/c/Users/31740/Desktop/newcore/include/linux/atomic/atomic-arch-fallback.h **** #define raw_try_cmpxchg_local(_ptr, _oldp, _new) \
 396:/mnt/c/Users/31740/Desktop/newcore/include/linux/atomic/atomic-arch-fallback.h **** ({ \
 397:/mnt/c/Users/31740/Desktop/newcore/include/linux/atomic/atomic-arch-fallback.h **** 	typeof(*(_ptr)) *___op = (_oldp), ___o = *___op, ___r; \
 398:/mnt/c/Users/31740/Desktop/newcore/include/linux/atomic/atomic-arch-fallback.h **** 	___r = raw_cmpxchg_local((_ptr), ___o, (_new)); \
 399:/mnt/c/Users/31740/Desktop/newcore/include/linux/atomic/atomic-arch-fallback.h **** 	if (unlikely(___r != ___o)) \
 400:/mnt/c/Users/31740/Desktop/newcore/include/linux/atomic/atomic-arch-fallback.h **** 		*___op = ___r; \
 401:/mnt/c/Users/31740/Desktop/newcore/include/linux/atomic/atomic-arch-fallback.h **** 	likely(___r == ___o); \
 402:/mnt/c/Users/31740/Desktop/newcore/include/linux/atomic/atomic-arch-fallback.h **** })
 403:/mnt/c/Users/31740/Desktop/newcore/include/linux/atomic/atomic-arch-fallback.h **** #endif
 404:/mnt/c/Users/31740/Desktop/newcore/include/linux/atomic/atomic-arch-fallback.h **** 
 405:/mnt/c/Users/31740/Desktop/newcore/include/linux/atomic/atomic-arch-fallback.h **** #define raw_cmpxchg64_local arch_cmpxchg64_local
 406:/mnt/c/Users/31740/Desktop/newcore/include/linux/atomic/atomic-arch-fallback.h **** 
 407:/mnt/c/Users/31740/Desktop/newcore/include/linux/atomic/atomic-arch-fallback.h **** #ifdef arch_try_cmpxchg64_local
 408:/mnt/c/Users/31740/Desktop/newcore/include/linux/atomic/atomic-arch-fallback.h **** #define raw_try_cmpxchg64_local arch_try_cmpxchg64_local
 409:/mnt/c/Users/31740/Desktop/newcore/include/linux/atomic/atomic-arch-fallback.h **** #else
 410:/mnt/c/Users/31740/Desktop/newcore/include/linux/atomic/atomic-arch-fallback.h **** #define raw_try_cmpxchg64_local(_ptr, _oldp, _new) \
 411:/mnt/c/Users/31740/Desktop/newcore/include/linux/atomic/atomic-arch-fallback.h **** ({ \
 412:/mnt/c/Users/31740/Desktop/newcore/include/linux/atomic/atomic-arch-fallback.h **** 	typeof(*(_ptr)) *___op = (_oldp), ___o = *___op, ___r; \
 413:/mnt/c/Users/31740/Desktop/newcore/include/linux/atomic/atomic-arch-fallback.h **** 	___r = raw_cmpxchg64_local((_ptr), ___o, (_new)); \
 414:/mnt/c/Users/31740/Desktop/newcore/include/linux/atomic/atomic-arch-fallback.h **** 	if (unlikely(___r != ___o)) \
 415:/mnt/c/Users/31740/Desktop/newcore/include/linux/atomic/atomic-arch-fallback.h **** 		*___op = ___r; \
 416:/mnt/c/Users/31740/Desktop/newcore/include/linux/atomic/atomic-arch-fallback.h **** 	likely(___r == ___o); \
 417:/mnt/c/Users/31740/Desktop/newcore/include/linux/atomic/atomic-arch-fallback.h **** })
 418:/mnt/c/Users/31740/Desktop/newcore/include/linux/atomic/atomic-arch-fallback.h **** #endif
 419:/mnt/c/Users/31740/Desktop/newcore/include/linux/atomic/atomic-arch-fallback.h **** 
 420:/mnt/c/Users/31740/Desktop/newcore/include/linux/atomic/atomic-arch-fallback.h **** #define raw_cmpxchg128_local arch_cmpxchg128_local
 421:/mnt/c/Users/31740/Desktop/newcore/include/linux/atomic/atomic-arch-fallback.h **** 
 422:/mnt/c/Users/31740/Desktop/newcore/include/linux/atomic/atomic-arch-fallback.h **** #ifdef arch_try_cmpxchg128_local
 423:/mnt/c/Users/31740/Desktop/newcore/include/linux/atomic/atomic-arch-fallback.h **** #define raw_try_cmpxchg128_local arch_try_cmpxchg128_local
 424:/mnt/c/Users/31740/Desktop/newcore/include/linux/atomic/atomic-arch-fallback.h **** #else
 425:/mnt/c/Users/31740/Desktop/newcore/include/linux/atomic/atomic-arch-fallback.h **** #define raw_try_cmpxchg128_local(_ptr, _oldp, _new) \
 426:/mnt/c/Users/31740/Desktop/newcore/include/linux/atomic/atomic-arch-fallback.h **** ({ \
 427:/mnt/c/Users/31740/Desktop/newcore/include/linux/atomic/atomic-arch-fallback.h **** 	typeof(*(_ptr)) *___op = (_oldp), ___o = *___op, ___r; \
 428:/mnt/c/Users/31740/Desktop/newcore/include/linux/atomic/atomic-arch-fallback.h **** 	___r = raw_cmpxchg128_local((_ptr), ___o, (_new)); \
 429:/mnt/c/Users/31740/Desktop/newcore/include/linux/atomic/atomic-arch-fallback.h **** 	if (unlikely(___r != ___o)) \
 430:/mnt/c/Users/31740/Desktop/newcore/include/linux/atomic/atomic-arch-fallback.h **** 		*___op = ___r; \
 431:/mnt/c/Users/31740/Desktop/newcore/include/linux/atomic/atomic-arch-fallback.h **** 	likely(___r == ___o); \
 432:/mnt/c/Users/31740/Desktop/newcore/include/linux/atomic/atomic-arch-fallback.h **** })
 433:/mnt/c/Users/31740/Desktop/newcore/include/linux/atomic/atomic-arch-fallback.h **** #endif
 434:/mnt/c/Users/31740/Desktop/newcore/include/linux/atomic/atomic-arch-fallback.h **** 
 435:/mnt/c/Users/31740/Desktop/newcore/include/linux/atomic/atomic-arch-fallback.h **** #define raw_sync_cmpxchg arch_sync_cmpxchg
 436:/mnt/c/Users/31740/Desktop/newcore/include/linux/atomic/atomic-arch-fallback.h **** 
 437:/mnt/c/Users/31740/Desktop/newcore/include/linux/atomic/atomic-arch-fallback.h **** #ifdef arch_sync_try_cmpxchg
 438:/mnt/c/Users/31740/Desktop/newcore/include/linux/atomic/atomic-arch-fallback.h **** #define raw_sync_try_cmpxchg arch_sync_try_cmpxchg
 439:/mnt/c/Users/31740/Desktop/newcore/include/linux/atomic/atomic-arch-fallback.h **** #else
 440:/mnt/c/Users/31740/Desktop/newcore/include/linux/atomic/atomic-arch-fallback.h **** #define raw_sync_try_cmpxchg(_ptr, _oldp, _new) \
 441:/mnt/c/Users/31740/Desktop/newcore/include/linux/atomic/atomic-arch-fallback.h **** ({ \
ARM GAS  /tmp/ccyCLDig.s 			page 98


 442:/mnt/c/Users/31740/Desktop/newcore/include/linux/atomic/atomic-arch-fallback.h **** 	typeof(*(_ptr)) *___op = (_oldp), ___o = *___op, ___r; \
 443:/mnt/c/Users/31740/Desktop/newcore/include/linux/atomic/atomic-arch-fallback.h **** 	___r = raw_sync_cmpxchg((_ptr), ___o, (_new)); \
 444:/mnt/c/Users/31740/Desktop/newcore/include/linux/atomic/atomic-arch-fallback.h **** 	if (unlikely(___r != ___o)) \
 445:/mnt/c/Users/31740/Desktop/newcore/include/linux/atomic/atomic-arch-fallback.h **** 		*___op = ___r; \
 446:/mnt/c/Users/31740/Desktop/newcore/include/linux/atomic/atomic-arch-fallback.h **** 	likely(___r == ___o); \
 447:/mnt/c/Users/31740/Desktop/newcore/include/linux/atomic/atomic-arch-fallback.h **** })
 448:/mnt/c/Users/31740/Desktop/newcore/include/linux/atomic/atomic-arch-fallback.h **** #endif
 449:/mnt/c/Users/31740/Desktop/newcore/include/linux/atomic/atomic-arch-fallback.h **** 
 450:/mnt/c/Users/31740/Desktop/newcore/include/linux/atomic/atomic-arch-fallback.h **** /**
 451:/mnt/c/Users/31740/Desktop/newcore/include/linux/atomic/atomic-arch-fallback.h ****  * raw_atomic_read() - atomic load with relaxed ordering
 452:/mnt/c/Users/31740/Desktop/newcore/include/linux/atomic/atomic-arch-fallback.h ****  * @v: pointer to atomic_t
 453:/mnt/c/Users/31740/Desktop/newcore/include/linux/atomic/atomic-arch-fallback.h ****  *
 454:/mnt/c/Users/31740/Desktop/newcore/include/linux/atomic/atomic-arch-fallback.h ****  * Atomically loads the value of @v with relaxed ordering.
 455:/mnt/c/Users/31740/Desktop/newcore/include/linux/atomic/atomic-arch-fallback.h ****  *
 456:/mnt/c/Users/31740/Desktop/newcore/include/linux/atomic/atomic-arch-fallback.h ****  * Safe to use in noinstr code; prefer atomic_read() elsewhere.
 457:/mnt/c/Users/31740/Desktop/newcore/include/linux/atomic/atomic-arch-fallback.h ****  *
 458:/mnt/c/Users/31740/Desktop/newcore/include/linux/atomic/atomic-arch-fallback.h ****  * Return: The value loaded from @v.
 459:/mnt/c/Users/31740/Desktop/newcore/include/linux/atomic/atomic-arch-fallback.h ****  */
 460:/mnt/c/Users/31740/Desktop/newcore/include/linux/atomic/atomic-arch-fallback.h **** static __always_inline int
 461:/mnt/c/Users/31740/Desktop/newcore/include/linux/atomic/atomic-arch-fallback.h **** raw_atomic_read(const atomic_t *v)
 462:/mnt/c/Users/31740/Desktop/newcore/include/linux/atomic/atomic-arch-fallback.h **** {
 463:/mnt/c/Users/31740/Desktop/newcore/include/linux/atomic/atomic-arch-fallback.h **** 	return arch_atomic_read(v);
 464:/mnt/c/Users/31740/Desktop/newcore/include/linux/atomic/atomic-arch-fallback.h **** }
 465:/mnt/c/Users/31740/Desktop/newcore/include/linux/atomic/atomic-arch-fallback.h **** 
 466:/mnt/c/Users/31740/Desktop/newcore/include/linux/atomic/atomic-arch-fallback.h **** /**
 467:/mnt/c/Users/31740/Desktop/newcore/include/linux/atomic/atomic-arch-fallback.h ****  * raw_atomic_read_acquire() - atomic load with acquire ordering
 468:/mnt/c/Users/31740/Desktop/newcore/include/linux/atomic/atomic-arch-fallback.h ****  * @v: pointer to atomic_t
 469:/mnt/c/Users/31740/Desktop/newcore/include/linux/atomic/atomic-arch-fallback.h ****  *
 470:/mnt/c/Users/31740/Desktop/newcore/include/linux/atomic/atomic-arch-fallback.h ****  * Atomically loads the value of @v with acquire ordering.
 471:/mnt/c/Users/31740/Desktop/newcore/include/linux/atomic/atomic-arch-fallback.h ****  *
 472:/mnt/c/Users/31740/Desktop/newcore/include/linux/atomic/atomic-arch-fallback.h ****  * Safe to use in noinstr code; prefer atomic_read_acquire() elsewhere.
 473:/mnt/c/Users/31740/Desktop/newcore/include/linux/atomic/atomic-arch-fallback.h ****  *
 474:/mnt/c/Users/31740/Desktop/newcore/include/linux/atomic/atomic-arch-fallback.h ****  * Return: The value loaded from @v.
 475:/mnt/c/Users/31740/Desktop/newcore/include/linux/atomic/atomic-arch-fallback.h ****  */
 476:/mnt/c/Users/31740/Desktop/newcore/include/linux/atomic/atomic-arch-fallback.h **** static __always_inline int
 477:/mnt/c/Users/31740/Desktop/newcore/include/linux/atomic/atomic-arch-fallback.h **** raw_atomic_read_acquire(const atomic_t *v)
 478:/mnt/c/Users/31740/Desktop/newcore/include/linux/atomic/atomic-arch-fallback.h **** {
 479:/mnt/c/Users/31740/Desktop/newcore/include/linux/atomic/atomic-arch-fallback.h **** #if defined(arch_atomic_read_acquire)
 480:/mnt/c/Users/31740/Desktop/newcore/include/linux/atomic/atomic-arch-fallback.h **** 	return arch_atomic_read_acquire(v);
 481:/mnt/c/Users/31740/Desktop/newcore/include/linux/atomic/atomic-arch-fallback.h **** #else
 482:/mnt/c/Users/31740/Desktop/newcore/include/linux/atomic/atomic-arch-fallback.h **** 	int ret;
 483:/mnt/c/Users/31740/Desktop/newcore/include/linux/atomic/atomic-arch-fallback.h **** 
 484:/mnt/c/Users/31740/Desktop/newcore/include/linux/atomic/atomic-arch-fallback.h **** 	if (__native_word(atomic_t)) {
 485:/mnt/c/Users/31740/Desktop/newcore/include/linux/atomic/atomic-arch-fallback.h **** 		ret = smp_load_acquire(&(v)->counter);
 486:/mnt/c/Users/31740/Desktop/newcore/include/linux/atomic/atomic-arch-fallback.h **** 	} else {
 487:/mnt/c/Users/31740/Desktop/newcore/include/linux/atomic/atomic-arch-fallback.h **** 		ret = raw_atomic_read(v);
 488:/mnt/c/Users/31740/Desktop/newcore/include/linux/atomic/atomic-arch-fallback.h **** 		__atomic_acquire_fence();
 489:/mnt/c/Users/31740/Desktop/newcore/include/linux/atomic/atomic-arch-fallback.h **** 	}
 490:/mnt/c/Users/31740/Desktop/newcore/include/linux/atomic/atomic-arch-fallback.h **** 
 491:/mnt/c/Users/31740/Desktop/newcore/include/linux/atomic/atomic-arch-fallback.h **** 	return ret;
 492:/mnt/c/Users/31740/Desktop/newcore/include/linux/atomic/atomic-arch-fallback.h **** #endif
 493:/mnt/c/Users/31740/Desktop/newcore/include/linux/atomic/atomic-arch-fallback.h **** }
 494:/mnt/c/Users/31740/Desktop/newcore/include/linux/atomic/atomic-arch-fallback.h **** 
 495:/mnt/c/Users/31740/Desktop/newcore/include/linux/atomic/atomic-arch-fallback.h **** /**
 496:/mnt/c/Users/31740/Desktop/newcore/include/linux/atomic/atomic-arch-fallback.h ****  * raw_atomic_set() - atomic set with relaxed ordering
 497:/mnt/c/Users/31740/Desktop/newcore/include/linux/atomic/atomic-arch-fallback.h ****  * @v: pointer to atomic_t
 498:/mnt/c/Users/31740/Desktop/newcore/include/linux/atomic/atomic-arch-fallback.h ****  * @i: int value to assign
ARM GAS  /tmp/ccyCLDig.s 			page 99


 499:/mnt/c/Users/31740/Desktop/newcore/include/linux/atomic/atomic-arch-fallback.h ****  *
 500:/mnt/c/Users/31740/Desktop/newcore/include/linux/atomic/atomic-arch-fallback.h ****  * Atomically sets @v to @i with relaxed ordering.
 501:/mnt/c/Users/31740/Desktop/newcore/include/linux/atomic/atomic-arch-fallback.h ****  *
 502:/mnt/c/Users/31740/Desktop/newcore/include/linux/atomic/atomic-arch-fallback.h ****  * Safe to use in noinstr code; prefer atomic_set() elsewhere.
 503:/mnt/c/Users/31740/Desktop/newcore/include/linux/atomic/atomic-arch-fallback.h ****  *
 504:/mnt/c/Users/31740/Desktop/newcore/include/linux/atomic/atomic-arch-fallback.h ****  * Return: Nothing.
 505:/mnt/c/Users/31740/Desktop/newcore/include/linux/atomic/atomic-arch-fallback.h ****  */
 506:/mnt/c/Users/31740/Desktop/newcore/include/linux/atomic/atomic-arch-fallback.h **** static __always_inline void
 507:/mnt/c/Users/31740/Desktop/newcore/include/linux/atomic/atomic-arch-fallback.h **** raw_atomic_set(atomic_t *v, int i)
 508:/mnt/c/Users/31740/Desktop/newcore/include/linux/atomic/atomic-arch-fallback.h **** {
 509:/mnt/c/Users/31740/Desktop/newcore/include/linux/atomic/atomic-arch-fallback.h **** 	arch_atomic_set(v, i);
 510:/mnt/c/Users/31740/Desktop/newcore/include/linux/atomic/atomic-arch-fallback.h **** }
 511:/mnt/c/Users/31740/Desktop/newcore/include/linux/atomic/atomic-arch-fallback.h **** 
 512:/mnt/c/Users/31740/Desktop/newcore/include/linux/atomic/atomic-arch-fallback.h **** /**
 513:/mnt/c/Users/31740/Desktop/newcore/include/linux/atomic/atomic-arch-fallback.h ****  * raw_atomic_set_release() - atomic set with release ordering
 514:/mnt/c/Users/31740/Desktop/newcore/include/linux/atomic/atomic-arch-fallback.h ****  * @v: pointer to atomic_t
 515:/mnt/c/Users/31740/Desktop/newcore/include/linux/atomic/atomic-arch-fallback.h ****  * @i: int value to assign
 516:/mnt/c/Users/31740/Desktop/newcore/include/linux/atomic/atomic-arch-fallback.h ****  *
 517:/mnt/c/Users/31740/Desktop/newcore/include/linux/atomic/atomic-arch-fallback.h ****  * Atomically sets @v to @i with release ordering.
 518:/mnt/c/Users/31740/Desktop/newcore/include/linux/atomic/atomic-arch-fallback.h ****  *
 519:/mnt/c/Users/31740/Desktop/newcore/include/linux/atomic/atomic-arch-fallback.h ****  * Safe to use in noinstr code; prefer atomic_set_release() elsewhere.
 520:/mnt/c/Users/31740/Desktop/newcore/include/linux/atomic/atomic-arch-fallback.h ****  *
 521:/mnt/c/Users/31740/Desktop/newcore/include/linux/atomic/atomic-arch-fallback.h ****  * Return: Nothing.
 522:/mnt/c/Users/31740/Desktop/newcore/include/linux/atomic/atomic-arch-fallback.h ****  */
 523:/mnt/c/Users/31740/Desktop/newcore/include/linux/atomic/atomic-arch-fallback.h **** static __always_inline void
 524:/mnt/c/Users/31740/Desktop/newcore/include/linux/atomic/atomic-arch-fallback.h **** raw_atomic_set_release(atomic_t *v, int i)
 525:/mnt/c/Users/31740/Desktop/newcore/include/linux/atomic/atomic-arch-fallback.h **** {
 526:/mnt/c/Users/31740/Desktop/newcore/include/linux/atomic/atomic-arch-fallback.h **** #if defined(arch_atomic_set_release)
 527:/mnt/c/Users/31740/Desktop/newcore/include/linux/atomic/atomic-arch-fallback.h **** 	arch_atomic_set_release(v, i);
 528:/mnt/c/Users/31740/Desktop/newcore/include/linux/atomic/atomic-arch-fallback.h **** #else
 529:/mnt/c/Users/31740/Desktop/newcore/include/linux/atomic/atomic-arch-fallback.h **** 	if (__native_word(atomic_t)) {
 530:/mnt/c/Users/31740/Desktop/newcore/include/linux/atomic/atomic-arch-fallback.h **** 		smp_store_release(&(v)->counter, i);
 531:/mnt/c/Users/31740/Desktop/newcore/include/linux/atomic/atomic-arch-fallback.h **** 	} else {
 532:/mnt/c/Users/31740/Desktop/newcore/include/linux/atomic/atomic-arch-fallback.h **** 		__atomic_release_fence();
 533:/mnt/c/Users/31740/Desktop/newcore/include/linux/atomic/atomic-arch-fallback.h **** 		raw_atomic_set(v, i);
 534:/mnt/c/Users/31740/Desktop/newcore/include/linux/atomic/atomic-arch-fallback.h **** 	}
 535:/mnt/c/Users/31740/Desktop/newcore/include/linux/atomic/atomic-arch-fallback.h **** #endif
 536:/mnt/c/Users/31740/Desktop/newcore/include/linux/atomic/atomic-arch-fallback.h **** }
 537:/mnt/c/Users/31740/Desktop/newcore/include/linux/atomic/atomic-arch-fallback.h **** 
 538:/mnt/c/Users/31740/Desktop/newcore/include/linux/atomic/atomic-arch-fallback.h **** /**
 539:/mnt/c/Users/31740/Desktop/newcore/include/linux/atomic/atomic-arch-fallback.h ****  * raw_atomic_add() - atomic add with relaxed ordering
 540:/mnt/c/Users/31740/Desktop/newcore/include/linux/atomic/atomic-arch-fallback.h ****  * @i: int value to add
 541:/mnt/c/Users/31740/Desktop/newcore/include/linux/atomic/atomic-arch-fallback.h ****  * @v: pointer to atomic_t
 542:/mnt/c/Users/31740/Desktop/newcore/include/linux/atomic/atomic-arch-fallback.h ****  *
 543:/mnt/c/Users/31740/Desktop/newcore/include/linux/atomic/atomic-arch-fallback.h ****  * Atomically updates @v to (@v + @i) with relaxed ordering.
 544:/mnt/c/Users/31740/Desktop/newcore/include/linux/atomic/atomic-arch-fallback.h ****  *
 545:/mnt/c/Users/31740/Desktop/newcore/include/linux/atomic/atomic-arch-fallback.h ****  * Safe to use in noinstr code; prefer atomic_add() elsewhere.
 546:/mnt/c/Users/31740/Desktop/newcore/include/linux/atomic/atomic-arch-fallback.h ****  *
 547:/mnt/c/Users/31740/Desktop/newcore/include/linux/atomic/atomic-arch-fallback.h ****  * Return: Nothing.
 548:/mnt/c/Users/31740/Desktop/newcore/include/linux/atomic/atomic-arch-fallback.h ****  */
 549:/mnt/c/Users/31740/Desktop/newcore/include/linux/atomic/atomic-arch-fallback.h **** static __always_inline void
 550:/mnt/c/Users/31740/Desktop/newcore/include/linux/atomic/atomic-arch-fallback.h **** raw_atomic_add(int i, atomic_t *v)
 551:/mnt/c/Users/31740/Desktop/newcore/include/linux/atomic/atomic-arch-fallback.h **** {
 552:/mnt/c/Users/31740/Desktop/newcore/include/linux/atomic/atomic-arch-fallback.h **** 	arch_atomic_add(i, v);
 553:/mnt/c/Users/31740/Desktop/newcore/include/linux/atomic/atomic-arch-fallback.h **** }
 554:/mnt/c/Users/31740/Desktop/newcore/include/linux/atomic/atomic-arch-fallback.h **** 
 555:/mnt/c/Users/31740/Desktop/newcore/include/linux/atomic/atomic-arch-fallback.h **** /**
ARM GAS  /tmp/ccyCLDig.s 			page 100


 556:/mnt/c/Users/31740/Desktop/newcore/include/linux/atomic/atomic-arch-fallback.h ****  * raw_atomic_add_return() - atomic add with full ordering
 557:/mnt/c/Users/31740/Desktop/newcore/include/linux/atomic/atomic-arch-fallback.h ****  * @i: int value to add
 558:/mnt/c/Users/31740/Desktop/newcore/include/linux/atomic/atomic-arch-fallback.h ****  * @v: pointer to atomic_t
 559:/mnt/c/Users/31740/Desktop/newcore/include/linux/atomic/atomic-arch-fallback.h ****  *
 560:/mnt/c/Users/31740/Desktop/newcore/include/linux/atomic/atomic-arch-fallback.h ****  * Atomically updates @v to (@v + @i) with full ordering.
 561:/mnt/c/Users/31740/Desktop/newcore/include/linux/atomic/atomic-arch-fallback.h ****  *
 562:/mnt/c/Users/31740/Desktop/newcore/include/linux/atomic/atomic-arch-fallback.h ****  * Safe to use in noinstr code; prefer atomic_add_return() elsewhere.
 563:/mnt/c/Users/31740/Desktop/newcore/include/linux/atomic/atomic-arch-fallback.h ****  *
 564:/mnt/c/Users/31740/Desktop/newcore/include/linux/atomic/atomic-arch-fallback.h ****  * Return: The updated value of @v.
 565:/mnt/c/Users/31740/Desktop/newcore/include/linux/atomic/atomic-arch-fallback.h ****  */
 566:/mnt/c/Users/31740/Desktop/newcore/include/linux/atomic/atomic-arch-fallback.h **** static __always_inline int
 567:/mnt/c/Users/31740/Desktop/newcore/include/linux/atomic/atomic-arch-fallback.h **** raw_atomic_add_return(int i, atomic_t *v)
 568:/mnt/c/Users/31740/Desktop/newcore/include/linux/atomic/atomic-arch-fallback.h **** {
 569:/mnt/c/Users/31740/Desktop/newcore/include/linux/atomic/atomic-arch-fallback.h **** #if defined(arch_atomic_add_return)
 570:/mnt/c/Users/31740/Desktop/newcore/include/linux/atomic/atomic-arch-fallback.h **** 	return arch_atomic_add_return(i, v);
 571:/mnt/c/Users/31740/Desktop/newcore/include/linux/atomic/atomic-arch-fallback.h **** #elif defined(arch_atomic_add_return_relaxed)
 572:/mnt/c/Users/31740/Desktop/newcore/include/linux/atomic/atomic-arch-fallback.h **** 	int ret;
 573:/mnt/c/Users/31740/Desktop/newcore/include/linux/atomic/atomic-arch-fallback.h **** 	__atomic_pre_full_fence();
 574:/mnt/c/Users/31740/Desktop/newcore/include/linux/atomic/atomic-arch-fallback.h **** 	ret = arch_atomic_add_return_relaxed(i, v);
 575:/mnt/c/Users/31740/Desktop/newcore/include/linux/atomic/atomic-arch-fallback.h **** 	__atomic_post_full_fence();
 576:/mnt/c/Users/31740/Desktop/newcore/include/linux/atomic/atomic-arch-fallback.h **** 	return ret;
 577:/mnt/c/Users/31740/Desktop/newcore/include/linux/atomic/atomic-arch-fallback.h **** #else
 578:/mnt/c/Users/31740/Desktop/newcore/include/linux/atomic/atomic-arch-fallback.h **** #error "Unable to define raw_atomic_add_return"
 579:/mnt/c/Users/31740/Desktop/newcore/include/linux/atomic/atomic-arch-fallback.h **** #endif
 580:/mnt/c/Users/31740/Desktop/newcore/include/linux/atomic/atomic-arch-fallback.h **** }
 581:/mnt/c/Users/31740/Desktop/newcore/include/linux/atomic/atomic-arch-fallback.h **** 
 582:/mnt/c/Users/31740/Desktop/newcore/include/linux/atomic/atomic-arch-fallback.h **** /**
 583:/mnt/c/Users/31740/Desktop/newcore/include/linux/atomic/atomic-arch-fallback.h ****  * raw_atomic_add_return_acquire() - atomic add with acquire ordering
 584:/mnt/c/Users/31740/Desktop/newcore/include/linux/atomic/atomic-arch-fallback.h ****  * @i: int value to add
 585:/mnt/c/Users/31740/Desktop/newcore/include/linux/atomic/atomic-arch-fallback.h ****  * @v: pointer to atomic_t
 586:/mnt/c/Users/31740/Desktop/newcore/include/linux/atomic/atomic-arch-fallback.h ****  *
 587:/mnt/c/Users/31740/Desktop/newcore/include/linux/atomic/atomic-arch-fallback.h ****  * Atomically updates @v to (@v + @i) with acquire ordering.
 588:/mnt/c/Users/31740/Desktop/newcore/include/linux/atomic/atomic-arch-fallback.h ****  *
 589:/mnt/c/Users/31740/Desktop/newcore/include/linux/atomic/atomic-arch-fallback.h ****  * Safe to use in noinstr code; prefer atomic_add_return_acquire() elsewhere.
 590:/mnt/c/Users/31740/Desktop/newcore/include/linux/atomic/atomic-arch-fallback.h ****  *
 591:/mnt/c/Users/31740/Desktop/newcore/include/linux/atomic/atomic-arch-fallback.h ****  * Return: The updated value of @v.
 592:/mnt/c/Users/31740/Desktop/newcore/include/linux/atomic/atomic-arch-fallback.h ****  */
 593:/mnt/c/Users/31740/Desktop/newcore/include/linux/atomic/atomic-arch-fallback.h **** static __always_inline int
 594:/mnt/c/Users/31740/Desktop/newcore/include/linux/atomic/atomic-arch-fallback.h **** raw_atomic_add_return_acquire(int i, atomic_t *v)
 595:/mnt/c/Users/31740/Desktop/newcore/include/linux/atomic/atomic-arch-fallback.h **** {
 596:/mnt/c/Users/31740/Desktop/newcore/include/linux/atomic/atomic-arch-fallback.h **** #if defined(arch_atomic_add_return_acquire)
 597:/mnt/c/Users/31740/Desktop/newcore/include/linux/atomic/atomic-arch-fallback.h **** 	return arch_atomic_add_return_acquire(i, v);
 598:/mnt/c/Users/31740/Desktop/newcore/include/linux/atomic/atomic-arch-fallback.h **** #elif defined(arch_atomic_add_return_relaxed)
 599:/mnt/c/Users/31740/Desktop/newcore/include/linux/atomic/atomic-arch-fallback.h **** 	int ret = arch_atomic_add_return_relaxed(i, v);
 600:/mnt/c/Users/31740/Desktop/newcore/include/linux/atomic/atomic-arch-fallback.h **** 	__atomic_acquire_fence();
 601:/mnt/c/Users/31740/Desktop/newcore/include/linux/atomic/atomic-arch-fallback.h **** 	return ret;
 602:/mnt/c/Users/31740/Desktop/newcore/include/linux/atomic/atomic-arch-fallback.h **** #elif defined(arch_atomic_add_return)
 603:/mnt/c/Users/31740/Desktop/newcore/include/linux/atomic/atomic-arch-fallback.h **** 	return arch_atomic_add_return(i, v);
 604:/mnt/c/Users/31740/Desktop/newcore/include/linux/atomic/atomic-arch-fallback.h **** #else
 605:/mnt/c/Users/31740/Desktop/newcore/include/linux/atomic/atomic-arch-fallback.h **** #error "Unable to define raw_atomic_add_return_acquire"
 606:/mnt/c/Users/31740/Desktop/newcore/include/linux/atomic/atomic-arch-fallback.h **** #endif
 607:/mnt/c/Users/31740/Desktop/newcore/include/linux/atomic/atomic-arch-fallback.h **** }
 608:/mnt/c/Users/31740/Desktop/newcore/include/linux/atomic/atomic-arch-fallback.h **** 
 609:/mnt/c/Users/31740/Desktop/newcore/include/linux/atomic/atomic-arch-fallback.h **** /**
 610:/mnt/c/Users/31740/Desktop/newcore/include/linux/atomic/atomic-arch-fallback.h ****  * raw_atomic_add_return_release() - atomic add with release ordering
 611:/mnt/c/Users/31740/Desktop/newcore/include/linux/atomic/atomic-arch-fallback.h ****  * @i: int value to add
 612:/mnt/c/Users/31740/Desktop/newcore/include/linux/atomic/atomic-arch-fallback.h ****  * @v: pointer to atomic_t
ARM GAS  /tmp/ccyCLDig.s 			page 101


 613:/mnt/c/Users/31740/Desktop/newcore/include/linux/atomic/atomic-arch-fallback.h ****  *
 614:/mnt/c/Users/31740/Desktop/newcore/include/linux/atomic/atomic-arch-fallback.h ****  * Atomically updates @v to (@v + @i) with release ordering.
 615:/mnt/c/Users/31740/Desktop/newcore/include/linux/atomic/atomic-arch-fallback.h ****  *
 616:/mnt/c/Users/31740/Desktop/newcore/include/linux/atomic/atomic-arch-fallback.h ****  * Safe to use in noinstr code; prefer atomic_add_return_release() elsewhere.
 617:/mnt/c/Users/31740/Desktop/newcore/include/linux/atomic/atomic-arch-fallback.h ****  *
 618:/mnt/c/Users/31740/Desktop/newcore/include/linux/atomic/atomic-arch-fallback.h ****  * Return: The updated value of @v.
 619:/mnt/c/Users/31740/Desktop/newcore/include/linux/atomic/atomic-arch-fallback.h ****  */
 620:/mnt/c/Users/31740/Desktop/newcore/include/linux/atomic/atomic-arch-fallback.h **** static __always_inline int
 621:/mnt/c/Users/31740/Desktop/newcore/include/linux/atomic/atomic-arch-fallback.h **** raw_atomic_add_return_release(int i, atomic_t *v)
 622:/mnt/c/Users/31740/Desktop/newcore/include/linux/atomic/atomic-arch-fallback.h **** {
 623:/mnt/c/Users/31740/Desktop/newcore/include/linux/atomic/atomic-arch-fallback.h **** #if defined(arch_atomic_add_return_release)
 624:/mnt/c/Users/31740/Desktop/newcore/include/linux/atomic/atomic-arch-fallback.h **** 	return arch_atomic_add_return_release(i, v);
 625:/mnt/c/Users/31740/Desktop/newcore/include/linux/atomic/atomic-arch-fallback.h **** #elif defined(arch_atomic_add_return_relaxed)
 626:/mnt/c/Users/31740/Desktop/newcore/include/linux/atomic/atomic-arch-fallback.h **** 	__atomic_release_fence();
 627:/mnt/c/Users/31740/Desktop/newcore/include/linux/atomic/atomic-arch-fallback.h **** 	return arch_atomic_add_return_relaxed(i, v);
 628:/mnt/c/Users/31740/Desktop/newcore/include/linux/atomic/atomic-arch-fallback.h **** #elif defined(arch_atomic_add_return)
 629:/mnt/c/Users/31740/Desktop/newcore/include/linux/atomic/atomic-arch-fallback.h **** 	return arch_atomic_add_return(i, v);
 630:/mnt/c/Users/31740/Desktop/newcore/include/linux/atomic/atomic-arch-fallback.h **** #else
 631:/mnt/c/Users/31740/Desktop/newcore/include/linux/atomic/atomic-arch-fallback.h **** #error "Unable to define raw_atomic_add_return_release"
 632:/mnt/c/Users/31740/Desktop/newcore/include/linux/atomic/atomic-arch-fallback.h **** #endif
 633:/mnt/c/Users/31740/Desktop/newcore/include/linux/atomic/atomic-arch-fallback.h **** }
 634:/mnt/c/Users/31740/Desktop/newcore/include/linux/atomic/atomic-arch-fallback.h **** 
 635:/mnt/c/Users/31740/Desktop/newcore/include/linux/atomic/atomic-arch-fallback.h **** /**
 636:/mnt/c/Users/31740/Desktop/newcore/include/linux/atomic/atomic-arch-fallback.h ****  * raw_atomic_add_return_relaxed() - atomic add with relaxed ordering
 637:/mnt/c/Users/31740/Desktop/newcore/include/linux/atomic/atomic-arch-fallback.h ****  * @i: int value to add
 638:/mnt/c/Users/31740/Desktop/newcore/include/linux/atomic/atomic-arch-fallback.h ****  * @v: pointer to atomic_t
 639:/mnt/c/Users/31740/Desktop/newcore/include/linux/atomic/atomic-arch-fallback.h ****  *
 640:/mnt/c/Users/31740/Desktop/newcore/include/linux/atomic/atomic-arch-fallback.h ****  * Atomically updates @v to (@v + @i) with relaxed ordering.
 641:/mnt/c/Users/31740/Desktop/newcore/include/linux/atomic/atomic-arch-fallback.h ****  *
 642:/mnt/c/Users/31740/Desktop/newcore/include/linux/atomic/atomic-arch-fallback.h ****  * Safe to use in noinstr code; prefer atomic_add_return_relaxed() elsewhere.
 643:/mnt/c/Users/31740/Desktop/newcore/include/linux/atomic/atomic-arch-fallback.h ****  *
 644:/mnt/c/Users/31740/Desktop/newcore/include/linux/atomic/atomic-arch-fallback.h ****  * Return: The updated value of @v.
 645:/mnt/c/Users/31740/Desktop/newcore/include/linux/atomic/atomic-arch-fallback.h ****  */
 646:/mnt/c/Users/31740/Desktop/newcore/include/linux/atomic/atomic-arch-fallback.h **** static __always_inline int
 647:/mnt/c/Users/31740/Desktop/newcore/include/linux/atomic/atomic-arch-fallback.h **** raw_atomic_add_return_relaxed(int i, atomic_t *v)
 648:/mnt/c/Users/31740/Desktop/newcore/include/linux/atomic/atomic-arch-fallback.h **** {
 649:/mnt/c/Users/31740/Desktop/newcore/include/linux/atomic/atomic-arch-fallback.h **** #if defined(arch_atomic_add_return_relaxed)
 650:/mnt/c/Users/31740/Desktop/newcore/include/linux/atomic/atomic-arch-fallback.h **** 	return arch_atomic_add_return_relaxed(i, v);
 651:/mnt/c/Users/31740/Desktop/newcore/include/linux/atomic/atomic-arch-fallback.h **** #elif defined(arch_atomic_add_return)
 652:/mnt/c/Users/31740/Desktop/newcore/include/linux/atomic/atomic-arch-fallback.h **** 	return arch_atomic_add_return(i, v);
 653:/mnt/c/Users/31740/Desktop/newcore/include/linux/atomic/atomic-arch-fallback.h **** #else
 654:/mnt/c/Users/31740/Desktop/newcore/include/linux/atomic/atomic-arch-fallback.h **** #error "Unable to define raw_atomic_add_return_relaxed"
 655:/mnt/c/Users/31740/Desktop/newcore/include/linux/atomic/atomic-arch-fallback.h **** #endif
 656:/mnt/c/Users/31740/Desktop/newcore/include/linux/atomic/atomic-arch-fallback.h **** }
 657:/mnt/c/Users/31740/Desktop/newcore/include/linux/atomic/atomic-arch-fallback.h **** 
 658:/mnt/c/Users/31740/Desktop/newcore/include/linux/atomic/atomic-arch-fallback.h **** /**
 659:/mnt/c/Users/31740/Desktop/newcore/include/linux/atomic/atomic-arch-fallback.h ****  * raw_atomic_fetch_add() - atomic add with full ordering
 660:/mnt/c/Users/31740/Desktop/newcore/include/linux/atomic/atomic-arch-fallback.h ****  * @i: int value to add
 661:/mnt/c/Users/31740/Desktop/newcore/include/linux/atomic/atomic-arch-fallback.h ****  * @v: pointer to atomic_t
 662:/mnt/c/Users/31740/Desktop/newcore/include/linux/atomic/atomic-arch-fallback.h ****  *
 663:/mnt/c/Users/31740/Desktop/newcore/include/linux/atomic/atomic-arch-fallback.h ****  * Atomically updates @v to (@v + @i) with full ordering.
 664:/mnt/c/Users/31740/Desktop/newcore/include/linux/atomic/atomic-arch-fallback.h ****  *
 665:/mnt/c/Users/31740/Desktop/newcore/include/linux/atomic/atomic-arch-fallback.h ****  * Safe to use in noinstr code; prefer atomic_fetch_add() elsewhere.
 666:/mnt/c/Users/31740/Desktop/newcore/include/linux/atomic/atomic-arch-fallback.h ****  *
 667:/mnt/c/Users/31740/Desktop/newcore/include/linux/atomic/atomic-arch-fallback.h ****  * Return: The original value of @v.
 668:/mnt/c/Users/31740/Desktop/newcore/include/linux/atomic/atomic-arch-fallback.h ****  */
 669:/mnt/c/Users/31740/Desktop/newcore/include/linux/atomic/atomic-arch-fallback.h **** static __always_inline int
ARM GAS  /tmp/ccyCLDig.s 			page 102


 670:/mnt/c/Users/31740/Desktop/newcore/include/linux/atomic/atomic-arch-fallback.h **** raw_atomic_fetch_add(int i, atomic_t *v)
 671:/mnt/c/Users/31740/Desktop/newcore/include/linux/atomic/atomic-arch-fallback.h **** {
 672:/mnt/c/Users/31740/Desktop/newcore/include/linux/atomic/atomic-arch-fallback.h **** #if defined(arch_atomic_fetch_add)
 673:/mnt/c/Users/31740/Desktop/newcore/include/linux/atomic/atomic-arch-fallback.h **** 	return arch_atomic_fetch_add(i, v);
 674:/mnt/c/Users/31740/Desktop/newcore/include/linux/atomic/atomic-arch-fallback.h **** #elif defined(arch_atomic_fetch_add_relaxed)
 675:/mnt/c/Users/31740/Desktop/newcore/include/linux/atomic/atomic-arch-fallback.h **** 	int ret;
 676:/mnt/c/Users/31740/Desktop/newcore/include/linux/atomic/atomic-arch-fallback.h **** 	__atomic_pre_full_fence();
 677:/mnt/c/Users/31740/Desktop/newcore/include/linux/atomic/atomic-arch-fallback.h **** 	ret = arch_atomic_fetch_add_relaxed(i, v);
 678:/mnt/c/Users/31740/Desktop/newcore/include/linux/atomic/atomic-arch-fallback.h **** 	__atomic_post_full_fence();
 679:/mnt/c/Users/31740/Desktop/newcore/include/linux/atomic/atomic-arch-fallback.h **** 	return ret;
 680:/mnt/c/Users/31740/Desktop/newcore/include/linux/atomic/atomic-arch-fallback.h **** #else
 681:/mnt/c/Users/31740/Desktop/newcore/include/linux/atomic/atomic-arch-fallback.h **** #error "Unable to define raw_atomic_fetch_add"
 682:/mnt/c/Users/31740/Desktop/newcore/include/linux/atomic/atomic-arch-fallback.h **** #endif
 683:/mnt/c/Users/31740/Desktop/newcore/include/linux/atomic/atomic-arch-fallback.h **** }
 684:/mnt/c/Users/31740/Desktop/newcore/include/linux/atomic/atomic-arch-fallback.h **** 
 685:/mnt/c/Users/31740/Desktop/newcore/include/linux/atomic/atomic-arch-fallback.h **** /**
 686:/mnt/c/Users/31740/Desktop/newcore/include/linux/atomic/atomic-arch-fallback.h ****  * raw_atomic_fetch_add_acquire() - atomic add with acquire ordering
 687:/mnt/c/Users/31740/Desktop/newcore/include/linux/atomic/atomic-arch-fallback.h ****  * @i: int value to add
 688:/mnt/c/Users/31740/Desktop/newcore/include/linux/atomic/atomic-arch-fallback.h ****  * @v: pointer to atomic_t
 689:/mnt/c/Users/31740/Desktop/newcore/include/linux/atomic/atomic-arch-fallback.h ****  *
 690:/mnt/c/Users/31740/Desktop/newcore/include/linux/atomic/atomic-arch-fallback.h ****  * Atomically updates @v to (@v + @i) with acquire ordering.
 691:/mnt/c/Users/31740/Desktop/newcore/include/linux/atomic/atomic-arch-fallback.h ****  *
 692:/mnt/c/Users/31740/Desktop/newcore/include/linux/atomic/atomic-arch-fallback.h ****  * Safe to use in noinstr code; prefer atomic_fetch_add_acquire() elsewhere.
 693:/mnt/c/Users/31740/Desktop/newcore/include/linux/atomic/atomic-arch-fallback.h ****  *
 694:/mnt/c/Users/31740/Desktop/newcore/include/linux/atomic/atomic-arch-fallback.h ****  * Return: The original value of @v.
 695:/mnt/c/Users/31740/Desktop/newcore/include/linux/atomic/atomic-arch-fallback.h ****  */
 696:/mnt/c/Users/31740/Desktop/newcore/include/linux/atomic/atomic-arch-fallback.h **** static __always_inline int
 697:/mnt/c/Users/31740/Desktop/newcore/include/linux/atomic/atomic-arch-fallback.h **** raw_atomic_fetch_add_acquire(int i, atomic_t *v)
 698:/mnt/c/Users/31740/Desktop/newcore/include/linux/atomic/atomic-arch-fallback.h **** {
 699:/mnt/c/Users/31740/Desktop/newcore/include/linux/atomic/atomic-arch-fallback.h **** #if defined(arch_atomic_fetch_add_acquire)
 700:/mnt/c/Users/31740/Desktop/newcore/include/linux/atomic/atomic-arch-fallback.h **** 	return arch_atomic_fetch_add_acquire(i, v);
 701:/mnt/c/Users/31740/Desktop/newcore/include/linux/atomic/atomic-arch-fallback.h **** #elif defined(arch_atomic_fetch_add_relaxed)
 702:/mnt/c/Users/31740/Desktop/newcore/include/linux/atomic/atomic-arch-fallback.h **** 	int ret = arch_atomic_fetch_add_relaxed(i, v);
 703:/mnt/c/Users/31740/Desktop/newcore/include/linux/atomic/atomic-arch-fallback.h **** 	__atomic_acquire_fence();
 704:/mnt/c/Users/31740/Desktop/newcore/include/linux/atomic/atomic-arch-fallback.h **** 	return ret;
 705:/mnt/c/Users/31740/Desktop/newcore/include/linux/atomic/atomic-arch-fallback.h **** #elif defined(arch_atomic_fetch_add)
 706:/mnt/c/Users/31740/Desktop/newcore/include/linux/atomic/atomic-arch-fallback.h **** 	return arch_atomic_fetch_add(i, v);
 707:/mnt/c/Users/31740/Desktop/newcore/include/linux/atomic/atomic-arch-fallback.h **** #else
 708:/mnt/c/Users/31740/Desktop/newcore/include/linux/atomic/atomic-arch-fallback.h **** #error "Unable to define raw_atomic_fetch_add_acquire"
 709:/mnt/c/Users/31740/Desktop/newcore/include/linux/atomic/atomic-arch-fallback.h **** #endif
 710:/mnt/c/Users/31740/Desktop/newcore/include/linux/atomic/atomic-arch-fallback.h **** }
 711:/mnt/c/Users/31740/Desktop/newcore/include/linux/atomic/atomic-arch-fallback.h **** 
 712:/mnt/c/Users/31740/Desktop/newcore/include/linux/atomic/atomic-arch-fallback.h **** /**
 713:/mnt/c/Users/31740/Desktop/newcore/include/linux/atomic/atomic-arch-fallback.h ****  * raw_atomic_fetch_add_release() - atomic add with release ordering
 714:/mnt/c/Users/31740/Desktop/newcore/include/linux/atomic/atomic-arch-fallback.h ****  * @i: int value to add
 715:/mnt/c/Users/31740/Desktop/newcore/include/linux/atomic/atomic-arch-fallback.h ****  * @v: pointer to atomic_t
 716:/mnt/c/Users/31740/Desktop/newcore/include/linux/atomic/atomic-arch-fallback.h ****  *
 717:/mnt/c/Users/31740/Desktop/newcore/include/linux/atomic/atomic-arch-fallback.h ****  * Atomically updates @v to (@v + @i) with release ordering.
 718:/mnt/c/Users/31740/Desktop/newcore/include/linux/atomic/atomic-arch-fallback.h ****  *
 719:/mnt/c/Users/31740/Desktop/newcore/include/linux/atomic/atomic-arch-fallback.h ****  * Safe to use in noinstr code; prefer atomic_fetch_add_release() elsewhere.
 720:/mnt/c/Users/31740/Desktop/newcore/include/linux/atomic/atomic-arch-fallback.h ****  *
 721:/mnt/c/Users/31740/Desktop/newcore/include/linux/atomic/atomic-arch-fallback.h ****  * Return: The original value of @v.
 722:/mnt/c/Users/31740/Desktop/newcore/include/linux/atomic/atomic-arch-fallback.h ****  */
 723:/mnt/c/Users/31740/Desktop/newcore/include/linux/atomic/atomic-arch-fallback.h **** static __always_inline int
 724:/mnt/c/Users/31740/Desktop/newcore/include/linux/atomic/atomic-arch-fallback.h **** raw_atomic_fetch_add_release(int i, atomic_t *v)
 725:/mnt/c/Users/31740/Desktop/newcore/include/linux/atomic/atomic-arch-fallback.h **** {
 726:/mnt/c/Users/31740/Desktop/newcore/include/linux/atomic/atomic-arch-fallback.h **** #if defined(arch_atomic_fetch_add_release)
ARM GAS  /tmp/ccyCLDig.s 			page 103


 727:/mnt/c/Users/31740/Desktop/newcore/include/linux/atomic/atomic-arch-fallback.h **** 	return arch_atomic_fetch_add_release(i, v);
 728:/mnt/c/Users/31740/Desktop/newcore/include/linux/atomic/atomic-arch-fallback.h **** #elif defined(arch_atomic_fetch_add_relaxed)
 729:/mnt/c/Users/31740/Desktop/newcore/include/linux/atomic/atomic-arch-fallback.h **** 	__atomic_release_fence();
 730:/mnt/c/Users/31740/Desktop/newcore/include/linux/atomic/atomic-arch-fallback.h **** 	return arch_atomic_fetch_add_relaxed(i, v);
 731:/mnt/c/Users/31740/Desktop/newcore/include/linux/atomic/atomic-arch-fallback.h **** #elif defined(arch_atomic_fetch_add)
 732:/mnt/c/Users/31740/Desktop/newcore/include/linux/atomic/atomic-arch-fallback.h **** 	return arch_atomic_fetch_add(i, v);
 733:/mnt/c/Users/31740/Desktop/newcore/include/linux/atomic/atomic-arch-fallback.h **** #else
 734:/mnt/c/Users/31740/Desktop/newcore/include/linux/atomic/atomic-arch-fallback.h **** #error "Unable to define raw_atomic_fetch_add_release"
 735:/mnt/c/Users/31740/Desktop/newcore/include/linux/atomic/atomic-arch-fallback.h **** #endif
 736:/mnt/c/Users/31740/Desktop/newcore/include/linux/atomic/atomic-arch-fallback.h **** }
 737:/mnt/c/Users/31740/Desktop/newcore/include/linux/atomic/atomic-arch-fallback.h **** 
 738:/mnt/c/Users/31740/Desktop/newcore/include/linux/atomic/atomic-arch-fallback.h **** /**
 739:/mnt/c/Users/31740/Desktop/newcore/include/linux/atomic/atomic-arch-fallback.h ****  * raw_atomic_fetch_add_relaxed() - atomic add with relaxed ordering
 740:/mnt/c/Users/31740/Desktop/newcore/include/linux/atomic/atomic-arch-fallback.h ****  * @i: int value to add
 741:/mnt/c/Users/31740/Desktop/newcore/include/linux/atomic/atomic-arch-fallback.h ****  * @v: pointer to atomic_t
 742:/mnt/c/Users/31740/Desktop/newcore/include/linux/atomic/atomic-arch-fallback.h ****  *
 743:/mnt/c/Users/31740/Desktop/newcore/include/linux/atomic/atomic-arch-fallback.h ****  * Atomically updates @v to (@v + @i) with relaxed ordering.
 744:/mnt/c/Users/31740/Desktop/newcore/include/linux/atomic/atomic-arch-fallback.h ****  *
 745:/mnt/c/Users/31740/Desktop/newcore/include/linux/atomic/atomic-arch-fallback.h ****  * Safe to use in noinstr code; prefer atomic_fetch_add_relaxed() elsewhere.
 746:/mnt/c/Users/31740/Desktop/newcore/include/linux/atomic/atomic-arch-fallback.h ****  *
 747:/mnt/c/Users/31740/Desktop/newcore/include/linux/atomic/atomic-arch-fallback.h ****  * Return: The original value of @v.
 748:/mnt/c/Users/31740/Desktop/newcore/include/linux/atomic/atomic-arch-fallback.h ****  */
 749:/mnt/c/Users/31740/Desktop/newcore/include/linux/atomic/atomic-arch-fallback.h **** static __always_inline int
 750:/mnt/c/Users/31740/Desktop/newcore/include/linux/atomic/atomic-arch-fallback.h **** raw_atomic_fetch_add_relaxed(int i, atomic_t *v)
 751:/mnt/c/Users/31740/Desktop/newcore/include/linux/atomic/atomic-arch-fallback.h **** {
 752:/mnt/c/Users/31740/Desktop/newcore/include/linux/atomic/atomic-arch-fallback.h **** #if defined(arch_atomic_fetch_add_relaxed)
 753:/mnt/c/Users/31740/Desktop/newcore/include/linux/atomic/atomic-arch-fallback.h **** 	return arch_atomic_fetch_add_relaxed(i, v);
 754:/mnt/c/Users/31740/Desktop/newcore/include/linux/atomic/atomic-arch-fallback.h **** #elif defined(arch_atomic_fetch_add)
 755:/mnt/c/Users/31740/Desktop/newcore/include/linux/atomic/atomic-arch-fallback.h **** 	return arch_atomic_fetch_add(i, v);
 756:/mnt/c/Users/31740/Desktop/newcore/include/linux/atomic/atomic-arch-fallback.h **** #else
 757:/mnt/c/Users/31740/Desktop/newcore/include/linux/atomic/atomic-arch-fallback.h **** #error "Unable to define raw_atomic_fetch_add_relaxed"
 758:/mnt/c/Users/31740/Desktop/newcore/include/linux/atomic/atomic-arch-fallback.h **** #endif
 759:/mnt/c/Users/31740/Desktop/newcore/include/linux/atomic/atomic-arch-fallback.h **** }
 760:/mnt/c/Users/31740/Desktop/newcore/include/linux/atomic/atomic-arch-fallback.h **** 
 761:/mnt/c/Users/31740/Desktop/newcore/include/linux/atomic/atomic-arch-fallback.h **** /**
 762:/mnt/c/Users/31740/Desktop/newcore/include/linux/atomic/atomic-arch-fallback.h ****  * raw_atomic_sub() - atomic subtract with relaxed ordering
 763:/mnt/c/Users/31740/Desktop/newcore/include/linux/atomic/atomic-arch-fallback.h ****  * @i: int value to subtract
 764:/mnt/c/Users/31740/Desktop/newcore/include/linux/atomic/atomic-arch-fallback.h ****  * @v: pointer to atomic_t
 765:/mnt/c/Users/31740/Desktop/newcore/include/linux/atomic/atomic-arch-fallback.h ****  *
 766:/mnt/c/Users/31740/Desktop/newcore/include/linux/atomic/atomic-arch-fallback.h ****  * Atomically updates @v to (@v - @i) with relaxed ordering.
 767:/mnt/c/Users/31740/Desktop/newcore/include/linux/atomic/atomic-arch-fallback.h ****  *
 768:/mnt/c/Users/31740/Desktop/newcore/include/linux/atomic/atomic-arch-fallback.h ****  * Safe to use in noinstr code; prefer atomic_sub() elsewhere.
 769:/mnt/c/Users/31740/Desktop/newcore/include/linux/atomic/atomic-arch-fallback.h ****  *
 770:/mnt/c/Users/31740/Desktop/newcore/include/linux/atomic/atomic-arch-fallback.h ****  * Return: Nothing.
 771:/mnt/c/Users/31740/Desktop/newcore/include/linux/atomic/atomic-arch-fallback.h ****  */
 772:/mnt/c/Users/31740/Desktop/newcore/include/linux/atomic/atomic-arch-fallback.h **** static __always_inline void
 773:/mnt/c/Users/31740/Desktop/newcore/include/linux/atomic/atomic-arch-fallback.h **** raw_atomic_sub(int i, atomic_t *v)
 774:/mnt/c/Users/31740/Desktop/newcore/include/linux/atomic/atomic-arch-fallback.h **** {
 775:/mnt/c/Users/31740/Desktop/newcore/include/linux/atomic/atomic-arch-fallback.h **** 	arch_atomic_sub(i, v);
 776:/mnt/c/Users/31740/Desktop/newcore/include/linux/atomic/atomic-arch-fallback.h **** }
 777:/mnt/c/Users/31740/Desktop/newcore/include/linux/atomic/atomic-arch-fallback.h **** 
 778:/mnt/c/Users/31740/Desktop/newcore/include/linux/atomic/atomic-arch-fallback.h **** /**
 779:/mnt/c/Users/31740/Desktop/newcore/include/linux/atomic/atomic-arch-fallback.h ****  * raw_atomic_sub_return() - atomic subtract with full ordering
 780:/mnt/c/Users/31740/Desktop/newcore/include/linux/atomic/atomic-arch-fallback.h ****  * @i: int value to subtract
 781:/mnt/c/Users/31740/Desktop/newcore/include/linux/atomic/atomic-arch-fallback.h ****  * @v: pointer to atomic_t
 782:/mnt/c/Users/31740/Desktop/newcore/include/linux/atomic/atomic-arch-fallback.h ****  *
 783:/mnt/c/Users/31740/Desktop/newcore/include/linux/atomic/atomic-arch-fallback.h ****  * Atomically updates @v to (@v - @i) with full ordering.
ARM GAS  /tmp/ccyCLDig.s 			page 104


 784:/mnt/c/Users/31740/Desktop/newcore/include/linux/atomic/atomic-arch-fallback.h ****  *
 785:/mnt/c/Users/31740/Desktop/newcore/include/linux/atomic/atomic-arch-fallback.h ****  * Safe to use in noinstr code; prefer atomic_sub_return() elsewhere.
 786:/mnt/c/Users/31740/Desktop/newcore/include/linux/atomic/atomic-arch-fallback.h ****  *
 787:/mnt/c/Users/31740/Desktop/newcore/include/linux/atomic/atomic-arch-fallback.h ****  * Return: The updated value of @v.
 788:/mnt/c/Users/31740/Desktop/newcore/include/linux/atomic/atomic-arch-fallback.h ****  */
 789:/mnt/c/Users/31740/Desktop/newcore/include/linux/atomic/atomic-arch-fallback.h **** static __always_inline int
 790:/mnt/c/Users/31740/Desktop/newcore/include/linux/atomic/atomic-arch-fallback.h **** raw_atomic_sub_return(int i, atomic_t *v)
 791:/mnt/c/Users/31740/Desktop/newcore/include/linux/atomic/atomic-arch-fallback.h **** {
 792:/mnt/c/Users/31740/Desktop/newcore/include/linux/atomic/atomic-arch-fallback.h **** #if defined(arch_atomic_sub_return)
 793:/mnt/c/Users/31740/Desktop/newcore/include/linux/atomic/atomic-arch-fallback.h **** 	return arch_atomic_sub_return(i, v);
 794:/mnt/c/Users/31740/Desktop/newcore/include/linux/atomic/atomic-arch-fallback.h **** #elif defined(arch_atomic_sub_return_relaxed)
 795:/mnt/c/Users/31740/Desktop/newcore/include/linux/atomic/atomic-arch-fallback.h **** 	int ret;
 796:/mnt/c/Users/31740/Desktop/newcore/include/linux/atomic/atomic-arch-fallback.h **** 	__atomic_pre_full_fence();
 797:/mnt/c/Users/31740/Desktop/newcore/include/linux/atomic/atomic-arch-fallback.h **** 	ret = arch_atomic_sub_return_relaxed(i, v);
 798:/mnt/c/Users/31740/Desktop/newcore/include/linux/atomic/atomic-arch-fallback.h **** 	__atomic_post_full_fence();
 799:/mnt/c/Users/31740/Desktop/newcore/include/linux/atomic/atomic-arch-fallback.h **** 	return ret;
 800:/mnt/c/Users/31740/Desktop/newcore/include/linux/atomic/atomic-arch-fallback.h **** #else
 801:/mnt/c/Users/31740/Desktop/newcore/include/linux/atomic/atomic-arch-fallback.h **** 	volatile int *p = (volatile int *)&v->counter;
 802:/mnt/c/Users/31740/Desktop/newcore/include/linux/atomic/atomic-arch-fallback.h **** 	int ret = *p;
 803:/mnt/c/Users/31740/Desktop/newcore/include/linux/atomic/atomic-arch-fallback.h **** 	*p -= i;
 804:/mnt/c/Users/31740/Desktop/newcore/include/linux/atomic/atomic-arch-fallback.h **** 	return ret;
 805:/mnt/c/Users/31740/Desktop/newcore/include/linux/atomic/atomic-arch-fallback.h **** #endif
 806:/mnt/c/Users/31740/Desktop/newcore/include/linux/atomic/atomic-arch-fallback.h **** }
 807:/mnt/c/Users/31740/Desktop/newcore/include/linux/atomic/atomic-arch-fallback.h **** 
 808:/mnt/c/Users/31740/Desktop/newcore/include/linux/atomic/atomic-arch-fallback.h **** 
 809:/mnt/c/Users/31740/Desktop/newcore/include/linux/atomic/atomic-arch-fallback.h **** /**
 810:/mnt/c/Users/31740/Desktop/newcore/include/linux/atomic/atomic-arch-fallback.h ****  * raw_atomic_sub_return_acquire() - atomic subtract with acquire ordering
 811:/mnt/c/Users/31740/Desktop/newcore/include/linux/atomic/atomic-arch-fallback.h ****  * @i: int value to subtract
 812:/mnt/c/Users/31740/Desktop/newcore/include/linux/atomic/atomic-arch-fallback.h ****  * @v: pointer to atomic_t
 813:/mnt/c/Users/31740/Desktop/newcore/include/linux/atomic/atomic-arch-fallback.h ****  *
 814:/mnt/c/Users/31740/Desktop/newcore/include/linux/atomic/atomic-arch-fallback.h ****  * Atomically updates @v to (@v - @i) with acquire ordering.
 815:/mnt/c/Users/31740/Desktop/newcore/include/linux/atomic/atomic-arch-fallback.h ****  *
 816:/mnt/c/Users/31740/Desktop/newcore/include/linux/atomic/atomic-arch-fallback.h ****  * Safe to use in noinstr code; prefer atomic_sub_return_acquire() elsewhere.
 817:/mnt/c/Users/31740/Desktop/newcore/include/linux/atomic/atomic-arch-fallback.h ****  *
 818:/mnt/c/Users/31740/Desktop/newcore/include/linux/atomic/atomic-arch-fallback.h ****  * Return: The updated value of @v.
 819:/mnt/c/Users/31740/Desktop/newcore/include/linux/atomic/atomic-arch-fallback.h ****  */
 820:/mnt/c/Users/31740/Desktop/newcore/include/linux/atomic/atomic-arch-fallback.h **** static __always_inline int
 821:/mnt/c/Users/31740/Desktop/newcore/include/linux/atomic/atomic-arch-fallback.h **** raw_atomic_sub_return_acquire(int i, atomic_t *v)
 822:/mnt/c/Users/31740/Desktop/newcore/include/linux/atomic/atomic-arch-fallback.h **** {
 823:/mnt/c/Users/31740/Desktop/newcore/include/linux/atomic/atomic-arch-fallback.h **** #if defined(arch_atomic_sub_return_acquire)
 824:/mnt/c/Users/31740/Desktop/newcore/include/linux/atomic/atomic-arch-fallback.h **** 	return arch_atomic_sub_return_acquire(i, v);
 825:/mnt/c/Users/31740/Desktop/newcore/include/linux/atomic/atomic-arch-fallback.h **** #elif defined(arch_atomic_sub_return_relaxed)
 826:/mnt/c/Users/31740/Desktop/newcore/include/linux/atomic/atomic-arch-fallback.h **** 	int ret = arch_atomic_sub_return_relaxed(i, v);
 827:/mnt/c/Users/31740/Desktop/newcore/include/linux/atomic/atomic-arch-fallback.h **** 	__atomic_acquire_fence();
 828:/mnt/c/Users/31740/Desktop/newcore/include/linux/atomic/atomic-arch-fallback.h **** 	return ret;
 829:/mnt/c/Users/31740/Desktop/newcore/include/linux/atomic/atomic-arch-fallback.h **** #elif defined(arch_atomic_sub_return)
 830:/mnt/c/Users/31740/Desktop/newcore/include/linux/atomic/atomic-arch-fallback.h **** 	return arch_atomic_sub_return(i, v);
 831:/mnt/c/Users/31740/Desktop/newcore/include/linux/atomic/atomic-arch-fallback.h **** #else
 832:/mnt/c/Users/31740/Desktop/newcore/include/linux/atomic/atomic-arch-fallback.h **** #error "Unable to define raw_atomic_sub_return_acquire"
 833:/mnt/c/Users/31740/Desktop/newcore/include/linux/atomic/atomic-arch-fallback.h **** #endif
 834:/mnt/c/Users/31740/Desktop/newcore/include/linux/atomic/atomic-arch-fallback.h **** }
 835:/mnt/c/Users/31740/Desktop/newcore/include/linux/atomic/atomic-arch-fallback.h **** 
 836:/mnt/c/Users/31740/Desktop/newcore/include/linux/atomic/atomic-arch-fallback.h **** /**
 837:/mnt/c/Users/31740/Desktop/newcore/include/linux/atomic/atomic-arch-fallback.h ****  * raw_atomic_sub_return_release() - atomic subtract with release ordering
 838:/mnt/c/Users/31740/Desktop/newcore/include/linux/atomic/atomic-arch-fallback.h ****  * @i: int value to subtract
 839:/mnt/c/Users/31740/Desktop/newcore/include/linux/atomic/atomic-arch-fallback.h ****  * @v: pointer to atomic_t
 840:/mnt/c/Users/31740/Desktop/newcore/include/linux/atomic/atomic-arch-fallback.h ****  *
ARM GAS  /tmp/ccyCLDig.s 			page 105


 841:/mnt/c/Users/31740/Desktop/newcore/include/linux/atomic/atomic-arch-fallback.h ****  * Atomically updates @v to (@v - @i) with release ordering.
 842:/mnt/c/Users/31740/Desktop/newcore/include/linux/atomic/atomic-arch-fallback.h ****  *
 843:/mnt/c/Users/31740/Desktop/newcore/include/linux/atomic/atomic-arch-fallback.h ****  * Safe to use in noinstr code; prefer atomic_sub_return_release() elsewhere.
 844:/mnt/c/Users/31740/Desktop/newcore/include/linux/atomic/atomic-arch-fallback.h ****  *
 845:/mnt/c/Users/31740/Desktop/newcore/include/linux/atomic/atomic-arch-fallback.h ****  * Return: The updated value of @v.
 846:/mnt/c/Users/31740/Desktop/newcore/include/linux/atomic/atomic-arch-fallback.h ****  */
 847:/mnt/c/Users/31740/Desktop/newcore/include/linux/atomic/atomic-arch-fallback.h **** static __always_inline int
 848:/mnt/c/Users/31740/Desktop/newcore/include/linux/atomic/atomic-arch-fallback.h **** raw_atomic_sub_return_release(int i, atomic_t *v)
 849:/mnt/c/Users/31740/Desktop/newcore/include/linux/atomic/atomic-arch-fallback.h **** {
 850:/mnt/c/Users/31740/Desktop/newcore/include/linux/atomic/atomic-arch-fallback.h **** #if defined(arch_atomic_sub_return_release)
 851:/mnt/c/Users/31740/Desktop/newcore/include/linux/atomic/atomic-arch-fallback.h **** 	return arch_atomic_sub_return_release(i, v);
 852:/mnt/c/Users/31740/Desktop/newcore/include/linux/atomic/atomic-arch-fallback.h **** #elif defined(arch_atomic_sub_return_relaxed)
 853:/mnt/c/Users/31740/Desktop/newcore/include/linux/atomic/atomic-arch-fallback.h **** 	__atomic_release_fence();
 854:/mnt/c/Users/31740/Desktop/newcore/include/linux/atomic/atomic-arch-fallback.h **** 	return arch_atomic_sub_return_relaxed(i, v);
 855:/mnt/c/Users/31740/Desktop/newcore/include/linux/atomic/atomic-arch-fallback.h **** #elif defined(arch_atomic_sub_return)
 856:/mnt/c/Users/31740/Desktop/newcore/include/linux/atomic/atomic-arch-fallback.h **** 	return arch_atomic_sub_return(i, v);
 857:/mnt/c/Users/31740/Desktop/newcore/include/linux/atomic/atomic-arch-fallback.h **** #else
 858:/mnt/c/Users/31740/Desktop/newcore/include/linux/atomic/atomic-arch-fallback.h **** #error "Unable to define raw_atomic_sub_return_release"
 859:/mnt/c/Users/31740/Desktop/newcore/include/linux/atomic/atomic-arch-fallback.h **** #endif
 860:/mnt/c/Users/31740/Desktop/newcore/include/linux/atomic/atomic-arch-fallback.h **** }
 861:/mnt/c/Users/31740/Desktop/newcore/include/linux/atomic/atomic-arch-fallback.h **** 
 862:/mnt/c/Users/31740/Desktop/newcore/include/linux/atomic/atomic-arch-fallback.h **** /**
 863:/mnt/c/Users/31740/Desktop/newcore/include/linux/atomic/atomic-arch-fallback.h ****  * raw_atomic_sub_return_relaxed() - atomic subtract with relaxed ordering
 864:/mnt/c/Users/31740/Desktop/newcore/include/linux/atomic/atomic-arch-fallback.h ****  * @i: int value to subtract
 865:/mnt/c/Users/31740/Desktop/newcore/include/linux/atomic/atomic-arch-fallback.h ****  * @v: pointer to atomic_t
 866:/mnt/c/Users/31740/Desktop/newcore/include/linux/atomic/atomic-arch-fallback.h ****  *
 867:/mnt/c/Users/31740/Desktop/newcore/include/linux/atomic/atomic-arch-fallback.h ****  * Atomically updates @v to (@v - @i) with relaxed ordering.
 868:/mnt/c/Users/31740/Desktop/newcore/include/linux/atomic/atomic-arch-fallback.h ****  *
 869:/mnt/c/Users/31740/Desktop/newcore/include/linux/atomic/atomic-arch-fallback.h ****  * Safe to use in noinstr code; prefer atomic_sub_return_relaxed() elsewhere.
 870:/mnt/c/Users/31740/Desktop/newcore/include/linux/atomic/atomic-arch-fallback.h ****  *
 871:/mnt/c/Users/31740/Desktop/newcore/include/linux/atomic/atomic-arch-fallback.h ****  * Return: The updated value of @v.
 872:/mnt/c/Users/31740/Desktop/newcore/include/linux/atomic/atomic-arch-fallback.h ****  */
 873:/mnt/c/Users/31740/Desktop/newcore/include/linux/atomic/atomic-arch-fallback.h **** static __always_inline int
 874:/mnt/c/Users/31740/Desktop/newcore/include/linux/atomic/atomic-arch-fallback.h **** raw_atomic_sub_return_relaxed(int i, atomic_t *v)
 875:/mnt/c/Users/31740/Desktop/newcore/include/linux/atomic/atomic-arch-fallback.h **** {
 876:/mnt/c/Users/31740/Desktop/newcore/include/linux/atomic/atomic-arch-fallback.h **** #if defined(arch_atomic_sub_return_relaxed)
 877:/mnt/c/Users/31740/Desktop/newcore/include/linux/atomic/atomic-arch-fallback.h **** 	return arch_atomic_sub_return_relaxed(i, v);
 878:/mnt/c/Users/31740/Desktop/newcore/include/linux/atomic/atomic-arch-fallback.h **** #elif defined(arch_atomic_sub_return)
 879:/mnt/c/Users/31740/Desktop/newcore/include/linux/atomic/atomic-arch-fallback.h **** 	return arch_atomic_sub_return(i, v);
 880:/mnt/c/Users/31740/Desktop/newcore/include/linux/atomic/atomic-arch-fallback.h **** #else
 881:/mnt/c/Users/31740/Desktop/newcore/include/linux/atomic/atomic-arch-fallback.h **** #error "Unable to define raw_atomic_sub_return_relaxed"
 882:/mnt/c/Users/31740/Desktop/newcore/include/linux/atomic/atomic-arch-fallback.h **** #endif
 883:/mnt/c/Users/31740/Desktop/newcore/include/linux/atomic/atomic-arch-fallback.h **** }
 884:/mnt/c/Users/31740/Desktop/newcore/include/linux/atomic/atomic-arch-fallback.h **** 
 885:/mnt/c/Users/31740/Desktop/newcore/include/linux/atomic/atomic-arch-fallback.h **** /**
 886:/mnt/c/Users/31740/Desktop/newcore/include/linux/atomic/atomic-arch-fallback.h ****  * raw_atomic_fetch_sub() - atomic subtract with full ordering
 887:/mnt/c/Users/31740/Desktop/newcore/include/linux/atomic/atomic-arch-fallback.h ****  * @i: int value to subtract
 888:/mnt/c/Users/31740/Desktop/newcore/include/linux/atomic/atomic-arch-fallback.h ****  * @v: pointer to atomic_t
 889:/mnt/c/Users/31740/Desktop/newcore/include/linux/atomic/atomic-arch-fallback.h ****  *
 890:/mnt/c/Users/31740/Desktop/newcore/include/linux/atomic/atomic-arch-fallback.h ****  * Atomically updates @v to (@v - @i) with full ordering.
 891:/mnt/c/Users/31740/Desktop/newcore/include/linux/atomic/atomic-arch-fallback.h ****  *
 892:/mnt/c/Users/31740/Desktop/newcore/include/linux/atomic/atomic-arch-fallback.h ****  * Safe to use in noinstr code; prefer atomic_fetch_sub() elsewhere.
 893:/mnt/c/Users/31740/Desktop/newcore/include/linux/atomic/atomic-arch-fallback.h ****  *
 894:/mnt/c/Users/31740/Desktop/newcore/include/linux/atomic/atomic-arch-fallback.h ****  * Return: The original value of @v.
 895:/mnt/c/Users/31740/Desktop/newcore/include/linux/atomic/atomic-arch-fallback.h ****  */
 896:/mnt/c/Users/31740/Desktop/newcore/include/linux/atomic/atomic-arch-fallback.h **** static __always_inline int
 897:/mnt/c/Users/31740/Desktop/newcore/include/linux/atomic/atomic-arch-fallback.h **** raw_atomic_fetch_sub(int i, atomic_t *v)
ARM GAS  /tmp/ccyCLDig.s 			page 106


 898:/mnt/c/Users/31740/Desktop/newcore/include/linux/atomic/atomic-arch-fallback.h **** {
 899:/mnt/c/Users/31740/Desktop/newcore/include/linux/atomic/atomic-arch-fallback.h **** #if defined(arch_atomic_fetch_sub)
 900:/mnt/c/Users/31740/Desktop/newcore/include/linux/atomic/atomic-arch-fallback.h **** 	return arch_atomic_fetch_sub(i, v);
 901:/mnt/c/Users/31740/Desktop/newcore/include/linux/atomic/atomic-arch-fallback.h **** #elif defined(arch_atomic_fetch_sub_relaxed)
 902:/mnt/c/Users/31740/Desktop/newcore/include/linux/atomic/atomic-arch-fallback.h **** 	int ret;
 903:/mnt/c/Users/31740/Desktop/newcore/include/linux/atomic/atomic-arch-fallback.h **** 	__atomic_pre_full_fence();
 904:/mnt/c/Users/31740/Desktop/newcore/include/linux/atomic/atomic-arch-fallback.h **** 	ret = arch_atomic_fetch_sub_relaxed(i, v);
 905:/mnt/c/Users/31740/Desktop/newcore/include/linux/atomic/atomic-arch-fallback.h **** 	__atomic_post_full_fence();
 906:/mnt/c/Users/31740/Desktop/newcore/include/linux/atomic/atomic-arch-fallback.h **** 	return ret;
 907:/mnt/c/Users/31740/Desktop/newcore/include/linux/atomic/atomic-arch-fallback.h **** #else
 908:/mnt/c/Users/31740/Desktop/newcore/include/linux/atomic/atomic-arch-fallback.h **** #error "Unable to define raw_atomic_fetch_sub"
 909:/mnt/c/Users/31740/Desktop/newcore/include/linux/atomic/atomic-arch-fallback.h **** #endif
 910:/mnt/c/Users/31740/Desktop/newcore/include/linux/atomic/atomic-arch-fallback.h **** }
 911:/mnt/c/Users/31740/Desktop/newcore/include/linux/atomic/atomic-arch-fallback.h **** 
 912:/mnt/c/Users/31740/Desktop/newcore/include/linux/atomic/atomic-arch-fallback.h **** /**
 913:/mnt/c/Users/31740/Desktop/newcore/include/linux/atomic/atomic-arch-fallback.h ****  * raw_atomic_fetch_sub_acquire() - atomic subtract with acquire ordering
 914:/mnt/c/Users/31740/Desktop/newcore/include/linux/atomic/atomic-arch-fallback.h ****  * @i: int value to subtract
 915:/mnt/c/Users/31740/Desktop/newcore/include/linux/atomic/atomic-arch-fallback.h ****  * @v: pointer to atomic_t
 916:/mnt/c/Users/31740/Desktop/newcore/include/linux/atomic/atomic-arch-fallback.h ****  *
 917:/mnt/c/Users/31740/Desktop/newcore/include/linux/atomic/atomic-arch-fallback.h ****  * Atomically updates @v to (@v - @i) with acquire ordering.
 918:/mnt/c/Users/31740/Desktop/newcore/include/linux/atomic/atomic-arch-fallback.h ****  *
 919:/mnt/c/Users/31740/Desktop/newcore/include/linux/atomic/atomic-arch-fallback.h ****  * Safe to use in noinstr code; prefer atomic_fetch_sub_acquire() elsewhere.
 920:/mnt/c/Users/31740/Desktop/newcore/include/linux/atomic/atomic-arch-fallback.h ****  *
 921:/mnt/c/Users/31740/Desktop/newcore/include/linux/atomic/atomic-arch-fallback.h ****  * Return: The original value of @v.
 922:/mnt/c/Users/31740/Desktop/newcore/include/linux/atomic/atomic-arch-fallback.h ****  */
 923:/mnt/c/Users/31740/Desktop/newcore/include/linux/atomic/atomic-arch-fallback.h **** static __always_inline int
 924:/mnt/c/Users/31740/Desktop/newcore/include/linux/atomic/atomic-arch-fallback.h **** raw_atomic_fetch_sub_acquire(int i, atomic_t *v)
 925:/mnt/c/Users/31740/Desktop/newcore/include/linux/atomic/atomic-arch-fallback.h **** {
 926:/mnt/c/Users/31740/Desktop/newcore/include/linux/atomic/atomic-arch-fallback.h **** #if defined(arch_atomic_fetch_sub_acquire)
 927:/mnt/c/Users/31740/Desktop/newcore/include/linux/atomic/atomic-arch-fallback.h **** 	return arch_atomic_fetch_sub_acquire(i, v);
 928:/mnt/c/Users/31740/Desktop/newcore/include/linux/atomic/atomic-arch-fallback.h **** #elif defined(arch_atomic_fetch_sub_relaxed)
 929:/mnt/c/Users/31740/Desktop/newcore/include/linux/atomic/atomic-arch-fallback.h **** 	int ret = arch_atomic_fetch_sub_relaxed(i, v);
 930:/mnt/c/Users/31740/Desktop/newcore/include/linux/atomic/atomic-arch-fallback.h **** 	__atomic_acquire_fence();
 931:/mnt/c/Users/31740/Desktop/newcore/include/linux/atomic/atomic-arch-fallback.h **** 	return ret;
 932:/mnt/c/Users/31740/Desktop/newcore/include/linux/atomic/atomic-arch-fallback.h **** #elif defined(arch_atomic_fetch_sub)
 933:/mnt/c/Users/31740/Desktop/newcore/include/linux/atomic/atomic-arch-fallback.h **** 	return arch_atomic_fetch_sub(i, v);
 934:/mnt/c/Users/31740/Desktop/newcore/include/linux/atomic/atomic-arch-fallback.h **** #else
 935:/mnt/c/Users/31740/Desktop/newcore/include/linux/atomic/atomic-arch-fallback.h **** #error "Unable to define raw_atomic_fetch_sub_acquire"
 936:/mnt/c/Users/31740/Desktop/newcore/include/linux/atomic/atomic-arch-fallback.h **** #endif
 937:/mnt/c/Users/31740/Desktop/newcore/include/linux/atomic/atomic-arch-fallback.h **** }
 938:/mnt/c/Users/31740/Desktop/newcore/include/linux/atomic/atomic-arch-fallback.h **** 
 939:/mnt/c/Users/31740/Desktop/newcore/include/linux/atomic/atomic-arch-fallback.h **** /**
 940:/mnt/c/Users/31740/Desktop/newcore/include/linux/atomic/atomic-arch-fallback.h ****  * raw_atomic_fetch_sub_release() - atomic subtract with release ordering
 941:/mnt/c/Users/31740/Desktop/newcore/include/linux/atomic/atomic-arch-fallback.h ****  * @i: int value to subtract
 942:/mnt/c/Users/31740/Desktop/newcore/include/linux/atomic/atomic-arch-fallback.h ****  * @v: pointer to atomic_t
 943:/mnt/c/Users/31740/Desktop/newcore/include/linux/atomic/atomic-arch-fallback.h ****  *
 944:/mnt/c/Users/31740/Desktop/newcore/include/linux/atomic/atomic-arch-fallback.h ****  * Atomically updates @v to (@v - @i) with release ordering.
 945:/mnt/c/Users/31740/Desktop/newcore/include/linux/atomic/atomic-arch-fallback.h ****  *
 946:/mnt/c/Users/31740/Desktop/newcore/include/linux/atomic/atomic-arch-fallback.h ****  * Safe to use in noinstr code; prefer atomic_fetch_sub_release() elsewhere.
 947:/mnt/c/Users/31740/Desktop/newcore/include/linux/atomic/atomic-arch-fallback.h ****  *
 948:/mnt/c/Users/31740/Desktop/newcore/include/linux/atomic/atomic-arch-fallback.h ****  * Return: The original value of @v.
 949:/mnt/c/Users/31740/Desktop/newcore/include/linux/atomic/atomic-arch-fallback.h ****  */
 950:/mnt/c/Users/31740/Desktop/newcore/include/linux/atomic/atomic-arch-fallback.h **** static __always_inline int
 951:/mnt/c/Users/31740/Desktop/newcore/include/linux/atomic/atomic-arch-fallback.h **** raw_atomic_fetch_sub_release(int i, atomic_t *v)
 952:/mnt/c/Users/31740/Desktop/newcore/include/linux/atomic/atomic-arch-fallback.h **** {
 953:/mnt/c/Users/31740/Desktop/newcore/include/linux/atomic/atomic-arch-fallback.h **** #if defined(arch_atomic_fetch_sub_release)
 954:/mnt/c/Users/31740/Desktop/newcore/include/linux/atomic/atomic-arch-fallback.h **** 	return arch_atomic_fetch_sub_release(i, v);
ARM GAS  /tmp/ccyCLDig.s 			page 107


 955:/mnt/c/Users/31740/Desktop/newcore/include/linux/atomic/atomic-arch-fallback.h **** #elif defined(arch_atomic_fetch_sub_relaxed)
 956:/mnt/c/Users/31740/Desktop/newcore/include/linux/atomic/atomic-arch-fallback.h **** 	__atomic_release_fence();
 957:/mnt/c/Users/31740/Desktop/newcore/include/linux/atomic/atomic-arch-fallback.h **** 	return arch_atomic_fetch_sub_relaxed(i, v);
 958:/mnt/c/Users/31740/Desktop/newcore/include/linux/atomic/atomic-arch-fallback.h **** #elif defined(arch_atomic_fetch_sub)
 959:/mnt/c/Users/31740/Desktop/newcore/include/linux/atomic/atomic-arch-fallback.h **** 	return arch_atomic_fetch_sub(i, v);
 960:/mnt/c/Users/31740/Desktop/newcore/include/linux/atomic/atomic-arch-fallback.h **** #else
 961:/mnt/c/Users/31740/Desktop/newcore/include/linux/atomic/atomic-arch-fallback.h **** #error "Unable to define raw_atomic_fetch_sub_release"
 962:/mnt/c/Users/31740/Desktop/newcore/include/linux/atomic/atomic-arch-fallback.h **** #endif
 963:/mnt/c/Users/31740/Desktop/newcore/include/linux/atomic/atomic-arch-fallback.h **** }
 964:/mnt/c/Users/31740/Desktop/newcore/include/linux/atomic/atomic-arch-fallback.h **** 
 965:/mnt/c/Users/31740/Desktop/newcore/include/linux/atomic/atomic-arch-fallback.h **** /**
 966:/mnt/c/Users/31740/Desktop/newcore/include/linux/atomic/atomic-arch-fallback.h ****  * raw_atomic_fetch_sub_relaxed() - atomic subtract with relaxed ordering
 967:/mnt/c/Users/31740/Desktop/newcore/include/linux/atomic/atomic-arch-fallback.h ****  * @i: int value to subtract
 968:/mnt/c/Users/31740/Desktop/newcore/include/linux/atomic/atomic-arch-fallback.h ****  * @v: pointer to atomic_t
 969:/mnt/c/Users/31740/Desktop/newcore/include/linux/atomic/atomic-arch-fallback.h ****  *
 970:/mnt/c/Users/31740/Desktop/newcore/include/linux/atomic/atomic-arch-fallback.h ****  * Atomically updates @v to (@v - @i) with relaxed ordering.
 971:/mnt/c/Users/31740/Desktop/newcore/include/linux/atomic/atomic-arch-fallback.h ****  *
 972:/mnt/c/Users/31740/Desktop/newcore/include/linux/atomic/atomic-arch-fallback.h ****  * Safe to use in noinstr code; prefer atomic_fetch_sub_relaxed() elsewhere.
 973:/mnt/c/Users/31740/Desktop/newcore/include/linux/atomic/atomic-arch-fallback.h ****  *
 974:/mnt/c/Users/31740/Desktop/newcore/include/linux/atomic/atomic-arch-fallback.h ****  * Return: The original value of @v.
 975:/mnt/c/Users/31740/Desktop/newcore/include/linux/atomic/atomic-arch-fallback.h ****  */
 976:/mnt/c/Users/31740/Desktop/newcore/include/linux/atomic/atomic-arch-fallback.h **** static __always_inline int
 977:/mnt/c/Users/31740/Desktop/newcore/include/linux/atomic/atomic-arch-fallback.h **** raw_atomic_fetch_sub_relaxed(int i, atomic_t *v)
 978:/mnt/c/Users/31740/Desktop/newcore/include/linux/atomic/atomic-arch-fallback.h **** {
 979:/mnt/c/Users/31740/Desktop/newcore/include/linux/atomic/atomic-arch-fallback.h **** #if defined(arch_atomic_fetch_sub_relaxed)
 980:/mnt/c/Users/31740/Desktop/newcore/include/linux/atomic/atomic-arch-fallback.h **** 	return arch_atomic_fetch_sub_relaxed(i, v);
 981:/mnt/c/Users/31740/Desktop/newcore/include/linux/atomic/atomic-arch-fallback.h **** #elif defined(arch_atomic_fetch_sub)
 982:/mnt/c/Users/31740/Desktop/newcore/include/linux/atomic/atomic-arch-fallback.h **** 	return arch_atomic_fetch_sub(i, v);
 983:/mnt/c/Users/31740/Desktop/newcore/include/linux/atomic/atomic-arch-fallback.h **** #else
 984:/mnt/c/Users/31740/Desktop/newcore/include/linux/atomic/atomic-arch-fallback.h **** #error "Unable to define raw_atomic_fetch_sub_relaxed"
 985:/mnt/c/Users/31740/Desktop/newcore/include/linux/atomic/atomic-arch-fallback.h **** #endif
 986:/mnt/c/Users/31740/Desktop/newcore/include/linux/atomic/atomic-arch-fallback.h **** }
 987:/mnt/c/Users/31740/Desktop/newcore/include/linux/atomic/atomic-arch-fallback.h **** 
 988:/mnt/c/Users/31740/Desktop/newcore/include/linux/atomic/atomic-arch-fallback.h **** /**
 989:/mnt/c/Users/31740/Desktop/newcore/include/linux/atomic/atomic-arch-fallback.h ****  * raw_atomic_inc() - atomic increment with relaxed ordering
 990:/mnt/c/Users/31740/Desktop/newcore/include/linux/atomic/atomic-arch-fallback.h ****  * @v: pointer to atomic_t
 991:/mnt/c/Users/31740/Desktop/newcore/include/linux/atomic/atomic-arch-fallback.h ****  *
 992:/mnt/c/Users/31740/Desktop/newcore/include/linux/atomic/atomic-arch-fallback.h ****  * Atomically updates @v to (@v + 1) with relaxed ordering.
 993:/mnt/c/Users/31740/Desktop/newcore/include/linux/atomic/atomic-arch-fallback.h ****  *
 994:/mnt/c/Users/31740/Desktop/newcore/include/linux/atomic/atomic-arch-fallback.h ****  * Safe to use in noinstr code; prefer atomic_inc() elsewhere.
 995:/mnt/c/Users/31740/Desktop/newcore/include/linux/atomic/atomic-arch-fallback.h ****  *
 996:/mnt/c/Users/31740/Desktop/newcore/include/linux/atomic/atomic-arch-fallback.h ****  * Return: Nothing.
 997:/mnt/c/Users/31740/Desktop/newcore/include/linux/atomic/atomic-arch-fallback.h ****  */
 998:/mnt/c/Users/31740/Desktop/newcore/include/linux/atomic/atomic-arch-fallback.h **** static __always_inline void
 999:/mnt/c/Users/31740/Desktop/newcore/include/linux/atomic/atomic-arch-fallback.h **** raw_atomic_inc(atomic_t *v)
1000:/mnt/c/Users/31740/Desktop/newcore/include/linux/atomic/atomic-arch-fallback.h **** {
1001:/mnt/c/Users/31740/Desktop/newcore/include/linux/atomic/atomic-arch-fallback.h **** #if defined(arch_atomic_inc)
1002:/mnt/c/Users/31740/Desktop/newcore/include/linux/atomic/atomic-arch-fallback.h **** 	arch_atomic_inc(v);
1003:/mnt/c/Users/31740/Desktop/newcore/include/linux/atomic/atomic-arch-fallback.h **** #else
1004:/mnt/c/Users/31740/Desktop/newcore/include/linux/atomic/atomic-arch-fallback.h **** 	raw_atomic_add(1, v);
1005:/mnt/c/Users/31740/Desktop/newcore/include/linux/atomic/atomic-arch-fallback.h **** #endif
1006:/mnt/c/Users/31740/Desktop/newcore/include/linux/atomic/atomic-arch-fallback.h **** }
1007:/mnt/c/Users/31740/Desktop/newcore/include/linux/atomic/atomic-arch-fallback.h **** 
1008:/mnt/c/Users/31740/Desktop/newcore/include/linux/atomic/atomic-arch-fallback.h **** /**
1009:/mnt/c/Users/31740/Desktop/newcore/include/linux/atomic/atomic-arch-fallback.h ****  * raw_atomic_inc_return() - atomic increment with full ordering
1010:/mnt/c/Users/31740/Desktop/newcore/include/linux/atomic/atomic-arch-fallback.h ****  * @v: pointer to atomic_t
1011:/mnt/c/Users/31740/Desktop/newcore/include/linux/atomic/atomic-arch-fallback.h ****  *
ARM GAS  /tmp/ccyCLDig.s 			page 108


1012:/mnt/c/Users/31740/Desktop/newcore/include/linux/atomic/atomic-arch-fallback.h ****  * Atomically updates @v to (@v + 1) with full ordering.
1013:/mnt/c/Users/31740/Desktop/newcore/include/linux/atomic/atomic-arch-fallback.h ****  *
1014:/mnt/c/Users/31740/Desktop/newcore/include/linux/atomic/atomic-arch-fallback.h ****  * Safe to use in noinstr code; prefer atomic_inc_return() elsewhere.
1015:/mnt/c/Users/31740/Desktop/newcore/include/linux/atomic/atomic-arch-fallback.h ****  *
1016:/mnt/c/Users/31740/Desktop/newcore/include/linux/atomic/atomic-arch-fallback.h ****  * Return: The updated value of @v.
1017:/mnt/c/Users/31740/Desktop/newcore/include/linux/atomic/atomic-arch-fallback.h ****  */
1018:/mnt/c/Users/31740/Desktop/newcore/include/linux/atomic/atomic-arch-fallback.h **** static __always_inline int
1019:/mnt/c/Users/31740/Desktop/newcore/include/linux/atomic/atomic-arch-fallback.h **** raw_atomic_inc_return(atomic_t *v)
1020:/mnt/c/Users/31740/Desktop/newcore/include/linux/atomic/atomic-arch-fallback.h **** {
1021:/mnt/c/Users/31740/Desktop/newcore/include/linux/atomic/atomic-arch-fallback.h **** #if defined(arch_atomic_inc_return)
1022:/mnt/c/Users/31740/Desktop/newcore/include/linux/atomic/atomic-arch-fallback.h **** 	return arch_atomic_inc_return(v);
1023:/mnt/c/Users/31740/Desktop/newcore/include/linux/atomic/atomic-arch-fallback.h **** #elif defined(arch_atomic_inc_return_relaxed)
1024:/mnt/c/Users/31740/Desktop/newcore/include/linux/atomic/atomic-arch-fallback.h **** 	int ret;
1025:/mnt/c/Users/31740/Desktop/newcore/include/linux/atomic/atomic-arch-fallback.h **** 	__atomic_pre_full_fence();
1026:/mnt/c/Users/31740/Desktop/newcore/include/linux/atomic/atomic-arch-fallback.h **** 	ret = arch_atomic_inc_return_relaxed(v);
1027:/mnt/c/Users/31740/Desktop/newcore/include/linux/atomic/atomic-arch-fallback.h **** 	__atomic_post_full_fence();
1028:/mnt/c/Users/31740/Desktop/newcore/include/linux/atomic/atomic-arch-fallback.h **** 	return ret;
1029:/mnt/c/Users/31740/Desktop/newcore/include/linux/atomic/atomic-arch-fallback.h **** #else
1030:/mnt/c/Users/31740/Desktop/newcore/include/linux/atomic/atomic-arch-fallback.h **** 	return raw_atomic_add_return(1, v);
1031:/mnt/c/Users/31740/Desktop/newcore/include/linux/atomic/atomic-arch-fallback.h **** #endif
1032:/mnt/c/Users/31740/Desktop/newcore/include/linux/atomic/atomic-arch-fallback.h **** }
1033:/mnt/c/Users/31740/Desktop/newcore/include/linux/atomic/atomic-arch-fallback.h **** 
1034:/mnt/c/Users/31740/Desktop/newcore/include/linux/atomic/atomic-arch-fallback.h **** /**
1035:/mnt/c/Users/31740/Desktop/newcore/include/linux/atomic/atomic-arch-fallback.h ****  * raw_atomic_inc_return_acquire() - atomic increment with acquire ordering
1036:/mnt/c/Users/31740/Desktop/newcore/include/linux/atomic/atomic-arch-fallback.h ****  * @v: pointer to atomic_t
1037:/mnt/c/Users/31740/Desktop/newcore/include/linux/atomic/atomic-arch-fallback.h ****  *
1038:/mnt/c/Users/31740/Desktop/newcore/include/linux/atomic/atomic-arch-fallback.h ****  * Atomically updates @v to (@v + 1) with acquire ordering.
1039:/mnt/c/Users/31740/Desktop/newcore/include/linux/atomic/atomic-arch-fallback.h ****  *
1040:/mnt/c/Users/31740/Desktop/newcore/include/linux/atomic/atomic-arch-fallback.h ****  * Safe to use in noinstr code; prefer atomic_inc_return_acquire() elsewhere.
1041:/mnt/c/Users/31740/Desktop/newcore/include/linux/atomic/atomic-arch-fallback.h ****  *
1042:/mnt/c/Users/31740/Desktop/newcore/include/linux/atomic/atomic-arch-fallback.h ****  * Return: The updated value of @v.
1043:/mnt/c/Users/31740/Desktop/newcore/include/linux/atomic/atomic-arch-fallback.h ****  */
1044:/mnt/c/Users/31740/Desktop/newcore/include/linux/atomic/atomic-arch-fallback.h **** static __always_inline int
1045:/mnt/c/Users/31740/Desktop/newcore/include/linux/atomic/atomic-arch-fallback.h **** raw_atomic_inc_return_acquire(atomic_t *v)
1046:/mnt/c/Users/31740/Desktop/newcore/include/linux/atomic/atomic-arch-fallback.h **** {
1047:/mnt/c/Users/31740/Desktop/newcore/include/linux/atomic/atomic-arch-fallback.h **** #if defined(arch_atomic_inc_return_acquire)
1048:/mnt/c/Users/31740/Desktop/newcore/include/linux/atomic/atomic-arch-fallback.h **** 	return arch_atomic_inc_return_acquire(v);
1049:/mnt/c/Users/31740/Desktop/newcore/include/linux/atomic/atomic-arch-fallback.h **** #elif defined(arch_atomic_inc_return_relaxed)
1050:/mnt/c/Users/31740/Desktop/newcore/include/linux/atomic/atomic-arch-fallback.h **** 	int ret = arch_atomic_inc_return_relaxed(v);
1051:/mnt/c/Users/31740/Desktop/newcore/include/linux/atomic/atomic-arch-fallback.h **** 	__atomic_acquire_fence();
1052:/mnt/c/Users/31740/Desktop/newcore/include/linux/atomic/atomic-arch-fallback.h **** 	return ret;
1053:/mnt/c/Users/31740/Desktop/newcore/include/linux/atomic/atomic-arch-fallback.h **** #elif defined(arch_atomic_inc_return)
1054:/mnt/c/Users/31740/Desktop/newcore/include/linux/atomic/atomic-arch-fallback.h **** 	return arch_atomic_inc_return(v);
1055:/mnt/c/Users/31740/Desktop/newcore/include/linux/atomic/atomic-arch-fallback.h **** #else
1056:/mnt/c/Users/31740/Desktop/newcore/include/linux/atomic/atomic-arch-fallback.h **** 	return raw_atomic_add_return_acquire(1, v);
1057:/mnt/c/Users/31740/Desktop/newcore/include/linux/atomic/atomic-arch-fallback.h **** #endif
1058:/mnt/c/Users/31740/Desktop/newcore/include/linux/atomic/atomic-arch-fallback.h **** }
1059:/mnt/c/Users/31740/Desktop/newcore/include/linux/atomic/atomic-arch-fallback.h **** 
1060:/mnt/c/Users/31740/Desktop/newcore/include/linux/atomic/atomic-arch-fallback.h **** /**
1061:/mnt/c/Users/31740/Desktop/newcore/include/linux/atomic/atomic-arch-fallback.h ****  * raw_atomic_inc_return_release() - atomic increment with release ordering
1062:/mnt/c/Users/31740/Desktop/newcore/include/linux/atomic/atomic-arch-fallback.h ****  * @v: pointer to atomic_t
1063:/mnt/c/Users/31740/Desktop/newcore/include/linux/atomic/atomic-arch-fallback.h ****  *
1064:/mnt/c/Users/31740/Desktop/newcore/include/linux/atomic/atomic-arch-fallback.h ****  * Atomically updates @v to (@v + 1) with release ordering.
1065:/mnt/c/Users/31740/Desktop/newcore/include/linux/atomic/atomic-arch-fallback.h ****  *
1066:/mnt/c/Users/31740/Desktop/newcore/include/linux/atomic/atomic-arch-fallback.h ****  * Safe to use in noinstr code; prefer atomic_inc_return_release() elsewhere.
1067:/mnt/c/Users/31740/Desktop/newcore/include/linux/atomic/atomic-arch-fallback.h ****  *
1068:/mnt/c/Users/31740/Desktop/newcore/include/linux/atomic/atomic-arch-fallback.h ****  * Return: The updated value of @v.
ARM GAS  /tmp/ccyCLDig.s 			page 109


1069:/mnt/c/Users/31740/Desktop/newcore/include/linux/atomic/atomic-arch-fallback.h ****  */
1070:/mnt/c/Users/31740/Desktop/newcore/include/linux/atomic/atomic-arch-fallback.h **** static __always_inline int
1071:/mnt/c/Users/31740/Desktop/newcore/include/linux/atomic/atomic-arch-fallback.h **** raw_atomic_inc_return_release(atomic_t *v)
1072:/mnt/c/Users/31740/Desktop/newcore/include/linux/atomic/atomic-arch-fallback.h **** {
1073:/mnt/c/Users/31740/Desktop/newcore/include/linux/atomic/atomic-arch-fallback.h **** #if defined(arch_atomic_inc_return_release)
1074:/mnt/c/Users/31740/Desktop/newcore/include/linux/atomic/atomic-arch-fallback.h **** 	return arch_atomic_inc_return_release(v);
1075:/mnt/c/Users/31740/Desktop/newcore/include/linux/atomic/atomic-arch-fallback.h **** #elif defined(arch_atomic_inc_return_relaxed)
1076:/mnt/c/Users/31740/Desktop/newcore/include/linux/atomic/atomic-arch-fallback.h **** 	__atomic_release_fence();
1077:/mnt/c/Users/31740/Desktop/newcore/include/linux/atomic/atomic-arch-fallback.h **** 	return arch_atomic_inc_return_relaxed(v);
1078:/mnt/c/Users/31740/Desktop/newcore/include/linux/atomic/atomic-arch-fallback.h **** #elif defined(arch_atomic_inc_return)
1079:/mnt/c/Users/31740/Desktop/newcore/include/linux/atomic/atomic-arch-fallback.h **** 	return arch_atomic_inc_return(v);
1080:/mnt/c/Users/31740/Desktop/newcore/include/linux/atomic/atomic-arch-fallback.h **** #else
1081:/mnt/c/Users/31740/Desktop/newcore/include/linux/atomic/atomic-arch-fallback.h **** 	return raw_atomic_add_return_release(1, v);
1082:/mnt/c/Users/31740/Desktop/newcore/include/linux/atomic/atomic-arch-fallback.h **** #endif
1083:/mnt/c/Users/31740/Desktop/newcore/include/linux/atomic/atomic-arch-fallback.h **** }
1084:/mnt/c/Users/31740/Desktop/newcore/include/linux/atomic/atomic-arch-fallback.h **** 
1085:/mnt/c/Users/31740/Desktop/newcore/include/linux/atomic/atomic-arch-fallback.h **** /**
1086:/mnt/c/Users/31740/Desktop/newcore/include/linux/atomic/atomic-arch-fallback.h ****  * raw_atomic_inc_return_relaxed() - atomic increment with relaxed ordering
1087:/mnt/c/Users/31740/Desktop/newcore/include/linux/atomic/atomic-arch-fallback.h ****  * @v: pointer to atomic_t
1088:/mnt/c/Users/31740/Desktop/newcore/include/linux/atomic/atomic-arch-fallback.h ****  *
1089:/mnt/c/Users/31740/Desktop/newcore/include/linux/atomic/atomic-arch-fallback.h ****  * Atomically updates @v to (@v + 1) with relaxed ordering.
1090:/mnt/c/Users/31740/Desktop/newcore/include/linux/atomic/atomic-arch-fallback.h ****  *
1091:/mnt/c/Users/31740/Desktop/newcore/include/linux/atomic/atomic-arch-fallback.h ****  * Safe to use in noinstr code; prefer atomic_inc_return_relaxed() elsewhere.
1092:/mnt/c/Users/31740/Desktop/newcore/include/linux/atomic/atomic-arch-fallback.h ****  *
1093:/mnt/c/Users/31740/Desktop/newcore/include/linux/atomic/atomic-arch-fallback.h ****  * Return: The updated value of @v.
1094:/mnt/c/Users/31740/Desktop/newcore/include/linux/atomic/atomic-arch-fallback.h ****  */
1095:/mnt/c/Users/31740/Desktop/newcore/include/linux/atomic/atomic-arch-fallback.h **** static __always_inline int
1096:/mnt/c/Users/31740/Desktop/newcore/include/linux/atomic/atomic-arch-fallback.h **** raw_atomic_inc_return_relaxed(atomic_t *v)
1097:/mnt/c/Users/31740/Desktop/newcore/include/linux/atomic/atomic-arch-fallback.h **** {
1098:/mnt/c/Users/31740/Desktop/newcore/include/linux/atomic/atomic-arch-fallback.h **** #if defined(arch_atomic_inc_return_relaxed)
1099:/mnt/c/Users/31740/Desktop/newcore/include/linux/atomic/atomic-arch-fallback.h **** 	return arch_atomic_inc_return_relaxed(v);
1100:/mnt/c/Users/31740/Desktop/newcore/include/linux/atomic/atomic-arch-fallback.h **** #elif defined(arch_atomic_inc_return)
1101:/mnt/c/Users/31740/Desktop/newcore/include/linux/atomic/atomic-arch-fallback.h **** 	return arch_atomic_inc_return(v);
1102:/mnt/c/Users/31740/Desktop/newcore/include/linux/atomic/atomic-arch-fallback.h **** #else
1103:/mnt/c/Users/31740/Desktop/newcore/include/linux/atomic/atomic-arch-fallback.h **** 	return raw_atomic_add_return_relaxed(1, v);
1104:/mnt/c/Users/31740/Desktop/newcore/include/linux/atomic/atomic-arch-fallback.h **** #endif
1105:/mnt/c/Users/31740/Desktop/newcore/include/linux/atomic/atomic-arch-fallback.h **** }
1106:/mnt/c/Users/31740/Desktop/newcore/include/linux/atomic/atomic-arch-fallback.h **** 
1107:/mnt/c/Users/31740/Desktop/newcore/include/linux/atomic/atomic-arch-fallback.h **** /**
1108:/mnt/c/Users/31740/Desktop/newcore/include/linux/atomic/atomic-arch-fallback.h ****  * raw_atomic_fetch_inc() - atomic increment with full ordering
1109:/mnt/c/Users/31740/Desktop/newcore/include/linux/atomic/atomic-arch-fallback.h ****  * @v: pointer to atomic_t
1110:/mnt/c/Users/31740/Desktop/newcore/include/linux/atomic/atomic-arch-fallback.h ****  *
1111:/mnt/c/Users/31740/Desktop/newcore/include/linux/atomic/atomic-arch-fallback.h ****  * Atomically updates @v to (@v + 1) with full ordering.
1112:/mnt/c/Users/31740/Desktop/newcore/include/linux/atomic/atomic-arch-fallback.h ****  *
1113:/mnt/c/Users/31740/Desktop/newcore/include/linux/atomic/atomic-arch-fallback.h ****  * Safe to use in noinstr code; prefer atomic_fetch_inc() elsewhere.
1114:/mnt/c/Users/31740/Desktop/newcore/include/linux/atomic/atomic-arch-fallback.h ****  *
1115:/mnt/c/Users/31740/Desktop/newcore/include/linux/atomic/atomic-arch-fallback.h ****  * Return: The original value of @v.
1116:/mnt/c/Users/31740/Desktop/newcore/include/linux/atomic/atomic-arch-fallback.h ****  */
1117:/mnt/c/Users/31740/Desktop/newcore/include/linux/atomic/atomic-arch-fallback.h **** static __always_inline int
1118:/mnt/c/Users/31740/Desktop/newcore/include/linux/atomic/atomic-arch-fallback.h **** raw_atomic_fetch_inc(atomic_t *v)
1119:/mnt/c/Users/31740/Desktop/newcore/include/linux/atomic/atomic-arch-fallback.h **** {
1120:/mnt/c/Users/31740/Desktop/newcore/include/linux/atomic/atomic-arch-fallback.h **** #if defined(arch_atomic_fetch_inc)
1121:/mnt/c/Users/31740/Desktop/newcore/include/linux/atomic/atomic-arch-fallback.h **** 	return arch_atomic_fetch_inc(v);
1122:/mnt/c/Users/31740/Desktop/newcore/include/linux/atomic/atomic-arch-fallback.h **** #elif defined(arch_atomic_fetch_inc_relaxed)
1123:/mnt/c/Users/31740/Desktop/newcore/include/linux/atomic/atomic-arch-fallback.h **** 	int ret;
1124:/mnt/c/Users/31740/Desktop/newcore/include/linux/atomic/atomic-arch-fallback.h **** 	__atomic_pre_full_fence();
1125:/mnt/c/Users/31740/Desktop/newcore/include/linux/atomic/atomic-arch-fallback.h **** 	ret = arch_atomic_fetch_inc_relaxed(v);
ARM GAS  /tmp/ccyCLDig.s 			page 110


1126:/mnt/c/Users/31740/Desktop/newcore/include/linux/atomic/atomic-arch-fallback.h **** 	__atomic_post_full_fence();
1127:/mnt/c/Users/31740/Desktop/newcore/include/linux/atomic/atomic-arch-fallback.h **** 	return ret;
1128:/mnt/c/Users/31740/Desktop/newcore/include/linux/atomic/atomic-arch-fallback.h **** #else
1129:/mnt/c/Users/31740/Desktop/newcore/include/linux/atomic/atomic-arch-fallback.h **** 	return raw_atomic_fetch_add(1, v);
1130:/mnt/c/Users/31740/Desktop/newcore/include/linux/atomic/atomic-arch-fallback.h **** #endif
1131:/mnt/c/Users/31740/Desktop/newcore/include/linux/atomic/atomic-arch-fallback.h **** }
1132:/mnt/c/Users/31740/Desktop/newcore/include/linux/atomic/atomic-arch-fallback.h **** 
1133:/mnt/c/Users/31740/Desktop/newcore/include/linux/atomic/atomic-arch-fallback.h **** /**
1134:/mnt/c/Users/31740/Desktop/newcore/include/linux/atomic/atomic-arch-fallback.h ****  * raw_atomic_fetch_inc_acquire() - atomic increment with acquire ordering
1135:/mnt/c/Users/31740/Desktop/newcore/include/linux/atomic/atomic-arch-fallback.h ****  * @v: pointer to atomic_t
1136:/mnt/c/Users/31740/Desktop/newcore/include/linux/atomic/atomic-arch-fallback.h ****  *
1137:/mnt/c/Users/31740/Desktop/newcore/include/linux/atomic/atomic-arch-fallback.h ****  * Atomically updates @v to (@v + 1) with acquire ordering.
1138:/mnt/c/Users/31740/Desktop/newcore/include/linux/atomic/atomic-arch-fallback.h ****  *
1139:/mnt/c/Users/31740/Desktop/newcore/include/linux/atomic/atomic-arch-fallback.h ****  * Safe to use in noinstr code; prefer atomic_fetch_inc_acquire() elsewhere.
1140:/mnt/c/Users/31740/Desktop/newcore/include/linux/atomic/atomic-arch-fallback.h ****  *
1141:/mnt/c/Users/31740/Desktop/newcore/include/linux/atomic/atomic-arch-fallback.h ****  * Return: The original value of @v.
1142:/mnt/c/Users/31740/Desktop/newcore/include/linux/atomic/atomic-arch-fallback.h ****  */
1143:/mnt/c/Users/31740/Desktop/newcore/include/linux/atomic/atomic-arch-fallback.h **** static __always_inline int
1144:/mnt/c/Users/31740/Desktop/newcore/include/linux/atomic/atomic-arch-fallback.h **** raw_atomic_fetch_inc_acquire(atomic_t *v)
1145:/mnt/c/Users/31740/Desktop/newcore/include/linux/atomic/atomic-arch-fallback.h **** {
1146:/mnt/c/Users/31740/Desktop/newcore/include/linux/atomic/atomic-arch-fallback.h **** #if defined(arch_atomic_fetch_inc_acquire)
1147:/mnt/c/Users/31740/Desktop/newcore/include/linux/atomic/atomic-arch-fallback.h **** 	return arch_atomic_fetch_inc_acquire(v);
1148:/mnt/c/Users/31740/Desktop/newcore/include/linux/atomic/atomic-arch-fallback.h **** #elif defined(arch_atomic_fetch_inc_relaxed)
1149:/mnt/c/Users/31740/Desktop/newcore/include/linux/atomic/atomic-arch-fallback.h **** 	int ret = arch_atomic_fetch_inc_relaxed(v);
1150:/mnt/c/Users/31740/Desktop/newcore/include/linux/atomic/atomic-arch-fallback.h **** 	__atomic_acquire_fence();
1151:/mnt/c/Users/31740/Desktop/newcore/include/linux/atomic/atomic-arch-fallback.h **** 	return ret;
1152:/mnt/c/Users/31740/Desktop/newcore/include/linux/atomic/atomic-arch-fallback.h **** #elif defined(arch_atomic_fetch_inc)
1153:/mnt/c/Users/31740/Desktop/newcore/include/linux/atomic/atomic-arch-fallback.h **** 	return arch_atomic_fetch_inc(v);
1154:/mnt/c/Users/31740/Desktop/newcore/include/linux/atomic/atomic-arch-fallback.h **** #else
1155:/mnt/c/Users/31740/Desktop/newcore/include/linux/atomic/atomic-arch-fallback.h **** 	return raw_atomic_fetch_add_acquire(1, v);
1156:/mnt/c/Users/31740/Desktop/newcore/include/linux/atomic/atomic-arch-fallback.h **** #endif
1157:/mnt/c/Users/31740/Desktop/newcore/include/linux/atomic/atomic-arch-fallback.h **** }
1158:/mnt/c/Users/31740/Desktop/newcore/include/linux/atomic/atomic-arch-fallback.h **** 
1159:/mnt/c/Users/31740/Desktop/newcore/include/linux/atomic/atomic-arch-fallback.h **** /**
1160:/mnt/c/Users/31740/Desktop/newcore/include/linux/atomic/atomic-arch-fallback.h ****  * raw_atomic_fetch_inc_release() - atomic increment with release ordering
1161:/mnt/c/Users/31740/Desktop/newcore/include/linux/atomic/atomic-arch-fallback.h ****  * @v: pointer to atomic_t
1162:/mnt/c/Users/31740/Desktop/newcore/include/linux/atomic/atomic-arch-fallback.h ****  *
1163:/mnt/c/Users/31740/Desktop/newcore/include/linux/atomic/atomic-arch-fallback.h ****  * Atomically updates @v to (@v + 1) with release ordering.
1164:/mnt/c/Users/31740/Desktop/newcore/include/linux/atomic/atomic-arch-fallback.h ****  *
1165:/mnt/c/Users/31740/Desktop/newcore/include/linux/atomic/atomic-arch-fallback.h ****  * Safe to use in noinstr code; prefer atomic_fetch_inc_release() elsewhere.
1166:/mnt/c/Users/31740/Desktop/newcore/include/linux/atomic/atomic-arch-fallback.h ****  *
1167:/mnt/c/Users/31740/Desktop/newcore/include/linux/atomic/atomic-arch-fallback.h ****  * Return: The original value of @v.
1168:/mnt/c/Users/31740/Desktop/newcore/include/linux/atomic/atomic-arch-fallback.h ****  */
1169:/mnt/c/Users/31740/Desktop/newcore/include/linux/atomic/atomic-arch-fallback.h **** static __always_inline int
1170:/mnt/c/Users/31740/Desktop/newcore/include/linux/atomic/atomic-arch-fallback.h **** raw_atomic_fetch_inc_release(atomic_t *v)
1171:/mnt/c/Users/31740/Desktop/newcore/include/linux/atomic/atomic-arch-fallback.h **** {
1172:/mnt/c/Users/31740/Desktop/newcore/include/linux/atomic/atomic-arch-fallback.h **** #if defined(arch_atomic_fetch_inc_release)
1173:/mnt/c/Users/31740/Desktop/newcore/include/linux/atomic/atomic-arch-fallback.h **** 	return arch_atomic_fetch_inc_release(v);
1174:/mnt/c/Users/31740/Desktop/newcore/include/linux/atomic/atomic-arch-fallback.h **** #elif defined(arch_atomic_fetch_inc_relaxed)
1175:/mnt/c/Users/31740/Desktop/newcore/include/linux/atomic/atomic-arch-fallback.h **** 	__atomic_release_fence();
1176:/mnt/c/Users/31740/Desktop/newcore/include/linux/atomic/atomic-arch-fallback.h **** 	return arch_atomic_fetch_inc_relaxed(v);
1177:/mnt/c/Users/31740/Desktop/newcore/include/linux/atomic/atomic-arch-fallback.h **** #elif defined(arch_atomic_fetch_inc)
1178:/mnt/c/Users/31740/Desktop/newcore/include/linux/atomic/atomic-arch-fallback.h **** 	return arch_atomic_fetch_inc(v);
1179:/mnt/c/Users/31740/Desktop/newcore/include/linux/atomic/atomic-arch-fallback.h **** #else
1180:/mnt/c/Users/31740/Desktop/newcore/include/linux/atomic/atomic-arch-fallback.h **** 	return raw_atomic_fetch_add_release(1, v);
1181:/mnt/c/Users/31740/Desktop/newcore/include/linux/atomic/atomic-arch-fallback.h **** #endif
1182:/mnt/c/Users/31740/Desktop/newcore/include/linux/atomic/atomic-arch-fallback.h **** }
ARM GAS  /tmp/ccyCLDig.s 			page 111


1183:/mnt/c/Users/31740/Desktop/newcore/include/linux/atomic/atomic-arch-fallback.h **** 
1184:/mnt/c/Users/31740/Desktop/newcore/include/linux/atomic/atomic-arch-fallback.h **** /**
1185:/mnt/c/Users/31740/Desktop/newcore/include/linux/atomic/atomic-arch-fallback.h ****  * raw_atomic_fetch_inc_relaxed() - atomic increment with relaxed ordering
1186:/mnt/c/Users/31740/Desktop/newcore/include/linux/atomic/atomic-arch-fallback.h ****  * @v: pointer to atomic_t
1187:/mnt/c/Users/31740/Desktop/newcore/include/linux/atomic/atomic-arch-fallback.h ****  *
1188:/mnt/c/Users/31740/Desktop/newcore/include/linux/atomic/atomic-arch-fallback.h ****  * Atomically updates @v to (@v + 1) with relaxed ordering.
1189:/mnt/c/Users/31740/Desktop/newcore/include/linux/atomic/atomic-arch-fallback.h ****  *
1190:/mnt/c/Users/31740/Desktop/newcore/include/linux/atomic/atomic-arch-fallback.h ****  * Safe to use in noinstr code; prefer atomic_fetch_inc_relaxed() elsewhere.
1191:/mnt/c/Users/31740/Desktop/newcore/include/linux/atomic/atomic-arch-fallback.h ****  *
1192:/mnt/c/Users/31740/Desktop/newcore/include/linux/atomic/atomic-arch-fallback.h ****  * Return: The original value of @v.
1193:/mnt/c/Users/31740/Desktop/newcore/include/linux/atomic/atomic-arch-fallback.h ****  */
1194:/mnt/c/Users/31740/Desktop/newcore/include/linux/atomic/atomic-arch-fallback.h **** static __always_inline int
1195:/mnt/c/Users/31740/Desktop/newcore/include/linux/atomic/atomic-arch-fallback.h **** raw_atomic_fetch_inc_relaxed(atomic_t *v)
1196:/mnt/c/Users/31740/Desktop/newcore/include/linux/atomic/atomic-arch-fallback.h **** {
1197:/mnt/c/Users/31740/Desktop/newcore/include/linux/atomic/atomic-arch-fallback.h **** #if defined(arch_atomic_fetch_inc_relaxed)
1198:/mnt/c/Users/31740/Desktop/newcore/include/linux/atomic/atomic-arch-fallback.h **** 	return arch_atomic_fetch_inc_relaxed(v);
1199:/mnt/c/Users/31740/Desktop/newcore/include/linux/atomic/atomic-arch-fallback.h **** #elif defined(arch_atomic_fetch_inc)
1200:/mnt/c/Users/31740/Desktop/newcore/include/linux/atomic/atomic-arch-fallback.h **** 	return arch_atomic_fetch_inc(v);
1201:/mnt/c/Users/31740/Desktop/newcore/include/linux/atomic/atomic-arch-fallback.h **** #else
1202:/mnt/c/Users/31740/Desktop/newcore/include/linux/atomic/atomic-arch-fallback.h **** 	return raw_atomic_fetch_add_relaxed(1, v);
1203:/mnt/c/Users/31740/Desktop/newcore/include/linux/atomic/atomic-arch-fallback.h **** #endif
1204:/mnt/c/Users/31740/Desktop/newcore/include/linux/atomic/atomic-arch-fallback.h **** }
1205:/mnt/c/Users/31740/Desktop/newcore/include/linux/atomic/atomic-arch-fallback.h **** 
1206:/mnt/c/Users/31740/Desktop/newcore/include/linux/atomic/atomic-arch-fallback.h **** /**
1207:/mnt/c/Users/31740/Desktop/newcore/include/linux/atomic/atomic-arch-fallback.h ****  * raw_atomic_dec() - atomic decrement with relaxed ordering
1208:/mnt/c/Users/31740/Desktop/newcore/include/linux/atomic/atomic-arch-fallback.h ****  * @v: pointer to atomic_t
1209:/mnt/c/Users/31740/Desktop/newcore/include/linux/atomic/atomic-arch-fallback.h ****  *
1210:/mnt/c/Users/31740/Desktop/newcore/include/linux/atomic/atomic-arch-fallback.h ****  * Atomically updates @v to (@v - 1) with relaxed ordering.
1211:/mnt/c/Users/31740/Desktop/newcore/include/linux/atomic/atomic-arch-fallback.h ****  *
1212:/mnt/c/Users/31740/Desktop/newcore/include/linux/atomic/atomic-arch-fallback.h ****  * Safe to use in noinstr code; prefer atomic_dec() elsewhere.
1213:/mnt/c/Users/31740/Desktop/newcore/include/linux/atomic/atomic-arch-fallback.h ****  *
1214:/mnt/c/Users/31740/Desktop/newcore/include/linux/atomic/atomic-arch-fallback.h ****  * Return: Nothing.
1215:/mnt/c/Users/31740/Desktop/newcore/include/linux/atomic/atomic-arch-fallback.h ****  */
1216:/mnt/c/Users/31740/Desktop/newcore/include/linux/atomic/atomic-arch-fallback.h **** static __always_inline void
1217:/mnt/c/Users/31740/Desktop/newcore/include/linux/atomic/atomic-arch-fallback.h **** raw_atomic_dec(atomic_t *v)
1218:/mnt/c/Users/31740/Desktop/newcore/include/linux/atomic/atomic-arch-fallback.h **** {
1219:/mnt/c/Users/31740/Desktop/newcore/include/linux/atomic/atomic-arch-fallback.h **** #if defined(arch_atomic_dec)
1220:/mnt/c/Users/31740/Desktop/newcore/include/linux/atomic/atomic-arch-fallback.h **** 	arch_atomic_dec(v);
1221:/mnt/c/Users/31740/Desktop/newcore/include/linux/atomic/atomic-arch-fallback.h **** #else
1222:/mnt/c/Users/31740/Desktop/newcore/include/linux/atomic/atomic-arch-fallback.h **** 	raw_atomic_sub(1, v);
1223:/mnt/c/Users/31740/Desktop/newcore/include/linux/atomic/atomic-arch-fallback.h **** #endif
1224:/mnt/c/Users/31740/Desktop/newcore/include/linux/atomic/atomic-arch-fallback.h **** }
1225:/mnt/c/Users/31740/Desktop/newcore/include/linux/atomic/atomic-arch-fallback.h **** 
1226:/mnt/c/Users/31740/Desktop/newcore/include/linux/atomic/atomic-arch-fallback.h **** /**
1227:/mnt/c/Users/31740/Desktop/newcore/include/linux/atomic/atomic-arch-fallback.h ****  * raw_atomic_dec_return() - atomic decrement with full ordering
1228:/mnt/c/Users/31740/Desktop/newcore/include/linux/atomic/atomic-arch-fallback.h ****  * @v: pointer to atomic_t
1229:/mnt/c/Users/31740/Desktop/newcore/include/linux/atomic/atomic-arch-fallback.h ****  *
1230:/mnt/c/Users/31740/Desktop/newcore/include/linux/atomic/atomic-arch-fallback.h ****  * Atomically updates @v to (@v - 1) with full ordering.
1231:/mnt/c/Users/31740/Desktop/newcore/include/linux/atomic/atomic-arch-fallback.h ****  *
1232:/mnt/c/Users/31740/Desktop/newcore/include/linux/atomic/atomic-arch-fallback.h ****  * Safe to use in noinstr code; prefer atomic_dec_return() elsewhere.
1233:/mnt/c/Users/31740/Desktop/newcore/include/linux/atomic/atomic-arch-fallback.h ****  *
1234:/mnt/c/Users/31740/Desktop/newcore/include/linux/atomic/atomic-arch-fallback.h ****  * Return: The updated value of @v.
1235:/mnt/c/Users/31740/Desktop/newcore/include/linux/atomic/atomic-arch-fallback.h ****  */
1236:/mnt/c/Users/31740/Desktop/newcore/include/linux/atomic/atomic-arch-fallback.h **** static __always_inline int
1237:/mnt/c/Users/31740/Desktop/newcore/include/linux/atomic/atomic-arch-fallback.h **** raw_atomic_dec_return(atomic_t *v)
1238:/mnt/c/Users/31740/Desktop/newcore/include/linux/atomic/atomic-arch-fallback.h **** {
1239:/mnt/c/Users/31740/Desktop/newcore/include/linux/atomic/atomic-arch-fallback.h **** #if defined(arch_atomic_dec_return)
ARM GAS  /tmp/ccyCLDig.s 			page 112


1240:/mnt/c/Users/31740/Desktop/newcore/include/linux/atomic/atomic-arch-fallback.h **** 	return arch_atomic_dec_return(v);
1241:/mnt/c/Users/31740/Desktop/newcore/include/linux/atomic/atomic-arch-fallback.h **** #elif defined(arch_atomic_dec_return_relaxed)
1242:/mnt/c/Users/31740/Desktop/newcore/include/linux/atomic/atomic-arch-fallback.h **** 	int ret;
1243:/mnt/c/Users/31740/Desktop/newcore/include/linux/atomic/atomic-arch-fallback.h **** 	__atomic_pre_full_fence();
1244:/mnt/c/Users/31740/Desktop/newcore/include/linux/atomic/atomic-arch-fallback.h **** 	ret = arch_atomic_dec_return_relaxed(v);
1245:/mnt/c/Users/31740/Desktop/newcore/include/linux/atomic/atomic-arch-fallback.h **** 	__atomic_post_full_fence();
1246:/mnt/c/Users/31740/Desktop/newcore/include/linux/atomic/atomic-arch-fallback.h **** 	return ret;
1247:/mnt/c/Users/31740/Desktop/newcore/include/linux/atomic/atomic-arch-fallback.h **** #else
1248:/mnt/c/Users/31740/Desktop/newcore/include/linux/atomic/atomic-arch-fallback.h **** 	return raw_atomic_sub_return(1, v);
1249:/mnt/c/Users/31740/Desktop/newcore/include/linux/atomic/atomic-arch-fallback.h **** #endif
1250:/mnt/c/Users/31740/Desktop/newcore/include/linux/atomic/atomic-arch-fallback.h **** }
1251:/mnt/c/Users/31740/Desktop/newcore/include/linux/atomic/atomic-arch-fallback.h **** 
1252:/mnt/c/Users/31740/Desktop/newcore/include/linux/atomic/atomic-arch-fallback.h **** /**
1253:/mnt/c/Users/31740/Desktop/newcore/include/linux/atomic/atomic-arch-fallback.h ****  * raw_atomic_dec_return_acquire() - atomic decrement with acquire ordering
1254:/mnt/c/Users/31740/Desktop/newcore/include/linux/atomic/atomic-arch-fallback.h ****  * @v: pointer to atomic_t
1255:/mnt/c/Users/31740/Desktop/newcore/include/linux/atomic/atomic-arch-fallback.h ****  *
1256:/mnt/c/Users/31740/Desktop/newcore/include/linux/atomic/atomic-arch-fallback.h ****  * Atomically updates @v to (@v - 1) with acquire ordering.
1257:/mnt/c/Users/31740/Desktop/newcore/include/linux/atomic/atomic-arch-fallback.h ****  *
1258:/mnt/c/Users/31740/Desktop/newcore/include/linux/atomic/atomic-arch-fallback.h ****  * Safe to use in noinstr code; prefer atomic_dec_return_acquire() elsewhere.
1259:/mnt/c/Users/31740/Desktop/newcore/include/linux/atomic/atomic-arch-fallback.h ****  *
1260:/mnt/c/Users/31740/Desktop/newcore/include/linux/atomic/atomic-arch-fallback.h ****  * Return: The updated value of @v.
1261:/mnt/c/Users/31740/Desktop/newcore/include/linux/atomic/atomic-arch-fallback.h ****  */
1262:/mnt/c/Users/31740/Desktop/newcore/include/linux/atomic/atomic-arch-fallback.h **** static __always_inline int
1263:/mnt/c/Users/31740/Desktop/newcore/include/linux/atomic/atomic-arch-fallback.h **** raw_atomic_dec_return_acquire(atomic_t *v)
1264:/mnt/c/Users/31740/Desktop/newcore/include/linux/atomic/atomic-arch-fallback.h **** {
1265:/mnt/c/Users/31740/Desktop/newcore/include/linux/atomic/atomic-arch-fallback.h **** #if defined(arch_atomic_dec_return_acquire)
1266:/mnt/c/Users/31740/Desktop/newcore/include/linux/atomic/atomic-arch-fallback.h **** 	return arch_atomic_dec_return_acquire(v);
1267:/mnt/c/Users/31740/Desktop/newcore/include/linux/atomic/atomic-arch-fallback.h **** #elif defined(arch_atomic_dec_return_relaxed)
1268:/mnt/c/Users/31740/Desktop/newcore/include/linux/atomic/atomic-arch-fallback.h **** 	int ret = arch_atomic_dec_return_relaxed(v);
1269:/mnt/c/Users/31740/Desktop/newcore/include/linux/atomic/atomic-arch-fallback.h **** 	__atomic_acquire_fence();
1270:/mnt/c/Users/31740/Desktop/newcore/include/linux/atomic/atomic-arch-fallback.h **** 	return ret;
1271:/mnt/c/Users/31740/Desktop/newcore/include/linux/atomic/atomic-arch-fallback.h **** #elif defined(arch_atomic_dec_return)
1272:/mnt/c/Users/31740/Desktop/newcore/include/linux/atomic/atomic-arch-fallback.h **** 	return arch_atomic_dec_return(v);
1273:/mnt/c/Users/31740/Desktop/newcore/include/linux/atomic/atomic-arch-fallback.h **** #else
1274:/mnt/c/Users/31740/Desktop/newcore/include/linux/atomic/atomic-arch-fallback.h **** 	return raw_atomic_sub_return_acquire(1, v);
1275:/mnt/c/Users/31740/Desktop/newcore/include/linux/atomic/atomic-arch-fallback.h **** #endif
1276:/mnt/c/Users/31740/Desktop/newcore/include/linux/atomic/atomic-arch-fallback.h **** }
1277:/mnt/c/Users/31740/Desktop/newcore/include/linux/atomic/atomic-arch-fallback.h **** 
1278:/mnt/c/Users/31740/Desktop/newcore/include/linux/atomic/atomic-arch-fallback.h **** /**
1279:/mnt/c/Users/31740/Desktop/newcore/include/linux/atomic/atomic-arch-fallback.h ****  * raw_atomic_dec_return_release() - atomic decrement with release ordering
1280:/mnt/c/Users/31740/Desktop/newcore/include/linux/atomic/atomic-arch-fallback.h ****  * @v: pointer to atomic_t
1281:/mnt/c/Users/31740/Desktop/newcore/include/linux/atomic/atomic-arch-fallback.h ****  *
1282:/mnt/c/Users/31740/Desktop/newcore/include/linux/atomic/atomic-arch-fallback.h ****  * Atomically updates @v to (@v - 1) with release ordering.
1283:/mnt/c/Users/31740/Desktop/newcore/include/linux/atomic/atomic-arch-fallback.h ****  *
1284:/mnt/c/Users/31740/Desktop/newcore/include/linux/atomic/atomic-arch-fallback.h ****  * Safe to use in noinstr code; prefer atomic_dec_return_release() elsewhere.
1285:/mnt/c/Users/31740/Desktop/newcore/include/linux/atomic/atomic-arch-fallback.h ****  *
1286:/mnt/c/Users/31740/Desktop/newcore/include/linux/atomic/atomic-arch-fallback.h ****  * Return: The updated value of @v.
1287:/mnt/c/Users/31740/Desktop/newcore/include/linux/atomic/atomic-arch-fallback.h ****  */
1288:/mnt/c/Users/31740/Desktop/newcore/include/linux/atomic/atomic-arch-fallback.h **** static __always_inline int
1289:/mnt/c/Users/31740/Desktop/newcore/include/linux/atomic/atomic-arch-fallback.h **** raw_atomic_dec_return_release(atomic_t *v)
1290:/mnt/c/Users/31740/Desktop/newcore/include/linux/atomic/atomic-arch-fallback.h **** {
1291:/mnt/c/Users/31740/Desktop/newcore/include/linux/atomic/atomic-arch-fallback.h **** #if defined(arch_atomic_dec_return_release)
1292:/mnt/c/Users/31740/Desktop/newcore/include/linux/atomic/atomic-arch-fallback.h **** 	return arch_atomic_dec_return_release(v);
1293:/mnt/c/Users/31740/Desktop/newcore/include/linux/atomic/atomic-arch-fallback.h **** #elif defined(arch_atomic_dec_return_relaxed)
1294:/mnt/c/Users/31740/Desktop/newcore/include/linux/atomic/atomic-arch-fallback.h **** 	__atomic_release_fence();
1295:/mnt/c/Users/31740/Desktop/newcore/include/linux/atomic/atomic-arch-fallback.h **** 	return arch_atomic_dec_return_relaxed(v);
1296:/mnt/c/Users/31740/Desktop/newcore/include/linux/atomic/atomic-arch-fallback.h **** #elif defined(arch_atomic_dec_return)
ARM GAS  /tmp/ccyCLDig.s 			page 113


1297:/mnt/c/Users/31740/Desktop/newcore/include/linux/atomic/atomic-arch-fallback.h **** 	return arch_atomic_dec_return(v);
1298:/mnt/c/Users/31740/Desktop/newcore/include/linux/atomic/atomic-arch-fallback.h **** #else
1299:/mnt/c/Users/31740/Desktop/newcore/include/linux/atomic/atomic-arch-fallback.h **** 	return raw_atomic_sub_return_release(1, v);
1300:/mnt/c/Users/31740/Desktop/newcore/include/linux/atomic/atomic-arch-fallback.h **** #endif
1301:/mnt/c/Users/31740/Desktop/newcore/include/linux/atomic/atomic-arch-fallback.h **** }
1302:/mnt/c/Users/31740/Desktop/newcore/include/linux/atomic/atomic-arch-fallback.h **** 
1303:/mnt/c/Users/31740/Desktop/newcore/include/linux/atomic/atomic-arch-fallback.h **** /**
1304:/mnt/c/Users/31740/Desktop/newcore/include/linux/atomic/atomic-arch-fallback.h ****  * raw_atomic_dec_return_relaxed() - atomic decrement with relaxed ordering
1305:/mnt/c/Users/31740/Desktop/newcore/include/linux/atomic/atomic-arch-fallback.h ****  * @v: pointer to atomic_t
1306:/mnt/c/Users/31740/Desktop/newcore/include/linux/atomic/atomic-arch-fallback.h ****  *
1307:/mnt/c/Users/31740/Desktop/newcore/include/linux/atomic/atomic-arch-fallback.h ****  * Atomically updates @v to (@v - 1) with relaxed ordering.
1308:/mnt/c/Users/31740/Desktop/newcore/include/linux/atomic/atomic-arch-fallback.h ****  *
1309:/mnt/c/Users/31740/Desktop/newcore/include/linux/atomic/atomic-arch-fallback.h ****  * Safe to use in noinstr code; prefer atomic_dec_return_relaxed() elsewhere.
1310:/mnt/c/Users/31740/Desktop/newcore/include/linux/atomic/atomic-arch-fallback.h ****  *
1311:/mnt/c/Users/31740/Desktop/newcore/include/linux/atomic/atomic-arch-fallback.h ****  * Return: The updated value of @v.
1312:/mnt/c/Users/31740/Desktop/newcore/include/linux/atomic/atomic-arch-fallback.h ****  */
1313:/mnt/c/Users/31740/Desktop/newcore/include/linux/atomic/atomic-arch-fallback.h **** static __always_inline int
1314:/mnt/c/Users/31740/Desktop/newcore/include/linux/atomic/atomic-arch-fallback.h **** raw_atomic_dec_return_relaxed(atomic_t *v)
1315:/mnt/c/Users/31740/Desktop/newcore/include/linux/atomic/atomic-arch-fallback.h **** {
1316:/mnt/c/Users/31740/Desktop/newcore/include/linux/atomic/atomic-arch-fallback.h **** #if defined(arch_atomic_dec_return_relaxed)
1317:/mnt/c/Users/31740/Desktop/newcore/include/linux/atomic/atomic-arch-fallback.h **** 	return arch_atomic_dec_return_relaxed(v);
1318:/mnt/c/Users/31740/Desktop/newcore/include/linux/atomic/atomic-arch-fallback.h **** #elif defined(arch_atomic_dec_return)
1319:/mnt/c/Users/31740/Desktop/newcore/include/linux/atomic/atomic-arch-fallback.h **** 	return arch_atomic_dec_return(v);
1320:/mnt/c/Users/31740/Desktop/newcore/include/linux/atomic/atomic-arch-fallback.h **** #else
1321:/mnt/c/Users/31740/Desktop/newcore/include/linux/atomic/atomic-arch-fallback.h **** 	return raw_atomic_sub_return_relaxed(1, v);
1322:/mnt/c/Users/31740/Desktop/newcore/include/linux/atomic/atomic-arch-fallback.h **** #endif
1323:/mnt/c/Users/31740/Desktop/newcore/include/linux/atomic/atomic-arch-fallback.h **** }
1324:/mnt/c/Users/31740/Desktop/newcore/include/linux/atomic/atomic-arch-fallback.h **** 
1325:/mnt/c/Users/31740/Desktop/newcore/include/linux/atomic/atomic-arch-fallback.h **** /**
1326:/mnt/c/Users/31740/Desktop/newcore/include/linux/atomic/atomic-arch-fallback.h ****  * raw_atomic_fetch_dec() - atomic decrement with full ordering
1327:/mnt/c/Users/31740/Desktop/newcore/include/linux/atomic/atomic-arch-fallback.h ****  * @v: pointer to atomic_t
1328:/mnt/c/Users/31740/Desktop/newcore/include/linux/atomic/atomic-arch-fallback.h ****  *
1329:/mnt/c/Users/31740/Desktop/newcore/include/linux/atomic/atomic-arch-fallback.h ****  * Atomically updates @v to (@v - 1) with full ordering.
1330:/mnt/c/Users/31740/Desktop/newcore/include/linux/atomic/atomic-arch-fallback.h ****  *
1331:/mnt/c/Users/31740/Desktop/newcore/include/linux/atomic/atomic-arch-fallback.h ****  * Safe to use in noinstr code; prefer atomic_fetch_dec() elsewhere.
1332:/mnt/c/Users/31740/Desktop/newcore/include/linux/atomic/atomic-arch-fallback.h ****  *
1333:/mnt/c/Users/31740/Desktop/newcore/include/linux/atomic/atomic-arch-fallback.h ****  * Return: The original value of @v.
1334:/mnt/c/Users/31740/Desktop/newcore/include/linux/atomic/atomic-arch-fallback.h ****  */
1335:/mnt/c/Users/31740/Desktop/newcore/include/linux/atomic/atomic-arch-fallback.h **** static __always_inline int
1336:/mnt/c/Users/31740/Desktop/newcore/include/linux/atomic/atomic-arch-fallback.h **** raw_atomic_fetch_dec(atomic_t *v)
1337:/mnt/c/Users/31740/Desktop/newcore/include/linux/atomic/atomic-arch-fallback.h **** {
1338:/mnt/c/Users/31740/Desktop/newcore/include/linux/atomic/atomic-arch-fallback.h **** #if defined(arch_atomic_fetch_dec)
1339:/mnt/c/Users/31740/Desktop/newcore/include/linux/atomic/atomic-arch-fallback.h **** 	return arch_atomic_fetch_dec(v);
1340:/mnt/c/Users/31740/Desktop/newcore/include/linux/atomic/atomic-arch-fallback.h **** #elif defined(arch_atomic_fetch_dec_relaxed)
1341:/mnt/c/Users/31740/Desktop/newcore/include/linux/atomic/atomic-arch-fallback.h **** 	int ret;
1342:/mnt/c/Users/31740/Desktop/newcore/include/linux/atomic/atomic-arch-fallback.h **** 	__atomic_pre_full_fence();
1343:/mnt/c/Users/31740/Desktop/newcore/include/linux/atomic/atomic-arch-fallback.h **** 	ret = arch_atomic_fetch_dec_relaxed(v);
1344:/mnt/c/Users/31740/Desktop/newcore/include/linux/atomic/atomic-arch-fallback.h **** 	__atomic_post_full_fence();
1345:/mnt/c/Users/31740/Desktop/newcore/include/linux/atomic/atomic-arch-fallback.h **** 	return ret;
1346:/mnt/c/Users/31740/Desktop/newcore/include/linux/atomic/atomic-arch-fallback.h **** #else
1347:/mnt/c/Users/31740/Desktop/newcore/include/linux/atomic/atomic-arch-fallback.h **** 	return raw_atomic_fetch_sub(1, v);
1348:/mnt/c/Users/31740/Desktop/newcore/include/linux/atomic/atomic-arch-fallback.h **** #endif
1349:/mnt/c/Users/31740/Desktop/newcore/include/linux/atomic/atomic-arch-fallback.h **** }
1350:/mnt/c/Users/31740/Desktop/newcore/include/linux/atomic/atomic-arch-fallback.h **** 
1351:/mnt/c/Users/31740/Desktop/newcore/include/linux/atomic/atomic-arch-fallback.h **** /**
1352:/mnt/c/Users/31740/Desktop/newcore/include/linux/atomic/atomic-arch-fallback.h ****  * raw_atomic_fetch_dec_acquire() - atomic decrement with acquire ordering
1353:/mnt/c/Users/31740/Desktop/newcore/include/linux/atomic/atomic-arch-fallback.h ****  * @v: pointer to atomic_t
ARM GAS  /tmp/ccyCLDig.s 			page 114


1354:/mnt/c/Users/31740/Desktop/newcore/include/linux/atomic/atomic-arch-fallback.h ****  *
1355:/mnt/c/Users/31740/Desktop/newcore/include/linux/atomic/atomic-arch-fallback.h ****  * Atomically updates @v to (@v - 1) with acquire ordering.
1356:/mnt/c/Users/31740/Desktop/newcore/include/linux/atomic/atomic-arch-fallback.h ****  *
1357:/mnt/c/Users/31740/Desktop/newcore/include/linux/atomic/atomic-arch-fallback.h ****  * Safe to use in noinstr code; prefer atomic_fetch_dec_acquire() elsewhere.
1358:/mnt/c/Users/31740/Desktop/newcore/include/linux/atomic/atomic-arch-fallback.h ****  *
1359:/mnt/c/Users/31740/Desktop/newcore/include/linux/atomic/atomic-arch-fallback.h ****  * Return: The original value of @v.
1360:/mnt/c/Users/31740/Desktop/newcore/include/linux/atomic/atomic-arch-fallback.h ****  */
1361:/mnt/c/Users/31740/Desktop/newcore/include/linux/atomic/atomic-arch-fallback.h **** static __always_inline int
1362:/mnt/c/Users/31740/Desktop/newcore/include/linux/atomic/atomic-arch-fallback.h **** raw_atomic_fetch_dec_acquire(atomic_t *v)
1363:/mnt/c/Users/31740/Desktop/newcore/include/linux/atomic/atomic-arch-fallback.h **** {
1364:/mnt/c/Users/31740/Desktop/newcore/include/linux/atomic/atomic-arch-fallback.h **** #if defined(arch_atomic_fetch_dec_acquire)
1365:/mnt/c/Users/31740/Desktop/newcore/include/linux/atomic/atomic-arch-fallback.h **** 	return arch_atomic_fetch_dec_acquire(v);
1366:/mnt/c/Users/31740/Desktop/newcore/include/linux/atomic/atomic-arch-fallback.h **** #elif defined(arch_atomic_fetch_dec_relaxed)
1367:/mnt/c/Users/31740/Desktop/newcore/include/linux/atomic/atomic-arch-fallback.h **** 	int ret = arch_atomic_fetch_dec_relaxed(v);
1368:/mnt/c/Users/31740/Desktop/newcore/include/linux/atomic/atomic-arch-fallback.h **** 	__atomic_acquire_fence();
1369:/mnt/c/Users/31740/Desktop/newcore/include/linux/atomic/atomic-arch-fallback.h **** 	return ret;
1370:/mnt/c/Users/31740/Desktop/newcore/include/linux/atomic/atomic-arch-fallback.h **** #elif defined(arch_atomic_fetch_dec)
1371:/mnt/c/Users/31740/Desktop/newcore/include/linux/atomic/atomic-arch-fallback.h **** 	return arch_atomic_fetch_dec(v);
1372:/mnt/c/Users/31740/Desktop/newcore/include/linux/atomic/atomic-arch-fallback.h **** #else
1373:/mnt/c/Users/31740/Desktop/newcore/include/linux/atomic/atomic-arch-fallback.h **** 	return raw_atomic_fetch_sub_acquire(1, v);
1374:/mnt/c/Users/31740/Desktop/newcore/include/linux/atomic/atomic-arch-fallback.h **** #endif
1375:/mnt/c/Users/31740/Desktop/newcore/include/linux/atomic/atomic-arch-fallback.h **** }
1376:/mnt/c/Users/31740/Desktop/newcore/include/linux/atomic/atomic-arch-fallback.h **** 
1377:/mnt/c/Users/31740/Desktop/newcore/include/linux/atomic/atomic-arch-fallback.h **** /**
1378:/mnt/c/Users/31740/Desktop/newcore/include/linux/atomic/atomic-arch-fallback.h ****  * raw_atomic_fetch_dec_release() - atomic decrement with release ordering
1379:/mnt/c/Users/31740/Desktop/newcore/include/linux/atomic/atomic-arch-fallback.h ****  * @v: pointer to atomic_t
1380:/mnt/c/Users/31740/Desktop/newcore/include/linux/atomic/atomic-arch-fallback.h ****  *
1381:/mnt/c/Users/31740/Desktop/newcore/include/linux/atomic/atomic-arch-fallback.h ****  * Atomically updates @v to (@v - 1) with release ordering.
1382:/mnt/c/Users/31740/Desktop/newcore/include/linux/atomic/atomic-arch-fallback.h ****  *
1383:/mnt/c/Users/31740/Desktop/newcore/include/linux/atomic/atomic-arch-fallback.h ****  * Safe to use in noinstr code; prefer atomic_fetch_dec_release() elsewhere.
1384:/mnt/c/Users/31740/Desktop/newcore/include/linux/atomic/atomic-arch-fallback.h ****  *
1385:/mnt/c/Users/31740/Desktop/newcore/include/linux/atomic/atomic-arch-fallback.h ****  * Return: The original value of @v.
1386:/mnt/c/Users/31740/Desktop/newcore/include/linux/atomic/atomic-arch-fallback.h ****  */
1387:/mnt/c/Users/31740/Desktop/newcore/include/linux/atomic/atomic-arch-fallback.h **** static __always_inline int
1388:/mnt/c/Users/31740/Desktop/newcore/include/linux/atomic/atomic-arch-fallback.h **** raw_atomic_fetch_dec_release(atomic_t *v)
1389:/mnt/c/Users/31740/Desktop/newcore/include/linux/atomic/atomic-arch-fallback.h **** {
1390:/mnt/c/Users/31740/Desktop/newcore/include/linux/atomic/atomic-arch-fallback.h **** #if defined(arch_atomic_fetch_dec_release)
1391:/mnt/c/Users/31740/Desktop/newcore/include/linux/atomic/atomic-arch-fallback.h **** 	return arch_atomic_fetch_dec_release(v);
1392:/mnt/c/Users/31740/Desktop/newcore/include/linux/atomic/atomic-arch-fallback.h **** #elif defined(arch_atomic_fetch_dec_relaxed)
1393:/mnt/c/Users/31740/Desktop/newcore/include/linux/atomic/atomic-arch-fallback.h **** 	__atomic_release_fence();
1394:/mnt/c/Users/31740/Desktop/newcore/include/linux/atomic/atomic-arch-fallback.h **** 	return arch_atomic_fetch_dec_relaxed(v);
1395:/mnt/c/Users/31740/Desktop/newcore/include/linux/atomic/atomic-arch-fallback.h **** #elif defined(arch_atomic_fetch_dec)
1396:/mnt/c/Users/31740/Desktop/newcore/include/linux/atomic/atomic-arch-fallback.h **** 	return arch_atomic_fetch_dec(v);
1397:/mnt/c/Users/31740/Desktop/newcore/include/linux/atomic/atomic-arch-fallback.h **** #else
1398:/mnt/c/Users/31740/Desktop/newcore/include/linux/atomic/atomic-arch-fallback.h **** 	return raw_atomic_fetch_sub_release(1, v);
1399:/mnt/c/Users/31740/Desktop/newcore/include/linux/atomic/atomic-arch-fallback.h **** #endif
1400:/mnt/c/Users/31740/Desktop/newcore/include/linux/atomic/atomic-arch-fallback.h **** }
1401:/mnt/c/Users/31740/Desktop/newcore/include/linux/atomic/atomic-arch-fallback.h **** 
1402:/mnt/c/Users/31740/Desktop/newcore/include/linux/atomic/atomic-arch-fallback.h **** /**
1403:/mnt/c/Users/31740/Desktop/newcore/include/linux/atomic/atomic-arch-fallback.h ****  * raw_atomic_fetch_dec_relaxed() - atomic decrement with relaxed ordering
1404:/mnt/c/Users/31740/Desktop/newcore/include/linux/atomic/atomic-arch-fallback.h ****  * @v: pointer to atomic_t
1405:/mnt/c/Users/31740/Desktop/newcore/include/linux/atomic/atomic-arch-fallback.h ****  *
1406:/mnt/c/Users/31740/Desktop/newcore/include/linux/atomic/atomic-arch-fallback.h ****  * Atomically updates @v to (@v - 1) with relaxed ordering.
1407:/mnt/c/Users/31740/Desktop/newcore/include/linux/atomic/atomic-arch-fallback.h ****  *
1408:/mnt/c/Users/31740/Desktop/newcore/include/linux/atomic/atomic-arch-fallback.h ****  * Safe to use in noinstr code; prefer atomic_fetch_dec_relaxed() elsewhere.
1409:/mnt/c/Users/31740/Desktop/newcore/include/linux/atomic/atomic-arch-fallback.h ****  *
1410:/mnt/c/Users/31740/Desktop/newcore/include/linux/atomic/atomic-arch-fallback.h ****  * Return: The original value of @v.
ARM GAS  /tmp/ccyCLDig.s 			page 115


1411:/mnt/c/Users/31740/Desktop/newcore/include/linux/atomic/atomic-arch-fallback.h ****  */
1412:/mnt/c/Users/31740/Desktop/newcore/include/linux/atomic/atomic-arch-fallback.h **** static __always_inline int
1413:/mnt/c/Users/31740/Desktop/newcore/include/linux/atomic/atomic-arch-fallback.h **** raw_atomic_fetch_dec_relaxed(atomic_t *v)
1414:/mnt/c/Users/31740/Desktop/newcore/include/linux/atomic/atomic-arch-fallback.h **** {
1415:/mnt/c/Users/31740/Desktop/newcore/include/linux/atomic/atomic-arch-fallback.h **** #if defined(arch_atomic_fetch_dec_relaxed)
1416:/mnt/c/Users/31740/Desktop/newcore/include/linux/atomic/atomic-arch-fallback.h **** 	return arch_atomic_fetch_dec_relaxed(v);
1417:/mnt/c/Users/31740/Desktop/newcore/include/linux/atomic/atomic-arch-fallback.h **** #elif defined(arch_atomic_fetch_dec)
1418:/mnt/c/Users/31740/Desktop/newcore/include/linux/atomic/atomic-arch-fallback.h **** 	return arch_atomic_fetch_dec(v);
1419:/mnt/c/Users/31740/Desktop/newcore/include/linux/atomic/atomic-arch-fallback.h **** #else
1420:/mnt/c/Users/31740/Desktop/newcore/include/linux/atomic/atomic-arch-fallback.h **** 	return raw_atomic_fetch_sub_relaxed(1, v);
1421:/mnt/c/Users/31740/Desktop/newcore/include/linux/atomic/atomic-arch-fallback.h **** #endif
1422:/mnt/c/Users/31740/Desktop/newcore/include/linux/atomic/atomic-arch-fallback.h **** }
1423:/mnt/c/Users/31740/Desktop/newcore/include/linux/atomic/atomic-arch-fallback.h **** 
1424:/mnt/c/Users/31740/Desktop/newcore/include/linux/atomic/atomic-arch-fallback.h **** /**
1425:/mnt/c/Users/31740/Desktop/newcore/include/linux/atomic/atomic-arch-fallback.h ****  * raw_atomic_and() - atomic bitwise AND with relaxed ordering
1426:/mnt/c/Users/31740/Desktop/newcore/include/linux/atomic/atomic-arch-fallback.h ****  * @i: int value
1427:/mnt/c/Users/31740/Desktop/newcore/include/linux/atomic/atomic-arch-fallback.h ****  * @v: pointer to atomic_t
1428:/mnt/c/Users/31740/Desktop/newcore/include/linux/atomic/atomic-arch-fallback.h ****  *
1429:/mnt/c/Users/31740/Desktop/newcore/include/linux/atomic/atomic-arch-fallback.h ****  * Atomically updates @v to (@v & @i) with relaxed ordering.
1430:/mnt/c/Users/31740/Desktop/newcore/include/linux/atomic/atomic-arch-fallback.h ****  *
1431:/mnt/c/Users/31740/Desktop/newcore/include/linux/atomic/atomic-arch-fallback.h ****  * Safe to use in noinstr code; prefer atomic_and() elsewhere.
1432:/mnt/c/Users/31740/Desktop/newcore/include/linux/atomic/atomic-arch-fallback.h ****  *
1433:/mnt/c/Users/31740/Desktop/newcore/include/linux/atomic/atomic-arch-fallback.h ****  * Return: Nothing.
1434:/mnt/c/Users/31740/Desktop/newcore/include/linux/atomic/atomic-arch-fallback.h ****  */
1435:/mnt/c/Users/31740/Desktop/newcore/include/linux/atomic/atomic-arch-fallback.h **** static __always_inline void
1436:/mnt/c/Users/31740/Desktop/newcore/include/linux/atomic/atomic-arch-fallback.h **** raw_atomic_and(int i, atomic_t *v)
1437:/mnt/c/Users/31740/Desktop/newcore/include/linux/atomic/atomic-arch-fallback.h **** {
1438:/mnt/c/Users/31740/Desktop/newcore/include/linux/atomic/atomic-arch-fallback.h **** 	arch_atomic_and(i, v);
1439:/mnt/c/Users/31740/Desktop/newcore/include/linux/atomic/atomic-arch-fallback.h **** }
1440:/mnt/c/Users/31740/Desktop/newcore/include/linux/atomic/atomic-arch-fallback.h **** 
1441:/mnt/c/Users/31740/Desktop/newcore/include/linux/atomic/atomic-arch-fallback.h **** /**
1442:/mnt/c/Users/31740/Desktop/newcore/include/linux/atomic/atomic-arch-fallback.h ****  * raw_atomic_fetch_and() - atomic bitwise AND with full ordering
1443:/mnt/c/Users/31740/Desktop/newcore/include/linux/atomic/atomic-arch-fallback.h ****  * @i: int value
1444:/mnt/c/Users/31740/Desktop/newcore/include/linux/atomic/atomic-arch-fallback.h ****  * @v: pointer to atomic_t
1445:/mnt/c/Users/31740/Desktop/newcore/include/linux/atomic/atomic-arch-fallback.h ****  *
1446:/mnt/c/Users/31740/Desktop/newcore/include/linux/atomic/atomic-arch-fallback.h ****  * Atomically updates @v to (@v & @i) with full ordering.
1447:/mnt/c/Users/31740/Desktop/newcore/include/linux/atomic/atomic-arch-fallback.h ****  *
1448:/mnt/c/Users/31740/Desktop/newcore/include/linux/atomic/atomic-arch-fallback.h ****  * Safe to use in noinstr code; prefer atomic_fetch_and() elsewhere.
1449:/mnt/c/Users/31740/Desktop/newcore/include/linux/atomic/atomic-arch-fallback.h ****  *
1450:/mnt/c/Users/31740/Desktop/newcore/include/linux/atomic/atomic-arch-fallback.h ****  * Return: The original value of @v.
1451:/mnt/c/Users/31740/Desktop/newcore/include/linux/atomic/atomic-arch-fallback.h ****  */
1452:/mnt/c/Users/31740/Desktop/newcore/include/linux/atomic/atomic-arch-fallback.h **** static __always_inline int
1453:/mnt/c/Users/31740/Desktop/newcore/include/linux/atomic/atomic-arch-fallback.h **** raw_atomic_fetch_and(int i, atomic_t *v)
1454:/mnt/c/Users/31740/Desktop/newcore/include/linux/atomic/atomic-arch-fallback.h **** {
1455:/mnt/c/Users/31740/Desktop/newcore/include/linux/atomic/atomic-arch-fallback.h **** #if defined(arch_atomic_fetch_and)
1456:/mnt/c/Users/31740/Desktop/newcore/include/linux/atomic/atomic-arch-fallback.h **** 	return arch_atomic_fetch_and(i, v);
1457:/mnt/c/Users/31740/Desktop/newcore/include/linux/atomic/atomic-arch-fallback.h **** #elif defined(arch_atomic_fetch_and_relaxed)
1458:/mnt/c/Users/31740/Desktop/newcore/include/linux/atomic/atomic-arch-fallback.h **** 	int ret;
1459:/mnt/c/Users/31740/Desktop/newcore/include/linux/atomic/atomic-arch-fallback.h **** 	__atomic_pre_full_fence();
1460:/mnt/c/Users/31740/Desktop/newcore/include/linux/atomic/atomic-arch-fallback.h **** 	ret = arch_atomic_fetch_and_relaxed(i, v);
1461:/mnt/c/Users/31740/Desktop/newcore/include/linux/atomic/atomic-arch-fallback.h **** 	__atomic_post_full_fence();
1462:/mnt/c/Users/31740/Desktop/newcore/include/linux/atomic/atomic-arch-fallback.h **** 	return ret;
1463:/mnt/c/Users/31740/Desktop/newcore/include/linux/atomic/atomic-arch-fallback.h **** #else
1464:/mnt/c/Users/31740/Desktop/newcore/include/linux/atomic/atomic-arch-fallback.h **** #error "Unable to define raw_atomic_fetch_and"
1465:/mnt/c/Users/31740/Desktop/newcore/include/linux/atomic/atomic-arch-fallback.h **** #endif
1466:/mnt/c/Users/31740/Desktop/newcore/include/linux/atomic/atomic-arch-fallback.h **** }
1467:/mnt/c/Users/31740/Desktop/newcore/include/linux/atomic/atomic-arch-fallback.h **** 
ARM GAS  /tmp/ccyCLDig.s 			page 116


1468:/mnt/c/Users/31740/Desktop/newcore/include/linux/atomic/atomic-arch-fallback.h **** /**
1469:/mnt/c/Users/31740/Desktop/newcore/include/linux/atomic/atomic-arch-fallback.h ****  * raw_atomic_fetch_and_acquire() - atomic bitwise AND with acquire ordering
1470:/mnt/c/Users/31740/Desktop/newcore/include/linux/atomic/atomic-arch-fallback.h ****  * @i: int value
1471:/mnt/c/Users/31740/Desktop/newcore/include/linux/atomic/atomic-arch-fallback.h ****  * @v: pointer to atomic_t
1472:/mnt/c/Users/31740/Desktop/newcore/include/linux/atomic/atomic-arch-fallback.h ****  *
1473:/mnt/c/Users/31740/Desktop/newcore/include/linux/atomic/atomic-arch-fallback.h ****  * Atomically updates @v to (@v & @i) with acquire ordering.
1474:/mnt/c/Users/31740/Desktop/newcore/include/linux/atomic/atomic-arch-fallback.h ****  *
1475:/mnt/c/Users/31740/Desktop/newcore/include/linux/atomic/atomic-arch-fallback.h ****  * Safe to use in noinstr code; prefer atomic_fetch_and_acquire() elsewhere.
1476:/mnt/c/Users/31740/Desktop/newcore/include/linux/atomic/atomic-arch-fallback.h ****  *
1477:/mnt/c/Users/31740/Desktop/newcore/include/linux/atomic/atomic-arch-fallback.h ****  * Return: The original value of @v.
1478:/mnt/c/Users/31740/Desktop/newcore/include/linux/atomic/atomic-arch-fallback.h ****  */
1479:/mnt/c/Users/31740/Desktop/newcore/include/linux/atomic/atomic-arch-fallback.h **** static __always_inline int
1480:/mnt/c/Users/31740/Desktop/newcore/include/linux/atomic/atomic-arch-fallback.h **** raw_atomic_fetch_and_acquire(int i, atomic_t *v)
1481:/mnt/c/Users/31740/Desktop/newcore/include/linux/atomic/atomic-arch-fallback.h **** {
1482:/mnt/c/Users/31740/Desktop/newcore/include/linux/atomic/atomic-arch-fallback.h **** #if defined(arch_atomic_fetch_and_acquire)
1483:/mnt/c/Users/31740/Desktop/newcore/include/linux/atomic/atomic-arch-fallback.h **** 	return arch_atomic_fetch_and_acquire(i, v);
1484:/mnt/c/Users/31740/Desktop/newcore/include/linux/atomic/atomic-arch-fallback.h **** #elif defined(arch_atomic_fetch_and_relaxed)
1485:/mnt/c/Users/31740/Desktop/newcore/include/linux/atomic/atomic-arch-fallback.h **** 	int ret = arch_atomic_fetch_and_relaxed(i, v);
1486:/mnt/c/Users/31740/Desktop/newcore/include/linux/atomic/atomic-arch-fallback.h **** 	__atomic_acquire_fence();
1487:/mnt/c/Users/31740/Desktop/newcore/include/linux/atomic/atomic-arch-fallback.h **** 	return ret;
1488:/mnt/c/Users/31740/Desktop/newcore/include/linux/atomic/atomic-arch-fallback.h **** #elif defined(arch_atomic_fetch_and)
1489:/mnt/c/Users/31740/Desktop/newcore/include/linux/atomic/atomic-arch-fallback.h **** 	return arch_atomic_fetch_and(i, v);
1490:/mnt/c/Users/31740/Desktop/newcore/include/linux/atomic/atomic-arch-fallback.h **** #else
1491:/mnt/c/Users/31740/Desktop/newcore/include/linux/atomic/atomic-arch-fallback.h **** #error "Unable to define raw_atomic_fetch_and_acquire"
1492:/mnt/c/Users/31740/Desktop/newcore/include/linux/atomic/atomic-arch-fallback.h **** #endif
1493:/mnt/c/Users/31740/Desktop/newcore/include/linux/atomic/atomic-arch-fallback.h **** }
1494:/mnt/c/Users/31740/Desktop/newcore/include/linux/atomic/atomic-arch-fallback.h **** 
1495:/mnt/c/Users/31740/Desktop/newcore/include/linux/atomic/atomic-arch-fallback.h **** /**
1496:/mnt/c/Users/31740/Desktop/newcore/include/linux/atomic/atomic-arch-fallback.h ****  * raw_atomic_fetch_and_release() - atomic bitwise AND with release ordering
1497:/mnt/c/Users/31740/Desktop/newcore/include/linux/atomic/atomic-arch-fallback.h ****  * @i: int value
1498:/mnt/c/Users/31740/Desktop/newcore/include/linux/atomic/atomic-arch-fallback.h ****  * @v: pointer to atomic_t
1499:/mnt/c/Users/31740/Desktop/newcore/include/linux/atomic/atomic-arch-fallback.h ****  *
1500:/mnt/c/Users/31740/Desktop/newcore/include/linux/atomic/atomic-arch-fallback.h ****  * Atomically updates @v to (@v & @i) with release ordering.
1501:/mnt/c/Users/31740/Desktop/newcore/include/linux/atomic/atomic-arch-fallback.h ****  *
1502:/mnt/c/Users/31740/Desktop/newcore/include/linux/atomic/atomic-arch-fallback.h ****  * Safe to use in noinstr code; prefer atomic_fetch_and_release() elsewhere.
1503:/mnt/c/Users/31740/Desktop/newcore/include/linux/atomic/atomic-arch-fallback.h ****  *
1504:/mnt/c/Users/31740/Desktop/newcore/include/linux/atomic/atomic-arch-fallback.h ****  * Return: The original value of @v.
1505:/mnt/c/Users/31740/Desktop/newcore/include/linux/atomic/atomic-arch-fallback.h ****  */
1506:/mnt/c/Users/31740/Desktop/newcore/include/linux/atomic/atomic-arch-fallback.h **** static __always_inline int
1507:/mnt/c/Users/31740/Desktop/newcore/include/linux/atomic/atomic-arch-fallback.h **** raw_atomic_fetch_and_release(int i, atomic_t *v)
1508:/mnt/c/Users/31740/Desktop/newcore/include/linux/atomic/atomic-arch-fallback.h **** {
1509:/mnt/c/Users/31740/Desktop/newcore/include/linux/atomic/atomic-arch-fallback.h **** #if defined(arch_atomic_fetch_and_release)
1510:/mnt/c/Users/31740/Desktop/newcore/include/linux/atomic/atomic-arch-fallback.h **** 	return arch_atomic_fetch_and_release(i, v);
1511:/mnt/c/Users/31740/Desktop/newcore/include/linux/atomic/atomic-arch-fallback.h **** #elif defined(arch_atomic_fetch_and_relaxed)
1512:/mnt/c/Users/31740/Desktop/newcore/include/linux/atomic/atomic-arch-fallback.h **** 	__atomic_release_fence();
1513:/mnt/c/Users/31740/Desktop/newcore/include/linux/atomic/atomic-arch-fallback.h **** 	return arch_atomic_fetch_and_relaxed(i, v);
1514:/mnt/c/Users/31740/Desktop/newcore/include/linux/atomic/atomic-arch-fallback.h **** #elif defined(arch_atomic_fetch_and)
1515:/mnt/c/Users/31740/Desktop/newcore/include/linux/atomic/atomic-arch-fallback.h **** 	return arch_atomic_fetch_and(i, v);
1516:/mnt/c/Users/31740/Desktop/newcore/include/linux/atomic/atomic-arch-fallback.h **** #else
1517:/mnt/c/Users/31740/Desktop/newcore/include/linux/atomic/atomic-arch-fallback.h **** #error "Unable to define raw_atomic_fetch_and_release"
1518:/mnt/c/Users/31740/Desktop/newcore/include/linux/atomic/atomic-arch-fallback.h **** #endif
1519:/mnt/c/Users/31740/Desktop/newcore/include/linux/atomic/atomic-arch-fallback.h **** }
1520:/mnt/c/Users/31740/Desktop/newcore/include/linux/atomic/atomic-arch-fallback.h **** 
1521:/mnt/c/Users/31740/Desktop/newcore/include/linux/atomic/atomic-arch-fallback.h **** /**
1522:/mnt/c/Users/31740/Desktop/newcore/include/linux/atomic/atomic-arch-fallback.h ****  * raw_atomic_fetch_and_relaxed() - atomic bitwise AND with relaxed ordering
1523:/mnt/c/Users/31740/Desktop/newcore/include/linux/atomic/atomic-arch-fallback.h ****  * @i: int value
1524:/mnt/c/Users/31740/Desktop/newcore/include/linux/atomic/atomic-arch-fallback.h ****  * @v: pointer to atomic_t
ARM GAS  /tmp/ccyCLDig.s 			page 117


1525:/mnt/c/Users/31740/Desktop/newcore/include/linux/atomic/atomic-arch-fallback.h ****  *
1526:/mnt/c/Users/31740/Desktop/newcore/include/linux/atomic/atomic-arch-fallback.h ****  * Atomically updates @v to (@v & @i) with relaxed ordering.
1527:/mnt/c/Users/31740/Desktop/newcore/include/linux/atomic/atomic-arch-fallback.h ****  *
1528:/mnt/c/Users/31740/Desktop/newcore/include/linux/atomic/atomic-arch-fallback.h ****  * Safe to use in noinstr code; prefer atomic_fetch_and_relaxed() elsewhere.
1529:/mnt/c/Users/31740/Desktop/newcore/include/linux/atomic/atomic-arch-fallback.h ****  *
1530:/mnt/c/Users/31740/Desktop/newcore/include/linux/atomic/atomic-arch-fallback.h ****  * Return: The original value of @v.
1531:/mnt/c/Users/31740/Desktop/newcore/include/linux/atomic/atomic-arch-fallback.h ****  */
1532:/mnt/c/Users/31740/Desktop/newcore/include/linux/atomic/atomic-arch-fallback.h **** static __always_inline int
1533:/mnt/c/Users/31740/Desktop/newcore/include/linux/atomic/atomic-arch-fallback.h **** raw_atomic_fetch_and_relaxed(int i, atomic_t *v)
1534:/mnt/c/Users/31740/Desktop/newcore/include/linux/atomic/atomic-arch-fallback.h **** {
1535:/mnt/c/Users/31740/Desktop/newcore/include/linux/atomic/atomic-arch-fallback.h **** #if defined(arch_atomic_fetch_and_relaxed)
1536:/mnt/c/Users/31740/Desktop/newcore/include/linux/atomic/atomic-arch-fallback.h **** 	return arch_atomic_fetch_and_relaxed(i, v);
1537:/mnt/c/Users/31740/Desktop/newcore/include/linux/atomic/atomic-arch-fallback.h **** #elif defined(arch_atomic_fetch_and)
1538:/mnt/c/Users/31740/Desktop/newcore/include/linux/atomic/atomic-arch-fallback.h **** 	return arch_atomic_fetch_and(i, v);
1539:/mnt/c/Users/31740/Desktop/newcore/include/linux/atomic/atomic-arch-fallback.h **** #else
1540:/mnt/c/Users/31740/Desktop/newcore/include/linux/atomic/atomic-arch-fallback.h **** #error "Unable to define raw_atomic_fetch_and_relaxed"
1541:/mnt/c/Users/31740/Desktop/newcore/include/linux/atomic/atomic-arch-fallback.h **** #endif
1542:/mnt/c/Users/31740/Desktop/newcore/include/linux/atomic/atomic-arch-fallback.h **** }
1543:/mnt/c/Users/31740/Desktop/newcore/include/linux/atomic/atomic-arch-fallback.h **** 
1544:/mnt/c/Users/31740/Desktop/newcore/include/linux/atomic/atomic-arch-fallback.h **** /**
1545:/mnt/c/Users/31740/Desktop/newcore/include/linux/atomic/atomic-arch-fallback.h ****  * raw_atomic_andnot() - atomic bitwise AND NOT with relaxed ordering
1546:/mnt/c/Users/31740/Desktop/newcore/include/linux/atomic/atomic-arch-fallback.h ****  * @i: int value
1547:/mnt/c/Users/31740/Desktop/newcore/include/linux/atomic/atomic-arch-fallback.h ****  * @v: pointer to atomic_t
1548:/mnt/c/Users/31740/Desktop/newcore/include/linux/atomic/atomic-arch-fallback.h ****  *
1549:/mnt/c/Users/31740/Desktop/newcore/include/linux/atomic/atomic-arch-fallback.h ****  * Atomically updates @v to (@v & ~@i) with relaxed ordering.
1550:/mnt/c/Users/31740/Desktop/newcore/include/linux/atomic/atomic-arch-fallback.h ****  *
1551:/mnt/c/Users/31740/Desktop/newcore/include/linux/atomic/atomic-arch-fallback.h ****  * Safe to use in noinstr code; prefer atomic_andnot() elsewhere.
1552:/mnt/c/Users/31740/Desktop/newcore/include/linux/atomic/atomic-arch-fallback.h ****  *
1553:/mnt/c/Users/31740/Desktop/newcore/include/linux/atomic/atomic-arch-fallback.h ****  * Return: Nothing.
1554:/mnt/c/Users/31740/Desktop/newcore/include/linux/atomic/atomic-arch-fallback.h ****  */
1555:/mnt/c/Users/31740/Desktop/newcore/include/linux/atomic/atomic-arch-fallback.h **** static __always_inline void
1556:/mnt/c/Users/31740/Desktop/newcore/include/linux/atomic/atomic-arch-fallback.h **** raw_atomic_andnot(int i, atomic_t *v)
1557:/mnt/c/Users/31740/Desktop/newcore/include/linux/atomic/atomic-arch-fallback.h **** {
1558:/mnt/c/Users/31740/Desktop/newcore/include/linux/atomic/atomic-arch-fallback.h **** #if defined(arch_atomic_andnot)
1559:/mnt/c/Users/31740/Desktop/newcore/include/linux/atomic/atomic-arch-fallback.h **** 	arch_atomic_andnot(i, v);
1560:/mnt/c/Users/31740/Desktop/newcore/include/linux/atomic/atomic-arch-fallback.h **** #else
1561:/mnt/c/Users/31740/Desktop/newcore/include/linux/atomic/atomic-arch-fallback.h **** 	raw_atomic_and(~i, v);
1562:/mnt/c/Users/31740/Desktop/newcore/include/linux/atomic/atomic-arch-fallback.h **** #endif
1563:/mnt/c/Users/31740/Desktop/newcore/include/linux/atomic/atomic-arch-fallback.h **** }
1564:/mnt/c/Users/31740/Desktop/newcore/include/linux/atomic/atomic-arch-fallback.h **** 
1565:/mnt/c/Users/31740/Desktop/newcore/include/linux/atomic/atomic-arch-fallback.h **** /**
1566:/mnt/c/Users/31740/Desktop/newcore/include/linux/atomic/atomic-arch-fallback.h ****  * raw_atomic_fetch_andnot() - atomic bitwise AND NOT with full ordering
1567:/mnt/c/Users/31740/Desktop/newcore/include/linux/atomic/atomic-arch-fallback.h ****  * @i: int value
1568:/mnt/c/Users/31740/Desktop/newcore/include/linux/atomic/atomic-arch-fallback.h ****  * @v: pointer to atomic_t
1569:/mnt/c/Users/31740/Desktop/newcore/include/linux/atomic/atomic-arch-fallback.h ****  *
1570:/mnt/c/Users/31740/Desktop/newcore/include/linux/atomic/atomic-arch-fallback.h ****  * Atomically updates @v to (@v & ~@i) with full ordering.
1571:/mnt/c/Users/31740/Desktop/newcore/include/linux/atomic/atomic-arch-fallback.h ****  *
1572:/mnt/c/Users/31740/Desktop/newcore/include/linux/atomic/atomic-arch-fallback.h ****  * Safe to use in noinstr code; prefer atomic_fetch_andnot() elsewhere.
1573:/mnt/c/Users/31740/Desktop/newcore/include/linux/atomic/atomic-arch-fallback.h ****  *
1574:/mnt/c/Users/31740/Desktop/newcore/include/linux/atomic/atomic-arch-fallback.h ****  * Return: The original value of @v.
1575:/mnt/c/Users/31740/Desktop/newcore/include/linux/atomic/atomic-arch-fallback.h ****  */
1576:/mnt/c/Users/31740/Desktop/newcore/include/linux/atomic/atomic-arch-fallback.h **** static __always_inline int
1577:/mnt/c/Users/31740/Desktop/newcore/include/linux/atomic/atomic-arch-fallback.h **** raw_atomic_fetch_andnot(int i, atomic_t *v)
1578:/mnt/c/Users/31740/Desktop/newcore/include/linux/atomic/atomic-arch-fallback.h **** {
1579:/mnt/c/Users/31740/Desktop/newcore/include/linux/atomic/atomic-arch-fallback.h **** #if defined(arch_atomic_fetch_andnot)
1580:/mnt/c/Users/31740/Desktop/newcore/include/linux/atomic/atomic-arch-fallback.h **** 	return arch_atomic_fetch_andnot(i, v);
1581:/mnt/c/Users/31740/Desktop/newcore/include/linux/atomic/atomic-arch-fallback.h **** #elif defined(arch_atomic_fetch_andnot_relaxed)
ARM GAS  /tmp/ccyCLDig.s 			page 118


1582:/mnt/c/Users/31740/Desktop/newcore/include/linux/atomic/atomic-arch-fallback.h **** 	int ret;
1583:/mnt/c/Users/31740/Desktop/newcore/include/linux/atomic/atomic-arch-fallback.h **** 	__atomic_pre_full_fence();
1584:/mnt/c/Users/31740/Desktop/newcore/include/linux/atomic/atomic-arch-fallback.h **** 	ret = arch_atomic_fetch_andnot_relaxed(i, v);
1585:/mnt/c/Users/31740/Desktop/newcore/include/linux/atomic/atomic-arch-fallback.h **** 	__atomic_post_full_fence();
1586:/mnt/c/Users/31740/Desktop/newcore/include/linux/atomic/atomic-arch-fallback.h **** 	return ret;
1587:/mnt/c/Users/31740/Desktop/newcore/include/linux/atomic/atomic-arch-fallback.h **** #else
1588:/mnt/c/Users/31740/Desktop/newcore/include/linux/atomic/atomic-arch-fallback.h **** 	return raw_atomic_fetch_and(~i, v);
1589:/mnt/c/Users/31740/Desktop/newcore/include/linux/atomic/atomic-arch-fallback.h **** #endif
1590:/mnt/c/Users/31740/Desktop/newcore/include/linux/atomic/atomic-arch-fallback.h **** }
1591:/mnt/c/Users/31740/Desktop/newcore/include/linux/atomic/atomic-arch-fallback.h **** 
1592:/mnt/c/Users/31740/Desktop/newcore/include/linux/atomic/atomic-arch-fallback.h **** /**
1593:/mnt/c/Users/31740/Desktop/newcore/include/linux/atomic/atomic-arch-fallback.h ****  * raw_atomic_fetch_andnot_acquire() - atomic bitwise AND NOT with acquire ordering
1594:/mnt/c/Users/31740/Desktop/newcore/include/linux/atomic/atomic-arch-fallback.h ****  * @i: int value
1595:/mnt/c/Users/31740/Desktop/newcore/include/linux/atomic/atomic-arch-fallback.h ****  * @v: pointer to atomic_t
1596:/mnt/c/Users/31740/Desktop/newcore/include/linux/atomic/atomic-arch-fallback.h ****  *
1597:/mnt/c/Users/31740/Desktop/newcore/include/linux/atomic/atomic-arch-fallback.h ****  * Atomically updates @v to (@v & ~@i) with acquire ordering.
1598:/mnt/c/Users/31740/Desktop/newcore/include/linux/atomic/atomic-arch-fallback.h ****  *
1599:/mnt/c/Users/31740/Desktop/newcore/include/linux/atomic/atomic-arch-fallback.h ****  * Safe to use in noinstr code; prefer atomic_fetch_andnot_acquire() elsewhere.
1600:/mnt/c/Users/31740/Desktop/newcore/include/linux/atomic/atomic-arch-fallback.h ****  *
1601:/mnt/c/Users/31740/Desktop/newcore/include/linux/atomic/atomic-arch-fallback.h ****  * Return: The original value of @v.
1602:/mnt/c/Users/31740/Desktop/newcore/include/linux/atomic/atomic-arch-fallback.h ****  */
1603:/mnt/c/Users/31740/Desktop/newcore/include/linux/atomic/atomic-arch-fallback.h **** static __always_inline int
1604:/mnt/c/Users/31740/Desktop/newcore/include/linux/atomic/atomic-arch-fallback.h **** raw_atomic_fetch_andnot_acquire(int i, atomic_t *v)
1605:/mnt/c/Users/31740/Desktop/newcore/include/linux/atomic/atomic-arch-fallback.h **** {
1606:/mnt/c/Users/31740/Desktop/newcore/include/linux/atomic/atomic-arch-fallback.h **** #if defined(arch_atomic_fetch_andnot_acquire)
1607:/mnt/c/Users/31740/Desktop/newcore/include/linux/atomic/atomic-arch-fallback.h **** 	return arch_atomic_fetch_andnot_acquire(i, v);
1608:/mnt/c/Users/31740/Desktop/newcore/include/linux/atomic/atomic-arch-fallback.h **** #elif defined(arch_atomic_fetch_andnot_relaxed)
1609:/mnt/c/Users/31740/Desktop/newcore/include/linux/atomic/atomic-arch-fallback.h **** 	int ret = arch_atomic_fetch_andnot_relaxed(i, v);
1610:/mnt/c/Users/31740/Desktop/newcore/include/linux/atomic/atomic-arch-fallback.h **** 	__atomic_acquire_fence();
1611:/mnt/c/Users/31740/Desktop/newcore/include/linux/atomic/atomic-arch-fallback.h **** 	return ret;
1612:/mnt/c/Users/31740/Desktop/newcore/include/linux/atomic/atomic-arch-fallback.h **** #elif defined(arch_atomic_fetch_andnot)
1613:/mnt/c/Users/31740/Desktop/newcore/include/linux/atomic/atomic-arch-fallback.h **** 	return arch_atomic_fetch_andnot(i, v);
1614:/mnt/c/Users/31740/Desktop/newcore/include/linux/atomic/atomic-arch-fallback.h **** #else
1615:/mnt/c/Users/31740/Desktop/newcore/include/linux/atomic/atomic-arch-fallback.h **** 	return raw_atomic_fetch_and_acquire(~i, v);
1616:/mnt/c/Users/31740/Desktop/newcore/include/linux/atomic/atomic-arch-fallback.h **** #endif
1617:/mnt/c/Users/31740/Desktop/newcore/include/linux/atomic/atomic-arch-fallback.h **** }
1618:/mnt/c/Users/31740/Desktop/newcore/include/linux/atomic/atomic-arch-fallback.h **** 
1619:/mnt/c/Users/31740/Desktop/newcore/include/linux/atomic/atomic-arch-fallback.h **** /**
1620:/mnt/c/Users/31740/Desktop/newcore/include/linux/atomic/atomic-arch-fallback.h ****  * raw_atomic_fetch_andnot_release() - atomic bitwise AND NOT with release ordering
1621:/mnt/c/Users/31740/Desktop/newcore/include/linux/atomic/atomic-arch-fallback.h ****  * @i: int value
1622:/mnt/c/Users/31740/Desktop/newcore/include/linux/atomic/atomic-arch-fallback.h ****  * @v: pointer to atomic_t
1623:/mnt/c/Users/31740/Desktop/newcore/include/linux/atomic/atomic-arch-fallback.h ****  *
1624:/mnt/c/Users/31740/Desktop/newcore/include/linux/atomic/atomic-arch-fallback.h ****  * Atomically updates @v to (@v & ~@i) with release ordering.
1625:/mnt/c/Users/31740/Desktop/newcore/include/linux/atomic/atomic-arch-fallback.h ****  *
1626:/mnt/c/Users/31740/Desktop/newcore/include/linux/atomic/atomic-arch-fallback.h ****  * Safe to use in noinstr code; prefer atomic_fetch_andnot_release() elsewhere.
1627:/mnt/c/Users/31740/Desktop/newcore/include/linux/atomic/atomic-arch-fallback.h ****  *
1628:/mnt/c/Users/31740/Desktop/newcore/include/linux/atomic/atomic-arch-fallback.h ****  * Return: The original value of @v.
1629:/mnt/c/Users/31740/Desktop/newcore/include/linux/atomic/atomic-arch-fallback.h ****  */
1630:/mnt/c/Users/31740/Desktop/newcore/include/linux/atomic/atomic-arch-fallback.h **** static __always_inline int
1631:/mnt/c/Users/31740/Desktop/newcore/include/linux/atomic/atomic-arch-fallback.h **** raw_atomic_fetch_andnot_release(int i, atomic_t *v)
1632:/mnt/c/Users/31740/Desktop/newcore/include/linux/atomic/atomic-arch-fallback.h **** {
1633:/mnt/c/Users/31740/Desktop/newcore/include/linux/atomic/atomic-arch-fallback.h **** #if defined(arch_atomic_fetch_andnot_release)
1634:/mnt/c/Users/31740/Desktop/newcore/include/linux/atomic/atomic-arch-fallback.h **** 	return arch_atomic_fetch_andnot_release(i, v);
1635:/mnt/c/Users/31740/Desktop/newcore/include/linux/atomic/atomic-arch-fallback.h **** #elif defined(arch_atomic_fetch_andnot_relaxed)
1636:/mnt/c/Users/31740/Desktop/newcore/include/linux/atomic/atomic-arch-fallback.h **** 	__atomic_release_fence();
1637:/mnt/c/Users/31740/Desktop/newcore/include/linux/atomic/atomic-arch-fallback.h **** 	return arch_atomic_fetch_andnot_relaxed(i, v);
1638:/mnt/c/Users/31740/Desktop/newcore/include/linux/atomic/atomic-arch-fallback.h **** #elif defined(arch_atomic_fetch_andnot)
ARM GAS  /tmp/ccyCLDig.s 			page 119


1639:/mnt/c/Users/31740/Desktop/newcore/include/linux/atomic/atomic-arch-fallback.h **** 	return arch_atomic_fetch_andnot(i, v);
1640:/mnt/c/Users/31740/Desktop/newcore/include/linux/atomic/atomic-arch-fallback.h **** #else
1641:/mnt/c/Users/31740/Desktop/newcore/include/linux/atomic/atomic-arch-fallback.h **** 	return raw_atomic_fetch_and_release(~i, v);
1642:/mnt/c/Users/31740/Desktop/newcore/include/linux/atomic/atomic-arch-fallback.h **** #endif
1643:/mnt/c/Users/31740/Desktop/newcore/include/linux/atomic/atomic-arch-fallback.h **** }
1644:/mnt/c/Users/31740/Desktop/newcore/include/linux/atomic/atomic-arch-fallback.h **** 
1645:/mnt/c/Users/31740/Desktop/newcore/include/linux/atomic/atomic-arch-fallback.h **** /**
1646:/mnt/c/Users/31740/Desktop/newcore/include/linux/atomic/atomic-arch-fallback.h ****  * raw_atomic_fetch_andnot_relaxed() - atomic bitwise AND NOT with relaxed ordering
1647:/mnt/c/Users/31740/Desktop/newcore/include/linux/atomic/atomic-arch-fallback.h ****  * @i: int value
1648:/mnt/c/Users/31740/Desktop/newcore/include/linux/atomic/atomic-arch-fallback.h ****  * @v: pointer to atomic_t
1649:/mnt/c/Users/31740/Desktop/newcore/include/linux/atomic/atomic-arch-fallback.h ****  *
1650:/mnt/c/Users/31740/Desktop/newcore/include/linux/atomic/atomic-arch-fallback.h ****  * Atomically updates @v to (@v & ~@i) with relaxed ordering.
1651:/mnt/c/Users/31740/Desktop/newcore/include/linux/atomic/atomic-arch-fallback.h ****  *
1652:/mnt/c/Users/31740/Desktop/newcore/include/linux/atomic/atomic-arch-fallback.h ****  * Safe to use in noinstr code; prefer atomic_fetch_andnot_relaxed() elsewhere.
1653:/mnt/c/Users/31740/Desktop/newcore/include/linux/atomic/atomic-arch-fallback.h ****  *
1654:/mnt/c/Users/31740/Desktop/newcore/include/linux/atomic/atomic-arch-fallback.h ****  * Return: The original value of @v.
1655:/mnt/c/Users/31740/Desktop/newcore/include/linux/atomic/atomic-arch-fallback.h ****  */
1656:/mnt/c/Users/31740/Desktop/newcore/include/linux/atomic/atomic-arch-fallback.h **** static __always_inline int
1657:/mnt/c/Users/31740/Desktop/newcore/include/linux/atomic/atomic-arch-fallback.h **** raw_atomic_fetch_andnot_relaxed(int i, atomic_t *v)
1658:/mnt/c/Users/31740/Desktop/newcore/include/linux/atomic/atomic-arch-fallback.h **** {
1659:/mnt/c/Users/31740/Desktop/newcore/include/linux/atomic/atomic-arch-fallback.h **** #if defined(arch_atomic_fetch_andnot_relaxed)
1660:/mnt/c/Users/31740/Desktop/newcore/include/linux/atomic/atomic-arch-fallback.h **** 	return arch_atomic_fetch_andnot_relaxed(i, v);
1661:/mnt/c/Users/31740/Desktop/newcore/include/linux/atomic/atomic-arch-fallback.h **** #elif defined(arch_atomic_fetch_andnot)
1662:/mnt/c/Users/31740/Desktop/newcore/include/linux/atomic/atomic-arch-fallback.h **** 	return arch_atomic_fetch_andnot(i, v);
1663:/mnt/c/Users/31740/Desktop/newcore/include/linux/atomic/atomic-arch-fallback.h **** #else
1664:/mnt/c/Users/31740/Desktop/newcore/include/linux/atomic/atomic-arch-fallback.h **** 	return raw_atomic_fetch_and_relaxed(~i, v);
1665:/mnt/c/Users/31740/Desktop/newcore/include/linux/atomic/atomic-arch-fallback.h **** #endif
1666:/mnt/c/Users/31740/Desktop/newcore/include/linux/atomic/atomic-arch-fallback.h **** }
1667:/mnt/c/Users/31740/Desktop/newcore/include/linux/atomic/atomic-arch-fallback.h **** 
1668:/mnt/c/Users/31740/Desktop/newcore/include/linux/atomic/atomic-arch-fallback.h **** /**
1669:/mnt/c/Users/31740/Desktop/newcore/include/linux/atomic/atomic-arch-fallback.h ****  * raw_atomic_or() - atomic bitwise OR with relaxed ordering
1670:/mnt/c/Users/31740/Desktop/newcore/include/linux/atomic/atomic-arch-fallback.h ****  * @i: int value
1671:/mnt/c/Users/31740/Desktop/newcore/include/linux/atomic/atomic-arch-fallback.h ****  * @v: pointer to atomic_t
1672:/mnt/c/Users/31740/Desktop/newcore/include/linux/atomic/atomic-arch-fallback.h ****  *
1673:/mnt/c/Users/31740/Desktop/newcore/include/linux/atomic/atomic-arch-fallback.h ****  * Atomically updates @v to (@v | @i) with relaxed ordering.
1674:/mnt/c/Users/31740/Desktop/newcore/include/linux/atomic/atomic-arch-fallback.h ****  *
1675:/mnt/c/Users/31740/Desktop/newcore/include/linux/atomic/atomic-arch-fallback.h ****  * Safe to use in noinstr code; prefer atomic_or() elsewhere.
1676:/mnt/c/Users/31740/Desktop/newcore/include/linux/atomic/atomic-arch-fallback.h ****  *
1677:/mnt/c/Users/31740/Desktop/newcore/include/linux/atomic/atomic-arch-fallback.h ****  * Return: Nothing.
1678:/mnt/c/Users/31740/Desktop/newcore/include/linux/atomic/atomic-arch-fallback.h ****  */
1679:/mnt/c/Users/31740/Desktop/newcore/include/linux/atomic/atomic-arch-fallback.h **** static __always_inline void
1680:/mnt/c/Users/31740/Desktop/newcore/include/linux/atomic/atomic-arch-fallback.h **** raw_atomic_or(int i, atomic_t *v)
1681:/mnt/c/Users/31740/Desktop/newcore/include/linux/atomic/atomic-arch-fallback.h **** {
1682:/mnt/c/Users/31740/Desktop/newcore/include/linux/atomic/atomic-arch-fallback.h **** 	arch_atomic_or(i, v);
1683:/mnt/c/Users/31740/Desktop/newcore/include/linux/atomic/atomic-arch-fallback.h **** }
1684:/mnt/c/Users/31740/Desktop/newcore/include/linux/atomic/atomic-arch-fallback.h **** 
1685:/mnt/c/Users/31740/Desktop/newcore/include/linux/atomic/atomic-arch-fallback.h **** /**
1686:/mnt/c/Users/31740/Desktop/newcore/include/linux/atomic/atomic-arch-fallback.h ****  * raw_atomic_fetch_or() - atomic bitwise OR with full ordering
1687:/mnt/c/Users/31740/Desktop/newcore/include/linux/atomic/atomic-arch-fallback.h ****  * @i: int value
1688:/mnt/c/Users/31740/Desktop/newcore/include/linux/atomic/atomic-arch-fallback.h ****  * @v: pointer to atomic_t
1689:/mnt/c/Users/31740/Desktop/newcore/include/linux/atomic/atomic-arch-fallback.h ****  *
1690:/mnt/c/Users/31740/Desktop/newcore/include/linux/atomic/atomic-arch-fallback.h ****  * Atomically updates @v to (@v | @i) with full ordering.
1691:/mnt/c/Users/31740/Desktop/newcore/include/linux/atomic/atomic-arch-fallback.h ****  *
1692:/mnt/c/Users/31740/Desktop/newcore/include/linux/atomic/atomic-arch-fallback.h ****  * Safe to use in noinstr code; prefer atomic_fetch_or() elsewhere.
1693:/mnt/c/Users/31740/Desktop/newcore/include/linux/atomic/atomic-arch-fallback.h ****  *
1694:/mnt/c/Users/31740/Desktop/newcore/include/linux/atomic/atomic-arch-fallback.h ****  * Return: The original value of @v.
1695:/mnt/c/Users/31740/Desktop/newcore/include/linux/atomic/atomic-arch-fallback.h ****  */
ARM GAS  /tmp/ccyCLDig.s 			page 120


1696:/mnt/c/Users/31740/Desktop/newcore/include/linux/atomic/atomic-arch-fallback.h **** static __always_inline int
1697:/mnt/c/Users/31740/Desktop/newcore/include/linux/atomic/atomic-arch-fallback.h **** raw_atomic_fetch_or(int i, atomic_t *v)
1698:/mnt/c/Users/31740/Desktop/newcore/include/linux/atomic/atomic-arch-fallback.h **** {
1699:/mnt/c/Users/31740/Desktop/newcore/include/linux/atomic/atomic-arch-fallback.h **** #if defined(arch_atomic_fetch_or)
1700:/mnt/c/Users/31740/Desktop/newcore/include/linux/atomic/atomic-arch-fallback.h **** 	return arch_atomic_fetch_or(i, v);
1701:/mnt/c/Users/31740/Desktop/newcore/include/linux/atomic/atomic-arch-fallback.h **** #elif defined(arch_atomic_fetch_or_relaxed)
1702:/mnt/c/Users/31740/Desktop/newcore/include/linux/atomic/atomic-arch-fallback.h **** 	int ret;
1703:/mnt/c/Users/31740/Desktop/newcore/include/linux/atomic/atomic-arch-fallback.h **** 	__atomic_pre_full_fence();
1704:/mnt/c/Users/31740/Desktop/newcore/include/linux/atomic/atomic-arch-fallback.h **** 	ret = arch_atomic_fetch_or_relaxed(i, v);
1705:/mnt/c/Users/31740/Desktop/newcore/include/linux/atomic/atomic-arch-fallback.h **** 	__atomic_post_full_fence();
1706:/mnt/c/Users/31740/Desktop/newcore/include/linux/atomic/atomic-arch-fallback.h **** 	return ret;
1707:/mnt/c/Users/31740/Desktop/newcore/include/linux/atomic/atomic-arch-fallback.h **** #else
1708:/mnt/c/Users/31740/Desktop/newcore/include/linux/atomic/atomic-arch-fallback.h **** #error "Unable to define raw_atomic_fetch_or"
1709:/mnt/c/Users/31740/Desktop/newcore/include/linux/atomic/atomic-arch-fallback.h **** #endif
1710:/mnt/c/Users/31740/Desktop/newcore/include/linux/atomic/atomic-arch-fallback.h **** }
1711:/mnt/c/Users/31740/Desktop/newcore/include/linux/atomic/atomic-arch-fallback.h **** 
1712:/mnt/c/Users/31740/Desktop/newcore/include/linux/atomic/atomic-arch-fallback.h **** /**
1713:/mnt/c/Users/31740/Desktop/newcore/include/linux/atomic/atomic-arch-fallback.h ****  * raw_atomic_fetch_or_acquire() - atomic bitwise OR with acquire ordering
1714:/mnt/c/Users/31740/Desktop/newcore/include/linux/atomic/atomic-arch-fallback.h ****  * @i: int value
1715:/mnt/c/Users/31740/Desktop/newcore/include/linux/atomic/atomic-arch-fallback.h ****  * @v: pointer to atomic_t
1716:/mnt/c/Users/31740/Desktop/newcore/include/linux/atomic/atomic-arch-fallback.h ****  *
1717:/mnt/c/Users/31740/Desktop/newcore/include/linux/atomic/atomic-arch-fallback.h ****  * Atomically updates @v to (@v | @i) with acquire ordering.
1718:/mnt/c/Users/31740/Desktop/newcore/include/linux/atomic/atomic-arch-fallback.h ****  *
1719:/mnt/c/Users/31740/Desktop/newcore/include/linux/atomic/atomic-arch-fallback.h ****  * Safe to use in noinstr code; prefer atomic_fetch_or_acquire() elsewhere.
1720:/mnt/c/Users/31740/Desktop/newcore/include/linux/atomic/atomic-arch-fallback.h ****  *
1721:/mnt/c/Users/31740/Desktop/newcore/include/linux/atomic/atomic-arch-fallback.h ****  * Return: The original value of @v.
1722:/mnt/c/Users/31740/Desktop/newcore/include/linux/atomic/atomic-arch-fallback.h ****  */
1723:/mnt/c/Users/31740/Desktop/newcore/include/linux/atomic/atomic-arch-fallback.h **** static __always_inline int
1724:/mnt/c/Users/31740/Desktop/newcore/include/linux/atomic/atomic-arch-fallback.h **** raw_atomic_fetch_or_acquire(int i, atomic_t *v)
1725:/mnt/c/Users/31740/Desktop/newcore/include/linux/atomic/atomic-arch-fallback.h **** {
1726:/mnt/c/Users/31740/Desktop/newcore/include/linux/atomic/atomic-arch-fallback.h **** #if defined(arch_atomic_fetch_or_acquire)
1727:/mnt/c/Users/31740/Desktop/newcore/include/linux/atomic/atomic-arch-fallback.h **** 	return arch_atomic_fetch_or_acquire(i, v);
1728:/mnt/c/Users/31740/Desktop/newcore/include/linux/atomic/atomic-arch-fallback.h **** #elif defined(arch_atomic_fetch_or_relaxed)
1729:/mnt/c/Users/31740/Desktop/newcore/include/linux/atomic/atomic-arch-fallback.h **** 	int ret = arch_atomic_fetch_or_relaxed(i, v);
1730:/mnt/c/Users/31740/Desktop/newcore/include/linux/atomic/atomic-arch-fallback.h **** 	__atomic_acquire_fence();
1731:/mnt/c/Users/31740/Desktop/newcore/include/linux/atomic/atomic-arch-fallback.h **** 	return ret;
1732:/mnt/c/Users/31740/Desktop/newcore/include/linux/atomic/atomic-arch-fallback.h **** #elif defined(arch_atomic_fetch_or)
1733:/mnt/c/Users/31740/Desktop/newcore/include/linux/atomic/atomic-arch-fallback.h **** 	return arch_atomic_fetch_or(i, v);
1734:/mnt/c/Users/31740/Desktop/newcore/include/linux/atomic/atomic-arch-fallback.h **** #else
1735:/mnt/c/Users/31740/Desktop/newcore/include/linux/atomic/atomic-arch-fallback.h **** #error "Unable to define raw_atomic_fetch_or_acquire"
1736:/mnt/c/Users/31740/Desktop/newcore/include/linux/atomic/atomic-arch-fallback.h **** #endif
1737:/mnt/c/Users/31740/Desktop/newcore/include/linux/atomic/atomic-arch-fallback.h **** }
1738:/mnt/c/Users/31740/Desktop/newcore/include/linux/atomic/atomic-arch-fallback.h **** 
1739:/mnt/c/Users/31740/Desktop/newcore/include/linux/atomic/atomic-arch-fallback.h **** /**
1740:/mnt/c/Users/31740/Desktop/newcore/include/linux/atomic/atomic-arch-fallback.h ****  * raw_atomic_fetch_or_release() - atomic bitwise OR with release ordering
1741:/mnt/c/Users/31740/Desktop/newcore/include/linux/atomic/atomic-arch-fallback.h ****  * @i: int value
1742:/mnt/c/Users/31740/Desktop/newcore/include/linux/atomic/atomic-arch-fallback.h ****  * @v: pointer to atomic_t
1743:/mnt/c/Users/31740/Desktop/newcore/include/linux/atomic/atomic-arch-fallback.h ****  *
1744:/mnt/c/Users/31740/Desktop/newcore/include/linux/atomic/atomic-arch-fallback.h ****  * Atomically updates @v to (@v | @i) with release ordering.
1745:/mnt/c/Users/31740/Desktop/newcore/include/linux/atomic/atomic-arch-fallback.h ****  *
1746:/mnt/c/Users/31740/Desktop/newcore/include/linux/atomic/atomic-arch-fallback.h ****  * Safe to use in noinstr code; prefer atomic_fetch_or_release() elsewhere.
1747:/mnt/c/Users/31740/Desktop/newcore/include/linux/atomic/atomic-arch-fallback.h ****  *
1748:/mnt/c/Users/31740/Desktop/newcore/include/linux/atomic/atomic-arch-fallback.h ****  * Return: The original value of @v.
1749:/mnt/c/Users/31740/Desktop/newcore/include/linux/atomic/atomic-arch-fallback.h ****  */
1750:/mnt/c/Users/31740/Desktop/newcore/include/linux/atomic/atomic-arch-fallback.h **** static __always_inline int
1751:/mnt/c/Users/31740/Desktop/newcore/include/linux/atomic/atomic-arch-fallback.h **** raw_atomic_fetch_or_release(int i, atomic_t *v)
1752:/mnt/c/Users/31740/Desktop/newcore/include/linux/atomic/atomic-arch-fallback.h **** {
ARM GAS  /tmp/ccyCLDig.s 			page 121


1753:/mnt/c/Users/31740/Desktop/newcore/include/linux/atomic/atomic-arch-fallback.h **** #if defined(arch_atomic_fetch_or_release)
1754:/mnt/c/Users/31740/Desktop/newcore/include/linux/atomic/atomic-arch-fallback.h **** 	return arch_atomic_fetch_or_release(i, v);
1755:/mnt/c/Users/31740/Desktop/newcore/include/linux/atomic/atomic-arch-fallback.h **** #elif defined(arch_atomic_fetch_or_relaxed)
1756:/mnt/c/Users/31740/Desktop/newcore/include/linux/atomic/atomic-arch-fallback.h **** 	__atomic_release_fence();
1757:/mnt/c/Users/31740/Desktop/newcore/include/linux/atomic/atomic-arch-fallback.h **** 	return arch_atomic_fetch_or_relaxed(i, v);
1758:/mnt/c/Users/31740/Desktop/newcore/include/linux/atomic/atomic-arch-fallback.h **** #elif defined(arch_atomic_fetch_or)
1759:/mnt/c/Users/31740/Desktop/newcore/include/linux/atomic/atomic-arch-fallback.h **** 	return arch_atomic_fetch_or(i, v);
1760:/mnt/c/Users/31740/Desktop/newcore/include/linux/atomic/atomic-arch-fallback.h **** #else
1761:/mnt/c/Users/31740/Desktop/newcore/include/linux/atomic/atomic-arch-fallback.h **** #error "Unable to define raw_atomic_fetch_or_release"
1762:/mnt/c/Users/31740/Desktop/newcore/include/linux/atomic/atomic-arch-fallback.h **** #endif
1763:/mnt/c/Users/31740/Desktop/newcore/include/linux/atomic/atomic-arch-fallback.h **** }
1764:/mnt/c/Users/31740/Desktop/newcore/include/linux/atomic/atomic-arch-fallback.h **** 
1765:/mnt/c/Users/31740/Desktop/newcore/include/linux/atomic/atomic-arch-fallback.h **** /**
1766:/mnt/c/Users/31740/Desktop/newcore/include/linux/atomic/atomic-arch-fallback.h ****  * raw_atomic_fetch_or_relaxed() - atomic bitwise OR with relaxed ordering
1767:/mnt/c/Users/31740/Desktop/newcore/include/linux/atomic/atomic-arch-fallback.h ****  * @i: int value
1768:/mnt/c/Users/31740/Desktop/newcore/include/linux/atomic/atomic-arch-fallback.h ****  * @v: pointer to atomic_t
1769:/mnt/c/Users/31740/Desktop/newcore/include/linux/atomic/atomic-arch-fallback.h ****  *
1770:/mnt/c/Users/31740/Desktop/newcore/include/linux/atomic/atomic-arch-fallback.h ****  * Atomically updates @v to (@v | @i) with relaxed ordering.
1771:/mnt/c/Users/31740/Desktop/newcore/include/linux/atomic/atomic-arch-fallback.h ****  *
1772:/mnt/c/Users/31740/Desktop/newcore/include/linux/atomic/atomic-arch-fallback.h ****  * Safe to use in noinstr code; prefer atomic_fetch_or_relaxed() elsewhere.
1773:/mnt/c/Users/31740/Desktop/newcore/include/linux/atomic/atomic-arch-fallback.h ****  *
1774:/mnt/c/Users/31740/Desktop/newcore/include/linux/atomic/atomic-arch-fallback.h ****  * Return: The original value of @v.
1775:/mnt/c/Users/31740/Desktop/newcore/include/linux/atomic/atomic-arch-fallback.h ****  */
1776:/mnt/c/Users/31740/Desktop/newcore/include/linux/atomic/atomic-arch-fallback.h **** static __always_inline int
1777:/mnt/c/Users/31740/Desktop/newcore/include/linux/atomic/atomic-arch-fallback.h **** raw_atomic_fetch_or_relaxed(int i, atomic_t *v)
1778:/mnt/c/Users/31740/Desktop/newcore/include/linux/atomic/atomic-arch-fallback.h **** {
1779:/mnt/c/Users/31740/Desktop/newcore/include/linux/atomic/atomic-arch-fallback.h **** #if defined(arch_atomic_fetch_or_relaxed)
1780:/mnt/c/Users/31740/Desktop/newcore/include/linux/atomic/atomic-arch-fallback.h **** 	return arch_atomic_fetch_or_relaxed(i, v);
1781:/mnt/c/Users/31740/Desktop/newcore/include/linux/atomic/atomic-arch-fallback.h **** #elif defined(arch_atomic_fetch_or)
1782:/mnt/c/Users/31740/Desktop/newcore/include/linux/atomic/atomic-arch-fallback.h **** 	return arch_atomic_fetch_or(i, v);
1783:/mnt/c/Users/31740/Desktop/newcore/include/linux/atomic/atomic-arch-fallback.h **** #else
1784:/mnt/c/Users/31740/Desktop/newcore/include/linux/atomic/atomic-arch-fallback.h **** #error "Unable to define raw_atomic_fetch_or_relaxed"
1785:/mnt/c/Users/31740/Desktop/newcore/include/linux/atomic/atomic-arch-fallback.h **** #endif
1786:/mnt/c/Users/31740/Desktop/newcore/include/linux/atomic/atomic-arch-fallback.h **** }
1787:/mnt/c/Users/31740/Desktop/newcore/include/linux/atomic/atomic-arch-fallback.h **** 
1788:/mnt/c/Users/31740/Desktop/newcore/include/linux/atomic/atomic-arch-fallback.h **** /**
1789:/mnt/c/Users/31740/Desktop/newcore/include/linux/atomic/atomic-arch-fallback.h ****  * raw_atomic_xor() - atomic bitwise XOR with relaxed ordering
1790:/mnt/c/Users/31740/Desktop/newcore/include/linux/atomic/atomic-arch-fallback.h ****  * @i: int value
1791:/mnt/c/Users/31740/Desktop/newcore/include/linux/atomic/atomic-arch-fallback.h ****  * @v: pointer to atomic_t
1792:/mnt/c/Users/31740/Desktop/newcore/include/linux/atomic/atomic-arch-fallback.h ****  *
1793:/mnt/c/Users/31740/Desktop/newcore/include/linux/atomic/atomic-arch-fallback.h ****  * Atomically updates @v to (@v ^ @i) with relaxed ordering.
1794:/mnt/c/Users/31740/Desktop/newcore/include/linux/atomic/atomic-arch-fallback.h ****  *
1795:/mnt/c/Users/31740/Desktop/newcore/include/linux/atomic/atomic-arch-fallback.h ****  * Safe to use in noinstr code; prefer atomic_xor() elsewhere.
1796:/mnt/c/Users/31740/Desktop/newcore/include/linux/atomic/atomic-arch-fallback.h ****  *
1797:/mnt/c/Users/31740/Desktop/newcore/include/linux/atomic/atomic-arch-fallback.h ****  * Return: Nothing.
1798:/mnt/c/Users/31740/Desktop/newcore/include/linux/atomic/atomic-arch-fallback.h ****  */
1799:/mnt/c/Users/31740/Desktop/newcore/include/linux/atomic/atomic-arch-fallback.h **** static __always_inline void
1800:/mnt/c/Users/31740/Desktop/newcore/include/linux/atomic/atomic-arch-fallback.h **** raw_atomic_xor(int i, atomic_t *v)
1801:/mnt/c/Users/31740/Desktop/newcore/include/linux/atomic/atomic-arch-fallback.h **** {
1802:/mnt/c/Users/31740/Desktop/newcore/include/linux/atomic/atomic-arch-fallback.h **** 	arch_atomic_xor(i, v);
1803:/mnt/c/Users/31740/Desktop/newcore/include/linux/atomic/atomic-arch-fallback.h **** }
1804:/mnt/c/Users/31740/Desktop/newcore/include/linux/atomic/atomic-arch-fallback.h **** 
1805:/mnt/c/Users/31740/Desktop/newcore/include/linux/atomic/atomic-arch-fallback.h **** /**
1806:/mnt/c/Users/31740/Desktop/newcore/include/linux/atomic/atomic-arch-fallback.h ****  * raw_atomic_fetch_xor() - atomic bitwise XOR with full ordering
1807:/mnt/c/Users/31740/Desktop/newcore/include/linux/atomic/atomic-arch-fallback.h ****  * @i: int value
1808:/mnt/c/Users/31740/Desktop/newcore/include/linux/atomic/atomic-arch-fallback.h ****  * @v: pointer to atomic_t
1809:/mnt/c/Users/31740/Desktop/newcore/include/linux/atomic/atomic-arch-fallback.h ****  *
ARM GAS  /tmp/ccyCLDig.s 			page 122


1810:/mnt/c/Users/31740/Desktop/newcore/include/linux/atomic/atomic-arch-fallback.h ****  * Atomically updates @v to (@v ^ @i) with full ordering.
1811:/mnt/c/Users/31740/Desktop/newcore/include/linux/atomic/atomic-arch-fallback.h ****  *
1812:/mnt/c/Users/31740/Desktop/newcore/include/linux/atomic/atomic-arch-fallback.h ****  * Safe to use in noinstr code; prefer atomic_fetch_xor() elsewhere.
1813:/mnt/c/Users/31740/Desktop/newcore/include/linux/atomic/atomic-arch-fallback.h ****  *
1814:/mnt/c/Users/31740/Desktop/newcore/include/linux/atomic/atomic-arch-fallback.h ****  * Return: The original value of @v.
1815:/mnt/c/Users/31740/Desktop/newcore/include/linux/atomic/atomic-arch-fallback.h ****  */
1816:/mnt/c/Users/31740/Desktop/newcore/include/linux/atomic/atomic-arch-fallback.h **** static __always_inline int
1817:/mnt/c/Users/31740/Desktop/newcore/include/linux/atomic/atomic-arch-fallback.h **** raw_atomic_fetch_xor(int i, atomic_t *v)
1818:/mnt/c/Users/31740/Desktop/newcore/include/linux/atomic/atomic-arch-fallback.h **** {
1819:/mnt/c/Users/31740/Desktop/newcore/include/linux/atomic/atomic-arch-fallback.h **** #if defined(arch_atomic_fetch_xor)
1820:/mnt/c/Users/31740/Desktop/newcore/include/linux/atomic/atomic-arch-fallback.h **** 	return arch_atomic_fetch_xor(i, v);
1821:/mnt/c/Users/31740/Desktop/newcore/include/linux/atomic/atomic-arch-fallback.h **** #elif defined(arch_atomic_fetch_xor_relaxed)
1822:/mnt/c/Users/31740/Desktop/newcore/include/linux/atomic/atomic-arch-fallback.h **** 	int ret;
1823:/mnt/c/Users/31740/Desktop/newcore/include/linux/atomic/atomic-arch-fallback.h **** 	__atomic_pre_full_fence();
1824:/mnt/c/Users/31740/Desktop/newcore/include/linux/atomic/atomic-arch-fallback.h **** 	ret = arch_atomic_fetch_xor_relaxed(i, v);
1825:/mnt/c/Users/31740/Desktop/newcore/include/linux/atomic/atomic-arch-fallback.h **** 	__atomic_post_full_fence();
1826:/mnt/c/Users/31740/Desktop/newcore/include/linux/atomic/atomic-arch-fallback.h **** 	return ret;
1827:/mnt/c/Users/31740/Desktop/newcore/include/linux/atomic/atomic-arch-fallback.h **** #else
1828:/mnt/c/Users/31740/Desktop/newcore/include/linux/atomic/atomic-arch-fallback.h **** #error "Unable to define raw_atomic_fetch_xor"
1829:/mnt/c/Users/31740/Desktop/newcore/include/linux/atomic/atomic-arch-fallback.h **** #endif
1830:/mnt/c/Users/31740/Desktop/newcore/include/linux/atomic/atomic-arch-fallback.h **** }
1831:/mnt/c/Users/31740/Desktop/newcore/include/linux/atomic/atomic-arch-fallback.h **** 
1832:/mnt/c/Users/31740/Desktop/newcore/include/linux/atomic/atomic-arch-fallback.h **** /**
1833:/mnt/c/Users/31740/Desktop/newcore/include/linux/atomic/atomic-arch-fallback.h ****  * raw_atomic_fetch_xor_acquire() - atomic bitwise XOR with acquire ordering
1834:/mnt/c/Users/31740/Desktop/newcore/include/linux/atomic/atomic-arch-fallback.h ****  * @i: int value
1835:/mnt/c/Users/31740/Desktop/newcore/include/linux/atomic/atomic-arch-fallback.h ****  * @v: pointer to atomic_t
1836:/mnt/c/Users/31740/Desktop/newcore/include/linux/atomic/atomic-arch-fallback.h ****  *
1837:/mnt/c/Users/31740/Desktop/newcore/include/linux/atomic/atomic-arch-fallback.h ****  * Atomically updates @v to (@v ^ @i) with acquire ordering.
1838:/mnt/c/Users/31740/Desktop/newcore/include/linux/atomic/atomic-arch-fallback.h ****  *
1839:/mnt/c/Users/31740/Desktop/newcore/include/linux/atomic/atomic-arch-fallback.h ****  * Safe to use in noinstr code; prefer atomic_fetch_xor_acquire() elsewhere.
1840:/mnt/c/Users/31740/Desktop/newcore/include/linux/atomic/atomic-arch-fallback.h ****  *
1841:/mnt/c/Users/31740/Desktop/newcore/include/linux/atomic/atomic-arch-fallback.h ****  * Return: The original value of @v.
1842:/mnt/c/Users/31740/Desktop/newcore/include/linux/atomic/atomic-arch-fallback.h ****  */
1843:/mnt/c/Users/31740/Desktop/newcore/include/linux/atomic/atomic-arch-fallback.h **** static __always_inline int
1844:/mnt/c/Users/31740/Desktop/newcore/include/linux/atomic/atomic-arch-fallback.h **** raw_atomic_fetch_xor_acquire(int i, atomic_t *v)
1845:/mnt/c/Users/31740/Desktop/newcore/include/linux/atomic/atomic-arch-fallback.h **** {
1846:/mnt/c/Users/31740/Desktop/newcore/include/linux/atomic/atomic-arch-fallback.h **** #if defined(arch_atomic_fetch_xor_acquire)
1847:/mnt/c/Users/31740/Desktop/newcore/include/linux/atomic/atomic-arch-fallback.h **** 	return arch_atomic_fetch_xor_acquire(i, v);
1848:/mnt/c/Users/31740/Desktop/newcore/include/linux/atomic/atomic-arch-fallback.h **** #elif defined(arch_atomic_fetch_xor_relaxed)
1849:/mnt/c/Users/31740/Desktop/newcore/include/linux/atomic/atomic-arch-fallback.h **** 	int ret = arch_atomic_fetch_xor_relaxed(i, v);
1850:/mnt/c/Users/31740/Desktop/newcore/include/linux/atomic/atomic-arch-fallback.h **** 	__atomic_acquire_fence();
1851:/mnt/c/Users/31740/Desktop/newcore/include/linux/atomic/atomic-arch-fallback.h **** 	return ret;
1852:/mnt/c/Users/31740/Desktop/newcore/include/linux/atomic/atomic-arch-fallback.h **** #elif defined(arch_atomic_fetch_xor)
1853:/mnt/c/Users/31740/Desktop/newcore/include/linux/atomic/atomic-arch-fallback.h **** 	return arch_atomic_fetch_xor(i, v);
1854:/mnt/c/Users/31740/Desktop/newcore/include/linux/atomic/atomic-arch-fallback.h **** #else
1855:/mnt/c/Users/31740/Desktop/newcore/include/linux/atomic/atomic-arch-fallback.h **** #error "Unable to define raw_atomic_fetch_xor_acquire"
1856:/mnt/c/Users/31740/Desktop/newcore/include/linux/atomic/atomic-arch-fallback.h **** #endif
1857:/mnt/c/Users/31740/Desktop/newcore/include/linux/atomic/atomic-arch-fallback.h **** }
1858:/mnt/c/Users/31740/Desktop/newcore/include/linux/atomic/atomic-arch-fallback.h **** 
1859:/mnt/c/Users/31740/Desktop/newcore/include/linux/atomic/atomic-arch-fallback.h **** /**
1860:/mnt/c/Users/31740/Desktop/newcore/include/linux/atomic/atomic-arch-fallback.h ****  * raw_atomic_fetch_xor_release() - atomic bitwise XOR with release ordering
1861:/mnt/c/Users/31740/Desktop/newcore/include/linux/atomic/atomic-arch-fallback.h ****  * @i: int value
1862:/mnt/c/Users/31740/Desktop/newcore/include/linux/atomic/atomic-arch-fallback.h ****  * @v: pointer to atomic_t
1863:/mnt/c/Users/31740/Desktop/newcore/include/linux/atomic/atomic-arch-fallback.h ****  *
1864:/mnt/c/Users/31740/Desktop/newcore/include/linux/atomic/atomic-arch-fallback.h ****  * Atomically updates @v to (@v ^ @i) with release ordering.
1865:/mnt/c/Users/31740/Desktop/newcore/include/linux/atomic/atomic-arch-fallback.h ****  *
1866:/mnt/c/Users/31740/Desktop/newcore/include/linux/atomic/atomic-arch-fallback.h ****  * Safe to use in noinstr code; prefer atomic_fetch_xor_release() elsewhere.
ARM GAS  /tmp/ccyCLDig.s 			page 123


1867:/mnt/c/Users/31740/Desktop/newcore/include/linux/atomic/atomic-arch-fallback.h ****  *
1868:/mnt/c/Users/31740/Desktop/newcore/include/linux/atomic/atomic-arch-fallback.h ****  * Return: The original value of @v.
1869:/mnt/c/Users/31740/Desktop/newcore/include/linux/atomic/atomic-arch-fallback.h ****  */
1870:/mnt/c/Users/31740/Desktop/newcore/include/linux/atomic/atomic-arch-fallback.h **** static __always_inline int
1871:/mnt/c/Users/31740/Desktop/newcore/include/linux/atomic/atomic-arch-fallback.h **** raw_atomic_fetch_xor_release(int i, atomic_t *v)
1872:/mnt/c/Users/31740/Desktop/newcore/include/linux/atomic/atomic-arch-fallback.h **** {
1873:/mnt/c/Users/31740/Desktop/newcore/include/linux/atomic/atomic-arch-fallback.h **** #if defined(arch_atomic_fetch_xor_release)
1874:/mnt/c/Users/31740/Desktop/newcore/include/linux/atomic/atomic-arch-fallback.h **** 	return arch_atomic_fetch_xor_release(i, v);
1875:/mnt/c/Users/31740/Desktop/newcore/include/linux/atomic/atomic-arch-fallback.h **** #elif defined(arch_atomic_fetch_xor_relaxed)
1876:/mnt/c/Users/31740/Desktop/newcore/include/linux/atomic/atomic-arch-fallback.h **** 	__atomic_release_fence();
1877:/mnt/c/Users/31740/Desktop/newcore/include/linux/atomic/atomic-arch-fallback.h **** 	return arch_atomic_fetch_xor_relaxed(i, v);
1878:/mnt/c/Users/31740/Desktop/newcore/include/linux/atomic/atomic-arch-fallback.h **** #elif defined(arch_atomic_fetch_xor)
1879:/mnt/c/Users/31740/Desktop/newcore/include/linux/atomic/atomic-arch-fallback.h **** 	return arch_atomic_fetch_xor(i, v);
1880:/mnt/c/Users/31740/Desktop/newcore/include/linux/atomic/atomic-arch-fallback.h **** #else
1881:/mnt/c/Users/31740/Desktop/newcore/include/linux/atomic/atomic-arch-fallback.h **** #error "Unable to define raw_atomic_fetch_xor_release"
1882:/mnt/c/Users/31740/Desktop/newcore/include/linux/atomic/atomic-arch-fallback.h **** #endif
1883:/mnt/c/Users/31740/Desktop/newcore/include/linux/atomic/atomic-arch-fallback.h **** }
1884:/mnt/c/Users/31740/Desktop/newcore/include/linux/atomic/atomic-arch-fallback.h **** 
1885:/mnt/c/Users/31740/Desktop/newcore/include/linux/atomic/atomic-arch-fallback.h **** /**
1886:/mnt/c/Users/31740/Desktop/newcore/include/linux/atomic/atomic-arch-fallback.h ****  * raw_atomic_fetch_xor_relaxed() - atomic bitwise XOR with relaxed ordering
1887:/mnt/c/Users/31740/Desktop/newcore/include/linux/atomic/atomic-arch-fallback.h ****  * @i: int value
1888:/mnt/c/Users/31740/Desktop/newcore/include/linux/atomic/atomic-arch-fallback.h ****  * @v: pointer to atomic_t
1889:/mnt/c/Users/31740/Desktop/newcore/include/linux/atomic/atomic-arch-fallback.h ****  *
1890:/mnt/c/Users/31740/Desktop/newcore/include/linux/atomic/atomic-arch-fallback.h ****  * Atomically updates @v to (@v ^ @i) with relaxed ordering.
1891:/mnt/c/Users/31740/Desktop/newcore/include/linux/atomic/atomic-arch-fallback.h ****  *
1892:/mnt/c/Users/31740/Desktop/newcore/include/linux/atomic/atomic-arch-fallback.h ****  * Safe to use in noinstr code; prefer atomic_fetch_xor_relaxed() elsewhere.
1893:/mnt/c/Users/31740/Desktop/newcore/include/linux/atomic/atomic-arch-fallback.h ****  *
1894:/mnt/c/Users/31740/Desktop/newcore/include/linux/atomic/atomic-arch-fallback.h ****  * Return: The original value of @v.
1895:/mnt/c/Users/31740/Desktop/newcore/include/linux/atomic/atomic-arch-fallback.h ****  */
1896:/mnt/c/Users/31740/Desktop/newcore/include/linux/atomic/atomic-arch-fallback.h **** static __always_inline int
1897:/mnt/c/Users/31740/Desktop/newcore/include/linux/atomic/atomic-arch-fallback.h **** raw_atomic_fetch_xor_relaxed(int i, atomic_t *v)
1898:/mnt/c/Users/31740/Desktop/newcore/include/linux/atomic/atomic-arch-fallback.h **** {
1899:/mnt/c/Users/31740/Desktop/newcore/include/linux/atomic/atomic-arch-fallback.h **** #if defined(arch_atomic_fetch_xor_relaxed)
1900:/mnt/c/Users/31740/Desktop/newcore/include/linux/atomic/atomic-arch-fallback.h **** 	return arch_atomic_fetch_xor_relaxed(i, v);
1901:/mnt/c/Users/31740/Desktop/newcore/include/linux/atomic/atomic-arch-fallback.h **** #elif defined(arch_atomic_fetch_xor)
1902:/mnt/c/Users/31740/Desktop/newcore/include/linux/atomic/atomic-arch-fallback.h **** 	return arch_atomic_fetch_xor(i, v);
1903:/mnt/c/Users/31740/Desktop/newcore/include/linux/atomic/atomic-arch-fallback.h **** #else
1904:/mnt/c/Users/31740/Desktop/newcore/include/linux/atomic/atomic-arch-fallback.h **** #error "Unable to define raw_atomic_fetch_xor_relaxed"
1905:/mnt/c/Users/31740/Desktop/newcore/include/linux/atomic/atomic-arch-fallback.h **** #endif
1906:/mnt/c/Users/31740/Desktop/newcore/include/linux/atomic/atomic-arch-fallback.h **** }
1907:/mnt/c/Users/31740/Desktop/newcore/include/linux/atomic/atomic-arch-fallback.h **** 
1908:/mnt/c/Users/31740/Desktop/newcore/include/linux/atomic/atomic-arch-fallback.h **** /**
1909:/mnt/c/Users/31740/Desktop/newcore/include/linux/atomic/atomic-arch-fallback.h ****  * raw_atomic_xchg() - atomic exchange with full ordering
1910:/mnt/c/Users/31740/Desktop/newcore/include/linux/atomic/atomic-arch-fallback.h ****  * @v: pointer to atomic_t
1911:/mnt/c/Users/31740/Desktop/newcore/include/linux/atomic/atomic-arch-fallback.h ****  * @new: int value to assign
1912:/mnt/c/Users/31740/Desktop/newcore/include/linux/atomic/atomic-arch-fallback.h ****  *
1913:/mnt/c/Users/31740/Desktop/newcore/include/linux/atomic/atomic-arch-fallback.h ****  * Atomically updates @v to @new with full ordering.
1914:/mnt/c/Users/31740/Desktop/newcore/include/linux/atomic/atomic-arch-fallback.h ****  *
1915:/mnt/c/Users/31740/Desktop/newcore/include/linux/atomic/atomic-arch-fallback.h ****  * Safe to use in noinstr code; prefer atomic_xchg() elsewhere.
1916:/mnt/c/Users/31740/Desktop/newcore/include/linux/atomic/atomic-arch-fallback.h ****  *
1917:/mnt/c/Users/31740/Desktop/newcore/include/linux/atomic/atomic-arch-fallback.h ****  * Return: The original value of @v.
1918:/mnt/c/Users/31740/Desktop/newcore/include/linux/atomic/atomic-arch-fallback.h ****  */
1919:/mnt/c/Users/31740/Desktop/newcore/include/linux/atomic/atomic-arch-fallback.h **** static __always_inline int
1920:/mnt/c/Users/31740/Desktop/newcore/include/linux/atomic/atomic-arch-fallback.h **** raw_atomic_xchg(atomic_t *v, int new)
1921:/mnt/c/Users/31740/Desktop/newcore/include/linux/atomic/atomic-arch-fallback.h **** {
1922:/mnt/c/Users/31740/Desktop/newcore/include/linux/atomic/atomic-arch-fallback.h **** #if defined(arch_atomic_xchg)
1923:/mnt/c/Users/31740/Desktop/newcore/include/linux/atomic/atomic-arch-fallback.h **** 	return arch_atomic_xchg(v, new);
ARM GAS  /tmp/ccyCLDig.s 			page 124


1924:/mnt/c/Users/31740/Desktop/newcore/include/linux/atomic/atomic-arch-fallback.h **** #elif defined(arch_atomic_xchg_relaxed)
1925:/mnt/c/Users/31740/Desktop/newcore/include/linux/atomic/atomic-arch-fallback.h **** 	int ret;
1926:/mnt/c/Users/31740/Desktop/newcore/include/linux/atomic/atomic-arch-fallback.h **** 	__atomic_pre_full_fence();
1927:/mnt/c/Users/31740/Desktop/newcore/include/linux/atomic/atomic-arch-fallback.h **** 	ret = arch_atomic_xchg_relaxed(v, new);
1928:/mnt/c/Users/31740/Desktop/newcore/include/linux/atomic/atomic-arch-fallback.h **** 	__atomic_post_full_fence();
1929:/mnt/c/Users/31740/Desktop/newcore/include/linux/atomic/atomic-arch-fallback.h **** 	return ret;
1930:/mnt/c/Users/31740/Desktop/newcore/include/linux/atomic/atomic-arch-fallback.h **** #else
1931:/mnt/c/Users/31740/Desktop/newcore/include/linux/atomic/atomic-arch-fallback.h **** 	return raw_xchg(&v->counter, new);
1932:/mnt/c/Users/31740/Desktop/newcore/include/linux/atomic/atomic-arch-fallback.h **** #endif
1933:/mnt/c/Users/31740/Desktop/newcore/include/linux/atomic/atomic-arch-fallback.h **** }
1934:/mnt/c/Users/31740/Desktop/newcore/include/linux/atomic/atomic-arch-fallback.h **** 
1935:/mnt/c/Users/31740/Desktop/newcore/include/linux/atomic/atomic-arch-fallback.h **** /**
1936:/mnt/c/Users/31740/Desktop/newcore/include/linux/atomic/atomic-arch-fallback.h ****  * raw_atomic_xchg_acquire() - atomic exchange with acquire ordering
1937:/mnt/c/Users/31740/Desktop/newcore/include/linux/atomic/atomic-arch-fallback.h ****  * @v: pointer to atomic_t
1938:/mnt/c/Users/31740/Desktop/newcore/include/linux/atomic/atomic-arch-fallback.h ****  * @new: int value to assign
1939:/mnt/c/Users/31740/Desktop/newcore/include/linux/atomic/atomic-arch-fallback.h ****  *
1940:/mnt/c/Users/31740/Desktop/newcore/include/linux/atomic/atomic-arch-fallback.h ****  * Atomically updates @v to @new with acquire ordering.
1941:/mnt/c/Users/31740/Desktop/newcore/include/linux/atomic/atomic-arch-fallback.h ****  *
1942:/mnt/c/Users/31740/Desktop/newcore/include/linux/atomic/atomic-arch-fallback.h ****  * Safe to use in noinstr code; prefer atomic_xchg_acquire() elsewhere.
1943:/mnt/c/Users/31740/Desktop/newcore/include/linux/atomic/atomic-arch-fallback.h ****  *
1944:/mnt/c/Users/31740/Desktop/newcore/include/linux/atomic/atomic-arch-fallback.h ****  * Return: The original value of @v.
1945:/mnt/c/Users/31740/Desktop/newcore/include/linux/atomic/atomic-arch-fallback.h ****  */
1946:/mnt/c/Users/31740/Desktop/newcore/include/linux/atomic/atomic-arch-fallback.h **** static __always_inline int
1947:/mnt/c/Users/31740/Desktop/newcore/include/linux/atomic/atomic-arch-fallback.h **** raw_atomic_xchg_acquire(atomic_t *v, int new)
1948:/mnt/c/Users/31740/Desktop/newcore/include/linux/atomic/atomic-arch-fallback.h **** {
1949:/mnt/c/Users/31740/Desktop/newcore/include/linux/atomic/atomic-arch-fallback.h **** #if defined(arch_atomic_xchg_acquire)
1950:/mnt/c/Users/31740/Desktop/newcore/include/linux/atomic/atomic-arch-fallback.h **** 	return arch_atomic_xchg_acquire(v, new);
1951:/mnt/c/Users/31740/Desktop/newcore/include/linux/atomic/atomic-arch-fallback.h **** #elif defined(arch_atomic_xchg_relaxed)
1952:/mnt/c/Users/31740/Desktop/newcore/include/linux/atomic/atomic-arch-fallback.h **** 	int ret = arch_atomic_xchg_relaxed(v, new);
1953:/mnt/c/Users/31740/Desktop/newcore/include/linux/atomic/atomic-arch-fallback.h **** 	__atomic_acquire_fence();
1954:/mnt/c/Users/31740/Desktop/newcore/include/linux/atomic/atomic-arch-fallback.h **** 	return ret;
1955:/mnt/c/Users/31740/Desktop/newcore/include/linux/atomic/atomic-arch-fallback.h **** #elif defined(arch_atomic_xchg)
1956:/mnt/c/Users/31740/Desktop/newcore/include/linux/atomic/atomic-arch-fallback.h **** 	return arch_atomic_xchg(v, new);
1957:/mnt/c/Users/31740/Desktop/newcore/include/linux/atomic/atomic-arch-fallback.h **** #else
1958:/mnt/c/Users/31740/Desktop/newcore/include/linux/atomic/atomic-arch-fallback.h **** 	return raw_xchg_acquire(&v->counter, new);
1959:/mnt/c/Users/31740/Desktop/newcore/include/linux/atomic/atomic-arch-fallback.h **** #endif
1960:/mnt/c/Users/31740/Desktop/newcore/include/linux/atomic/atomic-arch-fallback.h **** }
1961:/mnt/c/Users/31740/Desktop/newcore/include/linux/atomic/atomic-arch-fallback.h **** 
1962:/mnt/c/Users/31740/Desktop/newcore/include/linux/atomic/atomic-arch-fallback.h **** /**
1963:/mnt/c/Users/31740/Desktop/newcore/include/linux/atomic/atomic-arch-fallback.h ****  * raw_atomic_xchg_release() - atomic exchange with release ordering
1964:/mnt/c/Users/31740/Desktop/newcore/include/linux/atomic/atomic-arch-fallback.h ****  * @v: pointer to atomic_t
1965:/mnt/c/Users/31740/Desktop/newcore/include/linux/atomic/atomic-arch-fallback.h ****  * @new: int value to assign
1966:/mnt/c/Users/31740/Desktop/newcore/include/linux/atomic/atomic-arch-fallback.h ****  *
1967:/mnt/c/Users/31740/Desktop/newcore/include/linux/atomic/atomic-arch-fallback.h ****  * Atomically updates @v to @new with release ordering.
1968:/mnt/c/Users/31740/Desktop/newcore/include/linux/atomic/atomic-arch-fallback.h ****  *
1969:/mnt/c/Users/31740/Desktop/newcore/include/linux/atomic/atomic-arch-fallback.h ****  * Safe to use in noinstr code; prefer atomic_xchg_release() elsewhere.
1970:/mnt/c/Users/31740/Desktop/newcore/include/linux/atomic/atomic-arch-fallback.h ****  *
1971:/mnt/c/Users/31740/Desktop/newcore/include/linux/atomic/atomic-arch-fallback.h ****  * Return: The original value of @v.
1972:/mnt/c/Users/31740/Desktop/newcore/include/linux/atomic/atomic-arch-fallback.h ****  */
1973:/mnt/c/Users/31740/Desktop/newcore/include/linux/atomic/atomic-arch-fallback.h **** static __always_inline int
1974:/mnt/c/Users/31740/Desktop/newcore/include/linux/atomic/atomic-arch-fallback.h **** raw_atomic_xchg_release(atomic_t *v, int new)
1975:/mnt/c/Users/31740/Desktop/newcore/include/linux/atomic/atomic-arch-fallback.h **** {
1976:/mnt/c/Users/31740/Desktop/newcore/include/linux/atomic/atomic-arch-fallback.h **** #if defined(arch_atomic_xchg_release)
1977:/mnt/c/Users/31740/Desktop/newcore/include/linux/atomic/atomic-arch-fallback.h **** 	return arch_atomic_xchg_release(v, new);
1978:/mnt/c/Users/31740/Desktop/newcore/include/linux/atomic/atomic-arch-fallback.h **** #elif defined(arch_atomic_xchg_relaxed)
1979:/mnt/c/Users/31740/Desktop/newcore/include/linux/atomic/atomic-arch-fallback.h **** 	__atomic_release_fence();
1980:/mnt/c/Users/31740/Desktop/newcore/include/linux/atomic/atomic-arch-fallback.h **** 	return arch_atomic_xchg_relaxed(v, new);
ARM GAS  /tmp/ccyCLDig.s 			page 125


1981:/mnt/c/Users/31740/Desktop/newcore/include/linux/atomic/atomic-arch-fallback.h **** #elif defined(arch_atomic_xchg)
1982:/mnt/c/Users/31740/Desktop/newcore/include/linux/atomic/atomic-arch-fallback.h **** 	return arch_atomic_xchg(v, new);
1983:/mnt/c/Users/31740/Desktop/newcore/include/linux/atomic/atomic-arch-fallback.h **** #else
1984:/mnt/c/Users/31740/Desktop/newcore/include/linux/atomic/atomic-arch-fallback.h **** 	return raw_xchg_release(&v->counter, new);
1985:/mnt/c/Users/31740/Desktop/newcore/include/linux/atomic/atomic-arch-fallback.h **** #endif
1986:/mnt/c/Users/31740/Desktop/newcore/include/linux/atomic/atomic-arch-fallback.h **** }
1987:/mnt/c/Users/31740/Desktop/newcore/include/linux/atomic/atomic-arch-fallback.h **** 
1988:/mnt/c/Users/31740/Desktop/newcore/include/linux/atomic/atomic-arch-fallback.h **** /**
1989:/mnt/c/Users/31740/Desktop/newcore/include/linux/atomic/atomic-arch-fallback.h ****  * raw_atomic_xchg_relaxed() - atomic exchange with relaxed ordering
1990:/mnt/c/Users/31740/Desktop/newcore/include/linux/atomic/atomic-arch-fallback.h ****  * @v: pointer to atomic_t
1991:/mnt/c/Users/31740/Desktop/newcore/include/linux/atomic/atomic-arch-fallback.h ****  * @new: int value to assign
1992:/mnt/c/Users/31740/Desktop/newcore/include/linux/atomic/atomic-arch-fallback.h ****  *
1993:/mnt/c/Users/31740/Desktop/newcore/include/linux/atomic/atomic-arch-fallback.h ****  * Atomically updates @v to @new with relaxed ordering.
1994:/mnt/c/Users/31740/Desktop/newcore/include/linux/atomic/atomic-arch-fallback.h ****  *
1995:/mnt/c/Users/31740/Desktop/newcore/include/linux/atomic/atomic-arch-fallback.h ****  * Safe to use in noinstr code; prefer atomic_xchg_relaxed() elsewhere.
1996:/mnt/c/Users/31740/Desktop/newcore/include/linux/atomic/atomic-arch-fallback.h ****  *
1997:/mnt/c/Users/31740/Desktop/newcore/include/linux/atomic/atomic-arch-fallback.h ****  * Return: The original value of @v.
1998:/mnt/c/Users/31740/Desktop/newcore/include/linux/atomic/atomic-arch-fallback.h ****  */
1999:/mnt/c/Users/31740/Desktop/newcore/include/linux/atomic/atomic-arch-fallback.h **** static __always_inline int
2000:/mnt/c/Users/31740/Desktop/newcore/include/linux/atomic/atomic-arch-fallback.h **** raw_atomic_xchg_relaxed(atomic_t *v, int new)
2001:/mnt/c/Users/31740/Desktop/newcore/include/linux/atomic/atomic-arch-fallback.h **** {
2002:/mnt/c/Users/31740/Desktop/newcore/include/linux/atomic/atomic-arch-fallback.h **** #if defined(arch_atomic_xchg_relaxed)
2003:/mnt/c/Users/31740/Desktop/newcore/include/linux/atomic/atomic-arch-fallback.h **** 	return arch_atomic_xchg_relaxed(v, new);
2004:/mnt/c/Users/31740/Desktop/newcore/include/linux/atomic/atomic-arch-fallback.h **** #elif defined(arch_atomic_xchg)
2005:/mnt/c/Users/31740/Desktop/newcore/include/linux/atomic/atomic-arch-fallback.h **** 	return arch_atomic_xchg(v, new);
2006:/mnt/c/Users/31740/Desktop/newcore/include/linux/atomic/atomic-arch-fallback.h **** #else
2007:/mnt/c/Users/31740/Desktop/newcore/include/linux/atomic/atomic-arch-fallback.h **** 	return raw_xchg_relaxed(&v->counter, new);
2008:/mnt/c/Users/31740/Desktop/newcore/include/linux/atomic/atomic-arch-fallback.h **** #endif
2009:/mnt/c/Users/31740/Desktop/newcore/include/linux/atomic/atomic-arch-fallback.h **** }
2010:/mnt/c/Users/31740/Desktop/newcore/include/linux/atomic/atomic-arch-fallback.h **** 
2011:/mnt/c/Users/31740/Desktop/newcore/include/linux/atomic/atomic-arch-fallback.h **** /**
2012:/mnt/c/Users/31740/Desktop/newcore/include/linux/atomic/atomic-arch-fallback.h ****  * raw_atomic_cmpxchg() - atomic compare and exchange with full ordering
2013:/mnt/c/Users/31740/Desktop/newcore/include/linux/atomic/atomic-arch-fallback.h ****  * @v: pointer to atomic_t
2014:/mnt/c/Users/31740/Desktop/newcore/include/linux/atomic/atomic-arch-fallback.h ****  * @old: int value to compare with
2015:/mnt/c/Users/31740/Desktop/newcore/include/linux/atomic/atomic-arch-fallback.h ****  * @new: int value to assign
2016:/mnt/c/Users/31740/Desktop/newcore/include/linux/atomic/atomic-arch-fallback.h ****  *
2017:/mnt/c/Users/31740/Desktop/newcore/include/linux/atomic/atomic-arch-fallback.h ****  * If (@v == @old), atomically updates @v to @new with full ordering.
2018:/mnt/c/Users/31740/Desktop/newcore/include/linux/atomic/atomic-arch-fallback.h ****  * Otherwise, @v is not modified and relaxed ordering is provided.
2019:/mnt/c/Users/31740/Desktop/newcore/include/linux/atomic/atomic-arch-fallback.h ****  *
2020:/mnt/c/Users/31740/Desktop/newcore/include/linux/atomic/atomic-arch-fallback.h ****  * Safe to use in noinstr code; prefer atomic_cmpxchg() elsewhere.
2021:/mnt/c/Users/31740/Desktop/newcore/include/linux/atomic/atomic-arch-fallback.h ****  *
2022:/mnt/c/Users/31740/Desktop/newcore/include/linux/atomic/atomic-arch-fallback.h ****  * Return: The original value of @v.
2023:/mnt/c/Users/31740/Desktop/newcore/include/linux/atomic/atomic-arch-fallback.h ****  */
2024:/mnt/c/Users/31740/Desktop/newcore/include/linux/atomic/atomic-arch-fallback.h **** static __always_inline int
2025:/mnt/c/Users/31740/Desktop/newcore/include/linux/atomic/atomic-arch-fallback.h **** raw_atomic_cmpxchg(atomic_t *v, int old, int new)
2026:/mnt/c/Users/31740/Desktop/newcore/include/linux/atomic/atomic-arch-fallback.h **** {
2027:/mnt/c/Users/31740/Desktop/newcore/include/linux/atomic/atomic-arch-fallback.h **** #if defined(arch_atomic_cmpxchg)
2028:/mnt/c/Users/31740/Desktop/newcore/include/linux/atomic/atomic-arch-fallback.h **** 	return arch_atomic_cmpxchg(v, old, new);
2029:/mnt/c/Users/31740/Desktop/newcore/include/linux/atomic/atomic-arch-fallback.h **** #elif defined(arch_atomic_cmpxchg_relaxed)
2030:/mnt/c/Users/31740/Desktop/newcore/include/linux/atomic/atomic-arch-fallback.h **** 	int ret;
2031:/mnt/c/Users/31740/Desktop/newcore/include/linux/atomic/atomic-arch-fallback.h **** 	__atomic_pre_full_fence();
2032:/mnt/c/Users/31740/Desktop/newcore/include/linux/atomic/atomic-arch-fallback.h **** 	ret = arch_atomic_cmpxchg_relaxed(v, old, new);
2033:/mnt/c/Users/31740/Desktop/newcore/include/linux/atomic/atomic-arch-fallback.h **** 	__atomic_post_full_fence();
2034:/mnt/c/Users/31740/Desktop/newcore/include/linux/atomic/atomic-arch-fallback.h **** 	return ret;
2035:/mnt/c/Users/31740/Desktop/newcore/include/linux/atomic/atomic-arch-fallback.h **** #else
2036:/mnt/c/Users/31740/Desktop/newcore/include/linux/atomic/atomic-arch-fallback.h **** 	return raw_cmpxchg(&v->counter, old, new);
2037:/mnt/c/Users/31740/Desktop/newcore/include/linux/atomic/atomic-arch-fallback.h **** #endif
ARM GAS  /tmp/ccyCLDig.s 			page 126


2038:/mnt/c/Users/31740/Desktop/newcore/include/linux/atomic/atomic-arch-fallback.h **** }
2039:/mnt/c/Users/31740/Desktop/newcore/include/linux/atomic/atomic-arch-fallback.h **** 
2040:/mnt/c/Users/31740/Desktop/newcore/include/linux/atomic/atomic-arch-fallback.h **** /**
2041:/mnt/c/Users/31740/Desktop/newcore/include/linux/atomic/atomic-arch-fallback.h ****  * raw_atomic_cmpxchg_acquire() - atomic compare and exchange with acquire ordering
2042:/mnt/c/Users/31740/Desktop/newcore/include/linux/atomic/atomic-arch-fallback.h ****  * @v: pointer to atomic_t
2043:/mnt/c/Users/31740/Desktop/newcore/include/linux/atomic/atomic-arch-fallback.h ****  * @old: int value to compare with
2044:/mnt/c/Users/31740/Desktop/newcore/include/linux/atomic/atomic-arch-fallback.h ****  * @new: int value to assign
2045:/mnt/c/Users/31740/Desktop/newcore/include/linux/atomic/atomic-arch-fallback.h ****  *
2046:/mnt/c/Users/31740/Desktop/newcore/include/linux/atomic/atomic-arch-fallback.h ****  * If (@v == @old), atomically updates @v to @new with acquire ordering.
2047:/mnt/c/Users/31740/Desktop/newcore/include/linux/atomic/atomic-arch-fallback.h ****  * Otherwise, @v is not modified and relaxed ordering is provided.
2048:/mnt/c/Users/31740/Desktop/newcore/include/linux/atomic/atomic-arch-fallback.h ****  *
2049:/mnt/c/Users/31740/Desktop/newcore/include/linux/atomic/atomic-arch-fallback.h ****  * Safe to use in noinstr code; prefer atomic_cmpxchg_acquire() elsewhere.
2050:/mnt/c/Users/31740/Desktop/newcore/include/linux/atomic/atomic-arch-fallback.h ****  *
2051:/mnt/c/Users/31740/Desktop/newcore/include/linux/atomic/atomic-arch-fallback.h ****  * Return: The original value of @v.
2052:/mnt/c/Users/31740/Desktop/newcore/include/linux/atomic/atomic-arch-fallback.h ****  */
2053:/mnt/c/Users/31740/Desktop/newcore/include/linux/atomic/atomic-arch-fallback.h **** static __always_inline int
2054:/mnt/c/Users/31740/Desktop/newcore/include/linux/atomic/atomic-arch-fallback.h **** raw_atomic_cmpxchg_acquire(atomic_t *v, int old, int new)
2055:/mnt/c/Users/31740/Desktop/newcore/include/linux/atomic/atomic-arch-fallback.h **** {
2056:/mnt/c/Users/31740/Desktop/newcore/include/linux/atomic/atomic-arch-fallback.h **** #if defined(arch_atomic_cmpxchg_acquire)
2057:/mnt/c/Users/31740/Desktop/newcore/include/linux/atomic/atomic-arch-fallback.h **** 	return arch_atomic_cmpxchg_acquire(v, old, new);
2058:/mnt/c/Users/31740/Desktop/newcore/include/linux/atomic/atomic-arch-fallback.h **** #elif defined(arch_atomic_cmpxchg_relaxed)
2059:/mnt/c/Users/31740/Desktop/newcore/include/linux/atomic/atomic-arch-fallback.h **** 	int ret = arch_atomic_cmpxchg_relaxed(v, old, new);
2060:/mnt/c/Users/31740/Desktop/newcore/include/linux/atomic/atomic-arch-fallback.h **** 	__atomic_acquire_fence();
2061:/mnt/c/Users/31740/Desktop/newcore/include/linux/atomic/atomic-arch-fallback.h **** 	return ret;
2062:/mnt/c/Users/31740/Desktop/newcore/include/linux/atomic/atomic-arch-fallback.h **** #elif defined(arch_atomic_cmpxchg)
2063:/mnt/c/Users/31740/Desktop/newcore/include/linux/atomic/atomic-arch-fallback.h **** 	return arch_atomic_cmpxchg(v, old, new);
2064:/mnt/c/Users/31740/Desktop/newcore/include/linux/atomic/atomic-arch-fallback.h **** #else
2065:/mnt/c/Users/31740/Desktop/newcore/include/linux/atomic/atomic-arch-fallback.h **** 	return raw_cmpxchg_acquire(&v->counter, old, new);
2066:/mnt/c/Users/31740/Desktop/newcore/include/linux/atomic/atomic-arch-fallback.h **** #endif
2067:/mnt/c/Users/31740/Desktop/newcore/include/linux/atomic/atomic-arch-fallback.h **** }
2068:/mnt/c/Users/31740/Desktop/newcore/include/linux/atomic/atomic-arch-fallback.h **** 
2069:/mnt/c/Users/31740/Desktop/newcore/include/linux/atomic/atomic-arch-fallback.h **** /**
2070:/mnt/c/Users/31740/Desktop/newcore/include/linux/atomic/atomic-arch-fallback.h ****  * raw_atomic_cmpxchg_release() - atomic compare and exchange with release ordering
2071:/mnt/c/Users/31740/Desktop/newcore/include/linux/atomic/atomic-arch-fallback.h ****  * @v: pointer to atomic_t
2072:/mnt/c/Users/31740/Desktop/newcore/include/linux/atomic/atomic-arch-fallback.h ****  * @old: int value to compare with
2073:/mnt/c/Users/31740/Desktop/newcore/include/linux/atomic/atomic-arch-fallback.h ****  * @new: int value to assign
2074:/mnt/c/Users/31740/Desktop/newcore/include/linux/atomic/atomic-arch-fallback.h ****  *
2075:/mnt/c/Users/31740/Desktop/newcore/include/linux/atomic/atomic-arch-fallback.h ****  * If (@v == @old), atomically updates @v to @new with release ordering.
2076:/mnt/c/Users/31740/Desktop/newcore/include/linux/atomic/atomic-arch-fallback.h ****  * Otherwise, @v is not modified and relaxed ordering is provided.
2077:/mnt/c/Users/31740/Desktop/newcore/include/linux/atomic/atomic-arch-fallback.h ****  *
2078:/mnt/c/Users/31740/Desktop/newcore/include/linux/atomic/atomic-arch-fallback.h ****  * Safe to use in noinstr code; prefer atomic_cmpxchg_release() elsewhere.
2079:/mnt/c/Users/31740/Desktop/newcore/include/linux/atomic/atomic-arch-fallback.h ****  *
2080:/mnt/c/Users/31740/Desktop/newcore/include/linux/atomic/atomic-arch-fallback.h ****  * Return: The original value of @v.
2081:/mnt/c/Users/31740/Desktop/newcore/include/linux/atomic/atomic-arch-fallback.h ****  */
2082:/mnt/c/Users/31740/Desktop/newcore/include/linux/atomic/atomic-arch-fallback.h **** static __always_inline int
2083:/mnt/c/Users/31740/Desktop/newcore/include/linux/atomic/atomic-arch-fallback.h **** raw_atomic_cmpxchg_release(atomic_t *v, int old, int new)
2084:/mnt/c/Users/31740/Desktop/newcore/include/linux/atomic/atomic-arch-fallback.h **** {
2085:/mnt/c/Users/31740/Desktop/newcore/include/linux/atomic/atomic-arch-fallback.h **** #if defined(arch_atomic_cmpxchg_release)
2086:/mnt/c/Users/31740/Desktop/newcore/include/linux/atomic/atomic-arch-fallback.h **** 	return arch_atomic_cmpxchg_release(v, old, new);
2087:/mnt/c/Users/31740/Desktop/newcore/include/linux/atomic/atomic-arch-fallback.h **** #elif defined(arch_atomic_cmpxchg_relaxed)
2088:/mnt/c/Users/31740/Desktop/newcore/include/linux/atomic/atomic-arch-fallback.h **** 	__atomic_release_fence();
2089:/mnt/c/Users/31740/Desktop/newcore/include/linux/atomic/atomic-arch-fallback.h **** 	return arch_atomic_cmpxchg_relaxed(v, old, new);
2090:/mnt/c/Users/31740/Desktop/newcore/include/linux/atomic/atomic-arch-fallback.h **** #elif defined(arch_atomic_cmpxchg)
2091:/mnt/c/Users/31740/Desktop/newcore/include/linux/atomic/atomic-arch-fallback.h **** 	return arch_atomic_cmpxchg(v, old, new);
2092:/mnt/c/Users/31740/Desktop/newcore/include/linux/atomic/atomic-arch-fallback.h **** #else
2093:/mnt/c/Users/31740/Desktop/newcore/include/linux/atomic/atomic-arch-fallback.h **** 	return raw_cmpxchg_release(&v->counter, old, new);
2094:/mnt/c/Users/31740/Desktop/newcore/include/linux/atomic/atomic-arch-fallback.h **** #endif
ARM GAS  /tmp/ccyCLDig.s 			page 127


2095:/mnt/c/Users/31740/Desktop/newcore/include/linux/atomic/atomic-arch-fallback.h **** }
2096:/mnt/c/Users/31740/Desktop/newcore/include/linux/atomic/atomic-arch-fallback.h **** 
2097:/mnt/c/Users/31740/Desktop/newcore/include/linux/atomic/atomic-arch-fallback.h **** /**
2098:/mnt/c/Users/31740/Desktop/newcore/include/linux/atomic/atomic-arch-fallback.h ****  * raw_atomic_cmpxchg_relaxed() - atomic compare and exchange with relaxed ordering
2099:/mnt/c/Users/31740/Desktop/newcore/include/linux/atomic/atomic-arch-fallback.h ****  * @v: pointer to atomic_t
2100:/mnt/c/Users/31740/Desktop/newcore/include/linux/atomic/atomic-arch-fallback.h ****  * @old: int value to compare with
2101:/mnt/c/Users/31740/Desktop/newcore/include/linux/atomic/atomic-arch-fallback.h ****  * @new: int value to assign
2102:/mnt/c/Users/31740/Desktop/newcore/include/linux/atomic/atomic-arch-fallback.h ****  *
2103:/mnt/c/Users/31740/Desktop/newcore/include/linux/atomic/atomic-arch-fallback.h ****  * If (@v == @old), atomically updates @v to @new with relaxed ordering.
2104:/mnt/c/Users/31740/Desktop/newcore/include/linux/atomic/atomic-arch-fallback.h ****  * Otherwise, @v is not modified and relaxed ordering is provided.
2105:/mnt/c/Users/31740/Desktop/newcore/include/linux/atomic/atomic-arch-fallback.h ****  *
2106:/mnt/c/Users/31740/Desktop/newcore/include/linux/atomic/atomic-arch-fallback.h ****  * Safe to use in noinstr code; prefer atomic_cmpxchg_relaxed() elsewhere.
2107:/mnt/c/Users/31740/Desktop/newcore/include/linux/atomic/atomic-arch-fallback.h ****  *
2108:/mnt/c/Users/31740/Desktop/newcore/include/linux/atomic/atomic-arch-fallback.h ****  * Return: The original value of @v.
2109:/mnt/c/Users/31740/Desktop/newcore/include/linux/atomic/atomic-arch-fallback.h ****  */
2110:/mnt/c/Users/31740/Desktop/newcore/include/linux/atomic/atomic-arch-fallback.h **** static __always_inline int
2111:/mnt/c/Users/31740/Desktop/newcore/include/linux/atomic/atomic-arch-fallback.h **** raw_atomic_cmpxchg_relaxed(atomic_t *v, int old, int new)
2112:/mnt/c/Users/31740/Desktop/newcore/include/linux/atomic/atomic-arch-fallback.h **** {
2113:/mnt/c/Users/31740/Desktop/newcore/include/linux/atomic/atomic-arch-fallback.h **** #if defined(arch_atomic_cmpxchg_relaxed)
2114:/mnt/c/Users/31740/Desktop/newcore/include/linux/atomic/atomic-arch-fallback.h **** 	return arch_atomic_cmpxchg_relaxed(v, old, new);
2115:/mnt/c/Users/31740/Desktop/newcore/include/linux/atomic/atomic-arch-fallback.h **** #elif defined(arch_atomic_cmpxchg)
2116:/mnt/c/Users/31740/Desktop/newcore/include/linux/atomic/atomic-arch-fallback.h **** 	return arch_atomic_cmpxchg(v, old, new);
2117:/mnt/c/Users/31740/Desktop/newcore/include/linux/atomic/atomic-arch-fallback.h **** #else
2118:/mnt/c/Users/31740/Desktop/newcore/include/linux/atomic/atomic-arch-fallback.h **** 	return raw_cmpxchg_relaxed(&v->counter, old, new);
2119:/mnt/c/Users/31740/Desktop/newcore/include/linux/atomic/atomic-arch-fallback.h **** #endif
2120:/mnt/c/Users/31740/Desktop/newcore/include/linux/atomic/atomic-arch-fallback.h **** }
2121:/mnt/c/Users/31740/Desktop/newcore/include/linux/atomic/atomic-arch-fallback.h **** 
2122:/mnt/c/Users/31740/Desktop/newcore/include/linux/atomic/atomic-arch-fallback.h **** /**
2123:/mnt/c/Users/31740/Desktop/newcore/include/linux/atomic/atomic-arch-fallback.h ****  * raw_atomic_try_cmpxchg() - atomic compare and exchange with full ordering
2124:/mnt/c/Users/31740/Desktop/newcore/include/linux/atomic/atomic-arch-fallback.h ****  * @v: pointer to atomic_t
2125:/mnt/c/Users/31740/Desktop/newcore/include/linux/atomic/atomic-arch-fallback.h ****  * @old: pointer to int value to compare with
2126:/mnt/c/Users/31740/Desktop/newcore/include/linux/atomic/atomic-arch-fallback.h ****  * @new: int value to assign
2127:/mnt/c/Users/31740/Desktop/newcore/include/linux/atomic/atomic-arch-fallback.h ****  *
2128:/mnt/c/Users/31740/Desktop/newcore/include/linux/atomic/atomic-arch-fallback.h ****  * If (@v == @old), atomically updates @v to @new with full ordering.
2129:/mnt/c/Users/31740/Desktop/newcore/include/linux/atomic/atomic-arch-fallback.h ****  * Otherwise, @v is not modified, @old is updated to the current value of @v,
2130:/mnt/c/Users/31740/Desktop/newcore/include/linux/atomic/atomic-arch-fallback.h ****  * and relaxed ordering is provided.
2131:/mnt/c/Users/31740/Desktop/newcore/include/linux/atomic/atomic-arch-fallback.h ****  *
2132:/mnt/c/Users/31740/Desktop/newcore/include/linux/atomic/atomic-arch-fallback.h ****  * Safe to use in noinstr code; prefer atomic_try_cmpxchg() elsewhere.
2133:/mnt/c/Users/31740/Desktop/newcore/include/linux/atomic/atomic-arch-fallback.h ****  *
2134:/mnt/c/Users/31740/Desktop/newcore/include/linux/atomic/atomic-arch-fallback.h ****  * Return: @true if the exchange occured, @false otherwise.
2135:/mnt/c/Users/31740/Desktop/newcore/include/linux/atomic/atomic-arch-fallback.h ****  */
2136:/mnt/c/Users/31740/Desktop/newcore/include/linux/atomic/atomic-arch-fallback.h **** static __always_inline bool
2137:/mnt/c/Users/31740/Desktop/newcore/include/linux/atomic/atomic-arch-fallback.h **** raw_atomic_try_cmpxchg(atomic_t *v, int *old, int new)
2138:/mnt/c/Users/31740/Desktop/newcore/include/linux/atomic/atomic-arch-fallback.h **** {
2139:/mnt/c/Users/31740/Desktop/newcore/include/linux/atomic/atomic-arch-fallback.h **** #if defined(arch_atomic_try_cmpxchg)
2140:/mnt/c/Users/31740/Desktop/newcore/include/linux/atomic/atomic-arch-fallback.h **** 	return arch_atomic_try_cmpxchg(v, old, new);
2141:/mnt/c/Users/31740/Desktop/newcore/include/linux/atomic/atomic-arch-fallback.h **** #elif defined(arch_atomic_try_cmpxchg_relaxed)
2142:/mnt/c/Users/31740/Desktop/newcore/include/linux/atomic/atomic-arch-fallback.h **** 	bool ret;
2143:/mnt/c/Users/31740/Desktop/newcore/include/linux/atomic/atomic-arch-fallback.h **** 	__atomic_pre_full_fence();
2144:/mnt/c/Users/31740/Desktop/newcore/include/linux/atomic/atomic-arch-fallback.h **** 	ret = arch_atomic_try_cmpxchg_relaxed(v, old, new);
2145:/mnt/c/Users/31740/Desktop/newcore/include/linux/atomic/atomic-arch-fallback.h **** 	__atomic_post_full_fence();
2146:/mnt/c/Users/31740/Desktop/newcore/include/linux/atomic/atomic-arch-fallback.h **** 	return ret;
2147:/mnt/c/Users/31740/Desktop/newcore/include/linux/atomic/atomic-arch-fallback.h **** #else
2148:/mnt/c/Users/31740/Desktop/newcore/include/linux/atomic/atomic-arch-fallback.h **** 	int r, o = *old;
2149:/mnt/c/Users/31740/Desktop/newcore/include/linux/atomic/atomic-arch-fallback.h **** 	r = raw_atomic_cmpxchg(v, o, new);
2150:/mnt/c/Users/31740/Desktop/newcore/include/linux/atomic/atomic-arch-fallback.h **** 	if (unlikely(r != o))
2151:/mnt/c/Users/31740/Desktop/newcore/include/linux/atomic/atomic-arch-fallback.h **** 		*old = r;
ARM GAS  /tmp/ccyCLDig.s 			page 128


2152:/mnt/c/Users/31740/Desktop/newcore/include/linux/atomic/atomic-arch-fallback.h **** 	return likely(r == o);
2153:/mnt/c/Users/31740/Desktop/newcore/include/linux/atomic/atomic-arch-fallback.h **** #endif
2154:/mnt/c/Users/31740/Desktop/newcore/include/linux/atomic/atomic-arch-fallback.h **** }
2155:/mnt/c/Users/31740/Desktop/newcore/include/linux/atomic/atomic-arch-fallback.h **** 
2156:/mnt/c/Users/31740/Desktop/newcore/include/linux/atomic/atomic-arch-fallback.h **** /**
2157:/mnt/c/Users/31740/Desktop/newcore/include/linux/atomic/atomic-arch-fallback.h ****  * raw_atomic_try_cmpxchg_acquire() - atomic compare and exchange with acquire ordering
2158:/mnt/c/Users/31740/Desktop/newcore/include/linux/atomic/atomic-arch-fallback.h ****  * @v: pointer to atomic_t
2159:/mnt/c/Users/31740/Desktop/newcore/include/linux/atomic/atomic-arch-fallback.h ****  * @old: pointer to int value to compare with
2160:/mnt/c/Users/31740/Desktop/newcore/include/linux/atomic/atomic-arch-fallback.h ****  * @new: int value to assign
2161:/mnt/c/Users/31740/Desktop/newcore/include/linux/atomic/atomic-arch-fallback.h ****  *
2162:/mnt/c/Users/31740/Desktop/newcore/include/linux/atomic/atomic-arch-fallback.h ****  * If (@v == @old), atomically updates @v to @new with acquire ordering.
2163:/mnt/c/Users/31740/Desktop/newcore/include/linux/atomic/atomic-arch-fallback.h ****  * Otherwise, @v is not modified, @old is updated to the current value of @v,
2164:/mnt/c/Users/31740/Desktop/newcore/include/linux/atomic/atomic-arch-fallback.h ****  * and relaxed ordering is provided.
2165:/mnt/c/Users/31740/Desktop/newcore/include/linux/atomic/atomic-arch-fallback.h ****  *
2166:/mnt/c/Users/31740/Desktop/newcore/include/linux/atomic/atomic-arch-fallback.h ****  * Safe to use in noinstr code; prefer atomic_try_cmpxchg_acquire() elsewhere.
2167:/mnt/c/Users/31740/Desktop/newcore/include/linux/atomic/atomic-arch-fallback.h ****  *
2168:/mnt/c/Users/31740/Desktop/newcore/include/linux/atomic/atomic-arch-fallback.h ****  * Return: @true if the exchange occured, @false otherwise.
2169:/mnt/c/Users/31740/Desktop/newcore/include/linux/atomic/atomic-arch-fallback.h ****  */
2170:/mnt/c/Users/31740/Desktop/newcore/include/linux/atomic/atomic-arch-fallback.h **** static __always_inline bool
2171:/mnt/c/Users/31740/Desktop/newcore/include/linux/atomic/atomic-arch-fallback.h **** raw_atomic_try_cmpxchg_acquire(atomic_t *v, int *old, int new)
2172:/mnt/c/Users/31740/Desktop/newcore/include/linux/atomic/atomic-arch-fallback.h **** {
2173:/mnt/c/Users/31740/Desktop/newcore/include/linux/atomic/atomic-arch-fallback.h **** #if defined(arch_atomic_try_cmpxchg_acquire)
2174:/mnt/c/Users/31740/Desktop/newcore/include/linux/atomic/atomic-arch-fallback.h **** 	return arch_atomic_try_cmpxchg_acquire(v, old, new);
2175:/mnt/c/Users/31740/Desktop/newcore/include/linux/atomic/atomic-arch-fallback.h **** #elif defined(arch_atomic_try_cmpxchg_relaxed)
2176:/mnt/c/Users/31740/Desktop/newcore/include/linux/atomic/atomic-arch-fallback.h **** 	bool ret = arch_atomic_try_cmpxchg_relaxed(v, old, new);
2177:/mnt/c/Users/31740/Desktop/newcore/include/linux/atomic/atomic-arch-fallback.h **** 	__atomic_acquire_fence();
2178:/mnt/c/Users/31740/Desktop/newcore/include/linux/atomic/atomic-arch-fallback.h **** 	return ret;
2179:/mnt/c/Users/31740/Desktop/newcore/include/linux/atomic/atomic-arch-fallback.h **** #elif defined(arch_atomic_try_cmpxchg)
2180:/mnt/c/Users/31740/Desktop/newcore/include/linux/atomic/atomic-arch-fallback.h **** 	return arch_atomic_try_cmpxchg(v, old, new);
2181:/mnt/c/Users/31740/Desktop/newcore/include/linux/atomic/atomic-arch-fallback.h **** #else
2182:/mnt/c/Users/31740/Desktop/newcore/include/linux/atomic/atomic-arch-fallback.h **** 	int r, o = *old;
2183:/mnt/c/Users/31740/Desktop/newcore/include/linux/atomic/atomic-arch-fallback.h **** 	r = raw_atomic_cmpxchg_acquire(v, o, new);
2184:/mnt/c/Users/31740/Desktop/newcore/include/linux/atomic/atomic-arch-fallback.h **** 	if (unlikely(r != o))
2185:/mnt/c/Users/31740/Desktop/newcore/include/linux/atomic/atomic-arch-fallback.h **** 		*old = r;
2186:/mnt/c/Users/31740/Desktop/newcore/include/linux/atomic/atomic-arch-fallback.h **** 	return likely(r == o);
2187:/mnt/c/Users/31740/Desktop/newcore/include/linux/atomic/atomic-arch-fallback.h **** #endif
2188:/mnt/c/Users/31740/Desktop/newcore/include/linux/atomic/atomic-arch-fallback.h **** }
2189:/mnt/c/Users/31740/Desktop/newcore/include/linux/atomic/atomic-arch-fallback.h **** 
2190:/mnt/c/Users/31740/Desktop/newcore/include/linux/atomic/atomic-arch-fallback.h **** /**
2191:/mnt/c/Users/31740/Desktop/newcore/include/linux/atomic/atomic-arch-fallback.h ****  * raw_atomic_try_cmpxchg_release() - atomic compare and exchange with release ordering
2192:/mnt/c/Users/31740/Desktop/newcore/include/linux/atomic/atomic-arch-fallback.h ****  * @v: pointer to atomic_t
2193:/mnt/c/Users/31740/Desktop/newcore/include/linux/atomic/atomic-arch-fallback.h ****  * @old: pointer to int value to compare with
2194:/mnt/c/Users/31740/Desktop/newcore/include/linux/atomic/atomic-arch-fallback.h ****  * @new: int value to assign
2195:/mnt/c/Users/31740/Desktop/newcore/include/linux/atomic/atomic-arch-fallback.h ****  *
2196:/mnt/c/Users/31740/Desktop/newcore/include/linux/atomic/atomic-arch-fallback.h ****  * If (@v == @old), atomically updates @v to @new with release ordering.
2197:/mnt/c/Users/31740/Desktop/newcore/include/linux/atomic/atomic-arch-fallback.h ****  * Otherwise, @v is not modified, @old is updated to the current value of @v,
2198:/mnt/c/Users/31740/Desktop/newcore/include/linux/atomic/atomic-arch-fallback.h ****  * and relaxed ordering is provided.
2199:/mnt/c/Users/31740/Desktop/newcore/include/linux/atomic/atomic-arch-fallback.h ****  *
2200:/mnt/c/Users/31740/Desktop/newcore/include/linux/atomic/atomic-arch-fallback.h ****  * Safe to use in noinstr code; prefer atomic_try_cmpxchg_release() elsewhere.
2201:/mnt/c/Users/31740/Desktop/newcore/include/linux/atomic/atomic-arch-fallback.h ****  *
2202:/mnt/c/Users/31740/Desktop/newcore/include/linux/atomic/atomic-arch-fallback.h ****  * Return: @true if the exchange occured, @false otherwise.
2203:/mnt/c/Users/31740/Desktop/newcore/include/linux/atomic/atomic-arch-fallback.h ****  */
2204:/mnt/c/Users/31740/Desktop/newcore/include/linux/atomic/atomic-arch-fallback.h **** static __always_inline bool
2205:/mnt/c/Users/31740/Desktop/newcore/include/linux/atomic/atomic-arch-fallback.h **** raw_atomic_try_cmpxchg_release(atomic_t *v, int *old, int new)
2206:/mnt/c/Users/31740/Desktop/newcore/include/linux/atomic/atomic-arch-fallback.h **** {
2207:/mnt/c/Users/31740/Desktop/newcore/include/linux/atomic/atomic-arch-fallback.h **** #if defined(arch_atomic_try_cmpxchg_release)
2208:/mnt/c/Users/31740/Desktop/newcore/include/linux/atomic/atomic-arch-fallback.h **** 	return arch_atomic_try_cmpxchg_release(v, old, new);
ARM GAS  /tmp/ccyCLDig.s 			page 129


2209:/mnt/c/Users/31740/Desktop/newcore/include/linux/atomic/atomic-arch-fallback.h **** #elif defined(arch_atomic_try_cmpxchg_relaxed)
2210:/mnt/c/Users/31740/Desktop/newcore/include/linux/atomic/atomic-arch-fallback.h **** 	__atomic_release_fence();
2211:/mnt/c/Users/31740/Desktop/newcore/include/linux/atomic/atomic-arch-fallback.h **** 	return arch_atomic_try_cmpxchg_relaxed(v, old, new);
2212:/mnt/c/Users/31740/Desktop/newcore/include/linux/atomic/atomic-arch-fallback.h **** #elif defined(arch_atomic_try_cmpxchg)
2213:/mnt/c/Users/31740/Desktop/newcore/include/linux/atomic/atomic-arch-fallback.h **** 	return arch_atomic_try_cmpxchg(v, old, new);
2214:/mnt/c/Users/31740/Desktop/newcore/include/linux/atomic/atomic-arch-fallback.h **** #else
2215:/mnt/c/Users/31740/Desktop/newcore/include/linux/atomic/atomic-arch-fallback.h **** 	int r, o = *old;
2216:/mnt/c/Users/31740/Desktop/newcore/include/linux/atomic/atomic-arch-fallback.h **** 	r = raw_atomic_cmpxchg_release(v, o, new);
2217:/mnt/c/Users/31740/Desktop/newcore/include/linux/atomic/atomic-arch-fallback.h **** 	if (unlikely(r != o))
2218:/mnt/c/Users/31740/Desktop/newcore/include/linux/atomic/atomic-arch-fallback.h **** 		*old = r;
2219:/mnt/c/Users/31740/Desktop/newcore/include/linux/atomic/atomic-arch-fallback.h **** 	return likely(r == o);
2220:/mnt/c/Users/31740/Desktop/newcore/include/linux/atomic/atomic-arch-fallback.h **** #endif
2221:/mnt/c/Users/31740/Desktop/newcore/include/linux/atomic/atomic-arch-fallback.h **** }
2222:/mnt/c/Users/31740/Desktop/newcore/include/linux/atomic/atomic-arch-fallback.h **** 
2223:/mnt/c/Users/31740/Desktop/newcore/include/linux/atomic/atomic-arch-fallback.h **** /**
2224:/mnt/c/Users/31740/Desktop/newcore/include/linux/atomic/atomic-arch-fallback.h ****  * raw_atomic_try_cmpxchg_relaxed() - atomic compare and exchange with relaxed ordering
2225:/mnt/c/Users/31740/Desktop/newcore/include/linux/atomic/atomic-arch-fallback.h ****  * @v: pointer to atomic_t
2226:/mnt/c/Users/31740/Desktop/newcore/include/linux/atomic/atomic-arch-fallback.h ****  * @old: pointer to int value to compare with
2227:/mnt/c/Users/31740/Desktop/newcore/include/linux/atomic/atomic-arch-fallback.h ****  * @new: int value to assign
2228:/mnt/c/Users/31740/Desktop/newcore/include/linux/atomic/atomic-arch-fallback.h ****  *
2229:/mnt/c/Users/31740/Desktop/newcore/include/linux/atomic/atomic-arch-fallback.h ****  * If (@v == @old), atomically updates @v to @new with relaxed ordering.
2230:/mnt/c/Users/31740/Desktop/newcore/include/linux/atomic/atomic-arch-fallback.h ****  * Otherwise, @v is not modified, @old is updated to the current value of @v,
2231:/mnt/c/Users/31740/Desktop/newcore/include/linux/atomic/atomic-arch-fallback.h ****  * and relaxed ordering is provided.
2232:/mnt/c/Users/31740/Desktop/newcore/include/linux/atomic/atomic-arch-fallback.h ****  *
2233:/mnt/c/Users/31740/Desktop/newcore/include/linux/atomic/atomic-arch-fallback.h ****  * Safe to use in noinstr code; prefer atomic_try_cmpxchg_relaxed() elsewhere.
2234:/mnt/c/Users/31740/Desktop/newcore/include/linux/atomic/atomic-arch-fallback.h ****  *
2235:/mnt/c/Users/31740/Desktop/newcore/include/linux/atomic/atomic-arch-fallback.h ****  * Return: @true if the exchange occured, @false otherwise.
2236:/mnt/c/Users/31740/Desktop/newcore/include/linux/atomic/atomic-arch-fallback.h ****  */
2237:/mnt/c/Users/31740/Desktop/newcore/include/linux/atomic/atomic-arch-fallback.h **** static __always_inline bool
2238:/mnt/c/Users/31740/Desktop/newcore/include/linux/atomic/atomic-arch-fallback.h **** raw_atomic_try_cmpxchg_relaxed(atomic_t *v, int *old, int new)
2239:/mnt/c/Users/31740/Desktop/newcore/include/linux/atomic/atomic-arch-fallback.h **** {
2240:/mnt/c/Users/31740/Desktop/newcore/include/linux/atomic/atomic-arch-fallback.h **** #if defined(arch_atomic_try_cmpxchg_relaxed)
2241:/mnt/c/Users/31740/Desktop/newcore/include/linux/atomic/atomic-arch-fallback.h **** 	return arch_atomic_try_cmpxchg_relaxed(v, old, new);
2242:/mnt/c/Users/31740/Desktop/newcore/include/linux/atomic/atomic-arch-fallback.h **** #elif defined(arch_atomic_try_cmpxchg)
2243:/mnt/c/Users/31740/Desktop/newcore/include/linux/atomic/atomic-arch-fallback.h **** 	return arch_atomic_try_cmpxchg(v, old, new);
2244:/mnt/c/Users/31740/Desktop/newcore/include/linux/atomic/atomic-arch-fallback.h **** #else
2245:/mnt/c/Users/31740/Desktop/newcore/include/linux/atomic/atomic-arch-fallback.h **** 	int r, o = *old;
2246:/mnt/c/Users/31740/Desktop/newcore/include/linux/atomic/atomic-arch-fallback.h **** 	r = raw_atomic_cmpxchg_relaxed(v, o, new);
2247:/mnt/c/Users/31740/Desktop/newcore/include/linux/atomic/atomic-arch-fallback.h **** 	if (unlikely(r != o))
2248:/mnt/c/Users/31740/Desktop/newcore/include/linux/atomic/atomic-arch-fallback.h **** 		*old = r;
2249:/mnt/c/Users/31740/Desktop/newcore/include/linux/atomic/atomic-arch-fallback.h **** 	return likely(r == o);
2250:/mnt/c/Users/31740/Desktop/newcore/include/linux/atomic/atomic-arch-fallback.h **** #endif
2251:/mnt/c/Users/31740/Desktop/newcore/include/linux/atomic/atomic-arch-fallback.h **** }
2252:/mnt/c/Users/31740/Desktop/newcore/include/linux/atomic/atomic-arch-fallback.h **** 
2253:/mnt/c/Users/31740/Desktop/newcore/include/linux/atomic/atomic-arch-fallback.h **** /**
2254:/mnt/c/Users/31740/Desktop/newcore/include/linux/atomic/atomic-arch-fallback.h ****  * raw_atomic_sub_and_test() - atomic subtract and test if zero with full ordering
2255:/mnt/c/Users/31740/Desktop/newcore/include/linux/atomic/atomic-arch-fallback.h ****  * @i: int value to subtract
2256:/mnt/c/Users/31740/Desktop/newcore/include/linux/atomic/atomic-arch-fallback.h ****  * @v: pointer to atomic_t
2257:/mnt/c/Users/31740/Desktop/newcore/include/linux/atomic/atomic-arch-fallback.h ****  *
2258:/mnt/c/Users/31740/Desktop/newcore/include/linux/atomic/atomic-arch-fallback.h ****  * Atomically updates @v to (@v - @i) with full ordering.
2259:/mnt/c/Users/31740/Desktop/newcore/include/linux/atomic/atomic-arch-fallback.h ****  *
2260:/mnt/c/Users/31740/Desktop/newcore/include/linux/atomic/atomic-arch-fallback.h ****  * Safe to use in noinstr code; prefer atomic_sub_and_test() elsewhere.
2261:/mnt/c/Users/31740/Desktop/newcore/include/linux/atomic/atomic-arch-fallback.h ****  *
2262:/mnt/c/Users/31740/Desktop/newcore/include/linux/atomic/atomic-arch-fallback.h ****  * Return: @true if the resulting value of @v is zero, @false otherwise.
2263:/mnt/c/Users/31740/Desktop/newcore/include/linux/atomic/atomic-arch-fallback.h ****  */
2264:/mnt/c/Users/31740/Desktop/newcore/include/linux/atomic/atomic-arch-fallback.h **** static __always_inline bool
2265:/mnt/c/Users/31740/Desktop/newcore/include/linux/atomic/atomic-arch-fallback.h **** raw_atomic_sub_and_test(int i, atomic_t *v)
ARM GAS  /tmp/ccyCLDig.s 			page 130


2266:/mnt/c/Users/31740/Desktop/newcore/include/linux/atomic/atomic-arch-fallback.h **** {
2267:/mnt/c/Users/31740/Desktop/newcore/include/linux/atomic/atomic-arch-fallback.h **** #if defined(arch_atomic_sub_and_test)
2268:/mnt/c/Users/31740/Desktop/newcore/include/linux/atomic/atomic-arch-fallback.h **** 	return arch_atomic_sub_and_test(i, v);
2269:/mnt/c/Users/31740/Desktop/newcore/include/linux/atomic/atomic-arch-fallback.h **** #else
2270:/mnt/c/Users/31740/Desktop/newcore/include/linux/atomic/atomic-arch-fallback.h **** 	return raw_atomic_sub_return(i, v) == 0;
2271:/mnt/c/Users/31740/Desktop/newcore/include/linux/atomic/atomic-arch-fallback.h **** #endif
2272:/mnt/c/Users/31740/Desktop/newcore/include/linux/atomic/atomic-arch-fallback.h **** }
2273:/mnt/c/Users/31740/Desktop/newcore/include/linux/atomic/atomic-arch-fallback.h **** 
2274:/mnt/c/Users/31740/Desktop/newcore/include/linux/atomic/atomic-arch-fallback.h **** /**
2275:/mnt/c/Users/31740/Desktop/newcore/include/linux/atomic/atomic-arch-fallback.h ****  * raw_atomic_dec_and_test() - atomic decrement and test if zero with full ordering
2276:/mnt/c/Users/31740/Desktop/newcore/include/linux/atomic/atomic-arch-fallback.h ****  * @v: pointer to atomic_t
2277:/mnt/c/Users/31740/Desktop/newcore/include/linux/atomic/atomic-arch-fallback.h ****  *
2278:/mnt/c/Users/31740/Desktop/newcore/include/linux/atomic/atomic-arch-fallback.h ****  * Atomically updates @v to (@v - 1) with full ordering.
2279:/mnt/c/Users/31740/Desktop/newcore/include/linux/atomic/atomic-arch-fallback.h ****  *
2280:/mnt/c/Users/31740/Desktop/newcore/include/linux/atomic/atomic-arch-fallback.h ****  * Safe to use in noinstr code; prefer atomic_dec_and_test() elsewhere.
2281:/mnt/c/Users/31740/Desktop/newcore/include/linux/atomic/atomic-arch-fallback.h ****  *
2282:/mnt/c/Users/31740/Desktop/newcore/include/linux/atomic/atomic-arch-fallback.h ****  * Return: @true if the resulting value of @v is zero, @false otherwise.
2283:/mnt/c/Users/31740/Desktop/newcore/include/linux/atomic/atomic-arch-fallback.h ****  */
2284:/mnt/c/Users/31740/Desktop/newcore/include/linux/atomic/atomic-arch-fallback.h **** static __always_inline bool
2285:/mnt/c/Users/31740/Desktop/newcore/include/linux/atomic/atomic-arch-fallback.h **** raw_atomic_dec_and_test(atomic_t *v)
 1538              		.loc 8 2285 1 view .LVU386
2286:/mnt/c/Users/31740/Desktop/newcore/include/linux/atomic/atomic-arch-fallback.h **** {
2287:/mnt/c/Users/31740/Desktop/newcore/include/linux/atomic/atomic-arch-fallback.h **** #if defined(arch_atomic_dec_and_test)
2288:/mnt/c/Users/31740/Desktop/newcore/include/linux/atomic/atomic-arch-fallback.h **** 	return arch_atomic_dec_and_test(v);
2289:/mnt/c/Users/31740/Desktop/newcore/include/linux/atomic/atomic-arch-fallback.h **** #else
2290:/mnt/c/Users/31740/Desktop/newcore/include/linux/atomic/atomic-arch-fallback.h **** 	return raw_atomic_dec_return(v) == 0;
 1539              		.loc 8 2290 2 view .LVU387
 1540              	.LBB119:
 1541              	.LBI119:
1237:/mnt/c/Users/31740/Desktop/newcore/include/linux/atomic/atomic-arch-fallback.h **** {
 1542              		.loc 8 1237 1 view .LVU388
1248:/mnt/c/Users/31740/Desktop/newcore/include/linux/atomic/atomic-arch-fallback.h **** #endif
 1543              		.loc 8 1248 2 view .LVU389
 1544              	.LVL132:
 1545              	.LBB120:
 1546              	.LBI120:
 790:/mnt/c/Users/31740/Desktop/newcore/include/linux/atomic/atomic-arch-fallback.h **** {
 1547              		.loc 8 790 1 view .LVU390
 1548              	.LBB121:
 795:/mnt/c/Users/31740/Desktop/newcore/include/linux/atomic/atomic-arch-fallback.h **** 	__atomic_pre_full_fence();
 1549              		.loc 8 795 2 view .LVU391
 796:/mnt/c/Users/31740/Desktop/newcore/include/linux/atomic/atomic-arch-fallback.h **** 	ret = arch_atomic_sub_return_relaxed(i, v);
 1550              		.loc 8 796 2 view .LVU392
 1551              	.LBB122:
 1552              	.LBI122:
 1553              		.file 9 "/mnt/c/Users/31740/Desktop/newcore/include/asm-generic/barrier.h"
   1:/mnt/c/Users/31740/Desktop/newcore/include/asm-generic/barrier.h **** /* SPDX-License-Identifier: GPL-2.0-or-later */
   2:/mnt/c/Users/31740/Desktop/newcore/include/asm-generic/barrier.h **** /*
   3:/mnt/c/Users/31740/Desktop/newcore/include/asm-generic/barrier.h ****  * Generic barrier definitions.
   4:/mnt/c/Users/31740/Desktop/newcore/include/asm-generic/barrier.h ****  *
   5:/mnt/c/Users/31740/Desktop/newcore/include/asm-generic/barrier.h ****  * It should be possible to use these on really simple architectures,
   6:/mnt/c/Users/31740/Desktop/newcore/include/asm-generic/barrier.h ****  * but it serves more as a starting point for new ports.
   7:/mnt/c/Users/31740/Desktop/newcore/include/asm-generic/barrier.h ****  *
   8:/mnt/c/Users/31740/Desktop/newcore/include/asm-generic/barrier.h ****  * Copyright (C) 2007 Red Hat, Inc. All Rights Reserved.
   9:/mnt/c/Users/31740/Desktop/newcore/include/asm-generic/barrier.h ****  * Written by David Howells (dhowells@redhat.com)
  10:/mnt/c/Users/31740/Desktop/newcore/include/asm-generic/barrier.h ****  */
  11:/mnt/c/Users/31740/Desktop/newcore/include/asm-generic/barrier.h **** 
ARM GAS  /tmp/ccyCLDig.s 			page 131


  12:/mnt/c/Users/31740/Desktop/newcore/include/asm-generic/barrier.h **** #include <linux/rwonce.h>
  13:/mnt/c/Users/31740/Desktop/newcore/include/asm-generic/barrier.h **** 
  14:/mnt/c/Users/31740/Desktop/newcore/include/asm-generic/barrier.h **** static inline void sync(void)
  15:/mnt/c/Users/31740/Desktop/newcore/include/asm-generic/barrier.h **** {
  16:/mnt/c/Users/31740/Desktop/newcore/include/asm-generic/barrier.h **** 	asm volatile("sync" : : : "memory");
  17:/mnt/c/Users/31740/Desktop/newcore/include/asm-generic/barrier.h **** }
  18:/mnt/c/Users/31740/Desktop/newcore/include/asm-generic/barrier.h **** 
  19:/mnt/c/Users/31740/Desktop/newcore/include/asm-generic/barrier.h **** static inline void eieio(void)
  20:/mnt/c/Users/31740/Desktop/newcore/include/asm-generic/barrier.h **** {
  21:/mnt/c/Users/31740/Desktop/newcore/include/asm-generic/barrier.h **** 	asm volatile("eieio" : : : "memory");
  22:/mnt/c/Users/31740/Desktop/newcore/include/asm-generic/barrier.h **** }
  23:/mnt/c/Users/31740/Desktop/newcore/include/asm-generic/barrier.h **** 
  24:/mnt/c/Users/31740/Desktop/newcore/include/asm-generic/barrier.h **** static inline void barrier(void)
 1554              		.loc 9 24 20 view .LVU393
 1555              	.LBB123:
  25:/mnt/c/Users/31740/Desktop/newcore/include/asm-generic/barrier.h **** {
  26:/mnt/c/Users/31740/Desktop/newcore/include/asm-generic/barrier.h **** 	asm volatile("" : : : "memory");
 1556              		.loc 9 26 2 view .LVU394
 1557              	.LBE123:
 1558              	.LBE122:
 797:/mnt/c/Users/31740/Desktop/newcore/include/linux/atomic/atomic-arch-fallback.h **** 	__atomic_post_full_fence();
 1559              		.loc 8 797 2 view .LVU395
 1560              	.LVL133:
 1561              	.LBB124:
 1562              	.LBI124:
 1563              		.file 10 "/mnt/c/Users/31740/Desktop/newcore/arch/arm_m/include/asm/atomic.h"
   1:/mnt/c/Users/31740/Desktop/newcore/arch/arm_m/include/asm/atomic.h **** /* SPDX-License-Identifier: GPL-2.0-only */
   2:/mnt/c/Users/31740/Desktop/newcore/arch/arm_m/include/asm/atomic.h **** /*
   3:/mnt/c/Users/31740/Desktop/newcore/arch/arm_m/include/asm/atomic.h ****  * arch/arm/include/asm/atomic.h
   4:/mnt/c/Users/31740/Desktop/newcore/arch/arm_m/include/asm/atomic.h ****  *
   5:/mnt/c/Users/31740/Desktop/newcore/arch/arm_m/include/asm/atomic.h ****  * Copyright (C) 1996 Russell King.
   6:/mnt/c/Users/31740/Desktop/newcore/arch/arm_m/include/asm/atomic.h ****  * Copyright (C) 2002 Deep Blue Solutions Ltd.
   7:/mnt/c/Users/31740/Desktop/newcore/arch/arm_m/include/asm/atomic.h ****  * Modified for uClinux on STM32F407
   8:/mnt/c/Users/31740/Desktop/newcore/arch/arm_m/include/asm/atomic.h ****  */
   9:/mnt/c/Users/31740/Desktop/newcore/arch/arm_m/include/asm/atomic.h **** #ifndef __ASM_ARM_ATOMIC_H
  10:/mnt/c/Users/31740/Desktop/newcore/arch/arm_m/include/asm/atomic.h **** #define __ASM_ARM_ATOMIC_H
  11:/mnt/c/Users/31740/Desktop/newcore/arch/arm_m/include/asm/atomic.h **** 
  12:/mnt/c/Users/31740/Desktop/newcore/arch/arm_m/include/asm/atomic.h **** #include <linux/compiler.h> /* Available */
  13:/mnt/c/Users/31740/Desktop/newcore/arch/arm_m/include/asm/atomic.h **** #include <linux/types.h>    /* Available */
  14:/mnt/c/Users/31740/Desktop/newcore/arch/arm_m/include/asm/atomic.h **** #include <asm/barrier.h>    /* Available */
  15:/mnt/c/Users/31740/Desktop/newcore/arch/arm_m/include/asm/atomic.h **** 
  16:/mnt/c/Users/31740/Desktop/newcore/arch/arm_m/include/asm/atomic.h **** /* Include architecture-specific configuration */
  17:/mnt/c/Users/31740/Desktop/newcore/arch/arm_m/include/asm/atomic.h **** 
  18:/mnt/c/Users/31740/Desktop/newcore/arch/arm_m/include/asm/atomic.h **** 
  19:/mnt/c/Users/31740/Desktop/newcore/arch/arm_m/include/asm/atomic.h **** #ifdef __KERNEL__
  20:/mnt/c/Users/31740/Desktop/newcore/arch/arm_m/include/asm/atomic.h **** 
  21:/mnt/c/Users/31740/Desktop/newcore/arch/arm_m/include/asm/atomic.h **** 
  22:/mnt/c/Users/31740/Desktop/newcore/arch/arm_m/include/asm/atomic.h **** 
  23:/mnt/c/Users/31740/Desktop/newcore/arch/arm_m/include/asm/atomic.h **** 
  24:/mnt/c/Users/31740/Desktop/newcore/arch/arm_m/include/asm/atomic.h **** 
  25:/mnt/c/Users/31740/Desktop/newcore/arch/arm_m/include/asm/atomic.h **** // typedef struct {
  26:/mnt/c/Users/31740/Desktop/newcore/arch/arm_m/include/asm/atomic.h **** //     volatile int counter;
  27:/mnt/c/Users/31740/Desktop/newcore/arch/arm_m/include/asm/atomic.h **** // } atomic_t;
  28:/mnt/c/Users/31740/Desktop/newcore/arch/arm_m/include/asm/atomic.h **** 
  29:/mnt/c/Users/31740/Desktop/newcore/arch/arm_m/include/asm/atomic.h **** #define ATOMIC_INIT(i) { (i) }
  30:/mnt/c/Users/31740/Desktop/newcore/arch/arm_m/include/asm/atomic.h **** 
  31:/mnt/c/Users/31740/Desktop/newcore/arch/arm_m/include/asm/atomic.h **** /*
ARM GAS  /tmp/ccyCLDig.s 			page 132


  32:/mnt/c/Users/31740/Desktop/newcore/arch/arm_m/include/asm/atomic.h ****  * On ARMv7-M, ordinary assignment (str instruction) doesn't clear the local
  33:/mnt/c/Users/31740/Desktop/newcore/arch/arm_m/include/asm/atomic.h ****  * strex/ldrex monitor on some implementations. The reason we can use it for
  34:/mnt/c/Users/31740/Desktop/newcore/arch/arm_m/include/asm/atomic.h ****  * atomic_set() is the clrex or dummy strex done on every exception return.
  35:/mnt/c/Users/31740/Desktop/newcore/arch/arm_m/include/asm/atomic.h ****  */
  36:/mnt/c/Users/31740/Desktop/newcore/arch/arm_m/include/asm/atomic.h **** #define arch_atomic_read(v) READ_ONCE((v)->counter)
  37:/mnt/c/Users/31740/Desktop/newcore/arch/arm_m/include/asm/atomic.h **** #define arch_atomic_set(v,i)    WRITE_ONCE(((v)->counter), (i))
  38:/mnt/c/Users/31740/Desktop/newcore/arch/arm_m/include/asm/atomic.h **** 
  39:/mnt/c/Users/31740/Desktop/newcore/arch/arm_m/include/asm/atomic.h **** /*
  40:/mnt/c/Users/31740/Desktop/newcore/arch/arm_m/include/asm/atomic.h ****  * ARMv6 UP and SMP safe atomic ops.  We use load exclusive and
  41:/mnt/c/Users/31740/Desktop/newcore/arch/arm_m/include/asm/atomic.h ****  * store exclusive to ensure that these are atomic.  We may loop
  42:/mnt/c/Users/31740/Desktop/newcore/arch/arm_m/include/asm/atomic.h ****  * to ensure that the update happens.
  43:/mnt/c/Users/31740/Desktop/newcore/arch/arm_m/include/asm/atomic.h ****  *
  44:/mnt/c/Users/31740/Desktop/newcore/arch/arm_m/include/asm/atomic.h ****  * For STM32F407 (Cortex-M4, ARMv7-M), these instructions are available.
  45:/mnt/c/Users/31740/Desktop/newcore/arch/arm_m/include/asm/atomic.h ****  */
  46:/mnt/c/Users/31740/Desktop/newcore/arch/arm_m/include/asm/atomic.h **** 
  47:/mnt/c/Users/31740/Desktop/newcore/arch/arm_m/include/asm/atomic.h **** #define ATOMIC_OP(op, c_op, asm_op)                     \
  48:/mnt/c/Users/31740/Desktop/newcore/arch/arm_m/include/asm/atomic.h **** static inline void arch_atomic_##op(int i, atomic_t *v)         \
  49:/mnt/c/Users/31740/Desktop/newcore/arch/arm_m/include/asm/atomic.h **** {                                       \
  50:/mnt/c/Users/31740/Desktop/newcore/arch/arm_m/include/asm/atomic.h ****     unsigned long tmp;                          \
  51:/mnt/c/Users/31740/Desktop/newcore/arch/arm_m/include/asm/atomic.h ****     int result;                                 \
  52:/mnt/c/Users/31740/Desktop/newcore/arch/arm_m/include/asm/atomic.h ****                                         \
  53:/mnt/c/Users/31740/Desktop/newcore/arch/arm_m/include/asm/atomic.h ****     /* prefetchw(&v->counter); - prefetch not available */ \
  54:/mnt/c/Users/31740/Desktop/newcore/arch/arm_m/include/asm/atomic.h ****     __asm__ __volatile__("@ atomic_" #op "\n"           \
  55:/mnt/c/Users/31740/Desktop/newcore/arch/arm_m/include/asm/atomic.h **** "1: ldrex   %0, [%3]\n"                      \
  56:/mnt/c/Users/31740/Desktop/newcore/arch/arm_m/include/asm/atomic.h **** "   " #asm_op " %0, %0, %4\n"                \
  57:/mnt/c/Users/31740/Desktop/newcore/arch/arm_m/include/asm/atomic.h **** "   strex   %1, %0, [%3]\n"                      \
  58:/mnt/c/Users/31740/Desktop/newcore/arch/arm_m/include/asm/atomic.h **** "   teq %1, #0\n"                         \
  59:/mnt/c/Users/31740/Desktop/newcore/arch/arm_m/include/asm/atomic.h **** "   bne 1b"                                \
  60:/mnt/c/Users/31740/Desktop/newcore/arch/arm_m/include/asm/atomic.h ****     : "=&r" (result), "=&r" (tmp), "+Qo" (v->counter)     \
  61:/mnt/c/Users/31740/Desktop/newcore/arch/arm_m/include/asm/atomic.h ****     : "r" (&v->counter), "Ir" (i)                 \
  62:/mnt/c/Users/31740/Desktop/newcore/arch/arm_m/include/asm/atomic.h ****     : "cc");                                   \
  63:/mnt/c/Users/31740/Desktop/newcore/arch/arm_m/include/asm/atomic.h **** }
  64:/mnt/c/Users/31740/Desktop/newcore/arch/arm_m/include/asm/atomic.h **** 
  65:/mnt/c/Users/31740/Desktop/newcore/arch/arm_m/include/asm/atomic.h **** #define ATOMIC_OP_RETURN(op, c_op, asm_op)                  \
  66:/mnt/c/Users/31740/Desktop/newcore/arch/arm_m/include/asm/atomic.h **** static inline int arch_atomic_##op##_return_relaxed(int i, atomic_t *v) \
  67:/mnt/c/Users/31740/Desktop/newcore/arch/arm_m/include/asm/atomic.h **** {                                       \
  68:/mnt/c/Users/31740/Desktop/newcore/arch/arm_m/include/asm/atomic.h ****     unsigned long tmp;                          \
  69:/mnt/c/Users/31740/Desktop/newcore/arch/arm_m/include/asm/atomic.h ****     int result;                                 \
  70:/mnt/c/Users/31740/Desktop/newcore/arch/arm_m/include/asm/atomic.h ****                                         \
  71:/mnt/c/Users/31740/Desktop/newcore/arch/arm_m/include/asm/atomic.h ****     /* prefetchw(&v->counter); - prefetch not available */ \
  72:/mnt/c/Users/31740/Desktop/newcore/arch/arm_m/include/asm/atomic.h ****     __asm__ __volatile__("@ atomic_" #op "_return\n"        \
  73:/mnt/c/Users/31740/Desktop/newcore/arch/arm_m/include/asm/atomic.h **** "1: ldrex   %0, [%3]\n"                      \
  74:/mnt/c/Users/31740/Desktop/newcore/arch/arm_m/include/asm/atomic.h **** "   " #asm_op " %0, %0, %4\n"                \
  75:/mnt/c/Users/31740/Desktop/newcore/arch/arm_m/include/asm/atomic.h **** "   strex   %1, %0, [%3]\n"                      \
  76:/mnt/c/Users/31740/Desktop/newcore/arch/arm_m/include/asm/atomic.h **** "   teq %1, #0\n"                         \
  77:/mnt/c/Users/31740/Desktop/newcore/arch/arm_m/include/asm/atomic.h **** "   bne 1b"                                \
  78:/mnt/c/Users/31740/Desktop/newcore/arch/arm_m/include/asm/atomic.h ****     : "=&r" (result), "=&r" (tmp), "+Qo" (v->counter)     \
  79:/mnt/c/Users/31740/Desktop/newcore/arch/arm_m/include/asm/atomic.h ****     : "r" (&v->counter), "Ir" (i)                 \
  80:/mnt/c/Users/31740/Desktop/newcore/arch/arm_m/include/asm/atomic.h ****     : "cc");                                   \
  81:/mnt/c/Users/31740/Desktop/newcore/arch/arm_m/include/asm/atomic.h ****                                         \
  82:/mnt/c/Users/31740/Desktop/newcore/arch/arm_m/include/asm/atomic.h ****     return result;                              \
  83:/mnt/c/Users/31740/Desktop/newcore/arch/arm_m/include/asm/atomic.h **** }
  84:/mnt/c/Users/31740/Desktop/newcore/arch/arm_m/include/asm/atomic.h **** 
  85:/mnt/c/Users/31740/Desktop/newcore/arch/arm_m/include/asm/atomic.h **** #define ATOMIC_FETCH_OP(op, c_op, asm_op)                   \
  86:/mnt/c/Users/31740/Desktop/newcore/arch/arm_m/include/asm/atomic.h **** static inline int arch_atomic_fetch_##op##_relaxed(int i, atomic_t *v)  \
  87:/mnt/c/Users/31740/Desktop/newcore/arch/arm_m/include/asm/atomic.h **** {                                       \
  88:/mnt/c/Users/31740/Desktop/newcore/arch/arm_m/include/asm/atomic.h ****     unsigned long tmp;                          \
ARM GAS  /tmp/ccyCLDig.s 			page 133


  89:/mnt/c/Users/31740/Desktop/newcore/arch/arm_m/include/asm/atomic.h ****     int result, val;                             \
  90:/mnt/c/Users/31740/Desktop/newcore/arch/arm_m/include/asm/atomic.h ****                                         \
  91:/mnt/c/Users/31740/Desktop/newcore/arch/arm_m/include/asm/atomic.h ****     /* prefetchw(&v->counter); - prefetch not available */ \
  92:/mnt/c/Users/31740/Desktop/newcore/arch/arm_m/include/asm/atomic.h ****     __asm__ __volatile__("@ atomic_fetch_" #op "\n"       \
  93:/mnt/c/Users/31740/Desktop/newcore/arch/arm_m/include/asm/atomic.h **** "1: ldrex   %0, [%4]\n"                      \
  94:/mnt/c/Users/31740/Desktop/newcore/arch/arm_m/include/asm/atomic.h **** "   " #asm_op " %1, %0, %5\n"                \
  95:/mnt/c/Users/31740/Desktop/newcore/arch/arm_m/include/asm/atomic.h **** "   strex   %2, %1, [%4]\n"                      \
  96:/mnt/c/Users/31740/Desktop/newcore/arch/arm_m/include/asm/atomic.h **** "   teq %2, #0\n"                         \
  97:/mnt/c/Users/31740/Desktop/newcore/arch/arm_m/include/asm/atomic.h **** "   bne 1b"                                \
  98:/mnt/c/Users/31740/Desktop/newcore/arch/arm_m/include/asm/atomic.h ****     : "=&r" (result), "=&r" (val), "=&r" (tmp), "+Qo" (v->counter) \
  99:/mnt/c/Users/31740/Desktop/newcore/arch/arm_m/include/asm/atomic.h ****     : "r" (&v->counter), "Ir" (i)                 \
 100:/mnt/c/Users/31740/Desktop/newcore/arch/arm_m/include/asm/atomic.h ****     : "cc");                                   \
 101:/mnt/c/Users/31740/Desktop/newcore/arch/arm_m/include/asm/atomic.h ****                                         \
 102:/mnt/c/Users/31740/Desktop/newcore/arch/arm_m/include/asm/atomic.h ****     return result;                              \
 103:/mnt/c/Users/31740/Desktop/newcore/arch/arm_m/include/asm/atomic.h **** }
 104:/mnt/c/Users/31740/Desktop/newcore/arch/arm_m/include/asm/atomic.h **** 
 105:/mnt/c/Users/31740/Desktop/newcore/arch/arm_m/include/asm/atomic.h **** #define arch_atomic_add_return_relaxed       arch_atomic_add_return_relaxed
 106:/mnt/c/Users/31740/Desktop/newcore/arch/arm_m/include/asm/atomic.h **** #define arch_atomic_sub_return_relaxed       arch_atomic_sub_return_relaxed
 107:/mnt/c/Users/31740/Desktop/newcore/arch/arm_m/include/asm/atomic.h **** #define arch_atomic_fetch_add_relaxed        arch_atomic_fetch_add_relaxed
 108:/mnt/c/Users/31740/Desktop/newcore/arch/arm_m/include/asm/atomic.h **** #define arch_atomic_fetch_sub_relaxed        arch_atomic_fetch_sub_relaxed
 109:/mnt/c/Users/31740/Desktop/newcore/arch/arm_m/include/asm/atomic.h **** 
 110:/mnt/c/Users/31740/Desktop/newcore/arch/arm_m/include/asm/atomic.h **** #define arch_atomic_fetch_and_relaxed        arch_atomic_fetch_and_relaxed
 111:/mnt/c/Users/31740/Desktop/newcore/arch/arm_m/include/asm/atomic.h **** #define arch_atomic_fetch_andnot_relaxed     arch_atomic_fetch_andnot_relaxed
 112:/mnt/c/Users/31740/Desktop/newcore/arch/arm_m/include/asm/atomic.h **** #define arch_atomic_fetch_or_relaxed         arch_atomic_fetch_or_relaxed
 113:/mnt/c/Users/31740/Desktop/newcore/arch/arm_m/include/asm/atomic.h **** #define arch_atomic_fetch_xor_relaxed        arch_atomic_fetch_xor_relaxed
 114:/mnt/c/Users/31740/Desktop/newcore/arch/arm_m/include/asm/atomic.h **** 
 115:/mnt/c/Users/31740/Desktop/newcore/arch/arm_m/include/asm/atomic.h **** static inline int arch_atomic_cmpxchg_relaxed(atomic_t *ptr, int old, int new)
 116:/mnt/c/Users/31740/Desktop/newcore/arch/arm_m/include/asm/atomic.h **** {
 117:/mnt/c/Users/31740/Desktop/newcore/arch/arm_m/include/asm/atomic.h ****     int oldval;
 118:/mnt/c/Users/31740/Desktop/newcore/arch/arm_m/include/asm/atomic.h ****     unsigned long res;
 119:/mnt/c/Users/31740/Desktop/newcore/arch/arm_m/include/asm/atomic.h **** 
 120:/mnt/c/Users/31740/Desktop/newcore/arch/arm_m/include/asm/atomic.h ****     /* prefetchw(&ptr->counter); - prefetch not available */
 121:/mnt/c/Users/31740/Desktop/newcore/arch/arm_m/include/asm/atomic.h **** 
 122:/mnt/c/Users/31740/Desktop/newcore/arch/arm_m/include/asm/atomic.h ****     do {
 123:/mnt/c/Users/31740/Desktop/newcore/arch/arm_m/include/asm/atomic.h ****         __asm__ __volatile__("@ atomic_cmpxchg\n"
 124:/mnt/c/Users/31740/Desktop/newcore/arch/arm_m/include/asm/atomic.h **** "   ldrex   %1, [%3]\n"
 125:/mnt/c/Users/31740/Desktop/newcore/arch/arm_m/include/asm/atomic.h **** "   mov     %0, #0\n"
 126:/mnt/c/Users/31740/Desktop/newcore/arch/arm_m/include/asm/atomic.h **** "   teq     %1, %4\n"
 127:/mnt/c/Users/31740/Desktop/newcore/arch/arm_m/include/asm/atomic.h **** "   strexeq %0, %5, [%3]\n"
 128:/mnt/c/Users/31740/Desktop/newcore/arch/arm_m/include/asm/atomic.h ****         : "=&r" (res), "=&r" (oldval), "+Qo" (ptr->counter)
 129:/mnt/c/Users/31740/Desktop/newcore/arch/arm_m/include/asm/atomic.h ****         : "r" (&ptr->counter), "Ir" (old), "r" (new)
 130:/mnt/c/Users/31740/Desktop/newcore/arch/arm_m/include/asm/atomic.h ****         : "cc");
 131:/mnt/c/Users/31740/Desktop/newcore/arch/arm_m/include/asm/atomic.h ****     } while (res);
 132:/mnt/c/Users/31740/Desktop/newcore/arch/arm_m/include/asm/atomic.h **** 
 133:/mnt/c/Users/31740/Desktop/newcore/arch/arm_m/include/asm/atomic.h ****     return oldval;
 134:/mnt/c/Users/31740/Desktop/newcore/arch/arm_m/include/asm/atomic.h **** }
 135:/mnt/c/Users/31740/Desktop/newcore/arch/arm_m/include/asm/atomic.h **** #define arch_atomic_cmpxchg_relaxed        arch_atomic_cmpxchg_relaxed
 136:/mnt/c/Users/31740/Desktop/newcore/arch/arm_m/include/asm/atomic.h **** 
 137:/mnt/c/Users/31740/Desktop/newcore/arch/arm_m/include/asm/atomic.h **** static inline int arch_atomic_fetch_add_unless(atomic_t *v, int a, int u)
 138:/mnt/c/Users/31740/Desktop/newcore/arch/arm_m/include/asm/atomic.h **** {
 139:/mnt/c/Users/31740/Desktop/newcore/arch/arm_m/include/asm/atomic.h ****     int oldval, newval;
 140:/mnt/c/Users/31740/Desktop/newcore/arch/arm_m/include/asm/atomic.h ****     unsigned long tmp;
 141:/mnt/c/Users/31740/Desktop/newcore/arch/arm_m/include/asm/atomic.h **** 
 142:/mnt/c/Users/31740/Desktop/newcore/arch/arm_m/include/asm/atomic.h ****     /* smp_mb(); - Memory barriers might need specific implementation */
 143:/mnt/c/Users/31740/Desktop/newcore/arch/arm_m/include/asm/atomic.h ****     /* prefetchw(&v->counter); - prefetch not available */
 144:/mnt/c/Users/31740/Desktop/newcore/arch/arm_m/include/asm/atomic.h **** 
 145:/mnt/c/Users/31740/Desktop/newcore/arch/arm_m/include/asm/atomic.h ****     __asm__ __volatile__ ("@ atomic_add_unless\n"
ARM GAS  /tmp/ccyCLDig.s 			page 134


 146:/mnt/c/Users/31740/Desktop/newcore/arch/arm_m/include/asm/atomic.h **** "1: ldrex   %0, [%4]\n"
 147:/mnt/c/Users/31740/Desktop/newcore/arch/arm_m/include/asm/atomic.h **** "   teq %0, %5\n"
 148:/mnt/c/Users/31740/Desktop/newcore/arch/arm_m/include/asm/atomic.h **** "   beq 2f\n"
 149:/mnt/c/Users/31740/Desktop/newcore/arch/arm_m/include/asm/atomic.h **** "   add %1, %0, %6\n"
 150:/mnt/c/Users/31740/Desktop/newcore/arch/arm_m/include/asm/atomic.h **** "   strex   %2, %1, [%4]\n"
 151:/mnt/c/Users/31740/Desktop/newcore/arch/arm_m/include/asm/atomic.h **** "   teq %2, #0\n"
 152:/mnt/c/Users/31740/Desktop/newcore/arch/arm_m/include/asm/atomic.h **** "   bne 1b\n"
 153:/mnt/c/Users/31740/Desktop/newcore/arch/arm_m/include/asm/atomic.h **** "2:"
 154:/mnt/c/Users/31740/Desktop/newcore/arch/arm_m/include/asm/atomic.h ****     : "=&r" (oldval), "=&r" (newval), "=&r" (tmp), "+Qo" (v->counter)
 155:/mnt/c/Users/31740/Desktop/newcore/arch/arm_m/include/asm/atomic.h ****     : "r" (&v->counter), "r" (u), "r" (a)
 156:/mnt/c/Users/31740/Desktop/newcore/arch/arm_m/include/asm/atomic.h ****     : "cc");
 157:/mnt/c/Users/31740/Desktop/newcore/arch/arm_m/include/asm/atomic.h **** 
 158:/mnt/c/Users/31740/Desktop/newcore/arch/arm_m/include/asm/atomic.h ****     if (oldval != u)
 159:/mnt/c/Users/31740/Desktop/newcore/arch/arm_m/include/asm/atomic.h ****         ; /* smp_mb(); - Memory barriers might need specific implementation */
 160:/mnt/c/Users/31740/Desktop/newcore/arch/arm_m/include/asm/atomic.h **** 
 161:/mnt/c/Users/31740/Desktop/newcore/arch/arm_m/include/asm/atomic.h ****     return oldval;
 162:/mnt/c/Users/31740/Desktop/newcore/arch/arm_m/include/asm/atomic.h **** }
 163:/mnt/c/Users/31740/Desktop/newcore/arch/arm_m/include/asm/atomic.h **** #define arch_atomic_fetch_add_unless         arch_atomic_fetch_add_unless
 164:/mnt/c/Users/31740/Desktop/newcore/arch/arm_m/include/asm/atomic.h **** 
 165:/mnt/c/Users/31740/Desktop/newcore/arch/arm_m/include/asm/atomic.h **** #define ATOMIC_OPS(op, c_op, asm_op)                    \
 166:/mnt/c/Users/31740/Desktop/newcore/arch/arm_m/include/asm/atomic.h ****     ATOMIC_OP(op, c_op, asm_op)                     \
 167:/mnt/c/Users/31740/Desktop/newcore/arch/arm_m/include/asm/atomic.h ****     ATOMIC_OP_RETURN(op, c_op, asm_op)                  \
 168:/mnt/c/Users/31740/Desktop/newcore/arch/arm_m/include/asm/atomic.h ****     ATOMIC_FETCH_OP(op, c_op, asm_op)
 169:/mnt/c/Users/31740/Desktop/newcore/arch/arm_m/include/asm/atomic.h **** 
 170:/mnt/c/Users/31740/Desktop/newcore/arch/arm_m/include/asm/atomic.h **** ATOMIC_OPS(add, +=, add)
 171:/mnt/c/Users/31740/Desktop/newcore/arch/arm_m/include/asm/atomic.h **** ATOMIC_OPS(sub, -=, sub)
 1564              		.loc 10 171 1 view .LVU396
 1565              	.LBB125:
 1566              		.loc 10 171 1 view .LVU397
 1567              		.loc 10 171 1 view .LVU398
 1568              		.loc 10 171 1 view .LVU399
 1569              		.syntax unified
 1570              	@ 171 "/mnt/c/Users/31740/Desktop/newcore/arch/arm_m/include/asm/atomic.h" 1
 1571              		@ atomic_sub_return
 1572 000a 53E8001F 	1: ldrex   r1, [r3]
 1573 000e A1F10101 	   sub r1, r1, #1
 1574 0012 43E80010 	   strex   r0, r1, [r3]
 1575 0016 90F0000F 	   teq r0, #0
 1576 001a F6D1     	   bne 1b
 1577              	@ 0 "" 2
 1578              	.LVL134:
 1579              		.loc 10 171 1 view .LVU400
 1580              		.loc 10 171 1 is_stmt 0 view .LVU401
 1581              		.thumb
 1582              		.syntax unified
 1583              	.LBE125:
 1584              	.LBE124:
 798:/mnt/c/Users/31740/Desktop/newcore/include/linux/atomic/atomic-arch-fallback.h **** 	return ret;
 1585              		.loc 8 798 2 is_stmt 1 view .LVU402
 1586              	.LBB126:
 1587              	.LBI126:
  24:/mnt/c/Users/31740/Desktop/newcore/include/asm-generic/barrier.h **** {
 1588              		.loc 9 24 20 view .LVU403
 1589              	.LBB127:
 1590              		.loc 9 26 2 view .LVU404
 1591              	.LBE127:
 1592              	.LBE126:
ARM GAS  /tmp/ccyCLDig.s 			page 135


 799:/mnt/c/Users/31740/Desktop/newcore/include/linux/atomic/atomic-arch-fallback.h **** #else
 1593              		.loc 8 799 2 view .LVU405
 1594              	.LVL135:
 799:/mnt/c/Users/31740/Desktop/newcore/include/linux/atomic/atomic-arch-fallback.h **** #else
 1595              		.loc 8 799 2 is_stmt 0 view .LVU406
 1596              	.LBE121:
 1597              	.LBE120:
 1598              	.LBE119:
 1599              	.LBE118:
 1600              	.LBE117:
 259:/mnt/c/Users/31740/Desktop/newcore/include/linux/mm_type.h ****         __free_pages(page, 0);
 1601              		.loc 2 259 14 discriminator 1 view .LVU407
 1602 001c 19B1     		cbz	r1, .L89
 1603              	.L86:
 262:/mnt/c/Users/31740/Desktop/newcore/include/linux/mm_type.h **** 		__free_pages(page, 0);
 1604              		.loc 2 262 7 is_stmt 1 view .LVU408
 262:/mnt/c/Users/31740/Desktop/newcore/include/linux/mm_type.h **** 		__free_pages(page, 0);
 1605              		.loc 2 262 25 is_stmt 0 view .LVU409
 1606 001e D369     		ldr	r3, [r2, #28]
 262:/mnt/c/Users/31740/Desktop/newcore/include/linux/mm_type.h **** 		__free_pages(page, 0);
 1607              		.loc 2 262 9 view .LVU410
 1608 0020 002B     		cmp	r3, #0
 1609 0022 04DB     		blt	.L90
 1610              	.LVL136:
 1611              	.L85:
 265:/mnt/c/Users/31740/Desktop/newcore/include/linux/mm_type.h **** 
 1612              		.loc 2 265 1 view .LVU411
 1613 0024 08BD     		pop	{r3, pc}
 1614              	.LVL137:
 1615              	.L89:
 260:/mnt/c/Users/31740/Desktop/newcore/include/linux/mm_type.h ****     }
 1616              		.loc 2 260 9 is_stmt 1 view .LVU412
 1617 0026 1046     		mov	r0, r2
 1618 0028 FFF7FEFF 		bl	__free_pages
 1619              	.LVL138:
 260:/mnt/c/Users/31740/Desktop/newcore/include/linux/mm_type.h ****     }
 1620              		.loc 2 260 9 is_stmt 0 view .LVU413
 1621 002c FAE7     		b	.L85
 1622              	.LVL139:
 1623              	.L90:
 263:/mnt/c/Users/31740/Desktop/newcore/include/linux/mm_type.h **** 	}
 1624              		.loc 2 263 3 is_stmt 1 view .LVU414
 1625 002e 0021     		movs	r1, #0
 1626 0030 1046     		mov	r0, r2
 1627 0032 FFF7FEFF 		bl	__free_pages
 1628              	.LVL140:
 265:/mnt/c/Users/31740/Desktop/newcore/include/linux/mm_type.h **** 
 1629              		.loc 2 265 1 is_stmt 0 view .LVU415
 1630 0036 F5E7     		b	.L85
 1631              		.cfi_endproc
 1632              	.LFE917:
 1634              		.section	.rodata.w25qxx_request.str1.4,"aMS",%progbits,1
 1635              		.align	2
 1636              	.LC12:
 1637 0000 77323571 		.ascii	"w25qxx: read page:%d (%d b)\012\000"
 1637      78783A20 
 1637      72656164 
ARM GAS  /tmp/ccyCLDig.s 			page 136


 1637      20706167 
 1637      653A2564 
 1638 001d 000000   		.align	2
 1639              	.LC13:
 1640 0020 77323571 		.ascii	"w25qxx: write page:%d (%d b)\012\000"
 1640      78783A20 
 1640      77726974 
 1640      65207061 
 1640      67653A25 
 1641              		.section	.text.w25qxx_request,"ax",%progbits
 1642              		.align	1
 1643              		.syntax unified
 1644              		.thumb
 1645              		.thumb_func
 1647              	w25qxx_request:
 1648              	.LVL141:
 1649              	.LFB1052:
  34:/mnt/c/Users/31740/Desktop/newcore/drivers/storage/w25qxx/w25qxx.c **** 
  35:/mnt/c/Users/31740/Desktop/newcore/drivers/storage/w25qxx/w25qxx.c **** 
  36:/mnt/c/Users/31740/Desktop/newcore/drivers/storage/w25qxx/w25qxx.c **** static void w25qxx_request(struct request *req )
  37:/mnt/c/Users/31740/Desktop/newcore/drivers/storage/w25qxx/w25qxx.c **** {
 1650              		.loc 1 37 1 is_stmt 1 view -0
 1651              		.cfi_startproc
 1652              		@ args = 0, pretend = 0, frame = 16
 1653              		@ frame_needed = 0, uses_anonymous_args = 0
  38:/mnt/c/Users/31740/Desktop/newcore/drivers/storage/w25qxx/w25qxx.c ****     if(req == NULL) return;
 1654              		.loc 1 38 5 view .LVU417
 1655              		.loc 1 38 7 is_stmt 0 view .LVU418
 1656 0000 0028     		cmp	r0, #0
 1657 0002 00F0BC80 		beq	.L105
  37:/mnt/c/Users/31740/Desktop/newcore/drivers/storage/w25qxx/w25qxx.c ****     if(req == NULL) return;
 1658              		.loc 1 37 1 view .LVU419
 1659 0006 2DE9F04F 		push	{r4, r5, r6, r7, r8, r9, r10, fp, lr}
 1660              	.LCFI33:
 1661              		.cfi_def_cfa_offset 36
 1662              		.cfi_offset 4, -36
 1663              		.cfi_offset 5, -32
 1664              		.cfi_offset 6, -28
 1665              		.cfi_offset 7, -24
 1666              		.cfi_offset 8, -20
 1667              		.cfi_offset 9, -16
 1668              		.cfi_offset 10, -12
 1669              		.cfi_offset 11, -8
 1670              		.cfi_offset 14, -4
 1671 000a 85B0     		sub	sp, sp, #20
 1672              	.LCFI34:
 1673              		.cfi_def_cfa_offset 56
  39:/mnt/c/Users/31740/Desktop/newcore/drivers/storage/w25qxx/w25qxx.c ****     struct bio *bio2;
 1674              		.loc 1 39 5 is_stmt 1 view .LVU420
  40:/mnt/c/Users/31740/Desktop/newcore/drivers/storage/w25qxx/w25qxx.c ****     struct bio_vec *bvec;
 1675              		.loc 1 40 5 view .LVU421
  41:/mnt/c/Users/31740/Desktop/newcore/drivers/storage/w25qxx/w25qxx.c ****     struct bvec_iter *iter;
 1676              		.loc 1 41 5 view .LVU422
  42:/mnt/c/Users/31740/Desktop/newcore/drivers/storage/w25qxx/w25qxx.c ****     int ret = 0;
 1677              		.loc 1 42 5 view .LVU423
 1678              	.LVL142:
  43:/mnt/c/Users/31740/Desktop/newcore/drivers/storage/w25qxx/w25qxx.c ****     unsigned long start = blk_rq_pos(req);
ARM GAS  /tmp/ccyCLDig.s 			page 137


 1679              		.loc 1 43 5 view .LVU424
 1680              	.LBB128:
 1681              	.LBI128:
 1682              		.file 11 "/mnt/c/Users/31740/Desktop/newcore/include/linux/blk-mq.h"
   1:/mnt/c/Users/31740/Desktop/newcore/include/linux/blk-mq.h **** /* SPDX-License-Identifier: GPL-2.0 */
   2:/mnt/c/Users/31740/Desktop/newcore/include/linux/blk-mq.h **** #ifndef BLK_MQ_H
   3:/mnt/c/Users/31740/Desktop/newcore/include/linux/blk-mq.h **** #define BLK_MQ_H
   4:/mnt/c/Users/31740/Desktop/newcore/include/linux/blk-mq.h **** 
   5:/mnt/c/Users/31740/Desktop/newcore/include/linux/blk-mq.h **** #include <linux/bio.h>
   6:/mnt/c/Users/31740/Desktop/newcore/include/linux/blk-mq.h **** #include <linux/blkdev.h>
   7:/mnt/c/Users/31740/Desktop/newcore/include/linux/blk-mq.h **** #include <linux/blk_types.h>
   8:/mnt/c/Users/31740/Desktop/newcore/include/linux/blk-mq.h **** #include <linux/list.h> 
   9:/mnt/c/Users/31740/Desktop/newcore/include/linux/blk-mq.h **** 
  10:/mnt/c/Users/31740/Desktop/newcore/include/linux/blk-mq.h **** 
  11:/mnt/c/Users/31740/Desktop/newcore/include/linux/blk-mq.h **** enum rq_end_io_ret {
  12:/mnt/c/Users/31740/Desktop/newcore/include/linux/blk-mq.h **** 	RQ_END_IO_NONE,
  13:/mnt/c/Users/31740/Desktop/newcore/include/linux/blk-mq.h **** 	RQ_END_IO_FREE,
  14:/mnt/c/Users/31740/Desktop/newcore/include/linux/blk-mq.h **** };
  15:/mnt/c/Users/31740/Desktop/newcore/include/linux/blk-mq.h **** 
  16:/mnt/c/Users/31740/Desktop/newcore/include/linux/blk-mq.h **** struct request;
  17:/mnt/c/Users/31740/Desktop/newcore/include/linux/blk-mq.h **** typedef enum rq_end_io_ret (rq_end_io_fn)(struct request *, blk_status_t);
  18:/mnt/c/Users/31740/Desktop/newcore/include/linux/blk-mq.h **** 
  19:/mnt/c/Users/31740/Desktop/newcore/include/linux/blk-mq.h **** #define BLKDEV_MIN_RQ	4
  20:/mnt/c/Users/31740/Desktop/newcore/include/linux/blk-mq.h **** #define BLKDEV_DEFAULT_RQ	128
  21:/mnt/c/Users/31740/Desktop/newcore/include/linux/blk-mq.h **** 
  22:/mnt/c/Users/31740/Desktop/newcore/include/linux/blk-mq.h **** /*
  23:/mnt/c/Users/31740/Desktop/newcore/include/linux/blk-mq.h ****  * request flags */
  24:/mnt/c/Users/31740/Desktop/newcore/include/linux/blk-mq.h **** typedef __u32 __bitwise req_flags_t;
  25:/mnt/c/Users/31740/Desktop/newcore/include/linux/blk-mq.h **** 
  26:/mnt/c/Users/31740/Desktop/newcore/include/linux/blk-mq.h **** 
  27:/mnt/c/Users/31740/Desktop/newcore/include/linux/blk-mq.h **** /* Keep rqf_name[] in sync with the definitions below */
  28:/mnt/c/Users/31740/Desktop/newcore/include/linux/blk-mq.h **** enum {
  29:/mnt/c/Users/31740/Desktop/newcore/include/linux/blk-mq.h **** 	/* drive already may have started this one */
  30:/mnt/c/Users/31740/Desktop/newcore/include/linux/blk-mq.h **** 	__RQF_STARTED,
  31:/mnt/c/Users/31740/Desktop/newcore/include/linux/blk-mq.h **** 	/* request for flush sequence */
  32:/mnt/c/Users/31740/Desktop/newcore/include/linux/blk-mq.h **** 	__RQF_FLUSH_SEQ,
  33:/mnt/c/Users/31740/Desktop/newcore/include/linux/blk-mq.h **** 	/* merge of different types, fail separately */
  34:/mnt/c/Users/31740/Desktop/newcore/include/linux/blk-mq.h **** 	__RQF_MIXED_MERGE,
  35:/mnt/c/Users/31740/Desktop/newcore/include/linux/blk-mq.h **** 	/* don't call prep for this one */
  36:/mnt/c/Users/31740/Desktop/newcore/include/linux/blk-mq.h **** 	__RQF_DONTPREP,
  37:/mnt/c/Users/31740/Desktop/newcore/include/linux/blk-mq.h **** 	/* use hctx->sched_tags */
  38:/mnt/c/Users/31740/Desktop/newcore/include/linux/blk-mq.h **** 	__RQF_SCHED_TAGS,
  39:/mnt/c/Users/31740/Desktop/newcore/include/linux/blk-mq.h **** 	/* use an I/O scheduler for this request */
  40:/mnt/c/Users/31740/Desktop/newcore/include/linux/blk-mq.h **** 	__RQF_USE_SCHED,
  41:/mnt/c/Users/31740/Desktop/newcore/include/linux/blk-mq.h **** 	/* vaguely specified driver internal error.  Ignored by block layer */
  42:/mnt/c/Users/31740/Desktop/newcore/include/linux/blk-mq.h **** 	__RQF_FAILED,
  43:/mnt/c/Users/31740/Desktop/newcore/include/linux/blk-mq.h **** 	/* don't warn about errors */
  44:/mnt/c/Users/31740/Desktop/newcore/include/linux/blk-mq.h **** 	__RQF_QUIET,
  45:/mnt/c/Users/31740/Desktop/newcore/include/linux/blk-mq.h **** 	/* account into disk and partition IO statistics */
  46:/mnt/c/Users/31740/Desktop/newcore/include/linux/blk-mq.h **** 	__RQF_IO_STAT,
  47:/mnt/c/Users/31740/Desktop/newcore/include/linux/blk-mq.h **** 	/* runtime pm request */
  48:/mnt/c/Users/31740/Desktop/newcore/include/linux/blk-mq.h **** 	__RQF_PM,
  49:/mnt/c/Users/31740/Desktop/newcore/include/linux/blk-mq.h **** 	/* on IO scheduler merge hash */
  50:/mnt/c/Users/31740/Desktop/newcore/include/linux/blk-mq.h **** 	__RQF_HASHED,
  51:/mnt/c/Users/31740/Desktop/newcore/include/linux/blk-mq.h **** 	/* track IO completion time */
  52:/mnt/c/Users/31740/Desktop/newcore/include/linux/blk-mq.h **** 	__RQF_STATS,
  53:/mnt/c/Users/31740/Desktop/newcore/include/linux/blk-mq.h **** 	/* Look at ->special_vec for the actual data payload instead of the
ARM GAS  /tmp/ccyCLDig.s 			page 138


  54:/mnt/c/Users/31740/Desktop/newcore/include/linux/blk-mq.h **** 	   bio chain. */
  55:/mnt/c/Users/31740/Desktop/newcore/include/linux/blk-mq.h **** 	__RQF_SPECIAL_PAYLOAD,
  56:/mnt/c/Users/31740/Desktop/newcore/include/linux/blk-mq.h **** 	/* request completion needs to be signaled to zone write plugging. */
  57:/mnt/c/Users/31740/Desktop/newcore/include/linux/blk-mq.h **** 	__RQF_ZONE_WRITE_PLUGGING,
  58:/mnt/c/Users/31740/Desktop/newcore/include/linux/blk-mq.h **** 	/* ->timeout has been called, don't expire again */
  59:/mnt/c/Users/31740/Desktop/newcore/include/linux/blk-mq.h **** 	__RQF_TIMED_OUT,
  60:/mnt/c/Users/31740/Desktop/newcore/include/linux/blk-mq.h **** 	__RQF_RESV,
  61:/mnt/c/Users/31740/Desktop/newcore/include/linux/blk-mq.h **** 	__RQF_BITS
  62:/mnt/c/Users/31740/Desktop/newcore/include/linux/blk-mq.h **** };
  63:/mnt/c/Users/31740/Desktop/newcore/include/linux/blk-mq.h **** 
  64:/mnt/c/Users/31740/Desktop/newcore/include/linux/blk-mq.h **** #define RQF_STARTED		((__force req_flags_t)(1 << __RQF_STARTED))
  65:/mnt/c/Users/31740/Desktop/newcore/include/linux/blk-mq.h **** #define RQF_FLUSH_SEQ		((__force req_flags_t)(1 << __RQF_FLUSH_SEQ))
  66:/mnt/c/Users/31740/Desktop/newcore/include/linux/blk-mq.h **** #define RQF_MIXED_MERGE		((__force req_flags_t)(1 << __RQF_MIXED_MERGE))
  67:/mnt/c/Users/31740/Desktop/newcore/include/linux/blk-mq.h **** #define RQF_DONTPREP		((__force req_flags_t)(1 << __RQF_DONTPREP))
  68:/mnt/c/Users/31740/Desktop/newcore/include/linux/blk-mq.h **** #define RQF_SCHED_TAGS		((__force req_flags_t)(1 << __RQF_SCHED_TAGS))
  69:/mnt/c/Users/31740/Desktop/newcore/include/linux/blk-mq.h **** #define RQF_USE_SCHED		((__force req_flags_t)(1 << __RQF_USE_SCHED))
  70:/mnt/c/Users/31740/Desktop/newcore/include/linux/blk-mq.h **** #define RQF_FAILED		((__force req_flags_t)(1 << __RQF_FAILED))
  71:/mnt/c/Users/31740/Desktop/newcore/include/linux/blk-mq.h **** #define RQF_QUIET		((__force req_flags_t)(1 << __RQF_QUIET))
  72:/mnt/c/Users/31740/Desktop/newcore/include/linux/blk-mq.h **** #define RQF_IO_STAT		((__force req_flags_t)(1 << __RQF_IO_STAT))
  73:/mnt/c/Users/31740/Desktop/newcore/include/linux/blk-mq.h **** #define RQF_PM			((__force req_flags_t)(1 << __RQF_PM))
  74:/mnt/c/Users/31740/Desktop/newcore/include/linux/blk-mq.h **** #define RQF_HASHED		((__force req_flags_t)(1 << __RQF_HASHED))
  75:/mnt/c/Users/31740/Desktop/newcore/include/linux/blk-mq.h **** #define RQF_STATS		((__force req_flags_t)(1 << __RQF_STATS))
  76:/mnt/c/Users/31740/Desktop/newcore/include/linux/blk-mq.h **** #define RQF_SPECIAL_PAYLOAD	\
  77:/mnt/c/Users/31740/Desktop/newcore/include/linux/blk-mq.h **** 			((__force req_flags_t)(1 << __RQF_SPECIAL_PAYLOAD))
  78:/mnt/c/Users/31740/Desktop/newcore/include/linux/blk-mq.h **** #define RQF_ZONE_WRITE_PLUGGING	\
  79:/mnt/c/Users/31740/Desktop/newcore/include/linux/blk-mq.h **** 			((__force req_flags_t)(1 << __RQF_ZONE_WRITE_PLUGGING))
  80:/mnt/c/Users/31740/Desktop/newcore/include/linux/blk-mq.h **** #define RQF_TIMED_OUT		((__force req_flags_t)(1 << __RQF_TIMED_OUT))
  81:/mnt/c/Users/31740/Desktop/newcore/include/linux/blk-mq.h **** #define RQF_RESV		((__force req_flags_t)(1 << __RQF_RESV))
  82:/mnt/c/Users/31740/Desktop/newcore/include/linux/blk-mq.h **** 
  83:/mnt/c/Users/31740/Desktop/newcore/include/linux/blk-mq.h **** /* flags that prevent us from merging requests: */
  84:/mnt/c/Users/31740/Desktop/newcore/include/linux/blk-mq.h **** #define RQF_NOMERGE_FLAGS \
  85:/mnt/c/Users/31740/Desktop/newcore/include/linux/blk-mq.h **** 	(RQF_STARTED | RQF_FLUSH_SEQ | RQF_SPECIAL_PAYLOAD)
  86:/mnt/c/Users/31740/Desktop/newcore/include/linux/blk-mq.h **** 
  87:/mnt/c/Users/31740/Desktop/newcore/include/linux/blk-mq.h **** enum mq_rq_state {
  88:/mnt/c/Users/31740/Desktop/newcore/include/linux/blk-mq.h **** 	MQ_RQ_IDLE		= 0,
  89:/mnt/c/Users/31740/Desktop/newcore/include/linux/blk-mq.h **** 	MQ_RQ_IN_FLIGHT		= 1,
  90:/mnt/c/Users/31740/Desktop/newcore/include/linux/blk-mq.h **** 	MQ_RQ_COMPLETE		= 2,
  91:/mnt/c/Users/31740/Desktop/newcore/include/linux/blk-mq.h **** };
  92:/mnt/c/Users/31740/Desktop/newcore/include/linux/blk-mq.h **** 
  93:/mnt/c/Users/31740/Desktop/newcore/include/linux/blk-mq.h **** /*
  94:/mnt/c/Users/31740/Desktop/newcore/include/linux/blk-mq.h ****  * Try to put the fields that are referenced together in the same cacheline.
  95:/mnt/c/Users/31740/Desktop/newcore/include/linux/blk-mq.h ****  *
  96:/mnt/c/Users/31740/Desktop/newcore/include/linux/blk-mq.h ****  * If you modify this structure, make sure to update blk_rq_init() and
  97:/mnt/c/Users/31740/Desktop/newcore/include/linux/blk-mq.h ****  * especially blk_mq_rq_ctx_init() to take care of the added fields.
  98:/mnt/c/Users/31740/Desktop/newcore/include/linux/blk-mq.h ****  */
  99:/mnt/c/Users/31740/Desktop/newcore/include/linux/blk-mq.h **** 
 100:/mnt/c/Users/31740/Desktop/newcore/include/linux/blk-mq.h **** 
 101:/mnt/c/Users/31740/Desktop/newcore/include/linux/blk-mq.h **** // struct request {
 102:/mnt/c/Users/31740/Desktop/newcore/include/linux/blk-mq.h **** // 	struct request_queue *q;          //
 103:/mnt/c/Users/31740/Desktop/newcore/include/linux/blk-mq.h **** // 	//struct blk_mq_ctx *mq_ctx;		  //
 104:/mnt/c/Users/31740/Desktop/newcore/include/linux/blk-mq.h **** // 	//struct blk_mq_hw_ctx *mq_hctx;      //
 105:/mnt/c/Users/31740/Desktop/newcore/include/linux/blk-mq.h **** 
 106:/mnt/c/Users/31740/Desktop/newcore/include/linux/blk-mq.h **** // 	blk_opf_t cmd_flags;		/* op and common flags */
 107:/mnt/c/Users/31740/Desktop/newcore/include/linux/blk-mq.h **** // 	req_flags_t rq_flags;         //
 108:/mnt/c/Users/31740/Desktop/newcore/include/linux/blk-mq.h **** 
 109:/mnt/c/Users/31740/Desktop/newcore/include/linux/blk-mq.h **** // 	int tag;                     //
 110:/mnt/c/Users/31740/Desktop/newcore/include/linux/blk-mq.h **** // 	int internal_tag;            //
ARM GAS  /tmp/ccyCLDig.s 			page 139


 111:/mnt/c/Users/31740/Desktop/newcore/include/linux/blk-mq.h **** 
 112:/mnt/c/Users/31740/Desktop/newcore/include/linux/blk-mq.h **** // 	unsigned int timeout;        //
 113:/mnt/c/Users/31740/Desktop/newcore/include/linux/blk-mq.h **** 
 114:/mnt/c/Users/31740/Desktop/newcore/include/linux/blk-mq.h **** // 	/* the following two fields are internal, NEVER access directly */
 115:/mnt/c/Users/31740/Desktop/newcore/include/linux/blk-mq.h **** // 	unsigned int __data_len;	//
 116:/mnt/c/Users/31740/Desktop/newcore/include/linux/blk-mq.h **** // 	sector_t __sector;		   ///* sector cursor */
 117:/mnt/c/Users/31740/Desktop/newcore/include/linux/blk-mq.h **** 
 118:/mnt/c/Users/31740/Desktop/newcore/include/linux/blk-mq.h **** // 	struct bio *bio;           // bio bio  I/O 
 119:/mnt/c/Users/31740/Desktop/newcore/include/linux/blk-mq.h **** // 	struct bio *biotail;
 120:/mnt/c/Users/31740/Desktop/newcore/include/linux/blk-mq.h **** 
 121:/mnt/c/Users/31740/Desktop/newcore/include/linux/blk-mq.h **** // 	union {                              //
 122:/mnt/c/Users/31740/Desktop/newcore/include/linux/blk-mq.h **** // 		struct list_head queuelist;
 123:/mnt/c/Users/31740/Desktop/newcore/include/linux/blk-mq.h **** // 		struct request *rq_next;
 124:/mnt/c/Users/31740/Desktop/newcore/include/linux/blk-mq.h **** // 	};
 125:/mnt/c/Users/31740/Desktop/newcore/include/linux/blk-mq.h **** 
 126:/mnt/c/Users/31740/Desktop/newcore/include/linux/blk-mq.h **** // 	struct block_device *part;           //
 127:/mnt/c/Users/31740/Desktop/newcore/include/linux/blk-mq.h **** // #ifdef CONFIG_BLK_RQ_ALLOC_TIME
 128:/mnt/c/Users/31740/Desktop/newcore/include/linux/blk-mq.h **** // 	/* Time that the first bio started allocating this request. */
 129:/mnt/c/Users/31740/Desktop/newcore/include/linux/blk-mq.h **** // 	u64 alloc_time_ns;      //
 130:/mnt/c/Users/31740/Desktop/newcore/include/linux/blk-mq.h **** // #endif
 131:/mnt/c/Users/31740/Desktop/newcore/include/linux/blk-mq.h **** // 	/* Time that this request was allocated for this IO. */
 132:/mnt/c/Users/31740/Desktop/newcore/include/linux/blk-mq.h **** // 	u64 start_time_ns;        //
 133:/mnt/c/Users/31740/Desktop/newcore/include/linux/blk-mq.h **** // 	/* Time that I/O was submitted to the device. */
 134:/mnt/c/Users/31740/Desktop/newcore/include/linux/blk-mq.h **** // 	u64 io_start_time_ns;     //I/O 
 135:/mnt/c/Users/31740/Desktop/newcore/include/linux/blk-mq.h **** 
 136:/mnt/c/Users/31740/Desktop/newcore/include/linux/blk-mq.h **** // #ifdef CONFIG_BLK_WBT
 137:/mnt/c/Users/31740/Desktop/newcore/include/linux/blk-mq.h **** // 	unsigned short wbt_flags;  //
 138:/mnt/c/Users/31740/Desktop/newcore/include/linux/blk-mq.h **** // #endif
 139:/mnt/c/Users/31740/Desktop/newcore/include/linux/blk-mq.h **** // 	/*
 140:/mnt/c/Users/31740/Desktop/newcore/include/linux/blk-mq.h **** // 	 * rq sectors used for blk stats. It has the same value
 141:/mnt/c/Users/31740/Desktop/newcore/include/linux/blk-mq.h **** // 	 * with blk_rq_sectors(rq), except that it never be zeroed
 142:/mnt/c/Users/31740/Desktop/newcore/include/linux/blk-mq.h **** // 	 * by completion.
 143:/mnt/c/Users/31740/Desktop/newcore/include/linux/blk-mq.h **** // 	 */
 144:/mnt/c/Users/31740/Desktop/newcore/include/linux/blk-mq.h **** // 	unsigned short stats_sectors;  //
 145:/mnt/c/Users/31740/Desktop/newcore/include/linux/blk-mq.h **** 
 146:/mnt/c/Users/31740/Desktop/newcore/include/linux/blk-mq.h **** // 	/*
 147:/mnt/c/Users/31740/Desktop/newcore/include/linux/blk-mq.h **** // 	 * Number of scatter-gather DMA addr+len pairs after
 148:/mnt/c/Users/31740/Desktop/newcore/include/linux/blk-mq.h **** // 	 * physical address coalescing is performed.
 149:/mnt/c/Users/31740/Desktop/newcore/include/linux/blk-mq.h **** // 	 */
 150:/mnt/c/Users/31740/Desktop/newcore/include/linux/blk-mq.h **** // 	//unsigned short nr_phys_segments;   //-
 151:/mnt/c/Users/31740/Desktop/newcore/include/linux/blk-mq.h **** // 	//unsigned short nr_integrity_segments; //
 152:/mnt/c/Users/31740/Desktop/newcore/include/linux/blk-mq.h **** 
 153:/mnt/c/Users/31740/Desktop/newcore/include/linux/blk-mq.h **** // #ifdef CONFIG_BLK_INLINE_ENCRYPTION         //
 154:/mnt/c/Users/31740/Desktop/newcore/include/linux/blk-mq.h **** // 	struct bio_crypt_ctx *crypt_ctx;
 155:/mnt/c/Users/31740/Desktop/newcore/include/linux/blk-mq.h **** // 	struct blk_crypto_keyslot *crypt_keyslot;
 156:/mnt/c/Users/31740/Desktop/newcore/include/linux/blk-mq.h **** // #endif
 157:/mnt/c/Users/31740/Desktop/newcore/include/linux/blk-mq.h **** 
 158:/mnt/c/Users/31740/Desktop/newcore/include/linux/blk-mq.h **** // 	enum mq_rq_state state;              //
 159:/mnt/c/Users/31740/Desktop/newcore/include/linux/blk-mq.h **** // 	atomic_t ref;                         //
 160:/mnt/c/Users/31740/Desktop/newcore/include/linux/blk-mq.h **** 
 161:/mnt/c/Users/31740/Desktop/newcore/include/linux/blk-mq.h **** // 	unsigned long deadline;				//
 162:/mnt/c/Users/31740/Desktop/newcore/include/linux/blk-mq.h **** 
 163:/mnt/c/Users/31740/Desktop/newcore/include/linux/blk-mq.h **** // 	/*
 164:/mnt/c/Users/31740/Desktop/newcore/include/linux/blk-mq.h **** // 	 * The hash is used inside the scheduler, and killed once the
 165:/mnt/c/Users/31740/Desktop/newcore/include/linux/blk-mq.h **** // 	 * request reaches the dispatch list. The ipi_list is only used
 166:/mnt/c/Users/31740/Desktop/newcore/include/linux/blk-mq.h **** // 	 * to queue the request for softirq completion, which is long
 167:/mnt/c/Users/31740/Desktop/newcore/include/linux/blk-mq.h **** // 	 * after the request has been unhashed (and even removed from
ARM GAS  /tmp/ccyCLDig.s 			page 140


 168:/mnt/c/Users/31740/Desktop/newcore/include/linux/blk-mq.h **** // 	 * the dispatch list).
 169:/mnt/c/Users/31740/Desktop/newcore/include/linux/blk-mq.h **** // 	 */
 170:/mnt/c/Users/31740/Desktop/newcore/include/linux/blk-mq.h **** // 	// union {                           //
 171:/mnt/c/Users/31740/Desktop/newcore/include/linux/blk-mq.h **** // 	// 	struct hlist_node hash;	/* merge hash */
 172:/mnt/c/Users/31740/Desktop/newcore/include/linux/blk-mq.h **** // 	// 	struct llist_node ipi_list;
 173:/mnt/c/Users/31740/Desktop/newcore/include/linux/blk-mq.h **** // 	// };
 174:/mnt/c/Users/31740/Desktop/newcore/include/linux/blk-mq.h **** 
 175:/mnt/c/Users/31740/Desktop/newcore/include/linux/blk-mq.h **** // 	/*
 176:/mnt/c/Users/31740/Desktop/newcore/include/linux/blk-mq.h **** // 	 * The rb_node is only used inside the io scheduler, requests
 177:/mnt/c/Users/31740/Desktop/newcore/include/linux/blk-mq.h **** // 	 * are pruned when moved to the dispatch queue. special_vec must
 178:/mnt/c/Users/31740/Desktop/newcore/include/linux/blk-mq.h **** // 	 * only be used if RQF_SPECIAL_PAYLOAD is set, and those cannot be
 179:/mnt/c/Users/31740/Desktop/newcore/include/linux/blk-mq.h **** // 	 * insert into an IO scheduler.
 180:/mnt/c/Users/31740/Desktop/newcore/include/linux/blk-mq.h **** // 	 */
 181:/mnt/c/Users/31740/Desktop/newcore/include/linux/blk-mq.h **** // 	// union {                               //
 182:/mnt/c/Users/31740/Desktop/newcore/include/linux/blk-mq.h **** // 	// 	struct rb_node rb_node;	/* sort/lookup */
 183:/mnt/c/Users/31740/Desktop/newcore/include/linux/blk-mq.h **** // 	// 	struct bio_vec special_vec;
 184:/mnt/c/Users/31740/Desktop/newcore/include/linux/blk-mq.h **** // 	// };
 185:/mnt/c/Users/31740/Desktop/newcore/include/linux/blk-mq.h **** 
 186:/mnt/c/Users/31740/Desktop/newcore/include/linux/blk-mq.h **** // 	/*
 187:/mnt/c/Users/31740/Desktop/newcore/include/linux/blk-mq.h **** // 	 * Three pointers are available for the IO schedulers, if they need
 188:/mnt/c/Users/31740/Desktop/newcore/include/linux/blk-mq.h **** // 	 * more they have to dynamically allocate it.
 189:/mnt/c/Users/31740/Desktop/newcore/include/linux/blk-mq.h **** // 	 */
 190:/mnt/c/Users/31740/Desktop/newcore/include/linux/blk-mq.h **** // 	// struct {                                //elevator
 191:/mnt/c/Users/31740/Desktop/newcore/include/linux/blk-mq.h **** // 	// 	struct io_cq		*icq;
 192:/mnt/c/Users/31740/Desktop/newcore/include/linux/blk-mq.h **** // 	// 	void			*priv[2];
 193:/mnt/c/Users/31740/Desktop/newcore/include/linux/blk-mq.h **** // 	// } elv;
 194:/mnt/c/Users/31740/Desktop/newcore/include/linux/blk-mq.h **** 
 195:/mnt/c/Users/31740/Desktop/newcore/include/linux/blk-mq.h **** // 	struct {                              //
 196:/mnt/c/Users/31740/Desktop/newcore/include/linux/blk-mq.h **** // 		unsigned int		seq;
 197:/mnt/c/Users/31740/Desktop/newcore/include/linux/blk-mq.h **** // 		rq_end_io_fn		*saved_end_io;
 198:/mnt/c/Users/31740/Desktop/newcore/include/linux/blk-mq.h **** // 	} flush;
 199:/mnt/c/Users/31740/Desktop/newcore/include/linux/blk-mq.h **** 
 200:/mnt/c/Users/31740/Desktop/newcore/include/linux/blk-mq.h **** // 	u64 fifo_time;                     // FIFO 
 201:/mnt/c/Users/31740/Desktop/newcore/include/linux/blk-mq.h **** 
 202:/mnt/c/Users/31740/Desktop/newcore/include/linux/blk-mq.h **** // 	/*
 203:/mnt/c/Users/31740/Desktop/newcore/include/linux/blk-mq.h **** // 	 * completion callback.
 204:/mnt/c/Users/31740/Desktop/newcore/include/linux/blk-mq.h **** // 	 */
 205:/mnt/c/Users/31740/Desktop/newcore/include/linux/blk-mq.h **** // 	rq_end_io_fn *end_io;               //
 206:/mnt/c/Users/31740/Desktop/newcore/include/linux/blk-mq.h **** // 	void *end_io_data;                  //
 207:/mnt/c/Users/31740/Desktop/newcore/include/linux/blk-mq.h **** // }; 
 208:/mnt/c/Users/31740/Desktop/newcore/include/linux/blk-mq.h **** 
 209:/mnt/c/Users/31740/Desktop/newcore/include/linux/blk-mq.h **** struct request {
 210:/mnt/c/Users/31740/Desktop/newcore/include/linux/blk-mq.h ****     struct request_queue *q;          // 
 211:/mnt/c/Users/31740/Desktop/newcore/include/linux/blk-mq.h ****     blk_opf_t cmd_flags;              // 
 212:/mnt/c/Users/31740/Desktop/newcore/include/linux/blk-mq.h ****     req_flags_t rq_flags;             // 
 213:/mnt/c/Users/31740/Desktop/newcore/include/linux/blk-mq.h ****     int tag;                          // 
 214:/mnt/c/Users/31740/Desktop/newcore/include/linux/blk-mq.h ****     int internal_tag;                 // 
 215:/mnt/c/Users/31740/Desktop/newcore/include/linux/blk-mq.h ****     unsigned int timeout;             // 
 216:/mnt/c/Users/31740/Desktop/newcore/include/linux/blk-mq.h ****     unsigned int __data_len;          // 
 217:/mnt/c/Users/31740/Desktop/newcore/include/linux/blk-mq.h **** 
 218:/mnt/c/Users/31740/Desktop/newcore/include/linux/blk-mq.h ****     sector_t __sector;                // 
 219:/mnt/c/Users/31740/Desktop/newcore/include/linux/blk-mq.h ****     
 220:/mnt/c/Users/31740/Desktop/newcore/include/linux/blk-mq.h **** 	struct bio *bio;                  // bio 
 221:/mnt/c/Users/31740/Desktop/newcore/include/linux/blk-mq.h ****     struct bio *biotail;              // bio 
 222:/mnt/c/Users/31740/Desktop/newcore/include/linux/blk-mq.h ****     union {                           // 
 223:/mnt/c/Users/31740/Desktop/newcore/include/linux/blk-mq.h ****         struct list_head queuelist;
 224:/mnt/c/Users/31740/Desktop/newcore/include/linux/blk-mq.h ****         struct request *rq_next;
ARM GAS  /tmp/ccyCLDig.s 			page 141


 225:/mnt/c/Users/31740/Desktop/newcore/include/linux/blk-mq.h ****     };
 226:/mnt/c/Users/31740/Desktop/newcore/include/linux/blk-mq.h ****     struct block_device *part;        // 
 227:/mnt/c/Users/31740/Desktop/newcore/include/linux/blk-mq.h ****     u64 start_time_ns;                // 
 228:/mnt/c/Users/31740/Desktop/newcore/include/linux/blk-mq.h ****     u64 io_start_time_ns;             // I/O 
 229:/mnt/c/Users/31740/Desktop/newcore/include/linux/blk-mq.h ****     unsigned short stats_sectors;     // 
 230:/mnt/c/Users/31740/Desktop/newcore/include/linux/blk-mq.h ****     enum mq_rq_state state;           // 
 231:/mnt/c/Users/31740/Desktop/newcore/include/linux/blk-mq.h ****     atomic_t ref;                     // 
 232:/mnt/c/Users/31740/Desktop/newcore/include/linux/blk-mq.h ****     unsigned long deadline;           // 
 233:/mnt/c/Users/31740/Desktop/newcore/include/linux/blk-mq.h ****     struct {                          // 
 234:/mnt/c/Users/31740/Desktop/newcore/include/linux/blk-mq.h ****         unsigned int seq;
 235:/mnt/c/Users/31740/Desktop/newcore/include/linux/blk-mq.h ****         rq_end_io_fn *saved_end_io;
 236:/mnt/c/Users/31740/Desktop/newcore/include/linux/blk-mq.h ****     } flush;
 237:/mnt/c/Users/31740/Desktop/newcore/include/linux/blk-mq.h ****     u64 fifo_time;                    //  FIFO 
 238:/mnt/c/Users/31740/Desktop/newcore/include/linux/blk-mq.h ****     rq_end_io_fn *end_io;             // 
 239:/mnt/c/Users/31740/Desktop/newcore/include/linux/blk-mq.h ****     void *end_io_data;                // 
 240:/mnt/c/Users/31740/Desktop/newcore/include/linux/blk-mq.h **** };
 241:/mnt/c/Users/31740/Desktop/newcore/include/linux/blk-mq.h **** 
 242:/mnt/c/Users/31740/Desktop/newcore/include/linux/blk-mq.h **** extern struct request *request_alloc(struct request_queue *q, blk_opf_t opf, gfp_t gfp_mask);
 243:/mnt/c/Users/31740/Desktop/newcore/include/linux/blk-mq.h **** 
 244:/mnt/c/Users/31740/Desktop/newcore/include/linux/blk-mq.h **** 
 245:/mnt/c/Users/31740/Desktop/newcore/include/linux/blk-mq.h **** static inline enum req_op req_op(const struct request *req)
 246:/mnt/c/Users/31740/Desktop/newcore/include/linux/blk-mq.h **** {
 247:/mnt/c/Users/31740/Desktop/newcore/include/linux/blk-mq.h **** 	return req->cmd_flags & REQ_OP_MASK;
 248:/mnt/c/Users/31740/Desktop/newcore/include/linux/blk-mq.h **** }
 249:/mnt/c/Users/31740/Desktop/newcore/include/linux/blk-mq.h **** 
 250:/mnt/c/Users/31740/Desktop/newcore/include/linux/blk-mq.h **** 
 251:/mnt/c/Users/31740/Desktop/newcore/include/linux/blk-mq.h **** static inline unsigned short req_get_ioprio(struct request *req)
 252:/mnt/c/Users/31740/Desktop/newcore/include/linux/blk-mq.h **** {
 253:/mnt/c/Users/31740/Desktop/newcore/include/linux/blk-mq.h **** 	if (req->bio)
 254:/mnt/c/Users/31740/Desktop/newcore/include/linux/blk-mq.h **** 		return req->bio->bi_ioprio;
 255:/mnt/c/Users/31740/Desktop/newcore/include/linux/blk-mq.h **** 	return 0;
 256:/mnt/c/Users/31740/Desktop/newcore/include/linux/blk-mq.h **** }
 257:/mnt/c/Users/31740/Desktop/newcore/include/linux/blk-mq.h **** 
 258:/mnt/c/Users/31740/Desktop/newcore/include/linux/blk-mq.h **** #define rq_data_dir(rq)		(op_is_write(req_op(rq)) ? WRITE : READ)
 259:/mnt/c/Users/31740/Desktop/newcore/include/linux/blk-mq.h **** 
 260:/mnt/c/Users/31740/Desktop/newcore/include/linux/blk-mq.h **** 
 261:/mnt/c/Users/31740/Desktop/newcore/include/linux/blk-mq.h **** 
 262:/mnt/c/Users/31740/Desktop/newcore/include/linux/blk-mq.h **** 
 263:/mnt/c/Users/31740/Desktop/newcore/include/linux/blk-mq.h **** static inline sector_t blk_rq_pos(const struct request *rq)
 1683              		.loc 11 263 24 view .LVU425
 1684              	.LBB129:
 264:/mnt/c/Users/31740/Desktop/newcore/include/linux/blk-mq.h **** {
 265:/mnt/c/Users/31740/Desktop/newcore/include/linux/blk-mq.h **** 	return rq->__sector;
 1685              		.loc 11 265 2 view .LVU426
 1686              		.loc 11 265 11 is_stmt 0 view .LVU427
 1687 000c C369     		ldr	r3, [r0, #28]
 1688 000e 0193     		str	r3, [sp, #4]
 1689              	.LVL143:
 1690              		.loc 11 265 11 view .LVU428
 1691              	.LBE129:
 1692              	.LBE128:
  44:/mnt/c/Users/31740/Desktop/newcore/drivers/storage/w25qxx/w25qxx.c ****     rq_for_each_bio(bio2,req){
 1693              		.loc 1 44 5 is_stmt 1 view .LVU429
 1694 0010 D0F820A0 		ldr	r10, [r0, #32]
 1695              	.LVL144:
  42:/mnt/c/Users/31740/Desktop/newcore/drivers/storage/w25qxx/w25qxx.c ****     unsigned long start = blk_rq_pos(req);
 1696              		.loc 1 42 9 is_stmt 0 view .LVU430
ARM GAS  /tmp/ccyCLDig.s 			page 142


 1697 0014 0027     		movs	r7, #0
 1698 0016 D346     		mov	fp, r10
 1699 0018 8246     		mov	r10, r0
 1700              	.LVL145:
 1701              		.loc 1 44 5 view .LVU431
 1702 001a 99E0     		b	.L93
 1703              	.LVL146:
 1704              	.L108:
 1705              	.LBB130:
 1706              	.LBB131:
  45:/mnt/c/Users/31740/Desktop/newcore/drivers/storage/w25qxx/w25qxx.c ****         bio_for_each_segment(bvec,bio2,iter){
  46:/mnt/c/Users/31740/Desktop/newcore/drivers/storage/w25qxx/w25qxx.c ****             int data_length = bvec->bv_len;
  47:/mnt/c/Users/31740/Desktop/newcore/drivers/storage/w25qxx/w25qxx.c ****             char *buffer = kmap(bvec->bv_page) + bvec->bv_offset;   
  48:/mnt/c/Users/31740/Desktop/newcore/drivers/storage/w25qxx/w25qxx.c ****             if(rq_data_dir(req) == READ)
  49:/mnt/c/Users/31740/Desktop/newcore/drivers/storage/w25qxx/w25qxx.c ****             {
  50:/mnt/c/Users/31740/Desktop/newcore/drivers/storage/w25qxx/w25qxx.c ****                 pr_info("w25qxx: read page:%d (%d b)\n",start,data_length);
 1707              		.loc 1 50 17 is_stmt 1 view .LVU432
 1708 001c 4346     		mov	r3, r8
 1709 001e 019F     		ldr	r7, [sp, #4]
 1710              	.LVL147:
 1711              		.loc 1 50 17 is_stmt 0 view .LVU433
 1712 0020 3A46     		mov	r2, r7
 1713 0022 5749     		ldr	r1, .L112
 1714 0024 0620     		movs	r0, #6
 1715 0026 FFF7FEFF 		bl	printk
 1716              	.LVL148:
  51:/mnt/c/Users/31740/Desktop/newcore/drivers/storage/w25qxx/w25qxx.c ****                 ret = W25Qxx_device_read_page(w25qxx1_dev,buffer,data_length,start);  
 1717              		.loc 1 51 17 is_stmt 1 view .LVU434
 1718              		.loc 1 51 23 is_stmt 0 view .LVU435
 1719 002a 3B46     		mov	r3, r7
 1720 002c 4246     		mov	r2, r8
 1721 002e 3146     		mov	r1, r6
 1722 0030 5448     		ldr	r0, .L112+4
 1723 0032 0068     		ldr	r0, [r0]
 1724 0034 FFF7FEFF 		bl	W25Qxx_device_read_page
 1725              	.LVL149:
 1726 0038 0746     		mov	r7, r0
 1727              	.LVL150:
 1728              	.L96:
  52:/mnt/c/Users/31740/Desktop/newcore/drivers/storage/w25qxx/w25qxx.c ****             }
  53:/mnt/c/Users/31740/Desktop/newcore/drivers/storage/w25qxx/w25qxx.c ****             else if(rq_data_dir(req) == WRITE){
  54:/mnt/c/Users/31740/Desktop/newcore/drivers/storage/w25qxx/w25qxx.c ****                 int page_4k = start/8;
  55:/mnt/c/Users/31740/Desktop/newcore/drivers/storage/w25qxx/w25qxx.c ****                 int page_4k_offset = start%8;
  56:/mnt/c/Users/31740/Desktop/newcore/drivers/storage/w25qxx/w25qxx.c ****                 pr_info("w25qxx: write page:%d (%d b)\n",start,data_length);
  57:/mnt/c/Users/31740/Desktop/newcore/drivers/storage/w25qxx/w25qxx.c ****                 if(page_4k_offset == 0 && data_length == 4096) //4k
  58:/mnt/c/Users/31740/Desktop/newcore/drivers/storage/w25qxx/w25qxx.c ****                 {
  59:/mnt/c/Users/31740/Desktop/newcore/drivers/storage/w25qxx/w25qxx.c ****                     ret = W25Qxx_device_write_page(w25qxx1_dev,buffer,data_length,page_4k);     
  60:/mnt/c/Users/31740/Desktop/newcore/drivers/storage/w25qxx/w25qxx.c ****                 }
  61:/mnt/c/Users/31740/Desktop/newcore/drivers/storage/w25qxx/w25qxx.c ****                 else 
  62:/mnt/c/Users/31740/Desktop/newcore/drivers/storage/w25qxx/w25qxx.c ****                 {
  63:/mnt/c/Users/31740/Desktop/newcore/drivers/storage/w25qxx/w25qxx.c ****                     int lost_data = page_4k_offset*512 + data_length -4096;               //
  64:/mnt/c/Users/31740/Desktop/newcore/drivers/storage/w25qxx/w25qxx.c ****                     ret = W25Qxx_device_read_page(w25qxx1_dev,w25qxx_buffer,4096,page_4k);//
  65:/mnt/c/Users/31740/Desktop/newcore/drivers/storage/w25qxx/w25qxx.c ****                     if (ret < 0)  break;
  66:/mnt/c/Users/31740/Desktop/newcore/drivers/storage/w25qxx/w25qxx.c ****                     uint32_t cpoy_length = 4096 - page_4k_offset*512;                    //
  67:/mnt/c/Users/31740/Desktop/newcore/drivers/storage/w25qxx/w25qxx.c ****                     if(cpoy_length > data_length)
  68:/mnt/c/Users/31740/Desktop/newcore/drivers/storage/w25qxx/w25qxx.c ****                     cpoy_length = data_length;                                           //
  69:/mnt/c/Users/31740/Desktop/newcore/drivers/storage/w25qxx/w25qxx.c ****                     memcpy(w25qxx_buffer+page_4k_offset*512,buffer,cpoy_length);         //
ARM GAS  /tmp/ccyCLDig.s 			page 143


  70:/mnt/c/Users/31740/Desktop/newcore/drivers/storage/w25qxx/w25qxx.c ****                     ret = W25Qxx_device_write_page(w25qxx1_dev,w25qxx_buffer,4096,page_4k);  //
  71:/mnt/c/Users/31740/Desktop/newcore/drivers/storage/w25qxx/w25qxx.c ****                     if (ret < 0)  break;
  72:/mnt/c/Users/31740/Desktop/newcore/drivers/storage/w25qxx/w25qxx.c ****                     if(lost_data > 0){                                                  //
  73:/mnt/c/Users/31740/Desktop/newcore/drivers/storage/w25qxx/w25qxx.c ****                         ret = W25Qxx_device_read_page(w25qxx1_dev,w25qxx_buffer,4096,page_4k+1); 
  74:/mnt/c/Users/31740/Desktop/newcore/drivers/storage/w25qxx/w25qxx.c ****                         if (ret < 0)  break;
  75:/mnt/c/Users/31740/Desktop/newcore/drivers/storage/w25qxx/w25qxx.c ****                         cpoy_length = data_length - cpoy_length;                        //
  76:/mnt/c/Users/31740/Desktop/newcore/drivers/storage/w25qxx/w25qxx.c ****                         memcpy(w25qxx_buffer, buffer+(data_length-cpoy_length),cpoy_length);//
  77:/mnt/c/Users/31740/Desktop/newcore/drivers/storage/w25qxx/w25qxx.c ****                         ret = W25Qxx_device_write_page(w25qxx1_dev,w25qxx_buffer,4096,page_4k+1);//
  78:/mnt/c/Users/31740/Desktop/newcore/drivers/storage/w25qxx/w25qxx.c ****                     }
  79:/mnt/c/Users/31740/Desktop/newcore/drivers/storage/w25qxx/w25qxx.c ****                 }
  80:/mnt/c/Users/31740/Desktop/newcore/drivers/storage/w25qxx/w25qxx.c ****             }
  81:/mnt/c/Users/31740/Desktop/newcore/drivers/storage/w25qxx/w25qxx.c ****             put_page(bvec->bv_page);
 1729              		.loc 1 81 13 is_stmt 1 view .LVU436
 1730 003a 2068     		ldr	r0, [r4]
 1731 003c FFF7FEFF 		bl	__put_page
 1732              	.LVL151:
 1733              	.LBE131:
  45:/mnt/c/Users/31740/Desktop/newcore/drivers/storage/w25qxx/w25qxx.c ****             int data_length = bvec->bv_len;
 1734              		.loc 1 45 9 discriminator 2 view .LVU437
 1735 0040 0135     		adds	r5, r5, #1
 1736              	.LVL152:
  45:/mnt/c/Users/31740/Desktop/newcore/drivers/storage/w25qxx/w25qxx.c ****             int data_length = bvec->bv_len;
 1737              		.loc 1 45 9 is_stmt 0 discriminator 2 view .LVU438
 1738 0042 DBF83C40 		ldr	r4, [fp, #60]
 1739              	.LVL153:
  45:/mnt/c/Users/31740/Desktop/newcore/drivers/storage/w25qxx/w25qxx.c ****             int data_length = bvec->bv_len;
 1740              		.loc 1 45 9 discriminator 2 view .LVU439
 1741 0046 05EB4503 		add	r3, r5, r5, lsl #1
 1742 004a 04EB8304 		add	r4, r4, r3, lsl #2
 1743              	.LVL154:
 1744              	.L94:
  45:/mnt/c/Users/31740/Desktop/newcore/drivers/storage/w25qxx/w25qxx.c ****             int data_length = bvec->bv_len;
 1745              		.loc 1 45 9 is_stmt 1 discriminator 1 view .LVU440
 1746 004e BBF83430 		ldrh	r3, [fp, #52]
 1747 0052 AB42     		cmp	r3, r5
 1748 0054 76DD     		ble	.L98
 1749              	.LBB138:
  46:/mnt/c/Users/31740/Desktop/newcore/drivers/storage/w25qxx/w25qxx.c ****             char *buffer = kmap(bvec->bv_page) + bvec->bv_offset;   
 1750              		.loc 1 46 13 view .LVU441
  46:/mnt/c/Users/31740/Desktop/newcore/drivers/storage/w25qxx/w25qxx.c ****             char *buffer = kmap(bvec->bv_page) + bvec->bv_offset;   
 1751              		.loc 1 46 35 is_stmt 0 view .LVU442
 1752 0056 D4F80480 		ldr	r8, [r4, #4]
 1753              	.LVL155:
  47:/mnt/c/Users/31740/Desktop/newcore/drivers/storage/w25qxx/w25qxx.c ****             if(rq_data_dir(req) == READ)
 1754              		.loc 1 47 13 is_stmt 1 view .LVU443
  47:/mnt/c/Users/31740/Desktop/newcore/drivers/storage/w25qxx/w25qxx.c ****             if(rq_data_dir(req) == READ)
 1755              		.loc 1 47 28 is_stmt 0 view .LVU444
 1756 005a 2068     		ldr	r0, [r4]
 1757 005c FFF7FEFF 		bl	__kmap
 1758              	.LVL156:
  47:/mnt/c/Users/31740/Desktop/newcore/drivers/storage/w25qxx/w25qxx.c ****             if(rq_data_dir(req) == READ)
 1759              		.loc 1 47 54 discriminator 1 view .LVU445
 1760 0060 A368     		ldr	r3, [r4, #8]
  47:/mnt/c/Users/31740/Desktop/newcore/drivers/storage/w25qxx/w25qxx.c ****             if(rq_data_dir(req) == READ)
 1761              		.loc 1 47 19 discriminator 1 view .LVU446
 1762 0062 C618     		adds	r6, r0, r3
 1763              	.LVL157:
ARM GAS  /tmp/ccyCLDig.s 			page 144


  48:/mnt/c/Users/31740/Desktop/newcore/drivers/storage/w25qxx/w25qxx.c ****             {
 1764              		.loc 1 48 13 is_stmt 1 view .LVU447
 1765              	.LBB132:
 1766              	.LBI132:
 245:/mnt/c/Users/31740/Desktop/newcore/include/linux/blk-mq.h **** {
 1767              		.loc 11 245 27 view .LVU448
 1768              	.LBB133:
 247:/mnt/c/Users/31740/Desktop/newcore/include/linux/blk-mq.h **** }
 1769              		.loc 11 247 2 view .LVU449
 247:/mnt/c/Users/31740/Desktop/newcore/include/linux/blk-mq.h **** }
 1770              		.loc 11 247 12 is_stmt 0 view .LVU450
 1771 0064 DAF80430 		ldr	r3, [r10, #4]
 1772              	.LVL158:
 247:/mnt/c/Users/31740/Desktop/newcore/include/linux/blk-mq.h **** }
 1773              		.loc 11 247 12 view .LVU451
 1774              	.LBE133:
 1775              	.LBE132:
 1776              	.LBB134:
 1777              	.LBI134:
 1778              		.file 12 "/mnt/c/Users/31740/Desktop/newcore/include/linux/blk_types.h"
   1:/mnt/c/Users/31740/Desktop/newcore/include/linux/blk_types.h **** /* SPDX-License-Identifier: GPL-2.0 */
   2:/mnt/c/Users/31740/Desktop/newcore/include/linux/blk_types.h **** /*
   3:/mnt/c/Users/31740/Desktop/newcore/include/linux/blk_types.h ****  * Block data types and constants.  Directly include this file only to
   4:/mnt/c/Users/31740/Desktop/newcore/include/linux/blk_types.h ****  * break include dependency loop.
   5:/mnt/c/Users/31740/Desktop/newcore/include/linux/blk_types.h ****  */
   6:/mnt/c/Users/31740/Desktop/newcore/include/linux/blk_types.h **** #ifndef __LINUX_BLK_TYPES_H
   7:/mnt/c/Users/31740/Desktop/newcore/include/linux/blk_types.h **** #define __LINUX_BLK_TYPES_H
   8:/mnt/c/Users/31740/Desktop/newcore/include/linux/blk_types.h **** 
   9:/mnt/c/Users/31740/Desktop/newcore/include/linux/blk_types.h **** #include <linux/types.h>
  10:/mnt/c/Users/31740/Desktop/newcore/include/linux/blk_types.h **** #include <linux/compiler.h>
  11:/mnt/c/Users/31740/Desktop/newcore/include/linux/blk_types.h **** #include <linux/mutex.h>
  12:/mnt/c/Users/31740/Desktop/newcore/include/linux/blk_types.h **** #include <linux/fs.h>
  13:/mnt/c/Users/31740/Desktop/newcore/include/linux/blk_types.h **** #include <linux/xarray.h>
  14:/mnt/c/Users/31740/Desktop/newcore/include/linux/blk_types.h **** #include <linux/rw_hint.h>
  15:/mnt/c/Users/31740/Desktop/newcore/include/linux/blk_types.h **** #include <linux/bvec.h>
  16:/mnt/c/Users/31740/Desktop/newcore/include/linux/blk_types.h **** 
  17:/mnt/c/Users/31740/Desktop/newcore/include/linux/blk_types.h **** 
  18:/mnt/c/Users/31740/Desktop/newcore/include/linux/blk_types.h **** 
  19:/mnt/c/Users/31740/Desktop/newcore/include/linux/blk_types.h **** struct block_device;
  20:/mnt/c/Users/31740/Desktop/newcore/include/linux/blk_types.h **** struct gendisk;
  21:/mnt/c/Users/31740/Desktop/newcore/include/linux/blk_types.h **** typedef void (bio_end_io_t) (struct bio *);
  22:/mnt/c/Users/31740/Desktop/newcore/include/linux/blk_types.h **** 
  23:/mnt/c/Users/31740/Desktop/newcore/include/linux/blk_types.h **** 
  24:/mnt/c/Users/31740/Desktop/newcore/include/linux/blk_types.h **** #ifndef SECTOR_SHIFT
  25:/mnt/c/Users/31740/Desktop/newcore/include/linux/blk_types.h **** #define SECTOR_SHIFT 9
  26:/mnt/c/Users/31740/Desktop/newcore/include/linux/blk_types.h **** #endif
  27:/mnt/c/Users/31740/Desktop/newcore/include/linux/blk_types.h **** #ifndef SECTOR_SIZE
  28:/mnt/c/Users/31740/Desktop/newcore/include/linux/blk_types.h **** #define SECTOR_SIZE (1 << SECTOR_SHIFT)
  29:/mnt/c/Users/31740/Desktop/newcore/include/linux/blk_types.h **** #endif
  30:/mnt/c/Users/31740/Desktop/newcore/include/linux/blk_types.h **** 
  31:/mnt/c/Users/31740/Desktop/newcore/include/linux/blk_types.h **** #define PAGE_SECTORS_SHIFT	(PAGE_SHIFT - SECTOR_SHIFT)
  32:/mnt/c/Users/31740/Desktop/newcore/include/linux/blk_types.h **** #define PAGE_SECTORS		(1 << PAGE_SECTORS_SHIFT)
  33:/mnt/c/Users/31740/Desktop/newcore/include/linux/blk_types.h **** #define SECTOR_MASK		(PAGE_SECTORS - 1)
  34:/mnt/c/Users/31740/Desktop/newcore/include/linux/blk_types.h **** 
  35:/mnt/c/Users/31740/Desktop/newcore/include/linux/blk_types.h **** 
  36:/mnt/c/Users/31740/Desktop/newcore/include/linux/blk_types.h **** 
  37:/mnt/c/Users/31740/Desktop/newcore/include/linux/blk_types.h **** struct block_device {
ARM GAS  /tmp/ccyCLDig.s 			page 145


  38:/mnt/c/Users/31740/Desktop/newcore/include/linux/blk_types.h **** 	sector_t		bd_start_sect;			//
  39:/mnt/c/Users/31740/Desktop/newcore/include/linux/blk_types.h **** 	sector_t		bd_nr_sectors;	   	    //
  40:/mnt/c/Users/31740/Desktop/newcore/include/linux/blk_types.h **** 	struct gendisk *	bd_disk;		 	//
  41:/mnt/c/Users/31740/Desktop/newcore/include/linux/blk_types.h **** 	struct request_queue *	bd_queue;	    //io
  42:/mnt/c/Users/31740/Desktop/newcore/include/linux/blk_types.h **** //	struct disk_stats __percpu *bd_stats;   //
  43:/mnt/c/Users/31740/Desktop/newcore/include/linux/blk_types.h ****  	unsigned long		bd_stamp;			//
  44:/mnt/c/Users/31740/Desktop/newcore/include/linux/blk_types.h **** 	atomic_t		__bd_flags;	            // partition number + flags
  45:/mnt/c/Users/31740/Desktop/newcore/include/linux/blk_types.h **** 	dev_t			bd_dev;
  46:/mnt/c/Users/31740/Desktop/newcore/include/linux/blk_types.h **** 	struct address_space	*bd_mapping;	/* page cache */
  47:/mnt/c/Users/31740/Desktop/newcore/include/linux/blk_types.h **** 	atomic_t		bd_openers;
  48:/mnt/c/Users/31740/Desktop/newcore/include/linux/blk_types.h **** 	spinlock_t		bd_size_lock; 
  49:/mnt/c/Users/31740/Desktop/newcore/include/linux/blk_types.h **** 	void *			bd_claiming; //
  50:/mnt/c/Users/31740/Desktop/newcore/include/linux/blk_types.h **** 	void *			bd_holder;
  51:/mnt/c/Users/31740/Desktop/newcore/include/linux/blk_types.h **** //	const struct blk_holder_ops *bd_holder_ops;//
  52:/mnt/c/Users/31740/Desktop/newcore/include/linux/blk_types.h **** 	struct mutex		bd_holder_lock;
  53:/mnt/c/Users/31740/Desktop/newcore/include/linux/blk_types.h **** 	int			bd_holders;
  54:/mnt/c/Users/31740/Desktop/newcore/include/linux/blk_types.h **** //	struct kobject		*bd_holder_dir;
  55:/mnt/c/Users/31740/Desktop/newcore/include/linux/blk_types.h **** 	atomic_t		bd_fsfreeze_count; /* number of freeze requests */
  56:/mnt/c/Users/31740/Desktop/newcore/include/linux/blk_types.h **** 	struct mutex		bd_fsfreeze_mutex; /* serialize freeze/thaw */
  57:/mnt/c/Users/31740/Desktop/newcore/include/linux/blk_types.h **** 	struct partition_meta_info *bd_meta_info;  //
  58:/mnt/c/Users/31740/Desktop/newcore/include/linux/blk_types.h **** 	int			bd_writers;
  59:/mnt/c/Users/31740/Desktop/newcore/include/linux/blk_types.h **** #ifdef CONFIG_SECURITY
  60:/mnt/c/Users/31740/Desktop/newcore/include/linux/blk_types.h **** 	void			*bd_security;
  61:/mnt/c/Users/31740/Desktop/newcore/include/linux/blk_types.h **** #endif
  62:/mnt/c/Users/31740/Desktop/newcore/include/linux/blk_types.h **** //	struct device		bd_device;
  63:/mnt/c/Users/31740/Desktop/newcore/include/linux/blk_types.h **** 
  64:/mnt/c/Users/31740/Desktop/newcore/include/linux/blk_types.h **** } __randomize_layout;
  65:/mnt/c/Users/31740/Desktop/newcore/include/linux/blk_types.h **** 
  66:/mnt/c/Users/31740/Desktop/newcore/include/linux/blk_types.h **** static sector_t bdev_nr_sectors(struct block_device *bdev){
  67:/mnt/c/Users/31740/Desktop/newcore/include/linux/blk_types.h **** 	return bdev->bd_nr_sectors;
  68:/mnt/c/Users/31740/Desktop/newcore/include/linux/blk_types.h **** }
  69:/mnt/c/Users/31740/Desktop/newcore/include/linux/blk_types.h **** 
  70:/mnt/c/Users/31740/Desktop/newcore/include/linux/blk_types.h **** 
  71:/mnt/c/Users/31740/Desktop/newcore/include/linux/blk_types.h **** 
  72:/mnt/c/Users/31740/Desktop/newcore/include/linux/blk_types.h **** 
  73:/mnt/c/Users/31740/Desktop/newcore/include/linux/blk_types.h **** 
  74:/mnt/c/Users/31740/Desktop/newcore/include/linux/blk_types.h **** 
  75:/mnt/c/Users/31740/Desktop/newcore/include/linux/blk_types.h **** #define bdev_whole(_bdev) \
  76:/mnt/c/Users/31740/Desktop/newcore/include/linux/blk_types.h **** 	((_bdev)->bd_disk->part0)
  77:/mnt/c/Users/31740/Desktop/newcore/include/linux/blk_types.h **** 
  78:/mnt/c/Users/31740/Desktop/newcore/include/linux/blk_types.h **** #define dev_to_bdev(device) \
  79:/mnt/c/Users/31740/Desktop/newcore/include/linux/blk_types.h **** 	container_of((device), struct block_device, bd_device)
  80:/mnt/c/Users/31740/Desktop/newcore/include/linux/blk_types.h **** 
  81:/mnt/c/Users/31740/Desktop/newcore/include/linux/blk_types.h **** #define bdev_kobj(_bdev) \
  82:/mnt/c/Users/31740/Desktop/newcore/include/linux/blk_types.h **** 	(&((_bdev)->bd_device.kobj))
  83:/mnt/c/Users/31740/Desktop/newcore/include/linux/blk_types.h **** 
  84:/mnt/c/Users/31740/Desktop/newcore/include/linux/blk_types.h **** /*
  85:/mnt/c/Users/31740/Desktop/newcore/include/linux/blk_types.h ****  * Block error status values.  See block/blk-core:blk_errors for the details.
  86:/mnt/c/Users/31740/Desktop/newcore/include/linux/blk_types.h ****  */
  87:/mnt/c/Users/31740/Desktop/newcore/include/linux/blk_types.h **** typedef u8 __bitwise blk_status_t;
  88:/mnt/c/Users/31740/Desktop/newcore/include/linux/blk_types.h **** typedef u16 blk_short_t;
  89:/mnt/c/Users/31740/Desktop/newcore/include/linux/blk_types.h **** #define	BLK_STS_OK 0
  90:/mnt/c/Users/31740/Desktop/newcore/include/linux/blk_types.h **** #define BLK_STS_NOTSUPP		((__force blk_status_t)1)
  91:/mnt/c/Users/31740/Desktop/newcore/include/linux/blk_types.h **** #define BLK_STS_TIMEOUT		((__force blk_status_t)2)
  92:/mnt/c/Users/31740/Desktop/newcore/include/linux/blk_types.h **** #define BLK_STS_NOSPC		((__force blk_status_t)3)
  93:/mnt/c/Users/31740/Desktop/newcore/include/linux/blk_types.h **** #define BLK_STS_TRANSPORT	((__force blk_status_t)4)
  94:/mnt/c/Users/31740/Desktop/newcore/include/linux/blk_types.h **** #define BLK_STS_TARGET		((__force blk_status_t)5)
ARM GAS  /tmp/ccyCLDig.s 			page 146


  95:/mnt/c/Users/31740/Desktop/newcore/include/linux/blk_types.h **** #define BLK_STS_RESV_CONFLICT	((__force blk_status_t)6)
  96:/mnt/c/Users/31740/Desktop/newcore/include/linux/blk_types.h **** #define BLK_STS_MEDIUM		((__force blk_status_t)7)
  97:/mnt/c/Users/31740/Desktop/newcore/include/linux/blk_types.h **** #define BLK_STS_PROTECTION	((__force blk_status_t)8)
  98:/mnt/c/Users/31740/Desktop/newcore/include/linux/blk_types.h **** #define BLK_STS_RESOURCE	((__force blk_status_t)9)
  99:/mnt/c/Users/31740/Desktop/newcore/include/linux/blk_types.h **** #define BLK_STS_IOERR		((__force blk_status_t)10)
 100:/mnt/c/Users/31740/Desktop/newcore/include/linux/blk_types.h **** 
 101:/mnt/c/Users/31740/Desktop/newcore/include/linux/blk_types.h **** /* hack for device mapper, don't use elsewhere: */
 102:/mnt/c/Users/31740/Desktop/newcore/include/linux/blk_types.h **** #define BLK_STS_DM_REQUEUE    ((__force blk_status_t)11)
 103:/mnt/c/Users/31740/Desktop/newcore/include/linux/blk_types.h **** 
 104:/mnt/c/Users/31740/Desktop/newcore/include/linux/blk_types.h **** /*
 105:/mnt/c/Users/31740/Desktop/newcore/include/linux/blk_types.h ****  * BLK_STS_AGAIN should only be returned if RQF_NOWAIT is set
 106:/mnt/c/Users/31740/Desktop/newcore/include/linux/blk_types.h ****  * and the bio would block (cf bio_wouldblock_error())
 107:/mnt/c/Users/31740/Desktop/newcore/include/linux/blk_types.h ****  */
 108:/mnt/c/Users/31740/Desktop/newcore/include/linux/blk_types.h **** #define BLK_STS_AGAIN		((__force blk_status_t)12)
 109:/mnt/c/Users/31740/Desktop/newcore/include/linux/blk_types.h **** 
 110:/mnt/c/Users/31740/Desktop/newcore/include/linux/blk_types.h **** 
 111:/mnt/c/Users/31740/Desktop/newcore/include/linux/blk_types.h **** /*
 112:/mnt/c/Users/31740/Desktop/newcore/include/linux/blk_types.h ****  * BLK_STS_DEV_RESOURCE is returned from the driver to the block layer if
 113:/mnt/c/Users/31740/Desktop/newcore/include/linux/blk_types.h ****  * device related resources are unavailable, but the driver can guarantee
 114:/mnt/c/Users/31740/Desktop/newcore/include/linux/blk_types.h ****  * that the queue will be rerun in the future once resources become
 115:/mnt/c/Users/31740/Desktop/newcore/include/linux/blk_types.h ****  * available again. This is typically the case for device specific
 116:/mnt/c/Users/31740/Desktop/newcore/include/linux/blk_types.h ****  * resources that are consumed for IO. If the driver fails allocating these
 117:/mnt/c/Users/31740/Desktop/newcore/include/linux/blk_types.h ****  * resources, we know that inflight (or pending) IO will free these
 118:/mnt/c/Users/31740/Desktop/newcore/include/linux/blk_types.h ****  * resource upon completion.
 119:/mnt/c/Users/31740/Desktop/newcore/include/linux/blk_types.h ****  *
 120:/mnt/c/Users/31740/Desktop/newcore/include/linux/blk_types.h ****  * This is different from BLK_STS_RESOURCE in that it explicitly references
 121:/mnt/c/Users/31740/Desktop/newcore/include/linux/blk_types.h ****  * a device specific resource. For resources of wider scope, allocation
 122:/mnt/c/Users/31740/Desktop/newcore/include/linux/blk_types.h ****  * failure can happen without having pending IO. This means that we can't
 123:/mnt/c/Users/31740/Desktop/newcore/include/linux/blk_types.h ****  * rely on request completions freeing these resources, as IO may not be in
 124:/mnt/c/Users/31740/Desktop/newcore/include/linux/blk_types.h ****  * flight. Examples of that are kernel memory allocations, DMA mappings, or
 125:/mnt/c/Users/31740/Desktop/newcore/include/linux/blk_types.h ****  * any other system wide resources.
 126:/mnt/c/Users/31740/Desktop/newcore/include/linux/blk_types.h ****  */
 127:/mnt/c/Users/31740/Desktop/newcore/include/linux/blk_types.h **** #define BLK_STS_DEV_RESOURCE	((__force blk_status_t)13)
 128:/mnt/c/Users/31740/Desktop/newcore/include/linux/blk_types.h **** 
 129:/mnt/c/Users/31740/Desktop/newcore/include/linux/blk_types.h **** /*
 130:/mnt/c/Users/31740/Desktop/newcore/include/linux/blk_types.h ****  * BLK_STS_ZONE_OPEN_RESOURCE is returned from the driver in the completion
 131:/mnt/c/Users/31740/Desktop/newcore/include/linux/blk_types.h ****  * path if the device returns a status indicating that too many zone resources
 132:/mnt/c/Users/31740/Desktop/newcore/include/linux/blk_types.h ****  * are currently open. The same command should be successful if resubmitted
 133:/mnt/c/Users/31740/Desktop/newcore/include/linux/blk_types.h ****  * after the number of open zones decreases below the device's limits, which is
 134:/mnt/c/Users/31740/Desktop/newcore/include/linux/blk_types.h ****  * reported in the request_queue's max_open_zones.
 135:/mnt/c/Users/31740/Desktop/newcore/include/linux/blk_types.h ****  */
 136:/mnt/c/Users/31740/Desktop/newcore/include/linux/blk_types.h **** #define BLK_STS_ZONE_OPEN_RESOURCE	((__force blk_status_t)14)
 137:/mnt/c/Users/31740/Desktop/newcore/include/linux/blk_types.h **** 
 138:/mnt/c/Users/31740/Desktop/newcore/include/linux/blk_types.h **** /*
 139:/mnt/c/Users/31740/Desktop/newcore/include/linux/blk_types.h ****  * BLK_STS_ZONE_ACTIVE_RESOURCE is returned from the driver in the completion
 140:/mnt/c/Users/31740/Desktop/newcore/include/linux/blk_types.h ****  * path if the device returns a status indicating that too many zone resources
 141:/mnt/c/Users/31740/Desktop/newcore/include/linux/blk_types.h ****  * are currently active. The same command should be successful if resubmitted
 142:/mnt/c/Users/31740/Desktop/newcore/include/linux/blk_types.h ****  * after the number of active zones decreases below the device's limits, which
 143:/mnt/c/Users/31740/Desktop/newcore/include/linux/blk_types.h ****  * is reported in the request_queue's max_active_zones.
 144:/mnt/c/Users/31740/Desktop/newcore/include/linux/blk_types.h ****  */
 145:/mnt/c/Users/31740/Desktop/newcore/include/linux/blk_types.h **** #define BLK_STS_ZONE_ACTIVE_RESOURCE	((__force blk_status_t)15)
 146:/mnt/c/Users/31740/Desktop/newcore/include/linux/blk_types.h **** 
 147:/mnt/c/Users/31740/Desktop/newcore/include/linux/blk_types.h **** /*
 148:/mnt/c/Users/31740/Desktop/newcore/include/linux/blk_types.h ****  * BLK_STS_OFFLINE is returned from the driver when the target device is offline
 149:/mnt/c/Users/31740/Desktop/newcore/include/linux/blk_types.h ****  * or is being taken offline. This could help differentiate the case where a
 150:/mnt/c/Users/31740/Desktop/newcore/include/linux/blk_types.h ****  * device is intentionally being shut down from a real I/O error.
 151:/mnt/c/Users/31740/Desktop/newcore/include/linux/blk_types.h ****  */
ARM GAS  /tmp/ccyCLDig.s 			page 147


 152:/mnt/c/Users/31740/Desktop/newcore/include/linux/blk_types.h **** #define BLK_STS_OFFLINE		((__force blk_status_t)16)
 153:/mnt/c/Users/31740/Desktop/newcore/include/linux/blk_types.h **** 
 154:/mnt/c/Users/31740/Desktop/newcore/include/linux/blk_types.h **** /*
 155:/mnt/c/Users/31740/Desktop/newcore/include/linux/blk_types.h ****  * BLK_STS_DURATION_LIMIT is returned from the driver when the target device
 156:/mnt/c/Users/31740/Desktop/newcore/include/linux/blk_types.h ****  * aborted the command because it exceeded one of its Command Duration Limits.
 157:/mnt/c/Users/31740/Desktop/newcore/include/linux/blk_types.h ****  */
 158:/mnt/c/Users/31740/Desktop/newcore/include/linux/blk_types.h **** #define BLK_STS_DURATION_LIMIT	((__force blk_status_t)17)
 159:/mnt/c/Users/31740/Desktop/newcore/include/linux/blk_types.h **** 
 160:/mnt/c/Users/31740/Desktop/newcore/include/linux/blk_types.h **** /*
 161:/mnt/c/Users/31740/Desktop/newcore/include/linux/blk_types.h ****  * Invalid size or alignment.
 162:/mnt/c/Users/31740/Desktop/newcore/include/linux/blk_types.h ****  */
 163:/mnt/c/Users/31740/Desktop/newcore/include/linux/blk_types.h **** #define BLK_STS_INVAL	((__force blk_status_t)19)
 164:/mnt/c/Users/31740/Desktop/newcore/include/linux/blk_types.h **** 
 165:/mnt/c/Users/31740/Desktop/newcore/include/linux/blk_types.h **** /**
 166:/mnt/c/Users/31740/Desktop/newcore/include/linux/blk_types.h ****  * blk_path_error - returns true if error may be path related
 167:/mnt/c/Users/31740/Desktop/newcore/include/linux/blk_types.h ****  * @error: status the request was completed with
 168:/mnt/c/Users/31740/Desktop/newcore/include/linux/blk_types.h ****  *
 169:/mnt/c/Users/31740/Desktop/newcore/include/linux/blk_types.h ****  * Description:
 170:/mnt/c/Users/31740/Desktop/newcore/include/linux/blk_types.h ****  *     This classifies block error status into non-retryable errors and ones
 171:/mnt/c/Users/31740/Desktop/newcore/include/linux/blk_types.h ****  *     that may be successful if retried on a failover path.
 172:/mnt/c/Users/31740/Desktop/newcore/include/linux/blk_types.h ****  *
 173:/mnt/c/Users/31740/Desktop/newcore/include/linux/blk_types.h ****  * Return:
 174:/mnt/c/Users/31740/Desktop/newcore/include/linux/blk_types.h ****  *     %false - retrying failover path will not help
 175:/mnt/c/Users/31740/Desktop/newcore/include/linux/blk_types.h ****  *     %true  - may succeed if retried
 176:/mnt/c/Users/31740/Desktop/newcore/include/linux/blk_types.h ****  */
 177:/mnt/c/Users/31740/Desktop/newcore/include/linux/blk_types.h **** 
 178:/mnt/c/Users/31740/Desktop/newcore/include/linux/blk_types.h ****  static inline bool blk_path_error(blk_status_t error)
 179:/mnt/c/Users/31740/Desktop/newcore/include/linux/blk_types.h **** {
 180:/mnt/c/Users/31740/Desktop/newcore/include/linux/blk_types.h **** 	switch (error) {
 181:/mnt/c/Users/31740/Desktop/newcore/include/linux/blk_types.h **** 	case BLK_STS_NOTSUPP:
 182:/mnt/c/Users/31740/Desktop/newcore/include/linux/blk_types.h **** 	case BLK_STS_NOSPC:
 183:/mnt/c/Users/31740/Desktop/newcore/include/linux/blk_types.h **** 	case BLK_STS_TARGET:
 184:/mnt/c/Users/31740/Desktop/newcore/include/linux/blk_types.h **** 	case BLK_STS_RESV_CONFLICT:
 185:/mnt/c/Users/31740/Desktop/newcore/include/linux/blk_types.h **** 	case BLK_STS_MEDIUM:
 186:/mnt/c/Users/31740/Desktop/newcore/include/linux/blk_types.h **** 	case BLK_STS_PROTECTION:
 187:/mnt/c/Users/31740/Desktop/newcore/include/linux/blk_types.h **** 		return false;
 188:/mnt/c/Users/31740/Desktop/newcore/include/linux/blk_types.h **** 	}
 189:/mnt/c/Users/31740/Desktop/newcore/include/linux/blk_types.h **** 
 190:/mnt/c/Users/31740/Desktop/newcore/include/linux/blk_types.h **** 	/* Anything else could be a path failure, so should be retried */
 191:/mnt/c/Users/31740/Desktop/newcore/include/linux/blk_types.h **** 	return true;
 192:/mnt/c/Users/31740/Desktop/newcore/include/linux/blk_types.h **** }
 193:/mnt/c/Users/31740/Desktop/newcore/include/linux/blk_types.h **** 
 194:/mnt/c/Users/31740/Desktop/newcore/include/linux/blk_types.h **** 
 195:/mnt/c/Users/31740/Desktop/newcore/include/linux/blk_types.h **** 
 196:/mnt/c/Users/31740/Desktop/newcore/include/linux/blk_types.h **** struct bio_issue {
 197:/mnt/c/Users/31740/Desktop/newcore/include/linux/blk_types.h **** 	u64 value;
 198:/mnt/c/Users/31740/Desktop/newcore/include/linux/blk_types.h **** };
 199:/mnt/c/Users/31740/Desktop/newcore/include/linux/blk_types.h **** 
 200:/mnt/c/Users/31740/Desktop/newcore/include/linux/blk_types.h **** typedef __u32 __bitwise blk_opf_t;
 201:/mnt/c/Users/31740/Desktop/newcore/include/linux/blk_types.h **** typedef unsigned int blk_qc_t;
 202:/mnt/c/Users/31740/Desktop/newcore/include/linux/blk_types.h **** #define BLK_QC_T_NONE		-1U
 203:/mnt/c/Users/31740/Desktop/newcore/include/linux/blk_types.h **** 
 204:/mnt/c/Users/31740/Desktop/newcore/include/linux/blk_types.h **** 
 205:/mnt/c/Users/31740/Desktop/newcore/include/linux/blk_types.h **** /*
 206:/mnt/c/Users/31740/Desktop/newcore/include/linux/blk_types.h ****  * main unit of I/O for the block layer and lower layers (ie drivers and
 207:/mnt/c/Users/31740/Desktop/newcore/include/linux/blk_types.h ****  * stacking drivers)
 208:/mnt/c/Users/31740/Desktop/newcore/include/linux/blk_types.h ****  */
ARM GAS  /tmp/ccyCLDig.s 			page 148


 209:/mnt/c/Users/31740/Desktop/newcore/include/linux/blk_types.h **** 
 210:/mnt/c/Users/31740/Desktop/newcore/include/linux/blk_types.h ****  struct bio {
 211:/mnt/c/Users/31740/Desktop/newcore/include/linux/blk_types.h **** 	struct bio		*bi_next;	/* request queue link */
 212:/mnt/c/Users/31740/Desktop/newcore/include/linux/blk_types.h **** 	struct block_device	*bi_bdev;
 213:/mnt/c/Users/31740/Desktop/newcore/include/linux/blk_types.h **** 	blk_opf_t		bi_opf;	
 214:/mnt/c/Users/31740/Desktop/newcore/include/linux/blk_types.h **** 	unsigned short		bi_flags;	/* BIO_* below */
 215:/mnt/c/Users/31740/Desktop/newcore/include/linux/blk_types.h **** 	unsigned short		bi_ioprio;
 216:/mnt/c/Users/31740/Desktop/newcore/include/linux/blk_types.h **** 	 enum rw_hint		bi_write_hint;
 217:/mnt/c/Users/31740/Desktop/newcore/include/linux/blk_types.h **** 	blk_status_t		bi_status;
 218:/mnt/c/Users/31740/Desktop/newcore/include/linux/blk_types.h **** 	atomic_t		__bi_remaining;
 219:/mnt/c/Users/31740/Desktop/newcore/include/linux/blk_types.h **** 	struct bvec_iter	bi_iter;
 220:/mnt/c/Users/31740/Desktop/newcore/include/linux/blk_types.h **** 	union {
 221:/mnt/c/Users/31740/Desktop/newcore/include/linux/blk_types.h **** 		blk_qc_t		bi_cookie;
 222:/mnt/c/Users/31740/Desktop/newcore/include/linux/blk_types.h **** 		unsigned int		__bi_nr_segments;
 223:/mnt/c/Users/31740/Desktop/newcore/include/linux/blk_types.h **** 	};
 224:/mnt/c/Users/31740/Desktop/newcore/include/linux/blk_types.h **** 	bio_end_io_t		*bi_end_io;
 225:/mnt/c/Users/31740/Desktop/newcore/include/linux/blk_types.h **** 	void			*bi_private;
 226:/mnt/c/Users/31740/Desktop/newcore/include/linux/blk_types.h **** 	unsigned short		bi_vcnt;	/* how many bio_vec's */
 227:/mnt/c/Users/31740/Desktop/newcore/include/linux/blk_types.h **** 	unsigned short		bi_max_vecs;	/* max bvl_vecs we can hold */
 228:/mnt/c/Users/31740/Desktop/newcore/include/linux/blk_types.h **** 	atomic_t		__bi_cnt;	/* pin count */
 229:/mnt/c/Users/31740/Desktop/newcore/include/linux/blk_types.h **** 	struct bio_vec		*bi_io_vec;	/* the actual vec list */
 230:/mnt/c/Users/31740/Desktop/newcore/include/linux/blk_types.h **** 	struct bio_set		*bi_pool;
 231:/mnt/c/Users/31740/Desktop/newcore/include/linux/blk_types.h **** 	struct bio_vec		bi_inline_vecs[];
 232:/mnt/c/Users/31740/Desktop/newcore/include/linux/blk_types.h **** };
 233:/mnt/c/Users/31740/Desktop/newcore/include/linux/blk_types.h **** 
 234:/mnt/c/Users/31740/Desktop/newcore/include/linux/blk_types.h **** #define BIO_RESET_BYTES		offsetof(struct bio, bi_max_vecs)
 235:/mnt/c/Users/31740/Desktop/newcore/include/linux/blk_types.h **** #define BIO_MAX_SECTORS		(UINT_MAX >> SECTOR_SHIFT)
 236:/mnt/c/Users/31740/Desktop/newcore/include/linux/blk_types.h **** 
 237:/mnt/c/Users/31740/Desktop/newcore/include/linux/blk_types.h **** 
 238:/mnt/c/Users/31740/Desktop/newcore/include/linux/blk_types.h **** /*
 239:/mnt/c/Users/31740/Desktop/newcore/include/linux/blk_types.h ****  * bio flags
 240:/mnt/c/Users/31740/Desktop/newcore/include/linux/blk_types.h ****  */
 241:/mnt/c/Users/31740/Desktop/newcore/include/linux/blk_types.h **** enum {
 242:/mnt/c/Users/31740/Desktop/newcore/include/linux/blk_types.h **** 	BIO_PAGE_PINNED,	/* Unpin pages in bio_release_pages() */
 243:/mnt/c/Users/31740/Desktop/newcore/include/linux/blk_types.h **** 	BIO_CLONED,		/* doesn't own data */
 244:/mnt/c/Users/31740/Desktop/newcore/include/linux/blk_types.h **** 	BIO_BOUNCED,		/* bio is a bounce bio */
 245:/mnt/c/Users/31740/Desktop/newcore/include/linux/blk_types.h **** 	BIO_QUIET,		/* Make BIO Quiet */
 246:/mnt/c/Users/31740/Desktop/newcore/include/linux/blk_types.h **** 	BIO_CHAIN,		/* chained bio, ->bi_remaining in effect */
 247:/mnt/c/Users/31740/Desktop/newcore/include/linux/blk_types.h **** 	BIO_REFFED,		/* bio has elevated ->bi_cnt */
 248:/mnt/c/Users/31740/Desktop/newcore/include/linux/blk_types.h **** 	BIO_BPS_THROTTLED,	/* This bio has already been subjected to
 249:/mnt/c/Users/31740/Desktop/newcore/include/linux/blk_types.h **** 				 * throttling rules. Don't do it again. */
 250:/mnt/c/Users/31740/Desktop/newcore/include/linux/blk_types.h **** 	BIO_TRACE_COMPLETION,	/* bio_endio() should trace the final completion
 251:/mnt/c/Users/31740/Desktop/newcore/include/linux/blk_types.h **** 				 * of this bio. */
 252:/mnt/c/Users/31740/Desktop/newcore/include/linux/blk_types.h **** 	BIO_CGROUP_ACCT,	/* has been accounted to a cgroup */
 253:/mnt/c/Users/31740/Desktop/newcore/include/linux/blk_types.h **** 	BIO_QOS_THROTTLED,	/* bio went through rq_qos throttle path */
 254:/mnt/c/Users/31740/Desktop/newcore/include/linux/blk_types.h **** 	BIO_QOS_MERGED,		/* but went through rq_qos merge path */
 255:/mnt/c/Users/31740/Desktop/newcore/include/linux/blk_types.h **** 	BIO_REMAPPED,
 256:/mnt/c/Users/31740/Desktop/newcore/include/linux/blk_types.h **** 	BIO_ZONE_WRITE_PLUGGING, /* bio handled through zone write plugging */
 257:/mnt/c/Users/31740/Desktop/newcore/include/linux/blk_types.h **** 	BIO_EMULATES_ZONE_APPEND, /* bio emulates a zone append operation */
 258:/mnt/c/Users/31740/Desktop/newcore/include/linux/blk_types.h **** 	BIO_FLAG_LAST
 259:/mnt/c/Users/31740/Desktop/newcore/include/linux/blk_types.h **** };
 260:/mnt/c/Users/31740/Desktop/newcore/include/linux/blk_types.h **** 
 261:/mnt/c/Users/31740/Desktop/newcore/include/linux/blk_types.h **** typedef __u32 __bitwise blk_mq_req_flags_t;
 262:/mnt/c/Users/31740/Desktop/newcore/include/linux/blk_types.h **** 
 263:/mnt/c/Users/31740/Desktop/newcore/include/linux/blk_types.h **** #define REQ_OP_BITS	8
 264:/mnt/c/Users/31740/Desktop/newcore/include/linux/blk_types.h **** #define REQ_OP_MASK	(__force blk_opf_t)((1 << REQ_OP_BITS) - 1)
 265:/mnt/c/Users/31740/Desktop/newcore/include/linux/blk_types.h **** #define REQ_FLAG_BITS	24
ARM GAS  /tmp/ccyCLDig.s 			page 149


 266:/mnt/c/Users/31740/Desktop/newcore/include/linux/blk_types.h **** 
 267:/mnt/c/Users/31740/Desktop/newcore/include/linux/blk_types.h **** 
 268:/mnt/c/Users/31740/Desktop/newcore/include/linux/blk_types.h **** /**
 269:/mnt/c/Users/31740/Desktop/newcore/include/linux/blk_types.h ****  * enum req_op - Operations common to the bio and request structures.
 270:/mnt/c/Users/31740/Desktop/newcore/include/linux/blk_types.h ****  * We use 8 bits for encoding the operation, and the remaining 24 for flags.
 271:/mnt/c/Users/31740/Desktop/newcore/include/linux/blk_types.h ****  *
 272:/mnt/c/Users/31740/Desktop/newcore/include/linux/blk_types.h ****  * The least significant bit of the operation number indicates the data
 273:/mnt/c/Users/31740/Desktop/newcore/include/linux/blk_types.h ****  * transfer direction:
 274:/mnt/c/Users/31740/Desktop/newcore/include/linux/blk_types.h ****  *
 275:/mnt/c/Users/31740/Desktop/newcore/include/linux/blk_types.h ****  *   - if the least significant bit is set transfers are TO the device
 276:/mnt/c/Users/31740/Desktop/newcore/include/linux/blk_types.h ****  *   - if the least significant bit is not set transfers are FROM the device
 277:/mnt/c/Users/31740/Desktop/newcore/include/linux/blk_types.h ****  *
 278:/mnt/c/Users/31740/Desktop/newcore/include/linux/blk_types.h ****  * If a operation does not transfer data the least significant bit has no
 279:/mnt/c/Users/31740/Desktop/newcore/include/linux/blk_types.h ****  * meaning.
 280:/mnt/c/Users/31740/Desktop/newcore/include/linux/blk_types.h ****  */
 281:/mnt/c/Users/31740/Desktop/newcore/include/linux/blk_types.h **** enum req_op {
 282:/mnt/c/Users/31740/Desktop/newcore/include/linux/blk_types.h **** 	/* read sectors from the device */
 283:/mnt/c/Users/31740/Desktop/newcore/include/linux/blk_types.h **** 	REQ_OP_READ		= (__force blk_opf_t)0,
 284:/mnt/c/Users/31740/Desktop/newcore/include/linux/blk_types.h **** 	/* write sectors to the device */
 285:/mnt/c/Users/31740/Desktop/newcore/include/linux/blk_types.h **** 	REQ_OP_WRITE		= (__force blk_opf_t)1,
 286:/mnt/c/Users/31740/Desktop/newcore/include/linux/blk_types.h **** 	/* flush the volatile write cache */
 287:/mnt/c/Users/31740/Desktop/newcore/include/linux/blk_types.h **** 	REQ_OP_FLUSH		= (__force blk_opf_t)2,
 288:/mnt/c/Users/31740/Desktop/newcore/include/linux/blk_types.h **** 	/* discard sectors */
 289:/mnt/c/Users/31740/Desktop/newcore/include/linux/blk_types.h **** 	REQ_OP_DISCARD		= (__force blk_opf_t)3,
 290:/mnt/c/Users/31740/Desktop/newcore/include/linux/blk_types.h **** 	/* securely erase sectors */
 291:/mnt/c/Users/31740/Desktop/newcore/include/linux/blk_types.h **** 	REQ_OP_SECURE_ERASE	= (__force blk_opf_t)5,
 292:/mnt/c/Users/31740/Desktop/newcore/include/linux/blk_types.h **** 	/* write data at the current zone write pointer */
 293:/mnt/c/Users/31740/Desktop/newcore/include/linux/blk_types.h **** 	REQ_OP_ZONE_APPEND	= (__force blk_opf_t)7,
 294:/mnt/c/Users/31740/Desktop/newcore/include/linux/blk_types.h **** 	/* write the zero filled sector many times */
 295:/mnt/c/Users/31740/Desktop/newcore/include/linux/blk_types.h **** 	REQ_OP_WRITE_ZEROES	= (__force blk_opf_t)9,
 296:/mnt/c/Users/31740/Desktop/newcore/include/linux/blk_types.h **** 	/* Open a zone */
 297:/mnt/c/Users/31740/Desktop/newcore/include/linux/blk_types.h **** 	REQ_OP_ZONE_OPEN	= (__force blk_opf_t)10,
 298:/mnt/c/Users/31740/Desktop/newcore/include/linux/blk_types.h **** 	/* Close a zone */
 299:/mnt/c/Users/31740/Desktop/newcore/include/linux/blk_types.h **** 	REQ_OP_ZONE_CLOSE	= (__force blk_opf_t)11,
 300:/mnt/c/Users/31740/Desktop/newcore/include/linux/blk_types.h **** 	/* Transition a zone to full */
 301:/mnt/c/Users/31740/Desktop/newcore/include/linux/blk_types.h **** 	REQ_OP_ZONE_FINISH	= (__force blk_opf_t)12,
 302:/mnt/c/Users/31740/Desktop/newcore/include/linux/blk_types.h **** 	/* reset a zone write pointer */
 303:/mnt/c/Users/31740/Desktop/newcore/include/linux/blk_types.h **** 	REQ_OP_ZONE_RESET	= (__force blk_opf_t)13,
 304:/mnt/c/Users/31740/Desktop/newcore/include/linux/blk_types.h **** 	/* reset all the zone present on the device */
 305:/mnt/c/Users/31740/Desktop/newcore/include/linux/blk_types.h **** 	REQ_OP_ZONE_RESET_ALL	= (__force blk_opf_t)15,
 306:/mnt/c/Users/31740/Desktop/newcore/include/linux/blk_types.h **** 
 307:/mnt/c/Users/31740/Desktop/newcore/include/linux/blk_types.h **** 	/* Driver private requests */
 308:/mnt/c/Users/31740/Desktop/newcore/include/linux/blk_types.h **** 	REQ_OP_DRV_IN		= (__force blk_opf_t)34,
 309:/mnt/c/Users/31740/Desktop/newcore/include/linux/blk_types.h **** 	REQ_OP_DRV_OUT		= (__force blk_opf_t)35,
 310:/mnt/c/Users/31740/Desktop/newcore/include/linux/blk_types.h **** 
 311:/mnt/c/Users/31740/Desktop/newcore/include/linux/blk_types.h **** 	REQ_OP_LAST		= (__force blk_opf_t)36,
 312:/mnt/c/Users/31740/Desktop/newcore/include/linux/blk_types.h **** };
 313:/mnt/c/Users/31740/Desktop/newcore/include/linux/blk_types.h **** 
 314:/mnt/c/Users/31740/Desktop/newcore/include/linux/blk_types.h **** /* Keep cmd_flag_name[] in sync with the definitions below */
 315:/mnt/c/Users/31740/Desktop/newcore/include/linux/blk_types.h **** enum req_flag_bits {
 316:/mnt/c/Users/31740/Desktop/newcore/include/linux/blk_types.h **** 	__REQ_FAILFAST_DEV =	/* no driver retries of device errors */
 317:/mnt/c/Users/31740/Desktop/newcore/include/linux/blk_types.h **** 		REQ_OP_BITS,
 318:/mnt/c/Users/31740/Desktop/newcore/include/linux/blk_types.h **** 	__REQ_FAILFAST_TRANSPORT, /* no driver retries of transport errors */
 319:/mnt/c/Users/31740/Desktop/newcore/include/linux/blk_types.h **** 	__REQ_FAILFAST_DRIVER,	/* no driver retries of driver errors */
 320:/mnt/c/Users/31740/Desktop/newcore/include/linux/blk_types.h **** 	__REQ_SYNC,		/* request is sync (sync write or read) */
 321:/mnt/c/Users/31740/Desktop/newcore/include/linux/blk_types.h **** 	__REQ_META,		/* metadata io request */
 322:/mnt/c/Users/31740/Desktop/newcore/include/linux/blk_types.h **** 	__REQ_PRIO,		/* boost priority in cfq */
ARM GAS  /tmp/ccyCLDig.s 			page 150


 323:/mnt/c/Users/31740/Desktop/newcore/include/linux/blk_types.h **** 	__REQ_NOMERGE,		/* don't touch this for merging */
 324:/mnt/c/Users/31740/Desktop/newcore/include/linux/blk_types.h **** 	__REQ_IDLE,		/* anticipate more IO after this one */
 325:/mnt/c/Users/31740/Desktop/newcore/include/linux/blk_types.h **** 	__REQ_INTEGRITY,	/* I/O includes block integrity payload */
 326:/mnt/c/Users/31740/Desktop/newcore/include/linux/blk_types.h **** 	__REQ_FUA,		/* forced unit access */
 327:/mnt/c/Users/31740/Desktop/newcore/include/linux/blk_types.h **** 	__REQ_PREFLUSH,		/* request for cache flush */
 328:/mnt/c/Users/31740/Desktop/newcore/include/linux/blk_types.h **** 	__REQ_RAHEAD,		/* read ahead, can fail anytime */
 329:/mnt/c/Users/31740/Desktop/newcore/include/linux/blk_types.h **** 	__REQ_BACKGROUND,	/* background IO */
 330:/mnt/c/Users/31740/Desktop/newcore/include/linux/blk_types.h **** 	__REQ_NOWAIT,           /* Don't wait if request will block */
 331:/mnt/c/Users/31740/Desktop/newcore/include/linux/blk_types.h **** 	__REQ_POLLED,		/* caller polls for completion using bio_poll */
 332:/mnt/c/Users/31740/Desktop/newcore/include/linux/blk_types.h **** 	__REQ_ALLOC_CACHE,	/* allocate IO from cache if available */
 333:/mnt/c/Users/31740/Desktop/newcore/include/linux/blk_types.h **** 	__REQ_SWAP,		/* swap I/O */
 334:/mnt/c/Users/31740/Desktop/newcore/include/linux/blk_types.h **** 	__REQ_DRV,		/* for driver use */
 335:/mnt/c/Users/31740/Desktop/newcore/include/linux/blk_types.h **** 	__REQ_FS_PRIVATE,	/* for file system (submitter) use */
 336:/mnt/c/Users/31740/Desktop/newcore/include/linux/blk_types.h **** 	__REQ_ATOMIC,		/* for atomic write operations */
 337:/mnt/c/Users/31740/Desktop/newcore/include/linux/blk_types.h **** 	/*
 338:/mnt/c/Users/31740/Desktop/newcore/include/linux/blk_types.h **** 	 * Command specific flags, keep last:
 339:/mnt/c/Users/31740/Desktop/newcore/include/linux/blk_types.h **** 	 */
 340:/mnt/c/Users/31740/Desktop/newcore/include/linux/blk_types.h **** 	/* for REQ_OP_WRITE_ZEROES: */
 341:/mnt/c/Users/31740/Desktop/newcore/include/linux/blk_types.h **** 	__REQ_NOUNMAP,		/* do not free blocks when zeroing */
 342:/mnt/c/Users/31740/Desktop/newcore/include/linux/blk_types.h **** 
 343:/mnt/c/Users/31740/Desktop/newcore/include/linux/blk_types.h **** 	__REQ_NR_BITS,		/* stops here */
 344:/mnt/c/Users/31740/Desktop/newcore/include/linux/blk_types.h **** };
 345:/mnt/c/Users/31740/Desktop/newcore/include/linux/blk_types.h **** 
 346:/mnt/c/Users/31740/Desktop/newcore/include/linux/blk_types.h **** 
 347:/mnt/c/Users/31740/Desktop/newcore/include/linux/blk_types.h **** 
 348:/mnt/c/Users/31740/Desktop/newcore/include/linux/blk_types.h **** #define REQ_FAILFAST_DEV	\
 349:/mnt/c/Users/31740/Desktop/newcore/include/linux/blk_types.h **** 			(__force blk_opf_t)(1ULL << __REQ_FAILFAST_DEV)
 350:/mnt/c/Users/31740/Desktop/newcore/include/linux/blk_types.h **** #define REQ_FAILFAST_TRANSPORT	\
 351:/mnt/c/Users/31740/Desktop/newcore/include/linux/blk_types.h **** 			(__force blk_opf_t)(1ULL << __REQ_FAILFAST_TRANSPORT)
 352:/mnt/c/Users/31740/Desktop/newcore/include/linux/blk_types.h **** #define REQ_FAILFAST_DRIVER	\
 353:/mnt/c/Users/31740/Desktop/newcore/include/linux/blk_types.h **** 			(__force blk_opf_t)(1ULL << __REQ_FAILFAST_DRIVER)
 354:/mnt/c/Users/31740/Desktop/newcore/include/linux/blk_types.h **** #define REQ_SYNC	(__force blk_opf_t)(1ULL << __REQ_SYNC)
 355:/mnt/c/Users/31740/Desktop/newcore/include/linux/blk_types.h **** #define REQ_META	(__force blk_opf_t)(1ULL << __REQ_META)
 356:/mnt/c/Users/31740/Desktop/newcore/include/linux/blk_types.h **** #define REQ_PRIO	(__force blk_opf_t)(1ULL << __REQ_PRIO)
 357:/mnt/c/Users/31740/Desktop/newcore/include/linux/blk_types.h **** #define REQ_NOMERGE	(__force blk_opf_t)(1ULL << __REQ_NOMERGE)
 358:/mnt/c/Users/31740/Desktop/newcore/include/linux/blk_types.h **** #define REQ_IDLE	(__force blk_opf_t)(1ULL << __REQ_IDLE)
 359:/mnt/c/Users/31740/Desktop/newcore/include/linux/blk_types.h **** #define REQ_INTEGRITY	(__force blk_opf_t)(1ULL << __REQ_INTEGRITY)
 360:/mnt/c/Users/31740/Desktop/newcore/include/linux/blk_types.h **** #define REQ_FUA		(__force blk_opf_t)(1ULL << __REQ_FUA)
 361:/mnt/c/Users/31740/Desktop/newcore/include/linux/blk_types.h **** #define REQ_PREFLUSH	(__force blk_opf_t)(1ULL << __REQ_PREFLUSH)
 362:/mnt/c/Users/31740/Desktop/newcore/include/linux/blk_types.h **** #define REQ_RAHEAD	(__force blk_opf_t)(1ULL << __REQ_RAHEAD)
 363:/mnt/c/Users/31740/Desktop/newcore/include/linux/blk_types.h **** #define REQ_BACKGROUND	(__force blk_opf_t)(1ULL << __REQ_BACKGROUND)
 364:/mnt/c/Users/31740/Desktop/newcore/include/linux/blk_types.h **** #define REQ_NOWAIT	(__force blk_opf_t)(1ULL << __REQ_NOWAIT)
 365:/mnt/c/Users/31740/Desktop/newcore/include/linux/blk_types.h **** #define REQ_POLLED	(__force blk_opf_t)(1ULL << __REQ_POLLED)
 366:/mnt/c/Users/31740/Desktop/newcore/include/linux/blk_types.h **** #define REQ_ALLOC_CACHE	(__force blk_opf_t)(1ULL << __REQ_ALLOC_CACHE)
 367:/mnt/c/Users/31740/Desktop/newcore/include/linux/blk_types.h **** #define REQ_SWAP	(__force blk_opf_t)(1ULL << __REQ_SWAP)
 368:/mnt/c/Users/31740/Desktop/newcore/include/linux/blk_types.h **** #define REQ_DRV		(__force blk_opf_t)(1ULL << __REQ_DRV)
 369:/mnt/c/Users/31740/Desktop/newcore/include/linux/blk_types.h **** #define REQ_FS_PRIVATE	(__force blk_opf_t)(1ULL << __REQ_FS_PRIVATE)
 370:/mnt/c/Users/31740/Desktop/newcore/include/linux/blk_types.h **** #define REQ_ATOMIC	(__force blk_opf_t)(1ULL << __REQ_ATOMIC)
 371:/mnt/c/Users/31740/Desktop/newcore/include/linux/blk_types.h **** 
 372:/mnt/c/Users/31740/Desktop/newcore/include/linux/blk_types.h **** #define REQ_NOUNMAP	(__force blk_opf_t)(1ULL << __REQ_NOUNMAP)
 373:/mnt/c/Users/31740/Desktop/newcore/include/linux/blk_types.h **** 
 374:/mnt/c/Users/31740/Desktop/newcore/include/linux/blk_types.h **** #define REQ_FAILFAST_MASK \
 375:/mnt/c/Users/31740/Desktop/newcore/include/linux/blk_types.h **** 	(REQ_FAILFAST_DEV | REQ_FAILFAST_TRANSPORT | REQ_FAILFAST_DRIVER)
 376:/mnt/c/Users/31740/Desktop/newcore/include/linux/blk_types.h **** 
 377:/mnt/c/Users/31740/Desktop/newcore/include/linux/blk_types.h **** #define REQ_NOMERGE_FLAGS \
 378:/mnt/c/Users/31740/Desktop/newcore/include/linux/blk_types.h **** 	(REQ_NOMERGE | REQ_PREFLUSH | REQ_FUA)
 379:/mnt/c/Users/31740/Desktop/newcore/include/linux/blk_types.h **** 
ARM GAS  /tmp/ccyCLDig.s 			page 151


 380:/mnt/c/Users/31740/Desktop/newcore/include/linux/blk_types.h **** enum stat_group {
 381:/mnt/c/Users/31740/Desktop/newcore/include/linux/blk_types.h **** 	STAT_READ,
 382:/mnt/c/Users/31740/Desktop/newcore/include/linux/blk_types.h **** 	STAT_WRITE,
 383:/mnt/c/Users/31740/Desktop/newcore/include/linux/blk_types.h **** 	STAT_DISCARD,
 384:/mnt/c/Users/31740/Desktop/newcore/include/linux/blk_types.h **** 	STAT_FLUSH,
 385:/mnt/c/Users/31740/Desktop/newcore/include/linux/blk_types.h **** 
 386:/mnt/c/Users/31740/Desktop/newcore/include/linux/blk_types.h **** 	NR_STAT_GROUPS
 387:/mnt/c/Users/31740/Desktop/newcore/include/linux/blk_types.h **** };
 388:/mnt/c/Users/31740/Desktop/newcore/include/linux/blk_types.h **** 
 389:/mnt/c/Users/31740/Desktop/newcore/include/linux/blk_types.h **** static inline enum req_op bio_op(const struct bio *bio)
 390:/mnt/c/Users/31740/Desktop/newcore/include/linux/blk_types.h **** {
 391:/mnt/c/Users/31740/Desktop/newcore/include/linux/blk_types.h **** 	return bio->bi_opf & REQ_OP_MASK;
 392:/mnt/c/Users/31740/Desktop/newcore/include/linux/blk_types.h **** }
 393:/mnt/c/Users/31740/Desktop/newcore/include/linux/blk_types.h **** 
 394:/mnt/c/Users/31740/Desktop/newcore/include/linux/blk_types.h **** static inline bool op_is_write(blk_opf_t op)
 1779              		.loc 12 394 20 is_stmt 1 view .LVU452
 1780              	.LBB135:
 395:/mnt/c/Users/31740/Desktop/newcore/include/linux/blk_types.h **** {
 396:/mnt/c/Users/31740/Desktop/newcore/include/linux/blk_types.h **** 	return !!(op & (__force blk_opf_t)1);
 1781              		.loc 12 396 2 view .LVU453
 1782              		.loc 12 396 2 is_stmt 0 view .LVU454
 1783              	.LBE135:
 1784              	.LBE134:
  48:/mnt/c/Users/31740/Desktop/newcore/drivers/storage/w25qxx/w25qxx.c ****             {
 1785              		.loc 1 48 15 discriminator 2 view .LVU455
 1786 0068 13F00103 		ands	r3, r3, #1
 1787 006c D6D0     		beq	.L108
  53:/mnt/c/Users/31740/Desktop/newcore/drivers/storage/w25qxx/w25qxx.c ****                 int page_4k = start/8;
 1788              		.loc 1 53 18 is_stmt 1 view .LVU456
  53:/mnt/c/Users/31740/Desktop/newcore/drivers/storage/w25qxx/w25qxx.c ****                 int page_4k = start/8;
 1789              		.loc 1 53 20 is_stmt 0 discriminator 2 view .LVU457
 1790 006e 002B     		cmp	r3, #0
 1791 0070 E3D0     		beq	.L96
 1792              	.LBB136:
  54:/mnt/c/Users/31740/Desktop/newcore/drivers/storage/w25qxx/w25qxx.c ****                 int page_4k_offset = start%8;
 1793              		.loc 1 54 17 is_stmt 1 view .LVU458
  54:/mnt/c/Users/31740/Desktop/newcore/drivers/storage/w25qxx/w25qxx.c ****                 int page_4k_offset = start%8;
 1794              		.loc 1 54 36 is_stmt 0 view .LVU459
 1795 0072 019B     		ldr	r3, [sp, #4]
 1796 0074 DA08     		lsrs	r2, r3, #3
 1797 0076 0092     		str	r2, [sp]
 1798              	.LVL159:
  55:/mnt/c/Users/31740/Desktop/newcore/drivers/storage/w25qxx/w25qxx.c ****                 pr_info("w25qxx: write page:%d (%d b)\n",start,data_length);
 1799              		.loc 1 55 17 is_stmt 1 view .LVU460
  55:/mnt/c/Users/31740/Desktop/newcore/drivers/storage/w25qxx/w25qxx.c ****                 pr_info("w25qxx: write page:%d (%d b)\n",start,data_length);
 1800              		.loc 1 55 21 is_stmt 0 view .LVU461
 1801 0078 1A46     		mov	r2, r3
 1802              	.LVL160:
  55:/mnt/c/Users/31740/Desktop/newcore/drivers/storage/w25qxx/w25qxx.c ****                 pr_info("w25qxx: write page:%d (%d b)\n",start,data_length);
 1803              		.loc 1 55 21 view .LVU462
 1804 007a 03F00709 		and	r9, r3, #7
 1805              	.LVL161:
  56:/mnt/c/Users/31740/Desktop/newcore/drivers/storage/w25qxx/w25qxx.c ****                 if(page_4k_offset == 0 && data_length == 4096) //4k
 1806              		.loc 1 56 17 is_stmt 1 view .LVU463
 1807 007e 4346     		mov	r3, r8
 1808 0080 4149     		ldr	r1, .L112+8
 1809 0082 0620     		movs	r0, #6
ARM GAS  /tmp/ccyCLDig.s 			page 152


 1810 0084 FFF7FEFF 		bl	printk
 1811              	.LVL162:
  57:/mnt/c/Users/31740/Desktop/newcore/drivers/storage/w25qxx/w25qxx.c ****                 {
 1812              		.loc 1 57 17 view .LVU464
  57:/mnt/c/Users/31740/Desktop/newcore/drivers/storage/w25qxx/w25qxx.c ****                 {
 1813              		.loc 1 57 19 is_stmt 0 view .LVU465
 1814 0088 B9F1000F 		cmp	r9, #0
 1815 008c 02D1     		bne	.L97
  57:/mnt/c/Users/31740/Desktop/newcore/drivers/storage/w25qxx/w25qxx.c ****                 {
 1816              		.loc 1 57 40 discriminator 1 view .LVU466
 1817 008e B8F5805F 		cmp	r8, #4096
 1818 0092 4ED0     		beq	.L109
 1819              	.L97:
 1820              	.LBB137:
  63:/mnt/c/Users/31740/Desktop/newcore/drivers/storage/w25qxx/w25qxx.c ****                     ret = W25Qxx_device_read_page(w25qxx1_dev,w25qxx_buffer,4096,page_4k);//
 1821              		.loc 1 63 21 is_stmt 1 view .LVU467
  63:/mnt/c/Users/31740/Desktop/newcore/drivers/storage/w25qxx/w25qxx.c ****                     ret = W25Qxx_device_read_page(w25qxx1_dev,w25qxx_buffer,4096,page_4k);//
 1822              		.loc 1 63 51 is_stmt 0 view .LVU468
 1823 0094 4FEA4923 		lsl	r3, r9, #9
 1824 0098 0293     		str	r3, [sp, #8]
  63:/mnt/c/Users/31740/Desktop/newcore/drivers/storage/w25qxx/w25qxx.c ****                     ret = W25Qxx_device_read_page(w25qxx1_dev,w25qxx_buffer,4096,page_4k);//
 1825              		.loc 1 63 56 view .LVU469
 1826 009a 08EB4923 		add	r3, r8, r9, lsl #9
 1827 009e 0393     		str	r3, [sp, #12]
 1828              	.LVL163:
  64:/mnt/c/Users/31740/Desktop/newcore/drivers/storage/w25qxx/w25qxx.c ****                     if (ret < 0)  break;
 1829              		.loc 1 64 21 is_stmt 1 view .LVU470
  64:/mnt/c/Users/31740/Desktop/newcore/drivers/storage/w25qxx/w25qxx.c ****                     if (ret < 0)  break;
 1830              		.loc 1 64 27 is_stmt 0 view .LVU471
 1831 00a0 009B     		ldr	r3, [sp]
 1832              	.LVL164:
  64:/mnt/c/Users/31740/Desktop/newcore/drivers/storage/w25qxx/w25qxx.c ****                     if (ret < 0)  break;
 1833              		.loc 1 64 27 view .LVU472
 1834 00a2 4FF48052 		mov	r2, #4096
 1835 00a6 3949     		ldr	r1, .L112+12
 1836 00a8 0968     		ldr	r1, [r1]
 1837 00aa 3648     		ldr	r0, .L112+4
 1838 00ac 0068     		ldr	r0, [r0]
 1839 00ae FFF7FEFF 		bl	W25Qxx_device_read_page
 1840              	.LVL165:
  65:/mnt/c/Users/31740/Desktop/newcore/drivers/storage/w25qxx/w25qxx.c ****                     uint32_t cpoy_length = 4096 - page_4k_offset*512;                    //
 1841              		.loc 1 65 21 is_stmt 1 view .LVU473
  65:/mnt/c/Users/31740/Desktop/newcore/drivers/storage/w25qxx/w25qxx.c ****                     uint32_t cpoy_length = 4096 - page_4k_offset*512;                    //
 1842              		.loc 1 65 24 is_stmt 0 view .LVU474
 1843 00b2 071E     		subs	r7, r0, #0
 1844 00b4 46DB     		blt	.L98
  66:/mnt/c/Users/31740/Desktop/newcore/drivers/storage/w25qxx/w25qxx.c ****                     if(cpoy_length > data_length)
 1845              		.loc 1 66 21 is_stmt 1 view .LVU475
  66:/mnt/c/Users/31740/Desktop/newcore/drivers/storage/w25qxx/w25qxx.c ****                     if(cpoy_length > data_length)
 1846              		.loc 1 66 49 is_stmt 0 view .LVU476
 1847 00b6 C9F10803 		rsb	r3, r9, #8
 1848 00ba 4FEA4329 		lsl	r9, r3, #9
 1849              	.LVL166:
  67:/mnt/c/Users/31740/Desktop/newcore/drivers/storage/w25qxx/w25qxx.c ****                     cpoy_length = data_length;                                           //
 1850              		.loc 1 67 21 is_stmt 1 view .LVU477
  67:/mnt/c/Users/31740/Desktop/newcore/drivers/storage/w25qxx/w25qxx.c ****                     cpoy_length = data_length;                                           //
 1851              		.loc 1 67 23 is_stmt 0 view .LVU478
ARM GAS  /tmp/ccyCLDig.s 			page 153


 1852 00be B8EB432F 		cmp	r8, r3, lsl #9
 1853 00c2 00D2     		bcs	.L99
  68:/mnt/c/Users/31740/Desktop/newcore/drivers/storage/w25qxx/w25qxx.c ****                     memcpy(w25qxx_buffer+page_4k_offset*512,buffer,cpoy_length);         //
 1854              		.loc 1 68 33 view .LVU479
 1855 00c4 C146     		mov	r9, r8
 1856              	.LVL167:
 1857              	.L99:
  69:/mnt/c/Users/31740/Desktop/newcore/drivers/storage/w25qxx/w25qxx.c ****                     ret = W25Qxx_device_write_page(w25qxx1_dev,w25qxx_buffer,4096,page_4k);  //
 1858              		.loc 1 69 21 is_stmt 1 view .LVU480
 1859 00c6 314B     		ldr	r3, .L112+12
 1860 00c8 1F68     		ldr	r7, [r3]
 1861 00ca 4A46     		mov	r2, r9
 1862 00cc 3146     		mov	r1, r6
 1863 00ce 0298     		ldr	r0, [sp, #8]
 1864              	.LVL168:
  69:/mnt/c/Users/31740/Desktop/newcore/drivers/storage/w25qxx/w25qxx.c ****                     ret = W25Qxx_device_write_page(w25qxx1_dev,w25qxx_buffer,4096,page_4k);  //
 1865              		.loc 1 69 21 is_stmt 0 view .LVU481
 1866 00d0 3844     		add	r0, r0, r7
 1867 00d2 FFF7FEFF 		bl	memcpy
 1868              	.LVL169:
  70:/mnt/c/Users/31740/Desktop/newcore/drivers/storage/w25qxx/w25qxx.c ****                     if (ret < 0)  break;
 1869              		.loc 1 70 21 is_stmt 1 view .LVU482
  70:/mnt/c/Users/31740/Desktop/newcore/drivers/storage/w25qxx/w25qxx.c ****                     if (ret < 0)  break;
 1870              		.loc 1 70 27 is_stmt 0 view .LVU483
 1871 00d6 009B     		ldr	r3, [sp]
 1872 00d8 4FF48052 		mov	r2, #4096
 1873 00dc 3946     		mov	r1, r7
 1874 00de 2948     		ldr	r0, .L112+4
 1875 00e0 0068     		ldr	r0, [r0]
 1876 00e2 FFF7FEFF 		bl	W25Qxx_device_write_page
 1877              	.LVL170:
  71:/mnt/c/Users/31740/Desktop/newcore/drivers/storage/w25qxx/w25qxx.c ****                     if(lost_data > 0){                                                  //
 1878              		.loc 1 71 21 is_stmt 1 view .LVU484
  71:/mnt/c/Users/31740/Desktop/newcore/drivers/storage/w25qxx/w25qxx.c ****                     if(lost_data > 0){                                                  //
 1879              		.loc 1 71 24 is_stmt 0 view .LVU485
 1880 00e6 071E     		subs	r7, r0, #0
 1881 00e8 2CDB     		blt	.L98
  72:/mnt/c/Users/31740/Desktop/newcore/drivers/storage/w25qxx/w25qxx.c ****                         ret = W25Qxx_device_read_page(w25qxx1_dev,w25qxx_buffer,4096,page_4k+1); 
 1882              		.loc 1 72 21 is_stmt 1 view .LVU486
  72:/mnt/c/Users/31740/Desktop/newcore/drivers/storage/w25qxx/w25qxx.c ****                         ret = W25Qxx_device_read_page(w25qxx1_dev,w25qxx_buffer,4096,page_4k+1); 
 1883              		.loc 1 72 23 is_stmt 0 view .LVU487
 1884 00ea 039B     		ldr	r3, [sp, #12]
 1885 00ec B3F5805F 		cmp	r3, #4096
 1886 00f0 A3DD     		ble	.L96
  73:/mnt/c/Users/31740/Desktop/newcore/drivers/storage/w25qxx/w25qxx.c ****                         if (ret < 0)  break;
 1887              		.loc 1 73 25 is_stmt 1 view .LVU488
  73:/mnt/c/Users/31740/Desktop/newcore/drivers/storage/w25qxx/w25qxx.c ****                         if (ret < 0)  break;
 1888              		.loc 1 73 93 is_stmt 0 view .LVU489
 1889 00f2 009B     		ldr	r3, [sp]
 1890 00f4 0133     		adds	r3, r3, #1
  73:/mnt/c/Users/31740/Desktop/newcore/drivers/storage/w25qxx/w25qxx.c ****                         if (ret < 0)  break;
 1891              		.loc 1 73 31 view .LVU490
 1892 00f6 0093     		str	r3, [sp]
 1893              	.LVL171:
  73:/mnt/c/Users/31740/Desktop/newcore/drivers/storage/w25qxx/w25qxx.c ****                         if (ret < 0)  break;
 1894              		.loc 1 73 31 view .LVU491
 1895 00f8 4FF48052 		mov	r2, #4096
ARM GAS  /tmp/ccyCLDig.s 			page 154


 1896 00fc 2349     		ldr	r1, .L112+12
 1897 00fe 0968     		ldr	r1, [r1]
 1898 0100 2048     		ldr	r0, .L112+4
 1899              	.LVL172:
  73:/mnt/c/Users/31740/Desktop/newcore/drivers/storage/w25qxx/w25qxx.c ****                         if (ret < 0)  break;
 1900              		.loc 1 73 31 view .LVU492
 1901 0102 0068     		ldr	r0, [r0]
 1902 0104 FFF7FEFF 		bl	W25Qxx_device_read_page
 1903              	.LVL173:
  74:/mnt/c/Users/31740/Desktop/newcore/drivers/storage/w25qxx/w25qxx.c ****                         cpoy_length = data_length - cpoy_length;                        //
 1904              		.loc 1 74 25 is_stmt 1 view .LVU493
  74:/mnt/c/Users/31740/Desktop/newcore/drivers/storage/w25qxx/w25qxx.c ****                         cpoy_length = data_length - cpoy_length;                        //
 1905              		.loc 1 74 28 is_stmt 0 view .LVU494
 1906 0108 071E     		subs	r7, r0, #0
 1907 010a 1BDB     		blt	.L98
  75:/mnt/c/Users/31740/Desktop/newcore/drivers/storage/w25qxx/w25qxx.c ****                         memcpy(w25qxx_buffer, buffer+(data_length-cpoy_length),cpoy_length);//
 1908              		.loc 1 75 25 is_stmt 1 view .LVU495
 1909              	.LVL174:
  76:/mnt/c/Users/31740/Desktop/newcore/drivers/storage/w25qxx/w25qxx.c ****                         ret = W25Qxx_device_write_page(w25qxx1_dev,w25qxx_buffer,4096,page_4k+1);//
 1910              		.loc 1 76 25 view .LVU496
 1911 010c 1F4B     		ldr	r3, .L112+12
 1912 010e 1F68     		ldr	r7, [r3]
 1913 0110 A8EB0902 		sub	r2, r8, r9
 1914              	.LVL175:
  76:/mnt/c/Users/31740/Desktop/newcore/drivers/storage/w25qxx/w25qxx.c ****                         ret = W25Qxx_device_write_page(w25qxx1_dev,w25qxx_buffer,4096,page_4k+1);//
 1915              		.loc 1 76 25 is_stmt 0 view .LVU497
 1916 0114 06EB0901 		add	r1, r6, r9
 1917 0118 3846     		mov	r0, r7
 1918              	.LVL176:
  76:/mnt/c/Users/31740/Desktop/newcore/drivers/storage/w25qxx/w25qxx.c ****                         ret = W25Qxx_device_write_page(w25qxx1_dev,w25qxx_buffer,4096,page_4k+1);//
 1919              		.loc 1 76 25 view .LVU498
 1920 011a FFF7FEFF 		bl	memcpy
 1921              	.LVL177:
  77:/mnt/c/Users/31740/Desktop/newcore/drivers/storage/w25qxx/w25qxx.c ****                     }
 1922              		.loc 1 77 25 is_stmt 1 view .LVU499
  77:/mnt/c/Users/31740/Desktop/newcore/drivers/storage/w25qxx/w25qxx.c ****                     }
 1923              		.loc 1 77 31 is_stmt 0 view .LVU500
 1924 011e 009B     		ldr	r3, [sp]
 1925 0120 4FF48052 		mov	r2, #4096
 1926 0124 3946     		mov	r1, r7
 1927 0126 1748     		ldr	r0, .L112+4
 1928 0128 0068     		ldr	r0, [r0]
 1929 012a FFF7FEFF 		bl	W25Qxx_device_write_page
 1930              	.LVL178:
 1931 012e 0746     		mov	r7, r0
 1932              	.LVL179:
  77:/mnt/c/Users/31740/Desktop/newcore/drivers/storage/w25qxx/w25qxx.c ****                     }
 1933              		.loc 1 77 31 view .LVU501
 1934 0130 83E7     		b	.L96
 1935              	.LVL180:
 1936              	.L109:
  77:/mnt/c/Users/31740/Desktop/newcore/drivers/storage/w25qxx/w25qxx.c ****                     }
 1937              		.loc 1 77 31 view .LVU502
 1938              	.LBE137:
  59:/mnt/c/Users/31740/Desktop/newcore/drivers/storage/w25qxx/w25qxx.c ****                 }
 1939              		.loc 1 59 21 is_stmt 1 view .LVU503
  59:/mnt/c/Users/31740/Desktop/newcore/drivers/storage/w25qxx/w25qxx.c ****                 }
ARM GAS  /tmp/ccyCLDig.s 			page 155


 1940              		.loc 1 59 27 is_stmt 0 view .LVU504
 1941 0132 009B     		ldr	r3, [sp]
 1942 0134 4246     		mov	r2, r8
 1943 0136 3146     		mov	r1, r6
 1944 0138 1248     		ldr	r0, .L112+4
 1945 013a 0068     		ldr	r0, [r0]
 1946 013c FFF7FEFF 		bl	W25Qxx_device_write_page
 1947              	.LVL181:
 1948 0140 0746     		mov	r7, r0
 1949              	.LVL182:
  59:/mnt/c/Users/31740/Desktop/newcore/drivers/storage/w25qxx/w25qxx.c ****                 }
 1950              		.loc 1 59 25 view .LVU505
 1951 0142 7AE7     		b	.L96
 1952              	.LVL183:
 1953              	.L98:
  59:/mnt/c/Users/31740/Desktop/newcore/drivers/storage/w25qxx/w25qxx.c ****                 }
 1954              		.loc 1 59 25 view .LVU506
 1955              	.LBE136:
 1956              	.LBE138:
 1957              	.LBE130:
  44:/mnt/c/Users/31740/Desktop/newcore/drivers/storage/w25qxx/w25qxx.c ****         bio_for_each_segment(bvec,bio2,iter){
 1958              		.loc 1 44 5 is_stmt 1 discriminator 2 view .LVU507
 1959 0144 DAF82030 		ldr	r3, [r10, #32]
 1960 0148 D3F800B0 		ldr	fp, [r3]
 1961              	.LVL184:
  44:/mnt/c/Users/31740/Desktop/newcore/drivers/storage/w25qxx/w25qxx.c ****         bio_for_each_segment(bvec,bio2,iter){
 1962              		.loc 1 44 5 is_stmt 0 discriminator 2 view .LVU508
 1963 014c CAF820B0 		str	fp, [r10, #32]
 1964              	.LVL185:
 1965              	.L93:
  44:/mnt/c/Users/31740/Desktop/newcore/drivers/storage/w25qxx/w25qxx.c ****         bio_for_each_segment(bvec,bio2,iter){
 1966              		.loc 1 44 5 is_stmt 1 discriminator 1 view .LVU509
 1967 0150 DAF82030 		ldr	r3, [r10, #32]
 1968 0154 1BB1     		cbz	r3, .L110
 1969              	.LBB139:
  45:/mnt/c/Users/31740/Desktop/newcore/drivers/storage/w25qxx/w25qxx.c ****             int data_length = bvec->bv_len;
 1970              		.loc 1 45 9 view .LVU510
 1971              	.LVL186:
  45:/mnt/c/Users/31740/Desktop/newcore/drivers/storage/w25qxx/w25qxx.c ****             int data_length = bvec->bv_len;
 1972              		.loc 1 45 9 view .LVU511
  45:/mnt/c/Users/31740/Desktop/newcore/drivers/storage/w25qxx/w25qxx.c ****             int data_length = bvec->bv_len;
 1973              		.loc 1 45 9 is_stmt 0 view .LVU512
 1974 0156 DBF83C40 		ldr	r4, [fp, #60]
 1975              	.LVL187:
  45:/mnt/c/Users/31740/Desktop/newcore/drivers/storage/w25qxx/w25qxx.c ****             int data_length = bvec->bv_len;
 1976              		.loc 1 45 9 view .LVU513
 1977 015a 0025     		movs	r5, #0
 1978 015c 77E7     		b	.L94
 1979              	.LVL188:
 1980              	.L110:
  45:/mnt/c/Users/31740/Desktop/newcore/drivers/storage/w25qxx/w25qxx.c ****             int data_length = bvec->bv_len;
 1981              		.loc 1 45 9 view .LVU514
 1982              	.LBE139:
  82:/mnt/c/Users/31740/Desktop/newcore/drivers/storage/w25qxx/w25qxx.c ****         }
  83:/mnt/c/Users/31740/Desktop/newcore/drivers/storage/w25qxx/w25qxx.c ****     }
  84:/mnt/c/Users/31740/Desktop/newcore/drivers/storage/w25qxx/w25qxx.c ****     if (ret < 0)
 1983              		.loc 1 84 5 is_stmt 1 view .LVU515
ARM GAS  /tmp/ccyCLDig.s 			page 156


 1984              		.loc 1 84 8 is_stmt 0 view .LVU516
 1985 015e 002F     		cmp	r7, #0
 1986 0160 07DB     		blt	.L111
  85:/mnt/c/Users/31740/Desktop/newcore/drivers/storage/w25qxx/w25qxx.c ****     blk_mq_end_request(req,BLK_STS_IOERR);
  86:/mnt/c/Users/31740/Desktop/newcore/drivers/storage/w25qxx/w25qxx.c ****     else 
  87:/mnt/c/Users/31740/Desktop/newcore/drivers/storage/w25qxx/w25qxx.c ****     blk_mq_end_request(req,BLK_STS_OK);
 1987              		.loc 1 87 5 is_stmt 1 view .LVU517
 1988              	.LVL189:
 1989              	.LBB140:
 1990              	.LBI140:
 1991              		.file 13 "/mnt/c/Users/31740/Desktop/newcore/include/linux/blkdev.h"
   1:/mnt/c/Users/31740/Desktop/newcore/include/linux/blkdev.h **** /* SPDX-License-Identifier: GPL-2.0 */
   2:/mnt/c/Users/31740/Desktop/newcore/include/linux/blkdev.h **** /*
   3:/mnt/c/Users/31740/Desktop/newcore/include/linux/blkdev.h ****  * Portions Copyright (C) 1992 Drew Eckhardt
   4:/mnt/c/Users/31740/Desktop/newcore/include/linux/blkdev.h ****  */
   5:/mnt/c/Users/31740/Desktop/newcore/include/linux/blkdev.h **** #ifndef _LINUX_BLKDEV_H
   6:/mnt/c/Users/31740/Desktop/newcore/include/linux/blkdev.h **** #define _LINUX_BLKDEV_H
   7:/mnt/c/Users/31740/Desktop/newcore/include/linux/blkdev.h **** 
   8:/mnt/c/Users/31740/Desktop/newcore/include/linux/blkdev.h **** #include <linux/types.h>
   9:/mnt/c/Users/31740/Desktop/newcore/include/linux/blkdev.h **** #include <linux/blk-mq.h>
  10:/mnt/c/Users/31740/Desktop/newcore/include/linux/blkdev.h **** #include <linux/blk_types.h>
  11:/mnt/c/Users/31740/Desktop/newcore/include/linux/blkdev.h **** #include <linux/refcount_types.h>
  12:/mnt/c/Users/31740/Desktop/newcore/include/linux/blkdev.h **** #include <linux/lockdep_types.h>
  13:/mnt/c/Users/31740/Desktop/newcore/include/linux/blkdev.h **** #include <linux/blk_types.h>
  14:/mnt/c/Users/31740/Desktop/newcore/include/linux/blkdev.h **** #include <linux/workqueue_types.h>
  15:/mnt/c/Users/31740/Desktop/newcore/include/linux/blkdev.h **** #include <linux/blk.h>
  16:/mnt/c/Users/31740/Desktop/newcore/include/linux/blkdev.h **** #include <linux/pr.h>
  17:/mnt/c/Users/31740/Desktop/newcore/include/linux/blkdev.h **** #include <linux/hdreg.h>
  18:/mnt/c/Users/31740/Desktop/newcore/include/linux/blkdev.h **** #include <linux/kdev_t.h>
  19:/mnt/c/Users/31740/Desktop/newcore/include/linux/blkdev.h **** 
  20:/mnt/c/Users/31740/Desktop/newcore/include/linux/blkdev.h **** struct gendisk;
  21:/mnt/c/Users/31740/Desktop/newcore/include/linux/blkdev.h **** 
  22:/mnt/c/Users/31740/Desktop/newcore/include/linux/blkdev.h **** 
  23:/mnt/c/Users/31740/Desktop/newcore/include/linux/blkdev.h **** /*
  24:/mnt/c/Users/31740/Desktop/newcore/include/linux/blkdev.h ****  * Maximum number of blkcg policies allowed to be registered concurrently.
  25:/mnt/c/Users/31740/Desktop/newcore/include/linux/blkdev.h ****  * Defined here to simplify include dependency.
  26:/mnt/c/Users/31740/Desktop/newcore/include/linux/blkdev.h ****  */
  27:/mnt/c/Users/31740/Desktop/newcore/include/linux/blkdev.h **** #define BLKCG_MAX_POLS		6
  28:/mnt/c/Users/31740/Desktop/newcore/include/linux/blkdev.h **** 
  29:/mnt/c/Users/31740/Desktop/newcore/include/linux/blkdev.h **** #define DISK_MAX_PARTS			256
  30:/mnt/c/Users/31740/Desktop/newcore/include/linux/blkdev.h **** #define DISK_NAME_LEN			32
  31:/mnt/c/Users/31740/Desktop/newcore/include/linux/blkdev.h **** 
  32:/mnt/c/Users/31740/Desktop/newcore/include/linux/blkdev.h **** #define PARTITION_META_INFO_VOLNAMELTH	64
  33:/mnt/c/Users/31740/Desktop/newcore/include/linux/blkdev.h **** /*
  34:/mnt/c/Users/31740/Desktop/newcore/include/linux/blkdev.h ****  * Enough for the string representation of any kind of UUID plus NULL.
  35:/mnt/c/Users/31740/Desktop/newcore/include/linux/blkdev.h ****  * EFI UUID is 36 characters. MSDOS UUID is 11 characters.
  36:/mnt/c/Users/31740/Desktop/newcore/include/linux/blkdev.h ****  */
  37:/mnt/c/Users/31740/Desktop/newcore/include/linux/blkdev.h **** #define PARTITION_META_INFO_UUIDLTH	(UUID_STRING_LEN + 1)
  38:/mnt/c/Users/31740/Desktop/newcore/include/linux/blkdev.h **** 
  39:/mnt/c/Users/31740/Desktop/newcore/include/linux/blkdev.h **** struct partition_meta_info {
  40:/mnt/c/Users/31740/Desktop/newcore/include/linux/blkdev.h **** 	char uuid[PARTITION_META_INFO_UUIDLTH];
  41:/mnt/c/Users/31740/Desktop/newcore/include/linux/blkdev.h **** 	u8 volname[PARTITION_META_INFO_VOLNAMELTH];
  42:/mnt/c/Users/31740/Desktop/newcore/include/linux/blkdev.h **** };
  43:/mnt/c/Users/31740/Desktop/newcore/include/linux/blkdev.h **** 
  44:/mnt/c/Users/31740/Desktop/newcore/include/linux/blkdev.h **** /**
  45:/mnt/c/Users/31740/Desktop/newcore/include/linux/blkdev.h ****  * DOC: genhd capability flags
  46:/mnt/c/Users/31740/Desktop/newcore/include/linux/blkdev.h ****  *
ARM GAS  /tmp/ccyCLDig.s 			page 157


  47:/mnt/c/Users/31740/Desktop/newcore/include/linux/blkdev.h ****  * ``GENHD_FL_REMOVABLE``: indicates that the block device gives access to
  48:/mnt/c/Users/31740/Desktop/newcore/include/linux/blkdev.h ****  * removable media.  When set, the device remains present even when media is not
  49:/mnt/c/Users/31740/Desktop/newcore/include/linux/blkdev.h ****  * inserted.  Shall not be set for devices which are removed entirely when the
  50:/mnt/c/Users/31740/Desktop/newcore/include/linux/blkdev.h ****  * media is removed.
  51:/mnt/c/Users/31740/Desktop/newcore/include/linux/blkdev.h ****  *
  52:/mnt/c/Users/31740/Desktop/newcore/include/linux/blkdev.h ****  * ``GENHD_FL_HIDDEN``: the block device is hidden; it doesn't produce events,
  53:/mnt/c/Users/31740/Desktop/newcore/include/linux/blkdev.h ****  * doesn't appear in sysfs, and can't be opened from userspace or using
  54:/mnt/c/Users/31740/Desktop/newcore/include/linux/blkdev.h ****  * blkdev_get*. Used for the underlying components of multipath devices.
  55:/mnt/c/Users/31740/Desktop/newcore/include/linux/blkdev.h ****  *
  56:/mnt/c/Users/31740/Desktop/newcore/include/linux/blkdev.h ****  * ``GENHD_FL_NO_PART``: partition support is disabled.  The kernel will not
  57:/mnt/c/Users/31740/Desktop/newcore/include/linux/blkdev.h ****  * scan for partitions from add_disk, and users can't add partitions manually.
  58:/mnt/c/Users/31740/Desktop/newcore/include/linux/blkdev.h ****  *
  59:/mnt/c/Users/31740/Desktop/newcore/include/linux/blkdev.h ****  */
  60:/mnt/c/Users/31740/Desktop/newcore/include/linux/blkdev.h **** enum {
  61:/mnt/c/Users/31740/Desktop/newcore/include/linux/blkdev.h **** 	GENHD_FL_REMOVABLE			= 1 << 0,
  62:/mnt/c/Users/31740/Desktop/newcore/include/linux/blkdev.h **** 	GENHD_FL_HIDDEN				= 1 << 1,
  63:/mnt/c/Users/31740/Desktop/newcore/include/linux/blkdev.h **** 	GENHD_FL_NO_PART			= 1 << 2,
  64:/mnt/c/Users/31740/Desktop/newcore/include/linux/blkdev.h **** };
  65:/mnt/c/Users/31740/Desktop/newcore/include/linux/blkdev.h **** 
  66:/mnt/c/Users/31740/Desktop/newcore/include/linux/blkdev.h **** enum {
  67:/mnt/c/Users/31740/Desktop/newcore/include/linux/blkdev.h **** 	DISK_EVENT_MEDIA_CHANGE			= 1 << 0, /* media changed */
  68:/mnt/c/Users/31740/Desktop/newcore/include/linux/blkdev.h **** 	DISK_EVENT_EJECT_REQUEST		= 1 << 1, /* eject requested */
  69:/mnt/c/Users/31740/Desktop/newcore/include/linux/blkdev.h **** };
  70:/mnt/c/Users/31740/Desktop/newcore/include/linux/blkdev.h **** 
  71:/mnt/c/Users/31740/Desktop/newcore/include/linux/blkdev.h **** enum {
  72:/mnt/c/Users/31740/Desktop/newcore/include/linux/blkdev.h **** 	/* Poll even if events_poll_msecs is unset */
  73:/mnt/c/Users/31740/Desktop/newcore/include/linux/blkdev.h **** 	DISK_EVENT_FLAG_POLL			= 1 << 0,
  74:/mnt/c/Users/31740/Desktop/newcore/include/linux/blkdev.h **** 	/* Forward events to udev */
  75:/mnt/c/Users/31740/Desktop/newcore/include/linux/blkdev.h **** 	DISK_EVENT_FLAG_UEVENT			= 1 << 1,
  76:/mnt/c/Users/31740/Desktop/newcore/include/linux/blkdev.h **** 	/* Block event polling when open for exclusive write */
  77:/mnt/c/Users/31740/Desktop/newcore/include/linux/blkdev.h **** 	DISK_EVENT_FLAG_BLOCK_ON_EXCL_WRITE	= 1 << 2,
  78:/mnt/c/Users/31740/Desktop/newcore/include/linux/blkdev.h **** };
  79:/mnt/c/Users/31740/Desktop/newcore/include/linux/blkdev.h **** 
  80:/mnt/c/Users/31740/Desktop/newcore/include/linux/blkdev.h **** 
  81:/mnt/c/Users/31740/Desktop/newcore/include/linux/blkdev.h **** 
  82:/mnt/c/Users/31740/Desktop/newcore/include/linux/blkdev.h **** enum blk_integrity_checksum {
  83:/mnt/c/Users/31740/Desktop/newcore/include/linux/blkdev.h **** 	BLK_INTEGRITY_CSUM_NONE		= 0,
  84:/mnt/c/Users/31740/Desktop/newcore/include/linux/blkdev.h **** 	BLK_INTEGRITY_CSUM_IP		= 1,
  85:/mnt/c/Users/31740/Desktop/newcore/include/linux/blkdev.h **** 	BLK_INTEGRITY_CSUM_CRC		= 2,
  86:/mnt/c/Users/31740/Desktop/newcore/include/linux/blkdev.h **** 	BLK_INTEGRITY_CSUM_CRC64	= 3,
  87:/mnt/c/Users/31740/Desktop/newcore/include/linux/blkdev.h **** } __packed ;
  88:/mnt/c/Users/31740/Desktop/newcore/include/linux/blkdev.h **** 
  89:/mnt/c/Users/31740/Desktop/newcore/include/linux/blkdev.h **** struct blk_integrity {
  90:/mnt/c/Users/31740/Desktop/newcore/include/linux/blkdev.h **** 	unsigned char				flags;
  91:/mnt/c/Users/31740/Desktop/newcore/include/linux/blkdev.h **** 	enum blk_integrity_checksum		csum_type;
  92:/mnt/c/Users/31740/Desktop/newcore/include/linux/blkdev.h **** 	unsigned char				tuple_size;
  93:/mnt/c/Users/31740/Desktop/newcore/include/linux/blkdev.h **** 	unsigned char				pi_offset;
  94:/mnt/c/Users/31740/Desktop/newcore/include/linux/blkdev.h **** 	unsigned char				interval_exp;
  95:/mnt/c/Users/31740/Desktop/newcore/include/linux/blkdev.h **** 	unsigned char				tag_size;
  96:/mnt/c/Users/31740/Desktop/newcore/include/linux/blkdev.h **** };
  97:/mnt/c/Users/31740/Desktop/newcore/include/linux/blkdev.h **** 
  98:/mnt/c/Users/31740/Desktop/newcore/include/linux/blkdev.h **** 
  99:/mnt/c/Users/31740/Desktop/newcore/include/linux/blkdev.h **** typedef unsigned int __bitwise blk_mode_t;
 100:/mnt/c/Users/31740/Desktop/newcore/include/linux/blkdev.h **** 
 101:/mnt/c/Users/31740/Desktop/newcore/include/linux/blkdev.h **** /* open for reading */
 102:/mnt/c/Users/31740/Desktop/newcore/include/linux/blkdev.h **** #define BLK_OPEN_READ		((__force blk_mode_t)(1 << 0))
 103:/mnt/c/Users/31740/Desktop/newcore/include/linux/blkdev.h **** /* open for writing */
ARM GAS  /tmp/ccyCLDig.s 			page 158


 104:/mnt/c/Users/31740/Desktop/newcore/include/linux/blkdev.h **** #define BLK_OPEN_WRITE		((__force blk_mode_t)(1 << 1))
 105:/mnt/c/Users/31740/Desktop/newcore/include/linux/blkdev.h **** /* open exclusively (vs other exclusive openers */
 106:/mnt/c/Users/31740/Desktop/newcore/include/linux/blkdev.h **** #define BLK_OPEN_EXCL		((__force blk_mode_t)(1 << 2))
 107:/mnt/c/Users/31740/Desktop/newcore/include/linux/blkdev.h **** /* opened with O_NDELAY */
 108:/mnt/c/Users/31740/Desktop/newcore/include/linux/blkdev.h **** #define BLK_OPEN_NDELAY		((__force blk_mode_t)(1 << 3))
 109:/mnt/c/Users/31740/Desktop/newcore/include/linux/blkdev.h **** /* open for "writes" only for ioctls (specialy hack for floppy.c) */
 110:/mnt/c/Users/31740/Desktop/newcore/include/linux/blkdev.h **** #define BLK_OPEN_WRITE_IOCTL	((__force blk_mode_t)(1 << 4))
 111:/mnt/c/Users/31740/Desktop/newcore/include/linux/blkdev.h **** /* open is exclusive wrt all other BLK_OPEN_WRITE opens to the device */
 112:/mnt/c/Users/31740/Desktop/newcore/include/linux/blkdev.h **** #define BLK_OPEN_RESTRICT_WRITES	((__force blk_mode_t)(1 << 5))
 113:/mnt/c/Users/31740/Desktop/newcore/include/linux/blkdev.h **** /* return partition scanning errors */
 114:/mnt/c/Users/31740/Desktop/newcore/include/linux/blkdev.h **** #define BLK_OPEN_STRICT_SCAN	((__force blk_mode_t)(1 << 6))
 115:/mnt/c/Users/31740/Desktop/newcore/include/linux/blkdev.h **** 
 116:/mnt/c/Users/31740/Desktop/newcore/include/linux/blkdev.h **** 
 117:/mnt/c/Users/31740/Desktop/newcore/include/linux/blkdev.h **** enum block_device_flags_t
 118:/mnt/c/Users/31740/Desktop/newcore/include/linux/blkdev.h **** {
 119:/mnt/c/Users/31740/Desktop/newcore/include/linux/blkdev.h **** 	BLOCK_DEVICE_FLAG_NOT_INITIALIZED,       //
 120:/mnt/c/Users/31740/Desktop/newcore/include/linux/blkdev.h ****     BLOCK_DEVICE_FLAG_MBR,                   //mbr
 121:/mnt/c/Users/31740/Desktop/newcore/include/linux/blkdev.h ****     BLOCK_DEVICE_FLAG_GPT,                   //gpt
 122:/mnt/c/Users/31740/Desktop/newcore/include/linux/blkdev.h ****     BLOCK_DEVICE_FLAG_PROTECTIVE_MBR ,       //MBR(gpt,MBR
 123:/mnt/c/Users/31740/Desktop/newcore/include/linux/blkdev.h ****     BLOCK_DEVICE_FLAG_BROKEN_MBR,            //MBR
 124:/mnt/c/Users/31740/Desktop/newcore/include/linux/blkdev.h ****     BLOCK_DEVICE_FLAG_BROKEN_GPT,            //GPT
 125:/mnt/c/Users/31740/Desktop/newcore/include/linux/blkdev.h ****     BLOCK_DEVICE_FLAG_BROKEN_PROTECTIVE_MBR, //MBR
 126:/mnt/c/Users/31740/Desktop/newcore/include/linux/blkdev.h **** };
 127:/mnt/c/Users/31740/Desktop/newcore/include/linux/blkdev.h **** 
 128:/mnt/c/Users/31740/Desktop/newcore/include/linux/blkdev.h **** static const char *block_device_flag_to_string(enum block_device_flags_t flag) {
 129:/mnt/c/Users/31740/Desktop/newcore/include/linux/blkdev.h ****     switch (flag) {
 130:/mnt/c/Users/31740/Desktop/newcore/include/linux/blkdev.h ****         case BLOCK_DEVICE_FLAG_MBR:
 131:/mnt/c/Users/31740/Desktop/newcore/include/linux/blkdev.h ****             return "BLOCK_DEVICE_FLAG_MBR";
 132:/mnt/c/Users/31740/Desktop/newcore/include/linux/blkdev.h ****         case BLOCK_DEVICE_FLAG_GPT:
 133:/mnt/c/Users/31740/Desktop/newcore/include/linux/blkdev.h ****             return "BLOCK_DEVICE_FLAG_GPT";
 134:/mnt/c/Users/31740/Desktop/newcore/include/linux/blkdev.h ****         case BLOCK_DEVICE_FLAG_PROTECTIVE_MBR:
 135:/mnt/c/Users/31740/Desktop/newcore/include/linux/blkdev.h ****             return "BLOCK_DEVICE_FLAG_PROTECTIVE_MBR";
 136:/mnt/c/Users/31740/Desktop/newcore/include/linux/blkdev.h ****         case BLOCK_DEVICE_FLAG_NOT_INITIALIZED:
 137:/mnt/c/Users/31740/Desktop/newcore/include/linux/blkdev.h ****             return "BLOCK_DEVICE_FLAG_NOT_INITIALIZED";
 138:/mnt/c/Users/31740/Desktop/newcore/include/linux/blkdev.h ****         case BLOCK_DEVICE_FLAG_BROKEN_MBR:
 139:/mnt/c/Users/31740/Desktop/newcore/include/linux/blkdev.h ****             return "BLOCK_DEVICE_FLAG_BROKEN_MBR";
 140:/mnt/c/Users/31740/Desktop/newcore/include/linux/blkdev.h ****         case BLOCK_DEVICE_FLAG_BROKEN_GPT:
 141:/mnt/c/Users/31740/Desktop/newcore/include/linux/blkdev.h ****             return "BLOCK_DEVICE_FLAG_BROKEN_GPT";
 142:/mnt/c/Users/31740/Desktop/newcore/include/linux/blkdev.h ****         case BLOCK_DEVICE_FLAG_BROKEN_PROTECTIVE_MBR:
 143:/mnt/c/Users/31740/Desktop/newcore/include/linux/blkdev.h ****             return "BLOCK_DEVICE_FLAG_BROKEN_PROTECTIVE_MBR";
 144:/mnt/c/Users/31740/Desktop/newcore/include/linux/blkdev.h ****         default:
 145:/mnt/c/Users/31740/Desktop/newcore/include/linux/blkdev.h ****             return "Unknown flag";
 146:/mnt/c/Users/31740/Desktop/newcore/include/linux/blkdev.h ****     }
 147:/mnt/c/Users/31740/Desktop/newcore/include/linux/blkdev.h **** }
 148:/mnt/c/Users/31740/Desktop/newcore/include/linux/blkdev.h **** 
 149:/mnt/c/Users/31740/Desktop/newcore/include/linux/blkdev.h **** 
 150:/mnt/c/Users/31740/Desktop/newcore/include/linux/blkdev.h **** 
 151:/mnt/c/Users/31740/Desktop/newcore/include/linux/blkdev.h **** struct gpt_header {
 152:/mnt/c/Users/31740/Desktop/newcore/include/linux/blkdev.h ****     uint64_t signature;             //  "EFI PART"
 153:/mnt/c/Users/31740/Desktop/newcore/include/linux/blkdev.h ****     uint32_t revision;              // 0x00010000
 154:/mnt/c/Users/31740/Desktop/newcore/include/linux/blkdev.h ****     uint32_t header_size;           // 92
 155:/mnt/c/Users/31740/Desktop/newcore/include/linux/blkdev.h ****     uint32_t header_crc32;          // CRC32
 156:/mnt/c/Users/31740/Desktop/newcore/include/linux/blkdev.h ****     uint32_t reserved;              // 
 157:/mnt/c/Users/31740/Desktop/newcore/include/linux/blkdev.h ****     uint64_t my_lba;                // GPTLBA
 158:/mnt/c/Users/31740/Desktop/newcore/include/linux/blkdev.h ****     uint64_t backup_lba;            // GPTLBA
 159:/mnt/c/Users/31740/Desktop/newcore/include/linux/blkdev.h ****     uint64_t first_usable_lba;      // LBAGPT
 160:/mnt/c/Users/31740/Desktop/newcore/include/linux/blkdev.h ****     uint64_t last_usable_lba;       // LBAGPT
ARM GAS  /tmp/ccyCLDig.s 			page 159


 161:/mnt/c/Users/31740/Desktop/newcore/include/linux/blkdev.h ****     uint8_t disk_guid[16];          // GUID
 162:/mnt/c/Users/31740/Desktop/newcore/include/linux/blkdev.h ****     uint64_t partition_entry_start_lba; // LBA
 163:/mnt/c/Users/31740/Desktop/newcore/include/linux/blkdev.h ****     uint32_t partition_entry_count; //     
 164:/mnt/c/Users/31740/Desktop/newcore/include/linux/blkdev.h ****     uint32_t partition_entry_size;  // 
 165:/mnt/c/Users/31740/Desktop/newcore/include/linux/blkdev.h ****     uint32_t partition_entry_crc32; // CRC32
 166:/mnt/c/Users/31740/Desktop/newcore/include/linux/blkdev.h **** } __attribute__((packed));
 167:/mnt/c/Users/31740/Desktop/newcore/include/linux/blkdev.h **** 
 168:/mnt/c/Users/31740/Desktop/newcore/include/linux/blkdev.h **** 
 169:/mnt/c/Users/31740/Desktop/newcore/include/linux/blkdev.h **** struct gpt_partition_entry {
 170:/mnt/c/Users/31740/Desktop/newcore/include/linux/blkdev.h ****     uint8_t partition_type_guid[16];   // GUID
 171:/mnt/c/Users/31740/Desktop/newcore/include/linux/blkdev.h ****     uint8_t unique_partition_guid[16]; // GUID
 172:/mnt/c/Users/31740/Desktop/newcore/include/linux/blkdev.h ****     uint64_t starting_lba;             // LBA
 173:/mnt/c/Users/31740/Desktop/newcore/include/linux/blkdev.h ****     uint64_t ending_lba;               // LBA
 174:/mnt/c/Users/31740/Desktop/newcore/include/linux/blkdev.h ****     uint64_t attributes;               // 
 175:/mnt/c/Users/31740/Desktop/newcore/include/linux/blkdev.h ****     uint16_t partition_name[36];       // UTF-16
 176:/mnt/c/Users/31740/Desktop/newcore/include/linux/blkdev.h **** }__attribute__((packed));
 177:/mnt/c/Users/31740/Desktop/newcore/include/linux/blkdev.h **** 
 178:/mnt/c/Users/31740/Desktop/newcore/include/linux/blkdev.h **** 
 179:/mnt/c/Users/31740/Desktop/newcore/include/linux/blkdev.h **** struct gpt_partition {
 180:/mnt/c/Users/31740/Desktop/newcore/include/linux/blkdev.h ****     struct gpt_header header;
 181:/mnt/c/Users/31740/Desktop/newcore/include/linux/blkdev.h ****     struct gpt_partition_entry entries[8];
 182:/mnt/c/Users/31740/Desktop/newcore/include/linux/blkdev.h **** };
 183:/mnt/c/Users/31740/Desktop/newcore/include/linux/blkdev.h **** 
 184:/mnt/c/Users/31740/Desktop/newcore/include/linux/blkdev.h **** 
 185:/mnt/c/Users/31740/Desktop/newcore/include/linux/blkdev.h **** struct mbr_partition {
 186:/mnt/c/Users/31740/Desktop/newcore/include/linux/blkdev.h ****     uint8_t boot_ind;   // 0x80
 187:/mnt/c/Users/31740/Desktop/newcore/include/linux/blkdev.h ****     
 188:/mnt/c/Users/31740/Desktop/newcore/include/linux/blkdev.h ****     uint8_t start_head; 
 189:/mnt/c/Users/31740/Desktop/newcore/include/linux/blkdev.h ****     uint8_t start_sector; 
 190:/mnt/c/Users/31740/Desktop/newcore/include/linux/blkdev.h ****     uint8_t start_cyl;  
 191:/mnt/c/Users/31740/Desktop/newcore/include/linux/blkdev.h **** 
 192:/mnt/c/Users/31740/Desktop/newcore/include/linux/blkdev.h ****     uint8_t sys_ind;    // id()
 193:/mnt/c/Users/31740/Desktop/newcore/include/linux/blkdev.h **** 
 194:/mnt/c/Users/31740/Desktop/newcore/include/linux/blkdev.h ****     uint8_t end_head;   
 195:/mnt/c/Users/31740/Desktop/newcore/include/linux/blkdev.h ****     uint8_t end_sector; 
 196:/mnt/c/Users/31740/Desktop/newcore/include/linux/blkdev.h ****     uint8_t end_cyl;    
 197:/mnt/c/Users/31740/Desktop/newcore/include/linux/blkdev.h ****     
 198:/mnt/c/Users/31740/Desktop/newcore/include/linux/blkdev.h ****     uint32_t start_lba; // 
 199:/mnt/c/Users/31740/Desktop/newcore/include/linux/blkdev.h ****     
 200:/mnt/c/Users/31740/Desktop/newcore/include/linux/blkdev.h ****     uint32_t nr_sectors; // 
 201:/mnt/c/Users/31740/Desktop/newcore/include/linux/blkdev.h **** }__attribute__((packed));
 202:/mnt/c/Users/31740/Desktop/newcore/include/linux/blkdev.h **** 
 203:/mnt/c/Users/31740/Desktop/newcore/include/linux/blkdev.h **** 
 204:/mnt/c/Users/31740/Desktop/newcore/include/linux/blkdev.h **** struct partition {
 205:/mnt/c/Users/31740/Desktop/newcore/include/linux/blkdev.h **** 	struct gpt_partition gpt_partition;
 206:/mnt/c/Users/31740/Desktop/newcore/include/linux/blkdev.h **** 	struct mbr_partition mbr_partition[4];   
 207:/mnt/c/Users/31740/Desktop/newcore/include/linux/blkdev.h **** };
 208:/mnt/c/Users/31740/Desktop/newcore/include/linux/blkdev.h **** 
 209:/mnt/c/Users/31740/Desktop/newcore/include/linux/blkdev.h **** 
 210:/mnt/c/Users/31740/Desktop/newcore/include/linux/blkdev.h **** 
 211:/mnt/c/Users/31740/Desktop/newcore/include/linux/blkdev.h **** 
 212:/mnt/c/Users/31740/Desktop/newcore/include/linux/blkdev.h **** 
 213:/mnt/c/Users/31740/Desktop/newcore/include/linux/blkdev.h **** struct gendisk {
 214:/mnt/c/Users/31740/Desktop/newcore/include/linux/blkdev.h **** 	int major;
 215:/mnt/c/Users/31740/Desktop/newcore/include/linux/blkdev.h **** 	int first_minor;
 216:/mnt/c/Users/31740/Desktop/newcore/include/linux/blkdev.h **** 	int minors;
 217:/mnt/c/Users/31740/Desktop/newcore/include/linux/blkdev.h **** 	char disk_name[DISK_NAME_LEN];	/* name of major driver */
ARM GAS  /tmp/ccyCLDig.s 			page 160


 218:/mnt/c/Users/31740/Desktop/newcore/include/linux/blkdev.h **** 	unsigned short events;		/* supported events */
 219:/mnt/c/Users/31740/Desktop/newcore/include/linux/blkdev.h **** 	unsigned short event_flags;	/* flags related to event processing */
 220:/mnt/c/Users/31740/Desktop/newcore/include/linux/blkdev.h **** 	struct xarray part_tbl;
 221:/mnt/c/Users/31740/Desktop/newcore/include/linux/blkdev.h **** 	struct block_device *part0;
 222:/mnt/c/Users/31740/Desktop/newcore/include/linux/blkdev.h **** 	const struct block_device_operations *fops; 
 223:/mnt/c/Users/31740/Desktop/newcore/include/linux/blkdev.h ****  	struct request_queue *queue;
 224:/mnt/c/Users/31740/Desktop/newcore/include/linux/blkdev.h **** 	void *private_data;
 225:/mnt/c/Users/31740/Desktop/newcore/include/linux/blkdev.h **** 
 226:/mnt/c/Users/31740/Desktop/newcore/include/linux/blkdev.h **** //	struct bio_set bio_split;    /**/
 227:/mnt/c/Users/31740/Desktop/newcore/include/linux/blkdev.h **** 
 228:/mnt/c/Users/31740/Desktop/newcore/include/linux/blkdev.h **** 	int flags;
 229:/mnt/c/Users/31740/Desktop/newcore/include/linux/blkdev.h **** 	unsigned long state;
 230:/mnt/c/Users/31740/Desktop/newcore/include/linux/blkdev.h **** 
 231:/mnt/c/Users/31740/Desktop/newcore/include/linux/blkdev.h **** #define GD_NEED_PART_SCAN		0
 232:/mnt/c/Users/31740/Desktop/newcore/include/linux/blkdev.h **** #define GD_READ_ONLY			1
 233:/mnt/c/Users/31740/Desktop/newcore/include/linux/blkdev.h **** #define GD_DEAD				2
 234:/mnt/c/Users/31740/Desktop/newcore/include/linux/blkdev.h **** #define GD_NATIVE_CAPACITY		3
 235:/mnt/c/Users/31740/Desktop/newcore/include/linux/blkdev.h **** #define GD_ADDED			4
 236:/mnt/c/Users/31740/Desktop/newcore/include/linux/blkdev.h **** #define GD_SUPPRESS_PART_SCAN		5
 237:/mnt/c/Users/31740/Desktop/newcore/include/linux/blkdev.h **** #define GD_OWNS_QUEUE			6
 238:/mnt/c/Users/31740/Desktop/newcore/include/linux/blkdev.h **** 
 239:/mnt/c/Users/31740/Desktop/newcore/include/linux/blkdev.h **** 	struct mutex open_mutex;	/* open/close mutex */
 240:/mnt/c/Users/31740/Desktop/newcore/include/linux/blkdev.h **** 	unsigned open_partitions;	/* number of open partitions */   
 241:/mnt/c/Users/31740/Desktop/newcore/include/linux/blkdev.h **** //	struct backing_dev_info	*bdi;
 242:/mnt/c/Users/31740/Desktop/newcore/include/linux/blkdev.h **** //	struct kobject queue_kobj;	/* the queue/ directory */
 243:/mnt/c/Users/31740/Desktop/newcore/include/linux/blkdev.h **** // 	struct kobject *slave_dir;
 244:/mnt/c/Users/31740/Desktop/newcore/include/linux/blkdev.h **** #ifdef CONFIG_BLOCK_HOLDER_DEPRECATED
 245:/mnt/c/Users/31740/Desktop/newcore/include/linux/blkdev.h **** 	  struct list_head slave_bdevs;
 246:/mnt/c/Users/31740/Desktop/newcore/include/linux/blkdev.h **** #endif
 247:/mnt/c/Users/31740/Desktop/newcore/include/linux/blkdev.h **** 	int node_id;
 248:/mnt/c/Users/31740/Desktop/newcore/include/linux/blkdev.h **** //	struct badblocks *bb;
 249:/mnt/c/Users/31740/Desktop/newcore/include/linux/blkdev.h **** 	struct lockdep_map lockdep_map;
 250:/mnt/c/Users/31740/Desktop/newcore/include/linux/blkdev.h **** 	u64 diskseq;
 251:/mnt/c/Users/31740/Desktop/newcore/include/linux/blkdev.h **** 	blk_mode_t open_mode;
 252:/mnt/c/Users/31740/Desktop/newcore/include/linux/blkdev.h **** 	struct blk_independent_access_ranges *ia_ranges;
 253:/mnt/c/Users/31740/Desktop/newcore/include/linux/blkdev.h **** };
 254:/mnt/c/Users/31740/Desktop/newcore/include/linux/blkdev.h **** 
 255:/mnt/c/Users/31740/Desktop/newcore/include/linux/blkdev.h **** 
 256:/mnt/c/Users/31740/Desktop/newcore/include/linux/blkdev.h **** 
 257:/mnt/c/Users/31740/Desktop/newcore/include/linux/blkdev.h **** 
 258:/mnt/c/Users/31740/Desktop/newcore/include/linux/blkdev.h **** typedef unsigned int __bitwise blk_features_t;
 259:/mnt/c/Users/31740/Desktop/newcore/include/linux/blkdev.h **** /* internal flags in queue_limits.flags */
 260:/mnt/c/Users/31740/Desktop/newcore/include/linux/blkdev.h **** typedef unsigned int __bitwise blk_flags_t;
 261:/mnt/c/Users/31740/Desktop/newcore/include/linux/blkdev.h **** 
 262:/mnt/c/Users/31740/Desktop/newcore/include/linux/blkdev.h **** struct queue_limits {
 263:/mnt/c/Users/31740/Desktop/newcore/include/linux/blkdev.h **** 	blk_features_t		features;
 264:/mnt/c/Users/31740/Desktop/newcore/include/linux/blkdev.h **** 	blk_flags_t		flags;
 265:/mnt/c/Users/31740/Desktop/newcore/include/linux/blkdev.h **** 	unsigned long		seg_boundary_mask;
 266:/mnt/c/Users/31740/Desktop/newcore/include/linux/blkdev.h **** 	unsigned long		virt_boundary_mask;
 267:/mnt/c/Users/31740/Desktop/newcore/include/linux/blkdev.h **** 
 268:/mnt/c/Users/31740/Desktop/newcore/include/linux/blkdev.h **** 	unsigned int		max_hw_sectors;
 269:/mnt/c/Users/31740/Desktop/newcore/include/linux/blkdev.h **** 	unsigned int		max_dev_sectors;
 270:/mnt/c/Users/31740/Desktop/newcore/include/linux/blkdev.h **** 	unsigned int		chunk_sectors;
 271:/mnt/c/Users/31740/Desktop/newcore/include/linux/blkdev.h **** 	unsigned int		max_sectors;
 272:/mnt/c/Users/31740/Desktop/newcore/include/linux/blkdev.h **** 	unsigned int		max_user_sectors;
 273:/mnt/c/Users/31740/Desktop/newcore/include/linux/blkdev.h **** 	unsigned int		max_segment_size;
 274:/mnt/c/Users/31740/Desktop/newcore/include/linux/blkdev.h **** 	unsigned int		physical_block_size;
ARM GAS  /tmp/ccyCLDig.s 			page 161


 275:/mnt/c/Users/31740/Desktop/newcore/include/linux/blkdev.h **** 	unsigned int		logical_block_size;
 276:/mnt/c/Users/31740/Desktop/newcore/include/linux/blkdev.h **** 	unsigned int		alignment_offset;
 277:/mnt/c/Users/31740/Desktop/newcore/include/linux/blkdev.h **** 	unsigned int		io_min;
 278:/mnt/c/Users/31740/Desktop/newcore/include/linux/blkdev.h **** 	unsigned int		io_opt;
 279:/mnt/c/Users/31740/Desktop/newcore/include/linux/blkdev.h **** 	unsigned int		max_discard_sectors;
 280:/mnt/c/Users/31740/Desktop/newcore/include/linux/blkdev.h **** 	unsigned int		max_hw_discard_sectors;
 281:/mnt/c/Users/31740/Desktop/newcore/include/linux/blkdev.h **** 	unsigned int		max_user_discard_sectors;
 282:/mnt/c/Users/31740/Desktop/newcore/include/linux/blkdev.h **** 	unsigned int		max_secure_erase_sectors;
 283:/mnt/c/Users/31740/Desktop/newcore/include/linux/blkdev.h **** 	unsigned int		max_write_zeroes_sectors;
 284:/mnt/c/Users/31740/Desktop/newcore/include/linux/blkdev.h **** 	unsigned int		max_hw_zone_append_sectors;
 285:/mnt/c/Users/31740/Desktop/newcore/include/linux/blkdev.h **** 	unsigned int		max_zone_append_sectors;
 286:/mnt/c/Users/31740/Desktop/newcore/include/linux/blkdev.h **** 	unsigned int		discard_granularity;
 287:/mnt/c/Users/31740/Desktop/newcore/include/linux/blkdev.h **** 	unsigned int		discard_alignment;
 288:/mnt/c/Users/31740/Desktop/newcore/include/linux/blkdev.h **** 	unsigned int		zone_write_granularity;
 289:/mnt/c/Users/31740/Desktop/newcore/include/linux/blkdev.h **** 
 290:/mnt/c/Users/31740/Desktop/newcore/include/linux/blkdev.h **** 	/* atomic write limits */
 291:/mnt/c/Users/31740/Desktop/newcore/include/linux/blkdev.h **** 	unsigned int		atomic_write_hw_max;
 292:/mnt/c/Users/31740/Desktop/newcore/include/linux/blkdev.h **** 	unsigned int		atomic_write_max_sectors;
 293:/mnt/c/Users/31740/Desktop/newcore/include/linux/blkdev.h **** 	unsigned int		atomic_write_hw_boundary;
 294:/mnt/c/Users/31740/Desktop/newcore/include/linux/blkdev.h **** 	unsigned int		atomic_write_boundary_sectors;
 295:/mnt/c/Users/31740/Desktop/newcore/include/linux/blkdev.h **** 	unsigned int		atomic_write_hw_unit_min;
 296:/mnt/c/Users/31740/Desktop/newcore/include/linux/blkdev.h **** 	unsigned int		atomic_write_unit_min;
 297:/mnt/c/Users/31740/Desktop/newcore/include/linux/blkdev.h **** 	unsigned int		atomic_write_hw_unit_max;
 298:/mnt/c/Users/31740/Desktop/newcore/include/linux/blkdev.h **** 	unsigned int		atomic_write_unit_max;
 299:/mnt/c/Users/31740/Desktop/newcore/include/linux/blkdev.h **** 
 300:/mnt/c/Users/31740/Desktop/newcore/include/linux/blkdev.h **** 	unsigned short		max_segments;
 301:/mnt/c/Users/31740/Desktop/newcore/include/linux/blkdev.h **** 	unsigned short		max_integrity_segments;
 302:/mnt/c/Users/31740/Desktop/newcore/include/linux/blkdev.h **** 	unsigned short		max_discard_segments;
 303:/mnt/c/Users/31740/Desktop/newcore/include/linux/blkdev.h **** 
 304:/mnt/c/Users/31740/Desktop/newcore/include/linux/blkdev.h **** 	unsigned int		max_open_zones;
 305:/mnt/c/Users/31740/Desktop/newcore/include/linux/blkdev.h **** 	unsigned int		max_active_zones;
 306:/mnt/c/Users/31740/Desktop/newcore/include/linux/blkdev.h **** 
 307:/mnt/c/Users/31740/Desktop/newcore/include/linux/blkdev.h **** 	/*
 308:/mnt/c/Users/31740/Desktop/newcore/include/linux/blkdev.h **** 	 * Drivers that set dma_alignment to less than 511 must be prepared to
 309:/mnt/c/Users/31740/Desktop/newcore/include/linux/blkdev.h **** 	 * handle individual bvec's that are not a multiple of a SECTOR_SIZE
 310:/mnt/c/Users/31740/Desktop/newcore/include/linux/blkdev.h **** 	 * due to possible offsets.
 311:/mnt/c/Users/31740/Desktop/newcore/include/linux/blkdev.h **** 	 */
 312:/mnt/c/Users/31740/Desktop/newcore/include/linux/blkdev.h **** 	unsigned int		dma_alignment;
 313:/mnt/c/Users/31740/Desktop/newcore/include/linux/blkdev.h **** 	unsigned int		dma_pad_mask;
 314:/mnt/c/Users/31740/Desktop/newcore/include/linux/blkdev.h **** 
 315:/mnt/c/Users/31740/Desktop/newcore/include/linux/blkdev.h **** 	struct blk_integrity	integrity;
 316:/mnt/c/Users/31740/Desktop/newcore/include/linux/blkdev.h **** };
 317:/mnt/c/Users/31740/Desktop/newcore/include/linux/blkdev.h **** 
 318:/mnt/c/Users/31740/Desktop/newcore/include/linux/blkdev.h **** struct blk_zone {
 319:/mnt/c/Users/31740/Desktop/newcore/include/linux/blkdev.h **** 	uint8_t magic;
 320:/mnt/c/Users/31740/Desktop/newcore/include/linux/blkdev.h **** };
 321:/mnt/c/Users/31740/Desktop/newcore/include/linux/blkdev.h **** 
 322:/mnt/c/Users/31740/Desktop/newcore/include/linux/blkdev.h **** typedef int (*report_zones_cb)(struct blk_zone *zone, unsigned int idx,
 323:/mnt/c/Users/31740/Desktop/newcore/include/linux/blkdev.h ****     void *data);
 324:/mnt/c/Users/31740/Desktop/newcore/include/linux/blkdev.h **** 
 325:/mnt/c/Users/31740/Desktop/newcore/include/linux/blkdev.h **** 
 326:/mnt/c/Users/31740/Desktop/newcore/include/linux/blkdev.h **** 
 327:/mnt/c/Users/31740/Desktop/newcore/include/linux/blkdev.h **** // struct request_queue {
 328:/mnt/c/Users/31740/Desktop/newcore/include/linux/blkdev.h **** 
 329:/mnt/c/Users/31740/Desktop/newcore/include/linux/blkdev.h **** // 	void			*queuedata;           //
 330:/mnt/c/Users/31740/Desktop/newcore/include/linux/blkdev.h **** // 	struct elevator_queue	*elevator;   //io
 331:/mnt/c/Users/31740/Desktop/newcore/include/linux/blkdev.h **** // 	const struct blk_mq_ops	*mq_ops;     //
ARM GAS  /tmp/ccyCLDig.s 			page 162


 332:/mnt/c/Users/31740/Desktop/newcore/include/linux/blkdev.h **** // 	struct blk_mq_ctx __percpu	*queue_ctx; // CPU 
 333:/mnt/c/Users/31740/Desktop/newcore/include/linux/blkdev.h **** // 	unsigned long		queue_flags;         //
 334:/mnt/c/Users/31740/Desktop/newcore/include/linux/blkdev.h **** // 	unsigned int		rq_timeout;        //
 335:/mnt/c/Users/31740/Desktop/newcore/include/linux/blkdev.h **** // 	unsigned int		queue_depth;       //
 336:/mnt/c/Users/31740/Desktop/newcore/include/linux/blkdev.h **** // 	refcount_t		refs;              //
 337:/mnt/c/Users/31740/Desktop/newcore/include/linux/blkdev.h **** // 	unsigned int		nr_hw_queues;  //
 338:/mnt/c/Users/31740/Desktop/newcore/include/linux/blkdev.h **** // 	struct xarray		hctx_table;     //hardware context
 339:/mnt/c/Users/31740/Desktop/newcore/include/linux/blkdev.h **** // 	struct percpu_ref	q_usage_counter; //
 340:/mnt/c/Users/31740/Desktop/newcore/include/linux/blkdev.h **** // 	struct lock_class_key	io_lock_cls_key; //I/O 
 341:/mnt/c/Users/31740/Desktop/newcore/include/linux/blkdev.h **** // 	struct lockdep_map	io_lockdep_map;     
 342:/mnt/c/Users/31740/Desktop/newcore/include/linux/blkdev.h **** // 	struct lock_class_key	q_lock_cls_key;   //
 343:/mnt/c/Users/31740/Desktop/newcore/include/linux/blkdev.h **** // 	struct lockdep_map	q_lockdep_map;
 344:/mnt/c/Users/31740/Desktop/newcore/include/linux/blkdev.h **** // 	struct request		*last_merge;          //
 345:/mnt/c/Users/31740/Desktop/newcore/include/linux/blkdev.h **** // 	spinlock_t		queue_lock;				  //
 346:/mnt/c/Users/31740/Desktop/newcore/include/linux/blkdev.h **** // 	int			quiesce_depth;			     //quiesce
 347:/mnt/c/Users/31740/Desktop/newcore/include/linux/blkdev.h **** // 	struct gendisk		*disk;				//
 348:/mnt/c/Users/31740/Desktop/newcore/include/linux/blkdev.h **** // 	struct kobject *mq_kobj; // sysfs 
 349:/mnt/c/Users/31740/Desktop/newcore/include/linux/blkdev.h **** // 	struct queue_limits	limits;//
 350:/mnt/c/Users/31740/Desktop/newcore/include/linux/blkdev.h **** // 	atomic_t		pm_only;     //
 351:/mnt/c/Users/31740/Desktop/newcore/include/linux/blkdev.h **** // 	struct blk_queue_stats	*stats; //
 352:/mnt/c/Users/31740/Desktop/newcore/include/linux/blkdev.h **** // 	struct rq_qos		*rq_qos;         //QoS
 353:/mnt/c/Users/31740/Desktop/newcore/include/linux/blkdev.h **** // 	struct mutex		rq_qos_mutex;
 354:/mnt/c/Users/31740/Desktop/newcore/include/linux/blkdev.h **** // 	int			id;							//
 355:/mnt/c/Users/31740/Desktop/newcore/include/linux/blkdev.h **** // 	unsigned long		nr_requests;	    //
 356:/mnt/c/Users/31740/Desktop/newcore/include/linux/blkdev.h **** // 	struct timer_list	timeout;			//
 357:/mnt/c/Users/31740/Desktop/newcore/include/linux/blkdev.h **** // 	struct work_struct	timeout_work;
 358:/mnt/c/Users/31740/Desktop/newcore/include/linux/blkdev.h **** // 	atomic_t		nr_active_requests_shared_tags; //
 359:/mnt/c/Users/31740/Desktop/newcore/include/linux/blkdev.h **** // 	struct blk_mq_tags	*sched_shared_tags;           //
 360:/mnt/c/Users/31740/Desktop/newcore/include/linux/blkdev.h **** // 	struct list_head	icq_list;          //I/O 
 361:/mnt/c/Users/31740/Desktop/newcore/include/linux/blkdev.h **** // 	int			node;					//NUMA  ID
 362:/mnt/c/Users/31740/Desktop/newcore/include/linux/blkdev.h **** // 	spinlock_t		requeue_lock;    //
 363:/mnt/c/Users/31740/Desktop/newcore/include/linux/blkdev.h **** // 	struct list_head	requeue_list;
 364:/mnt/c/Users/31740/Desktop/newcore/include/linux/blkdev.h **** //     struct delayed_work	requeue_work;
 365:/mnt/c/Users/31740/Desktop/newcore/include/linux/blkdev.h **** // 	struct blk_flush_queue	*fq;        //
 366:/mnt/c/Users/31740/Desktop/newcore/include/linux/blkdev.h **** // 	struct list_head	flush_list;
 367:/mnt/c/Users/31740/Desktop/newcore/include/linux/blkdev.h **** // 	struct mutex		sysfs_lock;          //sysfs 
 368:/mnt/c/Users/31740/Desktop/newcore/include/linux/blkdev.h **** // 	struct mutex		sysfs_dir_lock;
 369:/mnt/c/Users/31740/Desktop/newcore/include/linux/blkdev.h **** // 	struct mutex		limits_lock;
 370:/mnt/c/Users/31740/Desktop/newcore/include/linux/blkdev.h **** // 	struct list_head	unused_hctx_list;     //
 371:/mnt/c/Users/31740/Desktop/newcore/include/linux/blkdev.h **** // 	spinlock_t		unused_hctx_lock;
 372:/mnt/c/Users/31740/Desktop/newcore/include/linux/blkdev.h **** // 	int			mq_freeze_depth;             //
 373:/mnt/c/Users/31740/Desktop/newcore/include/linux/blkdev.h **** // 	struct rcu_head		rcu_head;           //RCURead-Copy-Update
 374:/mnt/c/Users/31740/Desktop/newcore/include/linux/blkdev.h **** // 	wait_queue_head_t	mq_freeze_wq;         //
 375:/mnt/c/Users/31740/Desktop/newcore/include/linux/blkdev.h **** // 	struct mutex		mq_freeze_lock; 
 376:/mnt/c/Users/31740/Desktop/newcore/include/linux/blkdev.h **** // 	struct blk_mq_tag_set	*tag_set;       //
 377:/mnt/c/Users/31740/Desktop/newcore/include/linux/blkdev.h **** // 	struct list_head	tag_set_list;
 378:/mnt/c/Users/31740/Desktop/newcore/include/linux/blkdev.h **** // 	struct dentry		*debugfs_dir;       //debugfs 
 379:/mnt/c/Users/31740/Desktop/newcore/include/linux/blkdev.h **** // 	struct dentry		*sched_debugfs_dir;
 380:/mnt/c/Users/31740/Desktop/newcore/include/linux/blkdev.h **** // 	struct dentry		*rqos_debugfs_dir;
 381:/mnt/c/Users/31740/Desktop/newcore/include/linux/blkdev.h **** // 	struct mutex		debugfs_mutex;     //debugfs 
 382:/mnt/c/Users/31740/Desktop/newcore/include/linux/blkdev.h **** // 	bool			mq_sysfs_init_done;    // sysfs 
 383:/mnt/c/Users/31740/Desktop/newcore/include/linux/blkdev.h **** // };
 384:/mnt/c/Users/31740/Desktop/newcore/include/linux/blkdev.h **** 
 385:/mnt/c/Users/31740/Desktop/newcore/include/linux/blkdev.h **** 
 386:/mnt/c/Users/31740/Desktop/newcore/include/linux/blkdev.h **** typedef void(*request_fn_t)(struct request *req);
 387:/mnt/c/Users/31740/Desktop/newcore/include/linux/blkdev.h **** 
 388:/mnt/c/Users/31740/Desktop/newcore/include/linux/blkdev.h **** struct request_queue {
ARM GAS  /tmp/ccyCLDig.s 			page 163


 389:/mnt/c/Users/31740/Desktop/newcore/include/linux/blkdev.h **** 
 390:/mnt/c/Users/31740/Desktop/newcore/include/linux/blkdev.h **** 	void			*queuedata;             //
 391:/mnt/c/Users/31740/Desktop/newcore/include/linux/blkdev.h **** 	struct request		*last_merge;        //
 392:/mnt/c/Users/31740/Desktop/newcore/include/linux/blkdev.h **** 	spinlock_t		queue_lock;				//
 393:/mnt/c/Users/31740/Desktop/newcore/include/linux/blkdev.h **** 	int			quiesce_depth;			    //quiesce
 394:/mnt/c/Users/31740/Desktop/newcore/include/linux/blkdev.h **** 	struct gendisk		*disk;				//
 395:/mnt/c/Users/31740/Desktop/newcore/include/linux/blkdev.h **** 	struct queue_limits	limits;             //
 396:/mnt/c/Users/31740/Desktop/newcore/include/linux/blkdev.h **** 	int			id;							//
 397:/mnt/c/Users/31740/Desktop/newcore/include/linux/blkdev.h **** 	unsigned long		nr_requests;	    //
 398:/mnt/c/Users/31740/Desktop/newcore/include/linux/blkdev.h **** 	struct list_head	icq_list;           //I/O 
 399:/mnt/c/Users/31740/Desktop/newcore/include/linux/blkdev.h **** 	int			node;					    //NUMA  ID
 400:/mnt/c/Users/31740/Desktop/newcore/include/linux/blkdev.h **** 	request_fn_t q_fn;                      //
 401:/mnt/c/Users/31740/Desktop/newcore/include/linux/blkdev.h **** 	spinlock_t*  q_lock;
 402:/mnt/c/Users/31740/Desktop/newcore/include/linux/blkdev.h **** };
 403:/mnt/c/Users/31740/Desktop/newcore/include/linux/blkdev.h **** 
 404:/mnt/c/Users/31740/Desktop/newcore/include/linux/blkdev.h **** 
 405:/mnt/c/Users/31740/Desktop/newcore/include/linux/blkdev.h **** 
 406:/mnt/c/Users/31740/Desktop/newcore/include/linux/blkdev.h **** 
 407:/mnt/c/Users/31740/Desktop/newcore/include/linux/blkdev.h **** static inline dev_t disk_devt(struct gendisk *disk)
 408:/mnt/c/Users/31740/Desktop/newcore/include/linux/blkdev.h **** {
 409:/mnt/c/Users/31740/Desktop/newcore/include/linux/blkdev.h **** 	return MKDEV(disk->major, disk->first_minor);
 410:/mnt/c/Users/31740/Desktop/newcore/include/linux/blkdev.h **** }
 411:/mnt/c/Users/31740/Desktop/newcore/include/linux/blkdev.h **** 
 412:/mnt/c/Users/31740/Desktop/newcore/include/linux/blkdev.h **** 
 413:/mnt/c/Users/31740/Desktop/newcore/include/linux/blkdev.h **** /* blk_validate_limits() validates bsize, so drivers don't usually need to */
 414:/mnt/c/Users/31740/Desktop/newcore/include/linux/blkdev.h **** static inline int blk_validate_block_size(unsigned long bsize)
 415:/mnt/c/Users/31740/Desktop/newcore/include/linux/blkdev.h **** {
 416:/mnt/c/Users/31740/Desktop/newcore/include/linux/blkdev.h **** 	if (bsize < 512 || bsize > PAGE_SIZE || !is_power_of_2(bsize))
 417:/mnt/c/Users/31740/Desktop/newcore/include/linux/blkdev.h **** 		return -EINVAL;
 418:/mnt/c/Users/31740/Desktop/newcore/include/linux/blkdev.h **** 
 419:/mnt/c/Users/31740/Desktop/newcore/include/linux/blkdev.h **** 	return 0;
 420:/mnt/c/Users/31740/Desktop/newcore/include/linux/blkdev.h **** }
 421:/mnt/c/Users/31740/Desktop/newcore/include/linux/blkdev.h **** 
 422:/mnt/c/Users/31740/Desktop/newcore/include/linux/blkdev.h **** // static inline bool blk_op_is_passthrough(blk_opf_t op)
 423:/mnt/c/Users/31740/Desktop/newcore/include/linux/blkdev.h **** // {
 424:/mnt/c/Users/31740/Desktop/newcore/include/linux/blkdev.h **** // 	op &= REQ_OP_MASK;
 425:/mnt/c/Users/31740/Desktop/newcore/include/linux/blkdev.h **** // 	return op == REQ_OP_DRV_IN || op == REQ_OP_DRV_OUT;
 426:/mnt/c/Users/31740/Desktop/newcore/include/linux/blkdev.h **** // }
 427:/mnt/c/Users/31740/Desktop/newcore/include/linux/blkdev.h **** 
 428:/mnt/c/Users/31740/Desktop/newcore/include/linux/blkdev.h **** 
 429:/mnt/c/Users/31740/Desktop/newcore/include/linux/blkdev.h **** 
 430:/mnt/c/Users/31740/Desktop/newcore/include/linux/blkdev.h **** extern struct request_queue *request_queue_init(int id, struct gendisk *gd,gfp_t flags);
 431:/mnt/c/Users/31740/Desktop/newcore/include/linux/blkdev.h **** 
 432:/mnt/c/Users/31740/Desktop/newcore/include/linux/blkdev.h **** extern void request_queue_add(struct request_queue *q, struct request *req);
 433:/mnt/c/Users/31740/Desktop/newcore/include/linux/blkdev.h **** 
 434:/mnt/c/Users/31740/Desktop/newcore/include/linux/blkdev.h **** extern void request_queue_remove(struct request_queue *q, struct request *req);
 435:/mnt/c/Users/31740/Desktop/newcore/include/linux/blkdev.h **** 
 436:/mnt/c/Users/31740/Desktop/newcore/include/linux/blkdev.h **** extern void process_requests_in_queue(struct request_queue *q);
 437:/mnt/c/Users/31740/Desktop/newcore/include/linux/blkdev.h **** 
 438:/mnt/c/Users/31740/Desktop/newcore/include/linux/blkdev.h **** extern struct request *blk_fetch_request(struct request_queue *q);
 439:/mnt/c/Users/31740/Desktop/newcore/include/linux/blkdev.h **** 
 440:/mnt/c/Users/31740/Desktop/newcore/include/linux/blkdev.h **** extern void __blk_insert_request(struct request *rq, struct bio *bio);
 441:/mnt/c/Users/31740/Desktop/newcore/include/linux/blkdev.h **** 
 442:/mnt/c/Users/31740/Desktop/newcore/include/linux/blkdev.h **** extern void __blk_cleanup_queue(struct request_queue *q);
 443:/mnt/c/Users/31740/Desktop/newcore/include/linux/blkdev.h **** 
 444:/mnt/c/Users/31740/Desktop/newcore/include/linux/blkdev.h **** static __always_inline struct request_queue *blk_alloc_queue(gfp_t flags){
 445:/mnt/c/Users/31740/Desktop/newcore/include/linux/blkdev.h **** 	return request_queue_init(0, NULL, flags);
ARM GAS  /tmp/ccyCLDig.s 			page 164


 446:/mnt/c/Users/31740/Desktop/newcore/include/linux/blkdev.h **** }
 447:/mnt/c/Users/31740/Desktop/newcore/include/linux/blkdev.h **** static __always_inline struct request_queue *blk_init_queue(request_fn_t fn,spinlock_t *lock){
 448:/mnt/c/Users/31740/Desktop/newcore/include/linux/blkdev.h **** 	struct request_queue * q= request_queue_init(0, NULL, GFP_KERNEL);
 449:/mnt/c/Users/31740/Desktop/newcore/include/linux/blkdev.h **** 	q->q_fn = fn;
 450:/mnt/c/Users/31740/Desktop/newcore/include/linux/blkdev.h **** 	q->q_lock = lock;
 451:/mnt/c/Users/31740/Desktop/newcore/include/linux/blkdev.h **** 	return q;
 452:/mnt/c/Users/31740/Desktop/newcore/include/linux/blkdev.h **** }
 453:/mnt/c/Users/31740/Desktop/newcore/include/linux/blkdev.h **** static __always_inline void blk_mq_insert_request(struct request_queue *q, struct request *req){
 454:/mnt/c/Users/31740/Desktop/newcore/include/linux/blkdev.h **** 	request_queue_add(q, req);
 455:/mnt/c/Users/31740/Desktop/newcore/include/linux/blkdev.h **** }
 456:/mnt/c/Users/31740/Desktop/newcore/include/linux/blkdev.h **** static __always_inline void blk_queue_make_request(struct request_queue *q, struct request *req){
 457:/mnt/c/Users/31740/Desktop/newcore/include/linux/blkdev.h **** 	request_queue_add(q, req);
 458:/mnt/c/Users/31740/Desktop/newcore/include/linux/blkdev.h **** }
 459:/mnt/c/Users/31740/Desktop/newcore/include/linux/blkdev.h **** static __always_inline void blk_mq_submit_bio(struct request *rq, struct bio *bio){  
 460:/mnt/c/Users/31740/Desktop/newcore/include/linux/blkdev.h **** 	__blk_insert_request(rq, bio);
 461:/mnt/c/Users/31740/Desktop/newcore/include/linux/blkdev.h **** }
 462:/mnt/c/Users/31740/Desktop/newcore/include/linux/blkdev.h **** static __always_inline void blk_insert_request(struct request_queue *q, struct request *req){
 463:/mnt/c/Users/31740/Desktop/newcore/include/linux/blkdev.h **** 	request_queue_add(q, req);
 464:/mnt/c/Users/31740/Desktop/newcore/include/linux/blkdev.h **** }
 465:/mnt/c/Users/31740/Desktop/newcore/include/linux/blkdev.h **** static __always_inline void blk_submit_bio(struct request *rq, struct bio *bio){  
 466:/mnt/c/Users/31740/Desktop/newcore/include/linux/blkdev.h **** 	__blk_insert_request(rq, bio);
 467:/mnt/c/Users/31740/Desktop/newcore/include/linux/blkdev.h **** }
 468:/mnt/c/Users/31740/Desktop/newcore/include/linux/blkdev.h **** 
 469:/mnt/c/Users/31740/Desktop/newcore/include/linux/blkdev.h **** static __always_inline void blk_mq_end_request(struct request *rq,blk_status_t error){
 1992              		.loc 13 469 29 view .LVU518
 1993              	.LBB141:
 470:/mnt/c/Users/31740/Desktop/newcore/include/linux/blkdev.h **** 	request_queue_remove(rq->q,rq);
 1994              		.loc 13 470 2 view .LVU519
 1995 0162 5146     		mov	r1, r10
 1996 0164 DAF80000 		ldr	r0, [r10]
 1997 0168 FFF7FEFF 		bl	request_queue_remove
 1998              	.LVL190:
 1999              	.L91:
 2000              		.loc 13 470 2 is_stmt 0 view .LVU520
 2001              	.LBE141:
 2002              	.LBE140:
  88:/mnt/c/Users/31740/Desktop/newcore/drivers/storage/w25qxx/w25qxx.c **** }
 2003              		.loc 1 88 1 view .LVU521
 2004 016c 05B0     		add	sp, sp, #20
 2005              	.LCFI35:
 2006              		.cfi_remember_state
 2007              		.cfi_def_cfa_offset 36
 2008              		@ sp needed
 2009 016e BDE8F08F 		pop	{r4, r5, r6, r7, r8, r9, r10, fp, pc}
 2010              	.LVL191:
 2011              	.L111:
 2012              	.LCFI36:
 2013              		.cfi_restore_state
  85:/mnt/c/Users/31740/Desktop/newcore/drivers/storage/w25qxx/w25qxx.c ****     else 
 2014              		.loc 1 85 5 is_stmt 1 view .LVU522
 2015              	.LBB142:
 2016              	.LBI142:
 469:/mnt/c/Users/31740/Desktop/newcore/include/linux/blkdev.h **** 	request_queue_remove(rq->q,rq);
 2017              		.loc 13 469 29 view .LVU523
 2018              	.LBB143:
 2019              		.loc 13 470 2 view .LVU524
 2020 0172 5146     		mov	r1, r10
ARM GAS  /tmp/ccyCLDig.s 			page 165


 2021 0174 DAF80000 		ldr	r0, [r10]
 2022 0178 FFF7FEFF 		bl	request_queue_remove
 2023              	.LVL192:
 471:/mnt/c/Users/31740/Desktop/newcore/include/linux/blkdev.h **** }
 2024              		.loc 13 471 1 is_stmt 0 view .LVU525
 2025 017c F6E7     		b	.L91
 2026              	.LVL193:
 2027              	.L105:
 2028              	.LCFI37:
 2029              		.cfi_def_cfa_offset 0
 2030              		.cfi_restore 4
 2031              		.cfi_restore 5
 2032              		.cfi_restore 6
 2033              		.cfi_restore 7
 2034              		.cfi_restore 8
 2035              		.cfi_restore 9
 2036              		.cfi_restore 10
 2037              		.cfi_restore 11
 2038              		.cfi_restore 14
 2039              		.loc 13 471 1 view .LVU526
 2040 017e 7047     		bx	lr
 2041              	.L113:
 2042              		.align	2
 2043              	.L112:
 2044 0180 00000000 		.word	.LC12
 2045 0184 00000000 		.word	w25qxx1_dev
 2046 0188 20000000 		.word	.LC13
 2047 018c 00000000 		.word	w25qxx_buffer
 2048              	.LBE143:
 2049              	.LBE142:
 2050              		.cfi_endproc
 2051              	.LFE1052:
 2053              		.section	.text.w25qxx_request_queue,"ax",%progbits
 2054              		.align	1
 2055              		.syntax unified
 2056              		.thumb
 2057              		.thumb_func
 2059              	w25qxx_request_queue:
 2060              	.LVL194:
 2061              	.LFB1053:
  89:/mnt/c/Users/31740/Desktop/newcore/drivers/storage/w25qxx/w25qxx.c **** 
  90:/mnt/c/Users/31740/Desktop/newcore/drivers/storage/w25qxx/w25qxx.c **** 
  91:/mnt/c/Users/31740/Desktop/newcore/drivers/storage/w25qxx/w25qxx.c **** static void w25qxx_request_queue(struct request_queue *q)
  92:/mnt/c/Users/31740/Desktop/newcore/drivers/storage/w25qxx/w25qxx.c **** {
 2062              		.loc 1 92 1 is_stmt 1 view -0
 2063              		.cfi_startproc
 2064              		@ args = 0, pretend = 0, frame = 0
 2065              		@ frame_needed = 0, uses_anonymous_args = 0
 2066              		.loc 1 92 1 is_stmt 0 view .LVU528
 2067 0000 10B5     		push	{r4, lr}
 2068              	.LCFI38:
 2069              		.cfi_def_cfa_offset 8
 2070              		.cfi_offset 4, -8
 2071              		.cfi_offset 14, -4
 2072 0002 0446     		mov	r4, r0
  93:/mnt/c/Users/31740/Desktop/newcore/drivers/storage/w25qxx/w25qxx.c ****     struct request *req= blk_fetch_request(q);
 2073              		.loc 1 93 5 is_stmt 1 view .LVU529
ARM GAS  /tmp/ccyCLDig.s 			page 166


 2074              		.loc 1 93 26 is_stmt 0 view .LVU530
 2075 0004 FFF7FEFF 		bl	blk_fetch_request
 2076              	.LVL195:
  94:/mnt/c/Users/31740/Desktop/newcore/drivers/storage/w25qxx/w25qxx.c ****     while (req != NULL){
 2077              		.loc 1 94 5 is_stmt 1 view .LVU531
 2078              		.loc 1 94 11 is_stmt 0 view .LVU532
 2079 0008 04E0     		b	.L115
 2080              	.L116:
  95:/mnt/c/Users/31740/Desktop/newcore/drivers/storage/w25qxx/w25qxx.c ****         w25qxx_request(req);
 2081              		.loc 1 95 9 is_stmt 1 view .LVU533
 2082 000a FFF7FEFF 		bl	w25qxx_request
 2083              	.LVL196:
  96:/mnt/c/Users/31740/Desktop/newcore/drivers/storage/w25qxx/w25qxx.c ****         req = blk_fetch_request(q);
 2084              		.loc 1 96 9 view .LVU534
 2085              		.loc 1 96 15 is_stmt 0 view .LVU535
 2086 000e 2046     		mov	r0, r4
 2087 0010 FFF7FEFF 		bl	blk_fetch_request
 2088              	.LVL197:
 2089              	.L115:
  94:/mnt/c/Users/31740/Desktop/newcore/drivers/storage/w25qxx/w25qxx.c ****     while (req != NULL){
 2090              		.loc 1 94 16 is_stmt 1 view .LVU536
 2091 0014 0028     		cmp	r0, #0
 2092 0016 F8D1     		bne	.L116
  97:/mnt/c/Users/31740/Desktop/newcore/drivers/storage/w25qxx/w25qxx.c ****     };
  98:/mnt/c/Users/31740/Desktop/newcore/drivers/storage/w25qxx/w25qxx.c **** 
  99:/mnt/c/Users/31740/Desktop/newcore/drivers/storage/w25qxx/w25qxx.c **** }
 2093              		.loc 1 99 1 is_stmt 0 view .LVU537
 2094 0018 10BD     		pop	{r4, pc}
 2095              		.loc 1 99 1 view .LVU538
 2096              		.cfi_endproc
 2097              	.LFE1053:
 2099              		.section	.text.blk_cleanup_queue,"ax",%progbits
 2100              		.align	1
 2101              		.syntax unified
 2102              		.thumb
 2103              		.thumb_func
 2105              	blk_cleanup_queue:
 2106              	.LVL198:
 2107              	.LFB1016:
 472:/mnt/c/Users/31740/Desktop/newcore/include/linux/blkdev.h **** 
 473:/mnt/c/Users/31740/Desktop/newcore/include/linux/blkdev.h **** static __always_inline void end_request(struct request *rq){
 474:/mnt/c/Users/31740/Desktop/newcore/include/linux/blkdev.h **** 	request_queue_remove(rq->q,rq);
 475:/mnt/c/Users/31740/Desktop/newcore/include/linux/blkdev.h **** }
 476:/mnt/c/Users/31740/Desktop/newcore/include/linux/blkdev.h **** static void blk_cleanup_queue(struct request_queue *q){
 2108              		.loc 13 476 55 is_stmt 1 view -0
 2109              		.cfi_startproc
 2110              		@ args = 0, pretend = 0, frame = 0
 2111              		@ frame_needed = 0, uses_anonymous_args = 0
 2112              		.loc 13 476 55 is_stmt 0 view .LVU540
 2113 0000 08B5     		push	{r3, lr}
 2114              	.LCFI39:
 2115              		.cfi_def_cfa_offset 8
 2116              		.cfi_offset 3, -8
 2117              		.cfi_offset 14, -4
 477:/mnt/c/Users/31740/Desktop/newcore/include/linux/blkdev.h **** 	__blk_cleanup_queue(q);
 2118              		.loc 13 477 2 is_stmt 1 view .LVU541
 2119 0002 FFF7FEFF 		bl	__blk_cleanup_queue
ARM GAS  /tmp/ccyCLDig.s 			page 167


 2120              	.LVL199:
 478:/mnt/c/Users/31740/Desktop/newcore/include/linux/blkdev.h **** }
 2121              		.loc 13 478 1 is_stmt 0 view .LVU542
 2122 0006 08BD     		pop	{r3, pc}
 2123              		.cfi_endproc
 2124              	.LFE1016:
 2126              		.section	.text.put_disk,"ax",%progbits
 2127              		.align	1
 2128              		.syntax unified
 2129              		.thumb
 2130              		.thumb_func
 2132              	put_disk:
 2133              	.LVL200:
 2134              	.LFB1017:
 479:/mnt/c/Users/31740/Desktop/newcore/include/linux/blkdev.h **** 
 480:/mnt/c/Users/31740/Desktop/newcore/include/linux/blkdev.h **** extern void __put_disk(struct gendisk *disk);
 481:/mnt/c/Users/31740/Desktop/newcore/include/linux/blkdev.h **** 
 482:/mnt/c/Users/31740/Desktop/newcore/include/linux/blkdev.h **** static void put_disk(struct gendisk *disk){
 2135              		.loc 13 482 43 is_stmt 1 view -0
 2136              		.cfi_startproc
 2137              		@ args = 0, pretend = 0, frame = 0
 2138              		@ frame_needed = 0, uses_anonymous_args = 0
 2139              		.loc 13 482 43 is_stmt 0 view .LVU544
 2140 0000 08B5     		push	{r3, lr}
 2141              	.LCFI40:
 2142              		.cfi_def_cfa_offset 8
 2143              		.cfi_offset 3, -8
 2144              		.cfi_offset 14, -4
 483:/mnt/c/Users/31740/Desktop/newcore/include/linux/blkdev.h **** 	__put_disk(disk);
 2145              		.loc 13 483 2 is_stmt 1 view .LVU545
 2146 0002 FFF7FEFF 		bl	__put_disk
 2147              	.LVL201:
 484:/mnt/c/Users/31740/Desktop/newcore/include/linux/blkdev.h **** }
 2148              		.loc 13 484 1 is_stmt 0 view .LVU546
 2149 0006 08BD     		pop	{r3, pc}
 2150              		.cfi_endproc
 2151              	.LFE1017:
 2153              		.section	.rodata.new_w25qxx_dev.str1.4,"aMS",%progbits,1
 2154              		.align	2
 2155              	.LC14:
 2156 0000 6D616C6C 		.ascii	"malloc failed\012\015\000"
 2156      6F632066 
 2156      61696C65 
 2156      640A0D00 
 2157              		.section	.text.new_w25qxx_dev,"ax",%progbits
 2158              		.align	1
 2159              		.global	new_w25qxx_dev
 2160              		.syntax unified
 2161              		.thumb
 2162              		.thumb_func
 2164              	new_w25qxx_dev:
 2165              	.LVL202:
 2166              	.LFB1041:
 130:/mnt/c/Users/31740/Desktop/newcore/drivers/storage/w25qxx/w25qxx.h ****     struct w25qxx_dev *w25qxx_dev = kmalloc(sizeof(struct w25qxx_dev), GFP_KERNEL);
 2167              		.loc 3 130 1 is_stmt 1 view -0
 2168              		.cfi_startproc
 2169              		@ args = 0, pretend = 0, frame = 0
ARM GAS  /tmp/ccyCLDig.s 			page 168


 2170              		@ frame_needed = 0, uses_anonymous_args = 0
 130:/mnt/c/Users/31740/Desktop/newcore/drivers/storage/w25qxx/w25qxx.h ****     struct w25qxx_dev *w25qxx_dev = kmalloc(sizeof(struct w25qxx_dev), GFP_KERNEL);
 2171              		.loc 3 130 1 is_stmt 0 view .LVU548
 2172 0000 70B5     		push	{r4, r5, r6, lr}
 2173              	.LCFI41:
 2174              		.cfi_def_cfa_offset 16
 2175              		.cfi_offset 4, -16
 2176              		.cfi_offset 5, -12
 2177              		.cfi_offset 6, -8
 2178              		.cfi_offset 14, -4
 2179 0002 0646     		mov	r6, r0
 2180 0004 0D46     		mov	r5, r1
 131:/mnt/c/Users/31740/Desktop/newcore/drivers/storage/w25qxx/w25qxx.h ****     if(w25qxx_dev == NULL){
 2181              		.loc 3 131 5 is_stmt 1 view .LVU549
 2182              	.LVL203:
 2183              	.LBB144:
 2184              	.LBI144:
 379:/mnt/c/Users/31740/Desktop/newcore/include/linux/slab.h **** 	return __smalloc__((u32)size,flags);
 2185              		.loc 6 379 21 view .LVU550
 2186              	.LBB145:
 380:/mnt/c/Users/31740/Desktop/newcore/include/linux/slab.h **** }
 2187              		.loc 6 380 2 view .LVU551
 380:/mnt/c/Users/31740/Desktop/newcore/include/linux/slab.h **** }
 2188              		.loc 6 380 9 is_stmt 0 view .LVU552
 2189 0006 4FF44C61 		mov	r1, #3264
 2190              	.LVL204:
 380:/mnt/c/Users/31740/Desktop/newcore/include/linux/slab.h **** }
 2191              		.loc 6 380 9 view .LVU553
 2192 000a 3C20     		movs	r0, #60
 2193              	.LVL205:
 380:/mnt/c/Users/31740/Desktop/newcore/include/linux/slab.h **** }
 2194              		.loc 6 380 9 view .LVU554
 2195 000c FFF7FEFF 		bl	__smalloc__
 2196              	.LVL206:
 380:/mnt/c/Users/31740/Desktop/newcore/include/linux/slab.h **** }
 2197              		.loc 6 380 9 view .LVU555
 2198              	.LBE145:
 2199              	.LBE144:
 132:/mnt/c/Users/31740/Desktop/newcore/drivers/storage/w25qxx/w25qxx.h ****         pr_info("malloc failed\n\r");
 2200              		.loc 3 132 5 is_stmt 1 view .LVU556
 132:/mnt/c/Users/31740/Desktop/newcore/drivers/storage/w25qxx/w25qxx.h ****         pr_info("malloc failed\n\r");
 2201              		.loc 3 132 7 is_stmt 0 view .LVU557
 2202 0010 0446     		mov	r4, r0
 2203 0012 88B1     		cbz	r0, .L126
 136:/mnt/c/Users/31740/Desktop/newcore/drivers/storage/w25qxx/w25qxx.h ****     w25qxx_dev->read_data = w25qxx_read_data;
 2204              		.loc 3 136 5 is_stmt 1 view .LVU558
 136:/mnt/c/Users/31740/Desktop/newcore/drivers/storage/w25qxx/w25qxx.h ****     w25qxx_dev->read_data = w25qxx_read_data;
 2205              		.loc 3 136 27 is_stmt 0 view .LVU559
 2206 0014 0B4B     		ldr	r3, .L127
 2207 0016 C362     		str	r3, [r0, #44]
 137:/mnt/c/Users/31740/Desktop/newcore/drivers/storage/w25qxx/w25qxx.h ****     w25qxx_dev->send_start = set_cs_pin_low;
 2208              		.loc 3 137 5 is_stmt 1 view .LVU560
 137:/mnt/c/Users/31740/Desktop/newcore/drivers/storage/w25qxx/w25qxx.h ****     w25qxx_dev->send_start = set_cs_pin_low;
 2209              		.loc 3 137 27 is_stmt 0 view .LVU561
 2210 0018 0B4B     		ldr	r3, .L127+4
 2211 001a 0363     		str	r3, [r0, #48]
 138:/mnt/c/Users/31740/Desktop/newcore/drivers/storage/w25qxx/w25qxx.h ****     w25qxx_dev->send_stop = set_cs_pin_high;
ARM GAS  /tmp/ccyCLDig.s 			page 169


 2212              		.loc 3 138 5 is_stmt 1 view .LVU562
 138:/mnt/c/Users/31740/Desktop/newcore/drivers/storage/w25qxx/w25qxx.h ****     w25qxx_dev->send_stop = set_cs_pin_high;
 2213              		.loc 3 138 28 is_stmt 0 view .LVU563
 2214 001c 0B4B     		ldr	r3, .L127+8
 2215 001e 4363     		str	r3, [r0, #52]
 139:/mnt/c/Users/31740/Desktop/newcore/drivers/storage/w25qxx/w25qxx.h ****     w25qxx_dev->status = w25qxx_device_init(w25qxx_dev,spi_dev,cs_pin_num);
 2216              		.loc 3 139 5 is_stmt 1 view .LVU564
 139:/mnt/c/Users/31740/Desktop/newcore/drivers/storage/w25qxx/w25qxx.h ****     w25qxx_dev->status = w25qxx_device_init(w25qxx_dev,spi_dev,cs_pin_num);
 2217              		.loc 3 139 27 is_stmt 0 view .LVU565
 2218 0020 0B4B     		ldr	r3, .L127+12
 2219 0022 8363     		str	r3, [r0, #56]
 140:/mnt/c/Users/31740/Desktop/newcore/drivers/storage/w25qxx/w25qxx.h ****     w25qxx_read_id(w25qxx_dev);
 2220              		.loc 3 140 5 is_stmt 1 view .LVU566
 140:/mnt/c/Users/31740/Desktop/newcore/drivers/storage/w25qxx/w25qxx.h ****     w25qxx_read_id(w25qxx_dev);
 2221              		.loc 3 140 26 is_stmt 0 view .LVU567
 2222 0024 2A46     		mov	r2, r5
 2223 0026 3146     		mov	r1, r6
 2224 0028 FFF7FEFF 		bl	w25qxx_device_init
 2225              	.LVL207:
 140:/mnt/c/Users/31740/Desktop/newcore/drivers/storage/w25qxx/w25qxx.h ****     w25qxx_read_id(w25qxx_dev);
 2226              		.loc 3 140 24 discriminator 1 view .LVU568
 2227 002c 2070     		strb	r0, [r4]
 141:/mnt/c/Users/31740/Desktop/newcore/drivers/storage/w25qxx/w25qxx.h ****     if(w25qxx_dev->status < 0){
 2228              		.loc 3 141 5 is_stmt 1 view .LVU569
 2229 002e 2046     		mov	r0, r4
 2230 0030 FFF7FEFF 		bl	w25qxx_read_id
 2231              	.LVL208:
 142:/mnt/c/Users/31740/Desktop/newcore/drivers/storage/w25qxx/w25qxx.h ****         kfree(w25qxx_dev);
 2232              		.loc 3 142 5 view .LVU570
 146:/mnt/c/Users/31740/Desktop/newcore/drivers/storage/w25qxx/w25qxx.h **** }
 2233              		.loc 3 146 5 view .LVU571
 2234              	.L122:
 147:/mnt/c/Users/31740/Desktop/newcore/drivers/storage/w25qxx/w25qxx.h **** 
 2235              		.loc 3 147 1 is_stmt 0 view .LVU572
 2236 0034 2046     		mov	r0, r4
 2237 0036 70BD     		pop	{r4, r5, r6, pc}
 2238              	.LVL209:
 2239              	.L126:
 133:/mnt/c/Users/31740/Desktop/newcore/drivers/storage/w25qxx/w25qxx.h ****         return NULL;
 2240              		.loc 3 133 9 is_stmt 1 view .LVU573
 2241 0038 0649     		ldr	r1, .L127+16
 2242 003a 0620     		movs	r0, #6
 2243              	.LVL210:
 133:/mnt/c/Users/31740/Desktop/newcore/drivers/storage/w25qxx/w25qxx.h ****         return NULL;
 2244              		.loc 3 133 9 is_stmt 0 view .LVU574
 2245 003c FFF7FEFF 		bl	printk
 2246              	.LVL211:
 134:/mnt/c/Users/31740/Desktop/newcore/drivers/storage/w25qxx/w25qxx.h ****     }
 2247              		.loc 3 134 9 is_stmt 1 view .LVU575
 134:/mnt/c/Users/31740/Desktop/newcore/drivers/storage/w25qxx/w25qxx.h ****     }
 2248              		.loc 3 134 16 is_stmt 0 view .LVU576
 2249 0040 F8E7     		b	.L122
 2250              	.L128:
 2251 0042 00BF     		.align	2
 2252              	.L127:
 2253 0044 00000000 		.word	w25qxx_send_data
 2254 0048 00000000 		.word	w25qxx_read_data
ARM GAS  /tmp/ccyCLDig.s 			page 170


 2255 004c 00000000 		.word	set_cs_pin_low
 2256 0050 00000000 		.word	set_cs_pin_high
 2257 0054 00000000 		.word	.LC14
 2258              		.cfi_endproc
 2259              	.LFE1041:
 2261              		.section	.rodata.str1.4,"aMS",%progbits,1
 2262              		.align	2
 2263              	.LC15:
 2264 0000 4661696C 		.ascii	"Failed to allocate buffer\012\000"
 2264      65642074 
 2264      6F20616C 
 2264      6C6F6361 
 2264      74652062 
 2265 001b 00       		.align	2
 2266              	.LC16:
 2267 001c 77323571 		.ascii	"w25qxx1 device init failed\012\015\000"
 2267      78783120 
 2267      64657669 
 2267      63652069 
 2267      6E697420 
 2268 0039 000000   		.align	2
 2269              	.LC17:
 2270 003c 77323571 		.ascii	"w25qxx size has: %d block\012\000"
 2270      78782073 
 2270      697A6520 
 2270      6861733A 
 2270      20256420 
 2271 0057 00       		.align	2
 2272              	.LC18:
 2273 0058 61646420 		.ascii	"add disk faled\012\000"
 2273      6469736B 
 2273      2066616C 
 2273      65640A00 
 2274              		.align	2
 2275              	.LC19:
 2276 0068 77323571 		.ascii	"w25qxx block device stack ready!\012\000"
 2276      78782062 
 2276      6C6F636B 
 2276      20646576 
 2276      69636520 
 2277              		.section	.init.text,"ax",%progbits
 2278              		.align	1
 2279              		.syntax unified
 2280              		.thumb
 2281              		.thumb_func
 2283              	w25qxx_init:
 2284              	.LFB1054:
 100:/mnt/c/Users/31740/Desktop/newcore/drivers/storage/w25qxx/w25qxx.c **** 
 101:/mnt/c/Users/31740/Desktop/newcore/drivers/storage/w25qxx/w25qxx.c **** struct block_device_operations w25qxx_ops = {
 102:/mnt/c/Users/31740/Desktop/newcore/drivers/storage/w25qxx/w25qxx.c ****     .owner = THIS_MODULE,
 103:/mnt/c/Users/31740/Desktop/newcore/drivers/storage/w25qxx/w25qxx.c ****     .open = w25qxx_open,
 104:/mnt/c/Users/31740/Desktop/newcore/drivers/storage/w25qxx/w25qxx.c ****     .release = w25qxx_release,
 105:/mnt/c/Users/31740/Desktop/newcore/drivers/storage/w25qxx/w25qxx.c ****     .getgeo = w25qxx_getgeo,
 106:/mnt/c/Users/31740/Desktop/newcore/drivers/storage/w25qxx/w25qxx.c **** };
 107:/mnt/c/Users/31740/Desktop/newcore/drivers/storage/w25qxx/w25qxx.c **** 
 108:/mnt/c/Users/31740/Desktop/newcore/drivers/storage/w25qxx/w25qxx.c **** 
 109:/mnt/c/Users/31740/Desktop/newcore/drivers/storage/w25qxx/w25qxx.c **** #define DEVICE_NAME   "w25qxx_blk"
ARM GAS  /tmp/ccyCLDig.s 			page 171


 110:/mnt/c/Users/31740/Desktop/newcore/drivers/storage/w25qxx/w25qxx.c **** static struct gendisk       *w25qxx_disk;
 111:/mnt/c/Users/31740/Desktop/newcore/drivers/storage/w25qxx/w25qxx.c **** static struct request_queue *w25qxx_queue;
 112:/mnt/c/Users/31740/Desktop/newcore/drivers/storage/w25qxx/w25qxx.c **** static spinlock_t           w25qxx_lock;
 113:/mnt/c/Users/31740/Desktop/newcore/drivers/storage/w25qxx/w25qxx.c **** static int major = 0;
 114:/mnt/c/Users/31740/Desktop/newcore/drivers/storage/w25qxx/w25qxx.c **** static u8 *device_data; 
 115:/mnt/c/Users/31740/Desktop/newcore/drivers/storage/w25qxx/w25qxx.c **** 
 116:/mnt/c/Users/31740/Desktop/newcore/drivers/storage/w25qxx/w25qxx.c **** 
 117:/mnt/c/Users/31740/Desktop/newcore/drivers/storage/w25qxx/w25qxx.c **** static int __init w25qxx_init(void)
 118:/mnt/c/Users/31740/Desktop/newcore/drivers/storage/w25qxx/w25qxx.c **** {
 2285              		.loc 1 118 1 is_stmt 1 view -0
 2286              		.cfi_startproc
 2287              		@ args = 0, pretend = 0, frame = 0
 2288              		@ frame_needed = 0, uses_anonymous_args = 0
 2289 0000 38B5     		push	{r3, r4, r5, lr}
 2290              	.LCFI42:
 2291              		.cfi_def_cfa_offset 16
 2292              		.cfi_offset 3, -16
 2293              		.cfi_offset 4, -12
 2294              		.cfi_offset 5, -8
 2295              		.cfi_offset 14, -4
 119:/mnt/c/Users/31740/Desktop/newcore/drivers/storage/w25qxx/w25qxx.c ****     w25qxx_buffer = vmalloc(4096);
 2296              		.loc 1 119 5 view .LVU578
 2297              	.LVL212:
 2298              	.LBB146:
 2299              	.LBI146:
 371:/mnt/c/Users/31740/Desktop/newcore/include/linux/slab.h **** 	return __smalloc__(size,GFP_TRANSHUGE_LIGHT);
 2300              		.loc 6 371 21 view .LVU579
 2301              	.LBB147:
 372:/mnt/c/Users/31740/Desktop/newcore/include/linux/slab.h **** }
 2302              		.loc 6 372 2 view .LVU580
 372:/mnt/c/Users/31740/Desktop/newcore/include/linux/slab.h **** }
 2303              		.loc 6 372 9 is_stmt 0 view .LVU581
 2304 0002 5849     		ldr	r1, .L144
 2305 0004 4FF48050 		mov	r0, #4096
 2306 0008 FFF7FEFF 		bl	__smalloc__
 2307              	.LVL213:
 372:/mnt/c/Users/31740/Desktop/newcore/include/linux/slab.h **** }
 2308              		.loc 6 372 9 view .LVU582
 2309              	.LBE147:
 2310              	.LBE146:
 2311              		.loc 1 119 19 discriminator 1 view .LVU583
 2312 000c 564B     		ldr	r3, .L144+4
 2313 000e 1860     		str	r0, [r3]
 120:/mnt/c/Users/31740/Desktop/newcore/drivers/storage/w25qxx/w25qxx.c ****     if(w25qxx_buffer == NULL) {
 2314              		.loc 1 120 5 is_stmt 1 view .LVU584
 2315              		.loc 1 120 7 is_stmt 0 view .LVU585
 2316 0010 0028     		cmp	r0, #0
 2317 0012 50D0     		beq	.L138
 121:/mnt/c/Users/31740/Desktop/newcore/drivers/storage/w25qxx/w25qxx.c ****         pr_info(KERN_ERR "Failed to allocate buffer\n");
 122:/mnt/c/Users/31740/Desktop/newcore/drivers/storage/w25qxx/w25qxx.c ****         return -ENOMEM;
 123:/mnt/c/Users/31740/Desktop/newcore/drivers/storage/w25qxx/w25qxx.c ****     }
 124:/mnt/c/Users/31740/Desktop/newcore/drivers/storage/w25qxx/w25qxx.c ****     w25qxx1_dev = new_w25qxx_dev(CONFIG_W25QXX_SPI_FLASH_SPI_DEVICE,CONFIG_W25QXX_SPI_FLASH_CS_PIN)
 2318              		.loc 1 124 5 is_stmt 1 view .LVU586
 2319              		.loc 1 124 19 is_stmt 0 view .LVU587
 2320 0014 0421     		movs	r1, #4
 2321 0016 5548     		ldr	r0, .L144+8
 2322 0018 FFF7FEFF 		bl	new_w25qxx_dev
ARM GAS  /tmp/ccyCLDig.s 			page 172


 2323              	.LVL214:
 2324              		.loc 1 124 17 discriminator 1 view .LVU588
 2325 001c 544B     		ldr	r3, .L144+12
 2326 001e 1860     		str	r0, [r3]
 125:/mnt/c/Users/31740/Desktop/newcore/drivers/storage/w25qxx/w25qxx.c ****     if(w25qxx1_dev == NULL){
 2327              		.loc 1 125 5 is_stmt 1 view .LVU589
 2328              		.loc 1 125 7 is_stmt 0 view .LVU590
 2329 0020 0028     		cmp	r0, #0
 2330 0022 50D0     		beq	.L139
 126:/mnt/c/Users/31740/Desktop/newcore/drivers/storage/w25qxx/w25qxx.c ****         pr_info("w25qxx1 device init failed\n\r");
 127:/mnt/c/Users/31740/Desktop/newcore/drivers/storage/w25qxx/w25qxx.c ****         vfree(w25qxx_buffer);
 128:/mnt/c/Users/31740/Desktop/newcore/drivers/storage/w25qxx/w25qxx.c ****         return -1;
 129:/mnt/c/Users/31740/Desktop/newcore/drivers/storage/w25qxx/w25qxx.c ****     }
 130:/mnt/c/Users/31740/Desktop/newcore/drivers/storage/w25qxx/w25qxx.c ****     w25qxx_queue = blk_init_queue(w25qxx_request_queue,&w25qxx_lock);   //request_queue
 2331              		.loc 1 130 5 is_stmt 1 view .LVU591
 2332              	.LVL215:
 2333              	.LBB148:
 2334              	.LBI148:
 447:/mnt/c/Users/31740/Desktop/newcore/include/linux/blkdev.h **** 	struct request_queue * q= request_queue_init(0, NULL, GFP_KERNEL);
 2335              		.loc 13 447 46 view .LVU592
 2336              	.LBB149:
 448:/mnt/c/Users/31740/Desktop/newcore/include/linux/blkdev.h **** 	q->q_fn = fn;
 2337              		.loc 13 448 2 view .LVU593
 448:/mnt/c/Users/31740/Desktop/newcore/include/linux/blkdev.h **** 	q->q_fn = fn;
 2338              		.loc 13 448 28 is_stmt 0 view .LVU594
 2339 0024 4FF44C62 		mov	r2, #3264
 2340 0028 0021     		movs	r1, #0
 2341 002a 0846     		mov	r0, r1
 2342 002c FFF7FEFF 		bl	request_queue_init
 2343              	.LVL216:
 449:/mnt/c/Users/31740/Desktop/newcore/include/linux/blkdev.h **** 	q->q_lock = lock;
 2344              		.loc 13 449 2 is_stmt 1 view .LVU595
 449:/mnt/c/Users/31740/Desktop/newcore/include/linux/blkdev.h **** 	q->q_lock = lock;
 2345              		.loc 13 449 10 is_stmt 0 view .LVU596
 2346 0030 504B     		ldr	r3, .L144+16
 2347 0032 C0F8D830 		str	r3, [r0, #216]
 450:/mnt/c/Users/31740/Desktop/newcore/include/linux/blkdev.h **** 	return q;
 2348              		.loc 13 450 2 is_stmt 1 view .LVU597
 450:/mnt/c/Users/31740/Desktop/newcore/include/linux/blkdev.h **** 	return q;
 2349              		.loc 13 450 12 is_stmt 0 view .LVU598
 2350 0036 504B     		ldr	r3, .L144+20
 2351 0038 C0F8DC30 		str	r3, [r0, #220]
 451:/mnt/c/Users/31740/Desktop/newcore/include/linux/blkdev.h **** }
 2352              		.loc 13 451 2 is_stmt 1 view .LVU599
 2353              	.LVL217:
 451:/mnt/c/Users/31740/Desktop/newcore/include/linux/blkdev.h **** }
 2354              		.loc 13 451 2 is_stmt 0 view .LVU600
 2355              	.LBE149:
 2356              	.LBE148:
 2357              		.loc 1 130 18 discriminator 1 view .LVU601
 2358 003c 4F4B     		ldr	r3, .L144+24
 2359 003e 1860     		str	r0, [r3]
 131:/mnt/c/Users/31740/Desktop/newcore/drivers/storage/w25qxx/w25qxx.c ****     if (!w25qxx_queue) {
 2360              		.loc 1 131 5 is_stmt 1 view .LVU602
 2361              		.loc 1 131 8 is_stmt 0 view .LVU603
 2362 0040 0028     		cmp	r0, #0
 2363 0042 4BD0     		beq	.L140
ARM GAS  /tmp/ccyCLDig.s 			page 173


 132:/mnt/c/Users/31740/Desktop/newcore/drivers/storage/w25qxx/w25qxx.c ****         vfree(w25qxx_buffer); 
 133:/mnt/c/Users/31740/Desktop/newcore/drivers/storage/w25qxx/w25qxx.c ****         kfree(w25qxx1_dev);
 134:/mnt/c/Users/31740/Desktop/newcore/drivers/storage/w25qxx/w25qxx.c ****         return -ENOMEM;
 135:/mnt/c/Users/31740/Desktop/newcore/drivers/storage/w25qxx/w25qxx.c ****     }
 136:/mnt/c/Users/31740/Desktop/newcore/drivers/storage/w25qxx/w25qxx.c ****     w25qxx_queue->limits.physical_block_size = 4096;
 2364              		.loc 1 136 5 is_stmt 1 view .LVU604
 2365              		.loc 1 136 46 is_stmt 0 view .LVU605
 2366 0044 4FF48053 		mov	r3, #4096
 2367 0048 8364     		str	r3, [r0, #72]
 137:/mnt/c/Users/31740/Desktop/newcore/drivers/storage/w25qxx/w25qxx.c **** 
 138:/mnt/c/Users/31740/Desktop/newcore/drivers/storage/w25qxx/w25qxx.c ****     w25qxx_disk = alloc_disk(1);                  //gendisk
 2368              		.loc 1 138 5 is_stmt 1 view .LVU606
 2369              	.LVL218:
 2370              	.LBB150:
 2371              	.LBI150:
 485:/mnt/c/Users/31740/Desktop/newcore/include/linux/blkdev.h **** 
 486:/mnt/c/Users/31740/Desktop/newcore/include/linux/blkdev.h **** #define wait_for_completion(x) 
 487:/mnt/c/Users/31740/Desktop/newcore/include/linux/blkdev.h **** 
 488:/mnt/c/Users/31740/Desktop/newcore/include/linux/blkdev.h **** struct io_comp_batch {
 489:/mnt/c/Users/31740/Desktop/newcore/include/linux/blkdev.h **** 	struct list_head req_list;
 490:/mnt/c/Users/31740/Desktop/newcore/include/linux/blkdev.h **** 	bool need_ts;
 491:/mnt/c/Users/31740/Desktop/newcore/include/linux/blkdev.h **** 	void (*complete)(struct io_comp_batch *);
 492:/mnt/c/Users/31740/Desktop/newcore/include/linux/blkdev.h **** };
 493:/mnt/c/Users/31740/Desktop/newcore/include/linux/blkdev.h **** 
 494:/mnt/c/Users/31740/Desktop/newcore/include/linux/blkdev.h **** 
 495:/mnt/c/Users/31740/Desktop/newcore/include/linux/blkdev.h **** enum blk_unique_id {
 496:/mnt/c/Users/31740/Desktop/newcore/include/linux/blkdev.h **** 	/* these match the Designator Types specified in SPC */
 497:/mnt/c/Users/31740/Desktop/newcore/include/linux/blkdev.h **** 	BLK_UID_T10	= 1,
 498:/mnt/c/Users/31740/Desktop/newcore/include/linux/blkdev.h **** 	BLK_UID_EUI64	= 2,
 499:/mnt/c/Users/31740/Desktop/newcore/include/linux/blkdev.h **** 	BLK_UID_NAA	= 3,
 500:/mnt/c/Users/31740/Desktop/newcore/include/linux/blkdev.h **** };
 501:/mnt/c/Users/31740/Desktop/newcore/include/linux/blkdev.h **** 
 502:/mnt/c/Users/31740/Desktop/newcore/include/linux/blkdev.h **** 
 503:/mnt/c/Users/31740/Desktop/newcore/include/linux/blkdev.h **** struct block_device_operations {
 504:/mnt/c/Users/31740/Desktop/newcore/include/linux/blkdev.h **** 	void (*submit_bio)(struct bio *bio);
 505:/mnt/c/Users/31740/Desktop/newcore/include/linux/blkdev.h **** 	int (*poll_bio)(struct bio *bio, struct io_comp_batch *iob,
 506:/mnt/c/Users/31740/Desktop/newcore/include/linux/blkdev.h **** 			unsigned int flags);
 507:/mnt/c/Users/31740/Desktop/newcore/include/linux/blkdev.h **** 	int (*open)(struct gendisk *disk, blk_mode_t mode);
 508:/mnt/c/Users/31740/Desktop/newcore/include/linux/blkdev.h **** 	void (*release)(struct gendisk *disk);
 509:/mnt/c/Users/31740/Desktop/newcore/include/linux/blkdev.h **** 	int (*ioctl)(struct block_device *bdev, blk_mode_t mode,
 510:/mnt/c/Users/31740/Desktop/newcore/include/linux/blkdev.h **** 			unsigned cmd, unsigned long arg);
 511:/mnt/c/Users/31740/Desktop/newcore/include/linux/blkdev.h **** 	int (*compat_ioctl)(struct block_device *bdev, blk_mode_t mode,
 512:/mnt/c/Users/31740/Desktop/newcore/include/linux/blkdev.h **** 			unsigned cmd, unsigned long arg);
 513:/mnt/c/Users/31740/Desktop/newcore/include/linux/blkdev.h **** 	unsigned int (*check_events) (struct gendisk *disk,
 514:/mnt/c/Users/31740/Desktop/newcore/include/linux/blkdev.h **** 				      unsigned int clearing);
 515:/mnt/c/Users/31740/Desktop/newcore/include/linux/blkdev.h **** 	void (*unlock_native_capacity) (struct gendisk *);
 516:/mnt/c/Users/31740/Desktop/newcore/include/linux/blkdev.h **** 	int (*getgeo)(struct block_device *, struct hd_geometry *);
 517:/mnt/c/Users/31740/Desktop/newcore/include/linux/blkdev.h **** 	int (*set_read_only)(struct block_device *bdev, bool ro);
 518:/mnt/c/Users/31740/Desktop/newcore/include/linux/blkdev.h **** 	void (*free_disk)(struct gendisk *disk);
 519:/mnt/c/Users/31740/Desktop/newcore/include/linux/blkdev.h **** 	/* this callback is with swap_lock and sometimes page table lock held */
 520:/mnt/c/Users/31740/Desktop/newcore/include/linux/blkdev.h **** 	void (*swap_slot_free_notify) (struct block_device *, unsigned long);
 521:/mnt/c/Users/31740/Desktop/newcore/include/linux/blkdev.h **** 	int (*report_zones)(struct gendisk *, sector_t sector,
 522:/mnt/c/Users/31740/Desktop/newcore/include/linux/blkdev.h **** 			unsigned int nr_zones, report_zones_cb cb, void *data);
 523:/mnt/c/Users/31740/Desktop/newcore/include/linux/blkdev.h **** 	char *(*devnode)(struct gendisk *disk, umode_t *mode);
 524:/mnt/c/Users/31740/Desktop/newcore/include/linux/blkdev.h **** 	/* returns the length of the identifier or a negative errno: */
 525:/mnt/c/Users/31740/Desktop/newcore/include/linux/blkdev.h **** 	int (*get_unique_id)(struct gendisk *disk, u8 id[16],
 526:/mnt/c/Users/31740/Desktop/newcore/include/linux/blkdev.h **** 			enum blk_unique_id id_type);
ARM GAS  /tmp/ccyCLDig.s 			page 174


 527:/mnt/c/Users/31740/Desktop/newcore/include/linux/blkdev.h **** 	void *owner;
 528:/mnt/c/Users/31740/Desktop/newcore/include/linux/blkdev.h **** 	const struct pr_ops *pr_ops;
 529:/mnt/c/Users/31740/Desktop/newcore/include/linux/blkdev.h **** 
 530:/mnt/c/Users/31740/Desktop/newcore/include/linux/blkdev.h **** 	/*
 531:/mnt/c/Users/31740/Desktop/newcore/include/linux/blkdev.h **** 	 * Special callback for probing GPT entry at a given sector.
 532:/mnt/c/Users/31740/Desktop/newcore/include/linux/blkdev.h **** 	 * Needed by Android devices, used by GPT scanner and MMC blk
 533:/mnt/c/Users/31740/Desktop/newcore/include/linux/blkdev.h **** 	 * driver.
 534:/mnt/c/Users/31740/Desktop/newcore/include/linux/blkdev.h **** 	 */
 535:/mnt/c/Users/31740/Desktop/newcore/include/linux/blkdev.h **** 	int (*alternative_gpt_sector)(struct gendisk *disk, sector_t *sector);
 536:/mnt/c/Users/31740/Desktop/newcore/include/linux/blkdev.h **** };
 537:/mnt/c/Users/31740/Desktop/newcore/include/linux/blkdev.h **** 
 538:/mnt/c/Users/31740/Desktop/newcore/include/linux/blkdev.h **** 
 539:/mnt/c/Users/31740/Desktop/newcore/include/linux/blkdev.h **** extern struct gendisk *__gendisk_alloc(int major,int minors);
 540:/mnt/c/Users/31740/Desktop/newcore/include/linux/blkdev.h **** 
 541:/mnt/c/Users/31740/Desktop/newcore/include/linux/blkdev.h **** static inline struct gendisk *alloc_disk(int minors){
 2372              		.loc 13 541 31 view .LVU607
 2373              	.LBB151:
 542:/mnt/c/Users/31740/Desktop/newcore/include/linux/blkdev.h **** 	return __gendisk_alloc(0, minors);
 2374              		.loc 13 542 2 view .LVU608
 2375              		.loc 13 542 9 is_stmt 0 view .LVU609
 2376 004a 0121     		movs	r1, #1
 2377 004c 0020     		movs	r0, #0
 2378 004e FFF7FEFF 		bl	__gendisk_alloc
 2379              	.LVL219:
 2380 0052 0446     		mov	r4, r0
 2381              	.LVL220:
 2382              		.loc 13 542 9 view .LVU610
 2383              	.LBE151:
 2384              	.LBE150:
 2385              		.loc 1 138 17 discriminator 1 view .LVU611
 2386 0054 4A4B     		ldr	r3, .L144+28
 2387 0056 1860     		str	r0, [r3]
 139:/mnt/c/Users/31740/Desktop/newcore/drivers/storage/w25qxx/w25qxx.c ****     if (!w25qxx_disk) {
 2388              		.loc 1 139 5 is_stmt 1 view .LVU612
 2389              		.loc 1 139 8 is_stmt 0 view .LVU613
 2390 0058 0028     		cmp	r0, #0
 2391 005a 4AD0     		beq	.L141
 140:/mnt/c/Users/31740/Desktop/newcore/drivers/storage/w25qxx/w25qxx.c ****         vfree(w25qxx_buffer);
 141:/mnt/c/Users/31740/Desktop/newcore/drivers/storage/w25qxx/w25qxx.c ****         kfree(w25qxx1_dev);
 142:/mnt/c/Users/31740/Desktop/newcore/drivers/storage/w25qxx/w25qxx.c ****         blk_cleanup_queue(w25qxx_queue);
 143:/mnt/c/Users/31740/Desktop/newcore/drivers/storage/w25qxx/w25qxx.c ****         return -ENOMEM;
 144:/mnt/c/Users/31740/Desktop/newcore/drivers/storage/w25qxx/w25qxx.c ****     } 
 145:/mnt/c/Users/31740/Desktop/newcore/drivers/storage/w25qxx/w25qxx.c ****     w25qxx_disk->part0 = kmalloc(sizeof(struct block_device),GFP_KERNEL);
 2392              		.loc 1 145 5 is_stmt 1 view .LVU614
 2393              	.LVL221:
 2394              	.LBB152:
 2395              	.LBI152:
 379:/mnt/c/Users/31740/Desktop/newcore/include/linux/slab.h **** 	return __smalloc__((u32)size,flags);
 2396              		.loc 6 379 21 view .LVU615
 2397              	.LBB153:
 380:/mnt/c/Users/31740/Desktop/newcore/include/linux/slab.h **** }
 2398              		.loc 6 380 2 view .LVU616
 380:/mnt/c/Users/31740/Desktop/newcore/include/linux/slab.h **** }
 2399              		.loc 6 380 9 is_stmt 0 view .LVU617
 2400 005c 4FF44C61 		mov	r1, #3264
 2401 0060 6C20     		movs	r0, #108
 2402 0062 FFF7FEFF 		bl	__smalloc__
ARM GAS  /tmp/ccyCLDig.s 			page 175


 2403              	.LVL222:
 380:/mnt/c/Users/31740/Desktop/newcore/include/linux/slab.h **** }
 2404              		.loc 6 380 9 view .LVU618
 2405              	.LBE153:
 2406              	.LBE152:
 2407              		.loc 1 145 24 discriminator 1 view .LVU619
 2408 0066 A063     		str	r0, [r4, #56]
 146:/mnt/c/Users/31740/Desktop/newcore/drivers/storage/w25qxx/w25qxx.c ****     if( w25qxx_disk->part0 == NULL){
 2409              		.loc 1 146 5 is_stmt 1 view .LVU620
 2410              		.loc 1 146 20 is_stmt 0 view .LVU621
 2411 0068 454B     		ldr	r3, .L144+28
 2412 006a 1B68     		ldr	r3, [r3]
 2413 006c 9B6B     		ldr	r3, [r3, #56]
 2414              		.loc 1 146 7 view .LVU622
 2415 006e 002B     		cmp	r3, #0
 2416 0070 4ED0     		beq	.L142
 147:/mnt/c/Users/31740/Desktop/newcore/drivers/storage/w25qxx/w25qxx.c ****         vfree(w25qxx_buffer);
 148:/mnt/c/Users/31740/Desktop/newcore/drivers/storage/w25qxx/w25qxx.c ****         kfree(w25qxx1_dev);
 149:/mnt/c/Users/31740/Desktop/newcore/drivers/storage/w25qxx/w25qxx.c ****         put_disk(w25qxx_disk);
 150:/mnt/c/Users/31740/Desktop/newcore/drivers/storage/w25qxx/w25qxx.c ****         blk_cleanup_queue(w25qxx_queue);
 151:/mnt/c/Users/31740/Desktop/newcore/drivers/storage/w25qxx/w25qxx.c ****         return -ENOMEM;
 152:/mnt/c/Users/31740/Desktop/newcore/drivers/storage/w25qxx/w25qxx.c ****     }
 153:/mnt/c/Users/31740/Desktop/newcore/drivers/storage/w25qxx/w25qxx.c ****     w25qxx_disk->part0->bd_start_sect = 0;
 2417              		.loc 1 153 5 is_stmt 1 view .LVU623
 2418              		.loc 1 153 39 is_stmt 0 view .LVU624
 2419 0072 0024     		movs	r4, #0
 2420 0074 1C60     		str	r4, [r3]
 154:/mnt/c/Users/31740/Desktop/newcore/drivers/storage/w25qxx/w25qxx.c ****     printk(KERN_INFO "w25qxx size has: %d block\n",w25qxx1_dev->size/4096);
 2421              		.loc 1 154 5 is_stmt 1 view .LVU625
 2422              		.loc 1 154 63 is_stmt 0 view .LVU626
 2423 0076 3E4D     		ldr	r5, .L144+12
 2424 0078 2B68     		ldr	r3, [r5]
 2425 007a 9A6A     		ldr	r2, [r3, #40]
 2426              		.loc 1 154 5 view .LVU627
 2427 007c 120B     		lsrs	r2, r2, #12
 2428 007e 4149     		ldr	r1, .L144+32
 2429 0080 0620     		movs	r0, #6
 2430 0082 FFF7FEFF 		bl	printk
 2431              	.LVL223:
 155:/mnt/c/Users/31740/Desktop/newcore/drivers/storage/w25qxx/w25qxx.c ****     w25qxx_disk->part0->bd_nr_sectors = w25qxx1_dev->size/512;
 2432              		.loc 1 155 5 is_stmt 1 view .LVU628
 2433              		.loc 1 155 52 is_stmt 0 view .LVU629
 2434 0086 2B68     		ldr	r3, [r5]
 2435 0088 9B6A     		ldr	r3, [r3, #40]
 2436              		.loc 1 155 16 view .LVU630
 2437 008a 3D4A     		ldr	r2, .L144+28
 2438 008c 1068     		ldr	r0, [r2]
 2439 008e 826B     		ldr	r2, [r0, #56]
 2440              		.loc 1 155 58 view .LVU631
 2441 0090 5B0A     		lsrs	r3, r3, #9
 2442              		.loc 1 155 39 view .LVU632
 2443 0092 5360     		str	r3, [r2, #4]
 156:/mnt/c/Users/31740/Desktop/newcore/drivers/storage/w25qxx/w25qxx.c **** 
 157:/mnt/c/Users/31740/Desktop/newcore/drivers/storage/w25qxx/w25qxx.c ****     w25qxx_disk->major = major;
 2444              		.loc 1 157 5 is_stmt 1 view .LVU633
 2445              		.loc 1 157 24 is_stmt 0 view .LVU634
 2446 0094 0460     		str	r4, [r0]
ARM GAS  /tmp/ccyCLDig.s 			page 176


 158:/mnt/c/Users/31740/Desktop/newcore/drivers/storage/w25qxx/w25qxx.c ****     w25qxx_disk->first_minor = 0;
 2447              		.loc 1 158 5 is_stmt 1 view .LVU635
 2448              		.loc 1 158 30 is_stmt 0 view .LVU636
 2449 0096 4460     		str	r4, [r0, #4]
 159:/mnt/c/Users/31740/Desktop/newcore/drivers/storage/w25qxx/w25qxx.c ****     w25qxx_disk->fops = &w25qxx_ops;
 2450              		.loc 1 159 5 is_stmt 1 view .LVU637
 2451              		.loc 1 159 23 is_stmt 0 view .LVU638
 2452 0098 3B4B     		ldr	r3, .L144+36
 2453 009a C363     		str	r3, [r0, #60]
 160:/mnt/c/Users/31740/Desktop/newcore/drivers/storage/w25qxx/w25qxx.c ****     w25qxx_disk->queue = w25qxx_queue;
 2454              		.loc 1 160 5 is_stmt 1 view .LVU639
 2455              		.loc 1 160 24 is_stmt 0 view .LVU640
 2456 009c 374B     		ldr	r3, .L144+24
 2457 009e 1B68     		ldr	r3, [r3]
 2458 00a0 0364     		str	r3, [r0, #64]
 161:/mnt/c/Users/31740/Desktop/newcore/drivers/storage/w25qxx/w25qxx.c **** 
 162:/mnt/c/Users/31740/Desktop/newcore/drivers/storage/w25qxx/w25qxx.c ****     int ret = add_disk(w25qxx_disk);
 2459              		.loc 1 162 5 is_stmt 1 view .LVU641
 2460              		.loc 1 162 15 is_stmt 0 view .LVU642
 2461 00a2 FFF7FEFF 		bl	add_disk
 2462              	.LVL224:
 163:/mnt/c/Users/31740/Desktop/newcore/drivers/storage/w25qxx/w25qxx.c ****     if(ret < 0)
 2463              		.loc 1 163 5 is_stmt 1 view .LVU643
 2464              		.loc 1 163 7 is_stmt 0 view .LVU644
 2465 00a6 A042     		cmp	r0, r4
 2466 00a8 45DB     		blt	.L143
 164:/mnt/c/Users/31740/Desktop/newcore/drivers/storage/w25qxx/w25qxx.c ****     {
 165:/mnt/c/Users/31740/Desktop/newcore/drivers/storage/w25qxx/w25qxx.c ****         printk(KERN_ERR "add disk faled\n");
 166:/mnt/c/Users/31740/Desktop/newcore/drivers/storage/w25qxx/w25qxx.c ****         vfree(w25qxx_buffer);
 167:/mnt/c/Users/31740/Desktop/newcore/drivers/storage/w25qxx/w25qxx.c ****         blk_cleanup_queue(w25qxx_queue);
 168:/mnt/c/Users/31740/Desktop/newcore/drivers/storage/w25qxx/w25qxx.c ****         kfree(w25qxx1_dev);
 169:/mnt/c/Users/31740/Desktop/newcore/drivers/storage/w25qxx/w25qxx.c ****         put_disk(w25qxx_disk);
 170:/mnt/c/Users/31740/Desktop/newcore/drivers/storage/w25qxx/w25qxx.c ****         return -ENOMEM;
 171:/mnt/c/Users/31740/Desktop/newcore/drivers/storage/w25qxx/w25qxx.c ****     }
 172:/mnt/c/Users/31740/Desktop/newcore/drivers/storage/w25qxx/w25qxx.c **** 
 173:/mnt/c/Users/31740/Desktop/newcore/drivers/storage/w25qxx/w25qxx.c ****     printk(KERN_INFO "w25qxx block device stack ready!\n");
 2467              		.loc 1 173 5 is_stmt 1 view .LVU645
 2468 00aa 3849     		ldr	r1, .L144+40
 2469 00ac 0620     		movs	r0, #6
 2470              	.LVL225:
 2471              		.loc 1 173 5 is_stmt 0 view .LVU646
 2472 00ae FFF7FEFF 		bl	printk
 2473              	.LVL226:
 174:/mnt/c/Users/31740/Desktop/newcore/drivers/storage/w25qxx/w25qxx.c ****     return 0;
 2474              		.loc 1 174 5 is_stmt 1 view .LVU647
 2475              		.loc 1 174 12 is_stmt 0 view .LVU648
 2476 00b2 0020     		movs	r0, #0
 2477              	.LVL227:
 2478              	.L129:
 175:/mnt/c/Users/31740/Desktop/newcore/drivers/storage/w25qxx/w25qxx.c **** }
 2479              		.loc 1 175 1 view .LVU649
 2480 00b4 38BD     		pop	{r3, r4, r5, pc}
 2481              	.L138:
 121:/mnt/c/Users/31740/Desktop/newcore/drivers/storage/w25qxx/w25qxx.c ****         return -ENOMEM;
 2482              		.loc 1 121 9 is_stmt 1 view .LVU650
 2483 00b6 364A     		ldr	r2, .L144+44
 2484 00b8 0321     		movs	r1, #3
ARM GAS  /tmp/ccyCLDig.s 			page 177


 2485 00ba 0620     		movs	r0, #6
 2486 00bc FFF7FEFF 		bl	printk
 2487              	.LVL228:
 122:/mnt/c/Users/31740/Desktop/newcore/drivers/storage/w25qxx/w25qxx.c ****     }
 2488              		.loc 1 122 9 view .LVU651
 122:/mnt/c/Users/31740/Desktop/newcore/drivers/storage/w25qxx/w25qxx.c ****     }
 2489              		.loc 1 122 16 is_stmt 0 view .LVU652
 2490 00c0 6FF00B00 		mvn	r0, #11
 2491 00c4 F6E7     		b	.L129
 2492              	.L139:
 126:/mnt/c/Users/31740/Desktop/newcore/drivers/storage/w25qxx/w25qxx.c ****         vfree(w25qxx_buffer);
 2493              		.loc 1 126 9 is_stmt 1 view .LVU653
 2494 00c6 3349     		ldr	r1, .L144+48
 2495 00c8 0620     		movs	r0, #6
 2496 00ca FFF7FEFF 		bl	printk
 2497              	.LVL229:
 127:/mnt/c/Users/31740/Desktop/newcore/drivers/storage/w25qxx/w25qxx.c ****         return -1;
 2498              		.loc 1 127 9 view .LVU654
 2499              	.LBB154:
 2500              	.LBI154:
 375:/mnt/c/Users/31740/Desktop/newcore/include/linux/slab.h **** 	__sfree__(addr);
 2501              		.loc 6 375 20 view .LVU655
 2502              	.LBB155:
 376:/mnt/c/Users/31740/Desktop/newcore/include/linux/slab.h **** }
 2503              		.loc 6 376 2 view .LVU656
 2504 00ce 264B     		ldr	r3, .L144+4
 376:/mnt/c/Users/31740/Desktop/newcore/include/linux/slab.h **** }
 2505              		.loc 6 376 2 is_stmt 0 view .LVU657
 2506 00d0 1868     		ldr	r0, [r3]
 2507 00d2 FFF7FEFF 		bl	__sfree__
 2508              	.LVL230:
 376:/mnt/c/Users/31740/Desktop/newcore/include/linux/slab.h **** }
 2509              		.loc 6 376 2 view .LVU658
 2510              	.LBE155:
 2511              	.LBE154:
 128:/mnt/c/Users/31740/Desktop/newcore/drivers/storage/w25qxx/w25qxx.c ****     }
 2512              		.loc 1 128 9 is_stmt 1 view .LVU659
 128:/mnt/c/Users/31740/Desktop/newcore/drivers/storage/w25qxx/w25qxx.c ****     }
 2513              		.loc 1 128 16 is_stmt 0 view .LVU660
 2514 00d6 4FF0FF30 		mov	r0, #-1
 2515 00da EBE7     		b	.L129
 2516              	.L140:
 132:/mnt/c/Users/31740/Desktop/newcore/drivers/storage/w25qxx/w25qxx.c ****         kfree(w25qxx1_dev);
 2517              		.loc 1 132 9 is_stmt 1 view .LVU661
 2518              	.LVL231:
 2519              	.LBB156:
 2520              	.LBI156:
 375:/mnt/c/Users/31740/Desktop/newcore/include/linux/slab.h **** 	__sfree__(addr);
 2521              		.loc 6 375 20 view .LVU662
 2522              	.LBB157:
 376:/mnt/c/Users/31740/Desktop/newcore/include/linux/slab.h **** }
 2523              		.loc 6 376 2 view .LVU663
 2524 00dc 224B     		ldr	r3, .L144+4
 376:/mnt/c/Users/31740/Desktop/newcore/include/linux/slab.h **** }
 2525              		.loc 6 376 2 is_stmt 0 view .LVU664
 2526 00de 1868     		ldr	r0, [r3]
 2527 00e0 FFF7FEFF 		bl	__sfree__
ARM GAS  /tmp/ccyCLDig.s 			page 178


 2528              	.LVL232:
 376:/mnt/c/Users/31740/Desktop/newcore/include/linux/slab.h **** }
 2529              		.loc 6 376 2 view .LVU665
 2530              	.LBE157:
 2531              	.LBE156:
 133:/mnt/c/Users/31740/Desktop/newcore/drivers/storage/w25qxx/w25qxx.c ****         return -ENOMEM;
 2532              		.loc 1 133 9 is_stmt 1 view .LVU666
 2533              	.LBB158:
 2534              	.LBI158:
 383:/mnt/c/Users/31740/Desktop/newcore/include/linux/slab.h **** 	__sfree__((void*)ptr);
 2535              		.loc 6 383 20 view .LVU667
 2536              	.LBB159:
 2537              		.loc 6 384 2 view .LVU668
 2538 00e4 224B     		ldr	r3, .L144+12
 2539              		.loc 6 384 2 is_stmt 0 view .LVU669
 2540 00e6 1868     		ldr	r0, [r3]
 2541 00e8 FFF7FEFF 		bl	__sfree__
 2542              	.LVL233:
 2543              		.loc 6 384 2 view .LVU670
 2544              	.LBE159:
 2545              	.LBE158:
 134:/mnt/c/Users/31740/Desktop/newcore/drivers/storage/w25qxx/w25qxx.c ****     }
 2546              		.loc 1 134 9 is_stmt 1 view .LVU671
 134:/mnt/c/Users/31740/Desktop/newcore/drivers/storage/w25qxx/w25qxx.c ****     }
 2547              		.loc 1 134 16 is_stmt 0 view .LVU672
 2548 00ec 6FF00B00 		mvn	r0, #11
 2549 00f0 E0E7     		b	.L129
 2550              	.L141:
 140:/mnt/c/Users/31740/Desktop/newcore/drivers/storage/w25qxx/w25qxx.c ****         kfree(w25qxx1_dev);
 2551              		.loc 1 140 9 is_stmt 1 view .LVU673
 2552              	.LVL234:
 2553              	.LBB160:
 2554              	.LBI160:
 375:/mnt/c/Users/31740/Desktop/newcore/include/linux/slab.h **** 	__sfree__(addr);
 2555              		.loc 6 375 20 view .LVU674
 2556              	.LBB161:
 376:/mnt/c/Users/31740/Desktop/newcore/include/linux/slab.h **** }
 2557              		.loc 6 376 2 view .LVU675
 2558 00f2 1D4B     		ldr	r3, .L144+4
 376:/mnt/c/Users/31740/Desktop/newcore/include/linux/slab.h **** }
 2559              		.loc 6 376 2 is_stmt 0 view .LVU676
 2560 00f4 1868     		ldr	r0, [r3]
 2561 00f6 FFF7FEFF 		bl	__sfree__
 2562              	.LVL235:
 376:/mnt/c/Users/31740/Desktop/newcore/include/linux/slab.h **** }
 2563              		.loc 6 376 2 view .LVU677
 2564              	.LBE161:
 2565              	.LBE160:
 141:/mnt/c/Users/31740/Desktop/newcore/drivers/storage/w25qxx/w25qxx.c ****         blk_cleanup_queue(w25qxx_queue);
 2566              		.loc 1 141 9 is_stmt 1 view .LVU678
 2567              	.LBB162:
 2568              	.LBI162:
 383:/mnt/c/Users/31740/Desktop/newcore/include/linux/slab.h **** 	__sfree__((void*)ptr);
 2569              		.loc 6 383 20 view .LVU679
 2570              	.LBB163:
 2571              		.loc 6 384 2 view .LVU680
 2572 00fa 1D4B     		ldr	r3, .L144+12
ARM GAS  /tmp/ccyCLDig.s 			page 179


 2573              		.loc 6 384 2 is_stmt 0 view .LVU681
 2574 00fc 1868     		ldr	r0, [r3]
 2575 00fe FFF7FEFF 		bl	__sfree__
 2576              	.LVL236:
 2577              		.loc 6 384 2 view .LVU682
 2578              	.LBE163:
 2579              	.LBE162:
 142:/mnt/c/Users/31740/Desktop/newcore/drivers/storage/w25qxx/w25qxx.c ****         return -ENOMEM;
 2580              		.loc 1 142 9 is_stmt 1 view .LVU683
 2581 0102 1E4B     		ldr	r3, .L144+24
 2582 0104 1868     		ldr	r0, [r3]
 2583 0106 FFF7FEFF 		bl	blk_cleanup_queue
 2584              	.LVL237:
 143:/mnt/c/Users/31740/Desktop/newcore/drivers/storage/w25qxx/w25qxx.c ****     } 
 2585              		.loc 1 143 9 view .LVU684
 143:/mnt/c/Users/31740/Desktop/newcore/drivers/storage/w25qxx/w25qxx.c ****     } 
 2586              		.loc 1 143 16 is_stmt 0 view .LVU685
 2587 010a 6FF00B00 		mvn	r0, #11
 2588 010e D1E7     		b	.L129
 2589              	.L142:
 147:/mnt/c/Users/31740/Desktop/newcore/drivers/storage/w25qxx/w25qxx.c ****         kfree(w25qxx1_dev);
 2590              		.loc 1 147 9 is_stmt 1 view .LVU686
 2591              	.LVL238:
 2592              	.LBB164:
 2593              	.LBI164:
 375:/mnt/c/Users/31740/Desktop/newcore/include/linux/slab.h **** 	__sfree__(addr);
 2594              		.loc 6 375 20 view .LVU687
 2595              	.LBB165:
 376:/mnt/c/Users/31740/Desktop/newcore/include/linux/slab.h **** }
 2596              		.loc 6 376 2 view .LVU688
 2597 0110 154B     		ldr	r3, .L144+4
 376:/mnt/c/Users/31740/Desktop/newcore/include/linux/slab.h **** }
 2598              		.loc 6 376 2 is_stmt 0 view .LVU689
 2599 0112 1868     		ldr	r0, [r3]
 2600 0114 FFF7FEFF 		bl	__sfree__
 2601              	.LVL239:
 376:/mnt/c/Users/31740/Desktop/newcore/include/linux/slab.h **** }
 2602              		.loc 6 376 2 view .LVU690
 2603              	.LBE165:
 2604              	.LBE164:
 148:/mnt/c/Users/31740/Desktop/newcore/drivers/storage/w25qxx/w25qxx.c ****         put_disk(w25qxx_disk);
 2605              		.loc 1 148 9 is_stmt 1 view .LVU691
 2606              	.LBB166:
 2607              	.LBI166:
 383:/mnt/c/Users/31740/Desktop/newcore/include/linux/slab.h **** 	__sfree__((void*)ptr);
 2608              		.loc 6 383 20 view .LVU692
 2609              	.LBB167:
 2610              		.loc 6 384 2 view .LVU693
 2611 0118 154B     		ldr	r3, .L144+12
 2612              		.loc 6 384 2 is_stmt 0 view .LVU694
 2613 011a 1868     		ldr	r0, [r3]
 2614 011c FFF7FEFF 		bl	__sfree__
 2615              	.LVL240:
 2616              		.loc 6 384 2 view .LVU695
 2617              	.LBE167:
 2618              	.LBE166:
 149:/mnt/c/Users/31740/Desktop/newcore/drivers/storage/w25qxx/w25qxx.c ****         blk_cleanup_queue(w25qxx_queue);
ARM GAS  /tmp/ccyCLDig.s 			page 180


 2619              		.loc 1 149 9 is_stmt 1 view .LVU696
 2620 0120 174B     		ldr	r3, .L144+28
 2621 0122 1868     		ldr	r0, [r3]
 2622 0124 FFF7FEFF 		bl	put_disk
 2623              	.LVL241:
 150:/mnt/c/Users/31740/Desktop/newcore/drivers/storage/w25qxx/w25qxx.c ****         return -ENOMEM;
 2624              		.loc 1 150 9 view .LVU697
 2625 0128 144B     		ldr	r3, .L144+24
 2626 012a 1868     		ldr	r0, [r3]
 2627 012c FFF7FEFF 		bl	blk_cleanup_queue
 2628              	.LVL242:
 151:/mnt/c/Users/31740/Desktop/newcore/drivers/storage/w25qxx/w25qxx.c ****     }
 2629              		.loc 1 151 9 view .LVU698
 151:/mnt/c/Users/31740/Desktop/newcore/drivers/storage/w25qxx/w25qxx.c ****     }
 2630              		.loc 1 151 16 is_stmt 0 view .LVU699
 2631 0130 6FF00B00 		mvn	r0, #11
 2632 0134 BEE7     		b	.L129
 2633              	.LVL243:
 2634              	.L143:
 165:/mnt/c/Users/31740/Desktop/newcore/drivers/storage/w25qxx/w25qxx.c ****         vfree(w25qxx_buffer);
 2635              		.loc 1 165 9 is_stmt 1 view .LVU700
 2636 0136 1849     		ldr	r1, .L144+52
 2637 0138 0320     		movs	r0, #3
 2638              	.LVL244:
 165:/mnt/c/Users/31740/Desktop/newcore/drivers/storage/w25qxx/w25qxx.c ****         vfree(w25qxx_buffer);
 2639              		.loc 1 165 9 is_stmt 0 view .LVU701
 2640 013a FFF7FEFF 		bl	printk
 2641              	.LVL245:
 166:/mnt/c/Users/31740/Desktop/newcore/drivers/storage/w25qxx/w25qxx.c ****         blk_cleanup_queue(w25qxx_queue);
 2642              		.loc 1 166 9 is_stmt 1 view .LVU702
 2643              	.LBB168:
 2644              	.LBI168:
 375:/mnt/c/Users/31740/Desktop/newcore/include/linux/slab.h **** 	__sfree__(addr);
 2645              		.loc 6 375 20 view .LVU703
 2646              	.LBB169:
 376:/mnt/c/Users/31740/Desktop/newcore/include/linux/slab.h **** }
 2647              		.loc 6 376 2 view .LVU704
 2648 013e 0A4B     		ldr	r3, .L144+4
 376:/mnt/c/Users/31740/Desktop/newcore/include/linux/slab.h **** }
 2649              		.loc 6 376 2 is_stmt 0 view .LVU705
 2650 0140 1868     		ldr	r0, [r3]
 2651 0142 FFF7FEFF 		bl	__sfree__
 2652              	.LVL246:
 376:/mnt/c/Users/31740/Desktop/newcore/include/linux/slab.h **** }
 2653              		.loc 6 376 2 view .LVU706
 2654              	.LBE169:
 2655              	.LBE168:
 167:/mnt/c/Users/31740/Desktop/newcore/drivers/storage/w25qxx/w25qxx.c ****         kfree(w25qxx1_dev);
 2656              		.loc 1 167 9 is_stmt 1 view .LVU707
 2657 0146 0D4B     		ldr	r3, .L144+24
 2658 0148 1868     		ldr	r0, [r3]
 2659 014a FFF7FEFF 		bl	blk_cleanup_queue
 2660              	.LVL247:
 168:/mnt/c/Users/31740/Desktop/newcore/drivers/storage/w25qxx/w25qxx.c ****         put_disk(w25qxx_disk);
 2661              		.loc 1 168 9 view .LVU708
 2662              	.LBB170:
 2663              	.LBI170:
ARM GAS  /tmp/ccyCLDig.s 			page 181


 383:/mnt/c/Users/31740/Desktop/newcore/include/linux/slab.h **** 	__sfree__((void*)ptr);
 2664              		.loc 6 383 20 view .LVU709
 2665              	.LBB171:
 2666              		.loc 6 384 2 view .LVU710
 2667 014e 2868     		ldr	r0, [r5]
 2668 0150 FFF7FEFF 		bl	__sfree__
 2669              	.LVL248:
 2670              		.loc 6 384 2 is_stmt 0 view .LVU711
 2671              	.LBE171:
 2672              	.LBE170:
 169:/mnt/c/Users/31740/Desktop/newcore/drivers/storage/w25qxx/w25qxx.c ****         return -ENOMEM;
 2673              		.loc 1 169 9 is_stmt 1 view .LVU712
 2674 0154 0A4B     		ldr	r3, .L144+28
 2675 0156 1868     		ldr	r0, [r3]
 2676 0158 FFF7FEFF 		bl	put_disk
 2677              	.LVL249:
 170:/mnt/c/Users/31740/Desktop/newcore/drivers/storage/w25qxx/w25qxx.c ****     }
 2678              		.loc 1 170 9 view .LVU713
 170:/mnt/c/Users/31740/Desktop/newcore/drivers/storage/w25qxx/w25qxx.c ****     }
 2679              		.loc 1 170 16 is_stmt 0 view .LVU714
 2680 015c 6FF00B00 		mvn	r0, #11
 2681 0160 A8E7     		b	.L129
 2682              	.L145:
 2683 0162 00BF     		.align	2
 2684              	.L144:
 2685 0164 CA201C00 		.word	1843402
 2686 0168 00000000 		.word	w25qxx_buffer
 2687 016c 00000000 		.word	.LC10
 2688 0170 00000000 		.word	w25qxx1_dev
 2689 0174 00000000 		.word	w25qxx_request_queue
 2690 0178 00000000 		.word	w25qxx_lock
 2691 017c 00000000 		.word	w25qxx_queue
 2692 0180 00000000 		.word	w25qxx_disk
 2693 0184 3C000000 		.word	.LC17
 2694 0188 00000000 		.word	w25qxx_ops
 2695 018c 68000000 		.word	.LC19
 2696 0190 00000000 		.word	.LC15
 2697 0194 1C000000 		.word	.LC16
 2698 0198 58000000 		.word	.LC18
 2699              		.cfi_endproc
 2700              	.LFE1054:
 2702              		.section	.device_initcall_sync,"aw"
 2703              		.align	2
 2706              	_initcall_w25qxx_init:
 2707 0000 00000000 		.word	w25qxx_init
 2708              		.section	.bss.w25qxx_lock,"aw",%nobits
 2709              		.align	2
 2712              	w25qxx_lock:
 2713 0000 00000000 		.space	16
 2713      00000000 
 2713      00000000 
 2713      00000000 
 2714              		.section	.bss.w25qxx_queue,"aw",%nobits
 2715              		.align	2
 2718              	w25qxx_queue:
 2719 0000 00000000 		.space	4
 2720              		.section	.bss.w25qxx_disk,"aw",%nobits
ARM GAS  /tmp/ccyCLDig.s 			page 182


 2721              		.align	2
 2724              	w25qxx_disk:
 2725 0000 00000000 		.space	4
 2726              		.global	w25qxx_ops
 2727              		.section	.data.w25qxx_ops,"aw"
 2728              		.align	2
 2731              	w25qxx_ops:
 2732 0000 00000000 		.space	8
 2732      00000000 
 2733 0008 00000000 		.word	w25qxx_open
 2734 000c 00000000 		.word	w25qxx_release
 2735 0010 00000000 		.space	16
 2735      00000000 
 2735      00000000 
 2735      00000000 
 2736 0020 00000000 		.word	w25qxx_getgeo
 2737 0024 00000000 		.space	24
 2737      00000000 
 2737      00000000 
 2737      00000000 
 2737      00000000 
 2738 003c 00000000 		.word	0
 2739 0040 00000000 		.space	8
 2739      00000000 
 2740              		.section	.bss.w25qxx_buffer,"aw",%nobits
 2741              		.align	2
 2744              	w25qxx_buffer:
 2745 0000 00000000 		.space	4
 2746              		.section	.bss.w25qxx1_dev,"aw",%nobits
 2747              		.align	2
 2750              	w25qxx1_dev:
 2751 0000 00000000 		.space	4
 2752              		.text
 2753              	.Letext0:
 2754              		.file 14 "/mnt/c/Users/31740/Desktop/newcore/include/asm-generic/int-l64.h"
 2755              		.file 15 "/mnt/c/Users/31740/Desktop/newcore/include/asm-generic/posix_types.h"
 2756              		.file 16 "/mnt/c/Users/31740/Desktop/newcore/include/uapi/linux/types.h"
 2757              		.file 17 "/mnt/c/Users/31740/Desktop/newcore/include/linux/types.h"
 2758              		.file 18 "/mnt/c/Users/31740/Desktop/newcore/include/linux/init.h"
 2759              		.file 19 "/mnt/c/Users/31740/Desktop/newcore/include/linux/spi/spi.h"
 2760              		.file 20 "/mnt/c/Users/31740/Desktop/newcore/include/linux/errseq.h"
 2761              		.file 21 "/mnt/c/Users/31740/Desktop/newcore/include/linux/time64.h"
 2762              		.file 22 "/mnt/c/Users/31740/Desktop/newcore/arch/arm_m/include/asm/spinlock.h"
 2763              		.file 23 "/mnt/c/Users/31740/Desktop/newcore/include/linux/spinlock_types_raw.h"
 2764              		.file 24 "/mnt/c/Users/31740/Desktop/newcore/include/linux/spinlock_types.h"
 2765              		.file 25 "/mnt/c/Users/31740/Desktop/newcore/include/linux/rbtree_types.h"
 2766              		.file 26 "/mnt/c/Users/31740/Desktop/newcore/include/linux/uidgid_types.h"
 2767              		.file 27 "/mnt/c/Users/31740/Desktop/newcore/include/linux/projid.h"
 2768              		.file 28 "/mnt/c/Users/31740/Desktop/newcore/include/linux/mnt_idmapping.h"
 2769              		.file 29 "/mnt/c/Users/31740/Desktop/newcore/include/linux/mutex.h"
 2770              		.file 30 "/mnt/c/Users/31740/Desktop/newcore/include/linux/uio.h"
 2771              		.file 31 "/mnt/c/Users/31740/Desktop/newcore/include/linux/wait.h"
 2772              		.file 32 "/mnt/c/Users/31740/Desktop/newcore/include/linux/xarray.h"
 2773              		.file 33 "/mnt/c/Users/31740/Desktop/newcore/include/linux/migrate_mode.h"
 2774              		.file 34 "/mnt/c/Users/31740/Desktop/newcore/include/linux/rw_hint.h"
 2775              		.file 35 "/mnt/c/Users/31740/Desktop/newcore/include/linux/stddef.h"
 2776              		.file 36 "/mnt/c/Users/31740/Desktop/newcore/include/linux/gfp_types.h"
ARM GAS  /tmp/ccyCLDig.s 			page 183


 2777              		.file 37 "/mnt/c/Users/31740/Desktop/newcore/include/linux/reciprocal_div.h"
 2778              		.file 38 "/mnt/c/Users/31740/Desktop/newcore/include/linux/bvec.h"
 2779              		.file 39 "/mnt/c/Users/31740/Desktop/newcore/include/linux/bio.h"
 2780              		.file 40 "/mnt/c/Users/31740/Desktop/newcore/include/linux/mempool_super_haper.h"
 2781              		.file 41 "/mnt/c/Users/31740/Desktop/newcore/include/linux/mempool.h"
 2782              		.file 42 "/mnt/c/Users/31740/Desktop/newcore/include/linux/lockdep_types.h"
 2783              		.file 43 "/mnt/c/Users/31740/Desktop/newcore/include/linux/workqueue_types.h"
 2784              		.file 44 "/mnt/c/Users/31740/Desktop/newcore/include/linux/dcache.h"
 2785              		.file 45 "/mnt/c/Users/31740/Desktop/newcore/include/uapi/linux/pr.h"
 2786              		.file 46 "/mnt/c/Users/31740/Desktop/newcore/include/linux/pr.h"
 2787              		.file 47 "/mnt/c/Users/31740/Desktop/newcore/include/linux/hdreg.h"
 2788              		.file 48 "/mnt/c/Users/31740/Desktop/newcore/include/linux/lockref.h"
 2789              		.file 49 "/mnt/c/Users/31740/Desktop/newcore/include/linux/path.h"
 2790              		.file 50 "/mnt/c/Users/31740/Desktop/newcore/include/linux/statfs.h"
 2791              		.file 51 "/mnt/c/Users/31740/Desktop/newcore/include/linux/stat.h"
 2792              		.file 52 "/mnt/c/Users/31740/Desktop/newcore/arch/arm_m/include/asm/string.h"
 2793              		.file 53 "/mnt/c/Users/31740/Desktop/newcore/include/linux/printk.h"
 2794              		.file 54 "/mnt/c/Users/31740/Desktop/newcore/include/linux/instrumented.h"
 2795              		.file 55 "/mnt/c/Users/31740/Desktop/newcore/include/linux/kcsan-checks.h"
 2796              		.file 56 "/mnt/c/Users/31740/Desktop/newcore/include/linux/kasan-checks.h"
 2797              		.file 57 "<built-in>"
ARM GAS  /tmp/ccyCLDig.s 			page 184


DEFINED SYMBOLS
                            *ABS*:00000000 w25qxx.c
     /tmp/ccyCLDig.s:21     .text.__kmap:00000000 $t
     /tmp/ccyCLDig.s:26     .text.__kmap:00000000 __kmap
     /tmp/ccyCLDig.s:52     .text.W25Qxx_write_enable:00000000 $t
     /tmp/ccyCLDig.s:57     .text.W25Qxx_write_enable:00000000 W25Qxx_write_enable
     /tmp/ccyCLDig.s:112    .text.W25Qxx_wait_busy:00000000 $t
     /tmp/ccyCLDig.s:117    .text.W25Qxx_wait_busy:00000000 W25Qxx_wait_busy
     /tmp/ccyCLDig.s:192    .text.W25Qxx_erase_sector:00000000 $t
     /tmp/ccyCLDig.s:197    .text.W25Qxx_erase_sector:00000000 W25Qxx_erase_sector
     /tmp/ccyCLDig.s:269    .text.W25Qxx_write:00000000 $t
     /tmp/ccyCLDig.s:274    .text.W25Qxx_write:00000000 W25Qxx_write
     /tmp/ccyCLDig.s:360    .text.W25Qxx_read:00000000 $t
     /tmp/ccyCLDig.s:365    .text.W25Qxx_read:00000000 W25Qxx_read
     /tmp/ccyCLDig.s:447    .text.W25Qxx_device_write_page:00000000 $t
     /tmp/ccyCLDig.s:452    .text.W25Qxx_device_write_page:00000000 W25Qxx_device_write_page
     /tmp/ccyCLDig.s:542    .text.W25Qxx_device_read_page:00000000 $t
     /tmp/ccyCLDig.s:547    .text.W25Qxx_device_read_page:00000000 W25Qxx_device_read_page
     /tmp/ccyCLDig.s:581    .text.w25qxx_getgeo:00000000 $t
     /tmp/ccyCLDig.s:586    .text.w25qxx_getgeo:00000000 w25qxx_getgeo
     /tmp/ccyCLDig.s:622    .text.w25qxx_getgeo:00000018 $d
     /tmp/ccyCLDig.s:2750   .bss.w25qxx1_dev:00000000 w25qxx1_dev
     /tmp/ccyCLDig.s:627    .rodata.w25qxx_read_id.str1.4:00000000 $d
     /tmp/ccyCLDig.s:632    .text.w25qxx_read_id:00000000 $t
     /tmp/ccyCLDig.s:637    .text.w25qxx_read_id:00000000 w25qxx_read_id
     /tmp/ccyCLDig.s:776    .text.w25qxx_read_id:00000094 $d
     /tmp/ccyCLDig.s:781    .rodata.w25qxx_release.str1.4:00000000 $d
     /tmp/ccyCLDig.s:785    .text.w25qxx_release:00000000 $t
     /tmp/ccyCLDig.s:790    .text.w25qxx_release:00000000 w25qxx_release
     /tmp/ccyCLDig.s:817    .text.w25qxx_release:0000000c $d
     /tmp/ccyCLDig.s:822    .rodata.w25qxx_open.str1.4:00000000 $d
     /tmp/ccyCLDig.s:826    .text.w25qxx_open:00000000 $t
     /tmp/ccyCLDig.s:831    .text.w25qxx_open:00000000 w25qxx_open
     /tmp/ccyCLDig.s:860    .text.w25qxx_open:00000010 $d
     /tmp/ccyCLDig.s:865    .rodata.set_cs_pin_high.str1.4:00000000 $d
     /tmp/ccyCLDig.s:872    .text.set_cs_pin_high:00000000 $t
     /tmp/ccyCLDig.s:877    .text.set_cs_pin_high:00000000 set_cs_pin_high
     /tmp/ccyCLDig.s:922    .text.set_cs_pin_high:00000020 $d
     /tmp/ccyCLDig.s:928    .rodata.set_cs_pin_low.str1.4:00000000 $d
     /tmp/ccyCLDig.s:935    .text.set_cs_pin_low:00000000 $t
     /tmp/ccyCLDig.s:940    .text.set_cs_pin_low:00000000 set_cs_pin_low
     /tmp/ccyCLDig.s:985    .text.set_cs_pin_low:00000020 $d
     /tmp/ccyCLDig.s:991    .text.w25qxx_read_data:00000000 $t
     /tmp/ccyCLDig.s:996    .text.w25qxx_read_data:00000000 w25qxx_read_data
     /tmp/ccyCLDig.s:1039   .text.w25qxx_send_data:00000000 $t
     /tmp/ccyCLDig.s:1044   .text.w25qxx_send_data:00000000 w25qxx_send_data
     /tmp/ccyCLDig.s:1087   .rodata.cs_pin_init.str1.4:00000000 $d
     /tmp/ccyCLDig.s:1097   .text.cs_pin_init:00000000 $t
     /tmp/ccyCLDig.s:1102   .text.cs_pin_init:00000000 cs_pin_init
     /tmp/ccyCLDig.s:1221   .text.cs_pin_init:0000006c $d
     /tmp/ccyCLDig.s:1228   .rodata.spi_write_enable.str1.4:00000000 $d
     /tmp/ccyCLDig.s:1232   .text.spi_write_enable:00000000 $t
     /tmp/ccyCLDig.s:1237   .text.spi_write_enable:00000000 spi_write_enable
     /tmp/ccyCLDig.s:1318   .text.spi_write_enable:0000003c $d
     /tmp/ccyCLDig.s:1324   .rodata.w25qxx_device_init.str1.4:00000000 $d
     /tmp/ccyCLDig.s:1328   .text.w25qxx_device_init:00000000 $t
     /tmp/ccyCLDig.s:1333   .text.w25qxx_device_init:00000000 w25qxx_device_init
ARM GAS  /tmp/ccyCLDig.s 			page 185


     /tmp/ccyCLDig.s:1379   .text.w25qxx_device_init:00000020 $d
     /tmp/ccyCLDig.s:1385   .text.add_disk:00000000 $t
     /tmp/ccyCLDig.s:1390   .text.add_disk:00000000 add_disk
     /tmp/ccyCLDig.s:1414   .text.__free_pages:00000000 $t
     /tmp/ccyCLDig.s:1419   .text.__free_pages:00000000 __free_pages
     /tmp/ccyCLDig.s:1502   .text.__put_page:00000000 $t
     /tmp/ccyCLDig.s:1507   .text.__put_page:00000000 __put_page
     /tmp/ccyCLDig.s:1635   .rodata.w25qxx_request.str1.4:00000000 $d
     /tmp/ccyCLDig.s:1642   .text.w25qxx_request:00000000 $t
     /tmp/ccyCLDig.s:1647   .text.w25qxx_request:00000000 w25qxx_request
     /tmp/ccyCLDig.s:2044   .text.w25qxx_request:00000180 $d
     /tmp/ccyCLDig.s:2744   .bss.w25qxx_buffer:00000000 w25qxx_buffer
     /tmp/ccyCLDig.s:2054   .text.w25qxx_request_queue:00000000 $t
     /tmp/ccyCLDig.s:2059   .text.w25qxx_request_queue:00000000 w25qxx_request_queue
     /tmp/ccyCLDig.s:2100   .text.blk_cleanup_queue:00000000 $t
     /tmp/ccyCLDig.s:2105   .text.blk_cleanup_queue:00000000 blk_cleanup_queue
     /tmp/ccyCLDig.s:2127   .text.put_disk:00000000 $t
     /tmp/ccyCLDig.s:2132   .text.put_disk:00000000 put_disk
     /tmp/ccyCLDig.s:2154   .rodata.new_w25qxx_dev.str1.4:00000000 $d
     /tmp/ccyCLDig.s:2158   .text.new_w25qxx_dev:00000000 $t
     /tmp/ccyCLDig.s:2164   .text.new_w25qxx_dev:00000000 new_w25qxx_dev
     /tmp/ccyCLDig.s:2253   .text.new_w25qxx_dev:00000044 $d
     /tmp/ccyCLDig.s:2262   .rodata.str1.4:00000000 $d
     /tmp/ccyCLDig.s:2278   .init.text:00000000 $t
     /tmp/ccyCLDig.s:2283   .init.text:00000000 w25qxx_init
     /tmp/ccyCLDig.s:2685   .init.text:00000164 $d
     /tmp/ccyCLDig.s:2712   .bss.w25qxx_lock:00000000 w25qxx_lock
     /tmp/ccyCLDig.s:2718   .bss.w25qxx_queue:00000000 w25qxx_queue
     /tmp/ccyCLDig.s:2724   .bss.w25qxx_disk:00000000 w25qxx_disk
     /tmp/ccyCLDig.s:2731   .data.w25qxx_ops:00000000 w25qxx_ops
     /tmp/ccyCLDig.s:2703   .device_initcall_sync:00000000 $d
     /tmp/ccyCLDig.s:2706   .device_initcall_sync:00000000 _initcall_w25qxx_init
     /tmp/ccyCLDig.s:2709   .bss.w25qxx_lock:00000000 $d
     /tmp/ccyCLDig.s:2715   .bss.w25qxx_queue:00000000 $d
     /tmp/ccyCLDig.s:2721   .bss.w25qxx_disk:00000000 $d
     /tmp/ccyCLDig.s:2728   .data.w25qxx_ops:00000000 $d
     /tmp/ccyCLDig.s:2741   .bss.w25qxx_buffer:00000000 $d
     /tmp/ccyCLDig.s:2747   .bss.w25qxx1_dev:00000000 $d

UNDEFINED SYMBOLS
printk
kernel_write
vfs_ioctl
filp_open
__add_disk
__sfree__
memcpy
request_queue_remove
blk_fetch_request
__blk_cleanup_queue
__put_disk
__smalloc__
request_queue_init
__gendisk_alloc
