ARM GAS  /tmp/ccnTZmpF.s 			page 1


   1              		.cpu cortex-m4
   2              		.arch armv7e-m
   3              		.fpu fpv4-sp-d16
   4              		.eabi_attribute 27, 1
   5              		.eabi_attribute 28, 1
   6              		.eabi_attribute 20, 1
   7              		.eabi_attribute 21, 1
   8              		.eabi_attribute 23, 3
   9              		.eabi_attribute 24, 1
  10              		.eabi_attribute 25, 1
  11              		.eabi_attribute 26, 1
  12              		.eabi_attribute 30, 1
  13              		.eabi_attribute 34, 1
  14              		.eabi_attribute 18, 4
  15              		.file	"w25qxx.c"
  16              		.text
  17              	.Ltext0:
  18              		.cfi_sections	.debug_frame
  19              		.file 1 "./drivers/storage/w25qxx/w25qxx.c"
  20              		.section	.text.__kmap,"ax",%progbits
  21              		.align	1
  22              		.syntax unified
  23              		.thumb
  24              		.thumb_func
  26              	__kmap:
  27              	.LVL0:
  28              	.LFB918:
  29              		.file 2 "./include/linux/mm_type.h"
   1:./include/linux/mm_type.h **** /* SPDX-License-Identifier: GPL-2.0 */
   2:./include/linux/mm_type.h **** #ifndef _LINUX_MM_TYPES_H
   3:./include/linux/mm_type.h **** #define _LINUX_MM_TYPES_H
   4:./include/linux/mm_type.h **** 
   5:./include/linux/mm_type.h **** #include <linux/list.h>
   6:./include/linux/mm_type.h **** #include <linux/spinlock.h>
   7:./include/linux/mm_type.h **** #include <linux/slab.h>
   8:./include/linux/mm_type.h **** #include <linux/atomic.h>
   9:./include/linux/mm_type.h **** #include <linux/errno.h>
  10:./include/linux/mm_type.h **** 
  11:./include/linux/mm_type.h **** 
  12:./include/linux/mm_type.h **** 
  13:./include/linux/mm_type.h **** struct page {
  14:./include/linux/mm_type.h **** 	unsigned long flags;		/* Atomic flags, some possibly
  15:./include/linux/mm_type.h **** 					 * updated asynchronously */
  16:./include/linux/mm_type.h **** 	/*
  17:./include/linux/mm_type.h **** 	 * Five words (20/40 bytes) are available in this union.
  18:./include/linux/mm_type.h **** 	 * WARNING: bit 0 of the first word is used for PageTail(). That
  19:./include/linux/mm_type.h **** 	 * means the other users of this union MUST NOT use the bit to
  20:./include/linux/mm_type.h **** 	 * avoid collision and false-positive PageTail().
  21:./include/linux/mm_type.h **** 	 */
  22:./include/linux/mm_type.h **** 	union {
  23:./include/linux/mm_type.h **** 		struct {	/* Page cache and anonymous pages */
  24:./include/linux/mm_type.h **** 			/**
  25:./include/linux/mm_type.h **** 			 * @lru: Pageout list, eg. active_list protected by
  26:./include/linux/mm_type.h **** 			 * lruvec->lru_lock.  Sometimes used as a generic list
  27:./include/linux/mm_type.h **** 			 * by the page owner.
  28:./include/linux/mm_type.h **** 			 */
  29:./include/linux/mm_type.h **** 			union {
ARM GAS  /tmp/ccnTZmpF.s 			page 2


  30:./include/linux/mm_type.h **** 				struct list_head lru;
  31:./include/linux/mm_type.h **** 
  32:./include/linux/mm_type.h **** 				/* Or, for the Unevictable "LRU list" slot */
  33:./include/linux/mm_type.h **** 				struct {
  34:./include/linux/mm_type.h **** 					/* Always even, to negate PageTail */
  35:./include/linux/mm_type.h **** 					void *__filler;
  36:./include/linux/mm_type.h **** 					/* Count page's or folio's mlocks */
  37:./include/linux/mm_type.h **** 					unsigned int mlock_count;
  38:./include/linux/mm_type.h **** 				};
  39:./include/linux/mm_type.h **** 
  40:./include/linux/mm_type.h **** 				/* Or, free page */
  41:./include/linux/mm_type.h **** 				struct list_head buddy_list;
  42:./include/linux/mm_type.h **** 				struct list_head pcp_list;
  43:./include/linux/mm_type.h **** 			};
  44:./include/linux/mm_type.h **** 			/* See page-flags.h for PAGE_MAPPING_FLAGS */
  45:./include/linux/mm_type.h **** 			struct address_space *mapping;
  46:./include/linux/mm_type.h **** 			union {
  47:./include/linux/mm_type.h **** 				pgoff_t index;		/* Our offset within mapping. */
  48:./include/linux/mm_type.h **** 				unsigned long share;	/* share count for fsdax */
  49:./include/linux/mm_type.h **** 			};
  50:./include/linux/mm_type.h **** 			/**
  51:./include/linux/mm_type.h **** 			 * @private: Mapping-private opaque data.
  52:./include/linux/mm_type.h **** 			 * Usually used for buffer_heads if PagePrivate.
  53:./include/linux/mm_type.h **** 			 * Used for swp_entry_t if swapcache flag set.
  54:./include/linux/mm_type.h **** 			 * Indicates order in the buddy system if PageBuddy.
  55:./include/linux/mm_type.h **** 			 */
  56:./include/linux/mm_type.h **** 			unsigned long private;
  57:./include/linux/mm_type.h **** 		};
  58:./include/linux/mm_type.h **** 		struct {	/* page_pool used by netstack */
  59:./include/linux/mm_type.h **** 			/**
  60:./include/linux/mm_type.h **** 			 * @pp_magic: magic value to avoid recycling non
  61:./include/linux/mm_type.h **** 			 * page_pool allocated pages.
  62:./include/linux/mm_type.h **** 			 */
  63:./include/linux/mm_type.h **** 			unsigned long pp_magic;
  64:./include/linux/mm_type.h **** 		//	struct page_pool *pp; 
  65:./include/linux/mm_type.h **** 			unsigned long _pp_mapping_pad;
  66:./include/linux/mm_type.h **** 			unsigned long dma_addr;
  67:./include/linux/mm_type.h **** 		//	atomic_long_t pp_ref_count;
  68:./include/linux/mm_type.h **** 		};
  69:./include/linux/mm_type.h **** 		struct {	/* Tail pages of compound page */
  70:./include/linux/mm_type.h **** 			unsigned long compound_head;	/* Bit zero is set */
  71:./include/linux/mm_type.h **** 		};
  72:./include/linux/mm_type.h **** 		struct {	/* ZONE_DEVICE pages */
  73:./include/linux/mm_type.h **** 			/** @pgmap: Points to the hosting device page map. */
  74:./include/linux/mm_type.h **** 			// struct dev_pagemap *pgmap;
  75:./include/linux/mm_type.h **** 			void *zone_device_data;
  76:./include/linux/mm_type.h **** 			/*
  77:./include/linux/mm_type.h **** 			 * ZONE_DEVICE private pages are counted as being
  78:./include/linux/mm_type.h **** 			 * mapped so the next 3 words hold the mapping, index,
  79:./include/linux/mm_type.h **** 			 * and private fields from the source anonymous or
  80:./include/linux/mm_type.h **** 			 * page cache page while the page is migrated to device
  81:./include/linux/mm_type.h **** 			 * private memory.
  82:./include/linux/mm_type.h **** 			 * ZONE_DEVICE MEMORY_DEVICE_FS_DAX pages also
  83:./include/linux/mm_type.h **** 			 * use the mapping, index, and private fields when
  84:./include/linux/mm_type.h **** 			 * pmem backed DAX files are mapped.
  85:./include/linux/mm_type.h **** 			 */
  86:./include/linux/mm_type.h **** 		};
ARM GAS  /tmp/ccnTZmpF.s 			page 3


  87:./include/linux/mm_type.h **** 
  88:./include/linux/mm_type.h **** 		/** @rcu_head: You can use this to free a page by RCU. */
  89:./include/linux/mm_type.h **** 		struct rcu_head rcu_head;
  90:./include/linux/mm_type.h **** 	};
  91:./include/linux/mm_type.h **** 
  92:./include/linux/mm_type.h **** 	union {		/* This union is 4 bytes in size. */
  93:./include/linux/mm_type.h **** 		/*
  94:./include/linux/mm_type.h **** 		 * For head pages of typed folios, the value stored here
  95:./include/linux/mm_type.h **** 		 * allows for determining what this page is used for. The
  96:./include/linux/mm_type.h **** 		 * tail pages of typed folios will not store a type
  97:./include/linux/mm_type.h **** 		 * (page_type == _mapcount == -1).
  98:./include/linux/mm_type.h **** 		 *
  99:./include/linux/mm_type.h **** 		 * See page-flags.h for a list of page types which are currently
 100:./include/linux/mm_type.h **** 		 * stored here.
 101:./include/linux/mm_type.h **** 		 *
 102:./include/linux/mm_type.h **** 		 * Owners of typed folios may reuse the lower 16 bit of the
 103:./include/linux/mm_type.h **** 		 * head page page_type field after setting the page type,
 104:./include/linux/mm_type.h **** 		 * but must reset these 16 bit to -1 before clearing the
 105:./include/linux/mm_type.h **** 		 * page type.
 106:./include/linux/mm_type.h **** 		 */
 107:./include/linux/mm_type.h **** 		unsigned int page_type;
 108:./include/linux/mm_type.h **** 
 109:./include/linux/mm_type.h **** 		/*
 110:./include/linux/mm_type.h **** 		 * For pages that are part of non-typed folios for which mappings
 111:./include/linux/mm_type.h **** 		 * are tracked via the RMAP, encodes the number of times this page
 112:./include/linux/mm_type.h **** 		 * is directly referenced by a page table.
 113:./include/linux/mm_type.h **** 		 *
 114:./include/linux/mm_type.h **** 		 * Note that the mapcount is always initialized to -1, so that
 115:./include/linux/mm_type.h **** 		 * transitions both from it and to it can be tracked, using
 116:./include/linux/mm_type.h **** 		 * atomic_inc_and_test() and atomic_add_negative(-1).
 117:./include/linux/mm_type.h **** 		 */
 118:./include/linux/mm_type.h **** 		atomic_t _mapcount;
 119:./include/linux/mm_type.h **** 	};
 120:./include/linux/mm_type.h **** 
 121:./include/linux/mm_type.h **** 	/* Usage count. *DO NOT USE DIRECTLY*. See page_ref.h */
 122:./include/linux/mm_type.h **** 	atomic_t _refcount;
 123:./include/linux/mm_type.h **** 
 124:./include/linux/mm_type.h **** #ifdef CONFIG_MEMCG
 125:./include/linux/mm_type.h **** 	unsigned long memcg_data;
 126:./include/linux/mm_type.h **** #elif defined(CONFIG_SLAB_OBJ_EXT)
 127:./include/linux/mm_type.h **** 	unsigned long _unused_slab_obj_exts;
 128:./include/linux/mm_type.h **** #endif
 129:./include/linux/mm_type.h **** 
 130:./include/linux/mm_type.h **** 	/*
 131:./include/linux/mm_type.h **** 	 * On machines where all RAM is mapped into kernel address space,
 132:./include/linux/mm_type.h **** 	 * we can simply calculate the virtual address. On machines with
 133:./include/linux/mm_type.h **** 	 * highmem some memory is mapped into kernel virtual memory
 134:./include/linux/mm_type.h **** 	 * dynamically, so we need a place to store that address.
 135:./include/linux/mm_type.h **** 	 * Note that this field could be 16 bits on x86 ... ;)
 136:./include/linux/mm_type.h **** 	 *
 137:./include/linux/mm_type.h **** 	 * Architectures with slow multiplication can define
 138:./include/linux/mm_type.h **** 	 * WANT_PAGE_VIRTUAL in asm/page.h
 139:./include/linux/mm_type.h **** 	 */
 140:./include/linux/mm_type.h **** #if defined(WANT_PAGE_VIRTUAL)
 141:./include/linux/mm_type.h **** 	void *virtual;			/* Kernel virtual address (NULL if
 142:./include/linux/mm_type.h **** 					   not kmapped, ie. highmem) */
 143:./include/linux/mm_type.h **** #endif /* WANT_PAGE_VIRTUAL */
ARM GAS  /tmp/ccnTZmpF.s 			page 4


 144:./include/linux/mm_type.h **** 
 145:./include/linux/mm_type.h **** #ifdef LAST_CPUPID_NOT_IN_PAGE_FLAGS
 146:./include/linux/mm_type.h **** 	int _last_cpupid;
 147:./include/linux/mm_type.h **** #endif
 148:./include/linux/mm_type.h **** 
 149:./include/linux/mm_type.h **** #ifdef CONFIG_KMSAN
 150:./include/linux/mm_type.h **** 	/*
 151:./include/linux/mm_type.h **** 	 * KMSAN metadata for this page:
 152:./include/linux/mm_type.h **** 	 *  - shadow page: every bit indicates whether the corresponding
 153:./include/linux/mm_type.h **** 	 *    bit of the original page is initialized (0) or not (1);
 154:./include/linux/mm_type.h **** 	 *  - origin page: every 4 bytes contain an id of the stack trace
 155:./include/linux/mm_type.h **** 	 *    where the uninitialized value was created.
 156:./include/linux/mm_type.h **** 	 */
 157:./include/linux/mm_type.h **** 	struct page *kmsan_shadow;
 158:./include/linux/mm_type.h **** 	struct page *kmsan_origin;
 159:./include/linux/mm_type.h **** #endif
 160:./include/linux/mm_type.h **** };
 161:./include/linux/mm_type.h **** 
 162:./include/linux/mm_type.h **** #if CONFIG_MMU 
 163:./include/linux/mm_type.h ****   #include <mm_page.h>
 164:./include/linux/mm_type.h **** 
 165:./include/linux/mm_type.h **** #else
 166:./include/linux/mm_type.h **** 
 167:./include/linux/mm_type.h **** 
 168:./include/linux/mm_type.h **** 
 169:./include/linux/mm_type.h **** 
 170:./include/linux/mm_type.h **** #define PG_locked       (1 << 0)
 171:./include/linux/mm_type.h **** #define PG_referenced   (1 << 1)
 172:./include/linux/mm_type.h **** #define PG_uptodate     (1 << 2)
 173:./include/linux/mm_type.h **** #define PG_dirty        (1 << 11)
 174:./include/linux/mm_type.h **** #define PG_active       (1 << 12)
 175:./include/linux/mm_type.h **** 
 176:./include/linux/mm_type.h **** static inline void __set_page_flag(struct page *page, unsigned long flag){
 177:./include/linux/mm_type.h ****     if (page)
 178:./include/linux/mm_type.h ****         page->flags |= flag;
 179:./include/linux/mm_type.h **** }
 180:./include/linux/mm_type.h **** static inline void __clear_page_flag(struct page *page, unsigned long flag){
 181:./include/linux/mm_type.h ****     if (page)
 182:./include/linux/mm_type.h ****         page->flags &= ~flag;
 183:./include/linux/mm_type.h **** }
 184:./include/linux/mm_type.h **** 
 185:./include/linux/mm_type.h **** static inline int __test_page_flag(struct page *page, unsigned long flag){
 186:./include/linux/mm_type.h ****     return (page && (page->flags & flag)) ? 1 : 0;
 187:./include/linux/mm_type.h **** }
 188:./include/linux/mm_type.h **** 
 189:./include/linux/mm_type.h **** static inline struct page *__page_create(gfp_t flags ){
 190:./include/linux/mm_type.h ****     struct page *page = (struct page *)kmalloc(sizeof(struct page), flags);
 191:./include/linux/mm_type.h ****     if (page == NULL)
 192:./include/linux/mm_type.h ****         return NULL;
 193:./include/linux/mm_type.h ****     page->flags = 0;
 194:./include/linux/mm_type.h ****     atomic_set(&page->_mapcount, 0);
 195:./include/linux/mm_type.h ****     atomic_set(&page->_refcount, 0); 
 196:./include/linux/mm_type.h ****     page->zone_device_data = NULL;
 197:./include/linux/mm_type.h ****     return page;
 198:./include/linux/mm_type.h **** }
 199:./include/linux/mm_type.h **** static inline void __page_destroy(struct page *page){
 200:./include/linux/mm_type.h ****     if (page) 
ARM GAS  /tmp/ccnTZmpF.s 			page 5


 201:./include/linux/mm_type.h **** 	{
 202:./include/linux/mm_type.h ****         kfree(page);
 203:./include/linux/mm_type.h **** 		page = NULL;
 204:./include/linux/mm_type.h ****     }
 205:./include/linux/mm_type.h **** }
 206:./include/linux/mm_type.h **** 
 207:./include/linux/mm_type.h **** 
 208:./include/linux/mm_type.h **** static inline void *__page_address(struct page *page){
 209:./include/linux/mm_type.h ****     return page ? page->zone_device_data : NULL; 
 210:./include/linux/mm_type.h **** }
 211:./include/linux/mm_type.h **** static inline void __set_page_dirty(struct page *page){
 212:./include/linux/mm_type.h ****     if (page)
 213:./include/linux/mm_type.h **** 	__set_page_flag(page, PG_dirty);
 214:./include/linux/mm_type.h **** }
 215:./include/linux/mm_type.h **** 
 216:./include/linux/mm_type.h **** static inline void __clear_page_dirty(struct page *page){
 217:./include/linux/mm_type.h ****     if (page)
 218:./include/linux/mm_type.h **** 	__clear_page_flag(page, PG_dirty);
 219:./include/linux/mm_type.h **** }
 220:./include/linux/mm_type.h **** 
 221:./include/linux/mm_type.h **** static inline struct page *__alloc_pages( gfp_t flags , unsigned int order ){
 222:./include/linux/mm_type.h **** 	struct page *page = __page_create(flags);
 223:./include/linux/mm_type.h **** 	if(page == NULL)
 224:./include/linux/mm_type.h **** 		return -ENOMEM ;
 225:./include/linux/mm_type.h **** 	void *data = (void *)kmalloc(PAGE_SIZE, flags);
 226:./include/linux/mm_type.h **** 	if(data == NULL){
 227:./include/linux/mm_type.h **** 		__page_destroy(page);
 228:./include/linux/mm_type.h **** 		return -ENOMEM ;
 229:./include/linux/mm_type.h **** 	}
 230:./include/linux/mm_type.h **** 	page->page_type = 1234;
 231:./include/linux/mm_type.h **** 	page->zone_device_data = data;
 232:./include/linux/mm_type.h **** 	return page;
 233:./include/linux/mm_type.h **** }
 234:./include/linux/mm_type.h **** 
 235:./include/linux/mm_type.h **** static inline void __free_pages(struct page *page, unsigned int order){
 236:./include/linux/mm_type.h ****     if (page) {
 237:./include/linux/mm_type.h **** 		if(page->page_type == 1234)
 238:./include/linux/mm_type.h **** 		kfree(page->zone_device_data);
 239:./include/linux/mm_type.h ****         __page_destroy(page);
 240:./include/linux/mm_type.h ****     }
 241:./include/linux/mm_type.h **** }
 242:./include/linux/mm_type.h **** 
 243:./include/linux/mm_type.h **** static inline struct page *__pfn_to_page(unsigned long pfn){
 244:./include/linux/mm_type.h **** 	struct page *page = __page_create(GFP_KERNEL);
 245:./include/linux/mm_type.h **** 	if(page == NULL)
 246:./include/linux/mm_type.h **** 		return -ENOMEM ;
 247:./include/linux/mm_type.h **** 	page->zone_device_data = (void *)(pfn << 0 );
 248:./include/linux/mm_type.h **** 	return page;
 249:./include/linux/mm_type.h **** }
 250:./include/linux/mm_type.h **** 
 251:./include/linux/mm_type.h **** 
 252:./include/linux/mm_type.h **** static inline void __get_page(struct page *page){
 253:./include/linux/mm_type.h ****     if (page)
 254:./include/linux/mm_type.h ****         atomic_inc(&page->_refcount);
 255:./include/linux/mm_type.h **** }
 256:./include/linux/mm_type.h **** 
 257:./include/linux/mm_type.h **** 
ARM GAS  /tmp/ccnTZmpF.s 			page 6


 258:./include/linux/mm_type.h **** static inline void __put_page(struct page *page){
 259:./include/linux/mm_type.h ****     if (page && atomic_dec_and_test(&page->_refcount) ) {
 260:./include/linux/mm_type.h ****         __free_pages(page, 0);
 261:./include/linux/mm_type.h ****     }
 262:./include/linux/mm_type.h **** 	else if(page->_refcount.counter < 0) {
 263:./include/linux/mm_type.h **** 		__free_pages(page, 0);
 264:./include/linux/mm_type.h **** 	}
 265:./include/linux/mm_type.h **** }
 266:./include/linux/mm_type.h **** 
 267:./include/linux/mm_type.h **** static void* __kmap(struct page *page){
  30              		.loc 2 267 39 view -0
  31              		.cfi_startproc
  32              		@ args = 0, pretend = 0, frame = 0
  33              		@ frame_needed = 0, uses_anonymous_args = 0
  34              		@ link register save eliminated.
 268:./include/linux/mm_type.h **** 	if (!page)
  35              		.loc 2 268 2 view .LVU1
  36              		.loc 2 268 5 is_stmt 0 view .LVU2
  37 0000 08B1     		cbz	r0, .L3
 269:./include/linux/mm_type.h **** 		return NULL;
 270:./include/linux/mm_type.h **** 	//__get_page(page);
 271:./include/linux/mm_type.h **** 	return page->zone_device_data;
  38              		.loc 2 271 2 is_stmt 1 view .LVU3
  39              		.loc 2 271 13 is_stmt 0 view .LVU4
  40 0002 4068     		ldr	r0, [r0, #4]
  41              	.LVL1:
  42              		.loc 2 271 13 view .LVU5
  43 0004 7047     		bx	lr
  44              	.LVL2:
  45              	.L3:
 272:./include/linux/mm_type.h **** }
  46              		.loc 2 272 1 view .LVU6
  47 0006 7047     		bx	lr
  48              		.cfi_endproc
  49              	.LFE918:
  51              		.section	.text.W25Qxx_write_enable,"ax",%progbits
  52              		.align	1
  53              		.syntax unified
  54              		.thumb
  55              		.thumb_func
  57              	W25Qxx_write_enable:
  58              	.LVL3:
  59              	.LFB1042:
  60              		.file 3 "./drivers/storage/w25qxx/w25qxx.h"
   1:./drivers/storage/w25qxx/w25qxx.h **** #ifndef __W25QXX_H__
   2:./drivers/storage/w25qxx/w25qxx.h **** #define __W25QXX_H__
   3:./drivers/storage/w25qxx/w25qxx.h **** 
   4:./drivers/storage/w25qxx/w25qxx.h **** struct w25qxx_dev
   5:./drivers/storage/w25qxx/w25qxx.h **** {
   6:./drivers/storage/w25qxx/w25qxx.h ****     u8 status; 
   7:./drivers/storage/w25qxx/w25qxx.h ****     struct file *spi_dev;
   8:./drivers/storage/w25qxx/w25qxx.h ****     struct file *gpio_cs_dev;
   9:./drivers/storage/w25qxx/w25qxx.h ****     struct spi_ioc_transfer xfer;
  10:./drivers/storage/w25qxx/w25qxx.h ****     uint16_t id;
  11:./drivers/storage/w25qxx/w25qxx.h ****     uint32_t size;
  12:./drivers/storage/w25qxx/w25qxx.h ****     int (*send_data)(struct w25qxx_dev *w25qxx_dev,u8 *data,int len);
  13:./drivers/storage/w25qxx/w25qxx.h ****     int (*read_data)(struct w25qxx_dev *w25qxx_dev,u8 *data,int len);
ARM GAS  /tmp/ccnTZmpF.s 			page 7


  14:./drivers/storage/w25qxx/w25qxx.h ****     void (*send_start)(struct w25qxx_dev *w25qxx_dev);
  15:./drivers/storage/w25qxx/w25qxx.h ****     void (*send_stop)(struct w25qxx_dev *w25qxx_dev);
  16:./drivers/storage/w25qxx/w25qxx.h **** };
  17:./drivers/storage/w25qxx/w25qxx.h **** 
  18:./drivers/storage/w25qxx/w25qxx.h **** struct w25qxx_dev *new_w25qxx_dev(char *spi_dev,int cs_pin_num);
  19:./drivers/storage/w25qxx/w25qxx.h **** #define W25QXX_SECTOR_SIZE 4096
  20:./drivers/storage/w25qxx/w25qxx.h **** 
  21:./drivers/storage/w25qxx/w25qxx.h **** static int cs_pin_init(struct w25qxx_dev *w25qxx_dev,char *gpio_dev_name ,int pin_num)
  22:./drivers/storage/w25qxx/w25qxx.h **** {
  23:./drivers/storage/w25qxx/w25qxx.h ****     if(pin_num == -1)return 0;
  24:./drivers/storage/w25qxx/w25qxx.h ****     
  25:./drivers/storage/w25qxx/w25qxx.h ****     w25qxx_dev->gpio_cs_dev = filp_open(gpio_dev_name, O_RDWR, 0);
  26:./drivers/storage/w25qxx/w25qxx.h ****     if(IS_ERR(w25qxx_dev->gpio_cs_dev)){
  27:./drivers/storage/w25qxx/w25qxx.h ****         printk("open file failed\n\r");
  28:./drivers/storage/w25qxx/w25qxx.h ****         return -1;
  29:./drivers/storage/w25qxx/w25qxx.h ****     }
  30:./drivers/storage/w25qxx/w25qxx.h ****     printk("set cs ping use %d\n\r",pin_num);
  31:./drivers/storage/w25qxx/w25qxx.h ****     int i = vfs_ioctl(w25qxx_dev->gpio_cs_dev,GPIO_SET_PIN_NUMBER,pin_num);
  32:./drivers/storage/w25qxx/w25qxx.h ****     if(i < 0){
  33:./drivers/storage/w25qxx/w25qxx.h ****         printk("set pin number failed\n\r");
  34:./drivers/storage/w25qxx/w25qxx.h ****         return -1;
  35:./drivers/storage/w25qxx/w25qxx.h ****     }
  36:./drivers/storage/w25qxx/w25qxx.h ****     vfs_ioctl(w25qxx_dev->gpio_cs_dev,GPIO_OUTPUT   ,0);
  37:./drivers/storage/w25qxx/w25qxx.h ****     return 0;
  38:./drivers/storage/w25qxx/w25qxx.h **** }
  39:./drivers/storage/w25qxx/w25qxx.h ****  
  40:./drivers/storage/w25qxx/w25qxx.h **** 
  41:./drivers/storage/w25qxx/w25qxx.h **** static int spi_write_enable(struct w25qxx_dev *w25qxx_dev,char *name ,uint32_t speed)
  42:./drivers/storage/w25qxx/w25qxx.h **** {
  43:./drivers/storage/w25qxx/w25qxx.h ****     w25qxx_dev->spi_dev = filp_open("/dev/spidev1", O_RDWR, 0);
  44:./drivers/storage/w25qxx/w25qxx.h ****     if(IS_ERR(w25qxx_dev->spi_dev)){
  45:./drivers/storage/w25qxx/w25qxx.h ****         printk("open file failed\n\r");
  46:./drivers/storage/w25qxx/w25qxx.h ****         return -1;
  47:./drivers/storage/w25qxx/w25qxx.h ****     }
  48:./drivers/storage/w25qxx/w25qxx.h ****     w25qxx_dev->xfer.speed_hz = speed;
  49:./drivers/storage/w25qxx/w25qxx.h ****     w25qxx_dev->xfer.len = 1;
  50:./drivers/storage/w25qxx/w25qxx.h ****     w25qxx_dev->xfer.delay_usecs = 0;
  51:./drivers/storage/w25qxx/w25qxx.h ****     w25qxx_dev->xfer.bits_per_word = 8;
  52:./drivers/storage/w25qxx/w25qxx.h ****     w25qxx_dev->xfer.cs_change = 0;
  53:./drivers/storage/w25qxx/w25qxx.h **** }
  54:./drivers/storage/w25qxx/w25qxx.h **** 
  55:./drivers/storage/w25qxx/w25qxx.h **** 
  56:./drivers/storage/w25qxx/w25qxx.h **** static int w25qxx_device_init(struct w25qxx_dev *dev,char *spi_dev,int cs_pin_num)
  57:./drivers/storage/w25qxx/w25qxx.h **** {
  58:./drivers/storage/w25qxx/w25qxx.h ****     dev->status = cs_pin_init(dev, "/dev/gpios",cs_pin_num);
  59:./drivers/storage/w25qxx/w25qxx.h ****     if(dev->status < 0){
  60:./drivers/storage/w25qxx/w25qxx.h ****         printk("cs_pin_init failed\n\r");
  61:./drivers/storage/w25qxx/w25qxx.h ****         return -1;
  62:./drivers/storage/w25qxx/w25qxx.h ****     }
  63:./drivers/storage/w25qxx/w25qxx.h ****     dev->status = spi_write_enable(dev,spi_dev, 1000000);
  64:./drivers/storage/w25qxx/w25qxx.h ****     if(dev->status < 0){
  65:./drivers/storage/w25qxx/w25qxx.h ****         printk("spi_write_enable failed\n\r");
  66:./drivers/storage/w25qxx/w25qxx.h ****         filp_close(dev->gpio_cs_dev, NULL);
  67:./drivers/storage/w25qxx/w25qxx.h ****         return -1;
  68:./drivers/storage/w25qxx/w25qxx.h ****     }
  69:./drivers/storage/w25qxx/w25qxx.h ****     return 0;
  70:./drivers/storage/w25qxx/w25qxx.h **** }
ARM GAS  /tmp/ccnTZmpF.s 			page 8


  71:./drivers/storage/w25qxx/w25qxx.h **** 
  72:./drivers/storage/w25qxx/w25qxx.h **** 
  73:./drivers/storage/w25qxx/w25qxx.h **** 
  74:./drivers/storage/w25qxx/w25qxx.h **** static  void set_cs_pin_high(struct w25qxx_dev *w25qxx_dev){
  75:./drivers/storage/w25qxx/w25qxx.h ****     int ret = kernel_write(w25qxx_dev->gpio_cs_dev, "1", 1, 0);
  76:./drivers/storage/w25qxx/w25qxx.h ****     if(ret < 0){
  77:./drivers/storage/w25qxx/w25qxx.h ****        printk("write error 1 \n\r");
  78:./drivers/storage/w25qxx/w25qxx.h ****     }
  79:./drivers/storage/w25qxx/w25qxx.h **** }
  80:./drivers/storage/w25qxx/w25qxx.h **** 
  81:./drivers/storage/w25qxx/w25qxx.h **** static  void set_cs_pin_low(struct w25qxx_dev *w25qxx_dev){
  82:./drivers/storage/w25qxx/w25qxx.h ****    int ret = kernel_write(w25qxx_dev->gpio_cs_dev, "0", 1, 0);
  83:./drivers/storage/w25qxx/w25qxx.h ****    if(ret < 0){
  84:./drivers/storage/w25qxx/w25qxx.h ****       printk("write error 2 \n\r");
  85:./drivers/storage/w25qxx/w25qxx.h ****    }
  86:./drivers/storage/w25qxx/w25qxx.h **** }
  87:./drivers/storage/w25qxx/w25qxx.h **** 
  88:./drivers/storage/w25qxx/w25qxx.h **** static int w25qxx_send_data(struct w25qxx_dev *dev,u8 *data,int len)
  89:./drivers/storage/w25qxx/w25qxx.h **** {
  90:./drivers/storage/w25qxx/w25qxx.h ****     dev->xfer.tx_buf = data;
  91:./drivers/storage/w25qxx/w25qxx.h ****     dev->xfer.rx_buf = NULL;
  92:./drivers/storage/w25qxx/w25qxx.h ****     dev->xfer.len = len;
  93:./drivers/storage/w25qxx/w25qxx.h ****     int i = vfs_ioctl(dev->spi_dev,SPI_IOC_MESSAGE(1),&dev->xfer);
  94:./drivers/storage/w25qxx/w25qxx.h ****     return i;
  95:./drivers/storage/w25qxx/w25qxx.h **** }
  96:./drivers/storage/w25qxx/w25qxx.h **** static int w25qxx_read_data(struct w25qxx_dev *dev,u8 *data,int len)
  97:./drivers/storage/w25qxx/w25qxx.h **** {
  98:./drivers/storage/w25qxx/w25qxx.h ****     dev->xfer.tx_buf = NULL;
  99:./drivers/storage/w25qxx/w25qxx.h ****     dev->xfer.rx_buf = data;
 100:./drivers/storage/w25qxx/w25qxx.h ****     dev->xfer.len = len;
 101:./drivers/storage/w25qxx/w25qxx.h ****     int i = vfs_ioctl(dev->spi_dev,SPI_IOC_MESSAGE(1),&dev->xfer);
 102:./drivers/storage/w25qxx/w25qxx.h ****     return i;
 103:./drivers/storage/w25qxx/w25qxx.h **** }
 104:./drivers/storage/w25qxx/w25qxx.h **** 
 105:./drivers/storage/w25qxx/w25qxx.h **** 
 106:./drivers/storage/w25qxx/w25qxx.h **** 
 107:./drivers/storage/w25qxx/w25qxx.h **** static int w25qxx_read_id(struct w25qxx_dev *dev)
 108:./drivers/storage/w25qxx/w25qxx.h **** {
 109:./drivers/storage/w25qxx/w25qxx.h ****     uint8_t cmd2 = 0x9F;
 110:./drivers/storage/w25qxx/w25qxx.h ****     uint8_t id[3] = {0,0,0}; 
 111:./drivers/storage/w25qxx/w25qxx.h ****     dev->send_start(dev);
 112:./drivers/storage/w25qxx/w25qxx.h ****     dev->send_data(dev,&cmd2,1);
 113:./drivers/storage/w25qxx/w25qxx.h ****     dev->read_data(dev,id,3);
 114:./drivers/storage/w25qxx/w25qxx.h ****     dev->send_stop(dev);
 115:./drivers/storage/w25qxx/w25qxx.h ****     dev->size = 0;
 116:./drivers/storage/w25qxx/w25qxx.h ****     if(id[2]  >= 0x10 && id[2] <= 0x25){
 117:./drivers/storage/w25qxx/w25qxx.h ****         dev->size  = 1 << id[2];
 118:./drivers/storage/w25qxx/w25qxx.h ****     }
 119:./drivers/storage/w25qxx/w25qxx.h ****     printk("FLASH JEDEC ID: 0x%02X 0x%02X 0x%02X ,Detected Flash Size: %d KB (%d MB)\r\n", id[0], i
 120:./drivers/storage/w25qxx/w25qxx.h ****     u8 cmd[4] = {0x90,0x00,0x00,0x00};
 121:./drivers/storage/w25qxx/w25qxx.h ****     dev->send_start(dev);
 122:./drivers/storage/w25qxx/w25qxx.h ****     dev->send_data(dev,cmd,4);
 123:./drivers/storage/w25qxx/w25qxx.h ****     dev->read_data(dev,&dev->id,2);
 124:./drivers/storage/w25qxx/w25qxx.h ****     dev->send_stop(dev);
 125:./drivers/storage/w25qxx/w25qxx.h ****     return 0;
 126:./drivers/storage/w25qxx/w25qxx.h **** }
 127:./drivers/storage/w25qxx/w25qxx.h **** 
ARM GAS  /tmp/ccnTZmpF.s 			page 9


 128:./drivers/storage/w25qxx/w25qxx.h **** 
 129:./drivers/storage/w25qxx/w25qxx.h **** struct w25qxx_dev *new_w25qxx_dev(char *spi_dev,int cs_pin_num)
 130:./drivers/storage/w25qxx/w25qxx.h **** {
 131:./drivers/storage/w25qxx/w25qxx.h ****     struct w25qxx_dev *w25qxx_dev = kmalloc(sizeof(struct w25qxx_dev), GFP_KERNEL);
 132:./drivers/storage/w25qxx/w25qxx.h ****     if(w25qxx_dev == NULL){
 133:./drivers/storage/w25qxx/w25qxx.h ****         printk("malloc failed\n\r");
 134:./drivers/storage/w25qxx/w25qxx.h ****         return NULL;
 135:./drivers/storage/w25qxx/w25qxx.h ****     }
 136:./drivers/storage/w25qxx/w25qxx.h ****     w25qxx_dev->send_data = w25qxx_send_data;
 137:./drivers/storage/w25qxx/w25qxx.h ****     w25qxx_dev->read_data = w25qxx_read_data;
 138:./drivers/storage/w25qxx/w25qxx.h ****     w25qxx_dev->send_start = set_cs_pin_low;
 139:./drivers/storage/w25qxx/w25qxx.h ****     w25qxx_dev->send_stop = set_cs_pin_high;
 140:./drivers/storage/w25qxx/w25qxx.h ****     w25qxx_dev->status = w25qxx_device_init(w25qxx_dev,spi_dev,cs_pin_num);
 141:./drivers/storage/w25qxx/w25qxx.h ****     w25qxx_read_id(w25qxx_dev);
 142:./drivers/storage/w25qxx/w25qxx.h ****     if(w25qxx_dev->status < 0){
 143:./drivers/storage/w25qxx/w25qxx.h ****         kfree(w25qxx_dev);
 144:./drivers/storage/w25qxx/w25qxx.h ****         return NULL;
 145:./drivers/storage/w25qxx/w25qxx.h ****     }
 146:./drivers/storage/w25qxx/w25qxx.h ****     return w25qxx_dev;
 147:./drivers/storage/w25qxx/w25qxx.h **** }
 148:./drivers/storage/w25qxx/w25qxx.h **** 
 149:./drivers/storage/w25qxx/w25qxx.h **** static void W25Qxx_write_enable(struct w25qxx_dev *dev)
 150:./drivers/storage/w25qxx/w25qxx.h **** {
  61              		.loc 3 150 1 is_stmt 1 view -0
  62              		.cfi_startproc
  63              		@ args = 0, pretend = 0, frame = 8
  64              		@ frame_needed = 0, uses_anonymous_args = 0
  65              		.loc 3 150 1 is_stmt 0 view .LVU8
  66 0000 10B5     		push	{r4, lr}
  67              	.LCFI0:
  68              		.cfi_def_cfa_offset 8
  69              		.cfi_offset 4, -8
  70              		.cfi_offset 14, -4
  71 0002 82B0     		sub	sp, sp, #8
  72              	.LCFI1:
  73              		.cfi_def_cfa_offset 16
  74 0004 0446     		mov	r4, r0
 151:./drivers/storage/w25qxx/w25qxx.h ****     dev->send_start(dev);
  75              		.loc 3 151 5 is_stmt 1 view .LVU9
  76              		.loc 3 151 8 is_stmt 0 view .LVU10
  77 0006 436B     		ldr	r3, [r0, #52]
  78              		.loc 3 151 5 view .LVU11
  79 0008 9847     		blx	r3
  80              	.LVL4:
 152:./drivers/storage/w25qxx/w25qxx.h ****     uint8_t cmd = 0x06;
  81              		.loc 3 152 5 is_stmt 1 view .LVU12
  82              		.loc 3 152 13 is_stmt 0 view .LVU13
  83 000a 0623     		movs	r3, #6
  84 000c 8DF80730 		strb	r3, [sp, #7]
 153:./drivers/storage/w25qxx/w25qxx.h ****     dev->send_data(dev,&cmd,1);
  85              		.loc 3 153 5 is_stmt 1 view .LVU14
  86              		.loc 3 153 8 is_stmt 0 view .LVU15
  87 0010 E36A     		ldr	r3, [r4, #44]
  88              		.loc 3 153 5 view .LVU16
  89 0012 0122     		movs	r2, #1
  90 0014 0DF10701 		add	r1, sp, #7
  91 0018 2046     		mov	r0, r4
ARM GAS  /tmp/ccnTZmpF.s 			page 10


  92 001a 9847     		blx	r3
  93              	.LVL5:
 154:./drivers/storage/w25qxx/w25qxx.h ****     dev->send_stop(dev);
  94              		.loc 3 154 5 is_stmt 1 view .LVU17
  95              		.loc 3 154 8 is_stmt 0 view .LVU18
  96 001c A36B     		ldr	r3, [r4, #56]
  97              		.loc 3 154 5 view .LVU19
  98 001e 2046     		mov	r0, r4
  99 0020 9847     		blx	r3
 100              	.LVL6:
 155:./drivers/storage/w25qxx/w25qxx.h **** }
 101              		.loc 3 155 1 view .LVU20
 102 0022 02B0     		add	sp, sp, #8
 103              	.LCFI2:
 104              		.cfi_def_cfa_offset 8
 105              		@ sp needed
 106 0024 10BD     		pop	{r4, pc}
 107              		.loc 3 155 1 view .LVU21
 108              		.cfi_endproc
 109              	.LFE1042:
 111              		.section	.text.W25Qxx_wait_busy,"ax",%progbits
 112              		.align	1
 113              		.syntax unified
 114              		.thumb
 115              		.thumb_func
 117              	W25Qxx_wait_busy:
 118              	.LVL7:
 119              	.LFB1043:
 156:./drivers/storage/w25qxx/w25qxx.h **** 
 157:./drivers/storage/w25qxx/w25qxx.h **** static void W25Qxx_wait_busy(struct w25qxx_dev *dev)
 158:./drivers/storage/w25qxx/w25qxx.h **** {
 120              		.loc 3 158 1 is_stmt 1 view -0
 121              		.cfi_startproc
 122              		@ args = 0, pretend = 0, frame = 8
 123              		@ frame_needed = 0, uses_anonymous_args = 0
 124              		.loc 3 158 1 is_stmt 0 view .LVU23
 125 0000 10B5     		push	{r4, lr}
 126              	.LCFI3:
 127              		.cfi_def_cfa_offset 8
 128              		.cfi_offset 4, -8
 129              		.cfi_offset 14, -4
 130 0002 82B0     		sub	sp, sp, #8
 131              	.LCFI4:
 132              		.cfi_def_cfa_offset 16
 133 0004 0446     		mov	r4, r0
 159:./drivers/storage/w25qxx/w25qxx.h ****     dev->send_start(dev);
 134              		.loc 3 159 5 is_stmt 1 view .LVU24
 135              		.loc 3 159 8 is_stmt 0 view .LVU25
 136 0006 436B     		ldr	r3, [r0, #52]
 137              		.loc 3 159 5 view .LVU26
 138 0008 9847     		blx	r3
 139              	.LVL8:
 160:./drivers/storage/w25qxx/w25qxx.h ****     uint8_t cmd[2] = {0x05, 0xff};
 140              		.loc 3 160 5 is_stmt 1 view .LVU27
 141              		.loc 3 160 13 is_stmt 0 view .LVU28
 142 000a 4FF60573 		movw	r3, #65285
 143 000e ADF80430 		strh	r3, [sp, #4]	@ movhi
ARM GAS  /tmp/ccnTZmpF.s 			page 11


 144              	.L7:
 161:./drivers/storage/w25qxx/w25qxx.h ****     do{             
 145              		.loc 3 161 5 is_stmt 1 view .LVU29
 162:./drivers/storage/w25qxx/w25qxx.h ****         cmd[1] = 0xff;
 146              		.loc 3 162 9 view .LVU30
 147              		.loc 3 162 16 is_stmt 0 view .LVU31
 148 0012 FF23     		movs	r3, #255
 149 0014 8DF80530 		strb	r3, [sp, #5]
 163:./drivers/storage/w25qxx/w25qxx.h ****         dev->send_data(dev,cmd,2);
 150              		.loc 3 163 9 is_stmt 1 view .LVU32
 151              		.loc 3 163 12 is_stmt 0 view .LVU33
 152 0018 E36A     		ldr	r3, [r4, #44]
 153              		.loc 3 163 9 view .LVU34
 154 001a 0222     		movs	r2, #2
 155 001c 01A9     		add	r1, sp, #4
 156 001e 2046     		mov	r0, r4
 157 0020 9847     		blx	r3
 158              	.LVL9:
 164:./drivers/storage/w25qxx/w25qxx.h ****         dev->read_data(dev,cmd,2);   
 159              		.loc 3 164 9 is_stmt 1 view .LVU35
 160              		.loc 3 164 12 is_stmt 0 view .LVU36
 161 0022 236B     		ldr	r3, [r4, #48]
 162              		.loc 3 164 9 view .LVU37
 163 0024 0222     		movs	r2, #2
 164 0026 01A9     		add	r1, sp, #4
 165 0028 2046     		mov	r0, r4
 166 002a 9847     		blx	r3
 167              	.LVL10:
 165:./drivers/storage/w25qxx/w25qxx.h ****     }while((cmd[1] & 0x01) == 0x01);
 168              		.loc 3 165 28 is_stmt 1 discriminator 1 view .LVU38
 169              		.loc 3 165 16 is_stmt 0 discriminator 1 view .LVU39
 170 002c 9DF80530 		ldrb	r3, [sp, #5]	@ zero_extendqisi2
 171              		.loc 3 165 28 discriminator 1 view .LVU40
 172 0030 13F0010F 		tst	r3, #1
 173 0034 EDD1     		bne	.L7
 166:./drivers/storage/w25qxx/w25qxx.h ****     dev->send_stop(dev);     
 174              		.loc 3 166 5 is_stmt 1 view .LVU41
 175              		.loc 3 166 8 is_stmt 0 view .LVU42
 176 0036 A36B     		ldr	r3, [r4, #56]
 177              		.loc 3 166 5 view .LVU43
 178 0038 2046     		mov	r0, r4
 179 003a 9847     		blx	r3
 180              	.LVL11:
 167:./drivers/storage/w25qxx/w25qxx.h **** }
 181              		.loc 3 167 1 view .LVU44
 182 003c 02B0     		add	sp, sp, #8
 183              	.LCFI5:
 184              		.cfi_def_cfa_offset 8
 185              		@ sp needed
 186 003e 10BD     		pop	{r4, pc}
 187              		.loc 3 167 1 view .LVU45
 188              		.cfi_endproc
 189              	.LFE1043:
 191              		.section	.text.W25Qxx_erase_sector,"ax",%progbits
 192              		.align	1
 193              		.syntax unified
 194              		.thumb
ARM GAS  /tmp/ccnTZmpF.s 			page 12


 195              		.thumb_func
 197              	W25Qxx_erase_sector:
 198              	.LVL12:
 199              	.LFB1044:
 168:./drivers/storage/w25qxx/w25qxx.h **** 
 169:./drivers/storage/w25qxx/w25qxx.h **** static void W25Qxx_erase_sector(struct w25qxx_dev *dev,u32 sector_num)
 170:./drivers/storage/w25qxx/w25qxx.h **** {
 200              		.loc 3 170 1 is_stmt 1 view -0
 201              		.cfi_startproc
 202              		@ args = 0, pretend = 0, frame = 8
 203              		@ frame_needed = 0, uses_anonymous_args = 0
 204              		.loc 3 170 1 is_stmt 0 view .LVU47
 205 0000 30B5     		push	{r4, r5, lr}
 206              	.LCFI6:
 207              		.cfi_def_cfa_offset 12
 208              		.cfi_offset 4, -12
 209              		.cfi_offset 5, -8
 210              		.cfi_offset 14, -4
 211 0002 83B0     		sub	sp, sp, #12
 212              	.LCFI7:
 213              		.cfi_def_cfa_offset 24
 214 0004 0446     		mov	r4, r0
 171:./drivers/storage/w25qxx/w25qxx.h ****     sector_num *= 4096;
 215              		.loc 3 171 5 is_stmt 1 view .LVU48
 216              		.loc 3 171 16 is_stmt 0 view .LVU49
 217 0006 0D03     		lsls	r5, r1, #12
 218              	.LVL13:
 172:./drivers/storage/w25qxx/w25qxx.h ****     W25Qxx_write_enable(dev);
 219              		.loc 3 172 5 is_stmt 1 view .LVU50
 220 0008 FFF7FEFF 		bl	W25Qxx_write_enable
 221              	.LVL14:
 173:./drivers/storage/w25qxx/w25qxx.h ****     dev->send_start(dev);
 222              		.loc 3 173 5 view .LVU51
 223              		.loc 3 173 8 is_stmt 0 view .LVU52
 224 000c 636B     		ldr	r3, [r4, #52]
 225              		.loc 3 173 5 view .LVU53
 226 000e 2046     		mov	r0, r4
 227 0010 9847     		blx	r3
 228              	.LVL15:
 174:./drivers/storage/w25qxx/w25qxx.h ****     uint8_t cmd[4] = {0x20, (sector_num >> 16) & 0xff, (sector_num >> 8) & 0xff, sector_num & 0xff}
 229              		.loc 3 174 5 is_stmt 1 view .LVU54
 230              		.loc 3 174 13 is_stmt 0 view .LVU55
 231 0012 2023     		movs	r3, #32
 232 0014 8DF80430 		strb	r3, [sp, #4]
 233              		.loc 3 174 41 view .LVU56
 234 0018 2B0C     		lsrs	r3, r5, #16
 235              		.loc 3 174 13 view .LVU57
 236 001a 8DF80530 		strb	r3, [sp, #5]
 237              		.loc 3 174 68 view .LVU58
 238 001e 2B0A     		lsrs	r3, r5, #8
 239              		.loc 3 174 13 view .LVU59
 240 0020 8DF80630 		strb	r3, [sp, #6]
 241 0024 8DF80750 		strb	r5, [sp, #7]
 175:./drivers/storage/w25qxx/w25qxx.h ****     dev->send_data(dev,cmd,4);
 242              		.loc 3 175 5 is_stmt 1 view .LVU60
 243              		.loc 3 175 8 is_stmt 0 view .LVU61
 244 0028 E36A     		ldr	r3, [r4, #44]
ARM GAS  /tmp/ccnTZmpF.s 			page 13


 245              		.loc 3 175 5 view .LVU62
 246 002a 0422     		movs	r2, #4
 247 002c 0DEB0201 		add	r1, sp, r2
 248 0030 2046     		mov	r0, r4
 249 0032 9847     		blx	r3
 250              	.LVL16:
 176:./drivers/storage/w25qxx/w25qxx.h ****     dev->send_stop(dev);
 251              		.loc 3 176 5 is_stmt 1 view .LVU63
 252              		.loc 3 176 8 is_stmt 0 view .LVU64
 253 0034 A36B     		ldr	r3, [r4, #56]
 254              		.loc 3 176 5 view .LVU65
 255 0036 2046     		mov	r0, r4
 256 0038 9847     		blx	r3
 257              	.LVL17:
 177:./drivers/storage/w25qxx/w25qxx.h **** }
 258              		.loc 3 177 1 view .LVU66
 259 003a 03B0     		add	sp, sp, #12
 260              	.LCFI8:
 261              		.cfi_def_cfa_offset 12
 262              		@ sp needed
 263 003c 30BD     		pop	{r4, r5, pc}
 264              		.loc 3 177 1 view .LVU67
 265              		.cfi_endproc
 266              	.LFE1044:
 268              		.section	.text.W25Qxx_write,"ax",%progbits
 269              		.align	1
 270              		.syntax unified
 271              		.thumb
 272              		.thumb_func
 274              	W25Qxx_write:
 275              	.LVL18:
 276              	.LFB1045:
 178:./drivers/storage/w25qxx/w25qxx.h **** static void W25Qxx_write(struct w25qxx_dev *dev,uint8_t* buffer, uint32_t addr, uint16_t numbyte)
 179:./drivers/storage/w25qxx/w25qxx.h **** {
 277              		.loc 3 179 1 is_stmt 1 view -0
 278              		.cfi_startproc
 279              		@ args = 0, pretend = 0, frame = 8
 280              		@ frame_needed = 0, uses_anonymous_args = 0
 281              		.loc 3 179 1 is_stmt 0 view .LVU69
 282 0000 F0B5     		push	{r4, r5, r6, r7, lr}
 283              	.LCFI9:
 284              		.cfi_def_cfa_offset 20
 285              		.cfi_offset 4, -20
 286              		.cfi_offset 5, -16
 287              		.cfi_offset 6, -12
 288              		.cfi_offset 7, -8
 289              		.cfi_offset 14, -4
 290 0002 83B0     		sub	sp, sp, #12
 291              	.LCFI10:
 292              		.cfi_def_cfa_offset 32
 293 0004 0446     		mov	r4, r0
 294 0006 0E46     		mov	r6, r1
 295 0008 1546     		mov	r5, r2
 296 000a 1F46     		mov	r7, r3
 180:./drivers/storage/w25qxx/w25qxx.h ****     W25Qxx_wait_busy(dev);
 297              		.loc 3 180 5 is_stmt 1 view .LVU70
 298 000c FFF7FEFF 		bl	W25Qxx_wait_busy
ARM GAS  /tmp/ccnTZmpF.s 			page 14


 299              	.LVL19:
 181:./drivers/storage/w25qxx/w25qxx.h ****     W25Qxx_write_enable(dev);
 300              		.loc 3 181 5 view .LVU71
 301 0010 2046     		mov	r0, r4
 302 0012 FFF7FEFF 		bl	W25Qxx_write_enable
 303              	.LVL20:
 182:./drivers/storage/w25qxx/w25qxx.h ****     dev->send_start(dev);
 304              		.loc 3 182 5 view .LVU72
 305              		.loc 3 182 8 is_stmt 0 view .LVU73
 306 0016 636B     		ldr	r3, [r4, #52]
 307              		.loc 3 182 5 view .LVU74
 308 0018 2046     		mov	r0, r4
 309 001a 9847     		blx	r3
 310              	.LVL21:
 183:./drivers/storage/w25qxx/w25qxx.h ****     uint8_t cmd[4] = {0x02, (addr >> 16) & 0xff, (addr >> 8) & 0xff, addr & 0xff};
 311              		.loc 3 183 5 is_stmt 1 view .LVU75
 312              		.loc 3 183 13 is_stmt 0 view .LVU76
 313 001c 0223     		movs	r3, #2
 314 001e 8DF80430 		strb	r3, [sp, #4]
 315              		.loc 3 183 35 view .LVU77
 316 0022 2B0C     		lsrs	r3, r5, #16
 317              		.loc 3 183 13 view .LVU78
 318 0024 8DF80530 		strb	r3, [sp, #5]
 319              		.loc 3 183 56 view .LVU79
 320 0028 2B0A     		lsrs	r3, r5, #8
 321              		.loc 3 183 13 view .LVU80
 322 002a 8DF80630 		strb	r3, [sp, #6]
 323 002e 8DF80750 		strb	r5, [sp, #7]
 184:./drivers/storage/w25qxx/w25qxx.h ****     dev->send_data(dev,cmd,4);
 324              		.loc 3 184 5 is_stmt 1 view .LVU81
 325              		.loc 3 184 8 is_stmt 0 view .LVU82
 326 0032 E36A     		ldr	r3, [r4, #44]
 327              		.loc 3 184 5 view .LVU83
 328 0034 0422     		movs	r2, #4
 329 0036 0DEB0201 		add	r1, sp, r2
 330 003a 2046     		mov	r0, r4
 331 003c 9847     		blx	r3
 332              	.LVL22:
 185:./drivers/storage/w25qxx/w25qxx.h ****     dev->send_data(dev,buffer,numbyte);
 333              		.loc 3 185 5 is_stmt 1 view .LVU84
 334              		.loc 3 185 8 is_stmt 0 view .LVU85
 335 003e E36A     		ldr	r3, [r4, #44]
 336              		.loc 3 185 5 view .LVU86
 337 0040 3A46     		mov	r2, r7
 338 0042 3146     		mov	r1, r6
 339 0044 2046     		mov	r0, r4
 340 0046 9847     		blx	r3
 341              	.LVL23:
 186:./drivers/storage/w25qxx/w25qxx.h ****     dev->send_stop(dev);
 342              		.loc 3 186 5 is_stmt 1 view .LVU87
 343              		.loc 3 186 8 is_stmt 0 view .LVU88
 344 0048 A36B     		ldr	r3, [r4, #56]
 345              		.loc 3 186 5 view .LVU89
 346 004a 2046     		mov	r0, r4
 347 004c 9847     		blx	r3
 348              	.LVL24:
 187:./drivers/storage/w25qxx/w25qxx.h **** }
ARM GAS  /tmp/ccnTZmpF.s 			page 15


 349              		.loc 3 187 1 view .LVU90
 350 004e 03B0     		add	sp, sp, #12
 351              	.LCFI11:
 352              		.cfi_def_cfa_offset 20
 353              		@ sp needed
 354 0050 F0BD     		pop	{r4, r5, r6, r7, pc}
 355              		.loc 3 187 1 view .LVU91
 356              		.cfi_endproc
 357              	.LFE1045:
 359              		.section	.text.W25Qxx_read,"ax",%progbits
 360              		.align	1
 361              		.syntax unified
 362              		.thumb
 363              		.thumb_func
 365              	W25Qxx_read:
 366              	.LVL25:
 367              	.LFB1046:
 188:./drivers/storage/w25qxx/w25qxx.h **** 
 189:./drivers/storage/w25qxx/w25qxx.h **** static void W25Qxx_read(struct w25qxx_dev *dev,uint8_t* buffer, uint32_t addr, uint16_t numbyte)
 190:./drivers/storage/w25qxx/w25qxx.h **** {
 368              		.loc 3 190 1 is_stmt 1 view -0
 369              		.cfi_startproc
 370              		@ args = 0, pretend = 0, frame = 8
 371              		@ frame_needed = 0, uses_anonymous_args = 0
 372              		.loc 3 190 1 is_stmt 0 view .LVU93
 373 0000 F0B5     		push	{r4, r5, r6, r7, lr}
 374              	.LCFI12:
 375              		.cfi_def_cfa_offset 20
 376              		.cfi_offset 4, -20
 377              		.cfi_offset 5, -16
 378              		.cfi_offset 6, -12
 379              		.cfi_offset 7, -8
 380              		.cfi_offset 14, -4
 381 0002 83B0     		sub	sp, sp, #12
 382              	.LCFI13:
 383              		.cfi_def_cfa_offset 32
 384 0004 0446     		mov	r4, r0
 385 0006 0E46     		mov	r6, r1
 386 0008 1546     		mov	r5, r2
 387 000a 1F46     		mov	r7, r3
 191:./drivers/storage/w25qxx/w25qxx.h ****     W25Qxx_wait_busy(dev);
 388              		.loc 3 191 5 is_stmt 1 view .LVU94
 389 000c FFF7FEFF 		bl	W25Qxx_wait_busy
 390              	.LVL26:
 192:./drivers/storage/w25qxx/w25qxx.h ****     dev->send_start(dev);
 391              		.loc 3 192 5 view .LVU95
 392              		.loc 3 192 8 is_stmt 0 view .LVU96
 393 0010 636B     		ldr	r3, [r4, #52]
 394              		.loc 3 192 5 view .LVU97
 395 0012 2046     		mov	r0, r4
 396 0014 9847     		blx	r3
 397              	.LVL27:
 193:./drivers/storage/w25qxx/w25qxx.h ****     uint8_t cmd[4] = {0x03, (addr >> 16) & 0xff, (addr >> 8) & 0xff, addr & 0xff};
 398              		.loc 3 193 5 is_stmt 1 view .LVU98
 399              		.loc 3 193 13 is_stmt 0 view .LVU99
 400 0016 0323     		movs	r3, #3
 401 0018 8DF80430 		strb	r3, [sp, #4]
ARM GAS  /tmp/ccnTZmpF.s 			page 16


 402              		.loc 3 193 35 view .LVU100
 403 001c 2B0C     		lsrs	r3, r5, #16
 404              		.loc 3 193 13 view .LVU101
 405 001e 8DF80530 		strb	r3, [sp, #5]
 406              		.loc 3 193 56 view .LVU102
 407 0022 2B0A     		lsrs	r3, r5, #8
 408              		.loc 3 193 13 view .LVU103
 409 0024 8DF80630 		strb	r3, [sp, #6]
 410 0028 8DF80750 		strb	r5, [sp, #7]
 194:./drivers/storage/w25qxx/w25qxx.h ****     dev->send_data(dev,cmd,4);
 411              		.loc 3 194 5 is_stmt 1 view .LVU104
 412              		.loc 3 194 8 is_stmt 0 view .LVU105
 413 002c E36A     		ldr	r3, [r4, #44]
 414              		.loc 3 194 5 view .LVU106
 415 002e 0422     		movs	r2, #4
 416 0030 0DEB0201 		add	r1, sp, r2
 417 0034 2046     		mov	r0, r4
 418 0036 9847     		blx	r3
 419              	.LVL28:
 195:./drivers/storage/w25qxx/w25qxx.h ****     dev->read_data(dev,buffer,numbyte);
 420              		.loc 3 195 5 is_stmt 1 view .LVU107
 421              		.loc 3 195 8 is_stmt 0 view .LVU108
 422 0038 236B     		ldr	r3, [r4, #48]
 423              		.loc 3 195 5 view .LVU109
 424 003a 3A46     		mov	r2, r7
 425 003c 3146     		mov	r1, r6
 426 003e 2046     		mov	r0, r4
 427 0040 9847     		blx	r3
 428              	.LVL29:
 196:./drivers/storage/w25qxx/w25qxx.h ****     dev->send_stop(dev);
 429              		.loc 3 196 5 is_stmt 1 view .LVU110
 430              		.loc 3 196 8 is_stmt 0 view .LVU111
 431 0042 A36B     		ldr	r3, [r4, #56]
 432              		.loc 3 196 5 view .LVU112
 433 0044 2046     		mov	r0, r4
 434 0046 9847     		blx	r3
 435              	.LVL30:
 197:./drivers/storage/w25qxx/w25qxx.h **** }
 436              		.loc 3 197 1 view .LVU113
 437 0048 03B0     		add	sp, sp, #12
 438              	.LCFI14:
 439              		.cfi_def_cfa_offset 20
 440              		@ sp needed
 441 004a F0BD     		pop	{r4, r5, r6, r7, pc}
 442              		.loc 3 197 1 view .LVU114
 443              		.cfi_endproc
 444              	.LFE1046:
 446              		.section	.text.W25Qxx_device_write_page,"ax",%progbits
 447              		.align	1
 448              		.syntax unified
 449              		.thumb
 450              		.thumb_func
 452              	W25Qxx_device_write_page:
 453              	.LVL31:
 454              	.LFB1047:
 198:./drivers/storage/w25qxx/w25qxx.h **** 
 199:./drivers/storage/w25qxx/w25qxx.h **** static int  W25Qxx_device_write_page(struct w25qxx_dev *dev,void *buf, int len,uint32_t page_4k)
ARM GAS  /tmp/ccnTZmpF.s 			page 17


 200:./drivers/storage/w25qxx/w25qxx.h **** {
 455              		.loc 3 200 1 is_stmt 1 view -0
 456              		.cfi_startproc
 457              		@ args = 0, pretend = 0, frame = 0
 458              		@ frame_needed = 0, uses_anonymous_args = 0
 459              		.loc 3 200 1 is_stmt 0 view .LVU116
 460 0000 2DE9F843 		push	{r3, r4, r5, r6, r7, r8, r9, lr}
 461              	.LCFI15:
 462              		.cfi_def_cfa_offset 32
 463              		.cfi_offset 3, -32
 464              		.cfi_offset 4, -28
 465              		.cfi_offset 5, -24
 466              		.cfi_offset 6, -20
 467              		.cfi_offset 7, -16
 468              		.cfi_offset 8, -12
 469              		.cfi_offset 9, -8
 470              		.cfi_offset 14, -4
 471 0004 0746     		mov	r7, r0
 472 0006 8846     		mov	r8, r1
 473 0008 9146     		mov	r9, r2
 474 000a 1D46     		mov	r5, r3
 201:./drivers/storage/w25qxx/w25qxx.h ****     W25Qxx_erase_sector(dev,page_4k);
 475              		.loc 3 201 5 is_stmt 1 view .LVU117
 476 000c 1946     		mov	r1, r3
 477              	.LVL32:
 478              		.loc 3 201 5 is_stmt 0 view .LVU118
 479 000e FFF7FEFF 		bl	W25Qxx_erase_sector
 480              	.LVL33:
 202:./drivers/storage/w25qxx/w25qxx.h ****     int times  = len / 256;
 481              		.loc 3 202 5 is_stmt 1 view .LVU119
 482              		.loc 3 202 9 is_stmt 0 view .LVU120
 483 0012 4E46     		mov	r6, r9
 484 0014 B9F1000F 		cmp	r9, #0
 485 0018 03DB     		blt	.L20
 486              	.L16:
 487              		.loc 3 202 9 view .LVU121
 488 001a 3612     		asrs	r6, r6, #8
 489              	.LVL34:
 203:./drivers/storage/w25qxx/w25qxx.h ****     int offset = page_4k*4096;
 490              		.loc 3 203 5 is_stmt 1 view .LVU122
 491              		.loc 3 203 25 is_stmt 0 view .LVU123
 492 001c 2D03     		lsls	r5, r5, #12
 493              	.LVL35:
 204:./drivers/storage/w25qxx/w25qxx.h ****     for(int i =0;i<times;i++){
 494              		.loc 3 204 5 is_stmt 1 view .LVU124
 495              	.LBB103:
 496              		.loc 3 204 9 view .LVU125
 497              		.loc 3 204 13 is_stmt 0 view .LVU126
 498 001e 0024     		movs	r4, #0
 499              		.loc 3 204 5 view .LVU127
 500 0020 0DE0     		b	.L17
 501              	.LVL36:
 502              	.L20:
 503              		.loc 3 204 5 view .LVU128
 504              	.LBE103:
 202:./drivers/storage/w25qxx/w25qxx.h ****     int times  = len / 256;
 505              		.loc 3 202 9 view .LVU129
ARM GAS  /tmp/ccnTZmpF.s 			page 18


 506 0022 09F1FF06 		add	r6, r9, #255
 507              	.LVL37:
 202:./drivers/storage/w25qxx/w25qxx.h ****     int times  = len / 256;
 508              		.loc 3 202 9 view .LVU130
 509 0026 F8E7     		b	.L16
 510              	.LVL38:
 511              	.L18:
 512              	.LBB104:
 205:./drivers/storage/w25qxx/w25qxx.h ****         W25Qxx_write(dev,(uint8_t *)buf + i*256, offset ,256);            
 513              		.loc 3 205 9 is_stmt 1 view .LVU131
 514 0028 4FF48073 		mov	r3, #256
 515 002c 2A46     		mov	r2, r5
 516 002e 08EB0421 		add	r1, r8, r4, lsl #8
 517 0032 3846     		mov	r0, r7
 518 0034 FFF7FEFF 		bl	W25Qxx_write
 519              	.LVL39:
 206:./drivers/storage/w25qxx/w25qxx.h ****         offset += 256;
 520              		.loc 3 206 9 view .LVU132
 521              		.loc 3 206 16 is_stmt 0 view .LVU133
 522 0038 05F58075 		add	r5, r5, #256
 523              	.LVL40:
 204:./drivers/storage/w25qxx/w25qxx.h ****     for(int i =0;i<times;i++){
 524              		.loc 3 204 27 is_stmt 1 discriminator 3 view .LVU134
 525 003c 0134     		adds	r4, r4, #1
 526              	.LVL41:
 527              	.L17:
 204:./drivers/storage/w25qxx/w25qxx.h ****     for(int i =0;i<times;i++){
 528              		.loc 3 204 19 discriminator 1 view .LVU135
 529 003e B442     		cmp	r4, r6
 530 0040 F2DB     		blt	.L18
 204:./drivers/storage/w25qxx/w25qxx.h ****     for(int i =0;i<times;i++){
 531              		.loc 3 204 19 is_stmt 0 discriminator 1 view .LVU136
 532              	.LBE104:
 207:./drivers/storage/w25qxx/w25qxx.h ****     }
 208:./drivers/storage/w25qxx/w25qxx.h ****     return len;
 533              		.loc 3 208 5 is_stmt 1 view .LVU137
 209:./drivers/storage/w25qxx/w25qxx.h **** }
 534              		.loc 3 209 1 is_stmt 0 view .LVU138
 535 0042 4846     		mov	r0, r9
 536 0044 BDE8F883 		pop	{r3, r4, r5, r6, r7, r8, r9, pc}
 537              		.loc 3 209 1 view .LVU139
 538              		.cfi_endproc
 539              	.LFE1047:
 541              		.section	.text.W25Qxx_device_read_page,"ax",%progbits
 542              		.align	1
 543              		.syntax unified
 544              		.thumb
 545              		.thumb_func
 547              	W25Qxx_device_read_page:
 548              	.LVL42:
 549              	.LFB1048:
 210:./drivers/storage/w25qxx/w25qxx.h **** 
 211:./drivers/storage/w25qxx/w25qxx.h **** static int  W25Qxx_device_read_page(struct w25qxx_dev *dev,void *buf, int len,uint32_t page_512b){
 550              		.loc 3 211 98 is_stmt 1 view -0
 551              		.cfi_startproc
 552              		@ args = 0, pretend = 0, frame = 0
 553              		@ frame_needed = 0, uses_anonymous_args = 0
ARM GAS  /tmp/ccnTZmpF.s 			page 19


 554              		.loc 3 211 98 is_stmt 0 view .LVU141
 555 0000 10B5     		push	{r4, lr}
 556              	.LCFI16:
 557              		.cfi_def_cfa_offset 8
 558              		.cfi_offset 4, -8
 559              		.cfi_offset 14, -4
 560 0002 1446     		mov	r4, r2
 561 0004 1A46     		mov	r2, r3
 562              	.LVL43:
 212:./drivers/storage/w25qxx/w25qxx.h ****     W25Qxx_read(dev,buf,page_512b*512,len);
 563              		.loc 3 212 5 is_stmt 1 view .LVU142
 564 0006 A3B2     		uxth	r3, r4
 565              	.LVL44:
 566              		.loc 3 212 5 is_stmt 0 view .LVU143
 567 0008 5202     		lsls	r2, r2, #9
 568              	.LVL45:
 569              		.loc 3 212 5 view .LVU144
 570 000a FFF7FEFF 		bl	W25Qxx_read
 571              	.LVL46:
 213:./drivers/storage/w25qxx/w25qxx.h ****     return len;
 572              		.loc 3 213 5 is_stmt 1 view .LVU145
 214:./drivers/storage/w25qxx/w25qxx.h **** }
 573              		.loc 3 214 1 is_stmt 0 view .LVU146
 574 000e 2046     		mov	r0, r4
 575 0010 10BD     		pop	{r4, pc}
 576              		.loc 3 214 1 view .LVU147
 577              		.cfi_endproc
 578              	.LFE1048:
 580              		.section	.text.w25qxx_getgeo,"ax",%progbits
 581              		.align	1
 582              		.syntax unified
 583              		.thumb
 584              		.thumb_func
 586              	w25qxx_getgeo:
 587              	.LVL47:
 588              	.LFB1051:
   1:./drivers/storage/w25qxx/w25qxx.c **** #include <linux/kernel.h>
   2:./drivers/storage/w25qxx/w25qxx.c **** #include <linux/init.h>
   3:./drivers/storage/w25qxx/w25qxx.c **** #include <linux/spi/spi.h>
   4:./drivers/storage/w25qxx/w25qxx.c **** #include <linux/gpio/gpio.h>
   5:./drivers/storage/w25qxx/w25qxx.c **** #include <linux/fs.h>
   6:./drivers/storage/w25qxx/w25qxx.c **** #include <linux/blkdev.h>
   7:./drivers/storage/w25qxx/w25qxx.c **** #include <linux/slab.h>
   8:./drivers/storage/w25qxx/w25qxx.c **** #include <linux/module.h>
   9:./drivers/storage/w25qxx/w25qxx.c **** #include <linux/spinlock.h>
  10:./drivers/storage/w25qxx/w25qxx.c **** 
  11:./drivers/storage/w25qxx/w25qxx.c **** #include "w25qxx.h"
  12:./drivers/storage/w25qxx/w25qxx.c **** #ifdef  CONFIG_W25QXX_SPI_FLASH
  13:./drivers/storage/w25qxx/w25qxx.c **** 
  14:./drivers/storage/w25qxx/w25qxx.c **** static struct w25qxx_dev *w25qxx1_dev;
  15:./drivers/storage/w25qxx/w25qxx.c **** static char *w25qxx_buffer;
  16:./drivers/storage/w25qxx/w25qxx.c **** 
  17:./drivers/storage/w25qxx/w25qxx.c **** 
  18:./drivers/storage/w25qxx/w25qxx.c **** static int w25qxx_open(struct gendisk *disk, blk_mode_t mode){
  19:./drivers/storage/w25qxx/w25qxx.c ****     printk("w25qxx block device opened\n\r");
  20:./drivers/storage/w25qxx/w25qxx.c ****     return 0;
  21:./drivers/storage/w25qxx/w25qxx.c **** }
ARM GAS  /tmp/ccnTZmpF.s 			page 20


  22:./drivers/storage/w25qxx/w25qxx.c **** 
  23:./drivers/storage/w25qxx/w25qxx.c **** static void w25qxx_release(struct gendisk *disk, fmode_t mode){
  24:./drivers/storage/w25qxx/w25qxx.c ****     printk("w25qxx block device released\n");
  25:./drivers/storage/w25qxx/w25qxx.c **** }
  26:./drivers/storage/w25qxx/w25qxx.c **** 
  27:./drivers/storage/w25qxx/w25qxx.c **** static int w25qxx_getgeo(struct block_device * device , struct hd_geometry * geo){
 589              		.loc 1 27 82 is_stmt 1 view -0
 590              		.cfi_startproc
 591              		@ args = 0, pretend = 0, frame = 0
 592              		@ frame_needed = 0, uses_anonymous_args = 0
 593              		@ link register save eliminated.
  28:./drivers/storage/w25qxx/w25qxx.c ****     geo->heads = 0x01; //
 594              		.loc 1 28 5 view .LVU149
 595              		.loc 1 28 16 is_stmt 0 view .LVU150
 596 0000 0123     		movs	r3, #1
 597 0002 0B70     		strb	r3, [r1]
  29:./drivers/storage/w25qxx/w25qxx.c ****     geo->start = 0;
 598              		.loc 1 29 5 is_stmt 1 view .LVU151
 599              		.loc 1 29 16 is_stmt 0 view .LVU152
 600 0004 0020     		movs	r0, #0
 601              	.LVL48:
 602              		.loc 1 29 16 view .LVU153
 603 0006 4860     		str	r0, [r1, #4]
  30:./drivers/storage/w25qxx/w25qxx.c ****     geo->sectors = w25qxx1_dev->size / 512; //
 604              		.loc 1 30 5 is_stmt 1 view .LVU154
 605              		.loc 1 30 31 is_stmt 0 view .LVU155
 606 0008 034B     		ldr	r3, .L24
 607 000a 1B68     		ldr	r3, [r3]
 608 000c 9B6A     		ldr	r3, [r3, #40]
 609              		.loc 1 30 38 view .LVU156
 610 000e 5B0A     		lsrs	r3, r3, #9
 611              		.loc 1 30 18 view .LVU157
 612 0010 4B70     		strb	r3, [r1, #1]
  31:./drivers/storage/w25qxx/w25qxx.c ****     geo->cylinders = 0x00; // 
 613              		.loc 1 31 5 is_stmt 1 view .LVU158
 614              		.loc 1 31 20 is_stmt 0 view .LVU159
 615 0012 4880     		strh	r0, [r1, #2]	@ movhi
  32:./drivers/storage/w25qxx/w25qxx.c ****     return 0;
 616              		.loc 1 32 5 is_stmt 1 view .LVU160
  33:./drivers/storage/w25qxx/w25qxx.c **** }
 617              		.loc 1 33 1 is_stmt 0 view .LVU161
 618 0014 7047     		bx	lr
 619              	.L25:
 620 0016 00BF     		.align	2
 621              	.L24:
 622 0018 00000000 		.word	w25qxx1_dev
 623              		.cfi_endproc
 624              	.LFE1051:
 626              		.section	.rodata.w25qxx_read_id.str1.4,"aMS",%progbits,1
 627              		.align	2
 628              	.LC0:
 629 0000 464C4153 		.ascii	"FLASH JEDEC ID: 0x%02X 0x%02X 0x%02X ,Detected Flas"
 629      48204A45 
 629      44454320 
 629      49443A20 
 629      30782530 
 630 0033 68205369 		.ascii	"h Size: %d KB (%d MB)\015\012\000"
ARM GAS  /tmp/ccnTZmpF.s 			page 21


 630      7A653A20 
 630      2564204B 
 630      42202825 
 630      64204D42 
 631              		.section	.text.w25qxx_read_id,"ax",%progbits
 632              		.align	1
 633              		.syntax unified
 634              		.thumb
 635              		.thumb_func
 637              	w25qxx_read_id:
 638              	.LVL49:
 639              	.LFB1040:
 108:./drivers/storage/w25qxx/w25qxx.h ****     uint8_t cmd2 = 0x9F;
 640              		.loc 3 108 1 is_stmt 1 view -0
 641              		.cfi_startproc
 642              		@ args = 0, pretend = 0, frame = 8
 643              		@ frame_needed = 0, uses_anonymous_args = 0
 108:./drivers/storage/w25qxx/w25qxx.h ****     uint8_t cmd2 = 0x9F;
 644              		.loc 3 108 1 is_stmt 0 view .LVU163
 645 0000 30B5     		push	{r4, r5, lr}
 646              	.LCFI17:
 647              		.cfi_def_cfa_offset 12
 648              		.cfi_offset 4, -12
 649              		.cfi_offset 5, -8
 650              		.cfi_offset 14, -4
 651 0002 85B0     		sub	sp, sp, #20
 652              	.LCFI18:
 653              		.cfi_def_cfa_offset 32
 654 0004 0446     		mov	r4, r0
 109:./drivers/storage/w25qxx/w25qxx.h ****     uint8_t id[3] = {0,0,0}; 
 655              		.loc 3 109 5 is_stmt 1 view .LVU164
 109:./drivers/storage/w25qxx/w25qxx.h ****     uint8_t id[3] = {0,0,0}; 
 656              		.loc 3 109 13 is_stmt 0 view .LVU165
 657 0006 9F23     		movs	r3, #159
 658 0008 8DF80F30 		strb	r3, [sp, #15]
 110:./drivers/storage/w25qxx/w25qxx.h ****     dev->send_start(dev);
 659              		.loc 3 110 5 is_stmt 1 view .LVU166
 110:./drivers/storage/w25qxx/w25qxx.h ****     dev->send_start(dev);
 660              		.loc 3 110 13 is_stmt 0 view .LVU167
 661 000c 0025     		movs	r5, #0
 662 000e ADF80C50 		strh	r5, [sp, #12]	@ movhi
 663 0012 8DF80E50 		strb	r5, [sp, #14]
 111:./drivers/storage/w25qxx/w25qxx.h ****     dev->send_data(dev,&cmd2,1);
 664              		.loc 3 111 5 is_stmt 1 view .LVU168
 111:./drivers/storage/w25qxx/w25qxx.h ****     dev->send_data(dev,&cmd2,1);
 665              		.loc 3 111 8 is_stmt 0 view .LVU169
 666 0016 436B     		ldr	r3, [r0, #52]
 111:./drivers/storage/w25qxx/w25qxx.h ****     dev->send_data(dev,&cmd2,1);
 667              		.loc 3 111 5 view .LVU170
 668 0018 9847     		blx	r3
 669              	.LVL50:
 112:./drivers/storage/w25qxx/w25qxx.h ****     dev->read_data(dev,id,3);
 670              		.loc 3 112 5 is_stmt 1 view .LVU171
 112:./drivers/storage/w25qxx/w25qxx.h ****     dev->read_data(dev,id,3);
 671              		.loc 3 112 8 is_stmt 0 view .LVU172
 672 001a E36A     		ldr	r3, [r4, #44]
 112:./drivers/storage/w25qxx/w25qxx.h ****     dev->read_data(dev,id,3);
ARM GAS  /tmp/ccnTZmpF.s 			page 22


 673              		.loc 3 112 5 view .LVU173
 674 001c 0122     		movs	r2, #1
 675 001e 0DF10F01 		add	r1, sp, #15
 676 0022 2046     		mov	r0, r4
 677 0024 9847     		blx	r3
 678              	.LVL51:
 113:./drivers/storage/w25qxx/w25qxx.h ****     dev->send_stop(dev);
 679              		.loc 3 113 5 is_stmt 1 view .LVU174
 113:./drivers/storage/w25qxx/w25qxx.h ****     dev->send_stop(dev);
 680              		.loc 3 113 8 is_stmt 0 view .LVU175
 681 0026 236B     		ldr	r3, [r4, #48]
 113:./drivers/storage/w25qxx/w25qxx.h ****     dev->send_stop(dev);
 682              		.loc 3 113 5 view .LVU176
 683 0028 0322     		movs	r2, #3
 684 002a 03A9     		add	r1, sp, #12
 685 002c 2046     		mov	r0, r4
 686 002e 9847     		blx	r3
 687              	.LVL52:
 114:./drivers/storage/w25qxx/w25qxx.h ****     dev->size = 0;
 688              		.loc 3 114 5 is_stmt 1 view .LVU177
 114:./drivers/storage/w25qxx/w25qxx.h ****     dev->size = 0;
 689              		.loc 3 114 8 is_stmt 0 view .LVU178
 690 0030 A36B     		ldr	r3, [r4, #56]
 114:./drivers/storage/w25qxx/w25qxx.h ****     dev->size = 0;
 691              		.loc 3 114 5 view .LVU179
 692 0032 2046     		mov	r0, r4
 693 0034 9847     		blx	r3
 694              	.LVL53:
 115:./drivers/storage/w25qxx/w25qxx.h ****     if(id[2]  >= 0x10 && id[2] <= 0x25){
 695              		.loc 3 115 5 is_stmt 1 view .LVU180
 115:./drivers/storage/w25qxx/w25qxx.h ****     if(id[2]  >= 0x10 && id[2] <= 0x25){
 696              		.loc 3 115 15 is_stmt 0 view .LVU181
 697 0036 A562     		str	r5, [r4, #40]
 116:./drivers/storage/w25qxx/w25qxx.h ****         dev->size  = 1 << id[2];
 698              		.loc 3 116 5 is_stmt 1 view .LVU182
 116:./drivers/storage/w25qxx/w25qxx.h ****         dev->size  = 1 << id[2];
 699              		.loc 3 116 10 is_stmt 0 view .LVU183
 700 0038 9DF80E30 		ldrb	r3, [sp, #14]	@ zero_extendqisi2
 116:./drivers/storage/w25qxx/w25qxx.h ****         dev->size  = 1 << id[2];
 701              		.loc 3 116 23 view .LVU184
 702 003c A3F11002 		sub	r2, r3, #16
 703 0040 D2B2     		uxtb	r2, r2
 116:./drivers/storage/w25qxx/w25qxx.h ****         dev->size  = 1 << id[2];
 704              		.loc 3 116 7 view .LVU185
 705 0042 152A     		cmp	r2, #21
 706 0044 02D8     		bhi	.L27
 117:./drivers/storage/w25qxx/w25qxx.h ****     }
 707              		.loc 3 117 9 is_stmt 1 view .LVU186
 117:./drivers/storage/w25qxx/w25qxx.h ****     }
 708              		.loc 3 117 24 is_stmt 0 view .LVU187
 709 0046 0122     		movs	r2, #1
 710 0048 9A40     		lsls	r2, r2, r3
 117:./drivers/storage/w25qxx/w25qxx.h ****     }
 711              		.loc 3 117 20 view .LVU188
 712 004a A262     		str	r2, [r4, #40]
 713              	.L27:
 119:./drivers/storage/w25qxx/w25qxx.h ****     u8 cmd[4] = {0x90,0x00,0x00,0x00};
ARM GAS  /tmp/ccnTZmpF.s 			page 23


 714              		.loc 3 119 5 is_stmt 1 view .LVU189
 119:./drivers/storage/w25qxx/w25qxx.h ****     u8 cmd[4] = {0x90,0x00,0x00,0x00};
 715              		.loc 3 119 116 is_stmt 0 view .LVU190
 716 004c A26A     		ldr	r2, [r4, #40]
 119:./drivers/storage/w25qxx/w25qxx.h ****     u8 cmd[4] = {0x90,0x00,0x00,0x00};
 717              		.loc 3 119 5 view .LVU191
 718 004e 110D     		lsrs	r1, r2, #20
 719 0050 0191     		str	r1, [sp, #4]
 720 0052 920A     		lsrs	r2, r2, #10
 721 0054 0092     		str	r2, [sp]
 722 0056 9DF80D20 		ldrb	r2, [sp, #13]	@ zero_extendqisi2
 723 005a 9DF80C10 		ldrb	r1, [sp, #12]	@ zero_extendqisi2
 724 005e 0C48     		ldr	r0, .L29
 725 0060 FFF7FEFF 		bl	printk
 726              	.LVL54:
 120:./drivers/storage/w25qxx/w25qxx.h ****     dev->send_start(dev);
 727              		.loc 3 120 5 is_stmt 1 view .LVU192
 120:./drivers/storage/w25qxx/w25qxx.h ****     dev->send_start(dev);
 728              		.loc 3 120 8 is_stmt 0 view .LVU193
 729 0064 9023     		movs	r3, #144
 730 0066 0293     		str	r3, [sp, #8]
 121:./drivers/storage/w25qxx/w25qxx.h ****     dev->send_data(dev,cmd,4);
 731              		.loc 3 121 5 is_stmt 1 view .LVU194
 121:./drivers/storage/w25qxx/w25qxx.h ****     dev->send_data(dev,cmd,4);
 732              		.loc 3 121 8 is_stmt 0 view .LVU195
 733 0068 636B     		ldr	r3, [r4, #52]
 121:./drivers/storage/w25qxx/w25qxx.h ****     dev->send_data(dev,cmd,4);
 734              		.loc 3 121 5 view .LVU196
 735 006a 2046     		mov	r0, r4
 736 006c 9847     		blx	r3
 737              	.LVL55:
 122:./drivers/storage/w25qxx/w25qxx.h ****     dev->read_data(dev,&dev->id,2);
 738              		.loc 3 122 5 is_stmt 1 view .LVU197
 122:./drivers/storage/w25qxx/w25qxx.h ****     dev->read_data(dev,&dev->id,2);
 739              		.loc 3 122 8 is_stmt 0 view .LVU198
 740 006e E36A     		ldr	r3, [r4, #44]
 122:./drivers/storage/w25qxx/w25qxx.h ****     dev->read_data(dev,&dev->id,2);
 741              		.loc 3 122 5 view .LVU199
 742 0070 0422     		movs	r2, #4
 743 0072 02A9     		add	r1, sp, #8
 744 0074 2046     		mov	r0, r4
 745 0076 9847     		blx	r3
 746              	.LVL56:
 123:./drivers/storage/w25qxx/w25qxx.h ****     dev->send_stop(dev);
 747              		.loc 3 123 5 is_stmt 1 view .LVU200
 123:./drivers/storage/w25qxx/w25qxx.h ****     dev->send_stop(dev);
 748              		.loc 3 123 8 is_stmt 0 view .LVU201
 749 0078 236B     		ldr	r3, [r4, #48]
 123:./drivers/storage/w25qxx/w25qxx.h ****     dev->send_stop(dev);
 750              		.loc 3 123 5 view .LVU202
 751 007a 0222     		movs	r2, #2
 752 007c 04F12401 		add	r1, r4, #36
 753 0080 2046     		mov	r0, r4
 754 0082 9847     		blx	r3
 755              	.LVL57:
 124:./drivers/storage/w25qxx/w25qxx.h ****     return 0;
 756              		.loc 3 124 5 is_stmt 1 view .LVU203
ARM GAS  /tmp/ccnTZmpF.s 			page 24


 124:./drivers/storage/w25qxx/w25qxx.h ****     return 0;
 757              		.loc 3 124 8 is_stmt 0 view .LVU204
 758 0084 A36B     		ldr	r3, [r4, #56]
 124:./drivers/storage/w25qxx/w25qxx.h ****     return 0;
 759              		.loc 3 124 5 view .LVU205
 760 0086 2046     		mov	r0, r4
 761 0088 9847     		blx	r3
 762              	.LVL58:
 125:./drivers/storage/w25qxx/w25qxx.h **** }
 763              		.loc 3 125 5 is_stmt 1 view .LVU206
 126:./drivers/storage/w25qxx/w25qxx.h **** 
 764              		.loc 3 126 1 is_stmt 0 view .LVU207
 765 008a 0020     		movs	r0, #0
 766 008c 05B0     		add	sp, sp, #20
 767              	.LCFI19:
 768              		.cfi_def_cfa_offset 12
 769              		@ sp needed
 770 008e 30BD     		pop	{r4, r5, pc}
 771              	.LVL59:
 772              	.L30:
 126:./drivers/storage/w25qxx/w25qxx.h **** 
 773              		.loc 3 126 1 view .LVU208
 774              		.align	2
 775              	.L29:
 776 0090 00000000 		.word	.LC0
 777              		.cfi_endproc
 778              	.LFE1040:
 780              		.section	.rodata.w25qxx_release.str1.4,"aMS",%progbits,1
 781              		.align	2
 782              	.LC1:
 783 0000 77323571 		.ascii	"w25qxx block device released\012\000"
 783      78782062 
 783      6C6F636B 
 783      20646576 
 783      69636520 
 784              		.section	.text.w25qxx_release,"ax",%progbits
 785              		.align	1
 786              		.syntax unified
 787              		.thumb
 788              		.thumb_func
 790              	w25qxx_release:
 791              	.LVL60:
 792              	.LFB1050:
  23:./drivers/storage/w25qxx/w25qxx.c ****     printk("w25qxx block device released\n");
 793              		.loc 1 23 63 is_stmt 1 view -0
 794              		.cfi_startproc
 795              		@ args = 0, pretend = 0, frame = 0
 796              		@ frame_needed = 0, uses_anonymous_args = 0
  23:./drivers/storage/w25qxx/w25qxx.c ****     printk("w25qxx block device released\n");
 797              		.loc 1 23 63 is_stmt 0 view .LVU210
 798 0000 08B5     		push	{r3, lr}
 799              	.LCFI20:
 800              		.cfi_def_cfa_offset 8
 801              		.cfi_offset 3, -8
 802              		.cfi_offset 14, -4
  24:./drivers/storage/w25qxx/w25qxx.c **** }
 803              		.loc 1 24 5 is_stmt 1 view .LVU211
ARM GAS  /tmp/ccnTZmpF.s 			page 25


 804 0002 0248     		ldr	r0, .L33
 805              	.LVL61:
  24:./drivers/storage/w25qxx/w25qxx.c **** }
 806              		.loc 1 24 5 is_stmt 0 view .LVU212
 807 0004 FFF7FEFF 		bl	printk
 808              	.LVL62:
  25:./drivers/storage/w25qxx/w25qxx.c **** 
 809              		.loc 1 25 1 view .LVU213
 810 0008 08BD     		pop	{r3, pc}
 811              	.L34:
 812 000a 00BF     		.align	2
 813              	.L33:
 814 000c 00000000 		.word	.LC1
 815              		.cfi_endproc
 816              	.LFE1050:
 818              		.section	.rodata.w25qxx_open.str1.4,"aMS",%progbits,1
 819              		.align	2
 820              	.LC2:
 821 0000 77323571 		.ascii	"w25qxx block device opened\012\015\000"
 821      78782062 
 821      6C6F636B 
 821      20646576 
 821      69636520 
 822              		.section	.text.w25qxx_open,"ax",%progbits
 823              		.align	1
 824              		.syntax unified
 825              		.thumb
 826              		.thumb_func
 828              	w25qxx_open:
 829              	.LVL63:
 830              	.LFB1049:
  18:./drivers/storage/w25qxx/w25qxx.c ****     printk("w25qxx block device opened\n\r");
 831              		.loc 1 18 62 is_stmt 1 view -0
 832              		.cfi_startproc
 833              		@ args = 0, pretend = 0, frame = 0
 834              		@ frame_needed = 0, uses_anonymous_args = 0
  18:./drivers/storage/w25qxx/w25qxx.c ****     printk("w25qxx block device opened\n\r");
 835              		.loc 1 18 62 is_stmt 0 view .LVU215
 836 0000 08B5     		push	{r3, lr}
 837              	.LCFI21:
 838              		.cfi_def_cfa_offset 8
 839              		.cfi_offset 3, -8
 840              		.cfi_offset 14, -4
  19:./drivers/storage/w25qxx/w25qxx.c ****     return 0;
 841              		.loc 1 19 5 is_stmt 1 view .LVU216
 842 0002 0248     		ldr	r0, .L37
 843              	.LVL64:
  19:./drivers/storage/w25qxx/w25qxx.c ****     return 0;
 844              		.loc 1 19 5 is_stmt 0 view .LVU217
 845 0004 FFF7FEFF 		bl	printk
 846              	.LVL65:
  20:./drivers/storage/w25qxx/w25qxx.c **** }
 847              		.loc 1 20 5 is_stmt 1 view .LVU218
  21:./drivers/storage/w25qxx/w25qxx.c **** 
 848              		.loc 1 21 1 is_stmt 0 view .LVU219
 849 0008 0020     		movs	r0, #0
 850 000a 08BD     		pop	{r3, pc}
ARM GAS  /tmp/ccnTZmpF.s 			page 26


 851              	.L38:
 852              		.align	2
 853              	.L37:
 854 000c 00000000 		.word	.LC2
 855              		.cfi_endproc
 856              	.LFE1049:
 858              		.section	.rodata.set_cs_pin_high.str1.4,"aMS",%progbits,1
 859              		.align	2
 860              	.LC3:
 861 0000 3100     		.ascii	"1\000"
 862 0002 0000     		.align	2
 863              	.LC4:
 864 0004 77726974 		.ascii	"write error 1 \012\015\000"
 864      65206572 
 864      726F7220 
 864      31200A0D 
 864      00
 865              		.section	.text.set_cs_pin_high,"ax",%progbits
 866              		.align	1
 867              		.syntax unified
 868              		.thumb
 869              		.thumb_func
 871              	set_cs_pin_high:
 872              	.LVL66:
 873              	.LFB1036:
  74:./drivers/storage/w25qxx/w25qxx.h ****     int ret = kernel_write(w25qxx_dev->gpio_cs_dev, "1", 1, 0);
 874              		.loc 3 74 60 is_stmt 1 view -0
 875              		.cfi_startproc
 876              		@ args = 0, pretend = 0, frame = 0
 877              		@ frame_needed = 0, uses_anonymous_args = 0
  74:./drivers/storage/w25qxx/w25qxx.h ****     int ret = kernel_write(w25qxx_dev->gpio_cs_dev, "1", 1, 0);
 878              		.loc 3 74 60 is_stmt 0 view .LVU221
 879 0000 08B5     		push	{r3, lr}
 880              	.LCFI22:
 881              		.cfi_def_cfa_offset 8
 882              		.cfi_offset 3, -8
 883              		.cfi_offset 14, -4
  75:./drivers/storage/w25qxx/w25qxx.h ****     if(ret < 0){
 884              		.loc 3 75 5 is_stmt 1 view .LVU222
  75:./drivers/storage/w25qxx/w25qxx.h ****     if(ret < 0){
 885              		.loc 3 75 15 is_stmt 0 view .LVU223
 886 0002 0023     		movs	r3, #0
 887 0004 0122     		movs	r2, #1
 888 0006 0549     		ldr	r1, .L43
 889 0008 8068     		ldr	r0, [r0, #8]
 890              	.LVL67:
  75:./drivers/storage/w25qxx/w25qxx.h ****     if(ret < 0){
 891              		.loc 3 75 15 view .LVU224
 892 000a FFF7FEFF 		bl	kernel_write
 893              	.LVL68:
  76:./drivers/storage/w25qxx/w25qxx.h ****        printk("write error 1 \n\r");
 894              		.loc 3 76 5 is_stmt 1 view .LVU225
  76:./drivers/storage/w25qxx/w25qxx.h ****        printk("write error 1 \n\r");
 895              		.loc 3 76 7 is_stmt 0 view .LVU226
 896 000e 0028     		cmp	r0, #0
 897 0010 00DB     		blt	.L42
 898              	.LVL69:
ARM GAS  /tmp/ccnTZmpF.s 			page 27


 899              	.L39:
  79:./drivers/storage/w25qxx/w25qxx.h **** 
 900              		.loc 3 79 1 view .LVU227
 901 0012 08BD     		pop	{r3, pc}
 902              	.LVL70:
 903              	.L42:
  77:./drivers/storage/w25qxx/w25qxx.h ****     }
 904              		.loc 3 77 8 is_stmt 1 view .LVU228
 905 0014 0248     		ldr	r0, .L43+4
 906              	.LVL71:
  77:./drivers/storage/w25qxx/w25qxx.h ****     }
 907              		.loc 3 77 8 is_stmt 0 view .LVU229
 908 0016 FFF7FEFF 		bl	printk
 909              	.LVL72:
  79:./drivers/storage/w25qxx/w25qxx.h **** 
 910              		.loc 3 79 1 view .LVU230
 911 001a FAE7     		b	.L39
 912              	.L44:
 913              		.align	2
 914              	.L43:
 915 001c 00000000 		.word	.LC3
 916 0020 04000000 		.word	.LC4
 917              		.cfi_endproc
 918              	.LFE1036:
 920              		.section	.rodata.set_cs_pin_low.str1.4,"aMS",%progbits,1
 921              		.align	2
 922              	.LC5:
 923 0000 3000     		.ascii	"0\000"
 924 0002 0000     		.align	2
 925              	.LC6:
 926 0004 77726974 		.ascii	"write error 2 \012\015\000"
 926      65206572 
 926      726F7220 
 926      32200A0D 
 926      00
 927              		.section	.text.set_cs_pin_low,"ax",%progbits
 928              		.align	1
 929              		.syntax unified
 930              		.thumb
 931              		.thumb_func
 933              	set_cs_pin_low:
 934              	.LVL73:
 935              	.LFB1037:
  81:./drivers/storage/w25qxx/w25qxx.h ****    int ret = kernel_write(w25qxx_dev->gpio_cs_dev, "0", 1, 0);
 936              		.loc 3 81 59 is_stmt 1 view -0
 937              		.cfi_startproc
 938              		@ args = 0, pretend = 0, frame = 0
 939              		@ frame_needed = 0, uses_anonymous_args = 0
  81:./drivers/storage/w25qxx/w25qxx.h ****    int ret = kernel_write(w25qxx_dev->gpio_cs_dev, "0", 1, 0);
 940              		.loc 3 81 59 is_stmt 0 view .LVU232
 941 0000 08B5     		push	{r3, lr}
 942              	.LCFI23:
 943              		.cfi_def_cfa_offset 8
 944              		.cfi_offset 3, -8
 945              		.cfi_offset 14, -4
  82:./drivers/storage/w25qxx/w25qxx.h ****    if(ret < 0){
 946              		.loc 3 82 4 is_stmt 1 view .LVU233
ARM GAS  /tmp/ccnTZmpF.s 			page 28


  82:./drivers/storage/w25qxx/w25qxx.h ****    if(ret < 0){
 947              		.loc 3 82 14 is_stmt 0 view .LVU234
 948 0002 0023     		movs	r3, #0
 949 0004 0122     		movs	r2, #1
 950 0006 0549     		ldr	r1, .L49
 951 0008 8068     		ldr	r0, [r0, #8]
 952              	.LVL74:
  82:./drivers/storage/w25qxx/w25qxx.h ****    if(ret < 0){
 953              		.loc 3 82 14 view .LVU235
 954 000a FFF7FEFF 		bl	kernel_write
 955              	.LVL75:
  83:./drivers/storage/w25qxx/w25qxx.h ****       printk("write error 2 \n\r");
 956              		.loc 3 83 4 is_stmt 1 view .LVU236
  83:./drivers/storage/w25qxx/w25qxx.h ****       printk("write error 2 \n\r");
 957              		.loc 3 83 6 is_stmt 0 view .LVU237
 958 000e 0028     		cmp	r0, #0
 959 0010 00DB     		blt	.L48
 960              	.LVL76:
 961              	.L45:
  86:./drivers/storage/w25qxx/w25qxx.h **** 
 962              		.loc 3 86 1 view .LVU238
 963 0012 08BD     		pop	{r3, pc}
 964              	.LVL77:
 965              	.L48:
  84:./drivers/storage/w25qxx/w25qxx.h ****    }
 966              		.loc 3 84 7 is_stmt 1 view .LVU239
 967 0014 0248     		ldr	r0, .L49+4
 968              	.LVL78:
  84:./drivers/storage/w25qxx/w25qxx.h ****    }
 969              		.loc 3 84 7 is_stmt 0 view .LVU240
 970 0016 FFF7FEFF 		bl	printk
 971              	.LVL79:
  86:./drivers/storage/w25qxx/w25qxx.h **** 
 972              		.loc 3 86 1 view .LVU241
 973 001a FAE7     		b	.L45
 974              	.L50:
 975              		.align	2
 976              	.L49:
 977 001c 00000000 		.word	.LC5
 978 0020 04000000 		.word	.LC6
 979              		.cfi_endproc
 980              	.LFE1037:
 982              		.section	.text.w25qxx_read_data,"ax",%progbits
 983              		.align	1
 984              		.syntax unified
 985              		.thumb
 986              		.thumb_func
 988              	w25qxx_read_data:
 989              	.LVL80:
 990              	.LFB1039:
  97:./drivers/storage/w25qxx/w25qxx.h ****     dev->xfer.tx_buf = NULL;
 991              		.loc 3 97 1 is_stmt 1 view -0
 992              		.cfi_startproc
 993              		@ args = 0, pretend = 0, frame = 0
 994              		@ frame_needed = 0, uses_anonymous_args = 0
  97:./drivers/storage/w25qxx/w25qxx.h ****     dev->xfer.tx_buf = NULL;
 995              		.loc 3 97 1 is_stmt 0 view .LVU243
ARM GAS  /tmp/ccnTZmpF.s 			page 29


 996 0000 08B5     		push	{r3, lr}
 997              	.LCFI24:
 998              		.cfi_def_cfa_offset 8
 999              		.cfi_offset 3, -8
 1000              		.cfi_offset 14, -4
  98:./drivers/storage/w25qxx/w25qxx.h ****     dev->xfer.rx_buf = data;
 1001              		.loc 3 98 5 is_stmt 1 view .LVU244
  98:./drivers/storage/w25qxx/w25qxx.h ****     dev->xfer.rx_buf = data;
 1002              		.loc 3 98 22 is_stmt 0 view .LVU245
 1003 0002 0023     		movs	r3, #0
 1004 0004 C360     		str	r3, [r0, #12]
  99:./drivers/storage/w25qxx/w25qxx.h ****     dev->xfer.len = len;
 1005              		.loc 3 99 5 is_stmt 1 view .LVU246
  99:./drivers/storage/w25qxx/w25qxx.h ****     dev->xfer.len = len;
 1006              		.loc 3 99 22 is_stmt 0 view .LVU247
 1007 0006 0161     		str	r1, [r0, #16]
 100:./drivers/storage/w25qxx/w25qxx.h ****     int i = vfs_ioctl(dev->spi_dev,SPI_IOC_MESSAGE(1),&dev->xfer);
 1008              		.loc 3 100 5 is_stmt 1 view .LVU248
 100:./drivers/storage/w25qxx/w25qxx.h ****     int i = vfs_ioctl(dev->spi_dev,SPI_IOC_MESSAGE(1),&dev->xfer);
 1009              		.loc 3 100 19 is_stmt 0 view .LVU249
 1010 0008 4261     		str	r2, [r0, #20]
 101:./drivers/storage/w25qxx/w25qxx.h ****     return i;
 1011              		.loc 3 101 5 is_stmt 1 view .LVU250
 101:./drivers/storage/w25qxx/w25qxx.h ****     return i;
 1012              		.loc 3 101 13 is_stmt 0 view .LVU251
 1013 000a 00F10C02 		add	r2, r0, #12
 1014              	.LVL81:
 101:./drivers/storage/w25qxx/w25qxx.h ****     return i;
 1015              		.loc 3 101 13 view .LVU252
 1016 000e 0121     		movs	r1, #1
 1017              	.LVL82:
 101:./drivers/storage/w25qxx/w25qxx.h ****     return i;
 1018              		.loc 3 101 13 view .LVU253
 1019 0010 4068     		ldr	r0, [r0, #4]
 1020              	.LVL83:
 101:./drivers/storage/w25qxx/w25qxx.h ****     return i;
 1021              		.loc 3 101 13 view .LVU254
 1022 0012 FFF7FEFF 		bl	vfs_ioctl
 1023              	.LVL84:
 102:./drivers/storage/w25qxx/w25qxx.h **** }
 1024              		.loc 3 102 5 is_stmt 1 view .LVU255
 103:./drivers/storage/w25qxx/w25qxx.h **** 
 1025              		.loc 3 103 1 is_stmt 0 view .LVU256
 1026 0016 08BD     		pop	{r3, pc}
 1027              		.cfi_endproc
 1028              	.LFE1039:
 1030              		.section	.text.w25qxx_send_data,"ax",%progbits
 1031              		.align	1
 1032              		.syntax unified
 1033              		.thumb
 1034              		.thumb_func
 1036              	w25qxx_send_data:
 1037              	.LVL85:
 1038              	.LFB1038:
  89:./drivers/storage/w25qxx/w25qxx.h ****     dev->xfer.tx_buf = data;
 1039              		.loc 3 89 1 is_stmt 1 view -0
 1040              		.cfi_startproc
ARM GAS  /tmp/ccnTZmpF.s 			page 30


 1041              		@ args = 0, pretend = 0, frame = 0
 1042              		@ frame_needed = 0, uses_anonymous_args = 0
  89:./drivers/storage/w25qxx/w25qxx.h ****     dev->xfer.tx_buf = data;
 1043              		.loc 3 89 1 is_stmt 0 view .LVU258
 1044 0000 08B5     		push	{r3, lr}
 1045              	.LCFI25:
 1046              		.cfi_def_cfa_offset 8
 1047              		.cfi_offset 3, -8
 1048              		.cfi_offset 14, -4
  90:./drivers/storage/w25qxx/w25qxx.h ****     dev->xfer.rx_buf = NULL;
 1049              		.loc 3 90 5 is_stmt 1 view .LVU259
  90:./drivers/storage/w25qxx/w25qxx.h ****     dev->xfer.rx_buf = NULL;
 1050              		.loc 3 90 22 is_stmt 0 view .LVU260
 1051 0002 C160     		str	r1, [r0, #12]
  91:./drivers/storage/w25qxx/w25qxx.h ****     dev->xfer.len = len;
 1052              		.loc 3 91 5 is_stmt 1 view .LVU261
  91:./drivers/storage/w25qxx/w25qxx.h ****     dev->xfer.len = len;
 1053              		.loc 3 91 22 is_stmt 0 view .LVU262
 1054 0004 0023     		movs	r3, #0
 1055 0006 0361     		str	r3, [r0, #16]
  92:./drivers/storage/w25qxx/w25qxx.h ****     int i = vfs_ioctl(dev->spi_dev,SPI_IOC_MESSAGE(1),&dev->xfer);
 1056              		.loc 3 92 5 is_stmt 1 view .LVU263
  92:./drivers/storage/w25qxx/w25qxx.h ****     int i = vfs_ioctl(dev->spi_dev,SPI_IOC_MESSAGE(1),&dev->xfer);
 1057              		.loc 3 92 19 is_stmt 0 view .LVU264
 1058 0008 4261     		str	r2, [r0, #20]
  93:./drivers/storage/w25qxx/w25qxx.h ****     return i;
 1059              		.loc 3 93 5 is_stmt 1 view .LVU265
  93:./drivers/storage/w25qxx/w25qxx.h ****     return i;
 1060              		.loc 3 93 13 is_stmt 0 view .LVU266
 1061 000a 00F10C02 		add	r2, r0, #12
 1062              	.LVL86:
  93:./drivers/storage/w25qxx/w25qxx.h ****     return i;
 1063              		.loc 3 93 13 view .LVU267
 1064 000e 0121     		movs	r1, #1
 1065              	.LVL87:
  93:./drivers/storage/w25qxx/w25qxx.h ****     return i;
 1066              		.loc 3 93 13 view .LVU268
 1067 0010 4068     		ldr	r0, [r0, #4]
 1068              	.LVL88:
  93:./drivers/storage/w25qxx/w25qxx.h ****     return i;
 1069              		.loc 3 93 13 view .LVU269
 1070 0012 FFF7FEFF 		bl	vfs_ioctl
 1071              	.LVL89:
  94:./drivers/storage/w25qxx/w25qxx.h **** }
 1072              		.loc 3 94 5 is_stmt 1 view .LVU270
  95:./drivers/storage/w25qxx/w25qxx.h **** static int w25qxx_read_data(struct w25qxx_dev *dev,u8 *data,int len)
 1073              		.loc 3 95 1 is_stmt 0 view .LVU271
 1074 0016 08BD     		pop	{r3, pc}
 1075              		.cfi_endproc
 1076              	.LFE1038:
 1078              		.section	.rodata.cs_pin_init.str1.4,"aMS",%progbits,1
 1079              		.align	2
 1080              	.LC7:
 1081 0000 6F70656E 		.ascii	"open file failed\012\015\000"
 1081      2066696C 
 1081      65206661 
 1081      696C6564 
ARM GAS  /tmp/ccnTZmpF.s 			page 31


 1081      0A0D00
 1082 0013 00       		.align	2
 1083              	.LC8:
 1084 0014 73657420 		.ascii	"set cs ping use %d\012\015\000"
 1084      63732070 
 1084      696E6720 
 1084      75736520 
 1084      25640A0D 
 1085 0029 000000   		.align	2
 1086              	.LC9:
 1087 002c 73657420 		.ascii	"set pin number failed\012\015\000"
 1087      70696E20 
 1087      6E756D62 
 1087      65722066 
 1087      61696C65 
 1088              		.section	.text.cs_pin_init,"ax",%progbits
 1089              		.align	1
 1090              		.syntax unified
 1091              		.thumb
 1092              		.thumb_func
 1094              	cs_pin_init:
 1095              	.LVL90:
 1096              	.LFB1033:
  22:./drivers/storage/w25qxx/w25qxx.h ****     if(pin_num == -1)return 0;
 1097              		.loc 3 22 1 is_stmt 1 view -0
 1098              		.cfi_startproc
 1099              		@ args = 0, pretend = 0, frame = 0
 1100              		@ frame_needed = 0, uses_anonymous_args = 0
  22:./drivers/storage/w25qxx/w25qxx.h ****     if(pin_num == -1)return 0;
 1101              		.loc 3 22 1 is_stmt 0 view .LVU273
 1102 0000 70B5     		push	{r4, r5, r6, lr}
 1103              	.LCFI26:
 1104              		.cfi_def_cfa_offset 16
 1105              		.cfi_offset 4, -16
 1106              		.cfi_offset 5, -12
 1107              		.cfi_offset 6, -8
 1108              		.cfi_offset 14, -4
  23:./drivers/storage/w25qxx/w25qxx.h ****     
 1109              		.loc 3 23 5 is_stmt 1 view .LVU274
  23:./drivers/storage/w25qxx/w25qxx.h ****     
 1110              		.loc 3 23 7 is_stmt 0 view .LVU275
 1111 0002 B2F1FF3F 		cmp	r2, #-1
 1112 0006 2CD0     		beq	.L59
 1113 0008 0646     		mov	r6, r0
 1114 000a 0846     		mov	r0, r1
 1115              	.LVL91:
  23:./drivers/storage/w25qxx/w25qxx.h ****     
 1116              		.loc 3 23 7 view .LVU276
 1117 000c 1546     		mov	r5, r2
  25:./drivers/storage/w25qxx/w25qxx.h ****     if(IS_ERR(w25qxx_dev->gpio_cs_dev)){
 1118              		.loc 3 25 5 is_stmt 1 view .LVU277
  25:./drivers/storage/w25qxx/w25qxx.h ****     if(IS_ERR(w25qxx_dev->gpio_cs_dev)){
 1119              		.loc 3 25 31 is_stmt 0 view .LVU278
 1120 000e 0022     		movs	r2, #0
 1121              	.LVL92:
  25:./drivers/storage/w25qxx/w25qxx.h ****     if(IS_ERR(w25qxx_dev->gpio_cs_dev)){
 1122              		.loc 3 25 31 view .LVU279
ARM GAS  /tmp/ccnTZmpF.s 			page 32


 1123 0010 0221     		movs	r1, #2
 1124              	.LVL93:
  25:./drivers/storage/w25qxx/w25qxx.h ****     if(IS_ERR(w25qxx_dev->gpio_cs_dev)){
 1125              		.loc 3 25 31 view .LVU280
 1126 0012 FFF7FEFF 		bl	filp_open
 1127              	.LVL94:
  25:./drivers/storage/w25qxx/w25qxx.h ****     if(IS_ERR(w25qxx_dev->gpio_cs_dev)){
 1128              		.loc 3 25 31 view .LVU281
 1129 0016 0446     		mov	r4, r0
  25:./drivers/storage/w25qxx/w25qxx.h ****     if(IS_ERR(w25qxx_dev->gpio_cs_dev)){
 1130              		.loc 3 25 29 discriminator 1 view .LVU282
 1131 0018 B060     		str	r0, [r6, #8]
  26:./drivers/storage/w25qxx/w25qxx.h ****         printk("open file failed\n\r");
 1132              		.loc 3 26 5 is_stmt 1 view .LVU283
 1133              	.LVL95:
 1134              	.LBB105:
 1135              	.LBI105:
 1136              		.file 4 "./include/linux/err.h"
   1:./include/linux/err.h **** /* SPDX-License-Identifier: GPL-2.0 */
   2:./include/linux/err.h **** #ifndef _LINUX_ERR_H
   3:./include/linux/err.h **** #define _LINUX_ERR_H
   4:./include/linux/err.h **** 
   5:./include/linux/err.h **** #include <linux/compiler_attributes.h>
   6:./include/linux/err.h **** #include <linux/compiler.h>
   7:./include/linux/err.h **** #include <linux/types.h>
   8:./include/linux/err.h **** 
   9:./include/linux/err.h **** #include <asm/errno.h>
  10:./include/linux/err.h **** 
  11:./include/linux/err.h **** /*
  12:./include/linux/err.h ****  * Kernel pointers have redundant information, so we can use a
  13:./include/linux/err.h ****  * scheme where we can return either an error code or a normal
  14:./include/linux/err.h ****  * pointer with the same return value.
  15:./include/linux/err.h ****  *
  16:./include/linux/err.h ****  * This should be a per-architecture thing, to allow different
  17:./include/linux/err.h ****  * error and pointer decisions.
  18:./include/linux/err.h ****  */
  19:./include/linux/err.h **** #define MAX_ERRNO	4095
  20:./include/linux/err.h **** 
  21:./include/linux/err.h **** #ifndef __ASSEMBLY__
  22:./include/linux/err.h **** 
  23:./include/linux/err.h **** /**
  24:./include/linux/err.h ****  * IS_ERR_VALUE - Detect an error pointer.
  25:./include/linux/err.h ****  * @x: The pointer to check.
  26:./include/linux/err.h ****  *
  27:./include/linux/err.h ****  * Like IS_ERR(), but does not generate a compiler warning if result is unused.
  28:./include/linux/err.h ****  */
  29:./include/linux/err.h **** 
  30:./include/linux/err.h **** #ifndef unlikely
  31:./include/linux/err.h **** #  define unlikely(x) __builtin_expect(!!(x), 0)
  32:./include/linux/err.h **** #endif
  33:./include/linux/err.h **** 
  34:./include/linux/err.h **** #ifndef likely
  35:./include/linux/err.h **** #  define likely(x) __builtin_expect(!!(x), 1)
  36:./include/linux/err.h **** #endif
  37:./include/linux/err.h **** 
  38:./include/linux/err.h **** #define IS_ERR_VALUE(x) unlikely((unsigned long)(void *)(x) >= (unsigned long)-MAX_ERRNO)
  39:./include/linux/err.h **** 
ARM GAS  /tmp/ccnTZmpF.s 			page 33


  40:./include/linux/err.h **** /**
  41:./include/linux/err.h ****  * ERR_PTR - Create an error pointer.
  42:./include/linux/err.h ****  * @error: A negative error code.
  43:./include/linux/err.h ****  *
  44:./include/linux/err.h ****  * Encodes @error into a pointer value. Users should consider the result
  45:./include/linux/err.h ****  * opaque and not assume anything about how the error is encoded.
  46:./include/linux/err.h ****  *
  47:./include/linux/err.h ****  * Return: A pointer with @error encoded within its value.
  48:./include/linux/err.h ****  */
  49:./include/linux/err.h **** static inline void * __must_check ERR_PTR(long error)
  50:./include/linux/err.h **** {
  51:./include/linux/err.h **** 	return (void *) error;
  52:./include/linux/err.h **** }
  53:./include/linux/err.h **** 
  54:./include/linux/err.h **** /* Return the pointer in the percpu address space. */
  55:./include/linux/err.h **** #define ERR_PTR_PCPU(error) ((void __percpu *)(unsigned long)ERR_PTR(error))
  56:./include/linux/err.h **** 
  57:./include/linux/err.h **** /**
  58:./include/linux/err.h ****  * PTR_ERR - Extract the error code from an error pointer.
  59:./include/linux/err.h ****  * @ptr: An error pointer.
  60:./include/linux/err.h ****  * Return: The error code within @ptr.
  61:./include/linux/err.h ****  */
  62:./include/linux/err.h **** static inline long __must_check PTR_ERR(__force const void *ptr)
  63:./include/linux/err.h **** {
  64:./include/linux/err.h **** 	return (long) ptr;
  65:./include/linux/err.h **** }
  66:./include/linux/err.h **** 
  67:./include/linux/err.h **** /* Read an error pointer from the percpu address space. */
  68:./include/linux/err.h **** #define PTR_ERR_PCPU(ptr) (PTR_ERR((const void *)(__force const unsigned long)(ptr)))
  69:./include/linux/err.h **** 
  70:./include/linux/err.h **** /**
  71:./include/linux/err.h ****  * IS_ERR - Detect an error pointer.
  72:./include/linux/err.h ****  * @ptr: The pointer to check.
  73:./include/linux/err.h ****  * Return: true if @ptr is an error pointer, false otherwise.
  74:./include/linux/err.h ****  */
  75:./include/linux/err.h **** static inline bool __must_check IS_ERR(__force const void *ptr)
 1137              		.loc 4 75 33 view .LVU284
 1138              	.LBB106:
  76:./include/linux/err.h **** {
  77:./include/linux/err.h **** 	return IS_ERR_VALUE((unsigned long)ptr);
 1139              		.loc 4 77 2 view .LVU285
 1140              		.loc 4 77 9 is_stmt 0 view .LVU286
 1141 001a 10F5805F 		cmn	r0, #4096
 1142 001e 94BF     		ite	ls
 1143 0020 0024     		movls	r4, #0
 1144 0022 0124     		movhi	r4, #1
 1145              	.LVL96:
 1146              		.loc 4 77 9 view .LVU287
 1147              	.LBE106:
 1148              	.LBE105:
  26:./drivers/storage/w25qxx/w25qxx.h ****         printk("open file failed\n\r");
 1149              		.loc 3 26 7 discriminator 1 view .LVU288
 1150 0024 8CB9     		cbnz	r4, .L61
  30:./drivers/storage/w25qxx/w25qxx.h ****     int i = vfs_ioctl(w25qxx_dev->gpio_cs_dev,GPIO_SET_PIN_NUMBER,pin_num);
 1151              		.loc 3 30 5 is_stmt 1 view .LVU289
 1152 0026 2946     		mov	r1, r5
 1153 0028 0F48     		ldr	r0, .L63
ARM GAS  /tmp/ccnTZmpF.s 			page 34


 1154 002a FFF7FEFF 		bl	printk
 1155              	.LVL97:
  31:./drivers/storage/w25qxx/w25qxx.h ****     if(i < 0){
 1156              		.loc 3 31 5 view .LVU290
  31:./drivers/storage/w25qxx/w25qxx.h ****     if(i < 0){
 1157              		.loc 3 31 13 is_stmt 0 view .LVU291
 1158 002e 2A46     		mov	r2, r5
 1159 0030 4021     		movs	r1, #64
 1160 0032 B068     		ldr	r0, [r6, #8]
 1161 0034 FFF7FEFF 		bl	vfs_ioctl
 1162              	.LVL98:
  32:./drivers/storage/w25qxx/w25qxx.h ****         printk("set pin number failed\n\r");
 1163              		.loc 3 32 5 is_stmt 1 view .LVU292
  32:./drivers/storage/w25qxx/w25qxx.h ****         printk("set pin number failed\n\r");
 1164              		.loc 3 32 7 is_stmt 0 view .LVU293
 1165 0038 0028     		cmp	r0, #0
 1166 003a 0CDB     		blt	.L62
  36:./drivers/storage/w25qxx/w25qxx.h ****     return 0;
 1167              		.loc 3 36 5 is_stmt 1 view .LVU294
 1168 003c 0022     		movs	r2, #0
 1169 003e 0221     		movs	r1, #2
 1170 0040 B068     		ldr	r0, [r6, #8]
 1171              	.LVL99:
  36:./drivers/storage/w25qxx/w25qxx.h ****     return 0;
 1172              		.loc 3 36 5 is_stmt 0 view .LVU295
 1173 0042 FFF7FEFF 		bl	vfs_ioctl
 1174              	.LVL100:
  37:./drivers/storage/w25qxx/w25qxx.h **** }
 1175              		.loc 3 37 5 is_stmt 1 view .LVU296
 1176              	.L55:
  38:./drivers/storage/w25qxx/w25qxx.h ****  
 1177              		.loc 3 38 1 is_stmt 0 view .LVU297
 1178 0046 2046     		mov	r0, r4
 1179 0048 70BD     		pop	{r4, r5, r6, pc}
 1180              	.LVL101:
 1181              	.L61:
  27:./drivers/storage/w25qxx/w25qxx.h ****         return -1;
 1182              		.loc 3 27 9 is_stmt 1 view .LVU298
 1183 004a 0848     		ldr	r0, .L63+4
 1184 004c FFF7FEFF 		bl	printk
 1185              	.LVL102:
  28:./drivers/storage/w25qxx/w25qxx.h ****     }
 1186              		.loc 3 28 9 view .LVU299
  28:./drivers/storage/w25qxx/w25qxx.h ****     }
 1187              		.loc 3 28 16 is_stmt 0 view .LVU300
 1188 0050 4FF0FF34 		mov	r4, #-1
 1189 0054 F7E7     		b	.L55
 1190              	.LVL103:
 1191              	.L62:
  33:./drivers/storage/w25qxx/w25qxx.h ****         return -1;
 1192              		.loc 3 33 9 is_stmt 1 view .LVU301
 1193 0056 0648     		ldr	r0, .L63+8
 1194              	.LVL104:
  33:./drivers/storage/w25qxx/w25qxx.h ****         return -1;
 1195              		.loc 3 33 9 is_stmt 0 view .LVU302
 1196 0058 FFF7FEFF 		bl	printk
 1197              	.LVL105:
ARM GAS  /tmp/ccnTZmpF.s 			page 35


  34:./drivers/storage/w25qxx/w25qxx.h ****     }
 1198              		.loc 3 34 9 is_stmt 1 view .LVU303
  34:./drivers/storage/w25qxx/w25qxx.h ****     }
 1199              		.loc 3 34 16 is_stmt 0 view .LVU304
 1200 005c 4FF0FF34 		mov	r4, #-1
 1201 0060 F1E7     		b	.L55
 1202              	.LVL106:
 1203              	.L59:
  23:./drivers/storage/w25qxx/w25qxx.h ****     
 1204              		.loc 3 23 29 discriminator 1 view .LVU305
 1205 0062 0024     		movs	r4, #0
 1206 0064 EFE7     		b	.L55
 1207              	.L64:
 1208 0066 00BF     		.align	2
 1209              	.L63:
 1210 0068 14000000 		.word	.LC8
 1211 006c 00000000 		.word	.LC7
 1212 0070 2C000000 		.word	.LC9
 1213              		.cfi_endproc
 1214              	.LFE1033:
 1216              		.section	.rodata.spi_write_enable.str1.4,"aMS",%progbits,1
 1217              		.align	2
 1218              	.LC10:
 1219 0000 2F646576 		.ascii	"/dev/spidev1\000"
 1219      2F737069 
 1219      64657631 
 1219      00
 1220              		.section	.text.spi_write_enable,"ax",%progbits
 1221              		.align	1
 1222              		.syntax unified
 1223              		.thumb
 1224              		.thumb_func
 1226              	spi_write_enable:
 1227              	.LVL107:
 1228              	.LFB1034:
  42:./drivers/storage/w25qxx/w25qxx.h ****     w25qxx_dev->spi_dev = filp_open("/dev/spidev1", O_RDWR, 0);
 1229              		.loc 3 42 1 is_stmt 1 view -0
 1230              		.cfi_startproc
 1231              		@ args = 0, pretend = 0, frame = 0
 1232              		@ frame_needed = 0, uses_anonymous_args = 0
  42:./drivers/storage/w25qxx/w25qxx.h ****     w25qxx_dev->spi_dev = filp_open("/dev/spidev1", O_RDWR, 0);
 1233              		.loc 3 42 1 is_stmt 0 view .LVU307
 1234 0000 38B5     		push	{r3, r4, r5, lr}
 1235              	.LCFI27:
 1236              		.cfi_def_cfa_offset 16
 1237              		.cfi_offset 3, -16
 1238              		.cfi_offset 4, -12
 1239              		.cfi_offset 5, -8
 1240              		.cfi_offset 14, -4
 1241 0002 0446     		mov	r4, r0
 1242 0004 1546     		mov	r5, r2
  43:./drivers/storage/w25qxx/w25qxx.h ****     if(IS_ERR(w25qxx_dev->spi_dev)){
 1243              		.loc 3 43 5 is_stmt 1 view .LVU308
  43:./drivers/storage/w25qxx/w25qxx.h ****     if(IS_ERR(w25qxx_dev->spi_dev)){
 1244              		.loc 3 43 27 is_stmt 0 view .LVU309
 1245 0006 0022     		movs	r2, #0
 1246              	.LVL108:
ARM GAS  /tmp/ccnTZmpF.s 			page 36


  43:./drivers/storage/w25qxx/w25qxx.h ****     if(IS_ERR(w25qxx_dev->spi_dev)){
 1247              		.loc 3 43 27 view .LVU310
 1248 0008 0221     		movs	r1, #2
 1249              	.LVL109:
  43:./drivers/storage/w25qxx/w25qxx.h ****     if(IS_ERR(w25qxx_dev->spi_dev)){
 1250              		.loc 3 43 27 view .LVU311
 1251 000a 0B48     		ldr	r0, .L69
 1252              	.LVL110:
  43:./drivers/storage/w25qxx/w25qxx.h ****     if(IS_ERR(w25qxx_dev->spi_dev)){
 1253              		.loc 3 43 27 view .LVU312
 1254 000c FFF7FEFF 		bl	filp_open
 1255              	.LVL111:
  43:./drivers/storage/w25qxx/w25qxx.h ****     if(IS_ERR(w25qxx_dev->spi_dev)){
 1256              		.loc 3 43 25 discriminator 1 view .LVU313
 1257 0010 6060     		str	r0, [r4, #4]
  44:./drivers/storage/w25qxx/w25qxx.h ****         printk("open file failed\n\r");
 1258              		.loc 3 44 5 is_stmt 1 view .LVU314
 1259              	.LVL112:
 1260              	.LBB107:
 1261              	.LBI107:
  75:./include/linux/err.h **** {
 1262              		.loc 4 75 33 view .LVU315
 1263              	.LBB108:
 1264              		.loc 4 77 2 view .LVU316
 1265              		.loc 4 77 2 is_stmt 0 view .LVU317
 1266              	.LBE108:
 1267              	.LBE107:
  44:./drivers/storage/w25qxx/w25qxx.h ****         printk("open file failed\n\r");
 1268              		.loc 3 44 7 discriminator 1 view .LVU318
 1269 0012 10F5805F 		cmn	r0, #4096
 1270 0016 09D8     		bhi	.L68
  48:./drivers/storage/w25qxx/w25qxx.h ****     w25qxx_dev->xfer.len = 1;
 1271              		.loc 3 48 5 is_stmt 1 view .LVU319
  48:./drivers/storage/w25qxx/w25qxx.h ****     w25qxx_dev->xfer.len = 1;
 1272              		.loc 3 48 31 is_stmt 0 view .LVU320
 1273 0018 A561     		str	r5, [r4, #24]
  49:./drivers/storage/w25qxx/w25qxx.h ****     w25qxx_dev->xfer.delay_usecs = 0;
 1274              		.loc 3 49 5 is_stmt 1 view .LVU321
  49:./drivers/storage/w25qxx/w25qxx.h ****     w25qxx_dev->xfer.delay_usecs = 0;
 1275              		.loc 3 49 26 is_stmt 0 view .LVU322
 1276 001a 0123     		movs	r3, #1
 1277 001c 6361     		str	r3, [r4, #20]
  50:./drivers/storage/w25qxx/w25qxx.h ****     w25qxx_dev->xfer.bits_per_word = 8;
 1278              		.loc 3 50 5 is_stmt 1 view .LVU323
  50:./drivers/storage/w25qxx/w25qxx.h ****     w25qxx_dev->xfer.bits_per_word = 8;
 1279              		.loc 3 50 34 is_stmt 0 view .LVU324
 1280 001e 0023     		movs	r3, #0
 1281 0020 A383     		strh	r3, [r4, #28]	@ movhi
  51:./drivers/storage/w25qxx/w25qxx.h ****     w25qxx_dev->xfer.cs_change = 0;
 1282              		.loc 3 51 5 is_stmt 1 view .LVU325
  51:./drivers/storage/w25qxx/w25qxx.h ****     w25qxx_dev->xfer.cs_change = 0;
 1283              		.loc 3 51 36 is_stmt 0 view .LVU326
 1284 0022 0822     		movs	r2, #8
 1285 0024 A277     		strb	r2, [r4, #30]
  52:./drivers/storage/w25qxx/w25qxx.h **** }
 1286              		.loc 3 52 5 is_stmt 1 view .LVU327
  52:./drivers/storage/w25qxx/w25qxx.h **** }
ARM GAS  /tmp/ccnTZmpF.s 			page 37


 1287              		.loc 3 52 32 is_stmt 0 view .LVU328
 1288 0026 84F82330 		strb	r3, [r4, #35]
 1289              	.L65:
  53:./drivers/storage/w25qxx/w25qxx.h **** 
 1290              		.loc 3 53 1 view .LVU329
 1291 002a 38BD     		pop	{r3, r4, r5, pc}
 1292              	.LVL113:
 1293              	.L68:
  45:./drivers/storage/w25qxx/w25qxx.h ****         return -1;
 1294              		.loc 3 45 9 is_stmt 1 view .LVU330
 1295 002c 0348     		ldr	r0, .L69+4
 1296 002e FFF7FEFF 		bl	printk
 1297              	.LVL114:
  46:./drivers/storage/w25qxx/w25qxx.h ****     }
 1298              		.loc 3 46 9 view .LVU331
  46:./drivers/storage/w25qxx/w25qxx.h ****     }
 1299              		.loc 3 46 16 is_stmt 0 discriminator 1 view .LVU332
 1300 0032 4FF0FF30 		mov	r0, #-1
  46:./drivers/storage/w25qxx/w25qxx.h ****     }
 1301              		.loc 3 46 16 view .LVU333
 1302 0036 F8E7     		b	.L65
 1303              	.L70:
 1304              		.align	2
 1305              	.L69:
 1306 0038 00000000 		.word	.LC10
 1307 003c 00000000 		.word	.LC7
 1308              		.cfi_endproc
 1309              	.LFE1034:
 1311              		.section	.rodata.w25qxx_device_init.str1.4,"aMS",%progbits,1
 1312              		.align	2
 1313              	.LC11:
 1314 0000 2F646576 		.ascii	"/dev/gpios\000"
 1314      2F677069 
 1314      6F7300
 1315              		.section	.text.w25qxx_device_init,"ax",%progbits
 1316              		.align	1
 1317              		.syntax unified
 1318              		.thumb
 1319              		.thumb_func
 1321              	w25qxx_device_init:
 1322              	.LVL115:
 1323              	.LFB1035:
  57:./drivers/storage/w25qxx/w25qxx.h ****     dev->status = cs_pin_init(dev, "/dev/gpios",cs_pin_num);
 1324              		.loc 3 57 1 is_stmt 1 view -0
 1325              		.cfi_startproc
 1326              		@ args = 0, pretend = 0, frame = 0
 1327              		@ frame_needed = 0, uses_anonymous_args = 0
  57:./drivers/storage/w25qxx/w25qxx.h ****     dev->status = cs_pin_init(dev, "/dev/gpios",cs_pin_num);
 1328              		.loc 3 57 1 is_stmt 0 view .LVU335
 1329 0000 38B5     		push	{r3, r4, r5, lr}
 1330              	.LCFI28:
 1331              		.cfi_def_cfa_offset 16
 1332              		.cfi_offset 3, -16
 1333              		.cfi_offset 4, -12
 1334              		.cfi_offset 5, -8
 1335              		.cfi_offset 14, -4
 1336 0002 0446     		mov	r4, r0
ARM GAS  /tmp/ccnTZmpF.s 			page 38


 1337 0004 0D46     		mov	r5, r1
  58:./drivers/storage/w25qxx/w25qxx.h ****     if(dev->status < 0){
 1338              		.loc 3 58 5 is_stmt 1 view .LVU336
  58:./drivers/storage/w25qxx/w25qxx.h ****     if(dev->status < 0){
 1339              		.loc 3 58 19 is_stmt 0 view .LVU337
 1340 0006 0649     		ldr	r1, .L73
 1341              	.LVL116:
  58:./drivers/storage/w25qxx/w25qxx.h ****     if(dev->status < 0){
 1342              		.loc 3 58 19 view .LVU338
 1343 0008 FFF7FEFF 		bl	cs_pin_init
 1344              	.LVL117:
  58:./drivers/storage/w25qxx/w25qxx.h ****     if(dev->status < 0){
 1345              		.loc 3 58 17 discriminator 1 view .LVU339
 1346 000c 2070     		strb	r0, [r4]
  59:./drivers/storage/w25qxx/w25qxx.h ****         printk("cs_pin_init failed\n\r");
 1347              		.loc 3 59 5 is_stmt 1 view .LVU340
  63:./drivers/storage/w25qxx/w25qxx.h ****     if(dev->status < 0){
 1348              		.loc 3 63 5 view .LVU341
  63:./drivers/storage/w25qxx/w25qxx.h ****     if(dev->status < 0){
 1349              		.loc 3 63 19 is_stmt 0 view .LVU342
 1350 000e 054A     		ldr	r2, .L73+4
 1351 0010 2946     		mov	r1, r5
 1352 0012 2046     		mov	r0, r4
 1353 0014 FFF7FEFF 		bl	spi_write_enable
 1354              	.LVL118:
  63:./drivers/storage/w25qxx/w25qxx.h ****     if(dev->status < 0){
 1355              		.loc 3 63 17 discriminator 1 view .LVU343
 1356 0018 2070     		strb	r0, [r4]
  64:./drivers/storage/w25qxx/w25qxx.h ****         printk("spi_write_enable failed\n\r");
 1357              		.loc 3 64 5 is_stmt 1 view .LVU344
  69:./drivers/storage/w25qxx/w25qxx.h **** }
 1358              		.loc 3 69 5 view .LVU345
  70:./drivers/storage/w25qxx/w25qxx.h **** 
 1359              		.loc 3 70 1 is_stmt 0 view .LVU346
 1360 001a 0020     		movs	r0, #0
 1361 001c 38BD     		pop	{r3, r4, r5, pc}
 1362              	.LVL119:
 1363              	.L74:
  70:./drivers/storage/w25qxx/w25qxx.h **** 
 1364              		.loc 3 70 1 view .LVU347
 1365 001e 00BF     		.align	2
 1366              	.L73:
 1367 0020 00000000 		.word	.LC11
 1368 0024 40420F00 		.word	1000000
 1369              		.cfi_endproc
 1370              	.LFE1035:
 1372              		.section	.text.add_disk,"ax",%progbits
 1373              		.align	1
 1374              		.syntax unified
 1375              		.thumb
 1376              		.thumb_func
 1378              	add_disk:
 1379              	.LVL120:
 1380              	.LFB1032:
 1381              		.file 5 "./include/linux/fs.h"
   1:./include/linux/fs.h **** /* SPDX-License-Identifier: GPL-2.0 */
   2:./include/linux/fs.h **** #ifndef _LINUX_FS_H
ARM GAS  /tmp/ccnTZmpF.s 			page 39


   3:./include/linux/fs.h **** #define _LINUX_FS_H
   4:./include/linux/fs.h **** 
   5:./include/linux/fs.h **** #include <linux/types.h>
   6:./include/linux/fs.h **** #include <linux/errseq.h> 
   7:./include/linux/fs.h **** #include <linux/spinlock.h> 
   8:./include/linux/fs.h **** #include <linux/list.h>
   9:./include/linux/fs.h **** #include <linux/rbtree_types.h>  
  10:./include/linux/fs.h **** #include <linux/uuid.h>  
  11:./include/linux/fs.h **** #include <linux/uidgid_types.h>   
  12:./include/linux/fs.h **** #include <linux/projid.h>       
  13:./include/linux/fs.h **** #include <linux/time64.h> 
  14:./include/linux/fs.h **** #include <linux/mnt_idmapping.h>  
  15:./include/linux/fs.h **** #include <linux/mutex.h>         
  16:./include/linux/fs.h **** #include <linux/uio.h>              
  17:./include/linux/fs.h **** #include <linux/migrate_mode.h>  
  18:./include/linux/fs.h **** #include <linux/raid/pq.h> 
  19:./include/linux/fs.h **** #include <linux/lockdep_types.h>
  20:./include/linux/fs.h **** #include <linux/wait.h>				
  21:./include/linux/fs.h **** #include <linux/pipe_fs_i.h>
  22:./include/linux/fs.h **** #include <linux/fcntl.h>
  23:./include/linux/fs.h **** #include <linux/xarray.h>
  24:./include/linux/fs.h **** #include <linux/blkdev.h>
  25:./include/linux/fs.h **** #include <linux/dcache.h>
  26:./include/linux/fs.h **** #include <linux/mm_type.h>
  27:./include/linux/fs.h **** #include <linux/statfs.h>
  28:./include/linux/fs.h **** #include <linux/stat.h>
  29:./include/linux/fs.h **** #include <linux/path.h>
  30:./include/linux/fs.h **** 
  31:./include/linux/fs.h **** 
  32:./include/linux/fs.h **** struct dentry;
  33:./include/linux/fs.h **** struct file;
  34:./include/linux/fs.h **** struct inode;
  35:./include/linux/fs.h **** struct kiocb;
  36:./include/linux/fs.h **** struct file_operations;
  37:./include/linux/fs.h **** struct inode_operations  ;
  38:./include/linux/fs.h **** struct dentry_operations ;
  39:./include/linux/fs.h **** struct writeback_control ;
  40:./include/linux/fs.h **** struct address_space;
  41:./include/linux/fs.h **** struct seq_file ;
  42:./include/linux/fs.h **** struct shrink_control;
  43:./include/linux/fs.h **** struct file_system_type;
  44:./include/linux/fs.h **** struct buffer_head;
  45:./include/linux/fs.h **** 
  46:./include/linux/fs.h **** #define MAY_EXEC		0x00000001
  47:./include/linux/fs.h **** #define MAY_WRITE		0x00000002
  48:./include/linux/fs.h **** #define MAY_READ		0x00000004
  49:./include/linux/fs.h **** #define MAY_APPEND		0x00000008
  50:./include/linux/fs.h **** #define MAY_ACCESS		0x00000010
  51:./include/linux/fs.h **** #define MAY_OPEN		0x00000020
  52:./include/linux/fs.h **** #define MAY_CHDIR		0x00000040
  53:./include/linux/fs.h **** /* called from RCU mode, don't block */
  54:./include/linux/fs.h **** #define MAY_NOT_BLOCK		0x00000080
  55:./include/linux/fs.h **** 
  56:./include/linux/fs.h **** /*
  57:./include/linux/fs.h ****  * flags in file.f_mode.  Note that FMODE_READ and FMODE_WRITE must correspond
  58:./include/linux/fs.h ****  * to O_WRONLY and O_RDWR via the strange trick in do_dentry_open()
  59:./include/linux/fs.h ****  */
ARM GAS  /tmp/ccnTZmpF.s 			page 40


  60:./include/linux/fs.h **** 
  61:./include/linux/fs.h **** /* file is open for reading */
  62:./include/linux/fs.h **** #define FMODE_READ		((__force fmode_t)(1 << 0))
  63:./include/linux/fs.h **** /* file is open for writing */
  64:./include/linux/fs.h **** #define FMODE_WRITE		((__force fmode_t)(1 << 1))
  65:./include/linux/fs.h **** /* file is seekable */
  66:./include/linux/fs.h **** #define FMODE_LSEEK		((__force fmode_t)(1 << 2))
  67:./include/linux/fs.h **** /* file can be accessed using pread */
  68:./include/linux/fs.h **** #define FMODE_PREAD		((__force fmode_t)(1 << 3))
  69:./include/linux/fs.h **** /* file can be accessed using pwrite */
  70:./include/linux/fs.h **** #define FMODE_PWRITE		((__force fmode_t)(1 << 4))
  71:./include/linux/fs.h **** /* File is opened for execution with sys_execve / sys_uselib */
  72:./include/linux/fs.h **** #define FMODE_EXEC		((__force fmode_t)(1 << 5))
  73:./include/linux/fs.h **** /* File writes are restricted (block device specific) */
  74:./include/linux/fs.h **** #define FMODE_WRITE_RESTRICTED	((__force fmode_t)(1 << 6))
  75:./include/linux/fs.h **** /* File supports atomic writes */
  76:./include/linux/fs.h **** #define FMODE_CAN_ATOMIC_WRITE	((__force fmode_t)(1 << 7))
  77:./include/linux/fs.h **** 
  78:./include/linux/fs.h **** /* FMODE_* bit 8 */
  79:./include/linux/fs.h **** 
  80:./include/linux/fs.h **** /* 32bit hashes as llseek() offset (for directories) */
  81:./include/linux/fs.h **** #define FMODE_32BITHASH         ((__force fmode_t)(1 << 9))
  82:./include/linux/fs.h **** /* 64bit hashes as llseek() offset (for directories) */
  83:./include/linux/fs.h **** #define FMODE_64BITHASH         ((__force fmode_t)(1 << 10))
  84:./include/linux/fs.h **** 
  85:./include/linux/fs.h **** /*
  86:./include/linux/fs.h ****  * Don't update ctime and mtime.
  87:./include/linux/fs.h ****  *
  88:./include/linux/fs.h ****  * Currently a special hack for the XFS open_by_handle ioctl, but we'll
  89:./include/linux/fs.h ****  * hopefully graduate it to a proper O_CMTIME flag supported by open(2) soon.
  90:./include/linux/fs.h ****  */
  91:./include/linux/fs.h **** #define FMODE_NOCMTIME		((__force fmode_t)(1 << 11))
  92:./include/linux/fs.h **** 
  93:./include/linux/fs.h **** /* Expect random access pattern */
  94:./include/linux/fs.h **** #define FMODE_RANDOM		((__force fmode_t)(1 << 12))
  95:./include/linux/fs.h **** 
  96:./include/linux/fs.h **** /* FMODE_* bit 13 */
  97:./include/linux/fs.h **** 
  98:./include/linux/fs.h **** /* File is opened with O_PATH; almost nothing can be done with it */
  99:./include/linux/fs.h **** #define FMODE_PATH		((__force fmode_t)(1 << 14))
 100:./include/linux/fs.h **** 
 101:./include/linux/fs.h **** /* File needs atomic accesses to f_pos */
 102:./include/linux/fs.h **** #define FMODE_ATOMIC_POS	((__force fmode_t)(1 << 15))
 103:./include/linux/fs.h **** /* Write access to underlying fs */
 104:./include/linux/fs.h **** #define FMODE_WRITER		((__force fmode_t)(1 << 16))
 105:./include/linux/fs.h **** /* Has read method(s) */
 106:./include/linux/fs.h **** #define FMODE_CAN_READ          ((__force fmode_t)(1 << 17))
 107:./include/linux/fs.h **** /* Has write method(s) */
 108:./include/linux/fs.h **** #define FMODE_CAN_WRITE         ((__force fmode_t)(1 << 18))
 109:./include/linux/fs.h **** 
 110:./include/linux/fs.h **** #define FMODE_OPENED		((__force fmode_t)(1 << 19))
 111:./include/linux/fs.h **** #define FMODE_CREATED		((__force fmode_t)(1 << 20))
 112:./include/linux/fs.h **** 
 113:./include/linux/fs.h **** /* File is stream-like */
 114:./include/linux/fs.h **** #define FMODE_STREAM		((__force fmode_t)(1 << 21))
 115:./include/linux/fs.h **** 
 116:./include/linux/fs.h **** /* File supports DIRECT IO */
ARM GAS  /tmp/ccnTZmpF.s 			page 41


 117:./include/linux/fs.h **** #define	FMODE_CAN_ODIRECT	((__force fmode_t)(1 << 22))
 118:./include/linux/fs.h **** 
 119:./include/linux/fs.h **** #define	FMODE_NOREUSE		((__force fmode_t)(1 << 23))
 120:./include/linux/fs.h **** 
 121:./include/linux/fs.h **** /* FMODE_* bit 24 */
 122:./include/linux/fs.h **** 
 123:./include/linux/fs.h **** /* File is embedded in backing_file object */
 124:./include/linux/fs.h **** #define FMODE_BACKING		((__force fmode_t)(1 << 25))
 125:./include/linux/fs.h **** 
 126:./include/linux/fs.h **** /* File was opened by fanotify and shouldn't generate fanotify events */
 127:./include/linux/fs.h **** #define FMODE_NONOTIFY		((__force fmode_t)(1 << 26))
 128:./include/linux/fs.h **** 
 129:./include/linux/fs.h **** /* File is capable of returning -EAGAIN if I/O will block */
 130:./include/linux/fs.h **** #define FMODE_NOWAIT		((__force fmode_t)(1 << 27))
 131:./include/linux/fs.h **** 
 132:./include/linux/fs.h **** /* File represents mount that needs unmounting */
 133:./include/linux/fs.h **** #define FMODE_NEED_UNMOUNT	((__force fmode_t)(1 << 28))
 134:./include/linux/fs.h **** 
 135:./include/linux/fs.h **** /* File does not contribute to nr_files count */
 136:./include/linux/fs.h **** #define FMODE_NOACCOUNT		((__force fmode_t)(1 << 29))
 137:./include/linux/fs.h **** 
 138:./include/linux/fs.h **** /*
 139:./include/linux/fs.h ****  * Attribute flags.  These should be or-ed together to figure out what
 140:./include/linux/fs.h ****  * has been changed!
 141:./include/linux/fs.h ****  */
 142:./include/linux/fs.h **** #define ATTR_MODE	(1 << 0)
 143:./include/linux/fs.h **** #define ATTR_UID	(1 << 1)
 144:./include/linux/fs.h **** #define ATTR_GID	(1 << 2)
 145:./include/linux/fs.h **** #define ATTR_SIZE	(1 << 3)
 146:./include/linux/fs.h **** #define ATTR_ATIME	(1 << 4)
 147:./include/linux/fs.h **** #define ATTR_MTIME	(1 << 5)
 148:./include/linux/fs.h **** #define ATTR_CTIME	(1 << 6)
 149:./include/linux/fs.h **** #define ATTR_ATIME_SET	(1 << 7)
 150:./include/linux/fs.h **** #define ATTR_MTIME_SET	(1 << 8)
 151:./include/linux/fs.h **** #define ATTR_FORCE	(1 << 9) /* Not a change, but a change it */
 152:./include/linux/fs.h **** #define ATTR_KILL_SUID	(1 << 11)
 153:./include/linux/fs.h **** #define ATTR_KILL_SGID	(1 << 12)
 154:./include/linux/fs.h **** #define ATTR_FILE	(1 << 13)
 155:./include/linux/fs.h **** #define ATTR_KILL_PRIV	(1 << 14)
 156:./include/linux/fs.h **** #define ATTR_OPEN	(1 << 15) /* Truncating from open(O_TRUNC) */
 157:./include/linux/fs.h **** #define ATTR_TIMES_SET	(1 << 16)
 158:./include/linux/fs.h **** #define ATTR_TOUCH	(1 << 17)
 159:./include/linux/fs.h **** #define ATTR_DELEG	(1 << 18) /* Delegated attrs. Don't break write delegations */
 160:./include/linux/fs.h **** 
 161:./include/linux/fs.h **** /*
 162:./include/linux/fs.h ****  * Whiteout is represented by a char device.  The following constants define the
 163:./include/linux/fs.h ****  * mode and device number to use.
 164:./include/linux/fs.h ****  */
 165:./include/linux/fs.h **** #define WHITEOUT_MODE 0
 166:./include/linux/fs.h **** #define WHITEOUT_DEV 0
 167:./include/linux/fs.h **** 
 168:./include/linux/fs.h **** 
 169:./include/linux/fs.h **** 
 170:./include/linux/fs.h **** /********************************************************
 171:./include/linux/fs.h ****  * 														*
 172:./include/linux/fs.h ****  * 			   		     iattr  						*
 173:./include/linux/fs.h ****  *														* 
ARM GAS  /tmp/ccnTZmpF.s 			page 42


 174:./include/linux/fs.h **** *********************************************************/
 175:./include/linux/fs.h **** 
 176:./include/linux/fs.h **** 
 177:./include/linux/fs.h **** struct iattr {
 178:./include/linux/fs.h **** 	unsigned int	ia_valid;
 179:./include/linux/fs.h **** 	umode_t		ia_mode;
 180:./include/linux/fs.h **** 	union {
 181:./include/linux/fs.h **** 		kuid_t		ia_uid;
 182:./include/linux/fs.h **** 		vfsuid_t	ia_vfsuid;
 183:./include/linux/fs.h **** 	};
 184:./include/linux/fs.h **** 	union {
 185:./include/linux/fs.h **** 		kgid_t		ia_gid;
 186:./include/linux/fs.h **** 		vfsgid_t	ia_vfsgid;
 187:./include/linux/fs.h **** 	};
 188:./include/linux/fs.h **** 	loff_t		ia_size;
 189:./include/linux/fs.h **** 	struct timespec64 ia_atime;
 190:./include/linux/fs.h **** 	struct timespec64 ia_mtime;
 191:./include/linux/fs.h **** 	struct timespec64 ia_ctime;
 192:./include/linux/fs.h **** 	struct file	*ia_file;
 193:./include/linux/fs.h **** };
 194:./include/linux/fs.h **** 
 195:./include/linux/fs.h **** /********************************************************
 196:./include/linux/fs.h ****  * 														*
 197:./include/linux/fs.h ****  * 			     address_space  						*
 198:./include/linux/fs.h ****  *														* 
 199:./include/linux/fs.h **** *********************************************************/
 200:./include/linux/fs.h **** struct file_ra_state {
 201:./include/linux/fs.h **** 	pgoff_t start;
 202:./include/linux/fs.h **** 	unsigned int size;
 203:./include/linux/fs.h **** 	unsigned int async_size;
 204:./include/linux/fs.h **** 	unsigned int ra_pages;
 205:./include/linux/fs.h **** 	unsigned int mmap_miss;
 206:./include/linux/fs.h **** 	loff_t prev_pos;
 207:./include/linux/fs.h **** };
 208:./include/linux/fs.h **** 
 209:./include/linux/fs.h **** struct iov_iter {
 210:./include/linux/fs.h **** 	u8 iter_type;
 211:./include/linux/fs.h **** 	bool nofault;
 212:./include/linux/fs.h **** 	bool data_source;
 213:./include/linux/fs.h **** 	size_t iov_offset;
 214:./include/linux/fs.h **** 	/*
 215:./include/linux/fs.h **** 	 * Hack alert: overlay ubuf_iovec with iovec + count, so
 216:./include/linux/fs.h **** 	 * that the members resolve correctly regardless of the type
 217:./include/linux/fs.h **** 	 * of iterator used. This means that you can use:
 218:./include/linux/fs.h **** 	 *
 219:./include/linux/fs.h **** 	 * &iter->__ubuf_iovec or iter->__iov
 220:./include/linux/fs.h **** 	 *
 221:./include/linux/fs.h **** 	 * interchangably for the user_backed cases, hence simplifying
 222:./include/linux/fs.h **** 	 * some of the cases that need to deal with both.
 223:./include/linux/fs.h **** 	 */
 224:./include/linux/fs.h **** 	union {
 225:./include/linux/fs.h **** 		/*
 226:./include/linux/fs.h **** 		 * This really should be a const, but we cannot do that without
 227:./include/linux/fs.h **** 		 * also modifying any of the zero-filling iter init functions.
 228:./include/linux/fs.h **** 		 * Leave it non-const for now, but it should be treated as such.
 229:./include/linux/fs.h **** 		 */
 230:./include/linux/fs.h **** 		struct iovec __ubuf_iovec;
ARM GAS  /tmp/ccnTZmpF.s 			page 43


 231:./include/linux/fs.h **** 		struct {
 232:./include/linux/fs.h **** 			union {
 233:./include/linux/fs.h **** 				/* use iter_iov() to get the current vec */
 234:./include/linux/fs.h **** 				const struct iovec *__iov;
 235:./include/linux/fs.h **** 				const struct kvec *kvec;
 236:./include/linux/fs.h **** 				const struct bio_vec *bvec;
 237:./include/linux/fs.h **** 				const struct folio_queue *folioq;
 238:./include/linux/fs.h **** 				struct xarray *xarray;
 239:./include/linux/fs.h **** 				void __user *ubuf;
 240:./include/linux/fs.h **** 			};
 241:./include/linux/fs.h **** 			size_t count;
 242:./include/linux/fs.h **** 		};
 243:./include/linux/fs.h **** 	};
 244:./include/linux/fs.h **** 	union {
 245:./include/linux/fs.h **** 		unsigned long nr_segs;
 246:./include/linux/fs.h **** 		u8 folioq_slot;
 247:./include/linux/fs.h **** 		loff_t xarray_start;
 248:./include/linux/fs.h **** 	};
 249:./include/linux/fs.h **** };
 250:./include/linux/fs.h **** 
 251:./include/linux/fs.h **** struct address_space_operations {
 252:./include/linux/fs.h **** 	int (*writepage)(struct page *page, struct writeback_control *wbc);
 253:./include/linux/fs.h **** 	int (*read_folio)(struct file *, struct folio *);
 254:./include/linux/fs.h **** 
 255:./include/linux/fs.h **** 	/* Write back some dirty pages from this mapping. */
 256:./include/linux/fs.h **** 	int (*writepages)(struct address_space *, struct writeback_control *);
 257:./include/linux/fs.h **** 
 258:./include/linux/fs.h **** 	/* Mark a folio dirty.  Return true if this dirtied it */
 259:./include/linux/fs.h **** 	bool (*dirty_folio)(struct address_space *, struct folio *);
 260:./include/linux/fs.h **** 
 261:./include/linux/fs.h **** 	void (*readahead)(struct readahead_control *);
 262:./include/linux/fs.h **** 
 263:./include/linux/fs.h **** 	int (*write_begin)(struct file *, struct address_space *mapping,
 264:./include/linux/fs.h **** 				loff_t pos, unsigned len,
 265:./include/linux/fs.h **** 				struct folio **foliop, void **fsdata);
 266:./include/linux/fs.h **** 	int (*write_end)(struct file *, struct address_space *mapping,
 267:./include/linux/fs.h **** 				loff_t pos, unsigned len, unsigned copied,
 268:./include/linux/fs.h **** 				struct folio *folio, void *fsdata);
 269:./include/linux/fs.h **** 
 270:./include/linux/fs.h **** 	/* Unfortunately this kludge is needed for FIBMAP. Don't use it */
 271:./include/linux/fs.h **** 	sector_t (*bmap)(struct address_space *, sector_t);
 272:./include/linux/fs.h **** 	void (*invalidate_folio) (struct folio *, size_t offset, size_t len);
 273:./include/linux/fs.h **** 	bool (*release_folio)(struct folio *, gfp_t);
 274:./include/linux/fs.h **** 	void (*free_folio)(struct folio *folio);
 275:./include/linux/fs.h **** 	ssize_t (*direct_IO)(struct kiocb *, struct iov_iter *iter);
 276:./include/linux/fs.h **** 	/*
 277:./include/linux/fs.h **** 	 * migrate the contents of a folio to the specified target. If
 278:./include/linux/fs.h **** 	 * migrate_mode is MIGRATE_ASYNC, it must not block.
 279:./include/linux/fs.h **** 	 */
 280:./include/linux/fs.h **** 	int (*migrate_folio)(struct address_space *, struct folio *dst,
 281:./include/linux/fs.h **** 			struct folio *src, enum migrate_mode);
 282:./include/linux/fs.h **** 	int (*launder_folio)(struct folio *);
 283:./include/linux/fs.h **** 	bool (*is_partially_uptodate) (struct folio *, size_t from,
 284:./include/linux/fs.h **** 			size_t count);
 285:./include/linux/fs.h **** 	void (*is_dirty_writeback) (struct folio *, bool *dirty, bool *wb);
 286:./include/linux/fs.h **** 	int (*error_remove_folio)(struct address_space *, struct folio *);
 287:./include/linux/fs.h **** 
ARM GAS  /tmp/ccnTZmpF.s 			page 44


 288:./include/linux/fs.h **** 	/* swapfile support */
 289:./include/linux/fs.h **** 	// int (*swap_activate)(struct swap_info_struct *sis, struct file *file,
 290:./include/linux/fs.h **** 	// 			sector_t *span);
 291:./include/linux/fs.h **** 	// void (*swap_deactivate)(struct file *file);
 292:./include/linux/fs.h **** 	// int (*swap_rw)(struct kiocb *iocb, struct iov_iter *iter);
 293:./include/linux/fs.h **** };
 294:./include/linux/fs.h **** 
 295:./include/linux/fs.h ****  struct address_space {
 296:./include/linux/fs.h **** 	struct inode		*host;
 297:./include/linux/fs.h **** 	struct xarray		i_pages;
 298:./include/linux/fs.h **** 	gfp_t			gfp_mask;
 299:./include/linux/fs.h **** 	atomic_t		i_mmap_writable;
 300:./include/linux/fs.h **** #ifdef CONFIG_READ_ONLY_THP_FOR_FS
 301:./include/linux/fs.h **** 	/* number of thp, only for non-shmem files */
 302:./include/linux/fs.h **** 	atomic_t		nr_thps;
 303:./include/linux/fs.h **** #endif
 304:./include/linux/fs.h **** 	struct rb_root_cached	i_mmap;
 305:./include/linux/fs.h **** 	unsigned long		nrpages;
 306:./include/linux/fs.h **** 	pgoff_t			writeback_index;
 307:./include/linux/fs.h **** 	const struct address_space_operations *a_ops;
 308:./include/linux/fs.h **** 	unsigned long		flags;
 309:./include/linux/fs.h **** 	errseq_t		wb_err;
 310:./include/linux/fs.h **** 	spinlock_t		i_private_lock;
 311:./include/linux/fs.h **** 	struct list_head	i_private_list;
 312:./include/linux/fs.h **** 	void *			i_private_data;
 313:./include/linux/fs.h **** } __attribute__((aligned(sizeof(long)))) __randomize_layout;
 314:./include/linux/fs.h **** 
 315:./include/linux/fs.h **** /********************************************************
 316:./include/linux/fs.h ****  * 														*
 317:./include/linux/fs.h ****  * 			   		  file struct						*
 318:./include/linux/fs.h ****  *														* 
 319:./include/linux/fs.h **** *********************************************************/
 320:./include/linux/fs.h **** 
 321:./include/linux/fs.h **** struct file {
 322:./include/linux/fs.h **** 	struct mutex					f_ref;
 323:./include/linux/fs.h **** 	struct mutex					f_lock;
 324:./include/linux/fs.h **** 	fmode_t							f_mode;
 325:./include/linux/fs.h **** 	const struct file_operations	*f_op;                            
 326:./include/linux/fs.h **** 	//	struct address_space			*f_mapping;
 327:./include/linux/fs.h **** 	void							*private_data;
 328:./include/linux/fs.h **** 	struct inode					*f_inode;
 329:./include/linux/fs.h **** 	unsigned int					f_flags;
 330:./include/linux/fs.h **** 	unsigned int					f_iocb_flags;
 331:./include/linux/fs.h **** 	char *						    f_path;
 332:./include/linux/fs.h **** 	union {
 333:./include/linux/fs.h **** 		struct mutex				f_pos_lock;
 334:./include/linux/fs.h **** 		u64							f_pipe;
 335:./include/linux/fs.h **** 	};
 336:./include/linux/fs.h **** 	loff_t							f_pos;
 337:./include/linux/fs.h **** 	void *							f_private;
 338:./include/linux/fs.h **** 	spinlock_t                      f_slock;
 339:./include/linux/fs.h **** }__attribute__((aligned(sizeof(long)))) __randomize_layout;	
 340:./include/linux/fs.h **** 
 341:./include/linux/fs.h **** 
 342:./include/linux/fs.h **** /********************************************************
 343:./include/linux/fs.h ****  * 														*
 344:./include/linux/fs.h ****  * 			   		  inode struct						*
ARM GAS  /tmp/ccnTZmpF.s 			page 45


 345:./include/linux/fs.h ****  *														* 
 346:./include/linux/fs.h **** *********************************************************/
 347:./include/linux/fs.h **** 
 348:./include/linux/fs.h **** #define IOP_FASTPERM	0x0001
 349:./include/linux/fs.h **** #define IOP_LOOKUP	0x0002
 350:./include/linux/fs.h **** #define IOP_NOFOLLOW	0x0004
 351:./include/linux/fs.h **** #define IOP_XATTR	0x0008
 352:./include/linux/fs.h **** #define IOP_DEFAULT_READLINK	0x0010
 353:./include/linux/fs.h **** #define IOP_MGTIME	0x0020
 354:./include/linux/fs.h **** 
 355:./include/linux/fs.h **** /*
 356:./include/linux/fs.h ****  * Keep mostly read-only and often accessed (especially for
 357:./include/linux/fs.h ****  * the RCU path lookup and 'stat' data) fields at the beginning
 358:./include/linux/fs.h ****  * of the 'struct inode'
 359:./include/linux/fs.h ****  */
 360:./include/linux/fs.h **** 
 361:./include/linux/fs.h **** struct inode {
 362:./include/linux/fs.h **** 	umode_t            i_mode;   
 363:./include/linux/fs.h **** 
 364:./include/linux/fs.h **** 	unsigned short     		i_opflags;     /* inode IOP */
 365:./include/linux/fs.h **** 	kuid_t             i_uid;         /* ID */
 366:./include/linux/fs.h **** 	kgid_t             i_gid;         /* ID */
 367:./include/linux/fs.h **** 
 368:./include/linux/fs.h **** 	unsigned int       i_flags;    
 369:./include/linux/fs.h **** 	const struct inode_operations *i_op;     
 370:./include/linux/fs.h **** 	struct super_block            *i_sb;       
 371:./include/linux/fs.h **** 	struct address_space	      *i_mapping;   
 372:./include/linux/fs.h **** 	dev_t             i_rdev;       
 373:./include/linux/fs.h **** 	loff_t            i_size;        
 374:./include/linux/fs.h **** 	time64_t          i_atime_sec;   
 375:./include/linux/fs.h **** 	time64_t          i_mtime_sec;   
 376:./include/linux/fs.h **** 	time64_t          i_ctime_sec;    
 377:./include/linux/fs.h **** 	u32               i_atime_nsec;   
 378:./include/linux/fs.h **** 	u32               i_mtime_nsec;   
 379:./include/linux/fs.h **** 	u32               i_ctime_nsec;  
 380:./include/linux/fs.h **** 	unsigned short    i_bytes;
 381:./include/linux/fs.h **** 	u32			i_state;
 382:./include/linux/fs.h **** 	struct hlist_node	i_hash;
 383:./include/linux/fs.h **** 	struct list_head	i_io_list;	/* backing dev IO list */
 384:./include/linux/fs.h **** 	spinlock_t	        i_lock;	/* i_blocks, i_bytes, maybe i_size */
 385:./include/linux/fs.h **** 	struct list_head	i_sb_list;
 386:./include/linux/fs.h **** 	struct list_head	i_dentry;
 387:./include/linux/fs.h **** 	atomic_t		i_count;
 388:./include/linux/fs.h **** 	const struct file_operations	*i_fop;	/* former ->i_op->default_file_ops */
 389:./include/linux/fs.h **** 	void (*free_inode)(struct inode *);
 390:./include/linux/fs.h **** 	void			*i_private; /* fs or device private pointer */
 391:./include/linux/fs.h **** }__attribute__((aligned(sizeof(long)))) __randomize_layout;
 392:./include/linux/fs.h **** 
 393:./include/linux/fs.h **** /********************************************************
 394:./include/linux/fs.h ****  * 														*
 395:./include/linux/fs.h ****  * 			   inode inode_operations					*
 396:./include/linux/fs.h ****  *														* 
 397:./include/linux/fs.h **** *********************************************************/
 398:./include/linux/fs.h **** 
 399:./include/linux/fs.h **** struct mnt_idmap {void * no_data;};
 400:./include/linux/fs.h **** 
 401:./include/linux/fs.h **** struct inode_operations {
ARM GAS  /tmp/ccnTZmpF.s 			page 46


 402:./include/linux/fs.h **** 	struct dentry  	 *(*lookup) 	   (struct inode *    ,struct dentry *, unsigned int);
 403:./include/linux/fs.h **** 	const char 	     *(*get_link) 	   (struct dentry *   , struct inode *, struct delayed_call *);
 404:./include/linux/fs.h **** 	int 			  (*permission)    (struct mnt_idmap *, struct inode *, int);
 405:./include/linux/fs.h **** 	struct posix_acl *(*get_inode_acl) (struct inode *	  , int, bool);
 406:./include/linux/fs.h **** 	int 			  (*readlink) 	   (struct dentry *   , char __user * ,int);
 407:./include/linux/fs.h **** 	int 			  (*create) 	   (struct mnt_idmap *, struct inode *,struct dentry *,umode_t, bool);
 408:./include/linux/fs.h **** 	int 			  (*link) 		   (struct dentry *   ,struct inode * ,struct dentry *);
 409:./include/linux/fs.h **** 	int 			  (*unlink) 	   (struct inode *	  ,struct dentry * );
 410:./include/linux/fs.h **** 	int 			  (*symlink) 	   (struct mnt_idmap *, struct inode *,struct dentry *,const char *);
 411:./include/linux/fs.h **** 	int 			  (*mkdir) 		   (struct mnt_idmap *, struct inode *,struct dentry *,umode_t);
 412:./include/linux/fs.h **** 	int 			  (*rmdir)		   (struct inode *	  ,struct dentry * );
 413:./include/linux/fs.h **** 	int 			  (*mknod) 		   (struct mnt_idmap *, struct inode *,struct dentry *,umode_t,dev_t);
 414:./include/linux/fs.h **** 	int 			  (*rename) 	   (struct mnt_idmap *, struct inode *, struct dentry *,struct inode *, struct
 415:./include/linux/fs.h **** 	int 			  (*setattr)	   (struct mnt_idmap *, struct dentry*, struct iattr *);
 416:./include/linux/fs.h **** 	int 			  (*getattr) 	   (struct mnt_idmap *, const struct path *,struct kstat *, u32, unsigned int
 417:./include/linux/fs.h **** 	ssize_t 		  (*listxattr) 	   (struct dentry *	  , char *		  , size_t);
 418:./include/linux/fs.h **** 	int 			  (*fiemap)		   (struct inode *	  , struct fiemap_extent_info *, u64 start,u64 len);
 419:./include/linux/fs.h **** 	int 			  (*update_time)   (struct inode *    , int);
 420:./include/linux/fs.h **** 	int 			  (*atomic_open)   (struct inode *    , struct dentry*,struct file *, unsigned open_flag,um
 421:./include/linux/fs.h **** 	int 			  (*tmpfile)	   (struct mnt_idmap *, struct inode *,struct file *, umode_t);
 422:./include/linux/fs.h **** 	struct posix_acl *(*get_acl)	   (struct mnt_idmap *, struct dentry*,int);
 423:./include/linux/fs.h **** 	int 			  (*set_acl)	   (struct mnt_idmap *, struct dentry*,struct posix_acl *, int);
 424:./include/linux/fs.h **** 	int 			  (*fileattr_set)  (struct mnt_idmap *idmap,struct dentry *dentry, struct fileattr *fa);
 425:./include/linux/fs.h **** 	int 			  (*fileattr_get)  (struct dentry *dentry  , struct fileattr *fa);
 426:./include/linux/fs.h **** 	struct offset_ctx*(*get_offset_ctx)(struct inode *inode);
 427:./include/linux/fs.h **** };
 428:./include/linux/fs.h **** 
 429:./include/linux/fs.h **** /********************************************************
 430:./include/linux/fs.h ****  * 														*
 431:./include/linux/fs.h ****  * 			       file_operations						*
 432:./include/linux/fs.h ****  *														* 
 433:./include/linux/fs.h **** *********************************************************/
 434:./include/linux/fs.h **** 
 435:./include/linux/fs.h **** struct kiocb {
 436:./include/linux/fs.h **** 	struct file		*ki_filp;
 437:./include/linux/fs.h **** 	loff_t			ki_pos;
 438:./include/linux/fs.h **** 	void (*ki_complete)(struct kiocb *iocb, long ret);
 439:./include/linux/fs.h **** 	void			*private;
 440:./include/linux/fs.h **** 	int			ki_flags;
 441:./include/linux/fs.h **** 	u16			ki_ioprio; /* See linux/ioprio.h */
 442:./include/linux/fs.h **** 	union {
 443:./include/linux/fs.h **** 	//	struct wait_page_queue	*ki_waitq;
 444:./include/linux/fs.h **** 		ssize_t (*dio_complete)(void *data);
 445:./include/linux/fs.h **** 	};
 446:./include/linux/fs.h **** };
 447:./include/linux/fs.h **** 
 448:./include/linux/fs.h **** struct dir_context;
 449:./include/linux/fs.h **** typedef bool (*filldir_t)(struct dir_context *, const char *, int, loff_t, u64,
 450:./include/linux/fs.h **** 			 unsigned);
 451:./include/linux/fs.h **** 
 452:./include/linux/fs.h **** struct dir_context {
 453:./include/linux/fs.h **** 	filldir_t actor;
 454:./include/linux/fs.h **** 	loff_t pos;
 455:./include/linux/fs.h **** };
 456:./include/linux/fs.h **** 
 457:./include/linux/fs.h **** 
 458:./include/linux/fs.h **** 
ARM GAS  /tmp/ccnTZmpF.s 			page 47


 459:./include/linux/fs.h **** 
 460:./include/linux/fs.h **** typedef void (*poll_queue_proc)(struct file *, wait_queue_head_t *, struct poll_table_struct *);
 461:./include/linux/fs.h **** 
 462:./include/linux/fs.h **** typedef struct poll_table_struct {
 463:./include/linux/fs.h **** 	poll_queue_proc _qproc;
 464:./include/linux/fs.h **** 	__poll_t _key;
 465:./include/linux/fs.h **** } poll_table;
 466:./include/linux/fs.h **** 
 467:./include/linux/fs.h **** typedef unsigned int __bitwise fop_flags_t;
 468:./include/linux/fs.h **** typedef void *fl_owner_t;
 469:./include/linux/fs.h **** 
 470:./include/linux/fs.h **** struct file_operations {
 471:./include/linux/fs.h **** 	void *owner;
 472:./include/linux/fs.h **** 	fop_flags_t fop_flags;
 473:./include/linux/fs.h **** 	loff_t (*llseek) (struct file *, loff_t, int);
 474:./include/linux/fs.h **** 	ssize_t (*read) (struct file *, char __user *, size_t, loff_t *);
 475:./include/linux/fs.h **** 	ssize_t (*write) (struct file *, const char __user *, size_t, loff_t *);
 476:./include/linux/fs.h **** ssize_t (*read_iter) (struct kiocb *, struct iov_iter *);
 477:./include/linux/fs.h **** ssize_t (*write_iter) (struct kiocb *, struct iov_iter *);
 478:./include/linux/fs.h **** 	int (*iopoll)(struct kiocb *kiocb, struct io_comp_batch *,unsigned int flags);
 479:./include/linux/fs.h **** 	int (*iterate_shared) (struct file *, struct dir_context *);
 480:./include/linux/fs.h **** 	__poll_t (*poll) (struct file *, struct poll_table_struct *);
 481:./include/linux/fs.h **** 	long (*unlocked_ioctl) (struct file *, unsigned int, unsigned long);
 482:./include/linux/fs.h **** 	long (*compat_ioctl) (struct file *, unsigned int, unsigned long);
 483:./include/linux/fs.h **** int (*mmap) (struct file *, struct vm_area_struct *);
 484:./include/linux/fs.h **** 	int (*open) (struct inode *, struct file *);
 485:./include/linux/fs.h **** 	int (*flush) (struct file *, fl_owner_t id);
 486:./include/linux/fs.h **** 	int (*release) (struct inode *, struct file *);
 487:./include/linux/fs.h **** 	int (*fsync) (struct file *, loff_t, loff_t, int datasync);
 488:./include/linux/fs.h **** 	int (*fasync) (int, struct file *, int);
 489:./include/linux/fs.h **** 	int (*lock) (struct file *, int, struct file_lock *);
 490:./include/linux/fs.h **** 	unsigned long (*get_unmapped_area)(struct file *, unsigned long, unsigned long, unsigned long, uns
 491:./include/linux/fs.h **** 	int (*check_flags)(int);
 492:./include/linux/fs.h **** 	int (*flock) (struct file *, int, struct file_lock *);
 493:./include/linux/fs.h **** ssize_t (*splice_write)(struct pipe_inode_info *, struct file *, loff_t *, size_t, unsigned int);
 494:./include/linux/fs.h **** ssize_t (*splice_read)(struct file *, loff_t *, struct pipe_inode_info *, size_t, unsigned int);
 495:./include/linux/fs.h **** 	void (*splice_eof)(struct file *file);
 496:./include/linux/fs.h **** 	int (*setlease)(struct file *, int, struct file_lease **, void **);
 497:./include/linux/fs.h **** 	long (*fallocate)(struct file *file, int mode, loff_t offset,loff_t len);
 498:./include/linux/fs.h **** 	void (*show_fdinfo)(struct seq_file *m, struct file *f);
 499:./include/linux/fs.h **** #ifndef CONFIG_MMU
 500:./include/linux/fs.h **** 	unsigned (*mmap_capabilities)(struct file *);
 501:./include/linux/fs.h **** #endif
 502:./include/linux/fs.h **** 	ssize_t (*copy_file_range)(struct file *, loff_t, struct file *,loff_t, size_t, unsigned int);
 503:./include/linux/fs.h **** 	loff_t (*remap_file_range)(struct file *file_in, loff_t pos_in,struct file *file_out, loff_t pos_o
 504:./include/linux/fs.h **** 	int (*fadvise)(struct file *, loff_t, loff_t, int);
 505:./include/linux/fs.h **** 	int (*uring_cmd)(struct io_uring_cmd *ioucmd, unsigned int issue_flags);
 506:./include/linux/fs.h **** 	int (*uring_cmd_iopoll)(struct io_uring_cmd *, struct io_comp_batch *,unsigned int poll_flags);
 507:./include/linux/fs.h **** };
 508:./include/linux/fs.h **** 
 509:./include/linux/fs.h **** 
 510:./include/linux/fs.h **** /********************************************************
 511:./include/linux/fs.h ****  * 														*
 512:./include/linux/fs.h ****  * 			       super_block							*
 513:./include/linux/fs.h ****  *														* 
 514:./include/linux/fs.h **** *********************************************************/
 515:./include/linux/fs.h **** 
ARM GAS  /tmp/ccnTZmpF.s 			page 48


 516:./include/linux/fs.h **** struct rcu_sync {
 517:./include/linux/fs.h **** 	int			gp_state;
 518:./include/linux/fs.h **** 	int			gp_count;
 519:./include/linux/fs.h **** 	wait_queue_head_t	gp_wait;
 520:./include/linux/fs.h **** 
 521:./include/linux/fs.h **** 	struct rcu_head		cb_head;
 522:./include/linux/fs.h **** };
 523:./include/linux/fs.h **** 
 524:./include/linux/fs.h **** struct rcuwait {
 525:./include/linux/fs.h **** 	//struct task_struct __rcu *task;
 526:./include/linux/fs.h **** };
 527:./include/linux/fs.h **** 
 528:./include/linux/fs.h **** struct percpu_rw_semaphore {
 529:./include/linux/fs.h **** 	struct rcu_sync		rss;
 530:./include/linux/fs.h **** 	unsigned int __percpu	*read_count;
 531:./include/linux/fs.h **** 	struct rcuwait		writer;
 532:./include/linux/fs.h **** 	wait_queue_head_t	waiters;
 533:./include/linux/fs.h **** 	atomic_t		block;
 534:./include/linux/fs.h **** #ifdef CONFIG_DEBUG_LOCK_ALLOC
 535:./include/linux/fs.h **** 	struct lockdep_map	dep_map;
 536:./include/linux/fs.h **** #endif
 537:./include/linux/fs.h **** };
 538:./include/linux/fs.h **** 
 539:./include/linux/fs.h **** /*
 540:./include/linux/fs.h ****  * sb->s_flags.  Note that these mirror the equivalent MS_* flags where
 541:./include/linux/fs.h ****  * represented in both.
 542:./include/linux/fs.h ****  */
 543:./include/linux/fs.h **** #define SB_RDONLY       BIT(0)	/* Mount read-only */
 544:./include/linux/fs.h **** #define SB_NOSUID       BIT(1)	/* Ignore suid and sgid bits */
 545:./include/linux/fs.h **** #define SB_NODEV        BIT(2)	/* Disallow access to device special files */
 546:./include/linux/fs.h **** #define SB_NOEXEC       BIT(3)	/* Disallow program execution */
 547:./include/linux/fs.h **** #define SB_SYNCHRONOUS  BIT(4)	/* Writes are synced at once */
 548:./include/linux/fs.h **** #define SB_MANDLOCK     BIT(6)	/* Allow mandatory locks on an FS */
 549:./include/linux/fs.h **** #define SB_DIRSYNC      BIT(7)	/* Directory modifications are synchronous */
 550:./include/linux/fs.h **** #define SB_NOATIME      BIT(10)	/* Do not update access times. */
 551:./include/linux/fs.h **** #define SB_NODIRATIME   BIT(11)	/* Do not update directory access times */
 552:./include/linux/fs.h **** #define SB_SILENT       BIT(15)
 553:./include/linux/fs.h **** #define SB_POSIXACL     BIT(16)	/* Supports POSIX ACLs */
 554:./include/linux/fs.h **** #define SB_INLINECRYPT  BIT(17)	/* Use blk-crypto for encrypted files */
 555:./include/linux/fs.h **** #define SB_KERNMOUNT    BIT(22)	/* this is a kern_mount call */
 556:./include/linux/fs.h **** #define SB_I_VERSION    BIT(23)	/* Update inode I_version field */
 557:./include/linux/fs.h **** #define SB_LAZYTIME     BIT(25)	/* Update the on-disk [acm]times lazily */
 558:./include/linux/fs.h **** 
 559:./include/linux/fs.h **** /* These sb flags are internal to the kernel */
 560:./include/linux/fs.h **** #define SB_DEAD         BIT(21)
 561:./include/linux/fs.h **** #define SB_DYING        BIT(24)
 562:./include/linux/fs.h **** #define SB_SUBMOUNT     BIT(26)
 563:./include/linux/fs.h **** #define SB_FORCE        BIT(27)
 564:./include/linux/fs.h **** #define SB_NOSEC        BIT(28)
 565:./include/linux/fs.h **** #define SB_BORN         BIT(29)
 566:./include/linux/fs.h **** #define SB_ACTIVE       BIT(30)
 567:./include/linux/fs.h **** #define SB_NOUSER       BIT(31)
 568:./include/linux/fs.h **** 
 569:./include/linux/fs.h **** /* These flags relate to encoding and casefolding */
 570:./include/linux/fs.h **** #define SB_ENC_STRICT_MODE_FL	(1 << 0)
 571:./include/linux/fs.h **** 
 572:./include/linux/fs.h **** #define sb_has_strict_encoding(sb) \
ARM GAS  /tmp/ccnTZmpF.s 			page 49


 573:./include/linux/fs.h **** 	(sb->s_encoding_flags & SB_ENC_STRICT_MODE_FL)
 574:./include/linux/fs.h **** 
 575:./include/linux/fs.h **** /*
 576:./include/linux/fs.h ****  *	Umount options
 577:./include/linux/fs.h ****  */
 578:./include/linux/fs.h **** 
 579:./include/linux/fs.h **** #define MNT_FORCE	0x00000001	/* Attempt to forcibily umount */
 580:./include/linux/fs.h **** #define MNT_DETACH	0x00000002	/* Just detach from the tree */
 581:./include/linux/fs.h **** #define MNT_EXPIRE	0x00000004	/* Mark for expiry */
 582:./include/linux/fs.h **** #define UMOUNT_NOFOLLOW	0x00000008	/* Don't follow symlink on umount */
 583:./include/linux/fs.h **** #define UMOUNT_UNUSED	0x80000000	/* Flag guaranteed to be unused */
 584:./include/linux/fs.h **** 
 585:./include/linux/fs.h **** /* sb->s_iflags */
 586:./include/linux/fs.h **** #define SB_I_CGROUPWB	0x00000001	/* cgroup-aware writeback enabled */
 587:./include/linux/fs.h **** #define SB_I_NOEXEC	0x00000002	/* Ignore executables on this fs */
 588:./include/linux/fs.h **** #define SB_I_NODEV	0x00000004	/* Ignore devices on this fs */
 589:./include/linux/fs.h **** #define SB_I_STABLE_WRITES 0x00000008	/* don't modify blks until WB is done */
 590:./include/linux/fs.h **** 
 591:./include/linux/fs.h **** /* sb->s_iflags to limit user namespace mounts */
 592:./include/linux/fs.h **** #define SB_I_USERNS_VISIBLE		0x00000010 /* fstype already mounted */
 593:./include/linux/fs.h **** #define SB_I_IMA_UNVERIFIABLE_SIGNATURE	0x00000020
 594:./include/linux/fs.h **** #define SB_I_UNTRUSTED_MOUNTER		0x00000040
 595:./include/linux/fs.h **** #define SB_I_EVM_HMAC_UNSUPPORTED	0x00000080
 596:./include/linux/fs.h **** 
 597:./include/linux/fs.h **** #define SB_I_SKIP_SYNC	0x00000100	/* Skip superblock at global sync */
 598:./include/linux/fs.h **** #define SB_I_PERSB_BDI	0x00000200	/* has a per-sb bdi */
 599:./include/linux/fs.h **** #define SB_I_TS_EXPIRY_WARNED 0x00000400 /* warned about timestamp range expiry */
 600:./include/linux/fs.h **** #define SB_I_RETIRED	0x00000800	/* superblock shouldn't be reused */
 601:./include/linux/fs.h **** #define SB_I_NOUMASK	0x00001000	/* VFS does not apply umask */
 602:./include/linux/fs.h **** #define SB_I_NOIDMAP	0x00002000	/* No idmapped mounts on this superblock */
 603:./include/linux/fs.h **** 
 604:./include/linux/fs.h **** 
 605:./include/linux/fs.h **** enum {
 606:./include/linux/fs.h **** 	SB_UNFROZEN = 0,		/* FS is unfrozen */
 607:./include/linux/fs.h **** 	SB_FREEZE_WRITE	= 1,		/* Writes, dir ops, ioctls frozen */
 608:./include/linux/fs.h **** 	SB_FREEZE_PAGEFAULT = 2,	/* Page faults stopped as well */
 609:./include/linux/fs.h **** 	SB_FREEZE_FS = 3,		/* For internal FS use (e.g. to stop
 610:./include/linux/fs.h **** 					 	* internal threads if needed) */
 611:./include/linux/fs.h **** 	SB_FREEZE_COMPLETE = 4,		/* ->freeze_fs finished successfully */
 612:./include/linux/fs.h **** };
 613:./include/linux/fs.h **** 
 614:./include/linux/fs.h **** #define SB_FREEZE_LEVELS (SB_FREEZE_COMPLETE - 1)
 615:./include/linux/fs.h **** 
 616:./include/linux/fs.h **** struct sb_writers {
 617:./include/linux/fs.h **** 	unsigned short			frozen;		/* Is sb frozen? */
 618:./include/linux/fs.h **** 	int				freeze_kcount;	/* How many kernel freeze requests? */
 619:./include/linux/fs.h **** 	int				freeze_ucount;	/* How many userspace freeze requests? */
 620:./include/linux/fs.h **** 	struct percpu_rw_semaphore	rw_sem[SB_FREEZE_LEVELS];
 621:./include/linux/fs.h **** };
 622:./include/linux/fs.h **** 
 623:./include/linux/fs.h **** #define	UUID_STRING_LEN		36
 624:./include/linux/fs.h **** 
 625:./include/linux/fs.h **** 
 626:./include/linux/fs.h **** 
 627:./include/linux/fs.h **** struct super_block 
 628:./include/linux/fs.h **** { 
 629:./include/linux/fs.h **** 	struct list_head				s_list;		/* Keep this first */
ARM GAS  /tmp/ccnTZmpF.s 			page 50


 630:./include/linux/fs.h ****     dev_t							s_dev;		/* search index; _not_ kdev_t */
 631:./include/linux/fs.h **** 	unsigned long					s_blocksize;
 632:./include/linux/fs.h ****     const struct super_operations	*s_op;
 633:./include/linux/fs.h **** 	const struct dquot_operations	*dq_op;
 634:./include/linux/fs.h **** 
 635:./include/linux/fs.h **** 	struct dentry		*s_root;      //superblock
 636:./include/linux/fs.h **** 	struct block_device	*s_bdev; 
 637:./include/linux/fs.h **** 	struct hlist_node	s_instances;
 638:./include/linux/fs.h **** 	struct list_head	s_mounts;
 639:./include/linux/fs.h **** 	void			   *s_fs_info;	/* Filesystem private info */
 640:./include/linux/fs.h **** 	char			    s_sysfs_name[UUID_STRING_LEN + 1];
 641:./include/linux/fs.h **** 	unsigned int		s_max_links;
 642:./include/linux/fs.h **** 	struct mutex            		s_vfs_rename_mutex;	/* Kludge */
 643:./include/linux/fs.h **** 	const struct dentry_operations *s_d_op; /* default d_op for dentries */
 644:./include/linux/fs.h **** 	struct hlist_head s_pins;
 645:./include/linux/fs.h **** };
 646:./include/linux/fs.h **** 
 647:./include/linux/fs.h **** 
 648:./include/linux/fs.h **** /********************************************************
 649:./include/linux/fs.h ****  * 														*
 650:./include/linux/fs.h ****  * 			       super_operations						*
 651:./include/linux/fs.h ****  *														* 
 652:./include/linux/fs.h **** *********************************************************/
 653:./include/linux/fs.h **** 
 654:./include/linux/fs.h **** struct seq_operations ;
 655:./include/linux/fs.h **** struct seq_file {
 656:./include/linux/fs.h **** 	char *buf;
 657:./include/linux/fs.h **** 	size_t size;
 658:./include/linux/fs.h **** 	size_t from;
 659:./include/linux/fs.h **** 	size_t count;
 660:./include/linux/fs.h **** 	size_t pad_until;
 661:./include/linux/fs.h **** 	loff_t index;
 662:./include/linux/fs.h **** 	loff_t read_pos;
 663:./include/linux/fs.h **** 	struct mutex lock;
 664:./include/linux/fs.h **** 	const struct seq_operations *op;
 665:./include/linux/fs.h **** 	int poll_event;
 666:./include/linux/fs.h **** 	const struct file *file;
 667:./include/linux/fs.h **** 	void *private;
 668:./include/linux/fs.h **** };
 669:./include/linux/fs.h **** 
 670:./include/linux/fs.h **** struct seq_operations {
 671:./include/linux/fs.h **** 	void * (*start) (struct seq_file *m, loff_t *pos);
 672:./include/linux/fs.h **** 	void (*stop) (struct seq_file *m, void *v);
 673:./include/linux/fs.h **** 	void * (*next) (struct seq_file *m, void *v, loff_t *pos);
 674:./include/linux/fs.h **** 	int (*show) (struct seq_file *m, void *v);
 675:./include/linux/fs.h **** };
 676:./include/linux/fs.h **** 
 677:./include/linux/fs.h **** enum freeze_holder {
 678:./include/linux/fs.h **** 	FREEZE_HOLDER_KERNEL	= (1U << 0),
 679:./include/linux/fs.h **** 	FREEZE_HOLDER_USERSPACE	= (1U << 1),
 680:./include/linux/fs.h **** 	FREEZE_MAY_NEST		= (1U << 2),
 681:./include/linux/fs.h **** };
 682:./include/linux/fs.h **** 
 683:./include/linux/fs.h **** struct writeback_control {
 684:./include/linux/fs.h **** 	unsigned long nr_to_write;
 685:./include/linux/fs.h **** };
 686:./include/linux/fs.h **** 
ARM GAS  /tmp/ccnTZmpF.s 			page 51


 687:./include/linux/fs.h **** 
 688:./include/linux/fs.h **** struct shrink_control {
 689:./include/linux/fs.h **** 	gfp_t gfp_mask;
 690:./include/linux/fs.h **** 	int nid;
 691:./include/linux/fs.h **** 	unsigned long nr_to_scan;
 692:./include/linux/fs.h **** 	unsigned long nr_scanned;
 693:./include/linux/fs.h ****     //struct mem_cgroup *memcg;
 694:./include/linux/fs.h **** };
 695:./include/linux/fs.h **** 
 696:./include/linux/fs.h **** struct super_operations {
 697:./include/linux/fs.h ****    	struct inode *(*alloc_inode)(struct super_block *sb);
 698:./include/linux/fs.h **** 	void (*destroy_inode)       (struct inode *);
 699:./include/linux/fs.h **** 	void (*free_inode)          (struct inode *);
 700:./include/linux/fs.h ****    	void (*dirty_inode)         (struct inode *, int flags);
 701:./include/linux/fs.h **** 	int  (*write_inode)         (struct inode *, struct writeback_control *wbc);
 702:./include/linux/fs.h **** 	int  (*drop_inode)          (struct inode *);
 703:./include/linux/fs.h **** 	void (*evict_inode)         (struct inode *);
 704:./include/linux/fs.h **** 	void (*put_super)           (struct super_block *);
 705:./include/linux/fs.h **** 	int  (*sync_fs)             (struct super_block *sb, int wait);
 706:./include/linux/fs.h **** 	int  (*freeze_super)        (struct super_block *, enum freeze_holder who);
 707:./include/linux/fs.h **** 	int  (*freeze_fs)           (struct super_block *);
 708:./include/linux/fs.h **** 	int  (*thaw_super)          (struct super_block *, enum freeze_holder who);
 709:./include/linux/fs.h **** 	int  (*unfreeze_fs)         (struct super_block *);
 710:./include/linux/fs.h **** 	int  (*statfs)              (struct dentry *, struct kstatfs *);
 711:./include/linux/fs.h **** 	int  (*remount_fs)          (struct super_block *, int *, char *);
 712:./include/linux/fs.h **** 	void (*umount_begin)        (struct super_block *);
 713:./include/linux/fs.h **** 	int  (*show_options)        (struct seq_file *, struct dentry *);
 714:./include/linux/fs.h **** 	int  (*show_devname)        (struct seq_file *, struct dentry *);
 715:./include/linux/fs.h **** 	int  (*show_path)           (struct seq_file *, struct dentry *);
 716:./include/linux/fs.h **** 	int  (*show_stats)          (struct seq_file *, struct dentry *);
 717:./include/linux/fs.h **** 
 718:./include/linux/fs.h **** #ifdef CONFIG_QUOTA
 719:./include/linux/fs.h **** 	ssize_t (*quota_read)(struct super_block *, int, char *, size_t, loff_t);
 720:./include/linux/fs.h **** 	ssize_t (*quota_write)(struct super_block *, int, const char *, size_t, loff_t);
 721:./include/linux/fs.h **** 	struct dquot __rcu **(*get_dquots)(struct inode *);
 722:./include/linux/fs.h **** #endif
 723:./include/linux/fs.h **** 
 724:./include/linux/fs.h **** 	long (*nr_cached_objects)(struct super_block *,struct shrink_control *);
 725:./include/linux/fs.h **** 	long (*free_cached_objects)(struct super_block *,struct shrink_control *);
 726:./include/linux/fs.h **** 	void (*shutdown)(struct super_block *sb);
 727:./include/linux/fs.h **** };
 728:./include/linux/fs.h **** 
 729:./include/linux/fs.h **** 
 730:./include/linux/fs.h **** 
 731:./include/linux/fs.h **** /********************************************************
 732:./include/linux/fs.h ****  * 														*
 733:./include/linux/fs.h ****  * 			       dquot_operations						*
 734:./include/linux/fs.h ****  *														* 
 735:./include/linux/fs.h **** *********************************************************/
 736:./include/linux/fs.h **** 
 737:./include/linux/fs.h **** typedef __kernel_uid32_t 	qid_t; /* Type in which we store ids in memory */
 738:./include/linux/fs.h **** typedef long long 			qsize_t;	/* Type in which we store sizes */
 739:./include/linux/fs.h **** 
 740:./include/linux/fs.h **** #undef USRQUOTA
 741:./include/linux/fs.h **** #undef GRPQUOTA
 742:./include/linux/fs.h **** #undef PRJQUOTA
 743:./include/linux/fs.h **** enum quota_type {
ARM GAS  /tmp/ccnTZmpF.s 			page 52


 744:./include/linux/fs.h **** 	USRQUOTA = 0,		/* element used for user quotas */
 745:./include/linux/fs.h **** 	GRPQUOTA = 1,		/* element used for group quotas */
 746:./include/linux/fs.h **** 	PRJQUOTA = 2,		/* element used for project quotas */
 747:./include/linux/fs.h **** };
 748:./include/linux/fs.h **** 
 749:./include/linux/fs.h **** struct kqid {			/* Type in which we store the quota identifier */
 750:./include/linux/fs.h **** 	union {
 751:./include/linux/fs.h **** 		kuid_t uid;
 752:./include/linux/fs.h **** 		kgid_t gid;
 753:./include/linux/fs.h **** 		kprojid_t projid;
 754:./include/linux/fs.h **** 	};
 755:./include/linux/fs.h **** 	enum quota_type type;  /* USRQUOTA (uid) or GRPQUOTA (gid) or PRJQUOTA (projid) */
 756:./include/linux/fs.h **** };
 757:./include/linux/fs.h **** 
 758:./include/linux/fs.h **** struct mem_dqblk {
 759:./include/linux/fs.h **** 	qsize_t dqb_bhardlimit;	/* absolute limit on disk blks alloc */
 760:./include/linux/fs.h **** 	qsize_t dqb_bsoftlimit;	/* preferred limit on disk blks */
 761:./include/linux/fs.h **** 	qsize_t dqb_curspace;	/* current used space */
 762:./include/linux/fs.h **** 	qsize_t dqb_rsvspace;   /* current reserved space for delalloc*/
 763:./include/linux/fs.h **** 	qsize_t dqb_ihardlimit;	/* absolute limit on allocated inodes */
 764:./include/linux/fs.h **** 	qsize_t dqb_isoftlimit;	/* preferred inode limit */
 765:./include/linux/fs.h **** 	qsize_t dqb_curinodes;	/* current # allocated inodes */
 766:./include/linux/fs.h **** 	time64_t dqb_btime;	/* time limit for excessive disk use */
 767:./include/linux/fs.h **** 	time64_t dqb_itime;	/* time limit for excessive inode use */
 768:./include/linux/fs.h **** };
 769:./include/linux/fs.h **** 
 770:./include/linux/fs.h **** struct dquot {
 771:./include/linux/fs.h **** 	struct hlist_node dq_hash;	/* Hash list in memory [dq_list_lock] */
 772:./include/linux/fs.h **** 	struct list_head dq_inuse;	/* List of all quotas [dq_list_lock] */
 773:./include/linux/fs.h **** 	struct list_head dq_free;	/* Free list element [dq_list_lock] */
 774:./include/linux/fs.h **** 	struct list_head dq_dirty;	/* List of dirty dquots [dq_list_lock] */
 775:./include/linux/fs.h **** 	struct mutex dq_lock;		/* dquot IO lock */
 776:./include/linux/fs.h **** //	spinlock_t dq_dqb_lock;		/* Lock protecting dq_dqb changes */
 777:./include/linux/fs.h **** 	atomic_t dq_count;		/* Use count */
 778:./include/linux/fs.h **** 	struct super_block *dq_sb;	/* superblock this applies to */
 779:./include/linux/fs.h **** 	struct kqid dq_id;		/* ID this applies to (uid, gid, projid) */
 780:./include/linux/fs.h **** 	loff_t dq_off;			/* Offset of dquot on disk [dq_lock, stable once set] */
 781:./include/linux/fs.h **** 	unsigned long dq_flags;		/* See DQ_* */
 782:./include/linux/fs.h **** 	struct mem_dqblk dq_dqb;	/* Diskquota usage [dq_dqb_lock] */
 783:./include/linux/fs.h **** };
 784:./include/linux/fs.h **** 
 785:./include/linux/fs.h **** /* Operations which must be implemented by each quota format */
 786:./include/linux/fs.h **** 
 787:./include/linux/fs.h **** struct quota_format_ops {
 788:./include/linux/fs.h **** 	int (*check_quota_file)(struct super_block *sb, int type);	/* Detect whether file is in our format
 789:./include/linux/fs.h **** 	int (*read_file_info)(struct super_block *sb, int type);	/* Read main info about file - called on 
 790:./include/linux/fs.h **** 	int (*write_file_info)(struct super_block *sb, int type);	/* Write main info about file */
 791:./include/linux/fs.h **** 	int (*free_file_info)(struct super_block *sb, int type);	/* Called on quotaoff() */
 792:./include/linux/fs.h **** 	int (*read_dqblk)(struct dquot *dquot);		/* Read structure for one user */
 793:./include/linux/fs.h **** 	int (*commit_dqblk)(struct dquot *dquot);	/* Write structure for one user */
 794:./include/linux/fs.h **** 	int (*release_dqblk)(struct dquot *dquot);	/* Called when last reference to dquot is being dropped
 795:./include/linux/fs.h **** 	int (*get_next_id)(struct super_block *sb, struct kqid *qid);	/* Get next ID with existing structu
 796:./include/linux/fs.h **** };
 797:./include/linux/fs.h **** 
 798:./include/linux/fs.h **** struct dquot_operations {
 799:./include/linux/fs.h **** 	int (*write_dquot) (struct dquot *);		/* Ordinary dquot write */
 800:./include/linux/fs.h **** 	struct dquot *(*alloc_dquot)(struct super_block *, int);	/* Allocate memory for new dquot */
ARM GAS  /tmp/ccnTZmpF.s 			page 53


 801:./include/linux/fs.h **** 	void (*destroy_dquot)(struct dquot *);		/* Free memory for dquot */
 802:./include/linux/fs.h **** 	int (*acquire_dquot) (struct dquot *);		/* Quota is going to be created on disk */
 803:./include/linux/fs.h **** 	int (*release_dquot) (struct dquot *);		/* Quota is going to be deleted from disk */
 804:./include/linux/fs.h **** 	int (*mark_dirty) (struct dquot *);		/* Dquot is marked dirty */
 805:./include/linux/fs.h **** 	int (*write_info) (struct super_block *, int);	/* Write of quota "superblock" */
 806:./include/linux/fs.h **** 	/* get reserved quota for delayed alloc, value returned is managed by
 807:./include/linux/fs.h **** 	 * quota code only */
 808:./include/linux/fs.h **** 	qsize_t *(*get_reserved_space) (struct inode *);
 809:./include/linux/fs.h **** 	int (*get_projid) (struct inode *, kprojid_t *);/* Get project ID */
 810:./include/linux/fs.h **** 	/* Get number of inodes that were charged for a given inode */
 811:./include/linux/fs.h **** 	int (*get_inode_usage) (struct inode *, qsize_t *);
 812:./include/linux/fs.h **** 	/* Get next ID with active quota structure */
 813:./include/linux/fs.h **** 	int (*get_next_id) (struct super_block *sb, struct kqid *qid);
 814:./include/linux/fs.h **** };
 815:./include/linux/fs.h **** 
 816:./include/linux/fs.h **** /********************************************************
 817:./include/linux/fs.h ****  * 														*
 818:./include/linux/fs.h ****  * 			       file_system_type						*
 819:./include/linux/fs.h ****  *														* 
 820:./include/linux/fs.h **** *********************************************************/
 821:./include/linux/fs.h **** 
 822:./include/linux/fs.h **** struct fs_parameter_spec {
 823:./include/linux/fs.h **** 	const char		*name;
 824:./include/linux/fs.h **** //	fs_param_type		*type;	/* The desired parameter type */
 825:./include/linux/fs.h **** 	u8			opt;	/* Option number (returned by fs_parse()) */
 826:./include/linux/fs.h **** 	unsigned short		flags;
 827:./include/linux/fs.h **** #define fs_param_neg_with_no	0x0002	/* "noxxx" is negative param */
 828:./include/linux/fs.h **** #define fs_param_can_be_empty	0x0004	/* "xxx=" is allowed */
 829:./include/linux/fs.h **** #define fs_param_deprecated	0x0008	/* The param is deprecated */
 830:./include/linux/fs.h **** 	const void		*data;
 831:./include/linux/fs.h **** };
 832:./include/linux/fs.h **** 
 833:./include/linux/fs.h **** 
 834:./include/linux/fs.h **** struct file_system_type {
 835:./include/linux/fs.h **** 	const char *name;
 836:./include/linux/fs.h **** 	int fs_flags;
 837:./include/linux/fs.h **** #define FS_REQUIRES_DEV		1 
 838:./include/linux/fs.h **** #define FS_BINARY_MOUNTDATA	2
 839:./include/linux/fs.h **** #define FS_HAS_SUBTYPE		4
 840:./include/linux/fs.h **** #define FS_USERNS_MOUNT		8	/* Can be mounted by userns root */
 841:./include/linux/fs.h **** #define FS_DISALLOW_NOTIFY_PERM	16	/* Disable fanotify permission events */
 842:./include/linux/fs.h **** #define FS_ALLOW_IDMAP         32      /* FS has been updated to handle vfs idmappings. */
 843:./include/linux/fs.h **** #define FS_MGTIME		64	/* FS uses multigrain timestamps */
 844:./include/linux/fs.h **** #define FS_RENAME_DOES_D_MOVE	32768	/* FS will handle d_move() during rename() internally. */
 845:./include/linux/fs.h **** 	int (*init_fs_context)(struct fs_context *);
 846:./include/linux/fs.h **** 	const struct fs_parameter_spec *parameters;
 847:./include/linux/fs.h **** 	struct dentry *(*mount) (struct file_system_type *, int,
 848:./include/linux/fs.h **** 		       const char *, void *);
 849:./include/linux/fs.h **** 	void (*kill_sb) (struct super_block *);
 850:./include/linux/fs.h **** 	void *owner;
 851:./include/linux/fs.h **** 	struct file_system_type * next;
 852:./include/linux/fs.h **** 	struct hlist_head fs_supers;
 853:./include/linux/fs.h **** 
 854:./include/linux/fs.h **** 	struct lock_class_key s_lock_key;
 855:./include/linux/fs.h **** 	struct lock_class_key s_umount_key;
 856:./include/linux/fs.h **** 	struct lock_class_key s_vfs_rename_key;
 857:./include/linux/fs.h **** 	struct lock_class_key s_writers_key[SB_FREEZE_LEVELS];
ARM GAS  /tmp/ccnTZmpF.s 			page 54


 858:./include/linux/fs.h **** 	struct lock_class_key i_lock_key;
 859:./include/linux/fs.h **** 	struct lock_class_key i_mutex_key;
 860:./include/linux/fs.h **** 	struct lock_class_key invalidate_lock_key;
 861:./include/linux/fs.h **** 	struct lock_class_key i_mutex_dir_key;
 862:./include/linux/fs.h **** };
 863:./include/linux/fs.h **** 
 864:./include/linux/fs.h **** 
 865:./include/linux/fs.h **** 
 866:./include/linux/fs.h **** extern int register_filesystem(struct file_system_type *);
 867:./include/linux/fs.h **** extern int unregister_filesystem(struct file_system_type *);
 868:./include/linux/fs.h **** extern struct file_system_type *lookup_fs_type(const char *name);
 869:./include/linux/fs.h **** 
 870:./include/linux/fs.h **** /*--------------------------------------------------------------------------*/
 871:./include/linux/fs.h **** static inline bool is_sync_kiocb(struct kiocb *kiocb){
 872:./include/linux/fs.h **** 	return kiocb->ki_complete == NULL;
 873:./include/linux/fs.h **** }
 874:./include/linux/fs.h **** static inline struct inode *file_inode(const struct file *f){
 875:./include/linux/fs.h **** 	return f->f_inode;
 876:./include/linux/fs.h **** }
 877:./include/linux/fs.h **** /*--------------------------------------------------------------------------*/
 878:./include/linux/fs.h **** 
 879:./include/linux/fs.h **** extern int remove_dentry(char* path);
 880:./include/linux/fs.h **** extern struct file *filp_open(const char * path, int flags, umode_t mode);
 881:./include/linux/fs.h **** extern ssize_t kernel_read(struct file *file, void * buf, size_t count, loff_t *ppos);
 882:./include/linux/fs.h **** extern ssize_t kernel_write(struct file *file,const void * buf, size_t count, loff_t *ppos);
 883:./include/linux/fs.h **** extern long vfs_ioctl(struct file *file, unsigned int cmd, unsigned long arg);
 884:./include/linux/fs.h **** extern int file_close(struct file *file, fl_owner_t id);
 885:./include/linux/fs.h **** 
 886:./include/linux/fs.h **** 
 887:./include/linux/fs.h **** 
 888:./include/linux/fs.h **** /* fs/char_dev.c */
 889:./include/linux/fs.h **** #define CHRDEV_MAJOR_MAX 512
 890:./include/linux/fs.h **** /* Marks the bottom of the first segment of free char majors */
 891:./include/linux/fs.h **** #define CHRDEV_MAJOR_DYN_END 234
 892:./include/linux/fs.h **** /* Marks the top and bottom of the second segment of free char majors */
 893:./include/linux/fs.h **** #define CHRDEV_MAJOR_DYN_EXT_START 511
 894:./include/linux/fs.h **** #define CHRDEV_MAJOR_DYN_EXT_END 384
 895:./include/linux/fs.h **** 
 896:./include/linux/fs.h **** 
 897:./include/linux/fs.h **** 
 898:./include/linux/fs.h **** extern int alloc_chrdev_region(dev_t *, unsigned, unsigned, const char *);
 899:./include/linux/fs.h **** extern int register_chrdev_region(dev_t, unsigned, const char *);
 900:./include/linux/fs.h **** extern int __register_chrdev(unsigned int major, unsigned int baseminor,
 901:./include/linux/fs.h ****     unsigned int count, const char *name,
 902:./include/linux/fs.h ****     const struct file_operations *fops);
 903:./include/linux/fs.h **** extern void __unregister_chrdev(unsigned int major, unsigned int baseminor,
 904:./include/linux/fs.h **** 		unsigned int count, const char *name);
 905:./include/linux/fs.h **** extern void unregister_chrdev_region(dev_t, unsigned);
 906:./include/linux/fs.h **** 
 907:./include/linux/fs.h **** static inline int register_chrdev(unsigned int major, const char *name,
 908:./include/linux/fs.h **** 	const struct file_operations *fops)
 909:./include/linux/fs.h **** {
 910:./include/linux/fs.h **** return __register_chrdev(major, 0, 256, name, fops);
 911:./include/linux/fs.h **** }
 912:./include/linux/fs.h **** 
 913:./include/linux/fs.h **** static inline void unregister_chrdev(
 914:./include/linux/fs.h **** 	unsigned int major, const char *name)
ARM GAS  /tmp/ccnTZmpF.s 			page 55


 915:./include/linux/fs.h **** {
 916:./include/linux/fs.h **** 	__unregister_chrdev(major, 0, 256, name);
 917:./include/linux/fs.h **** }
 918:./include/linux/fs.h **** 
 919:./include/linux/fs.h **** 
 920:./include/linux/fs.h **** 
 921:./include/linux/fs.h **** 
 922:./include/linux/fs.h **** 
 923:./include/linux/fs.h **** extern struct block_device *blkdev_get_by_path(char*, int,void*);
 924:./include/linux/fs.h **** 
 925:./include/linux/fs.h **** 
 926:./include/linux/fs.h **** 
 927:./include/linux/fs.h **** 
 928:./include/linux/fs.h **** extern int __add_disk(struct gendisk *disk);
 929:./include/linux/fs.h **** static int add_disk(struct gendisk *disk){
 1382              		.loc 5 929 42 is_stmt 1 view -0
 1383              		.cfi_startproc
 1384              		@ args = 0, pretend = 0, frame = 0
 1385              		@ frame_needed = 0, uses_anonymous_args = 0
 1386              		.loc 5 929 42 is_stmt 0 view .LVU349
 1387 0000 08B5     		push	{r3, lr}
 1388              	.LCFI29:
 1389              		.cfi_def_cfa_offset 8
 1390              		.cfi_offset 3, -8
 1391              		.cfi_offset 14, -4
 930:./include/linux/fs.h **** 	return __add_disk(disk);
 1392              		.loc 5 930 2 is_stmt 1 view .LVU350
 1393              		.loc 5 930 9 is_stmt 0 view .LVU351
 1394 0002 FFF7FEFF 		bl	__add_disk
 1395              	.LVL121:
 931:./include/linux/fs.h **** }
 1396              		.loc 5 931 1 view .LVU352
 1397 0006 08BD     		pop	{r3, pc}
 1398              		.cfi_endproc
 1399              	.LFE1032:
 1401              		.section	.text.__free_pages,"ax",%progbits
 1402              		.align	1
 1403              		.syntax unified
 1404              		.thumb
 1405              		.thumb_func
 1407              	__free_pages:
 1408              	.LVL122:
 1409              	.LFB914:
 235:./include/linux/mm_type.h ****     if (page) {
 1410              		.loc 2 235 71 is_stmt 1 view -0
 1411              		.cfi_startproc
 1412              		@ args = 0, pretend = 0, frame = 0
 1413              		@ frame_needed = 0, uses_anonymous_args = 0
 236:./include/linux/mm_type.h **** 		if(page->page_type == 1234)
 1414              		.loc 2 236 5 view .LVU354
 236:./include/linux/mm_type.h **** 		if(page->page_type == 1234)
 1415              		.loc 2 236 8 is_stmt 0 view .LVU355
 1416 0000 70B1     		cbz	r0, .L81
 235:./include/linux/mm_type.h ****     if (page) {
 1417              		.loc 2 235 71 view .LVU356
 1418 0002 10B5     		push	{r4, lr}
 1419              	.LCFI30:
ARM GAS  /tmp/ccnTZmpF.s 			page 56


 1420              		.cfi_def_cfa_offset 8
 1421              		.cfi_offset 4, -8
 1422              		.cfi_offset 14, -4
 1423 0004 0446     		mov	r4, r0
 237:./include/linux/mm_type.h **** 		kfree(page->zone_device_data);
 1424              		.loc 2 237 3 is_stmt 1 view .LVU357
 237:./include/linux/mm_type.h **** 		kfree(page->zone_device_data);
 1425              		.loc 2 237 10 is_stmt 0 view .LVU358
 1426 0006 8269     		ldr	r2, [r0, #24]
 237:./include/linux/mm_type.h **** 		kfree(page->zone_device_data);
 1427              		.loc 2 237 5 view .LVU359
 1428 0008 40F2D243 		movw	r3, #1234
 1429 000c 9A42     		cmp	r2, r3
 1430 000e 03D0     		beq	.L84
 1431              	.LVL123:
 1432              	.L79:
 1433              	.LBB109:
 1434              	.LBB110:
 202:./include/linux/mm_type.h **** 		page = NULL;
 1435              		.loc 2 202 9 is_stmt 1 view .LVU360
 1436              	.LBB111:
 1437              	.LBI111:
 1438              		.file 6 "./include/linux/slab.h"
   1:./include/linux/slab.h **** /* SPDX-License-Identifier: GPL-2.0 */
   2:./include/linux/slab.h **** /*
   3:./include/linux/slab.h ****  * Written by Mark Hemment, 1996 (markhe@nextd.demon.co.uk).
   4:./include/linux/slab.h ****  *
   5:./include/linux/slab.h ****  * (C) SGI 2006, Christoph Lameter
   6:./include/linux/slab.h ****  * 	Cleaned up and restructured to ease the addition of alternative
   7:./include/linux/slab.h ****  * 	implementations of SLAB allocators.
   8:./include/linux/slab.h ****  * (C) Linux Foundation 2008-2013
   9:./include/linux/slab.h ****  *      Unified interface for all slab allocators
  10:./include/linux/slab.h ****  */
  11:./include/linux/slab.h **** 
  12:./include/linux/slab.h **** #ifndef _LINUX_SLAB_H
  13:./include/linux/slab.h **** #define	_LINUX_SLAB_H
  14:./include/linux/slab.h **** 
  15:./include/linux/slab.h **** #include <linux/cache.h>
  16:./include/linux/slab.h **** #include <linux/overflow.h>
  17:./include/linux/slab.h **** #include <linux/types.h>
  18:./include/linux/slab.h **** #include <linux/raid/pq.h>
  19:./include/linux/slab.h **** #include <linux/gfp_types.h>
  20:./include/linux/slab.h **** #include <linux/numa.h>
  21:./include/linux/slab.h **** #include <linux/reciprocal_div.h>
  22:./include/linux/slab.h **** #include <linux/spinlock.h>
  23:./include/linux/slab.h **** 
  24:./include/linux/slab.h **** enum _slab_flag_bits {
  25:./include/linux/slab.h **** 	_SLAB_CONSISTENCY_CHECKS,
  26:./include/linux/slab.h **** 	_SLAB_RED_ZONE,
  27:./include/linux/slab.h **** 	_SLAB_POISON,
  28:./include/linux/slab.h **** 	_SLAB_KMALLOC,
  29:./include/linux/slab.h **** 	_SLAB_HWCACHE_ALIGN,
  30:./include/linux/slab.h **** 	_SLAB_CACHE_DMA,
  31:./include/linux/slab.h **** 	_SLAB_CACHE_DMA32,
  32:./include/linux/slab.h **** 	_SLAB_STORE_USER,
  33:./include/linux/slab.h **** 	_SLAB_PANIC,
  34:./include/linux/slab.h **** 	_SLAB_TYPESAFE_BY_RCU,
ARM GAS  /tmp/ccnTZmpF.s 			page 57


  35:./include/linux/slab.h **** 	_SLAB_TRACE,
  36:./include/linux/slab.h **** #ifdef CONFIG_DEBUG_OBJECTS
  37:./include/linux/slab.h **** 	_SLAB_DEBUG_OBJECTS,
  38:./include/linux/slab.h **** #endif
  39:./include/linux/slab.h **** 	_SLAB_NOLEAKTRACE,
  40:./include/linux/slab.h **** 	_SLAB_NO_MERGE,
  41:./include/linux/slab.h **** #ifdef CONFIG_FAILSLAB
  42:./include/linux/slab.h **** 	_SLAB_FAILSLAB,
  43:./include/linux/slab.h **** #endif
  44:./include/linux/slab.h **** #ifdef CONFIG_MEMCG
  45:./include/linux/slab.h **** 	_SLAB_ACCOUNT,
  46:./include/linux/slab.h **** #endif
  47:./include/linux/slab.h **** #ifdef CONFIG_KASAN_GENERIC
  48:./include/linux/slab.h **** 	_SLAB_KASAN,
  49:./include/linux/slab.h **** #endif
  50:./include/linux/slab.h **** 	_SLAB_NO_USER_FLAGS,
  51:./include/linux/slab.h **** #ifdef CONFIG_KFENCE
  52:./include/linux/slab.h **** 	_SLAB_SKIP_KFENCE,
  53:./include/linux/slab.h **** #endif
  54:./include/linux/slab.h **** #ifndef CONFIG_SLUB_TINY
  55:./include/linux/slab.h **** 	_SLAB_RECLAIM_ACCOUNT,
  56:./include/linux/slab.h **** #endif
  57:./include/linux/slab.h **** 	_SLAB_OBJECT_POISON,
  58:./include/linux/slab.h **** 	_SLAB_CMPXCHG_DOUBLE,
  59:./include/linux/slab.h **** #ifdef CONFIG_SLAB_OBJ_EXT
  60:./include/linux/slab.h **** 	_SLAB_NO_OBJ_EXT,
  61:./include/linux/slab.h **** #endif
  62:./include/linux/slab.h **** 	_SLAB_FLAGS_LAST_BIT
  63:./include/linux/slab.h **** };
  64:./include/linux/slab.h **** 
  65:./include/linux/slab.h **** 
  66:./include/linux/slab.h **** 
  67:./include/linux/slab.h **** #define __SLAB_FLAG_BIT(nr)	((slab_flags_t __force)(1U << (nr)))
  68:./include/linux/slab.h **** #define __SLAB_FLAG_UNUSED	((slab_flags_t __force)(0U))
  69:./include/linux/slab.h **** 
  70:./include/linux/slab.h **** /*
  71:./include/linux/slab.h ****  * Flags to pass to kmem_cache_create().
  72:./include/linux/slab.h ****  * The ones marked DEBUG need CONFIG_SLUB_DEBUG enabled, otherwise are no-op
  73:./include/linux/slab.h ****  */
  74:./include/linux/slab.h **** /* DEBUG: Perform (expensive) checks on alloc/free */
  75:./include/linux/slab.h **** #define SLAB_CONSISTENCY_CHECKS	__SLAB_FLAG_BIT(_SLAB_CONSISTENCY_CHECKS)
  76:./include/linux/slab.h **** /* DEBUG: Red zone objs in a cache */
  77:./include/linux/slab.h **** #define SLAB_RED_ZONE		__SLAB_FLAG_BIT(_SLAB_RED_ZONE)
  78:./include/linux/slab.h **** /* DEBUG: Poison objects */
  79:./include/linux/slab.h **** #define SLAB_POISON		__SLAB_FLAG_BIT(_SLAB_POISON)
  80:./include/linux/slab.h **** /* Indicate a kmalloc slab */
  81:./include/linux/slab.h **** #define SLAB_KMALLOC		__SLAB_FLAG_BIT(_SLAB_KMALLOC)
  82:./include/linux/slab.h **** /**
  83:./include/linux/slab.h ****  * define SLAB_HWCACHE_ALIGN - Align objects on cache line boundaries.
  84:./include/linux/slab.h ****  *
  85:./include/linux/slab.h ****  * Sufficiently large objects are aligned on cache line boundary. For object
  86:./include/linux/slab.h ****  * size smaller than a half of cache line size, the alignment is on the half of
  87:./include/linux/slab.h ****  * cache line size. In general, if object size is smaller than 1/2^n of cache
  88:./include/linux/slab.h ****  * line size, the alignment is adjusted to 1/2^n.
  89:./include/linux/slab.h ****  *
  90:./include/linux/slab.h ****  * If explicit alignment is also requested by the respective
  91:./include/linux/slab.h ****  * &struct kmem_cache_args field, the greater of both is alignments is applied.
ARM GAS  /tmp/ccnTZmpF.s 			page 58


  92:./include/linux/slab.h ****  */
  93:./include/linux/slab.h **** #define SLAB_HWCACHE_ALIGN	__SLAB_FLAG_BIT(_SLAB_HWCACHE_ALIGN)
  94:./include/linux/slab.h **** /* Use GFP_DMA memory */
  95:./include/linux/slab.h **** #define SLAB_CACHE_DMA		__SLAB_FLAG_BIT(_SLAB_CACHE_DMA)
  96:./include/linux/slab.h **** /* Use GFP_DMA32 memory */
  97:./include/linux/slab.h **** #define SLAB_CACHE_DMA32	__SLAB_FLAG_BIT(_SLAB_CACHE_DMA32)
  98:./include/linux/slab.h **** /* DEBUG: Store the last owner for bug hunting */
  99:./include/linux/slab.h **** #define SLAB_STORE_USER		__SLAB_FLAG_BIT(_SLAB_STORE_USER)
 100:./include/linux/slab.h **** /* Panic if kmem_cache_create() fails */
 101:./include/linux/slab.h **** #define SLAB_PANIC		__SLAB_FLAG_BIT(_SLAB_PANIC)
 102:./include/linux/slab.h **** /**
 103:./include/linux/slab.h ****  * define SLAB_TYPESAFE_BY_RCU - **WARNING** READ THIS!
 104:./include/linux/slab.h ****  *
 105:./include/linux/slab.h ****  * This delays freeing the SLAB page by a grace period, it does _NOT_
 106:./include/linux/slab.h ****  * delay object freeing. This means that if you do kmem_cache_free()
 107:./include/linux/slab.h ****  * that memory location is free to be reused at any time. Thus it may
 108:./include/linux/slab.h ****  * be possible to see another object there in the same RCU grace period.
 109:./include/linux/slab.h ****  *
 110:./include/linux/slab.h ****  * This feature only ensures the memory location backing the object
 111:./include/linux/slab.h ****  * stays valid, the trick to using this is relying on an independent
 112:./include/linux/slab.h ****  * object validation pass. Something like:
 113:./include/linux/slab.h ****  *
 114:./include/linux/slab.h ****  * ::
 115:./include/linux/slab.h ****  *
 116:./include/linux/slab.h ****  *  begin:
 117:./include/linux/slab.h ****  *   rcu_read_lock();
 118:./include/linux/slab.h ****  *   obj = lockless_lookup(key);
 119:./include/linux/slab.h ****  *   if (obj) {
 120:./include/linux/slab.h ****  *     if (!try_get_ref(obj)) // might fail for free objects
 121:./include/linux/slab.h ****  *       rcu_read_unlock();
 122:./include/linux/slab.h ****  *       goto begin;
 123:./include/linux/slab.h ****  *
 124:./include/linux/slab.h ****  *     if (obj->key != key) { // not the object we expected
 125:./include/linux/slab.h ****  *       put_ref(obj);
 126:./include/linux/slab.h ****  *       rcu_read_unlock();
 127:./include/linux/slab.h ****  *       goto begin;
 128:./include/linux/slab.h ****  *     }
 129:./include/linux/slab.h ****  *   }
 130:./include/linux/slab.h ****  *  rcu_read_unlock();
 131:./include/linux/slab.h ****  *
 132:./include/linux/slab.h ****  * This is useful if we need to approach a kernel structure obliquely,
 133:./include/linux/slab.h ****  * from its address obtained without the usual locking. We can lock
 134:./include/linux/slab.h ****  * the structure to stabilize it and check it's still at the given address,
 135:./include/linux/slab.h ****  * only if we can be sure that the memory has not been meanwhile reused
 136:./include/linux/slab.h ****  * for some other kind of object (which our subsystem's lock might corrupt).
 137:./include/linux/slab.h ****  *
 138:./include/linux/slab.h ****  * rcu_read_lock before reading the address, then rcu_read_unlock after
 139:./include/linux/slab.h ****  * taking the spinlock within the structure expected at that address.
 140:./include/linux/slab.h ****  *
 141:./include/linux/slab.h ****  * Note that it is not possible to acquire a lock within a structure
 142:./include/linux/slab.h ****  * allocated with SLAB_TYPESAFE_BY_RCU without first acquiring a reference
 143:./include/linux/slab.h ****  * as described above.  The reason is that SLAB_TYPESAFE_BY_RCU pages
 144:./include/linux/slab.h ****  * are not zeroed before being given to the slab, which means that any
 145:./include/linux/slab.h ****  * locks must be initialized after each and every kmem_struct_alloc().
 146:./include/linux/slab.h ****  * Alternatively, make the ctor passed to kmem_cache_create() initialize
 147:./include/linux/slab.h ****  * the locks at page-allocation time, as is done in __i915_request_ctor(),
 148:./include/linux/slab.h ****  * sighand_ctor(), and anon_vma_ctor().  Such a ctor permits readers
ARM GAS  /tmp/ccnTZmpF.s 			page 59


 149:./include/linux/slab.h ****  * to safely acquire those ctor-initialized locks under rcu_read_lock()
 150:./include/linux/slab.h ****  * protection.
 151:./include/linux/slab.h ****  *
 152:./include/linux/slab.h ****  * Note that SLAB_TYPESAFE_BY_RCU was originally named SLAB_DESTROY_BY_RCU.
 153:./include/linux/slab.h ****  */
 154:./include/linux/slab.h **** #define SLAB_TYPESAFE_BY_RCU	__SLAB_FLAG_BIT(_SLAB_TYPESAFE_BY_RCU)
 155:./include/linux/slab.h **** /* Trace allocations and frees */
 156:./include/linux/slab.h **** #define SLAB_TRACE		__SLAB_FLAG_BIT(_SLAB_TRACE)
 157:./include/linux/slab.h **** 
 158:./include/linux/slab.h **** /* Flag to prevent checks on free */
 159:./include/linux/slab.h **** #ifdef CONFIG_DEBUG_OBJECTS
 160:./include/linux/slab.h **** # define SLAB_DEBUG_OBJECTS	__SLAB_FLAG_BIT(_SLAB_DEBUG_OBJECTS)
 161:./include/linux/slab.h **** #else
 162:./include/linux/slab.h **** # define SLAB_DEBUG_OBJECTS	__SLAB_FLAG_UNUSED
 163:./include/linux/slab.h **** #endif
 164:./include/linux/slab.h **** 
 165:./include/linux/slab.h **** /* Avoid kmemleak tracing */
 166:./include/linux/slab.h **** #define SLAB_NOLEAKTRACE	__SLAB_FLAG_BIT(_SLAB_NOLEAKTRACE)
 167:./include/linux/slab.h **** 
 168:./include/linux/slab.h **** /*
 169:./include/linux/slab.h ****  * Prevent merging with compatible kmem caches. This flag should be used
 170:./include/linux/slab.h ****  * cautiously. Valid use cases:
 171:./include/linux/slab.h ****  *
 172:./include/linux/slab.h ****  * - caches created for self-tests (e.g. kunit)
 173:./include/linux/slab.h ****  * - general caches created and used by a subsystem, only when a
 174:./include/linux/slab.h ****  *   (subsystem-specific) debug option is enabled
 175:./include/linux/slab.h ****  * - performance critical caches, should be very rare and consulted with slab
 176:./include/linux/slab.h ****  *   maintainers, and not used together with CONFIG_SLUB_TINY
 177:./include/linux/slab.h ****  */
 178:./include/linux/slab.h **** #define SLAB_NO_MERGE		__SLAB_FLAG_BIT(_SLAB_NO_MERGE)
 179:./include/linux/slab.h **** 
 180:./include/linux/slab.h **** /* Fault injection mark */
 181:./include/linux/slab.h **** #ifdef CONFIG_FAILSLAB
 182:./include/linux/slab.h **** # define SLAB_FAILSLAB		__SLAB_FLAG_BIT(_SLAB_FAILSLAB)
 183:./include/linux/slab.h **** #else
 184:./include/linux/slab.h **** # define SLAB_FAILSLAB		__SLAB_FLAG_UNUSED
 185:./include/linux/slab.h **** #endif
 186:./include/linux/slab.h **** /**
 187:./include/linux/slab.h ****  * define SLAB_ACCOUNT - Account allocations to memcg.
 188:./include/linux/slab.h ****  *
 189:./include/linux/slab.h ****  * All object allocations from this cache will be memcg accounted, regardless of
 190:./include/linux/slab.h ****  * __GFP_ACCOUNT being or not being passed to individual allocations.
 191:./include/linux/slab.h ****  */
 192:./include/linux/slab.h **** #ifdef CONFIG_MEMCG
 193:./include/linux/slab.h **** # define SLAB_ACCOUNT		__SLAB_FLAG_BIT(_SLAB_ACCOUNT)
 194:./include/linux/slab.h **** #else
 195:./include/linux/slab.h **** # define SLAB_ACCOUNT		__SLAB_FLAG_UNUSED
 196:./include/linux/slab.h **** #endif
 197:./include/linux/slab.h **** 
 198:./include/linux/slab.h **** #ifdef CONFIG_KASAN_GENERIC
 199:./include/linux/slab.h **** #define SLAB_KASAN		__SLAB_FLAG_BIT(_SLAB_KASAN)
 200:./include/linux/slab.h **** #else
 201:./include/linux/slab.h **** #define SLAB_KASAN		__SLAB_FLAG_UNUSED
 202:./include/linux/slab.h **** #endif
 203:./include/linux/slab.h **** 
 204:./include/linux/slab.h **** /*
 205:./include/linux/slab.h ****  * Ignore user specified debugging flags.
ARM GAS  /tmp/ccnTZmpF.s 			page 60


 206:./include/linux/slab.h ****  * Intended for caches created for self-tests so they have only flags
 207:./include/linux/slab.h ****  * specified in the code and other flags are ignored.
 208:./include/linux/slab.h ****  */
 209:./include/linux/slab.h **** #define SLAB_NO_USER_FLAGS	__SLAB_FLAG_BIT(_SLAB_NO_USER_FLAGS)
 210:./include/linux/slab.h **** 
 211:./include/linux/slab.h **** #ifdef CONFIG_KFENCE
 212:./include/linux/slab.h **** #define SLAB_SKIP_KFENCE	__SLAB_FLAG_BIT(_SLAB_SKIP_KFENCE)
 213:./include/linux/slab.h **** #else
 214:./include/linux/slab.h **** #define SLAB_SKIP_KFENCE	__SLAB_FLAG_UNUSED
 215:./include/linux/slab.h **** #endif
 216:./include/linux/slab.h **** 
 217:./include/linux/slab.h **** /* The following flags affect the page allocator grouping pages by mobility */
 218:./include/linux/slab.h **** /**
 219:./include/linux/slab.h ****  * define SLAB_RECLAIM_ACCOUNT - Objects are reclaimable.
 220:./include/linux/slab.h ****  *
 221:./include/linux/slab.h ****  * Use this flag for caches that have an associated shrinker. As a result, slab
 222:./include/linux/slab.h ****  * pages are allocated with __GFP_RECLAIMABLE, which affects grouping pages by
 223:./include/linux/slab.h ****  * mobility, and are accounted in SReclaimable counter in /proc/meminfo
 224:./include/linux/slab.h ****  */
 225:./include/linux/slab.h **** #ifndef CONFIG_SLUB_TINY
 226:./include/linux/slab.h **** #define SLAB_RECLAIM_ACCOUNT	__SLAB_FLAG_BIT(_SLAB_RECLAIM_ACCOUNT)
 227:./include/linux/slab.h **** #else
 228:./include/linux/slab.h **** #define SLAB_RECLAIM_ACCOUNT	__SLAB_FLAG_UNUSED
 229:./include/linux/slab.h **** #endif
 230:./include/linux/slab.h **** #define SLAB_TEMPORARY		SLAB_RECLAIM_ACCOUNT	/* Objects are short-lived */
 231:./include/linux/slab.h **** 
 232:./include/linux/slab.h **** /* Slab created using create_boot_cache */
 233:./include/linux/slab.h **** #ifdef CONFIG_SLAB_OBJ_EXT
 234:./include/linux/slab.h **** #define SLAB_NO_OBJ_EXT		__SLAB_FLAG_BIT(_SLAB_NO_OBJ_EXT)
 235:./include/linux/slab.h **** #else
 236:./include/linux/slab.h **** #define SLAB_NO_OBJ_EXT		__SLAB_FLAG_UNUSED
 237:./include/linux/slab.h **** #endif
 238:./include/linux/slab.h **** 
 239:./include/linux/slab.h **** /*
 240:./include/linux/slab.h ****  * freeptr_t represents a SLUB freelist pointer, which might be encoded
 241:./include/linux/slab.h ****  * and not dereferenceable if CONFIG_SLAB_FREELIST_HARDENED is enabled.
 242:./include/linux/slab.h ****  */
 243:./include/linux/slab.h **** typedef struct { unsigned long v; } freeptr_t;
 244:./include/linux/slab.h **** 
 245:./include/linux/slab.h **** /*
 246:./include/linux/slab.h ****  * ZERO_SIZE_PTR will be returned for zero sized kmalloc requests.
 247:./include/linux/slab.h ****  *
 248:./include/linux/slab.h ****  * Dereferencing ZERO_SIZE_PTR will lead to a distinct access fault.
 249:./include/linux/slab.h ****  *
 250:./include/linux/slab.h ****  * ZERO_SIZE_PTR can be passed to kfree though in the same way that NULL can.
 251:./include/linux/slab.h ****  * Both make kfree a no-op.
 252:./include/linux/slab.h ****  */
 253:./include/linux/slab.h **** #define ZERO_SIZE_PTR ((void *)16)
 254:./include/linux/slab.h **** 
 255:./include/linux/slab.h **** #define ZERO_OR_NULL_PTR(x) ((unsigned long)(x) <= \
 256:./include/linux/slab.h **** 				(unsigned long)ZERO_SIZE_PTR)
 257:./include/linux/slab.h **** 
 258:./include/linux/slab.h **** 
 259:./include/linux/slab.h **** 
 260:./include/linux/slab.h **** 
 261:./include/linux/slab.h **** 
 262:./include/linux/slab.h **** #ifdef CONFIG_SLUB_CPU_PARTIAL
ARM GAS  /tmp/ccnTZmpF.s 			page 61


 263:./include/linux/slab.h **** #define slub_percpu_partial(c)			((c)->partial)
 264:./include/linux/slab.h **** 
 265:./include/linux/slab.h **** #define slub_set_percpu_partial(c, p)		\
 266:./include/linux/slab.h **** ({						\
 267:./include/linux/slab.h **** 	slub_percpu_partial(c) = (p)->next;	\
 268:./include/linux/slab.h **** })
 269:./include/linux/slab.h **** 
 270:./include/linux/slab.h **** #define slub_percpu_partial_read_once(c)	READ_ONCE(slub_percpu_partial(c))
 271:./include/linux/slab.h **** #else
 272:./include/linux/slab.h **** #define slub_percpu_partial(c)			NULL
 273:./include/linux/slab.h **** 
 274:./include/linux/slab.h **** #define slub_set_percpu_partial(c, p)
 275:./include/linux/slab.h **** 
 276:./include/linux/slab.h **** #define slub_percpu_partial_read_once(c)	NULL
 277:./include/linux/slab.h **** 
 278:./include/linux/slab.h **** 
 279:./include/linux/slab.h **** #endif // CONFIG_SLUB_CPU_PARTIAL
 280:./include/linux/slab.h **** 
 281:./include/linux/slab.h **** /*
 282:./include/linux/slab.h **** 	* Word size structure that can be atomically updated or read and that
 283:./include/linux/slab.h **** 	* contains both the order and the number of objects that a slab of the
 284:./include/linux/slab.h **** 	* given order would contain.
 285:./include/linux/slab.h **** 	*/				
 286:./include/linux/slab.h **** struct kmem_cache_order_objects {
 287:./include/linux/slab.h **** 	unsigned int x;
 288:./include/linux/slab.h **** };
 289:./include/linux/slab.h **** 
 290:./include/linux/slab.h **** struct kmem_cache_node {
 291:./include/linux/slab.h **** 	spinlock_t list_lock;
 292:./include/linux/slab.h **** 	unsigned long nr_partial;
 293:./include/linux/slab.h **** 	struct list_head partial;
 294:./include/linux/slab.h **** #ifdef CONFIG_SLUB_DEBUG
 295:./include/linux/slab.h **** 	atomic_long_t nr_slabs;
 296:./include/linux/slab.h **** 	atomic_long_t total_objects;
 297:./include/linux/slab.h **** 	struct list_head full;
 298:./include/linux/slab.h **** #endif
 299:./include/linux/slab.h **** };
 300:./include/linux/slab.h **** 
 301:./include/linux/slab.h **** struct kmem_cache {
 302:./include/linux/slab.h **** 	#ifndef CONFIG_SLUB_TINY
 303:./include/linux/slab.h **** 	//	struct kmem_cache_cpu __percpu *cpu_slab;
 304:./include/linux/slab.h **** 	#endif
 305:./include/linux/slab.h **** 		/* Used for retrieving partial slabs, etc. */
 306:./include/linux/slab.h **** 		slab_flags_t flags;
 307:./include/linux/slab.h **** 		unsigned long min_partial;
 308:./include/linux/slab.h **** 		unsigned int size;		/* Object size including metadata */
 309:./include/linux/slab.h **** 		unsigned int object_size;	/* Object size without metadata */
 310:./include/linux/slab.h **** 		struct reciprocal_value reciprocal_size;
 311:./include/linux/slab.h **** 		unsigned int offset;		/* Free pointer offset */
 312:./include/linux/slab.h **** 	#ifdef CONFIG_SLUB_CPU_PARTIAL
 313:./include/linux/slab.h **** 		/* Number of per cpu partial objects to keep around */
 314:./include/linux/slab.h **** 		unsigned int cpu_partial;
 315:./include/linux/slab.h **** 		/* Number of per cpu partial slabs to keep around */
 316:./include/linux/slab.h **** 		unsigned int cpu_partial_slabs;
 317:./include/linux/slab.h **** 	#endif
 318:./include/linux/slab.h **** 		struct kmem_cache_order_objects oo;
 319:./include/linux/slab.h **** 	
ARM GAS  /tmp/ccnTZmpF.s 			page 62


 320:./include/linux/slab.h **** 		/* Allocation and freeing of slabs */
 321:./include/linux/slab.h **** 		struct kmem_cache_order_objects min;
 322:./include/linux/slab.h **** 		gfp_t allocflags;		/* gfp flags to use on each alloc */
 323:./include/linux/slab.h **** 		int refcount;			/* Refcount for slab cache destroy */
 324:./include/linux/slab.h **** 		void (*ctor)(void *object);	/* Object constructor */
 325:./include/linux/slab.h **** 		unsigned int inuse;		/* Offset to metadata */
 326:./include/linux/slab.h **** 		unsigned int align;		/* Alignment */
 327:./include/linux/slab.h **** 		unsigned int red_left_pad;	/* Left redzone padding size */
 328:./include/linux/slab.h **** 		const char *name;		/* Name (only for display!) */
 329:./include/linux/slab.h **** 		struct list_head list;		/* List of slab caches */
 330:./include/linux/slab.h **** 	#ifdef CONFIG_SYSFS
 331:./include/linux/slab.h **** 		struct kobject kobj;		/* For sysfs */
 332:./include/linux/slab.h **** 	#endif
 333:./include/linux/slab.h **** 	#ifdef CONFIG_SLAB_FREELIST_HARDENED
 334:./include/linux/slab.h **** 		unsigned long random;
 335:./include/linux/slab.h **** 	#endif
 336:./include/linux/slab.h **** 	
 337:./include/linux/slab.h **** 	#ifdef CONFIG_NUMA
 338:./include/linux/slab.h **** 		/*
 339:./include/linux/slab.h **** 			* Defragmentation by allocating from a remote node.
 340:./include/linux/slab.h **** 			*/
 341:./include/linux/slab.h **** 		unsigned int remote_node_defrag_ratio;
 342:./include/linux/slab.h **** 	#endif
 343:./include/linux/slab.h **** 	
 344:./include/linux/slab.h **** 	#ifdef CONFIG_SLAB_FREELIST_RANDOM
 345:./include/linux/slab.h **** 		unsigned int *random_seq;
 346:./include/linux/slab.h **** 	#endif
 347:./include/linux/slab.h **** 	
 348:./include/linux/slab.h **** 	#ifdef CONFIG_KASAN_GENERIC
 349:./include/linux/slab.h **** 		struct kasan_cache kasan_info;
 350:./include/linux/slab.h **** 	#endif
 351:./include/linux/slab.h **** 	
 352:./include/linux/slab.h **** 	#ifdef CONFIG_HARDENED_USERCOPY
 353:./include/linux/slab.h **** 		unsigned int useroffset;	/* Usercopy region offset */
 354:./include/linux/slab.h **** 		unsigned int usersize;		/* Usercopy region size */
 355:./include/linux/slab.h **** 	#endif
 356:./include/linux/slab.h **** 	
 357:./include/linux/slab.h **** 		struct kmem_cache_node *node[MAX_NUMNODES];
 358:./include/linux/slab.h **** 	};
 359:./include/linux/slab.h **** 					
 360:./include/linux/slab.h **** 
 361:./include/linux/slab.h **** 
 362:./include/linux/slab.h **** 
 363:./include/linux/slab.h **** 
 364:./include/linux/slab.h **** #define KMALLOC_WAIT 1
 365:./include/linux/slab.h **** 
 366:./include/linux/slab.h **** 
 367:./include/linux/slab.h **** extern void* __smalloc__(u32 size, gfp_t flags);
 368:./include/linux/slab.h **** extern void  __sfree__(void* addr);
 369:./include/linux/slab.h **** 
 370:./include/linux/slab.h **** 
 371:./include/linux/slab.h **** static void inline *vmalloc(unsigned long size){
 372:./include/linux/slab.h **** 	return __smalloc__(size,GFP_TRANSHUGE_LIGHT);
 373:./include/linux/slab.h **** }
 374:./include/linux/slab.h **** 
 375:./include/linux/slab.h **** static void inline vfree(void *addr){
 376:./include/linux/slab.h **** 	__sfree__(addr);
ARM GAS  /tmp/ccnTZmpF.s 			page 63


 377:./include/linux/slab.h **** }
 378:./include/linux/slab.h **** 
 379:./include/linux/slab.h **** static void inline *kmalloc(size_t size, gfp_t flags){
 380:./include/linux/slab.h **** 	return __smalloc__((u32)size,flags);
 381:./include/linux/slab.h **** }
 382:./include/linux/slab.h **** 
 383:./include/linux/slab.h **** static void inline kfree(const void *ptr){
 1439              		.loc 6 383 20 view .LVU361
 1440              	.LBB112:
 384:./include/linux/slab.h **** 	__sfree__((void*)ptr);
 1441              		.loc 6 384 2 view .LVU362
 1442 0010 2046     		mov	r0, r4
 1443 0012 FFF7FEFF 		bl	__sfree__
 1444              	.LVL124:
 1445              		.loc 6 384 2 is_stmt 0 view .LVU363
 1446              	.LBE112:
 1447              	.LBE111:
 203:./include/linux/mm_type.h ****     }
 1448              		.loc 2 203 3 is_stmt 1 view .LVU364
 1449              	.LBE110:
 1450              	.LBE109:
 241:./include/linux/mm_type.h **** 
 1451              		.loc 2 241 1 is_stmt 0 view .LVU365
 1452 0016 10BD     		pop	{r4, pc}
 1453              	.LVL125:
 1454              	.L84:
 238:./include/linux/mm_type.h ****         __page_destroy(page);
 1455              		.loc 2 238 3 is_stmt 1 view .LVU366
 1456              	.LBB114:
 1457              	.LBI114:
 383:./include/linux/slab.h **** 	__sfree__((void*)ptr);
 1458              		.loc 6 383 20 view .LVU367
 1459              	.LBB115:
 1460              		.loc 6 384 2 view .LVU368
 1461 0018 4068     		ldr	r0, [r0, #4]
 1462              	.LVL126:
 1463              		.loc 6 384 2 is_stmt 0 view .LVU369
 1464 001a FFF7FEFF 		bl	__sfree__
 1465              	.LVL127:
 1466              		.loc 6 384 2 view .LVU370
 1467              	.LBE115:
 1468              	.LBE114:
 239:./include/linux/mm_type.h ****     }
 1469              		.loc 2 239 9 is_stmt 1 view .LVU371
 1470              	.LBB116:
 1471              	.LBI109:
 199:./include/linux/mm_type.h ****     if (page) 
 1472              		.loc 2 199 20 view .LVU372
 1473              	.LBB113:
 200:./include/linux/mm_type.h **** 	{
 1474              		.loc 2 200 5 view .LVU373
 1475 001e F7E7     		b	.L79
 1476              	.LVL128:
 1477              	.L81:
 1478              	.LCFI31:
 1479              		.cfi_def_cfa_offset 0
 1480              		.cfi_restore 4
ARM GAS  /tmp/ccnTZmpF.s 			page 64


 1481              		.cfi_restore 14
 200:./include/linux/mm_type.h **** 	{
 1482              		.loc 2 200 5 is_stmt 0 view .LVU374
 1483 0020 7047     		bx	lr
 1484              	.LBE113:
 1485              	.LBE116:
 1486              		.cfi_endproc
 1487              	.LFE914:
 1489              		.section	.text.__put_page,"ax",%progbits
 1490              		.align	1
 1491              		.syntax unified
 1492              		.thumb
 1493              		.thumb_func
 1495              	__put_page:
 1496              	.LVL129:
 1497              	.LFB917:
 258:./include/linux/mm_type.h ****     if (page && atomic_dec_and_test(&page->_refcount) ) {
 1498              		.loc 2 258 49 is_stmt 1 view -0
 1499              		.cfi_startproc
 1500              		@ args = 0, pretend = 0, frame = 0
 1501              		@ frame_needed = 0, uses_anonymous_args = 0
 258:./include/linux/mm_type.h ****     if (page && atomic_dec_and_test(&page->_refcount) ) {
 1502              		.loc 2 258 49 is_stmt 0 view .LVU376
 1503 0000 08B5     		push	{r3, lr}
 1504              	.LCFI32:
 1505              		.cfi_def_cfa_offset 8
 1506              		.cfi_offset 3, -8
 1507              		.cfi_offset 14, -4
 259:./include/linux/mm_type.h ****         __free_pages(page, 0);
 1508              		.loc 2 259 5 is_stmt 1 view .LVU377
 259:./include/linux/mm_type.h ****         __free_pages(page, 0);
 1509              		.loc 2 259 8 is_stmt 0 view .LVU378
 1510 0002 0246     		mov	r2, r0
 1511 0004 58B1     		cbz	r0, .L86
 259:./include/linux/mm_type.h ****         __free_pages(page, 0);
 1512              		.loc 2 259 17 discriminator 1 view .LVU379
 1513 0006 00F11C03 		add	r3, r0, #28
 1514              	.LBB117:
 1515              	.LBI117:
 1516              		.file 7 "./include/linux/atomic/atomic-instrumented.h"
   1:./include/linux/atomic/atomic-instrumented.h **** // SPDX-License-Identifier: GPL-2.0
   2:./include/linux/atomic/atomic-instrumented.h **** 
   3:./include/linux/atomic/atomic-instrumented.h **** // Generated by scripts/atomic/gen-atomic-instrumented.sh 
   4:./include/linux/atomic/atomic-instrumented.h **** // DO NOT MODIFY THIS FILE DIRECTLY
   5:./include/linux/atomic/atomic-instrumented.h **** 
   6:./include/linux/atomic/atomic-instrumented.h **** /*
   7:./include/linux/atomic/atomic-instrumented.h ****  * This file provoides atomic operations with explicit instrumentation (e.g.
   8:./include/linux/atomic/atomic-instrumented.h ****  * KASAN, KCSAN), which should be used unless it is necessary to avoid
   9:./include/linux/atomic/atomic-instrumented.h ****  * instrumentation. Where it is necessary to aovid instrumenation, the
  10:./include/linux/atomic/atomic-instrumented.h ****  * raw_atomic*() operations should be used.
  11:./include/linux/atomic/atomic-instrumented.h ****  */
  12:./include/linux/atomic/atomic-instrumented.h **** #ifndef _LINUX_ATOMIC_INSTRUMENTED_H
  13:./include/linux/atomic/atomic-instrumented.h **** #define _LINUX_ATOMIC_INSTRUMENTED_H
  14:./include/linux/atomic/atomic-instrumented.h **** 
  15:./include/linux/atomic/atomic-instrumented.h **** #include <linux/build_bug.h>
  16:./include/linux/atomic/atomic-instrumented.h **** #include <linux/compiler.h>
  17:./include/linux/atomic/atomic-instrumented.h **** #include <linux/instrumented.h>
ARM GAS  /tmp/ccnTZmpF.s 			page 65


  18:./include/linux/atomic/atomic-instrumented.h **** 
  19:./include/linux/atomic/atomic-instrumented.h **** /**
  20:./include/linux/atomic/atomic-instrumented.h ****  * atomic_read() - atomic load with relaxed ordering
  21:./include/linux/atomic/atomic-instrumented.h ****  * @v: pointer to atomic_t
  22:./include/linux/atomic/atomic-instrumented.h ****  *
  23:./include/linux/atomic/atomic-instrumented.h ****  * Atomically loads the value of @v with relaxed ordering.
  24:./include/linux/atomic/atomic-instrumented.h ****  *
  25:./include/linux/atomic/atomic-instrumented.h ****  * Unsafe to use in noinstr code; use raw_atomic_read() there.
  26:./include/linux/atomic/atomic-instrumented.h ****  *
  27:./include/linux/atomic/atomic-instrumented.h ****  * Return: The value loaded from @v.
  28:./include/linux/atomic/atomic-instrumented.h ****  */
  29:./include/linux/atomic/atomic-instrumented.h **** static __always_inline int
  30:./include/linux/atomic/atomic-instrumented.h **** atomic_read(const atomic_t *v)
  31:./include/linux/atomic/atomic-instrumented.h **** {
  32:./include/linux/atomic/atomic-instrumented.h **** 	instrument_atomic_read(v, sizeof(*v));
  33:./include/linux/atomic/atomic-instrumented.h **** 	return raw_atomic_read(v);
  34:./include/linux/atomic/atomic-instrumented.h **** }
  35:./include/linux/atomic/atomic-instrumented.h **** 
  36:./include/linux/atomic/atomic-instrumented.h **** /**
  37:./include/linux/atomic/atomic-instrumented.h ****  * atomic_read_acquire() - atomic load with acquire ordering
  38:./include/linux/atomic/atomic-instrumented.h ****  * @v: pointer to atomic_t
  39:./include/linux/atomic/atomic-instrumented.h ****  *
  40:./include/linux/atomic/atomic-instrumented.h ****  * Atomically loads the value of @v with acquire ordering.
  41:./include/linux/atomic/atomic-instrumented.h ****  *
  42:./include/linux/atomic/atomic-instrumented.h ****  * Unsafe to use in noinstr code; use raw_atomic_read_acquire() there.
  43:./include/linux/atomic/atomic-instrumented.h ****  *
  44:./include/linux/atomic/atomic-instrumented.h ****  * Return: The value loaded from @v.
  45:./include/linux/atomic/atomic-instrumented.h ****  */
  46:./include/linux/atomic/atomic-instrumented.h **** static __always_inline int
  47:./include/linux/atomic/atomic-instrumented.h **** atomic_read_acquire(const atomic_t *v)
  48:./include/linux/atomic/atomic-instrumented.h **** {
  49:./include/linux/atomic/atomic-instrumented.h **** 	instrument_atomic_read(v, sizeof(*v));
  50:./include/linux/atomic/atomic-instrumented.h **** 	return raw_atomic_read_acquire(v);
  51:./include/linux/atomic/atomic-instrumented.h **** }
  52:./include/linux/atomic/atomic-instrumented.h **** 
  53:./include/linux/atomic/atomic-instrumented.h **** /**
  54:./include/linux/atomic/atomic-instrumented.h ****  * atomic_set() - atomic set with relaxed ordering
  55:./include/linux/atomic/atomic-instrumented.h ****  * @v: pointer to atomic_t
  56:./include/linux/atomic/atomic-instrumented.h ****  * @i: int value to assign
  57:./include/linux/atomic/atomic-instrumented.h ****  *
  58:./include/linux/atomic/atomic-instrumented.h ****  * Atomically sets @v to @i with relaxed ordering.
  59:./include/linux/atomic/atomic-instrumented.h ****  *
  60:./include/linux/atomic/atomic-instrumented.h ****  * Unsafe to use in noinstr code; use raw_atomic_set() there.
  61:./include/linux/atomic/atomic-instrumented.h ****  *
  62:./include/linux/atomic/atomic-instrumented.h ****  * Return: Nothing.
  63:./include/linux/atomic/atomic-instrumented.h ****  */
  64:./include/linux/atomic/atomic-instrumented.h **** static __always_inline void
  65:./include/linux/atomic/atomic-instrumented.h **** atomic_set(atomic_t *v, int i)
  66:./include/linux/atomic/atomic-instrumented.h **** {
  67:./include/linux/atomic/atomic-instrumented.h **** 	instrument_atomic_write(v, sizeof(*v));
  68:./include/linux/atomic/atomic-instrumented.h **** 	raw_atomic_set(v, i);
  69:./include/linux/atomic/atomic-instrumented.h **** }
  70:./include/linux/atomic/atomic-instrumented.h **** 
  71:./include/linux/atomic/atomic-instrumented.h **** /**
  72:./include/linux/atomic/atomic-instrumented.h ****  * atomic_set_release() - atomic set with release ordering
  73:./include/linux/atomic/atomic-instrumented.h ****  * @v: pointer to atomic_t
  74:./include/linux/atomic/atomic-instrumented.h ****  * @i: int value to assign
ARM GAS  /tmp/ccnTZmpF.s 			page 66


  75:./include/linux/atomic/atomic-instrumented.h ****  *
  76:./include/linux/atomic/atomic-instrumented.h ****  * Atomically sets @v to @i with release ordering.
  77:./include/linux/atomic/atomic-instrumented.h ****  *
  78:./include/linux/atomic/atomic-instrumented.h ****  * Unsafe to use in noinstr code; use raw_atomic_set_release() there.
  79:./include/linux/atomic/atomic-instrumented.h ****  *
  80:./include/linux/atomic/atomic-instrumented.h ****  * Return: Nothing.
  81:./include/linux/atomic/atomic-instrumented.h ****  */
  82:./include/linux/atomic/atomic-instrumented.h **** static __always_inline void
  83:./include/linux/atomic/atomic-instrumented.h **** atomic_set_release(atomic_t *v, int i)
  84:./include/linux/atomic/atomic-instrumented.h **** {
  85:./include/linux/atomic/atomic-instrumented.h **** 	kcsan_release();
  86:./include/linux/atomic/atomic-instrumented.h **** 	instrument_atomic_write(v, sizeof(*v));
  87:./include/linux/atomic/atomic-instrumented.h **** 	raw_atomic_set_release(v, i);
  88:./include/linux/atomic/atomic-instrumented.h **** }
  89:./include/linux/atomic/atomic-instrumented.h **** 
  90:./include/linux/atomic/atomic-instrumented.h **** /**
  91:./include/linux/atomic/atomic-instrumented.h ****  * atomic_add() - atomic add with relaxed ordering
  92:./include/linux/atomic/atomic-instrumented.h ****  * @i: int value to add
  93:./include/linux/atomic/atomic-instrumented.h ****  * @v: pointer to atomic_t
  94:./include/linux/atomic/atomic-instrumented.h ****  *
  95:./include/linux/atomic/atomic-instrumented.h ****  * Atomically updates @v to (@v + @i) with relaxed ordering.
  96:./include/linux/atomic/atomic-instrumented.h ****  *
  97:./include/linux/atomic/atomic-instrumented.h ****  * Unsafe to use in noinstr code; use raw_atomic_add() there.
  98:./include/linux/atomic/atomic-instrumented.h ****  *
  99:./include/linux/atomic/atomic-instrumented.h ****  * Return: Nothing.
 100:./include/linux/atomic/atomic-instrumented.h ****  */
 101:./include/linux/atomic/atomic-instrumented.h **** static __always_inline void
 102:./include/linux/atomic/atomic-instrumented.h **** atomic_add(int i, atomic_t *v)
 103:./include/linux/atomic/atomic-instrumented.h **** {
 104:./include/linux/atomic/atomic-instrumented.h **** 	instrument_atomic_read_write(v, sizeof(*v));
 105:./include/linux/atomic/atomic-instrumented.h **** 	raw_atomic_add(i, v);
 106:./include/linux/atomic/atomic-instrumented.h **** }
 107:./include/linux/atomic/atomic-instrumented.h **** 
 108:./include/linux/atomic/atomic-instrumented.h **** /**
 109:./include/linux/atomic/atomic-instrumented.h ****  * atomic_add_return() - atomic add with full ordering
 110:./include/linux/atomic/atomic-instrumented.h ****  * @i: int value to add
 111:./include/linux/atomic/atomic-instrumented.h ****  * @v: pointer to atomic_t
 112:./include/linux/atomic/atomic-instrumented.h ****  *
 113:./include/linux/atomic/atomic-instrumented.h ****  * Atomically updates @v to (@v + @i) with full ordering.
 114:./include/linux/atomic/atomic-instrumented.h ****  *
 115:./include/linux/atomic/atomic-instrumented.h ****  * Unsafe to use in noinstr code; use raw_atomic_add_return() there.
 116:./include/linux/atomic/atomic-instrumented.h ****  *
 117:./include/linux/atomic/atomic-instrumented.h ****  * Return: The updated value of @v.
 118:./include/linux/atomic/atomic-instrumented.h ****  */
 119:./include/linux/atomic/atomic-instrumented.h **** static __always_inline int
 120:./include/linux/atomic/atomic-instrumented.h **** atomic_add_return(int i, atomic_t *v)
 121:./include/linux/atomic/atomic-instrumented.h **** {
 122:./include/linux/atomic/atomic-instrumented.h **** 	kcsan_mb();
 123:./include/linux/atomic/atomic-instrumented.h **** 	instrument_atomic_read_write(v, sizeof(*v));
 124:./include/linux/atomic/atomic-instrumented.h **** 	return raw_atomic_add_return(i, v);
 125:./include/linux/atomic/atomic-instrumented.h **** }
 126:./include/linux/atomic/atomic-instrumented.h **** 
 127:./include/linux/atomic/atomic-instrumented.h **** /**
 128:./include/linux/atomic/atomic-instrumented.h ****  * atomic_add_return_acquire() - atomic add with acquire ordering
 129:./include/linux/atomic/atomic-instrumented.h ****  * @i: int value to add
 130:./include/linux/atomic/atomic-instrumented.h ****  * @v: pointer to atomic_t
 131:./include/linux/atomic/atomic-instrumented.h ****  *
ARM GAS  /tmp/ccnTZmpF.s 			page 67


 132:./include/linux/atomic/atomic-instrumented.h ****  * Atomically updates @v to (@v + @i) with acquire ordering.
 133:./include/linux/atomic/atomic-instrumented.h ****  *
 134:./include/linux/atomic/atomic-instrumented.h ****  * Unsafe to use in noinstr code; use raw_atomic_add_return_acquire() there.
 135:./include/linux/atomic/atomic-instrumented.h ****  *
 136:./include/linux/atomic/atomic-instrumented.h ****  * Return: The updated value of @v.
 137:./include/linux/atomic/atomic-instrumented.h ****  */
 138:./include/linux/atomic/atomic-instrumented.h **** static __always_inline int
 139:./include/linux/atomic/atomic-instrumented.h **** atomic_add_return_acquire(int i, atomic_t *v)
 140:./include/linux/atomic/atomic-instrumented.h **** {
 141:./include/linux/atomic/atomic-instrumented.h **** 	instrument_atomic_read_write(v, sizeof(*v));
 142:./include/linux/atomic/atomic-instrumented.h **** 	return raw_atomic_add_return_acquire(i, v);
 143:./include/linux/atomic/atomic-instrumented.h **** }
 144:./include/linux/atomic/atomic-instrumented.h **** 
 145:./include/linux/atomic/atomic-instrumented.h **** /**
 146:./include/linux/atomic/atomic-instrumented.h ****  * atomic_add_return_release() - atomic add with release ordering
 147:./include/linux/atomic/atomic-instrumented.h ****  * @i: int value to add
 148:./include/linux/atomic/atomic-instrumented.h ****  * @v: pointer to atomic_t
 149:./include/linux/atomic/atomic-instrumented.h ****  *
 150:./include/linux/atomic/atomic-instrumented.h ****  * Atomically updates @v to (@v + @i) with release ordering.
 151:./include/linux/atomic/atomic-instrumented.h ****  *
 152:./include/linux/atomic/atomic-instrumented.h ****  * Unsafe to use in noinstr code; use raw_atomic_add_return_release() there.
 153:./include/linux/atomic/atomic-instrumented.h ****  *
 154:./include/linux/atomic/atomic-instrumented.h ****  * Return: The updated value of @v.
 155:./include/linux/atomic/atomic-instrumented.h ****  */
 156:./include/linux/atomic/atomic-instrumented.h **** static __always_inline int
 157:./include/linux/atomic/atomic-instrumented.h **** atomic_add_return_release(int i, atomic_t *v)
 158:./include/linux/atomic/atomic-instrumented.h **** {
 159:./include/linux/atomic/atomic-instrumented.h **** 	kcsan_release();
 160:./include/linux/atomic/atomic-instrumented.h **** 	instrument_atomic_read_write(v, sizeof(*v));
 161:./include/linux/atomic/atomic-instrumented.h **** 	return raw_atomic_add_return_release(i, v);
 162:./include/linux/atomic/atomic-instrumented.h **** }
 163:./include/linux/atomic/atomic-instrumented.h **** 
 164:./include/linux/atomic/atomic-instrumented.h **** /**
 165:./include/linux/atomic/atomic-instrumented.h ****  * atomic_add_return_relaxed() - atomic add with relaxed ordering
 166:./include/linux/atomic/atomic-instrumented.h ****  * @i: int value to add
 167:./include/linux/atomic/atomic-instrumented.h ****  * @v: pointer to atomic_t
 168:./include/linux/atomic/atomic-instrumented.h ****  *
 169:./include/linux/atomic/atomic-instrumented.h ****  * Atomically updates @v to (@v + @i) with relaxed ordering.
 170:./include/linux/atomic/atomic-instrumented.h ****  *
 171:./include/linux/atomic/atomic-instrumented.h ****  * Unsafe to use in noinstr code; use raw_atomic_add_return_relaxed() there.
 172:./include/linux/atomic/atomic-instrumented.h ****  *
 173:./include/linux/atomic/atomic-instrumented.h ****  * Return: The updated value of @v.
 174:./include/linux/atomic/atomic-instrumented.h ****  */
 175:./include/linux/atomic/atomic-instrumented.h **** static __always_inline int
 176:./include/linux/atomic/atomic-instrumented.h **** atomic_add_return_relaxed(int i, atomic_t *v)
 177:./include/linux/atomic/atomic-instrumented.h **** {
 178:./include/linux/atomic/atomic-instrumented.h **** 	instrument_atomic_read_write(v, sizeof(*v));
 179:./include/linux/atomic/atomic-instrumented.h **** 	return raw_atomic_add_return_relaxed(i, v);
 180:./include/linux/atomic/atomic-instrumented.h **** }
 181:./include/linux/atomic/atomic-instrumented.h **** 
 182:./include/linux/atomic/atomic-instrumented.h **** /**
 183:./include/linux/atomic/atomic-instrumented.h ****  * atomic_fetch_add() - atomic add with full ordering
 184:./include/linux/atomic/atomic-instrumented.h ****  * @i: int value to add
 185:./include/linux/atomic/atomic-instrumented.h ****  * @v: pointer to atomic_t
 186:./include/linux/atomic/atomic-instrumented.h ****  *
 187:./include/linux/atomic/atomic-instrumented.h ****  * Atomically updates @v to (@v + @i) with full ordering.
 188:./include/linux/atomic/atomic-instrumented.h ****  *
ARM GAS  /tmp/ccnTZmpF.s 			page 68


 189:./include/linux/atomic/atomic-instrumented.h ****  * Unsafe to use in noinstr code; use raw_atomic_fetch_add() there.
 190:./include/linux/atomic/atomic-instrumented.h ****  *
 191:./include/linux/atomic/atomic-instrumented.h ****  * Return: The original value of @v.
 192:./include/linux/atomic/atomic-instrumented.h ****  */
 193:./include/linux/atomic/atomic-instrumented.h **** static __always_inline int
 194:./include/linux/atomic/atomic-instrumented.h **** atomic_fetch_add(int i, atomic_t *v)
 195:./include/linux/atomic/atomic-instrumented.h **** {
 196:./include/linux/atomic/atomic-instrumented.h **** 	kcsan_mb();
 197:./include/linux/atomic/atomic-instrumented.h **** 	instrument_atomic_read_write(v, sizeof(*v));
 198:./include/linux/atomic/atomic-instrumented.h **** 	return raw_atomic_fetch_add(i, v);
 199:./include/linux/atomic/atomic-instrumented.h **** }
 200:./include/linux/atomic/atomic-instrumented.h **** 
 201:./include/linux/atomic/atomic-instrumented.h **** /**
 202:./include/linux/atomic/atomic-instrumented.h ****  * atomic_fetch_add_acquire() - atomic add with acquire ordering
 203:./include/linux/atomic/atomic-instrumented.h ****  * @i: int value to add
 204:./include/linux/atomic/atomic-instrumented.h ****  * @v: pointer to atomic_t
 205:./include/linux/atomic/atomic-instrumented.h ****  *
 206:./include/linux/atomic/atomic-instrumented.h ****  * Atomically updates @v to (@v + @i) with acquire ordering.
 207:./include/linux/atomic/atomic-instrumented.h ****  *
 208:./include/linux/atomic/atomic-instrumented.h ****  * Unsafe to use in noinstr code; use raw_atomic_fetch_add_acquire() there.
 209:./include/linux/atomic/atomic-instrumented.h ****  *
 210:./include/linux/atomic/atomic-instrumented.h ****  * Return: The original value of @v.
 211:./include/linux/atomic/atomic-instrumented.h ****  */
 212:./include/linux/atomic/atomic-instrumented.h **** static __always_inline int
 213:./include/linux/atomic/atomic-instrumented.h **** atomic_fetch_add_acquire(int i, atomic_t *v)
 214:./include/linux/atomic/atomic-instrumented.h **** {
 215:./include/linux/atomic/atomic-instrumented.h **** 	instrument_atomic_read_write(v, sizeof(*v));
 216:./include/linux/atomic/atomic-instrumented.h **** 	return raw_atomic_fetch_add_acquire(i, v);
 217:./include/linux/atomic/atomic-instrumented.h **** }
 218:./include/linux/atomic/atomic-instrumented.h **** 
 219:./include/linux/atomic/atomic-instrumented.h **** /**
 220:./include/linux/atomic/atomic-instrumented.h ****  * atomic_fetch_add_release() - atomic add with release ordering
 221:./include/linux/atomic/atomic-instrumented.h ****  * @i: int value to add
 222:./include/linux/atomic/atomic-instrumented.h ****  * @v: pointer to atomic_t
 223:./include/linux/atomic/atomic-instrumented.h ****  *
 224:./include/linux/atomic/atomic-instrumented.h ****  * Atomically updates @v to (@v + @i) with release ordering.
 225:./include/linux/atomic/atomic-instrumented.h ****  *
 226:./include/linux/atomic/atomic-instrumented.h ****  * Unsafe to use in noinstr code; use raw_atomic_fetch_add_release() there.
 227:./include/linux/atomic/atomic-instrumented.h ****  *
 228:./include/linux/atomic/atomic-instrumented.h ****  * Return: The original value of @v.
 229:./include/linux/atomic/atomic-instrumented.h ****  */
 230:./include/linux/atomic/atomic-instrumented.h **** static __always_inline int
 231:./include/linux/atomic/atomic-instrumented.h **** atomic_fetch_add_release(int i, atomic_t *v)
 232:./include/linux/atomic/atomic-instrumented.h **** {
 233:./include/linux/atomic/atomic-instrumented.h **** 	kcsan_release();
 234:./include/linux/atomic/atomic-instrumented.h **** 	instrument_atomic_read_write(v, sizeof(*v));
 235:./include/linux/atomic/atomic-instrumented.h **** 	return raw_atomic_fetch_add_release(i, v);
 236:./include/linux/atomic/atomic-instrumented.h **** }
 237:./include/linux/atomic/atomic-instrumented.h **** 
 238:./include/linux/atomic/atomic-instrumented.h **** /**
 239:./include/linux/atomic/atomic-instrumented.h ****  * atomic_fetch_add_relaxed() - atomic add with relaxed ordering
 240:./include/linux/atomic/atomic-instrumented.h ****  * @i: int value to add
 241:./include/linux/atomic/atomic-instrumented.h ****  * @v: pointer to atomic_t
 242:./include/linux/atomic/atomic-instrumented.h ****  *
 243:./include/linux/atomic/atomic-instrumented.h ****  * Atomically updates @v to (@v + @i) with relaxed ordering.
 244:./include/linux/atomic/atomic-instrumented.h ****  *
 245:./include/linux/atomic/atomic-instrumented.h ****  * Unsafe to use in noinstr code; use raw_atomic_fetch_add_relaxed() there.
ARM GAS  /tmp/ccnTZmpF.s 			page 69


 246:./include/linux/atomic/atomic-instrumented.h ****  *
 247:./include/linux/atomic/atomic-instrumented.h ****  * Return: The original value of @v.
 248:./include/linux/atomic/atomic-instrumented.h ****  */
 249:./include/linux/atomic/atomic-instrumented.h **** static __always_inline int
 250:./include/linux/atomic/atomic-instrumented.h **** atomic_fetch_add_relaxed(int i, atomic_t *v)
 251:./include/linux/atomic/atomic-instrumented.h **** {
 252:./include/linux/atomic/atomic-instrumented.h **** 	instrument_atomic_read_write(v, sizeof(*v));
 253:./include/linux/atomic/atomic-instrumented.h **** 	return raw_atomic_fetch_add_relaxed(i, v);
 254:./include/linux/atomic/atomic-instrumented.h **** }
 255:./include/linux/atomic/atomic-instrumented.h **** 
 256:./include/linux/atomic/atomic-instrumented.h **** /**
 257:./include/linux/atomic/atomic-instrumented.h ****  * atomic_sub() - atomic subtract with relaxed ordering
 258:./include/linux/atomic/atomic-instrumented.h ****  * @i: int value to subtract
 259:./include/linux/atomic/atomic-instrumented.h ****  * @v: pointer to atomic_t
 260:./include/linux/atomic/atomic-instrumented.h ****  *
 261:./include/linux/atomic/atomic-instrumented.h ****  * Atomically updates @v to (@v - @i) with relaxed ordering.
 262:./include/linux/atomic/atomic-instrumented.h ****  *
 263:./include/linux/atomic/atomic-instrumented.h ****  * Unsafe to use in noinstr code; use raw_atomic_sub() there.
 264:./include/linux/atomic/atomic-instrumented.h ****  *
 265:./include/linux/atomic/atomic-instrumented.h ****  * Return: Nothing.
 266:./include/linux/atomic/atomic-instrumented.h ****  */
 267:./include/linux/atomic/atomic-instrumented.h **** static __always_inline void
 268:./include/linux/atomic/atomic-instrumented.h **** atomic_sub(int i, atomic_t *v)
 269:./include/linux/atomic/atomic-instrumented.h **** {
 270:./include/linux/atomic/atomic-instrumented.h **** 	instrument_atomic_read_write(v, sizeof(*v));
 271:./include/linux/atomic/atomic-instrumented.h **** 	raw_atomic_sub(i, v);
 272:./include/linux/atomic/atomic-instrumented.h **** }
 273:./include/linux/atomic/atomic-instrumented.h **** 
 274:./include/linux/atomic/atomic-instrumented.h **** /**
 275:./include/linux/atomic/atomic-instrumented.h ****  * atomic_sub_return() - atomic subtract with full ordering
 276:./include/linux/atomic/atomic-instrumented.h ****  * @i: int value to subtract
 277:./include/linux/atomic/atomic-instrumented.h ****  * @v: pointer to atomic_t
 278:./include/linux/atomic/atomic-instrumented.h ****  *
 279:./include/linux/atomic/atomic-instrumented.h ****  * Atomically updates @v to (@v - @i) with full ordering.
 280:./include/linux/atomic/atomic-instrumented.h ****  *
 281:./include/linux/atomic/atomic-instrumented.h ****  * Unsafe to use in noinstr code; use raw_atomic_sub_return() there.
 282:./include/linux/atomic/atomic-instrumented.h ****  *
 283:./include/linux/atomic/atomic-instrumented.h ****  * Return: The updated value of @v.
 284:./include/linux/atomic/atomic-instrumented.h ****  */
 285:./include/linux/atomic/atomic-instrumented.h **** static __always_inline int
 286:./include/linux/atomic/atomic-instrumented.h **** atomic_sub_return(int i, atomic_t *v)
 287:./include/linux/atomic/atomic-instrumented.h **** {
 288:./include/linux/atomic/atomic-instrumented.h **** 	kcsan_mb();
 289:./include/linux/atomic/atomic-instrumented.h **** 	instrument_atomic_read_write(v, sizeof(*v));
 290:./include/linux/atomic/atomic-instrumented.h **** 	return raw_atomic_sub_return(i, v);
 291:./include/linux/atomic/atomic-instrumented.h **** }
 292:./include/linux/atomic/atomic-instrumented.h **** 
 293:./include/linux/atomic/atomic-instrumented.h **** /**
 294:./include/linux/atomic/atomic-instrumented.h ****  * atomic_sub_return_acquire() - atomic subtract with acquire ordering
 295:./include/linux/atomic/atomic-instrumented.h ****  * @i: int value to subtract
 296:./include/linux/atomic/atomic-instrumented.h ****  * @v: pointer to atomic_t
 297:./include/linux/atomic/atomic-instrumented.h ****  *
 298:./include/linux/atomic/atomic-instrumented.h ****  * Atomically updates @v to (@v - @i) with acquire ordering.
 299:./include/linux/atomic/atomic-instrumented.h ****  *
 300:./include/linux/atomic/atomic-instrumented.h ****  * Unsafe to use in noinstr code; use raw_atomic_sub_return_acquire() there.
 301:./include/linux/atomic/atomic-instrumented.h ****  *
 302:./include/linux/atomic/atomic-instrumented.h ****  * Return: The updated value of @v.
ARM GAS  /tmp/ccnTZmpF.s 			page 70


 303:./include/linux/atomic/atomic-instrumented.h ****  */
 304:./include/linux/atomic/atomic-instrumented.h **** static __always_inline int
 305:./include/linux/atomic/atomic-instrumented.h **** atomic_sub_return_acquire(int i, atomic_t *v)
 306:./include/linux/atomic/atomic-instrumented.h **** {
 307:./include/linux/atomic/atomic-instrumented.h **** 	instrument_atomic_read_write(v, sizeof(*v));
 308:./include/linux/atomic/atomic-instrumented.h **** 	return raw_atomic_sub_return_acquire(i, v);
 309:./include/linux/atomic/atomic-instrumented.h **** }
 310:./include/linux/atomic/atomic-instrumented.h **** 
 311:./include/linux/atomic/atomic-instrumented.h **** /**
 312:./include/linux/atomic/atomic-instrumented.h ****  * atomic_sub_return_release() - atomic subtract with release ordering
 313:./include/linux/atomic/atomic-instrumented.h ****  * @i: int value to subtract
 314:./include/linux/atomic/atomic-instrumented.h ****  * @v: pointer to atomic_t
 315:./include/linux/atomic/atomic-instrumented.h ****  *
 316:./include/linux/atomic/atomic-instrumented.h ****  * Atomically updates @v to (@v - @i) with release ordering.
 317:./include/linux/atomic/atomic-instrumented.h ****  *
 318:./include/linux/atomic/atomic-instrumented.h ****  * Unsafe to use in noinstr code; use raw_atomic_sub_return_release() there.
 319:./include/linux/atomic/atomic-instrumented.h ****  *
 320:./include/linux/atomic/atomic-instrumented.h ****  * Return: The updated value of @v.
 321:./include/linux/atomic/atomic-instrumented.h ****  */
 322:./include/linux/atomic/atomic-instrumented.h **** static __always_inline int
 323:./include/linux/atomic/atomic-instrumented.h **** atomic_sub_return_release(int i, atomic_t *v)
 324:./include/linux/atomic/atomic-instrumented.h **** {
 325:./include/linux/atomic/atomic-instrumented.h **** 	kcsan_release();
 326:./include/linux/atomic/atomic-instrumented.h **** 	instrument_atomic_read_write(v, sizeof(*v));
 327:./include/linux/atomic/atomic-instrumented.h **** 	return raw_atomic_sub_return_release(i, v);
 328:./include/linux/atomic/atomic-instrumented.h **** }
 329:./include/linux/atomic/atomic-instrumented.h **** 
 330:./include/linux/atomic/atomic-instrumented.h **** /**
 331:./include/linux/atomic/atomic-instrumented.h ****  * atomic_sub_return_relaxed() - atomic subtract with relaxed ordering
 332:./include/linux/atomic/atomic-instrumented.h ****  * @i: int value to subtract
 333:./include/linux/atomic/atomic-instrumented.h ****  * @v: pointer to atomic_t
 334:./include/linux/atomic/atomic-instrumented.h ****  *
 335:./include/linux/atomic/atomic-instrumented.h ****  * Atomically updates @v to (@v - @i) with relaxed ordering.
 336:./include/linux/atomic/atomic-instrumented.h ****  *
 337:./include/linux/atomic/atomic-instrumented.h ****  * Unsafe to use in noinstr code; use raw_atomic_sub_return_relaxed() there.
 338:./include/linux/atomic/atomic-instrumented.h ****  *
 339:./include/linux/atomic/atomic-instrumented.h ****  * Return: The updated value of @v.
 340:./include/linux/atomic/atomic-instrumented.h ****  */
 341:./include/linux/atomic/atomic-instrumented.h **** static __always_inline int
 342:./include/linux/atomic/atomic-instrumented.h **** atomic_sub_return_relaxed(int i, atomic_t *v)
 343:./include/linux/atomic/atomic-instrumented.h **** {
 344:./include/linux/atomic/atomic-instrumented.h **** 	instrument_atomic_read_write(v, sizeof(*v));
 345:./include/linux/atomic/atomic-instrumented.h **** 	return raw_atomic_sub_return_relaxed(i, v);
 346:./include/linux/atomic/atomic-instrumented.h **** }
 347:./include/linux/atomic/atomic-instrumented.h **** 
 348:./include/linux/atomic/atomic-instrumented.h **** /**
 349:./include/linux/atomic/atomic-instrumented.h ****  * atomic_fetch_sub() - atomic subtract with full ordering
 350:./include/linux/atomic/atomic-instrumented.h ****  * @i: int value to subtract
 351:./include/linux/atomic/atomic-instrumented.h ****  * @v: pointer to atomic_t
 352:./include/linux/atomic/atomic-instrumented.h ****  *
 353:./include/linux/atomic/atomic-instrumented.h ****  * Atomically updates @v to (@v - @i) with full ordering.
 354:./include/linux/atomic/atomic-instrumented.h ****  *
 355:./include/linux/atomic/atomic-instrumented.h ****  * Unsafe to use in noinstr code; use raw_atomic_fetch_sub() there.
 356:./include/linux/atomic/atomic-instrumented.h ****  *
 357:./include/linux/atomic/atomic-instrumented.h ****  * Return: The original value of @v.
 358:./include/linux/atomic/atomic-instrumented.h ****  */
 359:./include/linux/atomic/atomic-instrumented.h **** static __always_inline int
ARM GAS  /tmp/ccnTZmpF.s 			page 71


 360:./include/linux/atomic/atomic-instrumented.h **** atomic_fetch_sub(int i, atomic_t *v)
 361:./include/linux/atomic/atomic-instrumented.h **** {
 362:./include/linux/atomic/atomic-instrumented.h **** 	kcsan_mb();
 363:./include/linux/atomic/atomic-instrumented.h **** 	instrument_atomic_read_write(v, sizeof(*v));
 364:./include/linux/atomic/atomic-instrumented.h **** 	return raw_atomic_fetch_sub(i, v);
 365:./include/linux/atomic/atomic-instrumented.h **** }
 366:./include/linux/atomic/atomic-instrumented.h **** 
 367:./include/linux/atomic/atomic-instrumented.h **** /**
 368:./include/linux/atomic/atomic-instrumented.h ****  * atomic_fetch_sub_acquire() - atomic subtract with acquire ordering
 369:./include/linux/atomic/atomic-instrumented.h ****  * @i: int value to subtract
 370:./include/linux/atomic/atomic-instrumented.h ****  * @v: pointer to atomic_t
 371:./include/linux/atomic/atomic-instrumented.h ****  *
 372:./include/linux/atomic/atomic-instrumented.h ****  * Atomically updates @v to (@v - @i) with acquire ordering.
 373:./include/linux/atomic/atomic-instrumented.h ****  *
 374:./include/linux/atomic/atomic-instrumented.h ****  * Unsafe to use in noinstr code; use raw_atomic_fetch_sub_acquire() there.
 375:./include/linux/atomic/atomic-instrumented.h ****  *
 376:./include/linux/atomic/atomic-instrumented.h ****  * Return: The original value of @v.
 377:./include/linux/atomic/atomic-instrumented.h ****  */
 378:./include/linux/atomic/atomic-instrumented.h **** static __always_inline int
 379:./include/linux/atomic/atomic-instrumented.h **** atomic_fetch_sub_acquire(int i, atomic_t *v)
 380:./include/linux/atomic/atomic-instrumented.h **** {
 381:./include/linux/atomic/atomic-instrumented.h **** 	instrument_atomic_read_write(v, sizeof(*v));
 382:./include/linux/atomic/atomic-instrumented.h **** 	return raw_atomic_fetch_sub_acquire(i, v);
 383:./include/linux/atomic/atomic-instrumented.h **** }
 384:./include/linux/atomic/atomic-instrumented.h **** 
 385:./include/linux/atomic/atomic-instrumented.h **** /**
 386:./include/linux/atomic/atomic-instrumented.h ****  * atomic_fetch_sub_release() - atomic subtract with release ordering
 387:./include/linux/atomic/atomic-instrumented.h ****  * @i: int value to subtract
 388:./include/linux/atomic/atomic-instrumented.h ****  * @v: pointer to atomic_t
 389:./include/linux/atomic/atomic-instrumented.h ****  *
 390:./include/linux/atomic/atomic-instrumented.h ****  * Atomically updates @v to (@v - @i) with release ordering.
 391:./include/linux/atomic/atomic-instrumented.h ****  *
 392:./include/linux/atomic/atomic-instrumented.h ****  * Unsafe to use in noinstr code; use raw_atomic_fetch_sub_release() there.
 393:./include/linux/atomic/atomic-instrumented.h ****  *
 394:./include/linux/atomic/atomic-instrumented.h ****  * Return: The original value of @v.
 395:./include/linux/atomic/atomic-instrumented.h ****  */
 396:./include/linux/atomic/atomic-instrumented.h **** static __always_inline int
 397:./include/linux/atomic/atomic-instrumented.h **** atomic_fetch_sub_release(int i, atomic_t *v)
 398:./include/linux/atomic/atomic-instrumented.h **** {
 399:./include/linux/atomic/atomic-instrumented.h **** 	kcsan_release();
 400:./include/linux/atomic/atomic-instrumented.h **** 	instrument_atomic_read_write(v, sizeof(*v));
 401:./include/linux/atomic/atomic-instrumented.h **** 	return raw_atomic_fetch_sub_release(i, v);
 402:./include/linux/atomic/atomic-instrumented.h **** }
 403:./include/linux/atomic/atomic-instrumented.h **** 
 404:./include/linux/atomic/atomic-instrumented.h **** /**
 405:./include/linux/atomic/atomic-instrumented.h ****  * atomic_fetch_sub_relaxed() - atomic subtract with relaxed ordering
 406:./include/linux/atomic/atomic-instrumented.h ****  * @i: int value to subtract
 407:./include/linux/atomic/atomic-instrumented.h ****  * @v: pointer to atomic_t
 408:./include/linux/atomic/atomic-instrumented.h ****  *
 409:./include/linux/atomic/atomic-instrumented.h ****  * Atomically updates @v to (@v - @i) with relaxed ordering.
 410:./include/linux/atomic/atomic-instrumented.h ****  *
 411:./include/linux/atomic/atomic-instrumented.h ****  * Unsafe to use in noinstr code; use raw_atomic_fetch_sub_relaxed() there.
 412:./include/linux/atomic/atomic-instrumented.h ****  *
 413:./include/linux/atomic/atomic-instrumented.h ****  * Return: The original value of @v.
 414:./include/linux/atomic/atomic-instrumented.h ****  */
 415:./include/linux/atomic/atomic-instrumented.h **** static __always_inline int
 416:./include/linux/atomic/atomic-instrumented.h **** atomic_fetch_sub_relaxed(int i, atomic_t *v)
ARM GAS  /tmp/ccnTZmpF.s 			page 72


 417:./include/linux/atomic/atomic-instrumented.h **** {
 418:./include/linux/atomic/atomic-instrumented.h **** 	instrument_atomic_read_write(v, sizeof(*v));
 419:./include/linux/atomic/atomic-instrumented.h **** 	return raw_atomic_fetch_sub_relaxed(i, v);
 420:./include/linux/atomic/atomic-instrumented.h **** }
 421:./include/linux/atomic/atomic-instrumented.h **** 
 422:./include/linux/atomic/atomic-instrumented.h **** /**
 423:./include/linux/atomic/atomic-instrumented.h ****  * atomic_inc() - atomic increment with relaxed ordering
 424:./include/linux/atomic/atomic-instrumented.h ****  * @v: pointer to atomic_t
 425:./include/linux/atomic/atomic-instrumented.h ****  *
 426:./include/linux/atomic/atomic-instrumented.h ****  * Atomically updates @v to (@v + 1) with relaxed ordering.
 427:./include/linux/atomic/atomic-instrumented.h ****  *
 428:./include/linux/atomic/atomic-instrumented.h ****  * Unsafe to use in noinstr code; use raw_atomic_inc() there.
 429:./include/linux/atomic/atomic-instrumented.h ****  *
 430:./include/linux/atomic/atomic-instrumented.h ****  * Return: Nothing.
 431:./include/linux/atomic/atomic-instrumented.h ****  */
 432:./include/linux/atomic/atomic-instrumented.h **** static __always_inline void
 433:./include/linux/atomic/atomic-instrumented.h **** atomic_inc(atomic_t *v)
 434:./include/linux/atomic/atomic-instrumented.h **** {
 435:./include/linux/atomic/atomic-instrumented.h **** 	instrument_atomic_read_write(v, sizeof(*v));
 436:./include/linux/atomic/atomic-instrumented.h **** 	raw_atomic_inc(v);
 437:./include/linux/atomic/atomic-instrumented.h **** }
 438:./include/linux/atomic/atomic-instrumented.h **** 
 439:./include/linux/atomic/atomic-instrumented.h **** /**
 440:./include/linux/atomic/atomic-instrumented.h ****  * atomic_inc_return() - atomic increment with full ordering
 441:./include/linux/atomic/atomic-instrumented.h ****  * @v: pointer to atomic_t
 442:./include/linux/atomic/atomic-instrumented.h ****  *
 443:./include/linux/atomic/atomic-instrumented.h ****  * Atomically updates @v to (@v + 1) with full ordering.
 444:./include/linux/atomic/atomic-instrumented.h ****  *
 445:./include/linux/atomic/atomic-instrumented.h ****  * Unsafe to use in noinstr code; use raw_atomic_inc_return() there.
 446:./include/linux/atomic/atomic-instrumented.h ****  *
 447:./include/linux/atomic/atomic-instrumented.h ****  * Return: The updated value of @v.
 448:./include/linux/atomic/atomic-instrumented.h ****  */
 449:./include/linux/atomic/atomic-instrumented.h **** static __always_inline int
 450:./include/linux/atomic/atomic-instrumented.h **** atomic_inc_return(atomic_t *v)
 451:./include/linux/atomic/atomic-instrumented.h **** {
 452:./include/linux/atomic/atomic-instrumented.h **** 	kcsan_mb();
 453:./include/linux/atomic/atomic-instrumented.h **** 	instrument_atomic_read_write(v, sizeof(*v));
 454:./include/linux/atomic/atomic-instrumented.h **** 	return raw_atomic_inc_return(v);
 455:./include/linux/atomic/atomic-instrumented.h **** }
 456:./include/linux/atomic/atomic-instrumented.h **** 
 457:./include/linux/atomic/atomic-instrumented.h **** /**
 458:./include/linux/atomic/atomic-instrumented.h ****  * atomic_inc_return_acquire() - atomic increment with acquire ordering
 459:./include/linux/atomic/atomic-instrumented.h ****  * @v: pointer to atomic_t
 460:./include/linux/atomic/atomic-instrumented.h ****  *
 461:./include/linux/atomic/atomic-instrumented.h ****  * Atomically updates @v to (@v + 1) with acquire ordering.
 462:./include/linux/atomic/atomic-instrumented.h ****  *
 463:./include/linux/atomic/atomic-instrumented.h ****  * Unsafe to use in noinstr code; use raw_atomic_inc_return_acquire() there.
 464:./include/linux/atomic/atomic-instrumented.h ****  *
 465:./include/linux/atomic/atomic-instrumented.h ****  * Return: The updated value of @v.
 466:./include/linux/atomic/atomic-instrumented.h ****  */
 467:./include/linux/atomic/atomic-instrumented.h **** static __always_inline int
 468:./include/linux/atomic/atomic-instrumented.h **** atomic_inc_return_acquire(atomic_t *v)
 469:./include/linux/atomic/atomic-instrumented.h **** {
 470:./include/linux/atomic/atomic-instrumented.h **** 	instrument_atomic_read_write(v, sizeof(*v));
 471:./include/linux/atomic/atomic-instrumented.h **** 	return raw_atomic_inc_return_acquire(v);
 472:./include/linux/atomic/atomic-instrumented.h **** }
 473:./include/linux/atomic/atomic-instrumented.h **** 
ARM GAS  /tmp/ccnTZmpF.s 			page 73


 474:./include/linux/atomic/atomic-instrumented.h **** /**
 475:./include/linux/atomic/atomic-instrumented.h ****  * atomic_inc_return_release() - atomic increment with release ordering
 476:./include/linux/atomic/atomic-instrumented.h ****  * @v: pointer to atomic_t
 477:./include/linux/atomic/atomic-instrumented.h ****  *
 478:./include/linux/atomic/atomic-instrumented.h ****  * Atomically updates @v to (@v + 1) with release ordering.
 479:./include/linux/atomic/atomic-instrumented.h ****  *
 480:./include/linux/atomic/atomic-instrumented.h ****  * Unsafe to use in noinstr code; use raw_atomic_inc_return_release() there.
 481:./include/linux/atomic/atomic-instrumented.h ****  *
 482:./include/linux/atomic/atomic-instrumented.h ****  * Return: The updated value of @v.
 483:./include/linux/atomic/atomic-instrumented.h ****  */
 484:./include/linux/atomic/atomic-instrumented.h **** static __always_inline int
 485:./include/linux/atomic/atomic-instrumented.h **** atomic_inc_return_release(atomic_t *v)
 486:./include/linux/atomic/atomic-instrumented.h **** {
 487:./include/linux/atomic/atomic-instrumented.h **** 	kcsan_release();
 488:./include/linux/atomic/atomic-instrumented.h **** 	instrument_atomic_read_write(v, sizeof(*v));
 489:./include/linux/atomic/atomic-instrumented.h **** 	return raw_atomic_inc_return_release(v);
 490:./include/linux/atomic/atomic-instrumented.h **** }
 491:./include/linux/atomic/atomic-instrumented.h **** 
 492:./include/linux/atomic/atomic-instrumented.h **** /**
 493:./include/linux/atomic/atomic-instrumented.h ****  * atomic_inc_return_relaxed() - atomic increment with relaxed ordering
 494:./include/linux/atomic/atomic-instrumented.h ****  * @v: pointer to atomic_t
 495:./include/linux/atomic/atomic-instrumented.h ****  *
 496:./include/linux/atomic/atomic-instrumented.h ****  * Atomically updates @v to (@v + 1) with relaxed ordering.
 497:./include/linux/atomic/atomic-instrumented.h ****  *
 498:./include/linux/atomic/atomic-instrumented.h ****  * Unsafe to use in noinstr code; use raw_atomic_inc_return_relaxed() there.
 499:./include/linux/atomic/atomic-instrumented.h ****  *
 500:./include/linux/atomic/atomic-instrumented.h ****  * Return: The updated value of @v.
 501:./include/linux/atomic/atomic-instrumented.h ****  */
 502:./include/linux/atomic/atomic-instrumented.h **** static __always_inline int
 503:./include/linux/atomic/atomic-instrumented.h **** atomic_inc_return_relaxed(atomic_t *v)
 504:./include/linux/atomic/atomic-instrumented.h **** {
 505:./include/linux/atomic/atomic-instrumented.h **** 	instrument_atomic_read_write(v, sizeof(*v));
 506:./include/linux/atomic/atomic-instrumented.h **** 	return raw_atomic_inc_return_relaxed(v);
 507:./include/linux/atomic/atomic-instrumented.h **** }
 508:./include/linux/atomic/atomic-instrumented.h **** 
 509:./include/linux/atomic/atomic-instrumented.h **** /**
 510:./include/linux/atomic/atomic-instrumented.h ****  * atomic_fetch_inc() - atomic increment with full ordering
 511:./include/linux/atomic/atomic-instrumented.h ****  * @v: pointer to atomic_t
 512:./include/linux/atomic/atomic-instrumented.h ****  *
 513:./include/linux/atomic/atomic-instrumented.h ****  * Atomically updates @v to (@v + 1) with full ordering.
 514:./include/linux/atomic/atomic-instrumented.h ****  *
 515:./include/linux/atomic/atomic-instrumented.h ****  * Unsafe to use in noinstr code; use raw_atomic_fetch_inc() there.
 516:./include/linux/atomic/atomic-instrumented.h ****  *
 517:./include/linux/atomic/atomic-instrumented.h ****  * Return: The original value of @v.
 518:./include/linux/atomic/atomic-instrumented.h ****  */
 519:./include/linux/atomic/atomic-instrumented.h **** static __always_inline int
 520:./include/linux/atomic/atomic-instrumented.h **** atomic_fetch_inc(atomic_t *v)
 521:./include/linux/atomic/atomic-instrumented.h **** {
 522:./include/linux/atomic/atomic-instrumented.h **** 	kcsan_mb();
 523:./include/linux/atomic/atomic-instrumented.h **** 	instrument_atomic_read_write(v, sizeof(*v));
 524:./include/linux/atomic/atomic-instrumented.h **** 	return raw_atomic_fetch_inc(v);
 525:./include/linux/atomic/atomic-instrumented.h **** }
 526:./include/linux/atomic/atomic-instrumented.h **** 
 527:./include/linux/atomic/atomic-instrumented.h **** /**
 528:./include/linux/atomic/atomic-instrumented.h ****  * atomic_fetch_inc_acquire() - atomic increment with acquire ordering
 529:./include/linux/atomic/atomic-instrumented.h ****  * @v: pointer to atomic_t
 530:./include/linux/atomic/atomic-instrumented.h ****  *
ARM GAS  /tmp/ccnTZmpF.s 			page 74


 531:./include/linux/atomic/atomic-instrumented.h ****  * Atomically updates @v to (@v + 1) with acquire ordering.
 532:./include/linux/atomic/atomic-instrumented.h ****  *
 533:./include/linux/atomic/atomic-instrumented.h ****  * Unsafe to use in noinstr code; use raw_atomic_fetch_inc_acquire() there.
 534:./include/linux/atomic/atomic-instrumented.h ****  *
 535:./include/linux/atomic/atomic-instrumented.h ****  * Return: The original value of @v.
 536:./include/linux/atomic/atomic-instrumented.h ****  */
 537:./include/linux/atomic/atomic-instrumented.h **** static __always_inline int
 538:./include/linux/atomic/atomic-instrumented.h **** atomic_fetch_inc_acquire(atomic_t *v)
 539:./include/linux/atomic/atomic-instrumented.h **** {
 540:./include/linux/atomic/atomic-instrumented.h **** 	instrument_atomic_read_write(v, sizeof(*v));
 541:./include/linux/atomic/atomic-instrumented.h **** 	return raw_atomic_fetch_inc_acquire(v);
 542:./include/linux/atomic/atomic-instrumented.h **** }
 543:./include/linux/atomic/atomic-instrumented.h **** 
 544:./include/linux/atomic/atomic-instrumented.h **** /**
 545:./include/linux/atomic/atomic-instrumented.h ****  * atomic_fetch_inc_release() - atomic increment with release ordering
 546:./include/linux/atomic/atomic-instrumented.h ****  * @v: pointer to atomic_t
 547:./include/linux/atomic/atomic-instrumented.h ****  *
 548:./include/linux/atomic/atomic-instrumented.h ****  * Atomically updates @v to (@v + 1) with release ordering.
 549:./include/linux/atomic/atomic-instrumented.h ****  *
 550:./include/linux/atomic/atomic-instrumented.h ****  * Unsafe to use in noinstr code; use raw_atomic_fetch_inc_release() there.
 551:./include/linux/atomic/atomic-instrumented.h ****  *
 552:./include/linux/atomic/atomic-instrumented.h ****  * Return: The original value of @v.
 553:./include/linux/atomic/atomic-instrumented.h ****  */
 554:./include/linux/atomic/atomic-instrumented.h **** static __always_inline int
 555:./include/linux/atomic/atomic-instrumented.h **** atomic_fetch_inc_release(atomic_t *v)
 556:./include/linux/atomic/atomic-instrumented.h **** {
 557:./include/linux/atomic/atomic-instrumented.h **** 	kcsan_release();
 558:./include/linux/atomic/atomic-instrumented.h **** 	instrument_atomic_read_write(v, sizeof(*v));
 559:./include/linux/atomic/atomic-instrumented.h **** 	return raw_atomic_fetch_inc_release(v);
 560:./include/linux/atomic/atomic-instrumented.h **** }
 561:./include/linux/atomic/atomic-instrumented.h **** 
 562:./include/linux/atomic/atomic-instrumented.h **** /**
 563:./include/linux/atomic/atomic-instrumented.h ****  * atomic_fetch_inc_relaxed() - atomic increment with relaxed ordering
 564:./include/linux/atomic/atomic-instrumented.h ****  * @v: pointer to atomic_t
 565:./include/linux/atomic/atomic-instrumented.h ****  *
 566:./include/linux/atomic/atomic-instrumented.h ****  * Atomically updates @v to (@v + 1) with relaxed ordering.
 567:./include/linux/atomic/atomic-instrumented.h ****  *
 568:./include/linux/atomic/atomic-instrumented.h ****  * Unsafe to use in noinstr code; use raw_atomic_fetch_inc_relaxed() there.
 569:./include/linux/atomic/atomic-instrumented.h ****  *
 570:./include/linux/atomic/atomic-instrumented.h ****  * Return: The original value of @v.
 571:./include/linux/atomic/atomic-instrumented.h ****  */
 572:./include/linux/atomic/atomic-instrumented.h **** static __always_inline int
 573:./include/linux/atomic/atomic-instrumented.h **** atomic_fetch_inc_relaxed(atomic_t *v)
 574:./include/linux/atomic/atomic-instrumented.h **** {
 575:./include/linux/atomic/atomic-instrumented.h **** 	instrument_atomic_read_write(v, sizeof(*v));
 576:./include/linux/atomic/atomic-instrumented.h **** 	return raw_atomic_fetch_inc_relaxed(v);
 577:./include/linux/atomic/atomic-instrumented.h **** }
 578:./include/linux/atomic/atomic-instrumented.h **** 
 579:./include/linux/atomic/atomic-instrumented.h **** /**
 580:./include/linux/atomic/atomic-instrumented.h ****  * atomic_dec() - atomic decrement with relaxed ordering
 581:./include/linux/atomic/atomic-instrumented.h ****  * @v: pointer to atomic_t
 582:./include/linux/atomic/atomic-instrumented.h ****  *
 583:./include/linux/atomic/atomic-instrumented.h ****  * Atomically updates @v to (@v - 1) with relaxed ordering.
 584:./include/linux/atomic/atomic-instrumented.h ****  *
 585:./include/linux/atomic/atomic-instrumented.h ****  * Unsafe to use in noinstr code; use raw_atomic_dec() there.
 586:./include/linux/atomic/atomic-instrumented.h ****  *
 587:./include/linux/atomic/atomic-instrumented.h ****  * Return: Nothing.
ARM GAS  /tmp/ccnTZmpF.s 			page 75


 588:./include/linux/atomic/atomic-instrumented.h ****  */
 589:./include/linux/atomic/atomic-instrumented.h **** static __always_inline void
 590:./include/linux/atomic/atomic-instrumented.h **** atomic_dec(atomic_t *v)
 591:./include/linux/atomic/atomic-instrumented.h **** {
 592:./include/linux/atomic/atomic-instrumented.h **** 	instrument_atomic_read_write(v, sizeof(*v));
 593:./include/linux/atomic/atomic-instrumented.h **** 	raw_atomic_dec(v);
 594:./include/linux/atomic/atomic-instrumented.h **** }
 595:./include/linux/atomic/atomic-instrumented.h **** 
 596:./include/linux/atomic/atomic-instrumented.h **** /**
 597:./include/linux/atomic/atomic-instrumented.h ****  * atomic_dec_return() - atomic decrement with full ordering
 598:./include/linux/atomic/atomic-instrumented.h ****  * @v: pointer to atomic_t
 599:./include/linux/atomic/atomic-instrumented.h ****  *
 600:./include/linux/atomic/atomic-instrumented.h ****  * Atomically updates @v to (@v - 1) with full ordering.
 601:./include/linux/atomic/atomic-instrumented.h ****  *
 602:./include/linux/atomic/atomic-instrumented.h ****  * Unsafe to use in noinstr code; use raw_atomic_dec_return() there.
 603:./include/linux/atomic/atomic-instrumented.h ****  *
 604:./include/linux/atomic/atomic-instrumented.h ****  * Return: The updated value of @v.
 605:./include/linux/atomic/atomic-instrumented.h ****  */
 606:./include/linux/atomic/atomic-instrumented.h **** static __always_inline int
 607:./include/linux/atomic/atomic-instrumented.h **** atomic_dec_return(atomic_t *v)
 608:./include/linux/atomic/atomic-instrumented.h **** {
 609:./include/linux/atomic/atomic-instrumented.h **** 	kcsan_mb();
 610:./include/linux/atomic/atomic-instrumented.h **** 	instrument_atomic_read_write(v, sizeof(*v));
 611:./include/linux/atomic/atomic-instrumented.h **** 	return raw_atomic_dec_return(v);
 612:./include/linux/atomic/atomic-instrumented.h **** }
 613:./include/linux/atomic/atomic-instrumented.h **** 
 614:./include/linux/atomic/atomic-instrumented.h **** /**
 615:./include/linux/atomic/atomic-instrumented.h ****  * atomic_dec_return_acquire() - atomic decrement with acquire ordering
 616:./include/linux/atomic/atomic-instrumented.h ****  * @v: pointer to atomic_t
 617:./include/linux/atomic/atomic-instrumented.h ****  *
 618:./include/linux/atomic/atomic-instrumented.h ****  * Atomically updates @v to (@v - 1) with acquire ordering.
 619:./include/linux/atomic/atomic-instrumented.h ****  *
 620:./include/linux/atomic/atomic-instrumented.h ****  * Unsafe to use in noinstr code; use raw_atomic_dec_return_acquire() there.
 621:./include/linux/atomic/atomic-instrumented.h ****  *
 622:./include/linux/atomic/atomic-instrumented.h ****  * Return: The updated value of @v.
 623:./include/linux/atomic/atomic-instrumented.h ****  */
 624:./include/linux/atomic/atomic-instrumented.h **** static __always_inline int
 625:./include/linux/atomic/atomic-instrumented.h **** atomic_dec_return_acquire(atomic_t *v)
 626:./include/linux/atomic/atomic-instrumented.h **** {
 627:./include/linux/atomic/atomic-instrumented.h **** 	instrument_atomic_read_write(v, sizeof(*v));
 628:./include/linux/atomic/atomic-instrumented.h **** 	return raw_atomic_dec_return_acquire(v);
 629:./include/linux/atomic/atomic-instrumented.h **** }
 630:./include/linux/atomic/atomic-instrumented.h **** 
 631:./include/linux/atomic/atomic-instrumented.h **** /**
 632:./include/linux/atomic/atomic-instrumented.h ****  * atomic_dec_return_release() - atomic decrement with release ordering
 633:./include/linux/atomic/atomic-instrumented.h ****  * @v: pointer to atomic_t
 634:./include/linux/atomic/atomic-instrumented.h ****  *
 635:./include/linux/atomic/atomic-instrumented.h ****  * Atomically updates @v to (@v - 1) with release ordering.
 636:./include/linux/atomic/atomic-instrumented.h ****  *
 637:./include/linux/atomic/atomic-instrumented.h ****  * Unsafe to use in noinstr code; use raw_atomic_dec_return_release() there.
 638:./include/linux/atomic/atomic-instrumented.h ****  *
 639:./include/linux/atomic/atomic-instrumented.h ****  * Return: The updated value of @v.
 640:./include/linux/atomic/atomic-instrumented.h ****  */
 641:./include/linux/atomic/atomic-instrumented.h **** static __always_inline int
 642:./include/linux/atomic/atomic-instrumented.h **** atomic_dec_return_release(atomic_t *v)
 643:./include/linux/atomic/atomic-instrumented.h **** {
 644:./include/linux/atomic/atomic-instrumented.h **** 	kcsan_release();
ARM GAS  /tmp/ccnTZmpF.s 			page 76


 645:./include/linux/atomic/atomic-instrumented.h **** 	instrument_atomic_read_write(v, sizeof(*v));
 646:./include/linux/atomic/atomic-instrumented.h **** 	return raw_atomic_dec_return_release(v);
 647:./include/linux/atomic/atomic-instrumented.h **** }
 648:./include/linux/atomic/atomic-instrumented.h **** 
 649:./include/linux/atomic/atomic-instrumented.h **** /**
 650:./include/linux/atomic/atomic-instrumented.h ****  * atomic_dec_return_relaxed() - atomic decrement with relaxed ordering
 651:./include/linux/atomic/atomic-instrumented.h ****  * @v: pointer to atomic_t
 652:./include/linux/atomic/atomic-instrumented.h ****  *
 653:./include/linux/atomic/atomic-instrumented.h ****  * Atomically updates @v to (@v - 1) with relaxed ordering.
 654:./include/linux/atomic/atomic-instrumented.h ****  *
 655:./include/linux/atomic/atomic-instrumented.h ****  * Unsafe to use in noinstr code; use raw_atomic_dec_return_relaxed() there.
 656:./include/linux/atomic/atomic-instrumented.h ****  *
 657:./include/linux/atomic/atomic-instrumented.h ****  * Return: The updated value of @v.
 658:./include/linux/atomic/atomic-instrumented.h ****  */
 659:./include/linux/atomic/atomic-instrumented.h **** static __always_inline int
 660:./include/linux/atomic/atomic-instrumented.h **** atomic_dec_return_relaxed(atomic_t *v)
 661:./include/linux/atomic/atomic-instrumented.h **** {
 662:./include/linux/atomic/atomic-instrumented.h **** 	instrument_atomic_read_write(v, sizeof(*v));
 663:./include/linux/atomic/atomic-instrumented.h **** 	return raw_atomic_dec_return_relaxed(v);
 664:./include/linux/atomic/atomic-instrumented.h **** }
 665:./include/linux/atomic/atomic-instrumented.h **** 
 666:./include/linux/atomic/atomic-instrumented.h **** /**
 667:./include/linux/atomic/atomic-instrumented.h ****  * atomic_fetch_dec() - atomic decrement with full ordering
 668:./include/linux/atomic/atomic-instrumented.h ****  * @v: pointer to atomic_t
 669:./include/linux/atomic/atomic-instrumented.h ****  *
 670:./include/linux/atomic/atomic-instrumented.h ****  * Atomically updates @v to (@v - 1) with full ordering.
 671:./include/linux/atomic/atomic-instrumented.h ****  *
 672:./include/linux/atomic/atomic-instrumented.h ****  * Unsafe to use in noinstr code; use raw_atomic_fetch_dec() there.
 673:./include/linux/atomic/atomic-instrumented.h ****  *
 674:./include/linux/atomic/atomic-instrumented.h ****  * Return: The original value of @v.
 675:./include/linux/atomic/atomic-instrumented.h ****  */
 676:./include/linux/atomic/atomic-instrumented.h **** static __always_inline int
 677:./include/linux/atomic/atomic-instrumented.h **** atomic_fetch_dec(atomic_t *v)
 678:./include/linux/atomic/atomic-instrumented.h **** {
 679:./include/linux/atomic/atomic-instrumented.h **** 	kcsan_mb();
 680:./include/linux/atomic/atomic-instrumented.h **** 	instrument_atomic_read_write(v, sizeof(*v));
 681:./include/linux/atomic/atomic-instrumented.h **** 	return raw_atomic_fetch_dec(v);
 682:./include/linux/atomic/atomic-instrumented.h **** }
 683:./include/linux/atomic/atomic-instrumented.h **** 
 684:./include/linux/atomic/atomic-instrumented.h **** /**
 685:./include/linux/atomic/atomic-instrumented.h ****  * atomic_fetch_dec_acquire() - atomic decrement with acquire ordering
 686:./include/linux/atomic/atomic-instrumented.h ****  * @v: pointer to atomic_t
 687:./include/linux/atomic/atomic-instrumented.h ****  *
 688:./include/linux/atomic/atomic-instrumented.h ****  * Atomically updates @v to (@v - 1) with acquire ordering.
 689:./include/linux/atomic/atomic-instrumented.h ****  *
 690:./include/linux/atomic/atomic-instrumented.h ****  * Unsafe to use in noinstr code; use raw_atomic_fetch_dec_acquire() there.
 691:./include/linux/atomic/atomic-instrumented.h ****  *
 692:./include/linux/atomic/atomic-instrumented.h ****  * Return: The original value of @v.
 693:./include/linux/atomic/atomic-instrumented.h ****  */
 694:./include/linux/atomic/atomic-instrumented.h **** static __always_inline int
 695:./include/linux/atomic/atomic-instrumented.h **** atomic_fetch_dec_acquire(atomic_t *v)
 696:./include/linux/atomic/atomic-instrumented.h **** {
 697:./include/linux/atomic/atomic-instrumented.h **** 	instrument_atomic_read_write(v, sizeof(*v));
 698:./include/linux/atomic/atomic-instrumented.h **** 	return raw_atomic_fetch_dec_acquire(v);
 699:./include/linux/atomic/atomic-instrumented.h **** }
 700:./include/linux/atomic/atomic-instrumented.h **** 
 701:./include/linux/atomic/atomic-instrumented.h **** /**
ARM GAS  /tmp/ccnTZmpF.s 			page 77


 702:./include/linux/atomic/atomic-instrumented.h ****  * atomic_fetch_dec_release() - atomic decrement with release ordering
 703:./include/linux/atomic/atomic-instrumented.h ****  * @v: pointer to atomic_t
 704:./include/linux/atomic/atomic-instrumented.h ****  *
 705:./include/linux/atomic/atomic-instrumented.h ****  * Atomically updates @v to (@v - 1) with release ordering.
 706:./include/linux/atomic/atomic-instrumented.h ****  *
 707:./include/linux/atomic/atomic-instrumented.h ****  * Unsafe to use in noinstr code; use raw_atomic_fetch_dec_release() there.
 708:./include/linux/atomic/atomic-instrumented.h ****  *
 709:./include/linux/atomic/atomic-instrumented.h ****  * Return: The original value of @v.
 710:./include/linux/atomic/atomic-instrumented.h ****  */
 711:./include/linux/atomic/atomic-instrumented.h **** static __always_inline int
 712:./include/linux/atomic/atomic-instrumented.h **** atomic_fetch_dec_release(atomic_t *v)
 713:./include/linux/atomic/atomic-instrumented.h **** {
 714:./include/linux/atomic/atomic-instrumented.h **** 	kcsan_release();
 715:./include/linux/atomic/atomic-instrumented.h **** 	instrument_atomic_read_write(v, sizeof(*v));
 716:./include/linux/atomic/atomic-instrumented.h **** 	return raw_atomic_fetch_dec_release(v);
 717:./include/linux/atomic/atomic-instrumented.h **** }
 718:./include/linux/atomic/atomic-instrumented.h **** 
 719:./include/linux/atomic/atomic-instrumented.h **** /**
 720:./include/linux/atomic/atomic-instrumented.h ****  * atomic_fetch_dec_relaxed() - atomic decrement with relaxed ordering
 721:./include/linux/atomic/atomic-instrumented.h ****  * @v: pointer to atomic_t
 722:./include/linux/atomic/atomic-instrumented.h ****  *
 723:./include/linux/atomic/atomic-instrumented.h ****  * Atomically updates @v to (@v - 1) with relaxed ordering.
 724:./include/linux/atomic/atomic-instrumented.h ****  *
 725:./include/linux/atomic/atomic-instrumented.h ****  * Unsafe to use in noinstr code; use raw_atomic_fetch_dec_relaxed() there.
 726:./include/linux/atomic/atomic-instrumented.h ****  *
 727:./include/linux/atomic/atomic-instrumented.h ****  * Return: The original value of @v.
 728:./include/linux/atomic/atomic-instrumented.h ****  */
 729:./include/linux/atomic/atomic-instrumented.h **** static __always_inline int
 730:./include/linux/atomic/atomic-instrumented.h **** atomic_fetch_dec_relaxed(atomic_t *v)
 731:./include/linux/atomic/atomic-instrumented.h **** {
 732:./include/linux/atomic/atomic-instrumented.h **** 	instrument_atomic_read_write(v, sizeof(*v));
 733:./include/linux/atomic/atomic-instrumented.h **** 	return raw_atomic_fetch_dec_relaxed(v);
 734:./include/linux/atomic/atomic-instrumented.h **** }
 735:./include/linux/atomic/atomic-instrumented.h **** 
 736:./include/linux/atomic/atomic-instrumented.h **** /**
 737:./include/linux/atomic/atomic-instrumented.h ****  * atomic_and() - atomic bitwise AND with relaxed ordering
 738:./include/linux/atomic/atomic-instrumented.h ****  * @i: int value
 739:./include/linux/atomic/atomic-instrumented.h ****  * @v: pointer to atomic_t
 740:./include/linux/atomic/atomic-instrumented.h ****  *
 741:./include/linux/atomic/atomic-instrumented.h ****  * Atomically updates @v to (@v & @i) with relaxed ordering.
 742:./include/linux/atomic/atomic-instrumented.h ****  *
 743:./include/linux/atomic/atomic-instrumented.h ****  * Unsafe to use in noinstr code; use raw_atomic_and() there.
 744:./include/linux/atomic/atomic-instrumented.h ****  *
 745:./include/linux/atomic/atomic-instrumented.h ****  * Return: Nothing.
 746:./include/linux/atomic/atomic-instrumented.h ****  */
 747:./include/linux/atomic/atomic-instrumented.h **** static __always_inline void
 748:./include/linux/atomic/atomic-instrumented.h **** atomic_and(int i, atomic_t *v)
 749:./include/linux/atomic/atomic-instrumented.h **** {
 750:./include/linux/atomic/atomic-instrumented.h **** 	instrument_atomic_read_write(v, sizeof(*v));
 751:./include/linux/atomic/atomic-instrumented.h **** 	raw_atomic_and(i, v);
 752:./include/linux/atomic/atomic-instrumented.h **** }
 753:./include/linux/atomic/atomic-instrumented.h **** 
 754:./include/linux/atomic/atomic-instrumented.h **** /**
 755:./include/linux/atomic/atomic-instrumented.h ****  * atomic_fetch_and() - atomic bitwise AND with full ordering
 756:./include/linux/atomic/atomic-instrumented.h ****  * @i: int value
 757:./include/linux/atomic/atomic-instrumented.h ****  * @v: pointer to atomic_t
 758:./include/linux/atomic/atomic-instrumented.h ****  *
ARM GAS  /tmp/ccnTZmpF.s 			page 78


 759:./include/linux/atomic/atomic-instrumented.h ****  * Atomically updates @v to (@v & @i) with full ordering.
 760:./include/linux/atomic/atomic-instrumented.h ****  *
 761:./include/linux/atomic/atomic-instrumented.h ****  * Unsafe to use in noinstr code; use raw_atomic_fetch_and() there.
 762:./include/linux/atomic/atomic-instrumented.h ****  *
 763:./include/linux/atomic/atomic-instrumented.h ****  * Return: The original value of @v.
 764:./include/linux/atomic/atomic-instrumented.h ****  */
 765:./include/linux/atomic/atomic-instrumented.h **** static __always_inline int
 766:./include/linux/atomic/atomic-instrumented.h **** atomic_fetch_and(int i, atomic_t *v)
 767:./include/linux/atomic/atomic-instrumented.h **** {
 768:./include/linux/atomic/atomic-instrumented.h **** 	kcsan_mb();
 769:./include/linux/atomic/atomic-instrumented.h **** 	instrument_atomic_read_write(v, sizeof(*v));
 770:./include/linux/atomic/atomic-instrumented.h **** 	return raw_atomic_fetch_and(i, v);
 771:./include/linux/atomic/atomic-instrumented.h **** }
 772:./include/linux/atomic/atomic-instrumented.h **** 
 773:./include/linux/atomic/atomic-instrumented.h **** /**
 774:./include/linux/atomic/atomic-instrumented.h ****  * atomic_fetch_and_acquire() - atomic bitwise AND with acquire ordering
 775:./include/linux/atomic/atomic-instrumented.h ****  * @i: int value
 776:./include/linux/atomic/atomic-instrumented.h ****  * @v: pointer to atomic_t
 777:./include/linux/atomic/atomic-instrumented.h ****  *
 778:./include/linux/atomic/atomic-instrumented.h ****  * Atomically updates @v to (@v & @i) with acquire ordering.
 779:./include/linux/atomic/atomic-instrumented.h ****  *
 780:./include/linux/atomic/atomic-instrumented.h ****  * Unsafe to use in noinstr code; use raw_atomic_fetch_and_acquire() there.
 781:./include/linux/atomic/atomic-instrumented.h ****  *
 782:./include/linux/atomic/atomic-instrumented.h ****  * Return: The original value of @v.
 783:./include/linux/atomic/atomic-instrumented.h ****  */
 784:./include/linux/atomic/atomic-instrumented.h **** static __always_inline int
 785:./include/linux/atomic/atomic-instrumented.h **** atomic_fetch_and_acquire(int i, atomic_t *v)
 786:./include/linux/atomic/atomic-instrumented.h **** {
 787:./include/linux/atomic/atomic-instrumented.h **** 	instrument_atomic_read_write(v, sizeof(*v));
 788:./include/linux/atomic/atomic-instrumented.h **** 	return raw_atomic_fetch_and_acquire(i, v);
 789:./include/linux/atomic/atomic-instrumented.h **** }
 790:./include/linux/atomic/atomic-instrumented.h **** 
 791:./include/linux/atomic/atomic-instrumented.h **** /**
 792:./include/linux/atomic/atomic-instrumented.h ****  * atomic_fetch_and_release() - atomic bitwise AND with release ordering
 793:./include/linux/atomic/atomic-instrumented.h ****  * @i: int value
 794:./include/linux/atomic/atomic-instrumented.h ****  * @v: pointer to atomic_t
 795:./include/linux/atomic/atomic-instrumented.h ****  *
 796:./include/linux/atomic/atomic-instrumented.h ****  * Atomically updates @v to (@v & @i) with release ordering.
 797:./include/linux/atomic/atomic-instrumented.h ****  *
 798:./include/linux/atomic/atomic-instrumented.h ****  * Unsafe to use in noinstr code; use raw_atomic_fetch_and_release() there.
 799:./include/linux/atomic/atomic-instrumented.h ****  *
 800:./include/linux/atomic/atomic-instrumented.h ****  * Return: The original value of @v.
 801:./include/linux/atomic/atomic-instrumented.h ****  */
 802:./include/linux/atomic/atomic-instrumented.h **** static __always_inline int
 803:./include/linux/atomic/atomic-instrumented.h **** atomic_fetch_and_release(int i, atomic_t *v)
 804:./include/linux/atomic/atomic-instrumented.h **** {
 805:./include/linux/atomic/atomic-instrumented.h **** 	kcsan_release();
 806:./include/linux/atomic/atomic-instrumented.h **** 	instrument_atomic_read_write(v, sizeof(*v));
 807:./include/linux/atomic/atomic-instrumented.h **** 	return raw_atomic_fetch_and_release(i, v);
 808:./include/linux/atomic/atomic-instrumented.h **** }
 809:./include/linux/atomic/atomic-instrumented.h **** 
 810:./include/linux/atomic/atomic-instrumented.h **** /**
 811:./include/linux/atomic/atomic-instrumented.h ****  * atomic_fetch_and_relaxed() - atomic bitwise AND with relaxed ordering
 812:./include/linux/atomic/atomic-instrumented.h ****  * @i: int value
 813:./include/linux/atomic/atomic-instrumented.h ****  * @v: pointer to atomic_t
 814:./include/linux/atomic/atomic-instrumented.h ****  *
 815:./include/linux/atomic/atomic-instrumented.h ****  * Atomically updates @v to (@v & @i) with relaxed ordering.
ARM GAS  /tmp/ccnTZmpF.s 			page 79


 816:./include/linux/atomic/atomic-instrumented.h ****  *
 817:./include/linux/atomic/atomic-instrumented.h ****  * Unsafe to use in noinstr code; use raw_atomic_fetch_and_relaxed() there.
 818:./include/linux/atomic/atomic-instrumented.h ****  *
 819:./include/linux/atomic/atomic-instrumented.h ****  * Return: The original value of @v.
 820:./include/linux/atomic/atomic-instrumented.h ****  */
 821:./include/linux/atomic/atomic-instrumented.h **** static __always_inline int
 822:./include/linux/atomic/atomic-instrumented.h **** atomic_fetch_and_relaxed(int i, atomic_t *v)
 823:./include/linux/atomic/atomic-instrumented.h **** {
 824:./include/linux/atomic/atomic-instrumented.h **** 	instrument_atomic_read_write(v, sizeof(*v));
 825:./include/linux/atomic/atomic-instrumented.h **** 	return raw_atomic_fetch_and_relaxed(i, v);
 826:./include/linux/atomic/atomic-instrumented.h **** }
 827:./include/linux/atomic/atomic-instrumented.h **** 
 828:./include/linux/atomic/atomic-instrumented.h **** /**
 829:./include/linux/atomic/atomic-instrumented.h ****  * atomic_andnot() - atomic bitwise AND NOT with relaxed ordering
 830:./include/linux/atomic/atomic-instrumented.h ****  * @i: int value
 831:./include/linux/atomic/atomic-instrumented.h ****  * @v: pointer to atomic_t
 832:./include/linux/atomic/atomic-instrumented.h ****  *
 833:./include/linux/atomic/atomic-instrumented.h ****  * Atomically updates @v to (@v & ~@i) with relaxed ordering.
 834:./include/linux/atomic/atomic-instrumented.h ****  *
 835:./include/linux/atomic/atomic-instrumented.h ****  * Unsafe to use in noinstr code; use raw_atomic_andnot() there.
 836:./include/linux/atomic/atomic-instrumented.h ****  *
 837:./include/linux/atomic/atomic-instrumented.h ****  * Return: Nothing.
 838:./include/linux/atomic/atomic-instrumented.h ****  */
 839:./include/linux/atomic/atomic-instrumented.h **** static __always_inline void
 840:./include/linux/atomic/atomic-instrumented.h **** atomic_andnot(int i, atomic_t *v)
 841:./include/linux/atomic/atomic-instrumented.h **** {
 842:./include/linux/atomic/atomic-instrumented.h **** 	instrument_atomic_read_write(v, sizeof(*v));
 843:./include/linux/atomic/atomic-instrumented.h **** 	raw_atomic_andnot(i, v);
 844:./include/linux/atomic/atomic-instrumented.h **** }
 845:./include/linux/atomic/atomic-instrumented.h **** 
 846:./include/linux/atomic/atomic-instrumented.h **** /**
 847:./include/linux/atomic/atomic-instrumented.h ****  * atomic_fetch_andnot() - atomic bitwise AND NOT with full ordering
 848:./include/linux/atomic/atomic-instrumented.h ****  * @i: int value
 849:./include/linux/atomic/atomic-instrumented.h ****  * @v: pointer to atomic_t
 850:./include/linux/atomic/atomic-instrumented.h ****  *
 851:./include/linux/atomic/atomic-instrumented.h ****  * Atomically updates @v to (@v & ~@i) with full ordering.
 852:./include/linux/atomic/atomic-instrumented.h ****  *
 853:./include/linux/atomic/atomic-instrumented.h ****  * Unsafe to use in noinstr code; use raw_atomic_fetch_andnot() there.
 854:./include/linux/atomic/atomic-instrumented.h ****  *
 855:./include/linux/atomic/atomic-instrumented.h ****  * Return: The original value of @v.
 856:./include/linux/atomic/atomic-instrumented.h ****  */
 857:./include/linux/atomic/atomic-instrumented.h **** static __always_inline int
 858:./include/linux/atomic/atomic-instrumented.h **** atomic_fetch_andnot(int i, atomic_t *v)
 859:./include/linux/atomic/atomic-instrumented.h **** {
 860:./include/linux/atomic/atomic-instrumented.h **** 	kcsan_mb();
 861:./include/linux/atomic/atomic-instrumented.h **** 	instrument_atomic_read_write(v, sizeof(*v));
 862:./include/linux/atomic/atomic-instrumented.h **** 	return raw_atomic_fetch_andnot(i, v);
 863:./include/linux/atomic/atomic-instrumented.h **** }
 864:./include/linux/atomic/atomic-instrumented.h **** 
 865:./include/linux/atomic/atomic-instrumented.h **** /**
 866:./include/linux/atomic/atomic-instrumented.h ****  * atomic_fetch_andnot_acquire() - atomic bitwise AND NOT with acquire ordering
 867:./include/linux/atomic/atomic-instrumented.h ****  * @i: int value
 868:./include/linux/atomic/atomic-instrumented.h ****  * @v: pointer to atomic_t
 869:./include/linux/atomic/atomic-instrumented.h ****  *
 870:./include/linux/atomic/atomic-instrumented.h ****  * Atomically updates @v to (@v & ~@i) with acquire ordering.
 871:./include/linux/atomic/atomic-instrumented.h ****  *
 872:./include/linux/atomic/atomic-instrumented.h ****  * Unsafe to use in noinstr code; use raw_atomic_fetch_andnot_acquire() there.
ARM GAS  /tmp/ccnTZmpF.s 			page 80


 873:./include/linux/atomic/atomic-instrumented.h ****  *
 874:./include/linux/atomic/atomic-instrumented.h ****  * Return: The original value of @v.
 875:./include/linux/atomic/atomic-instrumented.h ****  */
 876:./include/linux/atomic/atomic-instrumented.h **** static __always_inline int
 877:./include/linux/atomic/atomic-instrumented.h **** atomic_fetch_andnot_acquire(int i, atomic_t *v)
 878:./include/linux/atomic/atomic-instrumented.h **** {
 879:./include/linux/atomic/atomic-instrumented.h **** 	instrument_atomic_read_write(v, sizeof(*v));
 880:./include/linux/atomic/atomic-instrumented.h **** 	return raw_atomic_fetch_andnot_acquire(i, v);
 881:./include/linux/atomic/atomic-instrumented.h **** }
 882:./include/linux/atomic/atomic-instrumented.h **** 
 883:./include/linux/atomic/atomic-instrumented.h **** /**
 884:./include/linux/atomic/atomic-instrumented.h ****  * atomic_fetch_andnot_release() - atomic bitwise AND NOT with release ordering
 885:./include/linux/atomic/atomic-instrumented.h ****  * @i: int value
 886:./include/linux/atomic/atomic-instrumented.h ****  * @v: pointer to atomic_t
 887:./include/linux/atomic/atomic-instrumented.h ****  *
 888:./include/linux/atomic/atomic-instrumented.h ****  * Atomically updates @v to (@v & ~@i) with release ordering.
 889:./include/linux/atomic/atomic-instrumented.h ****  *
 890:./include/linux/atomic/atomic-instrumented.h ****  * Unsafe to use in noinstr code; use raw_atomic_fetch_andnot_release() there.
 891:./include/linux/atomic/atomic-instrumented.h ****  *
 892:./include/linux/atomic/atomic-instrumented.h ****  * Return: The original value of @v.
 893:./include/linux/atomic/atomic-instrumented.h ****  */
 894:./include/linux/atomic/atomic-instrumented.h **** static __always_inline int
 895:./include/linux/atomic/atomic-instrumented.h **** atomic_fetch_andnot_release(int i, atomic_t *v)
 896:./include/linux/atomic/atomic-instrumented.h **** {
 897:./include/linux/atomic/atomic-instrumented.h **** 	kcsan_release();
 898:./include/linux/atomic/atomic-instrumented.h **** 	instrument_atomic_read_write(v, sizeof(*v));
 899:./include/linux/atomic/atomic-instrumented.h **** 	return raw_atomic_fetch_andnot_release(i, v);
 900:./include/linux/atomic/atomic-instrumented.h **** }
 901:./include/linux/atomic/atomic-instrumented.h **** 
 902:./include/linux/atomic/atomic-instrumented.h **** /**
 903:./include/linux/atomic/atomic-instrumented.h ****  * atomic_fetch_andnot_relaxed() - atomic bitwise AND NOT with relaxed ordering
 904:./include/linux/atomic/atomic-instrumented.h ****  * @i: int value
 905:./include/linux/atomic/atomic-instrumented.h ****  * @v: pointer to atomic_t
 906:./include/linux/atomic/atomic-instrumented.h ****  *
 907:./include/linux/atomic/atomic-instrumented.h ****  * Atomically updates @v to (@v & ~@i) with relaxed ordering.
 908:./include/linux/atomic/atomic-instrumented.h ****  *
 909:./include/linux/atomic/atomic-instrumented.h ****  * Unsafe to use in noinstr code; use raw_atomic_fetch_andnot_relaxed() there.
 910:./include/linux/atomic/atomic-instrumented.h ****  *
 911:./include/linux/atomic/atomic-instrumented.h ****  * Return: The original value of @v.
 912:./include/linux/atomic/atomic-instrumented.h ****  */
 913:./include/linux/atomic/atomic-instrumented.h **** static __always_inline int
 914:./include/linux/atomic/atomic-instrumented.h **** atomic_fetch_andnot_relaxed(int i, atomic_t *v)
 915:./include/linux/atomic/atomic-instrumented.h **** {
 916:./include/linux/atomic/atomic-instrumented.h **** 	instrument_atomic_read_write(v, sizeof(*v));
 917:./include/linux/atomic/atomic-instrumented.h **** 	return raw_atomic_fetch_andnot_relaxed(i, v);
 918:./include/linux/atomic/atomic-instrumented.h **** }
 919:./include/linux/atomic/atomic-instrumented.h **** 
 920:./include/linux/atomic/atomic-instrumented.h **** /**
 921:./include/linux/atomic/atomic-instrumented.h ****  * atomic_or() - atomic bitwise OR with relaxed ordering
 922:./include/linux/atomic/atomic-instrumented.h ****  * @i: int value
 923:./include/linux/atomic/atomic-instrumented.h ****  * @v: pointer to atomic_t
 924:./include/linux/atomic/atomic-instrumented.h ****  *
 925:./include/linux/atomic/atomic-instrumented.h ****  * Atomically updates @v to (@v | @i) with relaxed ordering.
 926:./include/linux/atomic/atomic-instrumented.h ****  *
 927:./include/linux/atomic/atomic-instrumented.h ****  * Unsafe to use in noinstr code; use raw_atomic_or() there.
 928:./include/linux/atomic/atomic-instrumented.h ****  *
 929:./include/linux/atomic/atomic-instrumented.h ****  * Return: Nothing.
ARM GAS  /tmp/ccnTZmpF.s 			page 81


 930:./include/linux/atomic/atomic-instrumented.h ****  */
 931:./include/linux/atomic/atomic-instrumented.h **** static __always_inline void
 932:./include/linux/atomic/atomic-instrumented.h **** atomic_or(int i, atomic_t *v)
 933:./include/linux/atomic/atomic-instrumented.h **** {
 934:./include/linux/atomic/atomic-instrumented.h **** 	instrument_atomic_read_write(v, sizeof(*v));
 935:./include/linux/atomic/atomic-instrumented.h **** 	raw_atomic_or(i, v);
 936:./include/linux/atomic/atomic-instrumented.h **** }
 937:./include/linux/atomic/atomic-instrumented.h **** 
 938:./include/linux/atomic/atomic-instrumented.h **** /**
 939:./include/linux/atomic/atomic-instrumented.h ****  * atomic_fetch_or() - atomic bitwise OR with full ordering
 940:./include/linux/atomic/atomic-instrumented.h ****  * @i: int value
 941:./include/linux/atomic/atomic-instrumented.h ****  * @v: pointer to atomic_t
 942:./include/linux/atomic/atomic-instrumented.h ****  *
 943:./include/linux/atomic/atomic-instrumented.h ****  * Atomically updates @v to (@v | @i) with full ordering.
 944:./include/linux/atomic/atomic-instrumented.h ****  *
 945:./include/linux/atomic/atomic-instrumented.h ****  * Unsafe to use in noinstr code; use raw_atomic_fetch_or() there.
 946:./include/linux/atomic/atomic-instrumented.h ****  *
 947:./include/linux/atomic/atomic-instrumented.h ****  * Return: The original value of @v.
 948:./include/linux/atomic/atomic-instrumented.h ****  */
 949:./include/linux/atomic/atomic-instrumented.h **** static __always_inline int
 950:./include/linux/atomic/atomic-instrumented.h **** atomic_fetch_or(int i, atomic_t *v)
 951:./include/linux/atomic/atomic-instrumented.h **** {
 952:./include/linux/atomic/atomic-instrumented.h **** 	kcsan_mb();
 953:./include/linux/atomic/atomic-instrumented.h **** 	instrument_atomic_read_write(v, sizeof(*v));
 954:./include/linux/atomic/atomic-instrumented.h **** 	return raw_atomic_fetch_or(i, v);
 955:./include/linux/atomic/atomic-instrumented.h **** }
 956:./include/linux/atomic/atomic-instrumented.h **** 
 957:./include/linux/atomic/atomic-instrumented.h **** /**
 958:./include/linux/atomic/atomic-instrumented.h ****  * atomic_fetch_or_acquire() - atomic bitwise OR with acquire ordering
 959:./include/linux/atomic/atomic-instrumented.h ****  * @i: int value
 960:./include/linux/atomic/atomic-instrumented.h ****  * @v: pointer to atomic_t
 961:./include/linux/atomic/atomic-instrumented.h ****  *
 962:./include/linux/atomic/atomic-instrumented.h ****  * Atomically updates @v to (@v | @i) with acquire ordering.
 963:./include/linux/atomic/atomic-instrumented.h ****  *
 964:./include/linux/atomic/atomic-instrumented.h ****  * Unsafe to use in noinstr code; use raw_atomic_fetch_or_acquire() there.
 965:./include/linux/atomic/atomic-instrumented.h ****  *
 966:./include/linux/atomic/atomic-instrumented.h ****  * Return: The original value of @v.
 967:./include/linux/atomic/atomic-instrumented.h ****  */
 968:./include/linux/atomic/atomic-instrumented.h **** static __always_inline int
 969:./include/linux/atomic/atomic-instrumented.h **** atomic_fetch_or_acquire(int i, atomic_t *v)
 970:./include/linux/atomic/atomic-instrumented.h **** {
 971:./include/linux/atomic/atomic-instrumented.h **** 	instrument_atomic_read_write(v, sizeof(*v));
 972:./include/linux/atomic/atomic-instrumented.h **** 	return raw_atomic_fetch_or_acquire(i, v);
 973:./include/linux/atomic/atomic-instrumented.h **** }
 974:./include/linux/atomic/atomic-instrumented.h **** 
 975:./include/linux/atomic/atomic-instrumented.h **** /**
 976:./include/linux/atomic/atomic-instrumented.h ****  * atomic_fetch_or_release() - atomic bitwise OR with release ordering
 977:./include/linux/atomic/atomic-instrumented.h ****  * @i: int value
 978:./include/linux/atomic/atomic-instrumented.h ****  * @v: pointer to atomic_t
 979:./include/linux/atomic/atomic-instrumented.h ****  *
 980:./include/linux/atomic/atomic-instrumented.h ****  * Atomically updates @v to (@v | @i) with release ordering.
 981:./include/linux/atomic/atomic-instrumented.h ****  *
 982:./include/linux/atomic/atomic-instrumented.h ****  * Unsafe to use in noinstr code; use raw_atomic_fetch_or_release() there.
 983:./include/linux/atomic/atomic-instrumented.h ****  *
 984:./include/linux/atomic/atomic-instrumented.h ****  * Return: The original value of @v.
 985:./include/linux/atomic/atomic-instrumented.h ****  */
 986:./include/linux/atomic/atomic-instrumented.h **** static __always_inline int
ARM GAS  /tmp/ccnTZmpF.s 			page 82


 987:./include/linux/atomic/atomic-instrumented.h **** atomic_fetch_or_release(int i, atomic_t *v)
 988:./include/linux/atomic/atomic-instrumented.h **** {
 989:./include/linux/atomic/atomic-instrumented.h **** 	kcsan_release();
 990:./include/linux/atomic/atomic-instrumented.h **** 	instrument_atomic_read_write(v, sizeof(*v));
 991:./include/linux/atomic/atomic-instrumented.h **** 	return raw_atomic_fetch_or_release(i, v);
 992:./include/linux/atomic/atomic-instrumented.h **** }
 993:./include/linux/atomic/atomic-instrumented.h **** 
 994:./include/linux/atomic/atomic-instrumented.h **** /**
 995:./include/linux/atomic/atomic-instrumented.h ****  * atomic_fetch_or_relaxed() - atomic bitwise OR with relaxed ordering
 996:./include/linux/atomic/atomic-instrumented.h ****  * @i: int value
 997:./include/linux/atomic/atomic-instrumented.h ****  * @v: pointer to atomic_t
 998:./include/linux/atomic/atomic-instrumented.h ****  *
 999:./include/linux/atomic/atomic-instrumented.h ****  * Atomically updates @v to (@v | @i) with relaxed ordering.
1000:./include/linux/atomic/atomic-instrumented.h ****  *
1001:./include/linux/atomic/atomic-instrumented.h ****  * Unsafe to use in noinstr code; use raw_atomic_fetch_or_relaxed() there.
1002:./include/linux/atomic/atomic-instrumented.h ****  *
1003:./include/linux/atomic/atomic-instrumented.h ****  * Return: The original value of @v.
1004:./include/linux/atomic/atomic-instrumented.h ****  */
1005:./include/linux/atomic/atomic-instrumented.h **** static __always_inline int
1006:./include/linux/atomic/atomic-instrumented.h **** atomic_fetch_or_relaxed(int i, atomic_t *v)
1007:./include/linux/atomic/atomic-instrumented.h **** {
1008:./include/linux/atomic/atomic-instrumented.h **** 	instrument_atomic_read_write(v, sizeof(*v));
1009:./include/linux/atomic/atomic-instrumented.h **** 	return raw_atomic_fetch_or_relaxed(i, v);
1010:./include/linux/atomic/atomic-instrumented.h **** }
1011:./include/linux/atomic/atomic-instrumented.h **** 
1012:./include/linux/atomic/atomic-instrumented.h **** /**
1013:./include/linux/atomic/atomic-instrumented.h ****  * atomic_xor() - atomic bitwise XOR with relaxed ordering
1014:./include/linux/atomic/atomic-instrumented.h ****  * @i: int value
1015:./include/linux/atomic/atomic-instrumented.h ****  * @v: pointer to atomic_t
1016:./include/linux/atomic/atomic-instrumented.h ****  *
1017:./include/linux/atomic/atomic-instrumented.h ****  * Atomically updates @v to (@v ^ @i) with relaxed ordering.
1018:./include/linux/atomic/atomic-instrumented.h ****  *
1019:./include/linux/atomic/atomic-instrumented.h ****  * Unsafe to use in noinstr code; use raw_atomic_xor() there.
1020:./include/linux/atomic/atomic-instrumented.h ****  *
1021:./include/linux/atomic/atomic-instrumented.h ****  * Return: Nothing.
1022:./include/linux/atomic/atomic-instrumented.h ****  */
1023:./include/linux/atomic/atomic-instrumented.h **** static __always_inline void
1024:./include/linux/atomic/atomic-instrumented.h **** atomic_xor(int i, atomic_t *v)
1025:./include/linux/atomic/atomic-instrumented.h **** {
1026:./include/linux/atomic/atomic-instrumented.h **** 	instrument_atomic_read_write(v, sizeof(*v));
1027:./include/linux/atomic/atomic-instrumented.h **** 	raw_atomic_xor(i, v);
1028:./include/linux/atomic/atomic-instrumented.h **** }
1029:./include/linux/atomic/atomic-instrumented.h **** 
1030:./include/linux/atomic/atomic-instrumented.h **** /**
1031:./include/linux/atomic/atomic-instrumented.h ****  * atomic_fetch_xor() - atomic bitwise XOR with full ordering
1032:./include/linux/atomic/atomic-instrumented.h ****  * @i: int value
1033:./include/linux/atomic/atomic-instrumented.h ****  * @v: pointer to atomic_t
1034:./include/linux/atomic/atomic-instrumented.h ****  *
1035:./include/linux/atomic/atomic-instrumented.h ****  * Atomically updates @v to (@v ^ @i) with full ordering.
1036:./include/linux/atomic/atomic-instrumented.h ****  *
1037:./include/linux/atomic/atomic-instrumented.h ****  * Unsafe to use in noinstr code; use raw_atomic_fetch_xor() there.
1038:./include/linux/atomic/atomic-instrumented.h ****  *
1039:./include/linux/atomic/atomic-instrumented.h ****  * Return: The original value of @v.
1040:./include/linux/atomic/atomic-instrumented.h ****  */
1041:./include/linux/atomic/atomic-instrumented.h **** static __always_inline int
1042:./include/linux/atomic/atomic-instrumented.h **** atomic_fetch_xor(int i, atomic_t *v)
1043:./include/linux/atomic/atomic-instrumented.h **** {
ARM GAS  /tmp/ccnTZmpF.s 			page 83


1044:./include/linux/atomic/atomic-instrumented.h **** 	kcsan_mb();
1045:./include/linux/atomic/atomic-instrumented.h **** 	instrument_atomic_read_write(v, sizeof(*v));
1046:./include/linux/atomic/atomic-instrumented.h **** 	return raw_atomic_fetch_xor(i, v);
1047:./include/linux/atomic/atomic-instrumented.h **** }
1048:./include/linux/atomic/atomic-instrumented.h **** 
1049:./include/linux/atomic/atomic-instrumented.h **** /**
1050:./include/linux/atomic/atomic-instrumented.h ****  * atomic_fetch_xor_acquire() - atomic bitwise XOR with acquire ordering
1051:./include/linux/atomic/atomic-instrumented.h ****  * @i: int value
1052:./include/linux/atomic/atomic-instrumented.h ****  * @v: pointer to atomic_t
1053:./include/linux/atomic/atomic-instrumented.h ****  *
1054:./include/linux/atomic/atomic-instrumented.h ****  * Atomically updates @v to (@v ^ @i) with acquire ordering.
1055:./include/linux/atomic/atomic-instrumented.h ****  *
1056:./include/linux/atomic/atomic-instrumented.h ****  * Unsafe to use in noinstr code; use raw_atomic_fetch_xor_acquire() there.
1057:./include/linux/atomic/atomic-instrumented.h ****  *
1058:./include/linux/atomic/atomic-instrumented.h ****  * Return: The original value of @v.
1059:./include/linux/atomic/atomic-instrumented.h ****  */
1060:./include/linux/atomic/atomic-instrumented.h **** static __always_inline int
1061:./include/linux/atomic/atomic-instrumented.h **** atomic_fetch_xor_acquire(int i, atomic_t *v)
1062:./include/linux/atomic/atomic-instrumented.h **** {
1063:./include/linux/atomic/atomic-instrumented.h **** 	instrument_atomic_read_write(v, sizeof(*v));
1064:./include/linux/atomic/atomic-instrumented.h **** 	return raw_atomic_fetch_xor_acquire(i, v);
1065:./include/linux/atomic/atomic-instrumented.h **** }
1066:./include/linux/atomic/atomic-instrumented.h **** 
1067:./include/linux/atomic/atomic-instrumented.h **** /**
1068:./include/linux/atomic/atomic-instrumented.h ****  * atomic_fetch_xor_release() - atomic bitwise XOR with release ordering
1069:./include/linux/atomic/atomic-instrumented.h ****  * @i: int value
1070:./include/linux/atomic/atomic-instrumented.h ****  * @v: pointer to atomic_t
1071:./include/linux/atomic/atomic-instrumented.h ****  *
1072:./include/linux/atomic/atomic-instrumented.h ****  * Atomically updates @v to (@v ^ @i) with release ordering.
1073:./include/linux/atomic/atomic-instrumented.h ****  *
1074:./include/linux/atomic/atomic-instrumented.h ****  * Unsafe to use in noinstr code; use raw_atomic_fetch_xor_release() there.
1075:./include/linux/atomic/atomic-instrumented.h ****  *
1076:./include/linux/atomic/atomic-instrumented.h ****  * Return: The original value of @v.
1077:./include/linux/atomic/atomic-instrumented.h ****  */
1078:./include/linux/atomic/atomic-instrumented.h **** static __always_inline int
1079:./include/linux/atomic/atomic-instrumented.h **** atomic_fetch_xor_release(int i, atomic_t *v)
1080:./include/linux/atomic/atomic-instrumented.h **** {
1081:./include/linux/atomic/atomic-instrumented.h **** 	kcsan_release();
1082:./include/linux/atomic/atomic-instrumented.h **** 	instrument_atomic_read_write(v, sizeof(*v));
1083:./include/linux/atomic/atomic-instrumented.h **** 	return raw_atomic_fetch_xor_release(i, v);
1084:./include/linux/atomic/atomic-instrumented.h **** }
1085:./include/linux/atomic/atomic-instrumented.h **** 
1086:./include/linux/atomic/atomic-instrumented.h **** /**
1087:./include/linux/atomic/atomic-instrumented.h ****  * atomic_fetch_xor_relaxed() - atomic bitwise XOR with relaxed ordering
1088:./include/linux/atomic/atomic-instrumented.h ****  * @i: int value
1089:./include/linux/atomic/atomic-instrumented.h ****  * @v: pointer to atomic_t
1090:./include/linux/atomic/atomic-instrumented.h ****  *
1091:./include/linux/atomic/atomic-instrumented.h ****  * Atomically updates @v to (@v ^ @i) with relaxed ordering.
1092:./include/linux/atomic/atomic-instrumented.h ****  *
1093:./include/linux/atomic/atomic-instrumented.h ****  * Unsafe to use in noinstr code; use raw_atomic_fetch_xor_relaxed() there.
1094:./include/linux/atomic/atomic-instrumented.h ****  *
1095:./include/linux/atomic/atomic-instrumented.h ****  * Return: The original value of @v.
1096:./include/linux/atomic/atomic-instrumented.h ****  */
1097:./include/linux/atomic/atomic-instrumented.h **** static __always_inline int
1098:./include/linux/atomic/atomic-instrumented.h **** atomic_fetch_xor_relaxed(int i, atomic_t *v)
1099:./include/linux/atomic/atomic-instrumented.h **** {
1100:./include/linux/atomic/atomic-instrumented.h **** 	instrument_atomic_read_write(v, sizeof(*v));
ARM GAS  /tmp/ccnTZmpF.s 			page 84


1101:./include/linux/atomic/atomic-instrumented.h **** 	return raw_atomic_fetch_xor_relaxed(i, v);
1102:./include/linux/atomic/atomic-instrumented.h **** }
1103:./include/linux/atomic/atomic-instrumented.h **** 
1104:./include/linux/atomic/atomic-instrumented.h **** /**
1105:./include/linux/atomic/atomic-instrumented.h ****  * atomic_xchg() - atomic exchange with full ordering
1106:./include/linux/atomic/atomic-instrumented.h ****  * @v: pointer to atomic_t
1107:./include/linux/atomic/atomic-instrumented.h ****  * @new: int value to assign
1108:./include/linux/atomic/atomic-instrumented.h ****  *
1109:./include/linux/atomic/atomic-instrumented.h ****  * Atomically updates @v to @new with full ordering.
1110:./include/linux/atomic/atomic-instrumented.h ****  *
1111:./include/linux/atomic/atomic-instrumented.h ****  * Unsafe to use in noinstr code; use raw_atomic_xchg() there.
1112:./include/linux/atomic/atomic-instrumented.h ****  *
1113:./include/linux/atomic/atomic-instrumented.h ****  * Return: The original value of @v.
1114:./include/linux/atomic/atomic-instrumented.h ****  */
1115:./include/linux/atomic/atomic-instrumented.h **** static __always_inline int
1116:./include/linux/atomic/atomic-instrumented.h **** atomic_xchg(atomic_t *v, int new)
1117:./include/linux/atomic/atomic-instrumented.h **** {
1118:./include/linux/atomic/atomic-instrumented.h **** 	kcsan_mb();
1119:./include/linux/atomic/atomic-instrumented.h **** 	instrument_atomic_read_write(v, sizeof(*v));
1120:./include/linux/atomic/atomic-instrumented.h **** 	return raw_atomic_xchg(v, new);
1121:./include/linux/atomic/atomic-instrumented.h **** }
1122:./include/linux/atomic/atomic-instrumented.h **** 
1123:./include/linux/atomic/atomic-instrumented.h **** /**
1124:./include/linux/atomic/atomic-instrumented.h ****  * atomic_xchg_acquire() - atomic exchange with acquire ordering
1125:./include/linux/atomic/atomic-instrumented.h ****  * @v: pointer to atomic_t
1126:./include/linux/atomic/atomic-instrumented.h ****  * @new: int value to assign
1127:./include/linux/atomic/atomic-instrumented.h ****  *
1128:./include/linux/atomic/atomic-instrumented.h ****  * Atomically updates @v to @new with acquire ordering.
1129:./include/linux/atomic/atomic-instrumented.h ****  *
1130:./include/linux/atomic/atomic-instrumented.h ****  * Unsafe to use in noinstr code; use raw_atomic_xchg_acquire() there.
1131:./include/linux/atomic/atomic-instrumented.h ****  *
1132:./include/linux/atomic/atomic-instrumented.h ****  * Return: The original value of @v.
1133:./include/linux/atomic/atomic-instrumented.h ****  */
1134:./include/linux/atomic/atomic-instrumented.h **** static __always_inline int
1135:./include/linux/atomic/atomic-instrumented.h **** atomic_xchg_acquire(atomic_t *v, int new)
1136:./include/linux/atomic/atomic-instrumented.h **** {
1137:./include/linux/atomic/atomic-instrumented.h **** 	instrument_atomic_read_write(v, sizeof(*v));
1138:./include/linux/atomic/atomic-instrumented.h **** 	return raw_atomic_xchg_acquire(v, new);
1139:./include/linux/atomic/atomic-instrumented.h **** }
1140:./include/linux/atomic/atomic-instrumented.h **** 
1141:./include/linux/atomic/atomic-instrumented.h **** /**
1142:./include/linux/atomic/atomic-instrumented.h ****  * atomic_xchg_release() - atomic exchange with release ordering
1143:./include/linux/atomic/atomic-instrumented.h ****  * @v: pointer to atomic_t
1144:./include/linux/atomic/atomic-instrumented.h ****  * @new: int value to assign
1145:./include/linux/atomic/atomic-instrumented.h ****  *
1146:./include/linux/atomic/atomic-instrumented.h ****  * Atomically updates @v to @new with release ordering.
1147:./include/linux/atomic/atomic-instrumented.h ****  *
1148:./include/linux/atomic/atomic-instrumented.h ****  * Unsafe to use in noinstr code; use raw_atomic_xchg_release() there.
1149:./include/linux/atomic/atomic-instrumented.h ****  *
1150:./include/linux/atomic/atomic-instrumented.h ****  * Return: The original value of @v.
1151:./include/linux/atomic/atomic-instrumented.h ****  */
1152:./include/linux/atomic/atomic-instrumented.h **** static __always_inline int
1153:./include/linux/atomic/atomic-instrumented.h **** atomic_xchg_release(atomic_t *v, int new)
1154:./include/linux/atomic/atomic-instrumented.h **** {
1155:./include/linux/atomic/atomic-instrumented.h **** 	kcsan_release();
1156:./include/linux/atomic/atomic-instrumented.h **** 	instrument_atomic_read_write(v, sizeof(*v));
1157:./include/linux/atomic/atomic-instrumented.h **** 	return raw_atomic_xchg_release(v, new);
ARM GAS  /tmp/ccnTZmpF.s 			page 85


1158:./include/linux/atomic/atomic-instrumented.h **** }
1159:./include/linux/atomic/atomic-instrumented.h **** 
1160:./include/linux/atomic/atomic-instrumented.h **** /**
1161:./include/linux/atomic/atomic-instrumented.h ****  * atomic_xchg_relaxed() - atomic exchange with relaxed ordering
1162:./include/linux/atomic/atomic-instrumented.h ****  * @v: pointer to atomic_t
1163:./include/linux/atomic/atomic-instrumented.h ****  * @new: int value to assign
1164:./include/linux/atomic/atomic-instrumented.h ****  *
1165:./include/linux/atomic/atomic-instrumented.h ****  * Atomically updates @v to @new with relaxed ordering.
1166:./include/linux/atomic/atomic-instrumented.h ****  *
1167:./include/linux/atomic/atomic-instrumented.h ****  * Unsafe to use in noinstr code; use raw_atomic_xchg_relaxed() there.
1168:./include/linux/atomic/atomic-instrumented.h ****  *
1169:./include/linux/atomic/atomic-instrumented.h ****  * Return: The original value of @v.
1170:./include/linux/atomic/atomic-instrumented.h ****  */
1171:./include/linux/atomic/atomic-instrumented.h **** static __always_inline int
1172:./include/linux/atomic/atomic-instrumented.h **** atomic_xchg_relaxed(atomic_t *v, int new)
1173:./include/linux/atomic/atomic-instrumented.h **** {
1174:./include/linux/atomic/atomic-instrumented.h **** 	instrument_atomic_read_write(v, sizeof(*v));
1175:./include/linux/atomic/atomic-instrumented.h **** 	return raw_atomic_xchg_relaxed(v, new);
1176:./include/linux/atomic/atomic-instrumented.h **** }
1177:./include/linux/atomic/atomic-instrumented.h **** 
1178:./include/linux/atomic/atomic-instrumented.h **** /**
1179:./include/linux/atomic/atomic-instrumented.h ****  * atomic_cmpxchg() - atomic compare and exchange with full ordering
1180:./include/linux/atomic/atomic-instrumented.h ****  * @v: pointer to atomic_t
1181:./include/linux/atomic/atomic-instrumented.h ****  * @old: int value to compare with
1182:./include/linux/atomic/atomic-instrumented.h ****  * @new: int value to assign
1183:./include/linux/atomic/atomic-instrumented.h ****  *
1184:./include/linux/atomic/atomic-instrumented.h ****  * If (@v == @old), atomically updates @v to @new with full ordering.
1185:./include/linux/atomic/atomic-instrumented.h ****  * Otherwise, @v is not modified and relaxed ordering is provided.
1186:./include/linux/atomic/atomic-instrumented.h ****  *
1187:./include/linux/atomic/atomic-instrumented.h ****  * Unsafe to use in noinstr code; use raw_atomic_cmpxchg() there.
1188:./include/linux/atomic/atomic-instrumented.h ****  *
1189:./include/linux/atomic/atomic-instrumented.h ****  * Return: The original value of @v.
1190:./include/linux/atomic/atomic-instrumented.h ****  */
1191:./include/linux/atomic/atomic-instrumented.h **** static __always_inline int
1192:./include/linux/atomic/atomic-instrumented.h **** atomic_cmpxchg(atomic_t *v, int old, int new)
1193:./include/linux/atomic/atomic-instrumented.h **** {
1194:./include/linux/atomic/atomic-instrumented.h **** 	kcsan_mb();
1195:./include/linux/atomic/atomic-instrumented.h **** 	instrument_atomic_read_write(v, sizeof(*v));
1196:./include/linux/atomic/atomic-instrumented.h **** 	return raw_atomic_cmpxchg(v, old, new);
1197:./include/linux/atomic/atomic-instrumented.h **** }
1198:./include/linux/atomic/atomic-instrumented.h **** 
1199:./include/linux/atomic/atomic-instrumented.h **** /**
1200:./include/linux/atomic/atomic-instrumented.h ****  * atomic_cmpxchg_acquire() - atomic compare and exchange with acquire ordering
1201:./include/linux/atomic/atomic-instrumented.h ****  * @v: pointer to atomic_t
1202:./include/linux/atomic/atomic-instrumented.h ****  * @old: int value to compare with
1203:./include/linux/atomic/atomic-instrumented.h ****  * @new: int value to assign
1204:./include/linux/atomic/atomic-instrumented.h ****  *
1205:./include/linux/atomic/atomic-instrumented.h ****  * If (@v == @old), atomically updates @v to @new with acquire ordering.
1206:./include/linux/atomic/atomic-instrumented.h ****  * Otherwise, @v is not modified and relaxed ordering is provided.
1207:./include/linux/atomic/atomic-instrumented.h ****  *
1208:./include/linux/atomic/atomic-instrumented.h ****  * Unsafe to use in noinstr code; use raw_atomic_cmpxchg_acquire() there.
1209:./include/linux/atomic/atomic-instrumented.h ****  *
1210:./include/linux/atomic/atomic-instrumented.h ****  * Return: The original value of @v.
1211:./include/linux/atomic/atomic-instrumented.h ****  */
1212:./include/linux/atomic/atomic-instrumented.h **** static __always_inline int
1213:./include/linux/atomic/atomic-instrumented.h **** atomic_cmpxchg_acquire(atomic_t *v, int old, int new)
1214:./include/linux/atomic/atomic-instrumented.h **** {
ARM GAS  /tmp/ccnTZmpF.s 			page 86


1215:./include/linux/atomic/atomic-instrumented.h **** 	instrument_atomic_read_write(v, sizeof(*v));
1216:./include/linux/atomic/atomic-instrumented.h **** 	return raw_atomic_cmpxchg_acquire(v, old, new);
1217:./include/linux/atomic/atomic-instrumented.h **** }
1218:./include/linux/atomic/atomic-instrumented.h **** 
1219:./include/linux/atomic/atomic-instrumented.h **** /**
1220:./include/linux/atomic/atomic-instrumented.h ****  * atomic_cmpxchg_release() - atomic compare and exchange with release ordering
1221:./include/linux/atomic/atomic-instrumented.h ****  * @v: pointer to atomic_t
1222:./include/linux/atomic/atomic-instrumented.h ****  * @old: int value to compare with
1223:./include/linux/atomic/atomic-instrumented.h ****  * @new: int value to assign
1224:./include/linux/atomic/atomic-instrumented.h ****  *
1225:./include/linux/atomic/atomic-instrumented.h ****  * If (@v == @old), atomically updates @v to @new with release ordering.
1226:./include/linux/atomic/atomic-instrumented.h ****  * Otherwise, @v is not modified and relaxed ordering is provided.
1227:./include/linux/atomic/atomic-instrumented.h ****  *
1228:./include/linux/atomic/atomic-instrumented.h ****  * Unsafe to use in noinstr code; use raw_atomic_cmpxchg_release() there.
1229:./include/linux/atomic/atomic-instrumented.h ****  *
1230:./include/linux/atomic/atomic-instrumented.h ****  * Return: The original value of @v.
1231:./include/linux/atomic/atomic-instrumented.h ****  */
1232:./include/linux/atomic/atomic-instrumented.h **** static __always_inline int
1233:./include/linux/atomic/atomic-instrumented.h **** atomic_cmpxchg_release(atomic_t *v, int old, int new)
1234:./include/linux/atomic/atomic-instrumented.h **** {
1235:./include/linux/atomic/atomic-instrumented.h **** 	kcsan_release();
1236:./include/linux/atomic/atomic-instrumented.h **** 	instrument_atomic_read_write(v, sizeof(*v));
1237:./include/linux/atomic/atomic-instrumented.h **** 	return raw_atomic_cmpxchg_release(v, old, new);
1238:./include/linux/atomic/atomic-instrumented.h **** }
1239:./include/linux/atomic/atomic-instrumented.h **** 
1240:./include/linux/atomic/atomic-instrumented.h **** /**
1241:./include/linux/atomic/atomic-instrumented.h ****  * atomic_cmpxchg_relaxed() - atomic compare and exchange with relaxed ordering
1242:./include/linux/atomic/atomic-instrumented.h ****  * @v: pointer to atomic_t
1243:./include/linux/atomic/atomic-instrumented.h ****  * @old: int value to compare with
1244:./include/linux/atomic/atomic-instrumented.h ****  * @new: int value to assign
1245:./include/linux/atomic/atomic-instrumented.h ****  *
1246:./include/linux/atomic/atomic-instrumented.h ****  * If (@v == @old), atomically updates @v to @new with relaxed ordering.
1247:./include/linux/atomic/atomic-instrumented.h ****  * Otherwise, @v is not modified and relaxed ordering is provided.
1248:./include/linux/atomic/atomic-instrumented.h ****  *
1249:./include/linux/atomic/atomic-instrumented.h ****  * Unsafe to use in noinstr code; use raw_atomic_cmpxchg_relaxed() there.
1250:./include/linux/atomic/atomic-instrumented.h ****  *
1251:./include/linux/atomic/atomic-instrumented.h ****  * Return: The original value of @v.
1252:./include/linux/atomic/atomic-instrumented.h ****  */
1253:./include/linux/atomic/atomic-instrumented.h **** static __always_inline int
1254:./include/linux/atomic/atomic-instrumented.h **** atomic_cmpxchg_relaxed(atomic_t *v, int old, int new)
1255:./include/linux/atomic/atomic-instrumented.h **** {
1256:./include/linux/atomic/atomic-instrumented.h **** 	instrument_atomic_read_write(v, sizeof(*v));
1257:./include/linux/atomic/atomic-instrumented.h **** 	return raw_atomic_cmpxchg_relaxed(v, old, new);
1258:./include/linux/atomic/atomic-instrumented.h **** }
1259:./include/linux/atomic/atomic-instrumented.h **** 
1260:./include/linux/atomic/atomic-instrumented.h **** /**
1261:./include/linux/atomic/atomic-instrumented.h ****  * atomic_try_cmpxchg() - atomic compare and exchange with full ordering
1262:./include/linux/atomic/atomic-instrumented.h ****  * @v: pointer to atomic_t
1263:./include/linux/atomic/atomic-instrumented.h ****  * @old: pointer to int value to compare with
1264:./include/linux/atomic/atomic-instrumented.h ****  * @new: int value to assign
1265:./include/linux/atomic/atomic-instrumented.h ****  *
1266:./include/linux/atomic/atomic-instrumented.h ****  * If (@v == @old), atomically updates @v to @new with full ordering.
1267:./include/linux/atomic/atomic-instrumented.h ****  * Otherwise, @v is not modified, @old is updated to the current value of @v,
1268:./include/linux/atomic/atomic-instrumented.h ****  * and relaxed ordering is provided.
1269:./include/linux/atomic/atomic-instrumented.h ****  *
1270:./include/linux/atomic/atomic-instrumented.h ****  * Unsafe to use in noinstr code; use raw_atomic_try_cmpxchg() there.
1271:./include/linux/atomic/atomic-instrumented.h ****  *
ARM GAS  /tmp/ccnTZmpF.s 			page 87


1272:./include/linux/atomic/atomic-instrumented.h ****  * Return: @true if the exchange occured, @false otherwise.
1273:./include/linux/atomic/atomic-instrumented.h ****  */
1274:./include/linux/atomic/atomic-instrumented.h **** static __always_inline bool
1275:./include/linux/atomic/atomic-instrumented.h **** atomic_try_cmpxchg(atomic_t *v, int *old, int new)
1276:./include/linux/atomic/atomic-instrumented.h **** {
1277:./include/linux/atomic/atomic-instrumented.h **** 	kcsan_mb();
1278:./include/linux/atomic/atomic-instrumented.h **** 	instrument_atomic_read_write(v, sizeof(*v));
1279:./include/linux/atomic/atomic-instrumented.h **** 	instrument_atomic_read_write(old, sizeof(*old));
1280:./include/linux/atomic/atomic-instrumented.h **** 	return raw_atomic_try_cmpxchg(v, old, new);
1281:./include/linux/atomic/atomic-instrumented.h **** }
1282:./include/linux/atomic/atomic-instrumented.h **** 
1283:./include/linux/atomic/atomic-instrumented.h **** /**
1284:./include/linux/atomic/atomic-instrumented.h ****  * atomic_try_cmpxchg_acquire() - atomic compare and exchange with acquire ordering
1285:./include/linux/atomic/atomic-instrumented.h ****  * @v: pointer to atomic_t
1286:./include/linux/atomic/atomic-instrumented.h ****  * @old: pointer to int value to compare with
1287:./include/linux/atomic/atomic-instrumented.h ****  * @new: int value to assign
1288:./include/linux/atomic/atomic-instrumented.h ****  *
1289:./include/linux/atomic/atomic-instrumented.h ****  * If (@v == @old), atomically updates @v to @new with acquire ordering.
1290:./include/linux/atomic/atomic-instrumented.h ****  * Otherwise, @v is not modified, @old is updated to the current value of @v,
1291:./include/linux/atomic/atomic-instrumented.h ****  * and relaxed ordering is provided.
1292:./include/linux/atomic/atomic-instrumented.h ****  *
1293:./include/linux/atomic/atomic-instrumented.h ****  * Unsafe to use in noinstr code; use raw_atomic_try_cmpxchg_acquire() there.
1294:./include/linux/atomic/atomic-instrumented.h ****  *
1295:./include/linux/atomic/atomic-instrumented.h ****  * Return: @true if the exchange occured, @false otherwise.
1296:./include/linux/atomic/atomic-instrumented.h ****  */
1297:./include/linux/atomic/atomic-instrumented.h **** static __always_inline bool
1298:./include/linux/atomic/atomic-instrumented.h **** atomic_try_cmpxchg_acquire(atomic_t *v, int *old, int new)
1299:./include/linux/atomic/atomic-instrumented.h **** {
1300:./include/linux/atomic/atomic-instrumented.h **** 	instrument_atomic_read_write(v, sizeof(*v));
1301:./include/linux/atomic/atomic-instrumented.h **** 	instrument_atomic_read_write(old, sizeof(*old));
1302:./include/linux/atomic/atomic-instrumented.h **** 	return raw_atomic_try_cmpxchg_acquire(v, old, new);
1303:./include/linux/atomic/atomic-instrumented.h **** }
1304:./include/linux/atomic/atomic-instrumented.h **** 
1305:./include/linux/atomic/atomic-instrumented.h **** /**
1306:./include/linux/atomic/atomic-instrumented.h ****  * atomic_try_cmpxchg_release() - atomic compare and exchange with release ordering
1307:./include/linux/atomic/atomic-instrumented.h ****  * @v: pointer to atomic_t
1308:./include/linux/atomic/atomic-instrumented.h ****  * @old: pointer to int value to compare with
1309:./include/linux/atomic/atomic-instrumented.h ****  * @new: int value to assign
1310:./include/linux/atomic/atomic-instrumented.h ****  *
1311:./include/linux/atomic/atomic-instrumented.h ****  * If (@v == @old), atomically updates @v to @new with release ordering.
1312:./include/linux/atomic/atomic-instrumented.h ****  * Otherwise, @v is not modified, @old is updated to the current value of @v,
1313:./include/linux/atomic/atomic-instrumented.h ****  * and relaxed ordering is provided.
1314:./include/linux/atomic/atomic-instrumented.h ****  *
1315:./include/linux/atomic/atomic-instrumented.h ****  * Unsafe to use in noinstr code; use raw_atomic_try_cmpxchg_release() there.
1316:./include/linux/atomic/atomic-instrumented.h ****  *
1317:./include/linux/atomic/atomic-instrumented.h ****  * Return: @true if the exchange occured, @false otherwise.
1318:./include/linux/atomic/atomic-instrumented.h ****  */
1319:./include/linux/atomic/atomic-instrumented.h **** static __always_inline bool
1320:./include/linux/atomic/atomic-instrumented.h **** atomic_try_cmpxchg_release(atomic_t *v, int *old, int new)
1321:./include/linux/atomic/atomic-instrumented.h **** {
1322:./include/linux/atomic/atomic-instrumented.h **** 	kcsan_release();
1323:./include/linux/atomic/atomic-instrumented.h **** 	instrument_atomic_read_write(v, sizeof(*v));
1324:./include/linux/atomic/atomic-instrumented.h **** 	instrument_atomic_read_write(old, sizeof(*old));
1325:./include/linux/atomic/atomic-instrumented.h **** 	return raw_atomic_try_cmpxchg_release(v, old, new);
1326:./include/linux/atomic/atomic-instrumented.h **** }
1327:./include/linux/atomic/atomic-instrumented.h **** 
1328:./include/linux/atomic/atomic-instrumented.h **** /**
ARM GAS  /tmp/ccnTZmpF.s 			page 88


1329:./include/linux/atomic/atomic-instrumented.h ****  * atomic_try_cmpxchg_relaxed() - atomic compare and exchange with relaxed ordering
1330:./include/linux/atomic/atomic-instrumented.h ****  * @v: pointer to atomic_t
1331:./include/linux/atomic/atomic-instrumented.h ****  * @old: pointer to int value to compare with
1332:./include/linux/atomic/atomic-instrumented.h ****  * @new: int value to assign
1333:./include/linux/atomic/atomic-instrumented.h ****  *
1334:./include/linux/atomic/atomic-instrumented.h ****  * If (@v == @old), atomically updates @v to @new with relaxed ordering.
1335:./include/linux/atomic/atomic-instrumented.h ****  * Otherwise, @v is not modified, @old is updated to the current value of @v,
1336:./include/linux/atomic/atomic-instrumented.h ****  * and relaxed ordering is provided.
1337:./include/linux/atomic/atomic-instrumented.h ****  *
1338:./include/linux/atomic/atomic-instrumented.h ****  * Unsafe to use in noinstr code; use raw_atomic_try_cmpxchg_relaxed() there.
1339:./include/linux/atomic/atomic-instrumented.h ****  *
1340:./include/linux/atomic/atomic-instrumented.h ****  * Return: @true if the exchange occured, @false otherwise.
1341:./include/linux/atomic/atomic-instrumented.h ****  */
1342:./include/linux/atomic/atomic-instrumented.h **** static __always_inline bool
1343:./include/linux/atomic/atomic-instrumented.h **** atomic_try_cmpxchg_relaxed(atomic_t *v, int *old, int new)
1344:./include/linux/atomic/atomic-instrumented.h **** {
1345:./include/linux/atomic/atomic-instrumented.h **** 	instrument_atomic_read_write(v, sizeof(*v));
1346:./include/linux/atomic/atomic-instrumented.h **** 	instrument_atomic_read_write(old, sizeof(*old));
1347:./include/linux/atomic/atomic-instrumented.h **** 	return raw_atomic_try_cmpxchg_relaxed(v, old, new);
1348:./include/linux/atomic/atomic-instrumented.h **** }
1349:./include/linux/atomic/atomic-instrumented.h **** 
1350:./include/linux/atomic/atomic-instrumented.h **** /**
1351:./include/linux/atomic/atomic-instrumented.h ****  * atomic_sub_and_test() - atomic subtract and test if zero with full ordering
1352:./include/linux/atomic/atomic-instrumented.h ****  * @i: int value to subtract
1353:./include/linux/atomic/atomic-instrumented.h ****  * @v: pointer to atomic_t
1354:./include/linux/atomic/atomic-instrumented.h ****  *
1355:./include/linux/atomic/atomic-instrumented.h ****  * Atomically updates @v to (@v - @i) with full ordering.
1356:./include/linux/atomic/atomic-instrumented.h ****  *
1357:./include/linux/atomic/atomic-instrumented.h ****  * Unsafe to use in noinstr code; use raw_atomic_sub_and_test() there.
1358:./include/linux/atomic/atomic-instrumented.h ****  *
1359:./include/linux/atomic/atomic-instrumented.h ****  * Return: @true if the resulting value of @v is zero, @false otherwise.
1360:./include/linux/atomic/atomic-instrumented.h ****  */
1361:./include/linux/atomic/atomic-instrumented.h **** static __always_inline bool
1362:./include/linux/atomic/atomic-instrumented.h **** atomic_sub_and_test(int i, atomic_t *v)
1363:./include/linux/atomic/atomic-instrumented.h **** {
1364:./include/linux/atomic/atomic-instrumented.h **** 	kcsan_mb();
1365:./include/linux/atomic/atomic-instrumented.h **** 	instrument_atomic_read_write(v, sizeof(*v));
1366:./include/linux/atomic/atomic-instrumented.h **** 	return raw_atomic_sub_and_test(i, v);
1367:./include/linux/atomic/atomic-instrumented.h **** }
1368:./include/linux/atomic/atomic-instrumented.h **** 
1369:./include/linux/atomic/atomic-instrumented.h **** /**
1370:./include/linux/atomic/atomic-instrumented.h ****  * atomic_dec_and_test() - atomic decrement and test if zero with full ordering
1371:./include/linux/atomic/atomic-instrumented.h ****  * @v: pointer to atomic_t
1372:./include/linux/atomic/atomic-instrumented.h ****  *
1373:./include/linux/atomic/atomic-instrumented.h ****  * Atomically updates @v to (@v - 1) with full ordering.
1374:./include/linux/atomic/atomic-instrumented.h ****  *
1375:./include/linux/atomic/atomic-instrumented.h ****  * Unsafe to use in noinstr code; use raw_atomic_dec_and_test() there.
1376:./include/linux/atomic/atomic-instrumented.h ****  *
1377:./include/linux/atomic/atomic-instrumented.h ****  * Return: @true if the resulting value of @v is zero, @false otherwise.
1378:./include/linux/atomic/atomic-instrumented.h ****  */
1379:./include/linux/atomic/atomic-instrumented.h **** static __always_inline bool
1380:./include/linux/atomic/atomic-instrumented.h **** atomic_dec_and_test(atomic_t *v)
 1517              		.loc 7 1380 1 is_stmt 1 view .LVU380
1381:./include/linux/atomic/atomic-instrumented.h **** {
1382:./include/linux/atomic/atomic-instrumented.h **** 	kcsan_mb();
 1518              		.loc 7 1382 2 view .LVU381
 1519              		.loc 7 1382 2 view .LVU382
ARM GAS  /tmp/ccnTZmpF.s 			page 89


 1520              		.loc 7 1382 2 view .LVU383
1383:./include/linux/atomic/atomic-instrumented.h **** 	instrument_atomic_read_write(v, sizeof(*v));
 1521              		.loc 7 1383 2 view .LVU384
1384:./include/linux/atomic/atomic-instrumented.h **** 	return raw_atomic_dec_and_test(v);
 1522              		.loc 7 1384 2 view .LVU385
 1523              	.LBB118:
 1524              	.LBI118:
 1525              		.file 8 "./include/linux/atomic/atomic-arch-fallback.h"
   1:./include/linux/atomic/atomic-arch-fallback.h **** // SPDX-License-Identifier: GPL-2.0
   2:./include/linux/atomic/atomic-arch-fallback.h **** 
   3:./include/linux/atomic/atomic-arch-fallback.h **** // Generated by scripts/atomic/gen-atomic-fallback.sh
   4:./include/linux/atomic/atomic-arch-fallback.h **** // DO NOT MODIFY THIS FILE DIRECTLY
   5:./include/linux/atomic/atomic-arch-fallback.h **** 
   6:./include/linux/atomic/atomic-arch-fallback.h **** #ifndef _LINUX_ATOMIC_FALLBACK_H
   7:./include/linux/atomic/atomic-arch-fallback.h **** #define _LINUX_ATOMIC_FALLBACK_H
   8:./include/linux/atomic/atomic-arch-fallback.h **** 
   9:./include/linux/atomic/atomic-arch-fallback.h **** #include <linux/compiler.h>
  10:./include/linux/atomic/atomic-arch-fallback.h **** 
  11:./include/linux/atomic/atomic-arch-fallback.h **** #if defined(arch_xchg)
  12:./include/linux/atomic/atomic-arch-fallback.h **** #define raw_xchg arch_xchg
  13:./include/linux/atomic/atomic-arch-fallback.h **** #elif defined(arch_xchg_relaxed)
  14:./include/linux/atomic/atomic-arch-fallback.h **** #define raw_xchg(...) \
  15:./include/linux/atomic/atomic-arch-fallback.h **** 	__atomic_op_fence(arch_xchg, __VA_ARGS__)
  16:./include/linux/atomic/atomic-arch-fallback.h **** #else
  17:./include/linux/atomic/atomic-arch-fallback.h **** extern void raw_xchg_not_implemented(void);
  18:./include/linux/atomic/atomic-arch-fallback.h **** #define raw_xchg(...) raw_xchg_not_implemented()
  19:./include/linux/atomic/atomic-arch-fallback.h **** #endif
  20:./include/linux/atomic/atomic-arch-fallback.h **** 
  21:./include/linux/atomic/atomic-arch-fallback.h **** #if defined(arch_xchg_acquire)
  22:./include/linux/atomic/atomic-arch-fallback.h **** #define raw_xchg_acquire arch_xchg_acquire
  23:./include/linux/atomic/atomic-arch-fallback.h **** #elif defined(arch_xchg_relaxed)
  24:./include/linux/atomic/atomic-arch-fallback.h **** #define raw_xchg_acquire(...) \
  25:./include/linux/atomic/atomic-arch-fallback.h **** 	__atomic_op_acquire(arch_xchg, __VA_ARGS__)
  26:./include/linux/atomic/atomic-arch-fallback.h **** #elif defined(arch_xchg)
  27:./include/linux/atomic/atomic-arch-fallback.h **** #define raw_xchg_acquire arch_xchg
  28:./include/linux/atomic/atomic-arch-fallback.h **** #else
  29:./include/linux/atomic/atomic-arch-fallback.h **** extern void raw_xchg_acquire_not_implemented(void);
  30:./include/linux/atomic/atomic-arch-fallback.h **** #define raw_xchg_acquire(...) raw_xchg_acquire_not_implemented()
  31:./include/linux/atomic/atomic-arch-fallback.h **** #endif
  32:./include/linux/atomic/atomic-arch-fallback.h **** 
  33:./include/linux/atomic/atomic-arch-fallback.h **** #if defined(arch_xchg_release)
  34:./include/linux/atomic/atomic-arch-fallback.h **** #define raw_xchg_release arch_xchg_release
  35:./include/linux/atomic/atomic-arch-fallback.h **** #elif defined(arch_xchg_relaxed)
  36:./include/linux/atomic/atomic-arch-fallback.h **** #define raw_xchg_release(...) \
  37:./include/linux/atomic/atomic-arch-fallback.h **** 	__atomic_op_release(arch_xchg, __VA_ARGS__)
  38:./include/linux/atomic/atomic-arch-fallback.h **** #elif defined(arch_xchg)
  39:./include/linux/atomic/atomic-arch-fallback.h **** #define raw_xchg_release arch_xchg
  40:./include/linux/atomic/atomic-arch-fallback.h **** #else
  41:./include/linux/atomic/atomic-arch-fallback.h **** extern void raw_xchg_release_not_implemented(void);
  42:./include/linux/atomic/atomic-arch-fallback.h **** #define raw_xchg_release(...) raw_xchg_release_not_implemented()
  43:./include/linux/atomic/atomic-arch-fallback.h **** #endif
  44:./include/linux/atomic/atomic-arch-fallback.h **** 
  45:./include/linux/atomic/atomic-arch-fallback.h **** #if defined(arch_xchg_relaxed)
  46:./include/linux/atomic/atomic-arch-fallback.h **** #define raw_xchg_relaxed arch_xchg_relaxed
  47:./include/linux/atomic/atomic-arch-fallback.h **** #elif defined(arch_xchg)
  48:./include/linux/atomic/atomic-arch-fallback.h **** #define raw_xchg_relaxed arch_xchg
  49:./include/linux/atomic/atomic-arch-fallback.h **** #else
ARM GAS  /tmp/ccnTZmpF.s 			page 90


  50:./include/linux/atomic/atomic-arch-fallback.h **** extern void raw_xchg_relaxed_not_implemented(void);
  51:./include/linux/atomic/atomic-arch-fallback.h **** #define raw_xchg_relaxed(...) raw_xchg_relaxed_not_implemented()
  52:./include/linux/atomic/atomic-arch-fallback.h **** #endif
  53:./include/linux/atomic/atomic-arch-fallback.h **** 
  54:./include/linux/atomic/atomic-arch-fallback.h **** #if defined(arch_cmpxchg)
  55:./include/linux/atomic/atomic-arch-fallback.h **** #define raw_cmpxchg arch_cmpxchg
  56:./include/linux/atomic/atomic-arch-fallback.h **** #elif defined(arch_cmpxchg_relaxed)
  57:./include/linux/atomic/atomic-arch-fallback.h **** #define raw_cmpxchg(...) \
  58:./include/linux/atomic/atomic-arch-fallback.h **** 	__atomic_op_fence(arch_cmpxchg, __VA_ARGS__)
  59:./include/linux/atomic/atomic-arch-fallback.h **** #else
  60:./include/linux/atomic/atomic-arch-fallback.h **** extern void raw_cmpxchg_not_implemented(void);
  61:./include/linux/atomic/atomic-arch-fallback.h **** #define raw_cmpxchg(...) raw_cmpxchg_not_implemented()
  62:./include/linux/atomic/atomic-arch-fallback.h **** #endif
  63:./include/linux/atomic/atomic-arch-fallback.h **** 
  64:./include/linux/atomic/atomic-arch-fallback.h **** #if defined(arch_cmpxchg_acquire)
  65:./include/linux/atomic/atomic-arch-fallback.h **** #define raw_cmpxchg_acquire arch_cmpxchg_acquire
  66:./include/linux/atomic/atomic-arch-fallback.h **** #elif defined(arch_cmpxchg_relaxed)
  67:./include/linux/atomic/atomic-arch-fallback.h **** #define raw_cmpxchg_acquire(...) \
  68:./include/linux/atomic/atomic-arch-fallback.h **** 	__atomic_op_acquire(arch_cmpxchg, __VA_ARGS__)
  69:./include/linux/atomic/atomic-arch-fallback.h **** #elif defined(arch_cmpxchg)
  70:./include/linux/atomic/atomic-arch-fallback.h **** #define raw_cmpxchg_acquire arch_cmpxchg
  71:./include/linux/atomic/atomic-arch-fallback.h **** #else
  72:./include/linux/atomic/atomic-arch-fallback.h **** extern void raw_cmpxchg_acquire_not_implemented(void);
  73:./include/linux/atomic/atomic-arch-fallback.h **** #define raw_cmpxchg_acquire(...) raw_cmpxchg_acquire_not_implemented()
  74:./include/linux/atomic/atomic-arch-fallback.h **** #endif
  75:./include/linux/atomic/atomic-arch-fallback.h **** 
  76:./include/linux/atomic/atomic-arch-fallback.h **** #if defined(arch_cmpxchg_release)
  77:./include/linux/atomic/atomic-arch-fallback.h **** #define raw_cmpxchg_release arch_cmpxchg_release
  78:./include/linux/atomic/atomic-arch-fallback.h **** #elif defined(arch_cmpxchg_relaxed)
  79:./include/linux/atomic/atomic-arch-fallback.h **** #define raw_cmpxchg_release(...) \
  80:./include/linux/atomic/atomic-arch-fallback.h **** 	__atomic_op_release(arch_cmpxchg, __VA_ARGS__)
  81:./include/linux/atomic/atomic-arch-fallback.h **** #elif defined(arch_cmpxchg)
  82:./include/linux/atomic/atomic-arch-fallback.h **** #define raw_cmpxchg_release arch_cmpxchg
  83:./include/linux/atomic/atomic-arch-fallback.h **** #else
  84:./include/linux/atomic/atomic-arch-fallback.h **** extern void raw_cmpxchg_release_not_implemented(void);
  85:./include/linux/atomic/atomic-arch-fallback.h **** #define raw_cmpxchg_release(...) raw_cmpxchg_release_not_implemented()
  86:./include/linux/atomic/atomic-arch-fallback.h **** #endif
  87:./include/linux/atomic/atomic-arch-fallback.h **** 
  88:./include/linux/atomic/atomic-arch-fallback.h **** #if defined(arch_cmpxchg_relaxed)
  89:./include/linux/atomic/atomic-arch-fallback.h **** #define raw_cmpxchg_relaxed arch_cmpxchg_relaxed
  90:./include/linux/atomic/atomic-arch-fallback.h **** #elif defined(arch_cmpxchg)
  91:./include/linux/atomic/atomic-arch-fallback.h **** #define raw_cmpxchg_relaxed arch_cmpxchg
  92:./include/linux/atomic/atomic-arch-fallback.h **** #else
  93:./include/linux/atomic/atomic-arch-fallback.h **** extern void raw_cmpxchg_relaxed_not_implemented(void);
  94:./include/linux/atomic/atomic-arch-fallback.h **** #define raw_cmpxchg_relaxed(...) raw_cmpxchg_relaxed_not_implemented()
  95:./include/linux/atomic/atomic-arch-fallback.h **** #endif
  96:./include/linux/atomic/atomic-arch-fallback.h **** 
  97:./include/linux/atomic/atomic-arch-fallback.h **** #if defined(arch_cmpxchg64)
  98:./include/linux/atomic/atomic-arch-fallback.h **** #define raw_cmpxchg64 arch_cmpxchg64
  99:./include/linux/atomic/atomic-arch-fallback.h **** #elif defined(arch_cmpxchg64_relaxed)
 100:./include/linux/atomic/atomic-arch-fallback.h **** #define raw_cmpxchg64(...) \
 101:./include/linux/atomic/atomic-arch-fallback.h **** 	__atomic_op_fence(arch_cmpxchg64, __VA_ARGS__)
 102:./include/linux/atomic/atomic-arch-fallback.h **** #else
 103:./include/linux/atomic/atomic-arch-fallback.h **** extern void raw_cmpxchg64_not_implemented(void);
 104:./include/linux/atomic/atomic-arch-fallback.h **** #define raw_cmpxchg64(...) raw_cmpxchg64_not_implemented()
 105:./include/linux/atomic/atomic-arch-fallback.h **** #endif
 106:./include/linux/atomic/atomic-arch-fallback.h **** 
ARM GAS  /tmp/ccnTZmpF.s 			page 91


 107:./include/linux/atomic/atomic-arch-fallback.h **** #if defined(arch_cmpxchg64_acquire)
 108:./include/linux/atomic/atomic-arch-fallback.h **** #define raw_cmpxchg64_acquire arch_cmpxchg64_acquire
 109:./include/linux/atomic/atomic-arch-fallback.h **** #elif defined(arch_cmpxchg64_relaxed)
 110:./include/linux/atomic/atomic-arch-fallback.h **** #define raw_cmpxchg64_acquire(...) \
 111:./include/linux/atomic/atomic-arch-fallback.h **** 	__atomic_op_acquire(arch_cmpxchg64, __VA_ARGS__)
 112:./include/linux/atomic/atomic-arch-fallback.h **** #elif defined(arch_cmpxchg64)
 113:./include/linux/atomic/atomic-arch-fallback.h **** #define raw_cmpxchg64_acquire arch_cmpxchg64
 114:./include/linux/atomic/atomic-arch-fallback.h **** #else
 115:./include/linux/atomic/atomic-arch-fallback.h **** extern void raw_cmpxchg64_acquire_not_implemented(void);
 116:./include/linux/atomic/atomic-arch-fallback.h **** #define raw_cmpxchg64_acquire(...) raw_cmpxchg64_acquire_not_implemented()
 117:./include/linux/atomic/atomic-arch-fallback.h **** #endif
 118:./include/linux/atomic/atomic-arch-fallback.h **** 
 119:./include/linux/atomic/atomic-arch-fallback.h **** #if defined(arch_cmpxchg64_release)
 120:./include/linux/atomic/atomic-arch-fallback.h **** #define raw_cmpxchg64_release arch_cmpxchg64_release
 121:./include/linux/atomic/atomic-arch-fallback.h **** #elif defined(arch_cmpxchg64_relaxed)
 122:./include/linux/atomic/atomic-arch-fallback.h **** #define raw_cmpxchg64_release(...) \
 123:./include/linux/atomic/atomic-arch-fallback.h **** 	__atomic_op_release(arch_cmpxchg64, __VA_ARGS__)
 124:./include/linux/atomic/atomic-arch-fallback.h **** #elif defined(arch_cmpxchg64)
 125:./include/linux/atomic/atomic-arch-fallback.h **** #define raw_cmpxchg64_release arch_cmpxchg64
 126:./include/linux/atomic/atomic-arch-fallback.h **** #else
 127:./include/linux/atomic/atomic-arch-fallback.h **** extern void raw_cmpxchg64_release_not_implemented(void);
 128:./include/linux/atomic/atomic-arch-fallback.h **** #define raw_cmpxchg64_release(...) raw_cmpxchg64_release_not_implemented()
 129:./include/linux/atomic/atomic-arch-fallback.h **** #endif
 130:./include/linux/atomic/atomic-arch-fallback.h **** 
 131:./include/linux/atomic/atomic-arch-fallback.h **** #if defined(arch_cmpxchg64_relaxed)
 132:./include/linux/atomic/atomic-arch-fallback.h **** #define raw_cmpxchg64_relaxed arch_cmpxchg64_relaxed
 133:./include/linux/atomic/atomic-arch-fallback.h **** #elif defined(arch_cmpxchg64)
 134:./include/linux/atomic/atomic-arch-fallback.h **** #define raw_cmpxchg64_relaxed arch_cmpxchg64
 135:./include/linux/atomic/atomic-arch-fallback.h **** #else
 136:./include/linux/atomic/atomic-arch-fallback.h **** extern void raw_cmpxchg64_relaxed_not_implemented(void);
 137:./include/linux/atomic/atomic-arch-fallback.h **** #define raw_cmpxchg64_relaxed(...) raw_cmpxchg64_relaxed_not_implemented()
 138:./include/linux/atomic/atomic-arch-fallback.h **** #endif
 139:./include/linux/atomic/atomic-arch-fallback.h **** 
 140:./include/linux/atomic/atomic-arch-fallback.h **** #if defined(arch_cmpxchg128)
 141:./include/linux/atomic/atomic-arch-fallback.h **** #define raw_cmpxchg128 arch_cmpxchg128
 142:./include/linux/atomic/atomic-arch-fallback.h **** #elif defined(arch_cmpxchg128_relaxed)
 143:./include/linux/atomic/atomic-arch-fallback.h **** #define raw_cmpxchg128(...) \
 144:./include/linux/atomic/atomic-arch-fallback.h **** 	__atomic_op_fence(arch_cmpxchg128, __VA_ARGS__)
 145:./include/linux/atomic/atomic-arch-fallback.h **** #else
 146:./include/linux/atomic/atomic-arch-fallback.h **** extern void raw_cmpxchg128_not_implemented(void);
 147:./include/linux/atomic/atomic-arch-fallback.h **** #define raw_cmpxchg128(...) raw_cmpxchg128_not_implemented()
 148:./include/linux/atomic/atomic-arch-fallback.h **** #endif
 149:./include/linux/atomic/atomic-arch-fallback.h **** 
 150:./include/linux/atomic/atomic-arch-fallback.h **** #if defined(arch_cmpxchg128_acquire)
 151:./include/linux/atomic/atomic-arch-fallback.h **** #define raw_cmpxchg128_acquire arch_cmpxchg128_acquire
 152:./include/linux/atomic/atomic-arch-fallback.h **** #elif defined(arch_cmpxchg128_relaxed)
 153:./include/linux/atomic/atomic-arch-fallback.h **** #define raw_cmpxchg128_acquire(...) \
 154:./include/linux/atomic/atomic-arch-fallback.h **** 	__atomic_op_acquire(arch_cmpxchg128, __VA_ARGS__)
 155:./include/linux/atomic/atomic-arch-fallback.h **** #elif defined(arch_cmpxchg128)
 156:./include/linux/atomic/atomic-arch-fallback.h **** #define raw_cmpxchg128_acquire arch_cmpxchg128
 157:./include/linux/atomic/atomic-arch-fallback.h **** #else
 158:./include/linux/atomic/atomic-arch-fallback.h **** extern void raw_cmpxchg128_acquire_not_implemented(void);
 159:./include/linux/atomic/atomic-arch-fallback.h **** #define raw_cmpxchg128_acquire(...) raw_cmpxchg128_acquire_not_implemented()
 160:./include/linux/atomic/atomic-arch-fallback.h **** #endif
 161:./include/linux/atomic/atomic-arch-fallback.h **** 
 162:./include/linux/atomic/atomic-arch-fallback.h **** #if defined(arch_cmpxchg128_release)
 163:./include/linux/atomic/atomic-arch-fallback.h **** #define raw_cmpxchg128_release arch_cmpxchg128_release
ARM GAS  /tmp/ccnTZmpF.s 			page 92


 164:./include/linux/atomic/atomic-arch-fallback.h **** #elif defined(arch_cmpxchg128_relaxed)
 165:./include/linux/atomic/atomic-arch-fallback.h **** #define raw_cmpxchg128_release(...) \
 166:./include/linux/atomic/atomic-arch-fallback.h **** 	__atomic_op_release(arch_cmpxchg128, __VA_ARGS__)
 167:./include/linux/atomic/atomic-arch-fallback.h **** #elif defined(arch_cmpxchg128)
 168:./include/linux/atomic/atomic-arch-fallback.h **** #define raw_cmpxchg128_release arch_cmpxchg128
 169:./include/linux/atomic/atomic-arch-fallback.h **** #else
 170:./include/linux/atomic/atomic-arch-fallback.h **** extern void raw_cmpxchg128_release_not_implemented(void);
 171:./include/linux/atomic/atomic-arch-fallback.h **** #define raw_cmpxchg128_release(...) raw_cmpxchg128_release_not_implemented()
 172:./include/linux/atomic/atomic-arch-fallback.h **** #endif
 173:./include/linux/atomic/atomic-arch-fallback.h **** 
 174:./include/linux/atomic/atomic-arch-fallback.h **** #if defined(arch_cmpxchg128_relaxed)
 175:./include/linux/atomic/atomic-arch-fallback.h **** #define raw_cmpxchg128_relaxed arch_cmpxchg128_relaxed
 176:./include/linux/atomic/atomic-arch-fallback.h **** #elif defined(arch_cmpxchg128)
 177:./include/linux/atomic/atomic-arch-fallback.h **** #define raw_cmpxchg128_relaxed arch_cmpxchg128
 178:./include/linux/atomic/atomic-arch-fallback.h **** #else
 179:./include/linux/atomic/atomic-arch-fallback.h **** extern void raw_cmpxchg128_relaxed_not_implemented(void);
 180:./include/linux/atomic/atomic-arch-fallback.h **** #define raw_cmpxchg128_relaxed(...) raw_cmpxchg128_relaxed_not_implemented()
 181:./include/linux/atomic/atomic-arch-fallback.h **** #endif
 182:./include/linux/atomic/atomic-arch-fallback.h **** 
 183:./include/linux/atomic/atomic-arch-fallback.h **** 
 184:./include/linux/atomic/atomic-arch-fallback.h **** 
 185:./include/linux/atomic/atomic-arch-fallback.h **** 
 186:./include/linux/atomic/atomic-arch-fallback.h **** 
 187:./include/linux/atomic/atomic-arch-fallback.h **** 
 188:./include/linux/atomic/atomic-arch-fallback.h **** 
 189:./include/linux/atomic/atomic-arch-fallback.h **** #if defined(arch_try_cmpxchg)
 190:./include/linux/atomic/atomic-arch-fallback.h **** #define raw_try_cmpxchg arch_try_cmpxchg
 191:./include/linux/atomic/atomic-arch-fallback.h **** #elif defined(arch_try_cmpxchg_relaxed)
 192:./include/linux/atomic/atomic-arch-fallback.h **** #define raw_try_cmpxchg(...) \
 193:./include/linux/atomic/atomic-arch-fallback.h **** 	__atomic_op_fence(arch_try_cmpxchg, __VA_ARGS__)
 194:./include/linux/atomic/atomic-arch-fallback.h **** #else
 195:./include/linux/atomic/atomic-arch-fallback.h **** #define raw_try_cmpxchg(_ptr, _oldp, _new) \
 196:./include/linux/atomic/atomic-arch-fallback.h **** ({ \
 197:./include/linux/atomic/atomic-arch-fallback.h **** 	typeof(*(_ptr)) *___op = (_oldp), ___o = *___op, ___r; \
 198:./include/linux/atomic/atomic-arch-fallback.h **** 	___r = raw_cmpxchg((_ptr), ___o, (_new)); \
 199:./include/linux/atomic/atomic-arch-fallback.h **** 	if (unlikely(___r != ___o)) \
 200:./include/linux/atomic/atomic-arch-fallback.h **** 		*___op = ___r; \
 201:./include/linux/atomic/atomic-arch-fallback.h **** 	likely(___r == ___o); \
 202:./include/linux/atomic/atomic-arch-fallback.h **** })
 203:./include/linux/atomic/atomic-arch-fallback.h **** #endif
 204:./include/linux/atomic/atomic-arch-fallback.h **** 
 205:./include/linux/atomic/atomic-arch-fallback.h **** #if defined(arch_try_cmpxchg_acquire)
 206:./include/linux/atomic/atomic-arch-fallback.h **** #define raw_try_cmpxchg_acquire arch_try_cmpxchg_acquire
 207:./include/linux/atomic/atomic-arch-fallback.h **** #elif defined(arch_try_cmpxchg_relaxed)
 208:./include/linux/atomic/atomic-arch-fallback.h **** #define raw_try_cmpxchg_acquire(...) \
 209:./include/linux/atomic/atomic-arch-fallback.h **** 	__atomic_op_acquire(arch_try_cmpxchg, __VA_ARGS__)
 210:./include/linux/atomic/atomic-arch-fallback.h **** #elif defined(arch_try_cmpxchg)
 211:./include/linux/atomic/atomic-arch-fallback.h **** #define raw_try_cmpxchg_acquire arch_try_cmpxchg
 212:./include/linux/atomic/atomic-arch-fallback.h **** #else
 213:./include/linux/atomic/atomic-arch-fallback.h **** #define raw_try_cmpxchg_acquire(_ptr, _oldp, _new) \
 214:./include/linux/atomic/atomic-arch-fallback.h **** ({ \
 215:./include/linux/atomic/atomic-arch-fallback.h **** 	typeof(*(_ptr)) *___op = (_oldp), ___o = *___op, ___r; \
 216:./include/linux/atomic/atomic-arch-fallback.h **** 	___r = raw_cmpxchg_acquire((_ptr), ___o, (_new)); \
 217:./include/linux/atomic/atomic-arch-fallback.h **** 	if (unlikely(___r != ___o)) \
 218:./include/linux/atomic/atomic-arch-fallback.h **** 		*___op = ___r; \
 219:./include/linux/atomic/atomic-arch-fallback.h **** 	likely(___r == ___o); \
 220:./include/linux/atomic/atomic-arch-fallback.h **** })
ARM GAS  /tmp/ccnTZmpF.s 			page 93


 221:./include/linux/atomic/atomic-arch-fallback.h **** #endif
 222:./include/linux/atomic/atomic-arch-fallback.h **** 
 223:./include/linux/atomic/atomic-arch-fallback.h **** #if defined(arch_try_cmpxchg_release)
 224:./include/linux/atomic/atomic-arch-fallback.h **** #define raw_try_cmpxchg_release arch_try_cmpxchg_release
 225:./include/linux/atomic/atomic-arch-fallback.h **** #elif defined(arch_try_cmpxchg_relaxed)
 226:./include/linux/atomic/atomic-arch-fallback.h **** #define raw_try_cmpxchg_release(...) \
 227:./include/linux/atomic/atomic-arch-fallback.h **** 	__atomic_op_release(arch_try_cmpxchg, __VA_ARGS__)
 228:./include/linux/atomic/atomic-arch-fallback.h **** #elif defined(arch_try_cmpxchg)
 229:./include/linux/atomic/atomic-arch-fallback.h **** #define raw_try_cmpxchg_release arch_try_cmpxchg
 230:./include/linux/atomic/atomic-arch-fallback.h **** #else
 231:./include/linux/atomic/atomic-arch-fallback.h **** #define raw_try_cmpxchg_release(_ptr, _oldp, _new) \
 232:./include/linux/atomic/atomic-arch-fallback.h **** ({ \
 233:./include/linux/atomic/atomic-arch-fallback.h **** 	typeof(*(_ptr)) *___op = (_oldp), ___o = *___op, ___r; \
 234:./include/linux/atomic/atomic-arch-fallback.h **** 	___r = raw_cmpxchg_release((_ptr), ___o, (_new)); \
 235:./include/linux/atomic/atomic-arch-fallback.h **** 	if (unlikely(___r != ___o)) \
 236:./include/linux/atomic/atomic-arch-fallback.h **** 		*___op = ___r; \
 237:./include/linux/atomic/atomic-arch-fallback.h **** 	likely(___r == ___o); \
 238:./include/linux/atomic/atomic-arch-fallback.h **** })
 239:./include/linux/atomic/atomic-arch-fallback.h **** #endif
 240:./include/linux/atomic/atomic-arch-fallback.h **** 
 241:./include/linux/atomic/atomic-arch-fallback.h **** #if defined(arch_try_cmpxchg_relaxed)
 242:./include/linux/atomic/atomic-arch-fallback.h **** #define raw_try_cmpxchg_relaxed arch_try_cmpxchg_relaxed
 243:./include/linux/atomic/atomic-arch-fallback.h **** #elif defined(arch_try_cmpxchg)
 244:./include/linux/atomic/atomic-arch-fallback.h **** #define raw_try_cmpxchg_relaxed arch_try_cmpxchg
 245:./include/linux/atomic/atomic-arch-fallback.h **** #else
 246:./include/linux/atomic/atomic-arch-fallback.h **** #define raw_try_cmpxchg_relaxed(_ptr, _oldp, _new) \
 247:./include/linux/atomic/atomic-arch-fallback.h **** ({ \
 248:./include/linux/atomic/atomic-arch-fallback.h **** 	typeof(*(_ptr)) *___op = (_oldp), ___o = *___op, ___r; \
 249:./include/linux/atomic/atomic-arch-fallback.h **** 	___r = raw_cmpxchg_relaxed((_ptr), ___o, (_new)); \
 250:./include/linux/atomic/atomic-arch-fallback.h **** 	if (unlikely(___r != ___o)) \
 251:./include/linux/atomic/atomic-arch-fallback.h **** 		*___op = ___r; \
 252:./include/linux/atomic/atomic-arch-fallback.h **** 	likely(___r == ___o); \
 253:./include/linux/atomic/atomic-arch-fallback.h **** })
 254:./include/linux/atomic/atomic-arch-fallback.h **** #endif
 255:./include/linux/atomic/atomic-arch-fallback.h **** 
 256:./include/linux/atomic/atomic-arch-fallback.h **** #if defined(arch_try_cmpxchg64)
 257:./include/linux/atomic/atomic-arch-fallback.h **** #define raw_try_cmpxchg64 arch_try_cmpxchg64
 258:./include/linux/atomic/atomic-arch-fallback.h **** #elif defined(arch_try_cmpxchg64_relaxed)
 259:./include/linux/atomic/atomic-arch-fallback.h **** #define raw_try_cmpxchg64(...) \
 260:./include/linux/atomic/atomic-arch-fallback.h **** 	__atomic_op_fence(arch_try_cmpxchg64, __VA_ARGS__)
 261:./include/linux/atomic/atomic-arch-fallback.h **** #else
 262:./include/linux/atomic/atomic-arch-fallback.h **** #define raw_try_cmpxchg64(_ptr, _oldp, _new) \
 263:./include/linux/atomic/atomic-arch-fallback.h **** ({ \
 264:./include/linux/atomic/atomic-arch-fallback.h **** 	typeof(*(_ptr)) *___op = (_oldp), ___o = *___op, ___r; \
 265:./include/linux/atomic/atomic-arch-fallback.h **** 	___r = raw_cmpxchg64((_ptr), ___o, (_new)); \
 266:./include/linux/atomic/atomic-arch-fallback.h **** 	if (unlikely(___r != ___o)) \
 267:./include/linux/atomic/atomic-arch-fallback.h **** 		*___op = ___r; \
 268:./include/linux/atomic/atomic-arch-fallback.h **** 	likely(___r == ___o); \
 269:./include/linux/atomic/atomic-arch-fallback.h **** })
 270:./include/linux/atomic/atomic-arch-fallback.h **** #endif
 271:./include/linux/atomic/atomic-arch-fallback.h **** 
 272:./include/linux/atomic/atomic-arch-fallback.h **** #if defined(arch_try_cmpxchg64_acquire)
 273:./include/linux/atomic/atomic-arch-fallback.h **** #define raw_try_cmpxchg64_acquire arch_try_cmpxchg64_acquire
 274:./include/linux/atomic/atomic-arch-fallback.h **** #elif defined(arch_try_cmpxchg64_relaxed)
 275:./include/linux/atomic/atomic-arch-fallback.h **** #define raw_try_cmpxchg64_acquire(...) \
 276:./include/linux/atomic/atomic-arch-fallback.h **** 	__atomic_op_acquire(arch_try_cmpxchg64, __VA_ARGS__)
 277:./include/linux/atomic/atomic-arch-fallback.h **** #elif defined(arch_try_cmpxchg64)
ARM GAS  /tmp/ccnTZmpF.s 			page 94


 278:./include/linux/atomic/atomic-arch-fallback.h **** #define raw_try_cmpxchg64_acquire arch_try_cmpxchg64
 279:./include/linux/atomic/atomic-arch-fallback.h **** #else
 280:./include/linux/atomic/atomic-arch-fallback.h **** #define raw_try_cmpxchg64_acquire(_ptr, _oldp, _new) \
 281:./include/linux/atomic/atomic-arch-fallback.h **** ({ \
 282:./include/linux/atomic/atomic-arch-fallback.h **** 	typeof(*(_ptr)) *___op = (_oldp), ___o = *___op, ___r; \
 283:./include/linux/atomic/atomic-arch-fallback.h **** 	___r = raw_cmpxchg64_acquire((_ptr), ___o, (_new)); \
 284:./include/linux/atomic/atomic-arch-fallback.h **** 	if (unlikely(___r != ___o)) \
 285:./include/linux/atomic/atomic-arch-fallback.h **** 		*___op = ___r; \
 286:./include/linux/atomic/atomic-arch-fallback.h **** 	likely(___r == ___o); \
 287:./include/linux/atomic/atomic-arch-fallback.h **** })
 288:./include/linux/atomic/atomic-arch-fallback.h **** #endif
 289:./include/linux/atomic/atomic-arch-fallback.h **** 
 290:./include/linux/atomic/atomic-arch-fallback.h **** #if defined(arch_try_cmpxchg64_release)
 291:./include/linux/atomic/atomic-arch-fallback.h **** #define raw_try_cmpxchg64_release arch_try_cmpxchg64_release
 292:./include/linux/atomic/atomic-arch-fallback.h **** #elif defined(arch_try_cmpxchg64_relaxed)
 293:./include/linux/atomic/atomic-arch-fallback.h **** #define raw_try_cmpxchg64_release(...) \
 294:./include/linux/atomic/atomic-arch-fallback.h **** 	__atomic_op_release(arch_try_cmpxchg64, __VA_ARGS__)
 295:./include/linux/atomic/atomic-arch-fallback.h **** #elif defined(arch_try_cmpxchg64)
 296:./include/linux/atomic/atomic-arch-fallback.h **** #define raw_try_cmpxchg64_release arch_try_cmpxchg64
 297:./include/linux/atomic/atomic-arch-fallback.h **** #else
 298:./include/linux/atomic/atomic-arch-fallback.h **** #define raw_try_cmpxchg64_release(_ptr, _oldp, _new) \
 299:./include/linux/atomic/atomic-arch-fallback.h **** ({ \
 300:./include/linux/atomic/atomic-arch-fallback.h **** 	typeof(*(_ptr)) *___op = (_oldp), ___o = *___op, ___r; \
 301:./include/linux/atomic/atomic-arch-fallback.h **** 	___r = raw_cmpxchg64_release((_ptr), ___o, (_new)); \
 302:./include/linux/atomic/atomic-arch-fallback.h **** 	if (unlikely(___r != ___o)) \
 303:./include/linux/atomic/atomic-arch-fallback.h **** 		*___op = ___r; \
 304:./include/linux/atomic/atomic-arch-fallback.h **** 	likely(___r == ___o); \
 305:./include/linux/atomic/atomic-arch-fallback.h **** })
 306:./include/linux/atomic/atomic-arch-fallback.h **** #endif
 307:./include/linux/atomic/atomic-arch-fallback.h **** 
 308:./include/linux/atomic/atomic-arch-fallback.h **** #if defined(arch_try_cmpxchg64_relaxed)
 309:./include/linux/atomic/atomic-arch-fallback.h **** #define raw_try_cmpxchg64_relaxed arch_try_cmpxchg64_relaxed
 310:./include/linux/atomic/atomic-arch-fallback.h **** #elif defined(arch_try_cmpxchg64)
 311:./include/linux/atomic/atomic-arch-fallback.h **** #define raw_try_cmpxchg64_relaxed arch_try_cmpxchg64
 312:./include/linux/atomic/atomic-arch-fallback.h **** #else
 313:./include/linux/atomic/atomic-arch-fallback.h **** #define raw_try_cmpxchg64_relaxed(_ptr, _oldp, _new) \
 314:./include/linux/atomic/atomic-arch-fallback.h **** ({ \
 315:./include/linux/atomic/atomic-arch-fallback.h **** 	typeof(*(_ptr)) *___op = (_oldp), ___o = *___op, ___r; \
 316:./include/linux/atomic/atomic-arch-fallback.h **** 	___r = raw_cmpxchg64_relaxed((_ptr), ___o, (_new)); \
 317:./include/linux/atomic/atomic-arch-fallback.h **** 	if (unlikely(___r != ___o)) \
 318:./include/linux/atomic/atomic-arch-fallback.h **** 		*___op = ___r; \
 319:./include/linux/atomic/atomic-arch-fallback.h **** 	likely(___r == ___o); \
 320:./include/linux/atomic/atomic-arch-fallback.h **** })
 321:./include/linux/atomic/atomic-arch-fallback.h **** #endif
 322:./include/linux/atomic/atomic-arch-fallback.h **** 
 323:./include/linux/atomic/atomic-arch-fallback.h **** #if defined(arch_try_cmpxchg128)
 324:./include/linux/atomic/atomic-arch-fallback.h **** #define raw_try_cmpxchg128 arch_try_cmpxchg128
 325:./include/linux/atomic/atomic-arch-fallback.h **** #elif defined(arch_try_cmpxchg128_relaxed)
 326:./include/linux/atomic/atomic-arch-fallback.h **** #define raw_try_cmpxchg128(...) \
 327:./include/linux/atomic/atomic-arch-fallback.h **** 	__atomic_op_fence(arch_try_cmpxchg128, __VA_ARGS__)
 328:./include/linux/atomic/atomic-arch-fallback.h **** #else
 329:./include/linux/atomic/atomic-arch-fallback.h **** #define raw_try_cmpxchg128(_ptr, _oldp, _new) \
 330:./include/linux/atomic/atomic-arch-fallback.h **** ({ \
 331:./include/linux/atomic/atomic-arch-fallback.h **** 	typeof(*(_ptr)) *___op = (_oldp), ___o = *___op, ___r; \
 332:./include/linux/atomic/atomic-arch-fallback.h **** 	___r = raw_cmpxchg128((_ptr), ___o, (_new)); \
 333:./include/linux/atomic/atomic-arch-fallback.h **** 	if (unlikely(___r != ___o)) \
 334:./include/linux/atomic/atomic-arch-fallback.h **** 		*___op = ___r; \
ARM GAS  /tmp/ccnTZmpF.s 			page 95


 335:./include/linux/atomic/atomic-arch-fallback.h **** 	likely(___r == ___o); \
 336:./include/linux/atomic/atomic-arch-fallback.h **** })
 337:./include/linux/atomic/atomic-arch-fallback.h **** #endif
 338:./include/linux/atomic/atomic-arch-fallback.h **** 
 339:./include/linux/atomic/atomic-arch-fallback.h **** #if defined(arch_try_cmpxchg128_acquire)
 340:./include/linux/atomic/atomic-arch-fallback.h **** #define raw_try_cmpxchg128_acquire arch_try_cmpxchg128_acquire
 341:./include/linux/atomic/atomic-arch-fallback.h **** #elif defined(arch_try_cmpxchg128_relaxed)
 342:./include/linux/atomic/atomic-arch-fallback.h **** #define raw_try_cmpxchg128_acquire(...) \
 343:./include/linux/atomic/atomic-arch-fallback.h **** 	__atomic_op_acquire(arch_try_cmpxchg128, __VA_ARGS__)
 344:./include/linux/atomic/atomic-arch-fallback.h **** #elif defined(arch_try_cmpxchg128)
 345:./include/linux/atomic/atomic-arch-fallback.h **** #define raw_try_cmpxchg128_acquire arch_try_cmpxchg128
 346:./include/linux/atomic/atomic-arch-fallback.h **** #else
 347:./include/linux/atomic/atomic-arch-fallback.h **** #define raw_try_cmpxchg128_acquire(_ptr, _oldp, _new) \
 348:./include/linux/atomic/atomic-arch-fallback.h **** ({ \
 349:./include/linux/atomic/atomic-arch-fallback.h **** 	typeof(*(_ptr)) *___op = (_oldp), ___o = *___op, ___r; \
 350:./include/linux/atomic/atomic-arch-fallback.h **** 	___r = raw_cmpxchg128_acquire((_ptr), ___o, (_new)); \
 351:./include/linux/atomic/atomic-arch-fallback.h **** 	if (unlikely(___r != ___o)) \
 352:./include/linux/atomic/atomic-arch-fallback.h **** 		*___op = ___r; \
 353:./include/linux/atomic/atomic-arch-fallback.h **** 	likely(___r == ___o); \
 354:./include/linux/atomic/atomic-arch-fallback.h **** })
 355:./include/linux/atomic/atomic-arch-fallback.h **** #endif
 356:./include/linux/atomic/atomic-arch-fallback.h **** 
 357:./include/linux/atomic/atomic-arch-fallback.h **** #if defined(arch_try_cmpxchg128_release)
 358:./include/linux/atomic/atomic-arch-fallback.h **** #define raw_try_cmpxchg128_release arch_try_cmpxchg128_release
 359:./include/linux/atomic/atomic-arch-fallback.h **** #elif defined(arch_try_cmpxchg128_relaxed)
 360:./include/linux/atomic/atomic-arch-fallback.h **** #define raw_try_cmpxchg128_release(...) \
 361:./include/linux/atomic/atomic-arch-fallback.h **** 	__atomic_op_release(arch_try_cmpxchg128, __VA_ARGS__)
 362:./include/linux/atomic/atomic-arch-fallback.h **** #elif defined(arch_try_cmpxchg128)
 363:./include/linux/atomic/atomic-arch-fallback.h **** #define raw_try_cmpxchg128_release arch_try_cmpxchg128
 364:./include/linux/atomic/atomic-arch-fallback.h **** #else
 365:./include/linux/atomic/atomic-arch-fallback.h **** #define raw_try_cmpxchg128_release(_ptr, _oldp, _new) \
 366:./include/linux/atomic/atomic-arch-fallback.h **** ({ \
 367:./include/linux/atomic/atomic-arch-fallback.h **** 	typeof(*(_ptr)) *___op = (_oldp), ___o = *___op, ___r; \
 368:./include/linux/atomic/atomic-arch-fallback.h **** 	___r = raw_cmpxchg128_release((_ptr), ___o, (_new)); \
 369:./include/linux/atomic/atomic-arch-fallback.h **** 	if (unlikely(___r != ___o)) \
 370:./include/linux/atomic/atomic-arch-fallback.h **** 		*___op = ___r; \
 371:./include/linux/atomic/atomic-arch-fallback.h **** 	likely(___r == ___o); \
 372:./include/linux/atomic/atomic-arch-fallback.h **** })
 373:./include/linux/atomic/atomic-arch-fallback.h **** #endif
 374:./include/linux/atomic/atomic-arch-fallback.h **** 
 375:./include/linux/atomic/atomic-arch-fallback.h **** #if defined(arch_try_cmpxchg128_relaxed)
 376:./include/linux/atomic/atomic-arch-fallback.h **** #define raw_try_cmpxchg128_relaxed arch_try_cmpxchg128_relaxed
 377:./include/linux/atomic/atomic-arch-fallback.h **** #elif defined(arch_try_cmpxchg128)
 378:./include/linux/atomic/atomic-arch-fallback.h **** #define raw_try_cmpxchg128_relaxed arch_try_cmpxchg128
 379:./include/linux/atomic/atomic-arch-fallback.h **** #else
 380:./include/linux/atomic/atomic-arch-fallback.h **** #define raw_try_cmpxchg128_relaxed(_ptr, _oldp, _new) \
 381:./include/linux/atomic/atomic-arch-fallback.h **** ({ \
 382:./include/linux/atomic/atomic-arch-fallback.h **** 	typeof(*(_ptr)) *___op = (_oldp), ___o = *___op, ___r; \
 383:./include/linux/atomic/atomic-arch-fallback.h **** 	___r = raw_cmpxchg128_relaxed((_ptr), ___o, (_new)); \
 384:./include/linux/atomic/atomic-arch-fallback.h **** 	if (unlikely(___r != ___o)) \
 385:./include/linux/atomic/atomic-arch-fallback.h **** 		*___op = ___r; \
 386:./include/linux/atomic/atomic-arch-fallback.h **** 	likely(___r == ___o); \
 387:./include/linux/atomic/atomic-arch-fallback.h **** })
 388:./include/linux/atomic/atomic-arch-fallback.h **** #endif
 389:./include/linux/atomic/atomic-arch-fallback.h **** 
 390:./include/linux/atomic/atomic-arch-fallback.h **** #define raw_cmpxchg_local arch_cmpxchg_local
 391:./include/linux/atomic/atomic-arch-fallback.h **** 
ARM GAS  /tmp/ccnTZmpF.s 			page 96


 392:./include/linux/atomic/atomic-arch-fallback.h **** #ifdef arch_try_cmpxchg_local
 393:./include/linux/atomic/atomic-arch-fallback.h **** #define raw_try_cmpxchg_local arch_try_cmpxchg_local
 394:./include/linux/atomic/atomic-arch-fallback.h **** #else
 395:./include/linux/atomic/atomic-arch-fallback.h **** #define raw_try_cmpxchg_local(_ptr, _oldp, _new) \
 396:./include/linux/atomic/atomic-arch-fallback.h **** ({ \
 397:./include/linux/atomic/atomic-arch-fallback.h **** 	typeof(*(_ptr)) *___op = (_oldp), ___o = *___op, ___r; \
 398:./include/linux/atomic/atomic-arch-fallback.h **** 	___r = raw_cmpxchg_local((_ptr), ___o, (_new)); \
 399:./include/linux/atomic/atomic-arch-fallback.h **** 	if (unlikely(___r != ___o)) \
 400:./include/linux/atomic/atomic-arch-fallback.h **** 		*___op = ___r; \
 401:./include/linux/atomic/atomic-arch-fallback.h **** 	likely(___r == ___o); \
 402:./include/linux/atomic/atomic-arch-fallback.h **** })
 403:./include/linux/atomic/atomic-arch-fallback.h **** #endif
 404:./include/linux/atomic/atomic-arch-fallback.h **** 
 405:./include/linux/atomic/atomic-arch-fallback.h **** #define raw_cmpxchg64_local arch_cmpxchg64_local
 406:./include/linux/atomic/atomic-arch-fallback.h **** 
 407:./include/linux/atomic/atomic-arch-fallback.h **** #ifdef arch_try_cmpxchg64_local
 408:./include/linux/atomic/atomic-arch-fallback.h **** #define raw_try_cmpxchg64_local arch_try_cmpxchg64_local
 409:./include/linux/atomic/atomic-arch-fallback.h **** #else
 410:./include/linux/atomic/atomic-arch-fallback.h **** #define raw_try_cmpxchg64_local(_ptr, _oldp, _new) \
 411:./include/linux/atomic/atomic-arch-fallback.h **** ({ \
 412:./include/linux/atomic/atomic-arch-fallback.h **** 	typeof(*(_ptr)) *___op = (_oldp), ___o = *___op, ___r; \
 413:./include/linux/atomic/atomic-arch-fallback.h **** 	___r = raw_cmpxchg64_local((_ptr), ___o, (_new)); \
 414:./include/linux/atomic/atomic-arch-fallback.h **** 	if (unlikely(___r != ___o)) \
 415:./include/linux/atomic/atomic-arch-fallback.h **** 		*___op = ___r; \
 416:./include/linux/atomic/atomic-arch-fallback.h **** 	likely(___r == ___o); \
 417:./include/linux/atomic/atomic-arch-fallback.h **** })
 418:./include/linux/atomic/atomic-arch-fallback.h **** #endif
 419:./include/linux/atomic/atomic-arch-fallback.h **** 
 420:./include/linux/atomic/atomic-arch-fallback.h **** #define raw_cmpxchg128_local arch_cmpxchg128_local
 421:./include/linux/atomic/atomic-arch-fallback.h **** 
 422:./include/linux/atomic/atomic-arch-fallback.h **** #ifdef arch_try_cmpxchg128_local
 423:./include/linux/atomic/atomic-arch-fallback.h **** #define raw_try_cmpxchg128_local arch_try_cmpxchg128_local
 424:./include/linux/atomic/atomic-arch-fallback.h **** #else
 425:./include/linux/atomic/atomic-arch-fallback.h **** #define raw_try_cmpxchg128_local(_ptr, _oldp, _new) \
 426:./include/linux/atomic/atomic-arch-fallback.h **** ({ \
 427:./include/linux/atomic/atomic-arch-fallback.h **** 	typeof(*(_ptr)) *___op = (_oldp), ___o = *___op, ___r; \
 428:./include/linux/atomic/atomic-arch-fallback.h **** 	___r = raw_cmpxchg128_local((_ptr), ___o, (_new)); \
 429:./include/linux/atomic/atomic-arch-fallback.h **** 	if (unlikely(___r != ___o)) \
 430:./include/linux/atomic/atomic-arch-fallback.h **** 		*___op = ___r; \
 431:./include/linux/atomic/atomic-arch-fallback.h **** 	likely(___r == ___o); \
 432:./include/linux/atomic/atomic-arch-fallback.h **** })
 433:./include/linux/atomic/atomic-arch-fallback.h **** #endif
 434:./include/linux/atomic/atomic-arch-fallback.h **** 
 435:./include/linux/atomic/atomic-arch-fallback.h **** #define raw_sync_cmpxchg arch_sync_cmpxchg
 436:./include/linux/atomic/atomic-arch-fallback.h **** 
 437:./include/linux/atomic/atomic-arch-fallback.h **** #ifdef arch_sync_try_cmpxchg
 438:./include/linux/atomic/atomic-arch-fallback.h **** #define raw_sync_try_cmpxchg arch_sync_try_cmpxchg
 439:./include/linux/atomic/atomic-arch-fallback.h **** #else
 440:./include/linux/atomic/atomic-arch-fallback.h **** #define raw_sync_try_cmpxchg(_ptr, _oldp, _new) \
 441:./include/linux/atomic/atomic-arch-fallback.h **** ({ \
 442:./include/linux/atomic/atomic-arch-fallback.h **** 	typeof(*(_ptr)) *___op = (_oldp), ___o = *___op, ___r; \
 443:./include/linux/atomic/atomic-arch-fallback.h **** 	___r = raw_sync_cmpxchg((_ptr), ___o, (_new)); \
 444:./include/linux/atomic/atomic-arch-fallback.h **** 	if (unlikely(___r != ___o)) \
 445:./include/linux/atomic/atomic-arch-fallback.h **** 		*___op = ___r; \
 446:./include/linux/atomic/atomic-arch-fallback.h **** 	likely(___r == ___o); \
 447:./include/linux/atomic/atomic-arch-fallback.h **** })
 448:./include/linux/atomic/atomic-arch-fallback.h **** #endif
ARM GAS  /tmp/ccnTZmpF.s 			page 97


 449:./include/linux/atomic/atomic-arch-fallback.h **** 
 450:./include/linux/atomic/atomic-arch-fallback.h **** /**
 451:./include/linux/atomic/atomic-arch-fallback.h ****  * raw_atomic_read() - atomic load with relaxed ordering
 452:./include/linux/atomic/atomic-arch-fallback.h ****  * @v: pointer to atomic_t
 453:./include/linux/atomic/atomic-arch-fallback.h ****  *
 454:./include/linux/atomic/atomic-arch-fallback.h ****  * Atomically loads the value of @v with relaxed ordering.
 455:./include/linux/atomic/atomic-arch-fallback.h ****  *
 456:./include/linux/atomic/atomic-arch-fallback.h ****  * Safe to use in noinstr code; prefer atomic_read() elsewhere.
 457:./include/linux/atomic/atomic-arch-fallback.h ****  *
 458:./include/linux/atomic/atomic-arch-fallback.h ****  * Return: The value loaded from @v.
 459:./include/linux/atomic/atomic-arch-fallback.h ****  */
 460:./include/linux/atomic/atomic-arch-fallback.h **** static __always_inline int
 461:./include/linux/atomic/atomic-arch-fallback.h **** raw_atomic_read(const atomic_t *v)
 462:./include/linux/atomic/atomic-arch-fallback.h **** {
 463:./include/linux/atomic/atomic-arch-fallback.h **** 	return arch_atomic_read(v);
 464:./include/linux/atomic/atomic-arch-fallback.h **** }
 465:./include/linux/atomic/atomic-arch-fallback.h **** 
 466:./include/linux/atomic/atomic-arch-fallback.h **** /**
 467:./include/linux/atomic/atomic-arch-fallback.h ****  * raw_atomic_read_acquire() - atomic load with acquire ordering
 468:./include/linux/atomic/atomic-arch-fallback.h ****  * @v: pointer to atomic_t
 469:./include/linux/atomic/atomic-arch-fallback.h ****  *
 470:./include/linux/atomic/atomic-arch-fallback.h ****  * Atomically loads the value of @v with acquire ordering.
 471:./include/linux/atomic/atomic-arch-fallback.h ****  *
 472:./include/linux/atomic/atomic-arch-fallback.h ****  * Safe to use in noinstr code; prefer atomic_read_acquire() elsewhere.
 473:./include/linux/atomic/atomic-arch-fallback.h ****  *
 474:./include/linux/atomic/atomic-arch-fallback.h ****  * Return: The value loaded from @v.
 475:./include/linux/atomic/atomic-arch-fallback.h ****  */
 476:./include/linux/atomic/atomic-arch-fallback.h **** static __always_inline int
 477:./include/linux/atomic/atomic-arch-fallback.h **** raw_atomic_read_acquire(const atomic_t *v)
 478:./include/linux/atomic/atomic-arch-fallback.h **** {
 479:./include/linux/atomic/atomic-arch-fallback.h **** #if defined(arch_atomic_read_acquire)
 480:./include/linux/atomic/atomic-arch-fallback.h **** 	return arch_atomic_read_acquire(v);
 481:./include/linux/atomic/atomic-arch-fallback.h **** #else
 482:./include/linux/atomic/atomic-arch-fallback.h **** 	int ret;
 483:./include/linux/atomic/atomic-arch-fallback.h **** 
 484:./include/linux/atomic/atomic-arch-fallback.h **** 	if (__native_word(atomic_t)) {
 485:./include/linux/atomic/atomic-arch-fallback.h **** 		ret = smp_load_acquire(&(v)->counter);
 486:./include/linux/atomic/atomic-arch-fallback.h **** 	} else {
 487:./include/linux/atomic/atomic-arch-fallback.h **** 		ret = raw_atomic_read(v);
 488:./include/linux/atomic/atomic-arch-fallback.h **** 		__atomic_acquire_fence();
 489:./include/linux/atomic/atomic-arch-fallback.h **** 	}
 490:./include/linux/atomic/atomic-arch-fallback.h **** 
 491:./include/linux/atomic/atomic-arch-fallback.h **** 	return ret;
 492:./include/linux/atomic/atomic-arch-fallback.h **** #endif
 493:./include/linux/atomic/atomic-arch-fallback.h **** }
 494:./include/linux/atomic/atomic-arch-fallback.h **** 
 495:./include/linux/atomic/atomic-arch-fallback.h **** /**
 496:./include/linux/atomic/atomic-arch-fallback.h ****  * raw_atomic_set() - atomic set with relaxed ordering
 497:./include/linux/atomic/atomic-arch-fallback.h ****  * @v: pointer to atomic_t
 498:./include/linux/atomic/atomic-arch-fallback.h ****  * @i: int value to assign
 499:./include/linux/atomic/atomic-arch-fallback.h ****  *
 500:./include/linux/atomic/atomic-arch-fallback.h ****  * Atomically sets @v to @i with relaxed ordering.
 501:./include/linux/atomic/atomic-arch-fallback.h ****  *
 502:./include/linux/atomic/atomic-arch-fallback.h ****  * Safe to use in noinstr code; prefer atomic_set() elsewhere.
 503:./include/linux/atomic/atomic-arch-fallback.h ****  *
 504:./include/linux/atomic/atomic-arch-fallback.h ****  * Return: Nothing.
 505:./include/linux/atomic/atomic-arch-fallback.h ****  */
ARM GAS  /tmp/ccnTZmpF.s 			page 98


 506:./include/linux/atomic/atomic-arch-fallback.h **** static __always_inline void
 507:./include/linux/atomic/atomic-arch-fallback.h **** raw_atomic_set(atomic_t *v, int i)
 508:./include/linux/atomic/atomic-arch-fallback.h **** {
 509:./include/linux/atomic/atomic-arch-fallback.h **** 	arch_atomic_set(v, i);
 510:./include/linux/atomic/atomic-arch-fallback.h **** }
 511:./include/linux/atomic/atomic-arch-fallback.h **** 
 512:./include/linux/atomic/atomic-arch-fallback.h **** /**
 513:./include/linux/atomic/atomic-arch-fallback.h ****  * raw_atomic_set_release() - atomic set with release ordering
 514:./include/linux/atomic/atomic-arch-fallback.h ****  * @v: pointer to atomic_t
 515:./include/linux/atomic/atomic-arch-fallback.h ****  * @i: int value to assign
 516:./include/linux/atomic/atomic-arch-fallback.h ****  *
 517:./include/linux/atomic/atomic-arch-fallback.h ****  * Atomically sets @v to @i with release ordering.
 518:./include/linux/atomic/atomic-arch-fallback.h ****  *
 519:./include/linux/atomic/atomic-arch-fallback.h ****  * Safe to use in noinstr code; prefer atomic_set_release() elsewhere.
 520:./include/linux/atomic/atomic-arch-fallback.h ****  *
 521:./include/linux/atomic/atomic-arch-fallback.h ****  * Return: Nothing.
 522:./include/linux/atomic/atomic-arch-fallback.h ****  */
 523:./include/linux/atomic/atomic-arch-fallback.h **** static __always_inline void
 524:./include/linux/atomic/atomic-arch-fallback.h **** raw_atomic_set_release(atomic_t *v, int i)
 525:./include/linux/atomic/atomic-arch-fallback.h **** {
 526:./include/linux/atomic/atomic-arch-fallback.h **** #if defined(arch_atomic_set_release)
 527:./include/linux/atomic/atomic-arch-fallback.h **** 	arch_atomic_set_release(v, i);
 528:./include/linux/atomic/atomic-arch-fallback.h **** #else
 529:./include/linux/atomic/atomic-arch-fallback.h **** 	if (__native_word(atomic_t)) {
 530:./include/linux/atomic/atomic-arch-fallback.h **** 		smp_store_release(&(v)->counter, i);
 531:./include/linux/atomic/atomic-arch-fallback.h **** 	} else {
 532:./include/linux/atomic/atomic-arch-fallback.h **** 		__atomic_release_fence();
 533:./include/linux/atomic/atomic-arch-fallback.h **** 		raw_atomic_set(v, i);
 534:./include/linux/atomic/atomic-arch-fallback.h **** 	}
 535:./include/linux/atomic/atomic-arch-fallback.h **** #endif
 536:./include/linux/atomic/atomic-arch-fallback.h **** }
 537:./include/linux/atomic/atomic-arch-fallback.h **** 
 538:./include/linux/atomic/atomic-arch-fallback.h **** /**
 539:./include/linux/atomic/atomic-arch-fallback.h ****  * raw_atomic_add() - atomic add with relaxed ordering
 540:./include/linux/atomic/atomic-arch-fallback.h ****  * @i: int value to add
 541:./include/linux/atomic/atomic-arch-fallback.h ****  * @v: pointer to atomic_t
 542:./include/linux/atomic/atomic-arch-fallback.h ****  *
 543:./include/linux/atomic/atomic-arch-fallback.h ****  * Atomically updates @v to (@v + @i) with relaxed ordering.
 544:./include/linux/atomic/atomic-arch-fallback.h ****  *
 545:./include/linux/atomic/atomic-arch-fallback.h ****  * Safe to use in noinstr code; prefer atomic_add() elsewhere.
 546:./include/linux/atomic/atomic-arch-fallback.h ****  *
 547:./include/linux/atomic/atomic-arch-fallback.h ****  * Return: Nothing.
 548:./include/linux/atomic/atomic-arch-fallback.h ****  */
 549:./include/linux/atomic/atomic-arch-fallback.h **** static __always_inline void
 550:./include/linux/atomic/atomic-arch-fallback.h **** raw_atomic_add(int i, atomic_t *v)
 551:./include/linux/atomic/atomic-arch-fallback.h **** {
 552:./include/linux/atomic/atomic-arch-fallback.h **** 	arch_atomic_add(i, v);
 553:./include/linux/atomic/atomic-arch-fallback.h **** }
 554:./include/linux/atomic/atomic-arch-fallback.h **** 
 555:./include/linux/atomic/atomic-arch-fallback.h **** /**
 556:./include/linux/atomic/atomic-arch-fallback.h ****  * raw_atomic_add_return() - atomic add with full ordering
 557:./include/linux/atomic/atomic-arch-fallback.h ****  * @i: int value to add
 558:./include/linux/atomic/atomic-arch-fallback.h ****  * @v: pointer to atomic_t
 559:./include/linux/atomic/atomic-arch-fallback.h ****  *
 560:./include/linux/atomic/atomic-arch-fallback.h ****  * Atomically updates @v to (@v + @i) with full ordering.
 561:./include/linux/atomic/atomic-arch-fallback.h ****  *
 562:./include/linux/atomic/atomic-arch-fallback.h ****  * Safe to use in noinstr code; prefer atomic_add_return() elsewhere.
ARM GAS  /tmp/ccnTZmpF.s 			page 99


 563:./include/linux/atomic/atomic-arch-fallback.h ****  *
 564:./include/linux/atomic/atomic-arch-fallback.h ****  * Return: The updated value of @v.
 565:./include/linux/atomic/atomic-arch-fallback.h ****  */
 566:./include/linux/atomic/atomic-arch-fallback.h **** static __always_inline int
 567:./include/linux/atomic/atomic-arch-fallback.h **** raw_atomic_add_return(int i, atomic_t *v)
 568:./include/linux/atomic/atomic-arch-fallback.h **** {
 569:./include/linux/atomic/atomic-arch-fallback.h **** #if defined(arch_atomic_add_return)
 570:./include/linux/atomic/atomic-arch-fallback.h **** 	return arch_atomic_add_return(i, v);
 571:./include/linux/atomic/atomic-arch-fallback.h **** #elif defined(arch_atomic_add_return_relaxed)
 572:./include/linux/atomic/atomic-arch-fallback.h **** 	int ret;
 573:./include/linux/atomic/atomic-arch-fallback.h **** 	__atomic_pre_full_fence();
 574:./include/linux/atomic/atomic-arch-fallback.h **** 	ret = arch_atomic_add_return_relaxed(i, v);
 575:./include/linux/atomic/atomic-arch-fallback.h **** 	__atomic_post_full_fence();
 576:./include/linux/atomic/atomic-arch-fallback.h **** 	return ret;
 577:./include/linux/atomic/atomic-arch-fallback.h **** #else
 578:./include/linux/atomic/atomic-arch-fallback.h **** #error "Unable to define raw_atomic_add_return"
 579:./include/linux/atomic/atomic-arch-fallback.h **** #endif
 580:./include/linux/atomic/atomic-arch-fallback.h **** }
 581:./include/linux/atomic/atomic-arch-fallback.h **** 
 582:./include/linux/atomic/atomic-arch-fallback.h **** /**
 583:./include/linux/atomic/atomic-arch-fallback.h ****  * raw_atomic_add_return_acquire() - atomic add with acquire ordering
 584:./include/linux/atomic/atomic-arch-fallback.h ****  * @i: int value to add
 585:./include/linux/atomic/atomic-arch-fallback.h ****  * @v: pointer to atomic_t
 586:./include/linux/atomic/atomic-arch-fallback.h ****  *
 587:./include/linux/atomic/atomic-arch-fallback.h ****  * Atomically updates @v to (@v + @i) with acquire ordering.
 588:./include/linux/atomic/atomic-arch-fallback.h ****  *
 589:./include/linux/atomic/atomic-arch-fallback.h ****  * Safe to use in noinstr code; prefer atomic_add_return_acquire() elsewhere.
 590:./include/linux/atomic/atomic-arch-fallback.h ****  *
 591:./include/linux/atomic/atomic-arch-fallback.h ****  * Return: The updated value of @v.
 592:./include/linux/atomic/atomic-arch-fallback.h ****  */
 593:./include/linux/atomic/atomic-arch-fallback.h **** static __always_inline int
 594:./include/linux/atomic/atomic-arch-fallback.h **** raw_atomic_add_return_acquire(int i, atomic_t *v)
 595:./include/linux/atomic/atomic-arch-fallback.h **** {
 596:./include/linux/atomic/atomic-arch-fallback.h **** #if defined(arch_atomic_add_return_acquire)
 597:./include/linux/atomic/atomic-arch-fallback.h **** 	return arch_atomic_add_return_acquire(i, v);
 598:./include/linux/atomic/atomic-arch-fallback.h **** #elif defined(arch_atomic_add_return_relaxed)
 599:./include/linux/atomic/atomic-arch-fallback.h **** 	int ret = arch_atomic_add_return_relaxed(i, v);
 600:./include/linux/atomic/atomic-arch-fallback.h **** 	__atomic_acquire_fence();
 601:./include/linux/atomic/atomic-arch-fallback.h **** 	return ret;
 602:./include/linux/atomic/atomic-arch-fallback.h **** #elif defined(arch_atomic_add_return)
 603:./include/linux/atomic/atomic-arch-fallback.h **** 	return arch_atomic_add_return(i, v);
 604:./include/linux/atomic/atomic-arch-fallback.h **** #else
 605:./include/linux/atomic/atomic-arch-fallback.h **** #error "Unable to define raw_atomic_add_return_acquire"
 606:./include/linux/atomic/atomic-arch-fallback.h **** #endif
 607:./include/linux/atomic/atomic-arch-fallback.h **** }
 608:./include/linux/atomic/atomic-arch-fallback.h **** 
 609:./include/linux/atomic/atomic-arch-fallback.h **** /**
 610:./include/linux/atomic/atomic-arch-fallback.h ****  * raw_atomic_add_return_release() - atomic add with release ordering
 611:./include/linux/atomic/atomic-arch-fallback.h ****  * @i: int value to add
 612:./include/linux/atomic/atomic-arch-fallback.h ****  * @v: pointer to atomic_t
 613:./include/linux/atomic/atomic-arch-fallback.h ****  *
 614:./include/linux/atomic/atomic-arch-fallback.h ****  * Atomically updates @v to (@v + @i) with release ordering.
 615:./include/linux/atomic/atomic-arch-fallback.h ****  *
 616:./include/linux/atomic/atomic-arch-fallback.h ****  * Safe to use in noinstr code; prefer atomic_add_return_release() elsewhere.
 617:./include/linux/atomic/atomic-arch-fallback.h ****  *
 618:./include/linux/atomic/atomic-arch-fallback.h ****  * Return: The updated value of @v.
 619:./include/linux/atomic/atomic-arch-fallback.h ****  */
ARM GAS  /tmp/ccnTZmpF.s 			page 100


 620:./include/linux/atomic/atomic-arch-fallback.h **** static __always_inline int
 621:./include/linux/atomic/atomic-arch-fallback.h **** raw_atomic_add_return_release(int i, atomic_t *v)
 622:./include/linux/atomic/atomic-arch-fallback.h **** {
 623:./include/linux/atomic/atomic-arch-fallback.h **** #if defined(arch_atomic_add_return_release)
 624:./include/linux/atomic/atomic-arch-fallback.h **** 	return arch_atomic_add_return_release(i, v);
 625:./include/linux/atomic/atomic-arch-fallback.h **** #elif defined(arch_atomic_add_return_relaxed)
 626:./include/linux/atomic/atomic-arch-fallback.h **** 	__atomic_release_fence();
 627:./include/linux/atomic/atomic-arch-fallback.h **** 	return arch_atomic_add_return_relaxed(i, v);
 628:./include/linux/atomic/atomic-arch-fallback.h **** #elif defined(arch_atomic_add_return)
 629:./include/linux/atomic/atomic-arch-fallback.h **** 	return arch_atomic_add_return(i, v);
 630:./include/linux/atomic/atomic-arch-fallback.h **** #else
 631:./include/linux/atomic/atomic-arch-fallback.h **** #error "Unable to define raw_atomic_add_return_release"
 632:./include/linux/atomic/atomic-arch-fallback.h **** #endif
 633:./include/linux/atomic/atomic-arch-fallback.h **** }
 634:./include/linux/atomic/atomic-arch-fallback.h **** 
 635:./include/linux/atomic/atomic-arch-fallback.h **** /**
 636:./include/linux/atomic/atomic-arch-fallback.h ****  * raw_atomic_add_return_relaxed() - atomic add with relaxed ordering
 637:./include/linux/atomic/atomic-arch-fallback.h ****  * @i: int value to add
 638:./include/linux/atomic/atomic-arch-fallback.h ****  * @v: pointer to atomic_t
 639:./include/linux/atomic/atomic-arch-fallback.h ****  *
 640:./include/linux/atomic/atomic-arch-fallback.h ****  * Atomically updates @v to (@v + @i) with relaxed ordering.
 641:./include/linux/atomic/atomic-arch-fallback.h ****  *
 642:./include/linux/atomic/atomic-arch-fallback.h ****  * Safe to use in noinstr code; prefer atomic_add_return_relaxed() elsewhere.
 643:./include/linux/atomic/atomic-arch-fallback.h ****  *
 644:./include/linux/atomic/atomic-arch-fallback.h ****  * Return: The updated value of @v.
 645:./include/linux/atomic/atomic-arch-fallback.h ****  */
 646:./include/linux/atomic/atomic-arch-fallback.h **** static __always_inline int
 647:./include/linux/atomic/atomic-arch-fallback.h **** raw_atomic_add_return_relaxed(int i, atomic_t *v)
 648:./include/linux/atomic/atomic-arch-fallback.h **** {
 649:./include/linux/atomic/atomic-arch-fallback.h **** #if defined(arch_atomic_add_return_relaxed)
 650:./include/linux/atomic/atomic-arch-fallback.h **** 	return arch_atomic_add_return_relaxed(i, v);
 651:./include/linux/atomic/atomic-arch-fallback.h **** #elif defined(arch_atomic_add_return)
 652:./include/linux/atomic/atomic-arch-fallback.h **** 	return arch_atomic_add_return(i, v);
 653:./include/linux/atomic/atomic-arch-fallback.h **** #else
 654:./include/linux/atomic/atomic-arch-fallback.h **** #error "Unable to define raw_atomic_add_return_relaxed"
 655:./include/linux/atomic/atomic-arch-fallback.h **** #endif
 656:./include/linux/atomic/atomic-arch-fallback.h **** }
 657:./include/linux/atomic/atomic-arch-fallback.h **** 
 658:./include/linux/atomic/atomic-arch-fallback.h **** /**
 659:./include/linux/atomic/atomic-arch-fallback.h ****  * raw_atomic_fetch_add() - atomic add with full ordering
 660:./include/linux/atomic/atomic-arch-fallback.h ****  * @i: int value to add
 661:./include/linux/atomic/atomic-arch-fallback.h ****  * @v: pointer to atomic_t
 662:./include/linux/atomic/atomic-arch-fallback.h ****  *
 663:./include/linux/atomic/atomic-arch-fallback.h ****  * Atomically updates @v to (@v + @i) with full ordering.
 664:./include/linux/atomic/atomic-arch-fallback.h ****  *
 665:./include/linux/atomic/atomic-arch-fallback.h ****  * Safe to use in noinstr code; prefer atomic_fetch_add() elsewhere.
 666:./include/linux/atomic/atomic-arch-fallback.h ****  *
 667:./include/linux/atomic/atomic-arch-fallback.h ****  * Return: The original value of @v.
 668:./include/linux/atomic/atomic-arch-fallback.h ****  */
 669:./include/linux/atomic/atomic-arch-fallback.h **** static __always_inline int
 670:./include/linux/atomic/atomic-arch-fallback.h **** raw_atomic_fetch_add(int i, atomic_t *v)
 671:./include/linux/atomic/atomic-arch-fallback.h **** {
 672:./include/linux/atomic/atomic-arch-fallback.h **** #if defined(arch_atomic_fetch_add)
 673:./include/linux/atomic/atomic-arch-fallback.h **** 	return arch_atomic_fetch_add(i, v);
 674:./include/linux/atomic/atomic-arch-fallback.h **** #elif defined(arch_atomic_fetch_add_relaxed)
 675:./include/linux/atomic/atomic-arch-fallback.h **** 	int ret;
 676:./include/linux/atomic/atomic-arch-fallback.h **** 	__atomic_pre_full_fence();
ARM GAS  /tmp/ccnTZmpF.s 			page 101


 677:./include/linux/atomic/atomic-arch-fallback.h **** 	ret = arch_atomic_fetch_add_relaxed(i, v);
 678:./include/linux/atomic/atomic-arch-fallback.h **** 	__atomic_post_full_fence();
 679:./include/linux/atomic/atomic-arch-fallback.h **** 	return ret;
 680:./include/linux/atomic/atomic-arch-fallback.h **** #else
 681:./include/linux/atomic/atomic-arch-fallback.h **** #error "Unable to define raw_atomic_fetch_add"
 682:./include/linux/atomic/atomic-arch-fallback.h **** #endif
 683:./include/linux/atomic/atomic-arch-fallback.h **** }
 684:./include/linux/atomic/atomic-arch-fallback.h **** 
 685:./include/linux/atomic/atomic-arch-fallback.h **** /**
 686:./include/linux/atomic/atomic-arch-fallback.h ****  * raw_atomic_fetch_add_acquire() - atomic add with acquire ordering
 687:./include/linux/atomic/atomic-arch-fallback.h ****  * @i: int value to add
 688:./include/linux/atomic/atomic-arch-fallback.h ****  * @v: pointer to atomic_t
 689:./include/linux/atomic/atomic-arch-fallback.h ****  *
 690:./include/linux/atomic/atomic-arch-fallback.h ****  * Atomically updates @v to (@v + @i) with acquire ordering.
 691:./include/linux/atomic/atomic-arch-fallback.h ****  *
 692:./include/linux/atomic/atomic-arch-fallback.h ****  * Safe to use in noinstr code; prefer atomic_fetch_add_acquire() elsewhere.
 693:./include/linux/atomic/atomic-arch-fallback.h ****  *
 694:./include/linux/atomic/atomic-arch-fallback.h ****  * Return: The original value of @v.
 695:./include/linux/atomic/atomic-arch-fallback.h ****  */
 696:./include/linux/atomic/atomic-arch-fallback.h **** static __always_inline int
 697:./include/linux/atomic/atomic-arch-fallback.h **** raw_atomic_fetch_add_acquire(int i, atomic_t *v)
 698:./include/linux/atomic/atomic-arch-fallback.h **** {
 699:./include/linux/atomic/atomic-arch-fallback.h **** #if defined(arch_atomic_fetch_add_acquire)
 700:./include/linux/atomic/atomic-arch-fallback.h **** 	return arch_atomic_fetch_add_acquire(i, v);
 701:./include/linux/atomic/atomic-arch-fallback.h **** #elif defined(arch_atomic_fetch_add_relaxed)
 702:./include/linux/atomic/atomic-arch-fallback.h **** 	int ret = arch_atomic_fetch_add_relaxed(i, v);
 703:./include/linux/atomic/atomic-arch-fallback.h **** 	__atomic_acquire_fence();
 704:./include/linux/atomic/atomic-arch-fallback.h **** 	return ret;
 705:./include/linux/atomic/atomic-arch-fallback.h **** #elif defined(arch_atomic_fetch_add)
 706:./include/linux/atomic/atomic-arch-fallback.h **** 	return arch_atomic_fetch_add(i, v);
 707:./include/linux/atomic/atomic-arch-fallback.h **** #else
 708:./include/linux/atomic/atomic-arch-fallback.h **** #error "Unable to define raw_atomic_fetch_add_acquire"
 709:./include/linux/atomic/atomic-arch-fallback.h **** #endif
 710:./include/linux/atomic/atomic-arch-fallback.h **** }
 711:./include/linux/atomic/atomic-arch-fallback.h **** 
 712:./include/linux/atomic/atomic-arch-fallback.h **** /**
 713:./include/linux/atomic/atomic-arch-fallback.h ****  * raw_atomic_fetch_add_release() - atomic add with release ordering
 714:./include/linux/atomic/atomic-arch-fallback.h ****  * @i: int value to add
 715:./include/linux/atomic/atomic-arch-fallback.h ****  * @v: pointer to atomic_t
 716:./include/linux/atomic/atomic-arch-fallback.h ****  *
 717:./include/linux/atomic/atomic-arch-fallback.h ****  * Atomically updates @v to (@v + @i) with release ordering.
 718:./include/linux/atomic/atomic-arch-fallback.h ****  *
 719:./include/linux/atomic/atomic-arch-fallback.h ****  * Safe to use in noinstr code; prefer atomic_fetch_add_release() elsewhere.
 720:./include/linux/atomic/atomic-arch-fallback.h ****  *
 721:./include/linux/atomic/atomic-arch-fallback.h ****  * Return: The original value of @v.
 722:./include/linux/atomic/atomic-arch-fallback.h ****  */
 723:./include/linux/atomic/atomic-arch-fallback.h **** static __always_inline int
 724:./include/linux/atomic/atomic-arch-fallback.h **** raw_atomic_fetch_add_release(int i, atomic_t *v)
 725:./include/linux/atomic/atomic-arch-fallback.h **** {
 726:./include/linux/atomic/atomic-arch-fallback.h **** #if defined(arch_atomic_fetch_add_release)
 727:./include/linux/atomic/atomic-arch-fallback.h **** 	return arch_atomic_fetch_add_release(i, v);
 728:./include/linux/atomic/atomic-arch-fallback.h **** #elif defined(arch_atomic_fetch_add_relaxed)
 729:./include/linux/atomic/atomic-arch-fallback.h **** 	__atomic_release_fence();
 730:./include/linux/atomic/atomic-arch-fallback.h **** 	return arch_atomic_fetch_add_relaxed(i, v);
 731:./include/linux/atomic/atomic-arch-fallback.h **** #elif defined(arch_atomic_fetch_add)
 732:./include/linux/atomic/atomic-arch-fallback.h **** 	return arch_atomic_fetch_add(i, v);
 733:./include/linux/atomic/atomic-arch-fallback.h **** #else
ARM GAS  /tmp/ccnTZmpF.s 			page 102


 734:./include/linux/atomic/atomic-arch-fallback.h **** #error "Unable to define raw_atomic_fetch_add_release"
 735:./include/linux/atomic/atomic-arch-fallback.h **** #endif
 736:./include/linux/atomic/atomic-arch-fallback.h **** }
 737:./include/linux/atomic/atomic-arch-fallback.h **** 
 738:./include/linux/atomic/atomic-arch-fallback.h **** /**
 739:./include/linux/atomic/atomic-arch-fallback.h ****  * raw_atomic_fetch_add_relaxed() - atomic add with relaxed ordering
 740:./include/linux/atomic/atomic-arch-fallback.h ****  * @i: int value to add
 741:./include/linux/atomic/atomic-arch-fallback.h ****  * @v: pointer to atomic_t
 742:./include/linux/atomic/atomic-arch-fallback.h ****  *
 743:./include/linux/atomic/atomic-arch-fallback.h ****  * Atomically updates @v to (@v + @i) with relaxed ordering.
 744:./include/linux/atomic/atomic-arch-fallback.h ****  *
 745:./include/linux/atomic/atomic-arch-fallback.h ****  * Safe to use in noinstr code; prefer atomic_fetch_add_relaxed() elsewhere.
 746:./include/linux/atomic/atomic-arch-fallback.h ****  *
 747:./include/linux/atomic/atomic-arch-fallback.h ****  * Return: The original value of @v.
 748:./include/linux/atomic/atomic-arch-fallback.h ****  */
 749:./include/linux/atomic/atomic-arch-fallback.h **** static __always_inline int
 750:./include/linux/atomic/atomic-arch-fallback.h **** raw_atomic_fetch_add_relaxed(int i, atomic_t *v)
 751:./include/linux/atomic/atomic-arch-fallback.h **** {
 752:./include/linux/atomic/atomic-arch-fallback.h **** #if defined(arch_atomic_fetch_add_relaxed)
 753:./include/linux/atomic/atomic-arch-fallback.h **** 	return arch_atomic_fetch_add_relaxed(i, v);
 754:./include/linux/atomic/atomic-arch-fallback.h **** #elif defined(arch_atomic_fetch_add)
 755:./include/linux/atomic/atomic-arch-fallback.h **** 	return arch_atomic_fetch_add(i, v);
 756:./include/linux/atomic/atomic-arch-fallback.h **** #else
 757:./include/linux/atomic/atomic-arch-fallback.h **** #error "Unable to define raw_atomic_fetch_add_relaxed"
 758:./include/linux/atomic/atomic-arch-fallback.h **** #endif
 759:./include/linux/atomic/atomic-arch-fallback.h **** }
 760:./include/linux/atomic/atomic-arch-fallback.h **** 
 761:./include/linux/atomic/atomic-arch-fallback.h **** /**
 762:./include/linux/atomic/atomic-arch-fallback.h ****  * raw_atomic_sub() - atomic subtract with relaxed ordering
 763:./include/linux/atomic/atomic-arch-fallback.h ****  * @i: int value to subtract
 764:./include/linux/atomic/atomic-arch-fallback.h ****  * @v: pointer to atomic_t
 765:./include/linux/atomic/atomic-arch-fallback.h ****  *
 766:./include/linux/atomic/atomic-arch-fallback.h ****  * Atomically updates @v to (@v - @i) with relaxed ordering.
 767:./include/linux/atomic/atomic-arch-fallback.h ****  *
 768:./include/linux/atomic/atomic-arch-fallback.h ****  * Safe to use in noinstr code; prefer atomic_sub() elsewhere.
 769:./include/linux/atomic/atomic-arch-fallback.h ****  *
 770:./include/linux/atomic/atomic-arch-fallback.h ****  * Return: Nothing.
 771:./include/linux/atomic/atomic-arch-fallback.h ****  */
 772:./include/linux/atomic/atomic-arch-fallback.h **** static __always_inline void
 773:./include/linux/atomic/atomic-arch-fallback.h **** raw_atomic_sub(int i, atomic_t *v)
 774:./include/linux/atomic/atomic-arch-fallback.h **** {
 775:./include/linux/atomic/atomic-arch-fallback.h **** 	arch_atomic_sub(i, v);
 776:./include/linux/atomic/atomic-arch-fallback.h **** }
 777:./include/linux/atomic/atomic-arch-fallback.h **** 
 778:./include/linux/atomic/atomic-arch-fallback.h **** /**
 779:./include/linux/atomic/atomic-arch-fallback.h ****  * raw_atomic_sub_return() - atomic subtract with full ordering
 780:./include/linux/atomic/atomic-arch-fallback.h ****  * @i: int value to subtract
 781:./include/linux/atomic/atomic-arch-fallback.h ****  * @v: pointer to atomic_t
 782:./include/linux/atomic/atomic-arch-fallback.h ****  *
 783:./include/linux/atomic/atomic-arch-fallback.h ****  * Atomically updates @v to (@v - @i) with full ordering.
 784:./include/linux/atomic/atomic-arch-fallback.h ****  *
 785:./include/linux/atomic/atomic-arch-fallback.h ****  * Safe to use in noinstr code; prefer atomic_sub_return() elsewhere.
 786:./include/linux/atomic/atomic-arch-fallback.h ****  *
 787:./include/linux/atomic/atomic-arch-fallback.h ****  * Return: The updated value of @v.
 788:./include/linux/atomic/atomic-arch-fallback.h ****  */
 789:./include/linux/atomic/atomic-arch-fallback.h **** static __always_inline int
 790:./include/linux/atomic/atomic-arch-fallback.h **** raw_atomic_sub_return(int i, atomic_t *v)
ARM GAS  /tmp/ccnTZmpF.s 			page 103


 791:./include/linux/atomic/atomic-arch-fallback.h **** {
 792:./include/linux/atomic/atomic-arch-fallback.h **** #if defined(arch_atomic_sub_return)
 793:./include/linux/atomic/atomic-arch-fallback.h **** 	return arch_atomic_sub_return(i, v);
 794:./include/linux/atomic/atomic-arch-fallback.h **** #elif defined(arch_atomic_sub_return_relaxed)
 795:./include/linux/atomic/atomic-arch-fallback.h **** 	int ret;
 796:./include/linux/atomic/atomic-arch-fallback.h **** 	__atomic_pre_full_fence();
 797:./include/linux/atomic/atomic-arch-fallback.h **** 	ret = arch_atomic_sub_return_relaxed(i, v);
 798:./include/linux/atomic/atomic-arch-fallback.h **** 	__atomic_post_full_fence();
 799:./include/linux/atomic/atomic-arch-fallback.h **** 	return ret;
 800:./include/linux/atomic/atomic-arch-fallback.h **** #else
 801:./include/linux/atomic/atomic-arch-fallback.h **** 	volatile int *p = (volatile int *)&v->counter;
 802:./include/linux/atomic/atomic-arch-fallback.h **** 	int ret = *p;
 803:./include/linux/atomic/atomic-arch-fallback.h **** 	*p -= i;
 804:./include/linux/atomic/atomic-arch-fallback.h **** 	return ret;
 805:./include/linux/atomic/atomic-arch-fallback.h **** #endif
 806:./include/linux/atomic/atomic-arch-fallback.h **** }
 807:./include/linux/atomic/atomic-arch-fallback.h **** 
 808:./include/linux/atomic/atomic-arch-fallback.h **** 
 809:./include/linux/atomic/atomic-arch-fallback.h **** /**
 810:./include/linux/atomic/atomic-arch-fallback.h ****  * raw_atomic_sub_return_acquire() - atomic subtract with acquire ordering
 811:./include/linux/atomic/atomic-arch-fallback.h ****  * @i: int value to subtract
 812:./include/linux/atomic/atomic-arch-fallback.h ****  * @v: pointer to atomic_t
 813:./include/linux/atomic/atomic-arch-fallback.h ****  *
 814:./include/linux/atomic/atomic-arch-fallback.h ****  * Atomically updates @v to (@v - @i) with acquire ordering.
 815:./include/linux/atomic/atomic-arch-fallback.h ****  *
 816:./include/linux/atomic/atomic-arch-fallback.h ****  * Safe to use in noinstr code; prefer atomic_sub_return_acquire() elsewhere.
 817:./include/linux/atomic/atomic-arch-fallback.h ****  *
 818:./include/linux/atomic/atomic-arch-fallback.h ****  * Return: The updated value of @v.
 819:./include/linux/atomic/atomic-arch-fallback.h ****  */
 820:./include/linux/atomic/atomic-arch-fallback.h **** static __always_inline int
 821:./include/linux/atomic/atomic-arch-fallback.h **** raw_atomic_sub_return_acquire(int i, atomic_t *v)
 822:./include/linux/atomic/atomic-arch-fallback.h **** {
 823:./include/linux/atomic/atomic-arch-fallback.h **** #if defined(arch_atomic_sub_return_acquire)
 824:./include/linux/atomic/atomic-arch-fallback.h **** 	return arch_atomic_sub_return_acquire(i, v);
 825:./include/linux/atomic/atomic-arch-fallback.h **** #elif defined(arch_atomic_sub_return_relaxed)
 826:./include/linux/atomic/atomic-arch-fallback.h **** 	int ret = arch_atomic_sub_return_relaxed(i, v);
 827:./include/linux/atomic/atomic-arch-fallback.h **** 	__atomic_acquire_fence();
 828:./include/linux/atomic/atomic-arch-fallback.h **** 	return ret;
 829:./include/linux/atomic/atomic-arch-fallback.h **** #elif defined(arch_atomic_sub_return)
 830:./include/linux/atomic/atomic-arch-fallback.h **** 	return arch_atomic_sub_return(i, v);
 831:./include/linux/atomic/atomic-arch-fallback.h **** #else
 832:./include/linux/atomic/atomic-arch-fallback.h **** #error "Unable to define raw_atomic_sub_return_acquire"
 833:./include/linux/atomic/atomic-arch-fallback.h **** #endif
 834:./include/linux/atomic/atomic-arch-fallback.h **** }
 835:./include/linux/atomic/atomic-arch-fallback.h **** 
 836:./include/linux/atomic/atomic-arch-fallback.h **** /**
 837:./include/linux/atomic/atomic-arch-fallback.h ****  * raw_atomic_sub_return_release() - atomic subtract with release ordering
 838:./include/linux/atomic/atomic-arch-fallback.h ****  * @i: int value to subtract
 839:./include/linux/atomic/atomic-arch-fallback.h ****  * @v: pointer to atomic_t
 840:./include/linux/atomic/atomic-arch-fallback.h ****  *
 841:./include/linux/atomic/atomic-arch-fallback.h ****  * Atomically updates @v to (@v - @i) with release ordering.
 842:./include/linux/atomic/atomic-arch-fallback.h ****  *
 843:./include/linux/atomic/atomic-arch-fallback.h ****  * Safe to use in noinstr code; prefer atomic_sub_return_release() elsewhere.
 844:./include/linux/atomic/atomic-arch-fallback.h ****  *
 845:./include/linux/atomic/atomic-arch-fallback.h ****  * Return: The updated value of @v.
 846:./include/linux/atomic/atomic-arch-fallback.h ****  */
 847:./include/linux/atomic/atomic-arch-fallback.h **** static __always_inline int
ARM GAS  /tmp/ccnTZmpF.s 			page 104


 848:./include/linux/atomic/atomic-arch-fallback.h **** raw_atomic_sub_return_release(int i, atomic_t *v)
 849:./include/linux/atomic/atomic-arch-fallback.h **** {
 850:./include/linux/atomic/atomic-arch-fallback.h **** #if defined(arch_atomic_sub_return_release)
 851:./include/linux/atomic/atomic-arch-fallback.h **** 	return arch_atomic_sub_return_release(i, v);
 852:./include/linux/atomic/atomic-arch-fallback.h **** #elif defined(arch_atomic_sub_return_relaxed)
 853:./include/linux/atomic/atomic-arch-fallback.h **** 	__atomic_release_fence();
 854:./include/linux/atomic/atomic-arch-fallback.h **** 	return arch_atomic_sub_return_relaxed(i, v);
 855:./include/linux/atomic/atomic-arch-fallback.h **** #elif defined(arch_atomic_sub_return)
 856:./include/linux/atomic/atomic-arch-fallback.h **** 	return arch_atomic_sub_return(i, v);
 857:./include/linux/atomic/atomic-arch-fallback.h **** #else
 858:./include/linux/atomic/atomic-arch-fallback.h **** #error "Unable to define raw_atomic_sub_return_release"
 859:./include/linux/atomic/atomic-arch-fallback.h **** #endif
 860:./include/linux/atomic/atomic-arch-fallback.h **** }
 861:./include/linux/atomic/atomic-arch-fallback.h **** 
 862:./include/linux/atomic/atomic-arch-fallback.h **** /**
 863:./include/linux/atomic/atomic-arch-fallback.h ****  * raw_atomic_sub_return_relaxed() - atomic subtract with relaxed ordering
 864:./include/linux/atomic/atomic-arch-fallback.h ****  * @i: int value to subtract
 865:./include/linux/atomic/atomic-arch-fallback.h ****  * @v: pointer to atomic_t
 866:./include/linux/atomic/atomic-arch-fallback.h ****  *
 867:./include/linux/atomic/atomic-arch-fallback.h ****  * Atomically updates @v to (@v - @i) with relaxed ordering.
 868:./include/linux/atomic/atomic-arch-fallback.h ****  *
 869:./include/linux/atomic/atomic-arch-fallback.h ****  * Safe to use in noinstr code; prefer atomic_sub_return_relaxed() elsewhere.
 870:./include/linux/atomic/atomic-arch-fallback.h ****  *
 871:./include/linux/atomic/atomic-arch-fallback.h ****  * Return: The updated value of @v.
 872:./include/linux/atomic/atomic-arch-fallback.h ****  */
 873:./include/linux/atomic/atomic-arch-fallback.h **** static __always_inline int
 874:./include/linux/atomic/atomic-arch-fallback.h **** raw_atomic_sub_return_relaxed(int i, atomic_t *v)
 875:./include/linux/atomic/atomic-arch-fallback.h **** {
 876:./include/linux/atomic/atomic-arch-fallback.h **** #if defined(arch_atomic_sub_return_relaxed)
 877:./include/linux/atomic/atomic-arch-fallback.h **** 	return arch_atomic_sub_return_relaxed(i, v);
 878:./include/linux/atomic/atomic-arch-fallback.h **** #elif defined(arch_atomic_sub_return)
 879:./include/linux/atomic/atomic-arch-fallback.h **** 	return arch_atomic_sub_return(i, v);
 880:./include/linux/atomic/atomic-arch-fallback.h **** #else
 881:./include/linux/atomic/atomic-arch-fallback.h **** #error "Unable to define raw_atomic_sub_return_relaxed"
 882:./include/linux/atomic/atomic-arch-fallback.h **** #endif
 883:./include/linux/atomic/atomic-arch-fallback.h **** }
 884:./include/linux/atomic/atomic-arch-fallback.h **** 
 885:./include/linux/atomic/atomic-arch-fallback.h **** /**
 886:./include/linux/atomic/atomic-arch-fallback.h ****  * raw_atomic_fetch_sub() - atomic subtract with full ordering
 887:./include/linux/atomic/atomic-arch-fallback.h ****  * @i: int value to subtract
 888:./include/linux/atomic/atomic-arch-fallback.h ****  * @v: pointer to atomic_t
 889:./include/linux/atomic/atomic-arch-fallback.h ****  *
 890:./include/linux/atomic/atomic-arch-fallback.h ****  * Atomically updates @v to (@v - @i) with full ordering.
 891:./include/linux/atomic/atomic-arch-fallback.h ****  *
 892:./include/linux/atomic/atomic-arch-fallback.h ****  * Safe to use in noinstr code; prefer atomic_fetch_sub() elsewhere.
 893:./include/linux/atomic/atomic-arch-fallback.h ****  *
 894:./include/linux/atomic/atomic-arch-fallback.h ****  * Return: The original value of @v.
 895:./include/linux/atomic/atomic-arch-fallback.h ****  */
 896:./include/linux/atomic/atomic-arch-fallback.h **** static __always_inline int
 897:./include/linux/atomic/atomic-arch-fallback.h **** raw_atomic_fetch_sub(int i, atomic_t *v)
 898:./include/linux/atomic/atomic-arch-fallback.h **** {
 899:./include/linux/atomic/atomic-arch-fallback.h **** #if defined(arch_atomic_fetch_sub)
 900:./include/linux/atomic/atomic-arch-fallback.h **** 	return arch_atomic_fetch_sub(i, v);
 901:./include/linux/atomic/atomic-arch-fallback.h **** #elif defined(arch_atomic_fetch_sub_relaxed)
 902:./include/linux/atomic/atomic-arch-fallback.h **** 	int ret;
 903:./include/linux/atomic/atomic-arch-fallback.h **** 	__atomic_pre_full_fence();
 904:./include/linux/atomic/atomic-arch-fallback.h **** 	ret = arch_atomic_fetch_sub_relaxed(i, v);
ARM GAS  /tmp/ccnTZmpF.s 			page 105


 905:./include/linux/atomic/atomic-arch-fallback.h **** 	__atomic_post_full_fence();
 906:./include/linux/atomic/atomic-arch-fallback.h **** 	return ret;
 907:./include/linux/atomic/atomic-arch-fallback.h **** #else
 908:./include/linux/atomic/atomic-arch-fallback.h **** #error "Unable to define raw_atomic_fetch_sub"
 909:./include/linux/atomic/atomic-arch-fallback.h **** #endif
 910:./include/linux/atomic/atomic-arch-fallback.h **** }
 911:./include/linux/atomic/atomic-arch-fallback.h **** 
 912:./include/linux/atomic/atomic-arch-fallback.h **** /**
 913:./include/linux/atomic/atomic-arch-fallback.h ****  * raw_atomic_fetch_sub_acquire() - atomic subtract with acquire ordering
 914:./include/linux/atomic/atomic-arch-fallback.h ****  * @i: int value to subtract
 915:./include/linux/atomic/atomic-arch-fallback.h ****  * @v: pointer to atomic_t
 916:./include/linux/atomic/atomic-arch-fallback.h ****  *
 917:./include/linux/atomic/atomic-arch-fallback.h ****  * Atomically updates @v to (@v - @i) with acquire ordering.
 918:./include/linux/atomic/atomic-arch-fallback.h ****  *
 919:./include/linux/atomic/atomic-arch-fallback.h ****  * Safe to use in noinstr code; prefer atomic_fetch_sub_acquire() elsewhere.
 920:./include/linux/atomic/atomic-arch-fallback.h ****  *
 921:./include/linux/atomic/atomic-arch-fallback.h ****  * Return: The original value of @v.
 922:./include/linux/atomic/atomic-arch-fallback.h ****  */
 923:./include/linux/atomic/atomic-arch-fallback.h **** static __always_inline int
 924:./include/linux/atomic/atomic-arch-fallback.h **** raw_atomic_fetch_sub_acquire(int i, atomic_t *v)
 925:./include/linux/atomic/atomic-arch-fallback.h **** {
 926:./include/linux/atomic/atomic-arch-fallback.h **** #if defined(arch_atomic_fetch_sub_acquire)
 927:./include/linux/atomic/atomic-arch-fallback.h **** 	return arch_atomic_fetch_sub_acquire(i, v);
 928:./include/linux/atomic/atomic-arch-fallback.h **** #elif defined(arch_atomic_fetch_sub_relaxed)
 929:./include/linux/atomic/atomic-arch-fallback.h **** 	int ret = arch_atomic_fetch_sub_relaxed(i, v);
 930:./include/linux/atomic/atomic-arch-fallback.h **** 	__atomic_acquire_fence();
 931:./include/linux/atomic/atomic-arch-fallback.h **** 	return ret;
 932:./include/linux/atomic/atomic-arch-fallback.h **** #elif defined(arch_atomic_fetch_sub)
 933:./include/linux/atomic/atomic-arch-fallback.h **** 	return arch_atomic_fetch_sub(i, v);
 934:./include/linux/atomic/atomic-arch-fallback.h **** #else
 935:./include/linux/atomic/atomic-arch-fallback.h **** #error "Unable to define raw_atomic_fetch_sub_acquire"
 936:./include/linux/atomic/atomic-arch-fallback.h **** #endif
 937:./include/linux/atomic/atomic-arch-fallback.h **** }
 938:./include/linux/atomic/atomic-arch-fallback.h **** 
 939:./include/linux/atomic/atomic-arch-fallback.h **** /**
 940:./include/linux/atomic/atomic-arch-fallback.h ****  * raw_atomic_fetch_sub_release() - atomic subtract with release ordering
 941:./include/linux/atomic/atomic-arch-fallback.h ****  * @i: int value to subtract
 942:./include/linux/atomic/atomic-arch-fallback.h ****  * @v: pointer to atomic_t
 943:./include/linux/atomic/atomic-arch-fallback.h ****  *
 944:./include/linux/atomic/atomic-arch-fallback.h ****  * Atomically updates @v to (@v - @i) with release ordering.
 945:./include/linux/atomic/atomic-arch-fallback.h ****  *
 946:./include/linux/atomic/atomic-arch-fallback.h ****  * Safe to use in noinstr code; prefer atomic_fetch_sub_release() elsewhere.
 947:./include/linux/atomic/atomic-arch-fallback.h ****  *
 948:./include/linux/atomic/atomic-arch-fallback.h ****  * Return: The original value of @v.
 949:./include/linux/atomic/atomic-arch-fallback.h ****  */
 950:./include/linux/atomic/atomic-arch-fallback.h **** static __always_inline int
 951:./include/linux/atomic/atomic-arch-fallback.h **** raw_atomic_fetch_sub_release(int i, atomic_t *v)
 952:./include/linux/atomic/atomic-arch-fallback.h **** {
 953:./include/linux/atomic/atomic-arch-fallback.h **** #if defined(arch_atomic_fetch_sub_release)
 954:./include/linux/atomic/atomic-arch-fallback.h **** 	return arch_atomic_fetch_sub_release(i, v);
 955:./include/linux/atomic/atomic-arch-fallback.h **** #elif defined(arch_atomic_fetch_sub_relaxed)
 956:./include/linux/atomic/atomic-arch-fallback.h **** 	__atomic_release_fence();
 957:./include/linux/atomic/atomic-arch-fallback.h **** 	return arch_atomic_fetch_sub_relaxed(i, v);
 958:./include/linux/atomic/atomic-arch-fallback.h **** #elif defined(arch_atomic_fetch_sub)
 959:./include/linux/atomic/atomic-arch-fallback.h **** 	return arch_atomic_fetch_sub(i, v);
 960:./include/linux/atomic/atomic-arch-fallback.h **** #else
 961:./include/linux/atomic/atomic-arch-fallback.h **** #error "Unable to define raw_atomic_fetch_sub_release"
ARM GAS  /tmp/ccnTZmpF.s 			page 106


 962:./include/linux/atomic/atomic-arch-fallback.h **** #endif
 963:./include/linux/atomic/atomic-arch-fallback.h **** }
 964:./include/linux/atomic/atomic-arch-fallback.h **** 
 965:./include/linux/atomic/atomic-arch-fallback.h **** /**
 966:./include/linux/atomic/atomic-arch-fallback.h ****  * raw_atomic_fetch_sub_relaxed() - atomic subtract with relaxed ordering
 967:./include/linux/atomic/atomic-arch-fallback.h ****  * @i: int value to subtract
 968:./include/linux/atomic/atomic-arch-fallback.h ****  * @v: pointer to atomic_t
 969:./include/linux/atomic/atomic-arch-fallback.h ****  *
 970:./include/linux/atomic/atomic-arch-fallback.h ****  * Atomically updates @v to (@v - @i) with relaxed ordering.
 971:./include/linux/atomic/atomic-arch-fallback.h ****  *
 972:./include/linux/atomic/atomic-arch-fallback.h ****  * Safe to use in noinstr code; prefer atomic_fetch_sub_relaxed() elsewhere.
 973:./include/linux/atomic/atomic-arch-fallback.h ****  *
 974:./include/linux/atomic/atomic-arch-fallback.h ****  * Return: The original value of @v.
 975:./include/linux/atomic/atomic-arch-fallback.h ****  */
 976:./include/linux/atomic/atomic-arch-fallback.h **** static __always_inline int
 977:./include/linux/atomic/atomic-arch-fallback.h **** raw_atomic_fetch_sub_relaxed(int i, atomic_t *v)
 978:./include/linux/atomic/atomic-arch-fallback.h **** {
 979:./include/linux/atomic/atomic-arch-fallback.h **** #if defined(arch_atomic_fetch_sub_relaxed)
 980:./include/linux/atomic/atomic-arch-fallback.h **** 	return arch_atomic_fetch_sub_relaxed(i, v);
 981:./include/linux/atomic/atomic-arch-fallback.h **** #elif defined(arch_atomic_fetch_sub)
 982:./include/linux/atomic/atomic-arch-fallback.h **** 	return arch_atomic_fetch_sub(i, v);
 983:./include/linux/atomic/atomic-arch-fallback.h **** #else
 984:./include/linux/atomic/atomic-arch-fallback.h **** #error "Unable to define raw_atomic_fetch_sub_relaxed"
 985:./include/linux/atomic/atomic-arch-fallback.h **** #endif
 986:./include/linux/atomic/atomic-arch-fallback.h **** }
 987:./include/linux/atomic/atomic-arch-fallback.h **** 
 988:./include/linux/atomic/atomic-arch-fallback.h **** /**
 989:./include/linux/atomic/atomic-arch-fallback.h ****  * raw_atomic_inc() - atomic increment with relaxed ordering
 990:./include/linux/atomic/atomic-arch-fallback.h ****  * @v: pointer to atomic_t
 991:./include/linux/atomic/atomic-arch-fallback.h ****  *
 992:./include/linux/atomic/atomic-arch-fallback.h ****  * Atomically updates @v to (@v + 1) with relaxed ordering.
 993:./include/linux/atomic/atomic-arch-fallback.h ****  *
 994:./include/linux/atomic/atomic-arch-fallback.h ****  * Safe to use in noinstr code; prefer atomic_inc() elsewhere.
 995:./include/linux/atomic/atomic-arch-fallback.h ****  *
 996:./include/linux/atomic/atomic-arch-fallback.h ****  * Return: Nothing.
 997:./include/linux/atomic/atomic-arch-fallback.h ****  */
 998:./include/linux/atomic/atomic-arch-fallback.h **** static __always_inline void
 999:./include/linux/atomic/atomic-arch-fallback.h **** raw_atomic_inc(atomic_t *v)
1000:./include/linux/atomic/atomic-arch-fallback.h **** {
1001:./include/linux/atomic/atomic-arch-fallback.h **** #if defined(arch_atomic_inc)
1002:./include/linux/atomic/atomic-arch-fallback.h **** 	arch_atomic_inc(v);
1003:./include/linux/atomic/atomic-arch-fallback.h **** #else
1004:./include/linux/atomic/atomic-arch-fallback.h **** 	raw_atomic_add(1, v);
1005:./include/linux/atomic/atomic-arch-fallback.h **** #endif
1006:./include/linux/atomic/atomic-arch-fallback.h **** }
1007:./include/linux/atomic/atomic-arch-fallback.h **** 
1008:./include/linux/atomic/atomic-arch-fallback.h **** /**
1009:./include/linux/atomic/atomic-arch-fallback.h ****  * raw_atomic_inc_return() - atomic increment with full ordering
1010:./include/linux/atomic/atomic-arch-fallback.h ****  * @v: pointer to atomic_t
1011:./include/linux/atomic/atomic-arch-fallback.h ****  *
1012:./include/linux/atomic/atomic-arch-fallback.h ****  * Atomically updates @v to (@v + 1) with full ordering.
1013:./include/linux/atomic/atomic-arch-fallback.h ****  *
1014:./include/linux/atomic/atomic-arch-fallback.h ****  * Safe to use in noinstr code; prefer atomic_inc_return() elsewhere.
1015:./include/linux/atomic/atomic-arch-fallback.h ****  *
1016:./include/linux/atomic/atomic-arch-fallback.h ****  * Return: The updated value of @v.
1017:./include/linux/atomic/atomic-arch-fallback.h ****  */
1018:./include/linux/atomic/atomic-arch-fallback.h **** static __always_inline int
ARM GAS  /tmp/ccnTZmpF.s 			page 107


1019:./include/linux/atomic/atomic-arch-fallback.h **** raw_atomic_inc_return(atomic_t *v)
1020:./include/linux/atomic/atomic-arch-fallback.h **** {
1021:./include/linux/atomic/atomic-arch-fallback.h **** #if defined(arch_atomic_inc_return)
1022:./include/linux/atomic/atomic-arch-fallback.h **** 	return arch_atomic_inc_return(v);
1023:./include/linux/atomic/atomic-arch-fallback.h **** #elif defined(arch_atomic_inc_return_relaxed)
1024:./include/linux/atomic/atomic-arch-fallback.h **** 	int ret;
1025:./include/linux/atomic/atomic-arch-fallback.h **** 	__atomic_pre_full_fence();
1026:./include/linux/atomic/atomic-arch-fallback.h **** 	ret = arch_atomic_inc_return_relaxed(v);
1027:./include/linux/atomic/atomic-arch-fallback.h **** 	__atomic_post_full_fence();
1028:./include/linux/atomic/atomic-arch-fallback.h **** 	return ret;
1029:./include/linux/atomic/atomic-arch-fallback.h **** #else
1030:./include/linux/atomic/atomic-arch-fallback.h **** 	return raw_atomic_add_return(1, v);
1031:./include/linux/atomic/atomic-arch-fallback.h **** #endif
1032:./include/linux/atomic/atomic-arch-fallback.h **** }
1033:./include/linux/atomic/atomic-arch-fallback.h **** 
1034:./include/linux/atomic/atomic-arch-fallback.h **** /**
1035:./include/linux/atomic/atomic-arch-fallback.h ****  * raw_atomic_inc_return_acquire() - atomic increment with acquire ordering
1036:./include/linux/atomic/atomic-arch-fallback.h ****  * @v: pointer to atomic_t
1037:./include/linux/atomic/atomic-arch-fallback.h ****  *
1038:./include/linux/atomic/atomic-arch-fallback.h ****  * Atomically updates @v to (@v + 1) with acquire ordering.
1039:./include/linux/atomic/atomic-arch-fallback.h ****  *
1040:./include/linux/atomic/atomic-arch-fallback.h ****  * Safe to use in noinstr code; prefer atomic_inc_return_acquire() elsewhere.
1041:./include/linux/atomic/atomic-arch-fallback.h ****  *
1042:./include/linux/atomic/atomic-arch-fallback.h ****  * Return: The updated value of @v.
1043:./include/linux/atomic/atomic-arch-fallback.h ****  */
1044:./include/linux/atomic/atomic-arch-fallback.h **** static __always_inline int
1045:./include/linux/atomic/atomic-arch-fallback.h **** raw_atomic_inc_return_acquire(atomic_t *v)
1046:./include/linux/atomic/atomic-arch-fallback.h **** {
1047:./include/linux/atomic/atomic-arch-fallback.h **** #if defined(arch_atomic_inc_return_acquire)
1048:./include/linux/atomic/atomic-arch-fallback.h **** 	return arch_atomic_inc_return_acquire(v);
1049:./include/linux/atomic/atomic-arch-fallback.h **** #elif defined(arch_atomic_inc_return_relaxed)
1050:./include/linux/atomic/atomic-arch-fallback.h **** 	int ret = arch_atomic_inc_return_relaxed(v);
1051:./include/linux/atomic/atomic-arch-fallback.h **** 	__atomic_acquire_fence();
1052:./include/linux/atomic/atomic-arch-fallback.h **** 	return ret;
1053:./include/linux/atomic/atomic-arch-fallback.h **** #elif defined(arch_atomic_inc_return)
1054:./include/linux/atomic/atomic-arch-fallback.h **** 	return arch_atomic_inc_return(v);
1055:./include/linux/atomic/atomic-arch-fallback.h **** #else
1056:./include/linux/atomic/atomic-arch-fallback.h **** 	return raw_atomic_add_return_acquire(1, v);
1057:./include/linux/atomic/atomic-arch-fallback.h **** #endif
1058:./include/linux/atomic/atomic-arch-fallback.h **** }
1059:./include/linux/atomic/atomic-arch-fallback.h **** 
1060:./include/linux/atomic/atomic-arch-fallback.h **** /**
1061:./include/linux/atomic/atomic-arch-fallback.h ****  * raw_atomic_inc_return_release() - atomic increment with release ordering
1062:./include/linux/atomic/atomic-arch-fallback.h ****  * @v: pointer to atomic_t
1063:./include/linux/atomic/atomic-arch-fallback.h ****  *
1064:./include/linux/atomic/atomic-arch-fallback.h ****  * Atomically updates @v to (@v + 1) with release ordering.
1065:./include/linux/atomic/atomic-arch-fallback.h ****  *
1066:./include/linux/atomic/atomic-arch-fallback.h ****  * Safe to use in noinstr code; prefer atomic_inc_return_release() elsewhere.
1067:./include/linux/atomic/atomic-arch-fallback.h ****  *
1068:./include/linux/atomic/atomic-arch-fallback.h ****  * Return: The updated value of @v.
1069:./include/linux/atomic/atomic-arch-fallback.h ****  */
1070:./include/linux/atomic/atomic-arch-fallback.h **** static __always_inline int
1071:./include/linux/atomic/atomic-arch-fallback.h **** raw_atomic_inc_return_release(atomic_t *v)
1072:./include/linux/atomic/atomic-arch-fallback.h **** {
1073:./include/linux/atomic/atomic-arch-fallback.h **** #if defined(arch_atomic_inc_return_release)
1074:./include/linux/atomic/atomic-arch-fallback.h **** 	return arch_atomic_inc_return_release(v);
1075:./include/linux/atomic/atomic-arch-fallback.h **** #elif defined(arch_atomic_inc_return_relaxed)
ARM GAS  /tmp/ccnTZmpF.s 			page 108


1076:./include/linux/atomic/atomic-arch-fallback.h **** 	__atomic_release_fence();
1077:./include/linux/atomic/atomic-arch-fallback.h **** 	return arch_atomic_inc_return_relaxed(v);
1078:./include/linux/atomic/atomic-arch-fallback.h **** #elif defined(arch_atomic_inc_return)
1079:./include/linux/atomic/atomic-arch-fallback.h **** 	return arch_atomic_inc_return(v);
1080:./include/linux/atomic/atomic-arch-fallback.h **** #else
1081:./include/linux/atomic/atomic-arch-fallback.h **** 	return raw_atomic_add_return_release(1, v);
1082:./include/linux/atomic/atomic-arch-fallback.h **** #endif
1083:./include/linux/atomic/atomic-arch-fallback.h **** }
1084:./include/linux/atomic/atomic-arch-fallback.h **** 
1085:./include/linux/atomic/atomic-arch-fallback.h **** /**
1086:./include/linux/atomic/atomic-arch-fallback.h ****  * raw_atomic_inc_return_relaxed() - atomic increment with relaxed ordering
1087:./include/linux/atomic/atomic-arch-fallback.h ****  * @v: pointer to atomic_t
1088:./include/linux/atomic/atomic-arch-fallback.h ****  *
1089:./include/linux/atomic/atomic-arch-fallback.h ****  * Atomically updates @v to (@v + 1) with relaxed ordering.
1090:./include/linux/atomic/atomic-arch-fallback.h ****  *
1091:./include/linux/atomic/atomic-arch-fallback.h ****  * Safe to use in noinstr code; prefer atomic_inc_return_relaxed() elsewhere.
1092:./include/linux/atomic/atomic-arch-fallback.h ****  *
1093:./include/linux/atomic/atomic-arch-fallback.h ****  * Return: The updated value of @v.
1094:./include/linux/atomic/atomic-arch-fallback.h ****  */
1095:./include/linux/atomic/atomic-arch-fallback.h **** static __always_inline int
1096:./include/linux/atomic/atomic-arch-fallback.h **** raw_atomic_inc_return_relaxed(atomic_t *v)
1097:./include/linux/atomic/atomic-arch-fallback.h **** {
1098:./include/linux/atomic/atomic-arch-fallback.h **** #if defined(arch_atomic_inc_return_relaxed)
1099:./include/linux/atomic/atomic-arch-fallback.h **** 	return arch_atomic_inc_return_relaxed(v);
1100:./include/linux/atomic/atomic-arch-fallback.h **** #elif defined(arch_atomic_inc_return)
1101:./include/linux/atomic/atomic-arch-fallback.h **** 	return arch_atomic_inc_return(v);
1102:./include/linux/atomic/atomic-arch-fallback.h **** #else
1103:./include/linux/atomic/atomic-arch-fallback.h **** 	return raw_atomic_add_return_relaxed(1, v);
1104:./include/linux/atomic/atomic-arch-fallback.h **** #endif
1105:./include/linux/atomic/atomic-arch-fallback.h **** }
1106:./include/linux/atomic/atomic-arch-fallback.h **** 
1107:./include/linux/atomic/atomic-arch-fallback.h **** /**
1108:./include/linux/atomic/atomic-arch-fallback.h ****  * raw_atomic_fetch_inc() - atomic increment with full ordering
1109:./include/linux/atomic/atomic-arch-fallback.h ****  * @v: pointer to atomic_t
1110:./include/linux/atomic/atomic-arch-fallback.h ****  *
1111:./include/linux/atomic/atomic-arch-fallback.h ****  * Atomically updates @v to (@v + 1) with full ordering.
1112:./include/linux/atomic/atomic-arch-fallback.h ****  *
1113:./include/linux/atomic/atomic-arch-fallback.h ****  * Safe to use in noinstr code; prefer atomic_fetch_inc() elsewhere.
1114:./include/linux/atomic/atomic-arch-fallback.h ****  *
1115:./include/linux/atomic/atomic-arch-fallback.h ****  * Return: The original value of @v.
1116:./include/linux/atomic/atomic-arch-fallback.h ****  */
1117:./include/linux/atomic/atomic-arch-fallback.h **** static __always_inline int
1118:./include/linux/atomic/atomic-arch-fallback.h **** raw_atomic_fetch_inc(atomic_t *v)
1119:./include/linux/atomic/atomic-arch-fallback.h **** {
1120:./include/linux/atomic/atomic-arch-fallback.h **** #if defined(arch_atomic_fetch_inc)
1121:./include/linux/atomic/atomic-arch-fallback.h **** 	return arch_atomic_fetch_inc(v);
1122:./include/linux/atomic/atomic-arch-fallback.h **** #elif defined(arch_atomic_fetch_inc_relaxed)
1123:./include/linux/atomic/atomic-arch-fallback.h **** 	int ret;
1124:./include/linux/atomic/atomic-arch-fallback.h **** 	__atomic_pre_full_fence();
1125:./include/linux/atomic/atomic-arch-fallback.h **** 	ret = arch_atomic_fetch_inc_relaxed(v);
1126:./include/linux/atomic/atomic-arch-fallback.h **** 	__atomic_post_full_fence();
1127:./include/linux/atomic/atomic-arch-fallback.h **** 	return ret;
1128:./include/linux/atomic/atomic-arch-fallback.h **** #else
1129:./include/linux/atomic/atomic-arch-fallback.h **** 	return raw_atomic_fetch_add(1, v);
1130:./include/linux/atomic/atomic-arch-fallback.h **** #endif
1131:./include/linux/atomic/atomic-arch-fallback.h **** }
1132:./include/linux/atomic/atomic-arch-fallback.h **** 
ARM GAS  /tmp/ccnTZmpF.s 			page 109


1133:./include/linux/atomic/atomic-arch-fallback.h **** /**
1134:./include/linux/atomic/atomic-arch-fallback.h ****  * raw_atomic_fetch_inc_acquire() - atomic increment with acquire ordering
1135:./include/linux/atomic/atomic-arch-fallback.h ****  * @v: pointer to atomic_t
1136:./include/linux/atomic/atomic-arch-fallback.h ****  *
1137:./include/linux/atomic/atomic-arch-fallback.h ****  * Atomically updates @v to (@v + 1) with acquire ordering.
1138:./include/linux/atomic/atomic-arch-fallback.h ****  *
1139:./include/linux/atomic/atomic-arch-fallback.h ****  * Safe to use in noinstr code; prefer atomic_fetch_inc_acquire() elsewhere.
1140:./include/linux/atomic/atomic-arch-fallback.h ****  *
1141:./include/linux/atomic/atomic-arch-fallback.h ****  * Return: The original value of @v.
1142:./include/linux/atomic/atomic-arch-fallback.h ****  */
1143:./include/linux/atomic/atomic-arch-fallback.h **** static __always_inline int
1144:./include/linux/atomic/atomic-arch-fallback.h **** raw_atomic_fetch_inc_acquire(atomic_t *v)
1145:./include/linux/atomic/atomic-arch-fallback.h **** {
1146:./include/linux/atomic/atomic-arch-fallback.h **** #if defined(arch_atomic_fetch_inc_acquire)
1147:./include/linux/atomic/atomic-arch-fallback.h **** 	return arch_atomic_fetch_inc_acquire(v);
1148:./include/linux/atomic/atomic-arch-fallback.h **** #elif defined(arch_atomic_fetch_inc_relaxed)
1149:./include/linux/atomic/atomic-arch-fallback.h **** 	int ret = arch_atomic_fetch_inc_relaxed(v);
1150:./include/linux/atomic/atomic-arch-fallback.h **** 	__atomic_acquire_fence();
1151:./include/linux/atomic/atomic-arch-fallback.h **** 	return ret;
1152:./include/linux/atomic/atomic-arch-fallback.h **** #elif defined(arch_atomic_fetch_inc)
1153:./include/linux/atomic/atomic-arch-fallback.h **** 	return arch_atomic_fetch_inc(v);
1154:./include/linux/atomic/atomic-arch-fallback.h **** #else
1155:./include/linux/atomic/atomic-arch-fallback.h **** 	return raw_atomic_fetch_add_acquire(1, v);
1156:./include/linux/atomic/atomic-arch-fallback.h **** #endif
1157:./include/linux/atomic/atomic-arch-fallback.h **** }
1158:./include/linux/atomic/atomic-arch-fallback.h **** 
1159:./include/linux/atomic/atomic-arch-fallback.h **** /**
1160:./include/linux/atomic/atomic-arch-fallback.h ****  * raw_atomic_fetch_inc_release() - atomic increment with release ordering
1161:./include/linux/atomic/atomic-arch-fallback.h ****  * @v: pointer to atomic_t
1162:./include/linux/atomic/atomic-arch-fallback.h ****  *
1163:./include/linux/atomic/atomic-arch-fallback.h ****  * Atomically updates @v to (@v + 1) with release ordering.
1164:./include/linux/atomic/atomic-arch-fallback.h ****  *
1165:./include/linux/atomic/atomic-arch-fallback.h ****  * Safe to use in noinstr code; prefer atomic_fetch_inc_release() elsewhere.
1166:./include/linux/atomic/atomic-arch-fallback.h ****  *
1167:./include/linux/atomic/atomic-arch-fallback.h ****  * Return: The original value of @v.
1168:./include/linux/atomic/atomic-arch-fallback.h ****  */
1169:./include/linux/atomic/atomic-arch-fallback.h **** static __always_inline int
1170:./include/linux/atomic/atomic-arch-fallback.h **** raw_atomic_fetch_inc_release(atomic_t *v)
1171:./include/linux/atomic/atomic-arch-fallback.h **** {
1172:./include/linux/atomic/atomic-arch-fallback.h **** #if defined(arch_atomic_fetch_inc_release)
1173:./include/linux/atomic/atomic-arch-fallback.h **** 	return arch_atomic_fetch_inc_release(v);
1174:./include/linux/atomic/atomic-arch-fallback.h **** #elif defined(arch_atomic_fetch_inc_relaxed)
1175:./include/linux/atomic/atomic-arch-fallback.h **** 	__atomic_release_fence();
1176:./include/linux/atomic/atomic-arch-fallback.h **** 	return arch_atomic_fetch_inc_relaxed(v);
1177:./include/linux/atomic/atomic-arch-fallback.h **** #elif defined(arch_atomic_fetch_inc)
1178:./include/linux/atomic/atomic-arch-fallback.h **** 	return arch_atomic_fetch_inc(v);
1179:./include/linux/atomic/atomic-arch-fallback.h **** #else
1180:./include/linux/atomic/atomic-arch-fallback.h **** 	return raw_atomic_fetch_add_release(1, v);
1181:./include/linux/atomic/atomic-arch-fallback.h **** #endif
1182:./include/linux/atomic/atomic-arch-fallback.h **** }
1183:./include/linux/atomic/atomic-arch-fallback.h **** 
1184:./include/linux/atomic/atomic-arch-fallback.h **** /**
1185:./include/linux/atomic/atomic-arch-fallback.h ****  * raw_atomic_fetch_inc_relaxed() - atomic increment with relaxed ordering
1186:./include/linux/atomic/atomic-arch-fallback.h ****  * @v: pointer to atomic_t
1187:./include/linux/atomic/atomic-arch-fallback.h ****  *
1188:./include/linux/atomic/atomic-arch-fallback.h ****  * Atomically updates @v to (@v + 1) with relaxed ordering.
1189:./include/linux/atomic/atomic-arch-fallback.h ****  *
ARM GAS  /tmp/ccnTZmpF.s 			page 110


1190:./include/linux/atomic/atomic-arch-fallback.h ****  * Safe to use in noinstr code; prefer atomic_fetch_inc_relaxed() elsewhere.
1191:./include/linux/atomic/atomic-arch-fallback.h ****  *
1192:./include/linux/atomic/atomic-arch-fallback.h ****  * Return: The original value of @v.
1193:./include/linux/atomic/atomic-arch-fallback.h ****  */
1194:./include/linux/atomic/atomic-arch-fallback.h **** static __always_inline int
1195:./include/linux/atomic/atomic-arch-fallback.h **** raw_atomic_fetch_inc_relaxed(atomic_t *v)
1196:./include/linux/atomic/atomic-arch-fallback.h **** {
1197:./include/linux/atomic/atomic-arch-fallback.h **** #if defined(arch_atomic_fetch_inc_relaxed)
1198:./include/linux/atomic/atomic-arch-fallback.h **** 	return arch_atomic_fetch_inc_relaxed(v);
1199:./include/linux/atomic/atomic-arch-fallback.h **** #elif defined(arch_atomic_fetch_inc)
1200:./include/linux/atomic/atomic-arch-fallback.h **** 	return arch_atomic_fetch_inc(v);
1201:./include/linux/atomic/atomic-arch-fallback.h **** #else
1202:./include/linux/atomic/atomic-arch-fallback.h **** 	return raw_atomic_fetch_add_relaxed(1, v);
1203:./include/linux/atomic/atomic-arch-fallback.h **** #endif
1204:./include/linux/atomic/atomic-arch-fallback.h **** }
1205:./include/linux/atomic/atomic-arch-fallback.h **** 
1206:./include/linux/atomic/atomic-arch-fallback.h **** /**
1207:./include/linux/atomic/atomic-arch-fallback.h ****  * raw_atomic_dec() - atomic decrement with relaxed ordering
1208:./include/linux/atomic/atomic-arch-fallback.h ****  * @v: pointer to atomic_t
1209:./include/linux/atomic/atomic-arch-fallback.h ****  *
1210:./include/linux/atomic/atomic-arch-fallback.h ****  * Atomically updates @v to (@v - 1) with relaxed ordering.
1211:./include/linux/atomic/atomic-arch-fallback.h ****  *
1212:./include/linux/atomic/atomic-arch-fallback.h ****  * Safe to use in noinstr code; prefer atomic_dec() elsewhere.
1213:./include/linux/atomic/atomic-arch-fallback.h ****  *
1214:./include/linux/atomic/atomic-arch-fallback.h ****  * Return: Nothing.
1215:./include/linux/atomic/atomic-arch-fallback.h ****  */
1216:./include/linux/atomic/atomic-arch-fallback.h **** static __always_inline void
1217:./include/linux/atomic/atomic-arch-fallback.h **** raw_atomic_dec(atomic_t *v)
1218:./include/linux/atomic/atomic-arch-fallback.h **** {
1219:./include/linux/atomic/atomic-arch-fallback.h **** #if defined(arch_atomic_dec)
1220:./include/linux/atomic/atomic-arch-fallback.h **** 	arch_atomic_dec(v);
1221:./include/linux/atomic/atomic-arch-fallback.h **** #else
1222:./include/linux/atomic/atomic-arch-fallback.h **** 	raw_atomic_sub(1, v);
1223:./include/linux/atomic/atomic-arch-fallback.h **** #endif
1224:./include/linux/atomic/atomic-arch-fallback.h **** }
1225:./include/linux/atomic/atomic-arch-fallback.h **** 
1226:./include/linux/atomic/atomic-arch-fallback.h **** /**
1227:./include/linux/atomic/atomic-arch-fallback.h ****  * raw_atomic_dec_return() - atomic decrement with full ordering
1228:./include/linux/atomic/atomic-arch-fallback.h ****  * @v: pointer to atomic_t
1229:./include/linux/atomic/atomic-arch-fallback.h ****  *
1230:./include/linux/atomic/atomic-arch-fallback.h ****  * Atomically updates @v to (@v - 1) with full ordering.
1231:./include/linux/atomic/atomic-arch-fallback.h ****  *
1232:./include/linux/atomic/atomic-arch-fallback.h ****  * Safe to use in noinstr code; prefer atomic_dec_return() elsewhere.
1233:./include/linux/atomic/atomic-arch-fallback.h ****  *
1234:./include/linux/atomic/atomic-arch-fallback.h ****  * Return: The updated value of @v.
1235:./include/linux/atomic/atomic-arch-fallback.h ****  */
1236:./include/linux/atomic/atomic-arch-fallback.h **** static __always_inline int
1237:./include/linux/atomic/atomic-arch-fallback.h **** raw_atomic_dec_return(atomic_t *v)
1238:./include/linux/atomic/atomic-arch-fallback.h **** {
1239:./include/linux/atomic/atomic-arch-fallback.h **** #if defined(arch_atomic_dec_return)
1240:./include/linux/atomic/atomic-arch-fallback.h **** 	return arch_atomic_dec_return(v);
1241:./include/linux/atomic/atomic-arch-fallback.h **** #elif defined(arch_atomic_dec_return_relaxed)
1242:./include/linux/atomic/atomic-arch-fallback.h **** 	int ret;
1243:./include/linux/atomic/atomic-arch-fallback.h **** 	__atomic_pre_full_fence();
1244:./include/linux/atomic/atomic-arch-fallback.h **** 	ret = arch_atomic_dec_return_relaxed(v);
1245:./include/linux/atomic/atomic-arch-fallback.h **** 	__atomic_post_full_fence();
1246:./include/linux/atomic/atomic-arch-fallback.h **** 	return ret;
ARM GAS  /tmp/ccnTZmpF.s 			page 111


1247:./include/linux/atomic/atomic-arch-fallback.h **** #else
1248:./include/linux/atomic/atomic-arch-fallback.h **** 	return raw_atomic_sub_return(1, v);
1249:./include/linux/atomic/atomic-arch-fallback.h **** #endif
1250:./include/linux/atomic/atomic-arch-fallback.h **** }
1251:./include/linux/atomic/atomic-arch-fallback.h **** 
1252:./include/linux/atomic/atomic-arch-fallback.h **** /**
1253:./include/linux/atomic/atomic-arch-fallback.h ****  * raw_atomic_dec_return_acquire() - atomic decrement with acquire ordering
1254:./include/linux/atomic/atomic-arch-fallback.h ****  * @v: pointer to atomic_t
1255:./include/linux/atomic/atomic-arch-fallback.h ****  *
1256:./include/linux/atomic/atomic-arch-fallback.h ****  * Atomically updates @v to (@v - 1) with acquire ordering.
1257:./include/linux/atomic/atomic-arch-fallback.h ****  *
1258:./include/linux/atomic/atomic-arch-fallback.h ****  * Safe to use in noinstr code; prefer atomic_dec_return_acquire() elsewhere.
1259:./include/linux/atomic/atomic-arch-fallback.h ****  *
1260:./include/linux/atomic/atomic-arch-fallback.h ****  * Return: The updated value of @v.
1261:./include/linux/atomic/atomic-arch-fallback.h ****  */
1262:./include/linux/atomic/atomic-arch-fallback.h **** static __always_inline int
1263:./include/linux/atomic/atomic-arch-fallback.h **** raw_atomic_dec_return_acquire(atomic_t *v)
1264:./include/linux/atomic/atomic-arch-fallback.h **** {
1265:./include/linux/atomic/atomic-arch-fallback.h **** #if defined(arch_atomic_dec_return_acquire)
1266:./include/linux/atomic/atomic-arch-fallback.h **** 	return arch_atomic_dec_return_acquire(v);
1267:./include/linux/atomic/atomic-arch-fallback.h **** #elif defined(arch_atomic_dec_return_relaxed)
1268:./include/linux/atomic/atomic-arch-fallback.h **** 	int ret = arch_atomic_dec_return_relaxed(v);
1269:./include/linux/atomic/atomic-arch-fallback.h **** 	__atomic_acquire_fence();
1270:./include/linux/atomic/atomic-arch-fallback.h **** 	return ret;
1271:./include/linux/atomic/atomic-arch-fallback.h **** #elif defined(arch_atomic_dec_return)
1272:./include/linux/atomic/atomic-arch-fallback.h **** 	return arch_atomic_dec_return(v);
1273:./include/linux/atomic/atomic-arch-fallback.h **** #else
1274:./include/linux/atomic/atomic-arch-fallback.h **** 	return raw_atomic_sub_return_acquire(1, v);
1275:./include/linux/atomic/atomic-arch-fallback.h **** #endif
1276:./include/linux/atomic/atomic-arch-fallback.h **** }
1277:./include/linux/atomic/atomic-arch-fallback.h **** 
1278:./include/linux/atomic/atomic-arch-fallback.h **** /**
1279:./include/linux/atomic/atomic-arch-fallback.h ****  * raw_atomic_dec_return_release() - atomic decrement with release ordering
1280:./include/linux/atomic/atomic-arch-fallback.h ****  * @v: pointer to atomic_t
1281:./include/linux/atomic/atomic-arch-fallback.h ****  *
1282:./include/linux/atomic/atomic-arch-fallback.h ****  * Atomically updates @v to (@v - 1) with release ordering.
1283:./include/linux/atomic/atomic-arch-fallback.h ****  *
1284:./include/linux/atomic/atomic-arch-fallback.h ****  * Safe to use in noinstr code; prefer atomic_dec_return_release() elsewhere.
1285:./include/linux/atomic/atomic-arch-fallback.h ****  *
1286:./include/linux/atomic/atomic-arch-fallback.h ****  * Return: The updated value of @v.
1287:./include/linux/atomic/atomic-arch-fallback.h ****  */
1288:./include/linux/atomic/atomic-arch-fallback.h **** static __always_inline int
1289:./include/linux/atomic/atomic-arch-fallback.h **** raw_atomic_dec_return_release(atomic_t *v)
1290:./include/linux/atomic/atomic-arch-fallback.h **** {
1291:./include/linux/atomic/atomic-arch-fallback.h **** #if defined(arch_atomic_dec_return_release)
1292:./include/linux/atomic/atomic-arch-fallback.h **** 	return arch_atomic_dec_return_release(v);
1293:./include/linux/atomic/atomic-arch-fallback.h **** #elif defined(arch_atomic_dec_return_relaxed)
1294:./include/linux/atomic/atomic-arch-fallback.h **** 	__atomic_release_fence();
1295:./include/linux/atomic/atomic-arch-fallback.h **** 	return arch_atomic_dec_return_relaxed(v);
1296:./include/linux/atomic/atomic-arch-fallback.h **** #elif defined(arch_atomic_dec_return)
1297:./include/linux/atomic/atomic-arch-fallback.h **** 	return arch_atomic_dec_return(v);
1298:./include/linux/atomic/atomic-arch-fallback.h **** #else
1299:./include/linux/atomic/atomic-arch-fallback.h **** 	return raw_atomic_sub_return_release(1, v);
1300:./include/linux/atomic/atomic-arch-fallback.h **** #endif
1301:./include/linux/atomic/atomic-arch-fallback.h **** }
1302:./include/linux/atomic/atomic-arch-fallback.h **** 
1303:./include/linux/atomic/atomic-arch-fallback.h **** /**
ARM GAS  /tmp/ccnTZmpF.s 			page 112


1304:./include/linux/atomic/atomic-arch-fallback.h ****  * raw_atomic_dec_return_relaxed() - atomic decrement with relaxed ordering
1305:./include/linux/atomic/atomic-arch-fallback.h ****  * @v: pointer to atomic_t
1306:./include/linux/atomic/atomic-arch-fallback.h ****  *
1307:./include/linux/atomic/atomic-arch-fallback.h ****  * Atomically updates @v to (@v - 1) with relaxed ordering.
1308:./include/linux/atomic/atomic-arch-fallback.h ****  *
1309:./include/linux/atomic/atomic-arch-fallback.h ****  * Safe to use in noinstr code; prefer atomic_dec_return_relaxed() elsewhere.
1310:./include/linux/atomic/atomic-arch-fallback.h ****  *
1311:./include/linux/atomic/atomic-arch-fallback.h ****  * Return: The updated value of @v.
1312:./include/linux/atomic/atomic-arch-fallback.h ****  */
1313:./include/linux/atomic/atomic-arch-fallback.h **** static __always_inline int
1314:./include/linux/atomic/atomic-arch-fallback.h **** raw_atomic_dec_return_relaxed(atomic_t *v)
1315:./include/linux/atomic/atomic-arch-fallback.h **** {
1316:./include/linux/atomic/atomic-arch-fallback.h **** #if defined(arch_atomic_dec_return_relaxed)
1317:./include/linux/atomic/atomic-arch-fallback.h **** 	return arch_atomic_dec_return_relaxed(v);
1318:./include/linux/atomic/atomic-arch-fallback.h **** #elif defined(arch_atomic_dec_return)
1319:./include/linux/atomic/atomic-arch-fallback.h **** 	return arch_atomic_dec_return(v);
1320:./include/linux/atomic/atomic-arch-fallback.h **** #else
1321:./include/linux/atomic/atomic-arch-fallback.h **** 	return raw_atomic_sub_return_relaxed(1, v);
1322:./include/linux/atomic/atomic-arch-fallback.h **** #endif
1323:./include/linux/atomic/atomic-arch-fallback.h **** }
1324:./include/linux/atomic/atomic-arch-fallback.h **** 
1325:./include/linux/atomic/atomic-arch-fallback.h **** /**
1326:./include/linux/atomic/atomic-arch-fallback.h ****  * raw_atomic_fetch_dec() - atomic decrement with full ordering
1327:./include/linux/atomic/atomic-arch-fallback.h ****  * @v: pointer to atomic_t
1328:./include/linux/atomic/atomic-arch-fallback.h ****  *
1329:./include/linux/atomic/atomic-arch-fallback.h ****  * Atomically updates @v to (@v - 1) with full ordering.
1330:./include/linux/atomic/atomic-arch-fallback.h ****  *
1331:./include/linux/atomic/atomic-arch-fallback.h ****  * Safe to use in noinstr code; prefer atomic_fetch_dec() elsewhere.
1332:./include/linux/atomic/atomic-arch-fallback.h ****  *
1333:./include/linux/atomic/atomic-arch-fallback.h ****  * Return: The original value of @v.
1334:./include/linux/atomic/atomic-arch-fallback.h ****  */
1335:./include/linux/atomic/atomic-arch-fallback.h **** static __always_inline int
1336:./include/linux/atomic/atomic-arch-fallback.h **** raw_atomic_fetch_dec(atomic_t *v)
1337:./include/linux/atomic/atomic-arch-fallback.h **** {
1338:./include/linux/atomic/atomic-arch-fallback.h **** #if defined(arch_atomic_fetch_dec)
1339:./include/linux/atomic/atomic-arch-fallback.h **** 	return arch_atomic_fetch_dec(v);
1340:./include/linux/atomic/atomic-arch-fallback.h **** #elif defined(arch_atomic_fetch_dec_relaxed)
1341:./include/linux/atomic/atomic-arch-fallback.h **** 	int ret;
1342:./include/linux/atomic/atomic-arch-fallback.h **** 	__atomic_pre_full_fence();
1343:./include/linux/atomic/atomic-arch-fallback.h **** 	ret = arch_atomic_fetch_dec_relaxed(v);
1344:./include/linux/atomic/atomic-arch-fallback.h **** 	__atomic_post_full_fence();
1345:./include/linux/atomic/atomic-arch-fallback.h **** 	return ret;
1346:./include/linux/atomic/atomic-arch-fallback.h **** #else
1347:./include/linux/atomic/atomic-arch-fallback.h **** 	return raw_atomic_fetch_sub(1, v);
1348:./include/linux/atomic/atomic-arch-fallback.h **** #endif
1349:./include/linux/atomic/atomic-arch-fallback.h **** }
1350:./include/linux/atomic/atomic-arch-fallback.h **** 
1351:./include/linux/atomic/atomic-arch-fallback.h **** /**
1352:./include/linux/atomic/atomic-arch-fallback.h ****  * raw_atomic_fetch_dec_acquire() - atomic decrement with acquire ordering
1353:./include/linux/atomic/atomic-arch-fallback.h ****  * @v: pointer to atomic_t
1354:./include/linux/atomic/atomic-arch-fallback.h ****  *
1355:./include/linux/atomic/atomic-arch-fallback.h ****  * Atomically updates @v to (@v - 1) with acquire ordering.
1356:./include/linux/atomic/atomic-arch-fallback.h ****  *
1357:./include/linux/atomic/atomic-arch-fallback.h ****  * Safe to use in noinstr code; prefer atomic_fetch_dec_acquire() elsewhere.
1358:./include/linux/atomic/atomic-arch-fallback.h ****  *
1359:./include/linux/atomic/atomic-arch-fallback.h ****  * Return: The original value of @v.
1360:./include/linux/atomic/atomic-arch-fallback.h ****  */
ARM GAS  /tmp/ccnTZmpF.s 			page 113


1361:./include/linux/atomic/atomic-arch-fallback.h **** static __always_inline int
1362:./include/linux/atomic/atomic-arch-fallback.h **** raw_atomic_fetch_dec_acquire(atomic_t *v)
1363:./include/linux/atomic/atomic-arch-fallback.h **** {
1364:./include/linux/atomic/atomic-arch-fallback.h **** #if defined(arch_atomic_fetch_dec_acquire)
1365:./include/linux/atomic/atomic-arch-fallback.h **** 	return arch_atomic_fetch_dec_acquire(v);
1366:./include/linux/atomic/atomic-arch-fallback.h **** #elif defined(arch_atomic_fetch_dec_relaxed)
1367:./include/linux/atomic/atomic-arch-fallback.h **** 	int ret = arch_atomic_fetch_dec_relaxed(v);
1368:./include/linux/atomic/atomic-arch-fallback.h **** 	__atomic_acquire_fence();
1369:./include/linux/atomic/atomic-arch-fallback.h **** 	return ret;
1370:./include/linux/atomic/atomic-arch-fallback.h **** #elif defined(arch_atomic_fetch_dec)
1371:./include/linux/atomic/atomic-arch-fallback.h **** 	return arch_atomic_fetch_dec(v);
1372:./include/linux/atomic/atomic-arch-fallback.h **** #else
1373:./include/linux/atomic/atomic-arch-fallback.h **** 	return raw_atomic_fetch_sub_acquire(1, v);
1374:./include/linux/atomic/atomic-arch-fallback.h **** #endif
1375:./include/linux/atomic/atomic-arch-fallback.h **** }
1376:./include/linux/atomic/atomic-arch-fallback.h **** 
1377:./include/linux/atomic/atomic-arch-fallback.h **** /**
1378:./include/linux/atomic/atomic-arch-fallback.h ****  * raw_atomic_fetch_dec_release() - atomic decrement with release ordering
1379:./include/linux/atomic/atomic-arch-fallback.h ****  * @v: pointer to atomic_t
1380:./include/linux/atomic/atomic-arch-fallback.h ****  *
1381:./include/linux/atomic/atomic-arch-fallback.h ****  * Atomically updates @v to (@v - 1) with release ordering.
1382:./include/linux/atomic/atomic-arch-fallback.h ****  *
1383:./include/linux/atomic/atomic-arch-fallback.h ****  * Safe to use in noinstr code; prefer atomic_fetch_dec_release() elsewhere.
1384:./include/linux/atomic/atomic-arch-fallback.h ****  *
1385:./include/linux/atomic/atomic-arch-fallback.h ****  * Return: The original value of @v.
1386:./include/linux/atomic/atomic-arch-fallback.h ****  */
1387:./include/linux/atomic/atomic-arch-fallback.h **** static __always_inline int
1388:./include/linux/atomic/atomic-arch-fallback.h **** raw_atomic_fetch_dec_release(atomic_t *v)
1389:./include/linux/atomic/atomic-arch-fallback.h **** {
1390:./include/linux/atomic/atomic-arch-fallback.h **** #if defined(arch_atomic_fetch_dec_release)
1391:./include/linux/atomic/atomic-arch-fallback.h **** 	return arch_atomic_fetch_dec_release(v);
1392:./include/linux/atomic/atomic-arch-fallback.h **** #elif defined(arch_atomic_fetch_dec_relaxed)
1393:./include/linux/atomic/atomic-arch-fallback.h **** 	__atomic_release_fence();
1394:./include/linux/atomic/atomic-arch-fallback.h **** 	return arch_atomic_fetch_dec_relaxed(v);
1395:./include/linux/atomic/atomic-arch-fallback.h **** #elif defined(arch_atomic_fetch_dec)
1396:./include/linux/atomic/atomic-arch-fallback.h **** 	return arch_atomic_fetch_dec(v);
1397:./include/linux/atomic/atomic-arch-fallback.h **** #else
1398:./include/linux/atomic/atomic-arch-fallback.h **** 	return raw_atomic_fetch_sub_release(1, v);
1399:./include/linux/atomic/atomic-arch-fallback.h **** #endif
1400:./include/linux/atomic/atomic-arch-fallback.h **** }
1401:./include/linux/atomic/atomic-arch-fallback.h **** 
1402:./include/linux/atomic/atomic-arch-fallback.h **** /**
1403:./include/linux/atomic/atomic-arch-fallback.h ****  * raw_atomic_fetch_dec_relaxed() - atomic decrement with relaxed ordering
1404:./include/linux/atomic/atomic-arch-fallback.h ****  * @v: pointer to atomic_t
1405:./include/linux/atomic/atomic-arch-fallback.h ****  *
1406:./include/linux/atomic/atomic-arch-fallback.h ****  * Atomically updates @v to (@v - 1) with relaxed ordering.
1407:./include/linux/atomic/atomic-arch-fallback.h ****  *
1408:./include/linux/atomic/atomic-arch-fallback.h ****  * Safe to use in noinstr code; prefer atomic_fetch_dec_relaxed() elsewhere.
1409:./include/linux/atomic/atomic-arch-fallback.h ****  *
1410:./include/linux/atomic/atomic-arch-fallback.h ****  * Return: The original value of @v.
1411:./include/linux/atomic/atomic-arch-fallback.h ****  */
1412:./include/linux/atomic/atomic-arch-fallback.h **** static __always_inline int
1413:./include/linux/atomic/atomic-arch-fallback.h **** raw_atomic_fetch_dec_relaxed(atomic_t *v)
1414:./include/linux/atomic/atomic-arch-fallback.h **** {
1415:./include/linux/atomic/atomic-arch-fallback.h **** #if defined(arch_atomic_fetch_dec_relaxed)
1416:./include/linux/atomic/atomic-arch-fallback.h **** 	return arch_atomic_fetch_dec_relaxed(v);
1417:./include/linux/atomic/atomic-arch-fallback.h **** #elif defined(arch_atomic_fetch_dec)
ARM GAS  /tmp/ccnTZmpF.s 			page 114


1418:./include/linux/atomic/atomic-arch-fallback.h **** 	return arch_atomic_fetch_dec(v);
1419:./include/linux/atomic/atomic-arch-fallback.h **** #else
1420:./include/linux/atomic/atomic-arch-fallback.h **** 	return raw_atomic_fetch_sub_relaxed(1, v);
1421:./include/linux/atomic/atomic-arch-fallback.h **** #endif
1422:./include/linux/atomic/atomic-arch-fallback.h **** }
1423:./include/linux/atomic/atomic-arch-fallback.h **** 
1424:./include/linux/atomic/atomic-arch-fallback.h **** /**
1425:./include/linux/atomic/atomic-arch-fallback.h ****  * raw_atomic_and() - atomic bitwise AND with relaxed ordering
1426:./include/linux/atomic/atomic-arch-fallback.h ****  * @i: int value
1427:./include/linux/atomic/atomic-arch-fallback.h ****  * @v: pointer to atomic_t
1428:./include/linux/atomic/atomic-arch-fallback.h ****  *
1429:./include/linux/atomic/atomic-arch-fallback.h ****  * Atomically updates @v to (@v & @i) with relaxed ordering.
1430:./include/linux/atomic/atomic-arch-fallback.h ****  *
1431:./include/linux/atomic/atomic-arch-fallback.h ****  * Safe to use in noinstr code; prefer atomic_and() elsewhere.
1432:./include/linux/atomic/atomic-arch-fallback.h ****  *
1433:./include/linux/atomic/atomic-arch-fallback.h ****  * Return: Nothing.
1434:./include/linux/atomic/atomic-arch-fallback.h ****  */
1435:./include/linux/atomic/atomic-arch-fallback.h **** static __always_inline void
1436:./include/linux/atomic/atomic-arch-fallback.h **** raw_atomic_and(int i, atomic_t *v)
1437:./include/linux/atomic/atomic-arch-fallback.h **** {
1438:./include/linux/atomic/atomic-arch-fallback.h **** 	arch_atomic_and(i, v);
1439:./include/linux/atomic/atomic-arch-fallback.h **** }
1440:./include/linux/atomic/atomic-arch-fallback.h **** 
1441:./include/linux/atomic/atomic-arch-fallback.h **** /**
1442:./include/linux/atomic/atomic-arch-fallback.h ****  * raw_atomic_fetch_and() - atomic bitwise AND with full ordering
1443:./include/linux/atomic/atomic-arch-fallback.h ****  * @i: int value
1444:./include/linux/atomic/atomic-arch-fallback.h ****  * @v: pointer to atomic_t
1445:./include/linux/atomic/atomic-arch-fallback.h ****  *
1446:./include/linux/atomic/atomic-arch-fallback.h ****  * Atomically updates @v to (@v & @i) with full ordering.
1447:./include/linux/atomic/atomic-arch-fallback.h ****  *
1448:./include/linux/atomic/atomic-arch-fallback.h ****  * Safe to use in noinstr code; prefer atomic_fetch_and() elsewhere.
1449:./include/linux/atomic/atomic-arch-fallback.h ****  *
1450:./include/linux/atomic/atomic-arch-fallback.h ****  * Return: The original value of @v.
1451:./include/linux/atomic/atomic-arch-fallback.h ****  */
1452:./include/linux/atomic/atomic-arch-fallback.h **** static __always_inline int
1453:./include/linux/atomic/atomic-arch-fallback.h **** raw_atomic_fetch_and(int i, atomic_t *v)
1454:./include/linux/atomic/atomic-arch-fallback.h **** {
1455:./include/linux/atomic/atomic-arch-fallback.h **** #if defined(arch_atomic_fetch_and)
1456:./include/linux/atomic/atomic-arch-fallback.h **** 	return arch_atomic_fetch_and(i, v);
1457:./include/linux/atomic/atomic-arch-fallback.h **** #elif defined(arch_atomic_fetch_and_relaxed)
1458:./include/linux/atomic/atomic-arch-fallback.h **** 	int ret;
1459:./include/linux/atomic/atomic-arch-fallback.h **** 	__atomic_pre_full_fence();
1460:./include/linux/atomic/atomic-arch-fallback.h **** 	ret = arch_atomic_fetch_and_relaxed(i, v);
1461:./include/linux/atomic/atomic-arch-fallback.h **** 	__atomic_post_full_fence();
1462:./include/linux/atomic/atomic-arch-fallback.h **** 	return ret;
1463:./include/linux/atomic/atomic-arch-fallback.h **** #else
1464:./include/linux/atomic/atomic-arch-fallback.h **** #error "Unable to define raw_atomic_fetch_and"
1465:./include/linux/atomic/atomic-arch-fallback.h **** #endif
1466:./include/linux/atomic/atomic-arch-fallback.h **** }
1467:./include/linux/atomic/atomic-arch-fallback.h **** 
1468:./include/linux/atomic/atomic-arch-fallback.h **** /**
1469:./include/linux/atomic/atomic-arch-fallback.h ****  * raw_atomic_fetch_and_acquire() - atomic bitwise AND with acquire ordering
1470:./include/linux/atomic/atomic-arch-fallback.h ****  * @i: int value
1471:./include/linux/atomic/atomic-arch-fallback.h ****  * @v: pointer to atomic_t
1472:./include/linux/atomic/atomic-arch-fallback.h ****  *
1473:./include/linux/atomic/atomic-arch-fallback.h ****  * Atomically updates @v to (@v & @i) with acquire ordering.
1474:./include/linux/atomic/atomic-arch-fallback.h ****  *
ARM GAS  /tmp/ccnTZmpF.s 			page 115


1475:./include/linux/atomic/atomic-arch-fallback.h ****  * Safe to use in noinstr code; prefer atomic_fetch_and_acquire() elsewhere.
1476:./include/linux/atomic/atomic-arch-fallback.h ****  *
1477:./include/linux/atomic/atomic-arch-fallback.h ****  * Return: The original value of @v.
1478:./include/linux/atomic/atomic-arch-fallback.h ****  */
1479:./include/linux/atomic/atomic-arch-fallback.h **** static __always_inline int
1480:./include/linux/atomic/atomic-arch-fallback.h **** raw_atomic_fetch_and_acquire(int i, atomic_t *v)
1481:./include/linux/atomic/atomic-arch-fallback.h **** {
1482:./include/linux/atomic/atomic-arch-fallback.h **** #if defined(arch_atomic_fetch_and_acquire)
1483:./include/linux/atomic/atomic-arch-fallback.h **** 	return arch_atomic_fetch_and_acquire(i, v);
1484:./include/linux/atomic/atomic-arch-fallback.h **** #elif defined(arch_atomic_fetch_and_relaxed)
1485:./include/linux/atomic/atomic-arch-fallback.h **** 	int ret = arch_atomic_fetch_and_relaxed(i, v);
1486:./include/linux/atomic/atomic-arch-fallback.h **** 	__atomic_acquire_fence();
1487:./include/linux/atomic/atomic-arch-fallback.h **** 	return ret;
1488:./include/linux/atomic/atomic-arch-fallback.h **** #elif defined(arch_atomic_fetch_and)
1489:./include/linux/atomic/atomic-arch-fallback.h **** 	return arch_atomic_fetch_and(i, v);
1490:./include/linux/atomic/atomic-arch-fallback.h **** #else
1491:./include/linux/atomic/atomic-arch-fallback.h **** #error "Unable to define raw_atomic_fetch_and_acquire"
1492:./include/linux/atomic/atomic-arch-fallback.h **** #endif
1493:./include/linux/atomic/atomic-arch-fallback.h **** }
1494:./include/linux/atomic/atomic-arch-fallback.h **** 
1495:./include/linux/atomic/atomic-arch-fallback.h **** /**
1496:./include/linux/atomic/atomic-arch-fallback.h ****  * raw_atomic_fetch_and_release() - atomic bitwise AND with release ordering
1497:./include/linux/atomic/atomic-arch-fallback.h ****  * @i: int value
1498:./include/linux/atomic/atomic-arch-fallback.h ****  * @v: pointer to atomic_t
1499:./include/linux/atomic/atomic-arch-fallback.h ****  *
1500:./include/linux/atomic/atomic-arch-fallback.h ****  * Atomically updates @v to (@v & @i) with release ordering.
1501:./include/linux/atomic/atomic-arch-fallback.h ****  *
1502:./include/linux/atomic/atomic-arch-fallback.h ****  * Safe to use in noinstr code; prefer atomic_fetch_and_release() elsewhere.
1503:./include/linux/atomic/atomic-arch-fallback.h ****  *
1504:./include/linux/atomic/atomic-arch-fallback.h ****  * Return: The original value of @v.
1505:./include/linux/atomic/atomic-arch-fallback.h ****  */
1506:./include/linux/atomic/atomic-arch-fallback.h **** static __always_inline int
1507:./include/linux/atomic/atomic-arch-fallback.h **** raw_atomic_fetch_and_release(int i, atomic_t *v)
1508:./include/linux/atomic/atomic-arch-fallback.h **** {
1509:./include/linux/atomic/atomic-arch-fallback.h **** #if defined(arch_atomic_fetch_and_release)
1510:./include/linux/atomic/atomic-arch-fallback.h **** 	return arch_atomic_fetch_and_release(i, v);
1511:./include/linux/atomic/atomic-arch-fallback.h **** #elif defined(arch_atomic_fetch_and_relaxed)
1512:./include/linux/atomic/atomic-arch-fallback.h **** 	__atomic_release_fence();
1513:./include/linux/atomic/atomic-arch-fallback.h **** 	return arch_atomic_fetch_and_relaxed(i, v);
1514:./include/linux/atomic/atomic-arch-fallback.h **** #elif defined(arch_atomic_fetch_and)
1515:./include/linux/atomic/atomic-arch-fallback.h **** 	return arch_atomic_fetch_and(i, v);
1516:./include/linux/atomic/atomic-arch-fallback.h **** #else
1517:./include/linux/atomic/atomic-arch-fallback.h **** #error "Unable to define raw_atomic_fetch_and_release"
1518:./include/linux/atomic/atomic-arch-fallback.h **** #endif
1519:./include/linux/atomic/atomic-arch-fallback.h **** }
1520:./include/linux/atomic/atomic-arch-fallback.h **** 
1521:./include/linux/atomic/atomic-arch-fallback.h **** /**
1522:./include/linux/atomic/atomic-arch-fallback.h ****  * raw_atomic_fetch_and_relaxed() - atomic bitwise AND with relaxed ordering
1523:./include/linux/atomic/atomic-arch-fallback.h ****  * @i: int value
1524:./include/linux/atomic/atomic-arch-fallback.h ****  * @v: pointer to atomic_t
1525:./include/linux/atomic/atomic-arch-fallback.h ****  *
1526:./include/linux/atomic/atomic-arch-fallback.h ****  * Atomically updates @v to (@v & @i) with relaxed ordering.
1527:./include/linux/atomic/atomic-arch-fallback.h ****  *
1528:./include/linux/atomic/atomic-arch-fallback.h ****  * Safe to use in noinstr code; prefer atomic_fetch_and_relaxed() elsewhere.
1529:./include/linux/atomic/atomic-arch-fallback.h ****  *
1530:./include/linux/atomic/atomic-arch-fallback.h ****  * Return: The original value of @v.
1531:./include/linux/atomic/atomic-arch-fallback.h ****  */
ARM GAS  /tmp/ccnTZmpF.s 			page 116


1532:./include/linux/atomic/atomic-arch-fallback.h **** static __always_inline int
1533:./include/linux/atomic/atomic-arch-fallback.h **** raw_atomic_fetch_and_relaxed(int i, atomic_t *v)
1534:./include/linux/atomic/atomic-arch-fallback.h **** {
1535:./include/linux/atomic/atomic-arch-fallback.h **** #if defined(arch_atomic_fetch_and_relaxed)
1536:./include/linux/atomic/atomic-arch-fallback.h **** 	return arch_atomic_fetch_and_relaxed(i, v);
1537:./include/linux/atomic/atomic-arch-fallback.h **** #elif defined(arch_atomic_fetch_and)
1538:./include/linux/atomic/atomic-arch-fallback.h **** 	return arch_atomic_fetch_and(i, v);
1539:./include/linux/atomic/atomic-arch-fallback.h **** #else
1540:./include/linux/atomic/atomic-arch-fallback.h **** #error "Unable to define raw_atomic_fetch_and_relaxed"
1541:./include/linux/atomic/atomic-arch-fallback.h **** #endif
1542:./include/linux/atomic/atomic-arch-fallback.h **** }
1543:./include/linux/atomic/atomic-arch-fallback.h **** 
1544:./include/linux/atomic/atomic-arch-fallback.h **** /**
1545:./include/linux/atomic/atomic-arch-fallback.h ****  * raw_atomic_andnot() - atomic bitwise AND NOT with relaxed ordering
1546:./include/linux/atomic/atomic-arch-fallback.h ****  * @i: int value
1547:./include/linux/atomic/atomic-arch-fallback.h ****  * @v: pointer to atomic_t
1548:./include/linux/atomic/atomic-arch-fallback.h ****  *
1549:./include/linux/atomic/atomic-arch-fallback.h ****  * Atomically updates @v to (@v & ~@i) with relaxed ordering.
1550:./include/linux/atomic/atomic-arch-fallback.h ****  *
1551:./include/linux/atomic/atomic-arch-fallback.h ****  * Safe to use in noinstr code; prefer atomic_andnot() elsewhere.
1552:./include/linux/atomic/atomic-arch-fallback.h ****  *
1553:./include/linux/atomic/atomic-arch-fallback.h ****  * Return: Nothing.
1554:./include/linux/atomic/atomic-arch-fallback.h ****  */
1555:./include/linux/atomic/atomic-arch-fallback.h **** static __always_inline void
1556:./include/linux/atomic/atomic-arch-fallback.h **** raw_atomic_andnot(int i, atomic_t *v)
1557:./include/linux/atomic/atomic-arch-fallback.h **** {
1558:./include/linux/atomic/atomic-arch-fallback.h **** #if defined(arch_atomic_andnot)
1559:./include/linux/atomic/atomic-arch-fallback.h **** 	arch_atomic_andnot(i, v);
1560:./include/linux/atomic/atomic-arch-fallback.h **** #else
1561:./include/linux/atomic/atomic-arch-fallback.h **** 	raw_atomic_and(~i, v);
1562:./include/linux/atomic/atomic-arch-fallback.h **** #endif
1563:./include/linux/atomic/atomic-arch-fallback.h **** }
1564:./include/linux/atomic/atomic-arch-fallback.h **** 
1565:./include/linux/atomic/atomic-arch-fallback.h **** /**
1566:./include/linux/atomic/atomic-arch-fallback.h ****  * raw_atomic_fetch_andnot() - atomic bitwise AND NOT with full ordering
1567:./include/linux/atomic/atomic-arch-fallback.h ****  * @i: int value
1568:./include/linux/atomic/atomic-arch-fallback.h ****  * @v: pointer to atomic_t
1569:./include/linux/atomic/atomic-arch-fallback.h ****  *
1570:./include/linux/atomic/atomic-arch-fallback.h ****  * Atomically updates @v to (@v & ~@i) with full ordering.
1571:./include/linux/atomic/atomic-arch-fallback.h ****  *
1572:./include/linux/atomic/atomic-arch-fallback.h ****  * Safe to use in noinstr code; prefer atomic_fetch_andnot() elsewhere.
1573:./include/linux/atomic/atomic-arch-fallback.h ****  *
1574:./include/linux/atomic/atomic-arch-fallback.h ****  * Return: The original value of @v.
1575:./include/linux/atomic/atomic-arch-fallback.h ****  */
1576:./include/linux/atomic/atomic-arch-fallback.h **** static __always_inline int
1577:./include/linux/atomic/atomic-arch-fallback.h **** raw_atomic_fetch_andnot(int i, atomic_t *v)
1578:./include/linux/atomic/atomic-arch-fallback.h **** {
1579:./include/linux/atomic/atomic-arch-fallback.h **** #if defined(arch_atomic_fetch_andnot)
1580:./include/linux/atomic/atomic-arch-fallback.h **** 	return arch_atomic_fetch_andnot(i, v);
1581:./include/linux/atomic/atomic-arch-fallback.h **** #elif defined(arch_atomic_fetch_andnot_relaxed)
1582:./include/linux/atomic/atomic-arch-fallback.h **** 	int ret;
1583:./include/linux/atomic/atomic-arch-fallback.h **** 	__atomic_pre_full_fence();
1584:./include/linux/atomic/atomic-arch-fallback.h **** 	ret = arch_atomic_fetch_andnot_relaxed(i, v);
1585:./include/linux/atomic/atomic-arch-fallback.h **** 	__atomic_post_full_fence();
1586:./include/linux/atomic/atomic-arch-fallback.h **** 	return ret;
1587:./include/linux/atomic/atomic-arch-fallback.h **** #else
1588:./include/linux/atomic/atomic-arch-fallback.h **** 	return raw_atomic_fetch_and(~i, v);
ARM GAS  /tmp/ccnTZmpF.s 			page 117


1589:./include/linux/atomic/atomic-arch-fallback.h **** #endif
1590:./include/linux/atomic/atomic-arch-fallback.h **** }
1591:./include/linux/atomic/atomic-arch-fallback.h **** 
1592:./include/linux/atomic/atomic-arch-fallback.h **** /**
1593:./include/linux/atomic/atomic-arch-fallback.h ****  * raw_atomic_fetch_andnot_acquire() - atomic bitwise AND NOT with acquire ordering
1594:./include/linux/atomic/atomic-arch-fallback.h ****  * @i: int value
1595:./include/linux/atomic/atomic-arch-fallback.h ****  * @v: pointer to atomic_t
1596:./include/linux/atomic/atomic-arch-fallback.h ****  *
1597:./include/linux/atomic/atomic-arch-fallback.h ****  * Atomically updates @v to (@v & ~@i) with acquire ordering.
1598:./include/linux/atomic/atomic-arch-fallback.h ****  *
1599:./include/linux/atomic/atomic-arch-fallback.h ****  * Safe to use in noinstr code; prefer atomic_fetch_andnot_acquire() elsewhere.
1600:./include/linux/atomic/atomic-arch-fallback.h ****  *
1601:./include/linux/atomic/atomic-arch-fallback.h ****  * Return: The original value of @v.
1602:./include/linux/atomic/atomic-arch-fallback.h ****  */
1603:./include/linux/atomic/atomic-arch-fallback.h **** static __always_inline int
1604:./include/linux/atomic/atomic-arch-fallback.h **** raw_atomic_fetch_andnot_acquire(int i, atomic_t *v)
1605:./include/linux/atomic/atomic-arch-fallback.h **** {
1606:./include/linux/atomic/atomic-arch-fallback.h **** #if defined(arch_atomic_fetch_andnot_acquire)
1607:./include/linux/atomic/atomic-arch-fallback.h **** 	return arch_atomic_fetch_andnot_acquire(i, v);
1608:./include/linux/atomic/atomic-arch-fallback.h **** #elif defined(arch_atomic_fetch_andnot_relaxed)
1609:./include/linux/atomic/atomic-arch-fallback.h **** 	int ret = arch_atomic_fetch_andnot_relaxed(i, v);
1610:./include/linux/atomic/atomic-arch-fallback.h **** 	__atomic_acquire_fence();
1611:./include/linux/atomic/atomic-arch-fallback.h **** 	return ret;
1612:./include/linux/atomic/atomic-arch-fallback.h **** #elif defined(arch_atomic_fetch_andnot)
1613:./include/linux/atomic/atomic-arch-fallback.h **** 	return arch_atomic_fetch_andnot(i, v);
1614:./include/linux/atomic/atomic-arch-fallback.h **** #else
1615:./include/linux/atomic/atomic-arch-fallback.h **** 	return raw_atomic_fetch_and_acquire(~i, v);
1616:./include/linux/atomic/atomic-arch-fallback.h **** #endif
1617:./include/linux/atomic/atomic-arch-fallback.h **** }
1618:./include/linux/atomic/atomic-arch-fallback.h **** 
1619:./include/linux/atomic/atomic-arch-fallback.h **** /**
1620:./include/linux/atomic/atomic-arch-fallback.h ****  * raw_atomic_fetch_andnot_release() - atomic bitwise AND NOT with release ordering
1621:./include/linux/atomic/atomic-arch-fallback.h ****  * @i: int value
1622:./include/linux/atomic/atomic-arch-fallback.h ****  * @v: pointer to atomic_t
1623:./include/linux/atomic/atomic-arch-fallback.h ****  *
1624:./include/linux/atomic/atomic-arch-fallback.h ****  * Atomically updates @v to (@v & ~@i) with release ordering.
1625:./include/linux/atomic/atomic-arch-fallback.h ****  *
1626:./include/linux/atomic/atomic-arch-fallback.h ****  * Safe to use in noinstr code; prefer atomic_fetch_andnot_release() elsewhere.
1627:./include/linux/atomic/atomic-arch-fallback.h ****  *
1628:./include/linux/atomic/atomic-arch-fallback.h ****  * Return: The original value of @v.
1629:./include/linux/atomic/atomic-arch-fallback.h ****  */
1630:./include/linux/atomic/atomic-arch-fallback.h **** static __always_inline int
1631:./include/linux/atomic/atomic-arch-fallback.h **** raw_atomic_fetch_andnot_release(int i, atomic_t *v)
1632:./include/linux/atomic/atomic-arch-fallback.h **** {
1633:./include/linux/atomic/atomic-arch-fallback.h **** #if defined(arch_atomic_fetch_andnot_release)
1634:./include/linux/atomic/atomic-arch-fallback.h **** 	return arch_atomic_fetch_andnot_release(i, v);
1635:./include/linux/atomic/atomic-arch-fallback.h **** #elif defined(arch_atomic_fetch_andnot_relaxed)
1636:./include/linux/atomic/atomic-arch-fallback.h **** 	__atomic_release_fence();
1637:./include/linux/atomic/atomic-arch-fallback.h **** 	return arch_atomic_fetch_andnot_relaxed(i, v);
1638:./include/linux/atomic/atomic-arch-fallback.h **** #elif defined(arch_atomic_fetch_andnot)
1639:./include/linux/atomic/atomic-arch-fallback.h **** 	return arch_atomic_fetch_andnot(i, v);
1640:./include/linux/atomic/atomic-arch-fallback.h **** #else
1641:./include/linux/atomic/atomic-arch-fallback.h **** 	return raw_atomic_fetch_and_release(~i, v);
1642:./include/linux/atomic/atomic-arch-fallback.h **** #endif
1643:./include/linux/atomic/atomic-arch-fallback.h **** }
1644:./include/linux/atomic/atomic-arch-fallback.h **** 
1645:./include/linux/atomic/atomic-arch-fallback.h **** /**
ARM GAS  /tmp/ccnTZmpF.s 			page 118


1646:./include/linux/atomic/atomic-arch-fallback.h ****  * raw_atomic_fetch_andnot_relaxed() - atomic bitwise AND NOT with relaxed ordering
1647:./include/linux/atomic/atomic-arch-fallback.h ****  * @i: int value
1648:./include/linux/atomic/atomic-arch-fallback.h ****  * @v: pointer to atomic_t
1649:./include/linux/atomic/atomic-arch-fallback.h ****  *
1650:./include/linux/atomic/atomic-arch-fallback.h ****  * Atomically updates @v to (@v & ~@i) with relaxed ordering.
1651:./include/linux/atomic/atomic-arch-fallback.h ****  *
1652:./include/linux/atomic/atomic-arch-fallback.h ****  * Safe to use in noinstr code; prefer atomic_fetch_andnot_relaxed() elsewhere.
1653:./include/linux/atomic/atomic-arch-fallback.h ****  *
1654:./include/linux/atomic/atomic-arch-fallback.h ****  * Return: The original value of @v.
1655:./include/linux/atomic/atomic-arch-fallback.h ****  */
1656:./include/linux/atomic/atomic-arch-fallback.h **** static __always_inline int
1657:./include/linux/atomic/atomic-arch-fallback.h **** raw_atomic_fetch_andnot_relaxed(int i, atomic_t *v)
1658:./include/linux/atomic/atomic-arch-fallback.h **** {
1659:./include/linux/atomic/atomic-arch-fallback.h **** #if defined(arch_atomic_fetch_andnot_relaxed)
1660:./include/linux/atomic/atomic-arch-fallback.h **** 	return arch_atomic_fetch_andnot_relaxed(i, v);
1661:./include/linux/atomic/atomic-arch-fallback.h **** #elif defined(arch_atomic_fetch_andnot)
1662:./include/linux/atomic/atomic-arch-fallback.h **** 	return arch_atomic_fetch_andnot(i, v);
1663:./include/linux/atomic/atomic-arch-fallback.h **** #else
1664:./include/linux/atomic/atomic-arch-fallback.h **** 	return raw_atomic_fetch_and_relaxed(~i, v);
1665:./include/linux/atomic/atomic-arch-fallback.h **** #endif
1666:./include/linux/atomic/atomic-arch-fallback.h **** }
1667:./include/linux/atomic/atomic-arch-fallback.h **** 
1668:./include/linux/atomic/atomic-arch-fallback.h **** /**
1669:./include/linux/atomic/atomic-arch-fallback.h ****  * raw_atomic_or() - atomic bitwise OR with relaxed ordering
1670:./include/linux/atomic/atomic-arch-fallback.h ****  * @i: int value
1671:./include/linux/atomic/atomic-arch-fallback.h ****  * @v: pointer to atomic_t
1672:./include/linux/atomic/atomic-arch-fallback.h ****  *
1673:./include/linux/atomic/atomic-arch-fallback.h ****  * Atomically updates @v to (@v | @i) with relaxed ordering.
1674:./include/linux/atomic/atomic-arch-fallback.h ****  *
1675:./include/linux/atomic/atomic-arch-fallback.h ****  * Safe to use in noinstr code; prefer atomic_or() elsewhere.
1676:./include/linux/atomic/atomic-arch-fallback.h ****  *
1677:./include/linux/atomic/atomic-arch-fallback.h ****  * Return: Nothing.
1678:./include/linux/atomic/atomic-arch-fallback.h ****  */
1679:./include/linux/atomic/atomic-arch-fallback.h **** static __always_inline void
1680:./include/linux/atomic/atomic-arch-fallback.h **** raw_atomic_or(int i, atomic_t *v)
1681:./include/linux/atomic/atomic-arch-fallback.h **** {
1682:./include/linux/atomic/atomic-arch-fallback.h **** 	arch_atomic_or(i, v);
1683:./include/linux/atomic/atomic-arch-fallback.h **** }
1684:./include/linux/atomic/atomic-arch-fallback.h **** 
1685:./include/linux/atomic/atomic-arch-fallback.h **** /**
1686:./include/linux/atomic/atomic-arch-fallback.h ****  * raw_atomic_fetch_or() - atomic bitwise OR with full ordering
1687:./include/linux/atomic/atomic-arch-fallback.h ****  * @i: int value
1688:./include/linux/atomic/atomic-arch-fallback.h ****  * @v: pointer to atomic_t
1689:./include/linux/atomic/atomic-arch-fallback.h ****  *
1690:./include/linux/atomic/atomic-arch-fallback.h ****  * Atomically updates @v to (@v | @i) with full ordering.
1691:./include/linux/atomic/atomic-arch-fallback.h ****  *
1692:./include/linux/atomic/atomic-arch-fallback.h ****  * Safe to use in noinstr code; prefer atomic_fetch_or() elsewhere.
1693:./include/linux/atomic/atomic-arch-fallback.h ****  *
1694:./include/linux/atomic/atomic-arch-fallback.h ****  * Return: The original value of @v.
1695:./include/linux/atomic/atomic-arch-fallback.h ****  */
1696:./include/linux/atomic/atomic-arch-fallback.h **** static __always_inline int
1697:./include/linux/atomic/atomic-arch-fallback.h **** raw_atomic_fetch_or(int i, atomic_t *v)
1698:./include/linux/atomic/atomic-arch-fallback.h **** {
1699:./include/linux/atomic/atomic-arch-fallback.h **** #if defined(arch_atomic_fetch_or)
1700:./include/linux/atomic/atomic-arch-fallback.h **** 	return arch_atomic_fetch_or(i, v);
1701:./include/linux/atomic/atomic-arch-fallback.h **** #elif defined(arch_atomic_fetch_or_relaxed)
1702:./include/linux/atomic/atomic-arch-fallback.h **** 	int ret;
ARM GAS  /tmp/ccnTZmpF.s 			page 119


1703:./include/linux/atomic/atomic-arch-fallback.h **** 	__atomic_pre_full_fence();
1704:./include/linux/atomic/atomic-arch-fallback.h **** 	ret = arch_atomic_fetch_or_relaxed(i, v);
1705:./include/linux/atomic/atomic-arch-fallback.h **** 	__atomic_post_full_fence();
1706:./include/linux/atomic/atomic-arch-fallback.h **** 	return ret;
1707:./include/linux/atomic/atomic-arch-fallback.h **** #else
1708:./include/linux/atomic/atomic-arch-fallback.h **** #error "Unable to define raw_atomic_fetch_or"
1709:./include/linux/atomic/atomic-arch-fallback.h **** #endif
1710:./include/linux/atomic/atomic-arch-fallback.h **** }
1711:./include/linux/atomic/atomic-arch-fallback.h **** 
1712:./include/linux/atomic/atomic-arch-fallback.h **** /**
1713:./include/linux/atomic/atomic-arch-fallback.h ****  * raw_atomic_fetch_or_acquire() - atomic bitwise OR with acquire ordering
1714:./include/linux/atomic/atomic-arch-fallback.h ****  * @i: int value
1715:./include/linux/atomic/atomic-arch-fallback.h ****  * @v: pointer to atomic_t
1716:./include/linux/atomic/atomic-arch-fallback.h ****  *
1717:./include/linux/atomic/atomic-arch-fallback.h ****  * Atomically updates @v to (@v | @i) with acquire ordering.
1718:./include/linux/atomic/atomic-arch-fallback.h ****  *
1719:./include/linux/atomic/atomic-arch-fallback.h ****  * Safe to use in noinstr code; prefer atomic_fetch_or_acquire() elsewhere.
1720:./include/linux/atomic/atomic-arch-fallback.h ****  *
1721:./include/linux/atomic/atomic-arch-fallback.h ****  * Return: The original value of @v.
1722:./include/linux/atomic/atomic-arch-fallback.h ****  */
1723:./include/linux/atomic/atomic-arch-fallback.h **** static __always_inline int
1724:./include/linux/atomic/atomic-arch-fallback.h **** raw_atomic_fetch_or_acquire(int i, atomic_t *v)
1725:./include/linux/atomic/atomic-arch-fallback.h **** {
1726:./include/linux/atomic/atomic-arch-fallback.h **** #if defined(arch_atomic_fetch_or_acquire)
1727:./include/linux/atomic/atomic-arch-fallback.h **** 	return arch_atomic_fetch_or_acquire(i, v);
1728:./include/linux/atomic/atomic-arch-fallback.h **** #elif defined(arch_atomic_fetch_or_relaxed)
1729:./include/linux/atomic/atomic-arch-fallback.h **** 	int ret = arch_atomic_fetch_or_relaxed(i, v);
1730:./include/linux/atomic/atomic-arch-fallback.h **** 	__atomic_acquire_fence();
1731:./include/linux/atomic/atomic-arch-fallback.h **** 	return ret;
1732:./include/linux/atomic/atomic-arch-fallback.h **** #elif defined(arch_atomic_fetch_or)
1733:./include/linux/atomic/atomic-arch-fallback.h **** 	return arch_atomic_fetch_or(i, v);
1734:./include/linux/atomic/atomic-arch-fallback.h **** #else
1735:./include/linux/atomic/atomic-arch-fallback.h **** #error "Unable to define raw_atomic_fetch_or_acquire"
1736:./include/linux/atomic/atomic-arch-fallback.h **** #endif
1737:./include/linux/atomic/atomic-arch-fallback.h **** }
1738:./include/linux/atomic/atomic-arch-fallback.h **** 
1739:./include/linux/atomic/atomic-arch-fallback.h **** /**
1740:./include/linux/atomic/atomic-arch-fallback.h ****  * raw_atomic_fetch_or_release() - atomic bitwise OR with release ordering
1741:./include/linux/atomic/atomic-arch-fallback.h ****  * @i: int value
1742:./include/linux/atomic/atomic-arch-fallback.h ****  * @v: pointer to atomic_t
1743:./include/linux/atomic/atomic-arch-fallback.h ****  *
1744:./include/linux/atomic/atomic-arch-fallback.h ****  * Atomically updates @v to (@v | @i) with release ordering.
1745:./include/linux/atomic/atomic-arch-fallback.h ****  *
1746:./include/linux/atomic/atomic-arch-fallback.h ****  * Safe to use in noinstr code; prefer atomic_fetch_or_release() elsewhere.
1747:./include/linux/atomic/atomic-arch-fallback.h ****  *
1748:./include/linux/atomic/atomic-arch-fallback.h ****  * Return: The original value of @v.
1749:./include/linux/atomic/atomic-arch-fallback.h ****  */
1750:./include/linux/atomic/atomic-arch-fallback.h **** static __always_inline int
1751:./include/linux/atomic/atomic-arch-fallback.h **** raw_atomic_fetch_or_release(int i, atomic_t *v)
1752:./include/linux/atomic/atomic-arch-fallback.h **** {
1753:./include/linux/atomic/atomic-arch-fallback.h **** #if defined(arch_atomic_fetch_or_release)
1754:./include/linux/atomic/atomic-arch-fallback.h **** 	return arch_atomic_fetch_or_release(i, v);
1755:./include/linux/atomic/atomic-arch-fallback.h **** #elif defined(arch_atomic_fetch_or_relaxed)
1756:./include/linux/atomic/atomic-arch-fallback.h **** 	__atomic_release_fence();
1757:./include/linux/atomic/atomic-arch-fallback.h **** 	return arch_atomic_fetch_or_relaxed(i, v);
1758:./include/linux/atomic/atomic-arch-fallback.h **** #elif defined(arch_atomic_fetch_or)
1759:./include/linux/atomic/atomic-arch-fallback.h **** 	return arch_atomic_fetch_or(i, v);
ARM GAS  /tmp/ccnTZmpF.s 			page 120


1760:./include/linux/atomic/atomic-arch-fallback.h **** #else
1761:./include/linux/atomic/atomic-arch-fallback.h **** #error "Unable to define raw_atomic_fetch_or_release"
1762:./include/linux/atomic/atomic-arch-fallback.h **** #endif
1763:./include/linux/atomic/atomic-arch-fallback.h **** }
1764:./include/linux/atomic/atomic-arch-fallback.h **** 
1765:./include/linux/atomic/atomic-arch-fallback.h **** /**
1766:./include/linux/atomic/atomic-arch-fallback.h ****  * raw_atomic_fetch_or_relaxed() - atomic bitwise OR with relaxed ordering
1767:./include/linux/atomic/atomic-arch-fallback.h ****  * @i: int value
1768:./include/linux/atomic/atomic-arch-fallback.h ****  * @v: pointer to atomic_t
1769:./include/linux/atomic/atomic-arch-fallback.h ****  *
1770:./include/linux/atomic/atomic-arch-fallback.h ****  * Atomically updates @v to (@v | @i) with relaxed ordering.
1771:./include/linux/atomic/atomic-arch-fallback.h ****  *
1772:./include/linux/atomic/atomic-arch-fallback.h ****  * Safe to use in noinstr code; prefer atomic_fetch_or_relaxed() elsewhere.
1773:./include/linux/atomic/atomic-arch-fallback.h ****  *
1774:./include/linux/atomic/atomic-arch-fallback.h ****  * Return: The original value of @v.
1775:./include/linux/atomic/atomic-arch-fallback.h ****  */
1776:./include/linux/atomic/atomic-arch-fallback.h **** static __always_inline int
1777:./include/linux/atomic/atomic-arch-fallback.h **** raw_atomic_fetch_or_relaxed(int i, atomic_t *v)
1778:./include/linux/atomic/atomic-arch-fallback.h **** {
1779:./include/linux/atomic/atomic-arch-fallback.h **** #if defined(arch_atomic_fetch_or_relaxed)
1780:./include/linux/atomic/atomic-arch-fallback.h **** 	return arch_atomic_fetch_or_relaxed(i, v);
1781:./include/linux/atomic/atomic-arch-fallback.h **** #elif defined(arch_atomic_fetch_or)
1782:./include/linux/atomic/atomic-arch-fallback.h **** 	return arch_atomic_fetch_or(i, v);
1783:./include/linux/atomic/atomic-arch-fallback.h **** #else
1784:./include/linux/atomic/atomic-arch-fallback.h **** #error "Unable to define raw_atomic_fetch_or_relaxed"
1785:./include/linux/atomic/atomic-arch-fallback.h **** #endif
1786:./include/linux/atomic/atomic-arch-fallback.h **** }
1787:./include/linux/atomic/atomic-arch-fallback.h **** 
1788:./include/linux/atomic/atomic-arch-fallback.h **** /**
1789:./include/linux/atomic/atomic-arch-fallback.h ****  * raw_atomic_xor() - atomic bitwise XOR with relaxed ordering
1790:./include/linux/atomic/atomic-arch-fallback.h ****  * @i: int value
1791:./include/linux/atomic/atomic-arch-fallback.h ****  * @v: pointer to atomic_t
1792:./include/linux/atomic/atomic-arch-fallback.h ****  *
1793:./include/linux/atomic/atomic-arch-fallback.h ****  * Atomically updates @v to (@v ^ @i) with relaxed ordering.
1794:./include/linux/atomic/atomic-arch-fallback.h ****  *
1795:./include/linux/atomic/atomic-arch-fallback.h ****  * Safe to use in noinstr code; prefer atomic_xor() elsewhere.
1796:./include/linux/atomic/atomic-arch-fallback.h ****  *
1797:./include/linux/atomic/atomic-arch-fallback.h ****  * Return: Nothing.
1798:./include/linux/atomic/atomic-arch-fallback.h ****  */
1799:./include/linux/atomic/atomic-arch-fallback.h **** static __always_inline void
1800:./include/linux/atomic/atomic-arch-fallback.h **** raw_atomic_xor(int i, atomic_t *v)
1801:./include/linux/atomic/atomic-arch-fallback.h **** {
1802:./include/linux/atomic/atomic-arch-fallback.h **** 	arch_atomic_xor(i, v);
1803:./include/linux/atomic/atomic-arch-fallback.h **** }
1804:./include/linux/atomic/atomic-arch-fallback.h **** 
1805:./include/linux/atomic/atomic-arch-fallback.h **** /**
1806:./include/linux/atomic/atomic-arch-fallback.h ****  * raw_atomic_fetch_xor() - atomic bitwise XOR with full ordering
1807:./include/linux/atomic/atomic-arch-fallback.h ****  * @i: int value
1808:./include/linux/atomic/atomic-arch-fallback.h ****  * @v: pointer to atomic_t
1809:./include/linux/atomic/atomic-arch-fallback.h ****  *
1810:./include/linux/atomic/atomic-arch-fallback.h ****  * Atomically updates @v to (@v ^ @i) with full ordering.
1811:./include/linux/atomic/atomic-arch-fallback.h ****  *
1812:./include/linux/atomic/atomic-arch-fallback.h ****  * Safe to use in noinstr code; prefer atomic_fetch_xor() elsewhere.
1813:./include/linux/atomic/atomic-arch-fallback.h ****  *
1814:./include/linux/atomic/atomic-arch-fallback.h ****  * Return: The original value of @v.
1815:./include/linux/atomic/atomic-arch-fallback.h ****  */
1816:./include/linux/atomic/atomic-arch-fallback.h **** static __always_inline int
ARM GAS  /tmp/ccnTZmpF.s 			page 121


1817:./include/linux/atomic/atomic-arch-fallback.h **** raw_atomic_fetch_xor(int i, atomic_t *v)
1818:./include/linux/atomic/atomic-arch-fallback.h **** {
1819:./include/linux/atomic/atomic-arch-fallback.h **** #if defined(arch_atomic_fetch_xor)
1820:./include/linux/atomic/atomic-arch-fallback.h **** 	return arch_atomic_fetch_xor(i, v);
1821:./include/linux/atomic/atomic-arch-fallback.h **** #elif defined(arch_atomic_fetch_xor_relaxed)
1822:./include/linux/atomic/atomic-arch-fallback.h **** 	int ret;
1823:./include/linux/atomic/atomic-arch-fallback.h **** 	__atomic_pre_full_fence();
1824:./include/linux/atomic/atomic-arch-fallback.h **** 	ret = arch_atomic_fetch_xor_relaxed(i, v);
1825:./include/linux/atomic/atomic-arch-fallback.h **** 	__atomic_post_full_fence();
1826:./include/linux/atomic/atomic-arch-fallback.h **** 	return ret;
1827:./include/linux/atomic/atomic-arch-fallback.h **** #else
1828:./include/linux/atomic/atomic-arch-fallback.h **** #error "Unable to define raw_atomic_fetch_xor"
1829:./include/linux/atomic/atomic-arch-fallback.h **** #endif
1830:./include/linux/atomic/atomic-arch-fallback.h **** }
1831:./include/linux/atomic/atomic-arch-fallback.h **** 
1832:./include/linux/atomic/atomic-arch-fallback.h **** /**
1833:./include/linux/atomic/atomic-arch-fallback.h ****  * raw_atomic_fetch_xor_acquire() - atomic bitwise XOR with acquire ordering
1834:./include/linux/atomic/atomic-arch-fallback.h ****  * @i: int value
1835:./include/linux/atomic/atomic-arch-fallback.h ****  * @v: pointer to atomic_t
1836:./include/linux/atomic/atomic-arch-fallback.h ****  *
1837:./include/linux/atomic/atomic-arch-fallback.h ****  * Atomically updates @v to (@v ^ @i) with acquire ordering.
1838:./include/linux/atomic/atomic-arch-fallback.h ****  *
1839:./include/linux/atomic/atomic-arch-fallback.h ****  * Safe to use in noinstr code; prefer atomic_fetch_xor_acquire() elsewhere.
1840:./include/linux/atomic/atomic-arch-fallback.h ****  *
1841:./include/linux/atomic/atomic-arch-fallback.h ****  * Return: The original value of @v.
1842:./include/linux/atomic/atomic-arch-fallback.h ****  */
1843:./include/linux/atomic/atomic-arch-fallback.h **** static __always_inline int
1844:./include/linux/atomic/atomic-arch-fallback.h **** raw_atomic_fetch_xor_acquire(int i, atomic_t *v)
1845:./include/linux/atomic/atomic-arch-fallback.h **** {
1846:./include/linux/atomic/atomic-arch-fallback.h **** #if defined(arch_atomic_fetch_xor_acquire)
1847:./include/linux/atomic/atomic-arch-fallback.h **** 	return arch_atomic_fetch_xor_acquire(i, v);
1848:./include/linux/atomic/atomic-arch-fallback.h **** #elif defined(arch_atomic_fetch_xor_relaxed)
1849:./include/linux/atomic/atomic-arch-fallback.h **** 	int ret = arch_atomic_fetch_xor_relaxed(i, v);
1850:./include/linux/atomic/atomic-arch-fallback.h **** 	__atomic_acquire_fence();
1851:./include/linux/atomic/atomic-arch-fallback.h **** 	return ret;
1852:./include/linux/atomic/atomic-arch-fallback.h **** #elif defined(arch_atomic_fetch_xor)
1853:./include/linux/atomic/atomic-arch-fallback.h **** 	return arch_atomic_fetch_xor(i, v);
1854:./include/linux/atomic/atomic-arch-fallback.h **** #else
1855:./include/linux/atomic/atomic-arch-fallback.h **** #error "Unable to define raw_atomic_fetch_xor_acquire"
1856:./include/linux/atomic/atomic-arch-fallback.h **** #endif
1857:./include/linux/atomic/atomic-arch-fallback.h **** }
1858:./include/linux/atomic/atomic-arch-fallback.h **** 
1859:./include/linux/atomic/atomic-arch-fallback.h **** /**
1860:./include/linux/atomic/atomic-arch-fallback.h ****  * raw_atomic_fetch_xor_release() - atomic bitwise XOR with release ordering
1861:./include/linux/atomic/atomic-arch-fallback.h ****  * @i: int value
1862:./include/linux/atomic/atomic-arch-fallback.h ****  * @v: pointer to atomic_t
1863:./include/linux/atomic/atomic-arch-fallback.h ****  *
1864:./include/linux/atomic/atomic-arch-fallback.h ****  * Atomically updates @v to (@v ^ @i) with release ordering.
1865:./include/linux/atomic/atomic-arch-fallback.h ****  *
1866:./include/linux/atomic/atomic-arch-fallback.h ****  * Safe to use in noinstr code; prefer atomic_fetch_xor_release() elsewhere.
1867:./include/linux/atomic/atomic-arch-fallback.h ****  *
1868:./include/linux/atomic/atomic-arch-fallback.h ****  * Return: The original value of @v.
1869:./include/linux/atomic/atomic-arch-fallback.h ****  */
1870:./include/linux/atomic/atomic-arch-fallback.h **** static __always_inline int
1871:./include/linux/atomic/atomic-arch-fallback.h **** raw_atomic_fetch_xor_release(int i, atomic_t *v)
1872:./include/linux/atomic/atomic-arch-fallback.h **** {
1873:./include/linux/atomic/atomic-arch-fallback.h **** #if defined(arch_atomic_fetch_xor_release)
ARM GAS  /tmp/ccnTZmpF.s 			page 122


1874:./include/linux/atomic/atomic-arch-fallback.h **** 	return arch_atomic_fetch_xor_release(i, v);
1875:./include/linux/atomic/atomic-arch-fallback.h **** #elif defined(arch_atomic_fetch_xor_relaxed)
1876:./include/linux/atomic/atomic-arch-fallback.h **** 	__atomic_release_fence();
1877:./include/linux/atomic/atomic-arch-fallback.h **** 	return arch_atomic_fetch_xor_relaxed(i, v);
1878:./include/linux/atomic/atomic-arch-fallback.h **** #elif defined(arch_atomic_fetch_xor)
1879:./include/linux/atomic/atomic-arch-fallback.h **** 	return arch_atomic_fetch_xor(i, v);
1880:./include/linux/atomic/atomic-arch-fallback.h **** #else
1881:./include/linux/atomic/atomic-arch-fallback.h **** #error "Unable to define raw_atomic_fetch_xor_release"
1882:./include/linux/atomic/atomic-arch-fallback.h **** #endif
1883:./include/linux/atomic/atomic-arch-fallback.h **** }
1884:./include/linux/atomic/atomic-arch-fallback.h **** 
1885:./include/linux/atomic/atomic-arch-fallback.h **** /**
1886:./include/linux/atomic/atomic-arch-fallback.h ****  * raw_atomic_fetch_xor_relaxed() - atomic bitwise XOR with relaxed ordering
1887:./include/linux/atomic/atomic-arch-fallback.h ****  * @i: int value
1888:./include/linux/atomic/atomic-arch-fallback.h ****  * @v: pointer to atomic_t
1889:./include/linux/atomic/atomic-arch-fallback.h ****  *
1890:./include/linux/atomic/atomic-arch-fallback.h ****  * Atomically updates @v to (@v ^ @i) with relaxed ordering.
1891:./include/linux/atomic/atomic-arch-fallback.h ****  *
1892:./include/linux/atomic/atomic-arch-fallback.h ****  * Safe to use in noinstr code; prefer atomic_fetch_xor_relaxed() elsewhere.
1893:./include/linux/atomic/atomic-arch-fallback.h ****  *
1894:./include/linux/atomic/atomic-arch-fallback.h ****  * Return: The original value of @v.
1895:./include/linux/atomic/atomic-arch-fallback.h ****  */
1896:./include/linux/atomic/atomic-arch-fallback.h **** static __always_inline int
1897:./include/linux/atomic/atomic-arch-fallback.h **** raw_atomic_fetch_xor_relaxed(int i, atomic_t *v)
1898:./include/linux/atomic/atomic-arch-fallback.h **** {
1899:./include/linux/atomic/atomic-arch-fallback.h **** #if defined(arch_atomic_fetch_xor_relaxed)
1900:./include/linux/atomic/atomic-arch-fallback.h **** 	return arch_atomic_fetch_xor_relaxed(i, v);
1901:./include/linux/atomic/atomic-arch-fallback.h **** #elif defined(arch_atomic_fetch_xor)
1902:./include/linux/atomic/atomic-arch-fallback.h **** 	return arch_atomic_fetch_xor(i, v);
1903:./include/linux/atomic/atomic-arch-fallback.h **** #else
1904:./include/linux/atomic/atomic-arch-fallback.h **** #error "Unable to define raw_atomic_fetch_xor_relaxed"
1905:./include/linux/atomic/atomic-arch-fallback.h **** #endif
1906:./include/linux/atomic/atomic-arch-fallback.h **** }
1907:./include/linux/atomic/atomic-arch-fallback.h **** 
1908:./include/linux/atomic/atomic-arch-fallback.h **** /**
1909:./include/linux/atomic/atomic-arch-fallback.h ****  * raw_atomic_xchg() - atomic exchange with full ordering
1910:./include/linux/atomic/atomic-arch-fallback.h ****  * @v: pointer to atomic_t
1911:./include/linux/atomic/atomic-arch-fallback.h ****  * @new: int value to assign
1912:./include/linux/atomic/atomic-arch-fallback.h ****  *
1913:./include/linux/atomic/atomic-arch-fallback.h ****  * Atomically updates @v to @new with full ordering.
1914:./include/linux/atomic/atomic-arch-fallback.h ****  *
1915:./include/linux/atomic/atomic-arch-fallback.h ****  * Safe to use in noinstr code; prefer atomic_xchg() elsewhere.
1916:./include/linux/atomic/atomic-arch-fallback.h ****  *
1917:./include/linux/atomic/atomic-arch-fallback.h ****  * Return: The original value of @v.
1918:./include/linux/atomic/atomic-arch-fallback.h ****  */
1919:./include/linux/atomic/atomic-arch-fallback.h **** static __always_inline int
1920:./include/linux/atomic/atomic-arch-fallback.h **** raw_atomic_xchg(atomic_t *v, int new)
1921:./include/linux/atomic/atomic-arch-fallback.h **** {
1922:./include/linux/atomic/atomic-arch-fallback.h **** #if defined(arch_atomic_xchg)
1923:./include/linux/atomic/atomic-arch-fallback.h **** 	return arch_atomic_xchg(v, new);
1924:./include/linux/atomic/atomic-arch-fallback.h **** #elif defined(arch_atomic_xchg_relaxed)
1925:./include/linux/atomic/atomic-arch-fallback.h **** 	int ret;
1926:./include/linux/atomic/atomic-arch-fallback.h **** 	__atomic_pre_full_fence();
1927:./include/linux/atomic/atomic-arch-fallback.h **** 	ret = arch_atomic_xchg_relaxed(v, new);
1928:./include/linux/atomic/atomic-arch-fallback.h **** 	__atomic_post_full_fence();
1929:./include/linux/atomic/atomic-arch-fallback.h **** 	return ret;
1930:./include/linux/atomic/atomic-arch-fallback.h **** #else
ARM GAS  /tmp/ccnTZmpF.s 			page 123


1931:./include/linux/atomic/atomic-arch-fallback.h **** 	return raw_xchg(&v->counter, new);
1932:./include/linux/atomic/atomic-arch-fallback.h **** #endif
1933:./include/linux/atomic/atomic-arch-fallback.h **** }
1934:./include/linux/atomic/atomic-arch-fallback.h **** 
1935:./include/linux/atomic/atomic-arch-fallback.h **** /**
1936:./include/linux/atomic/atomic-arch-fallback.h ****  * raw_atomic_xchg_acquire() - atomic exchange with acquire ordering
1937:./include/linux/atomic/atomic-arch-fallback.h ****  * @v: pointer to atomic_t
1938:./include/linux/atomic/atomic-arch-fallback.h ****  * @new: int value to assign
1939:./include/linux/atomic/atomic-arch-fallback.h ****  *
1940:./include/linux/atomic/atomic-arch-fallback.h ****  * Atomically updates @v to @new with acquire ordering.
1941:./include/linux/atomic/atomic-arch-fallback.h ****  *
1942:./include/linux/atomic/atomic-arch-fallback.h ****  * Safe to use in noinstr code; prefer atomic_xchg_acquire() elsewhere.
1943:./include/linux/atomic/atomic-arch-fallback.h ****  *
1944:./include/linux/atomic/atomic-arch-fallback.h ****  * Return: The original value of @v.
1945:./include/linux/atomic/atomic-arch-fallback.h ****  */
1946:./include/linux/atomic/atomic-arch-fallback.h **** static __always_inline int
1947:./include/linux/atomic/atomic-arch-fallback.h **** raw_atomic_xchg_acquire(atomic_t *v, int new)
1948:./include/linux/atomic/atomic-arch-fallback.h **** {
1949:./include/linux/atomic/atomic-arch-fallback.h **** #if defined(arch_atomic_xchg_acquire)
1950:./include/linux/atomic/atomic-arch-fallback.h **** 	return arch_atomic_xchg_acquire(v, new);
1951:./include/linux/atomic/atomic-arch-fallback.h **** #elif defined(arch_atomic_xchg_relaxed)
1952:./include/linux/atomic/atomic-arch-fallback.h **** 	int ret = arch_atomic_xchg_relaxed(v, new);
1953:./include/linux/atomic/atomic-arch-fallback.h **** 	__atomic_acquire_fence();
1954:./include/linux/atomic/atomic-arch-fallback.h **** 	return ret;
1955:./include/linux/atomic/atomic-arch-fallback.h **** #elif defined(arch_atomic_xchg)
1956:./include/linux/atomic/atomic-arch-fallback.h **** 	return arch_atomic_xchg(v, new);
1957:./include/linux/atomic/atomic-arch-fallback.h **** #else
1958:./include/linux/atomic/atomic-arch-fallback.h **** 	return raw_xchg_acquire(&v->counter, new);
1959:./include/linux/atomic/atomic-arch-fallback.h **** #endif
1960:./include/linux/atomic/atomic-arch-fallback.h **** }
1961:./include/linux/atomic/atomic-arch-fallback.h **** 
1962:./include/linux/atomic/atomic-arch-fallback.h **** /**
1963:./include/linux/atomic/atomic-arch-fallback.h ****  * raw_atomic_xchg_release() - atomic exchange with release ordering
1964:./include/linux/atomic/atomic-arch-fallback.h ****  * @v: pointer to atomic_t
1965:./include/linux/atomic/atomic-arch-fallback.h ****  * @new: int value to assign
1966:./include/linux/atomic/atomic-arch-fallback.h ****  *
1967:./include/linux/atomic/atomic-arch-fallback.h ****  * Atomically updates @v to @new with release ordering.
1968:./include/linux/atomic/atomic-arch-fallback.h ****  *
1969:./include/linux/atomic/atomic-arch-fallback.h ****  * Safe to use in noinstr code; prefer atomic_xchg_release() elsewhere.
1970:./include/linux/atomic/atomic-arch-fallback.h ****  *
1971:./include/linux/atomic/atomic-arch-fallback.h ****  * Return: The original value of @v.
1972:./include/linux/atomic/atomic-arch-fallback.h ****  */
1973:./include/linux/atomic/atomic-arch-fallback.h **** static __always_inline int
1974:./include/linux/atomic/atomic-arch-fallback.h **** raw_atomic_xchg_release(atomic_t *v, int new)
1975:./include/linux/atomic/atomic-arch-fallback.h **** {
1976:./include/linux/atomic/atomic-arch-fallback.h **** #if defined(arch_atomic_xchg_release)
1977:./include/linux/atomic/atomic-arch-fallback.h **** 	return arch_atomic_xchg_release(v, new);
1978:./include/linux/atomic/atomic-arch-fallback.h **** #elif defined(arch_atomic_xchg_relaxed)
1979:./include/linux/atomic/atomic-arch-fallback.h **** 	__atomic_release_fence();
1980:./include/linux/atomic/atomic-arch-fallback.h **** 	return arch_atomic_xchg_relaxed(v, new);
1981:./include/linux/atomic/atomic-arch-fallback.h **** #elif defined(arch_atomic_xchg)
1982:./include/linux/atomic/atomic-arch-fallback.h **** 	return arch_atomic_xchg(v, new);
1983:./include/linux/atomic/atomic-arch-fallback.h **** #else
1984:./include/linux/atomic/atomic-arch-fallback.h **** 	return raw_xchg_release(&v->counter, new);
1985:./include/linux/atomic/atomic-arch-fallback.h **** #endif
1986:./include/linux/atomic/atomic-arch-fallback.h **** }
1987:./include/linux/atomic/atomic-arch-fallback.h **** 
ARM GAS  /tmp/ccnTZmpF.s 			page 124


1988:./include/linux/atomic/atomic-arch-fallback.h **** /**
1989:./include/linux/atomic/atomic-arch-fallback.h ****  * raw_atomic_xchg_relaxed() - atomic exchange with relaxed ordering
1990:./include/linux/atomic/atomic-arch-fallback.h ****  * @v: pointer to atomic_t
1991:./include/linux/atomic/atomic-arch-fallback.h ****  * @new: int value to assign
1992:./include/linux/atomic/atomic-arch-fallback.h ****  *
1993:./include/linux/atomic/atomic-arch-fallback.h ****  * Atomically updates @v to @new with relaxed ordering.
1994:./include/linux/atomic/atomic-arch-fallback.h ****  *
1995:./include/linux/atomic/atomic-arch-fallback.h ****  * Safe to use in noinstr code; prefer atomic_xchg_relaxed() elsewhere.
1996:./include/linux/atomic/atomic-arch-fallback.h ****  *
1997:./include/linux/atomic/atomic-arch-fallback.h ****  * Return: The original value of @v.
1998:./include/linux/atomic/atomic-arch-fallback.h ****  */
1999:./include/linux/atomic/atomic-arch-fallback.h **** static __always_inline int
2000:./include/linux/atomic/atomic-arch-fallback.h **** raw_atomic_xchg_relaxed(atomic_t *v, int new)
2001:./include/linux/atomic/atomic-arch-fallback.h **** {
2002:./include/linux/atomic/atomic-arch-fallback.h **** #if defined(arch_atomic_xchg_relaxed)
2003:./include/linux/atomic/atomic-arch-fallback.h **** 	return arch_atomic_xchg_relaxed(v, new);
2004:./include/linux/atomic/atomic-arch-fallback.h **** #elif defined(arch_atomic_xchg)
2005:./include/linux/atomic/atomic-arch-fallback.h **** 	return arch_atomic_xchg(v, new);
2006:./include/linux/atomic/atomic-arch-fallback.h **** #else
2007:./include/linux/atomic/atomic-arch-fallback.h **** 	return raw_xchg_relaxed(&v->counter, new);
2008:./include/linux/atomic/atomic-arch-fallback.h **** #endif
2009:./include/linux/atomic/atomic-arch-fallback.h **** }
2010:./include/linux/atomic/atomic-arch-fallback.h **** 
2011:./include/linux/atomic/atomic-arch-fallback.h **** /**
2012:./include/linux/atomic/atomic-arch-fallback.h ****  * raw_atomic_cmpxchg() - atomic compare and exchange with full ordering
2013:./include/linux/atomic/atomic-arch-fallback.h ****  * @v: pointer to atomic_t
2014:./include/linux/atomic/atomic-arch-fallback.h ****  * @old: int value to compare with
2015:./include/linux/atomic/atomic-arch-fallback.h ****  * @new: int value to assign
2016:./include/linux/atomic/atomic-arch-fallback.h ****  *
2017:./include/linux/atomic/atomic-arch-fallback.h ****  * If (@v == @old), atomically updates @v to @new with full ordering.
2018:./include/linux/atomic/atomic-arch-fallback.h ****  * Otherwise, @v is not modified and relaxed ordering is provided.
2019:./include/linux/atomic/atomic-arch-fallback.h ****  *
2020:./include/linux/atomic/atomic-arch-fallback.h ****  * Safe to use in noinstr code; prefer atomic_cmpxchg() elsewhere.
2021:./include/linux/atomic/atomic-arch-fallback.h ****  *
2022:./include/linux/atomic/atomic-arch-fallback.h ****  * Return: The original value of @v.
2023:./include/linux/atomic/atomic-arch-fallback.h ****  */
2024:./include/linux/atomic/atomic-arch-fallback.h **** static __always_inline int
2025:./include/linux/atomic/atomic-arch-fallback.h **** raw_atomic_cmpxchg(atomic_t *v, int old, int new)
2026:./include/linux/atomic/atomic-arch-fallback.h **** {
2027:./include/linux/atomic/atomic-arch-fallback.h **** #if defined(arch_atomic_cmpxchg)
2028:./include/linux/atomic/atomic-arch-fallback.h **** 	return arch_atomic_cmpxchg(v, old, new);
2029:./include/linux/atomic/atomic-arch-fallback.h **** #elif defined(arch_atomic_cmpxchg_relaxed)
2030:./include/linux/atomic/atomic-arch-fallback.h **** 	int ret;
2031:./include/linux/atomic/atomic-arch-fallback.h **** 	__atomic_pre_full_fence();
2032:./include/linux/atomic/atomic-arch-fallback.h **** 	ret = arch_atomic_cmpxchg_relaxed(v, old, new);
2033:./include/linux/atomic/atomic-arch-fallback.h **** 	__atomic_post_full_fence();
2034:./include/linux/atomic/atomic-arch-fallback.h **** 	return ret;
2035:./include/linux/atomic/atomic-arch-fallback.h **** #else
2036:./include/linux/atomic/atomic-arch-fallback.h **** 	return raw_cmpxchg(&v->counter, old, new);
2037:./include/linux/atomic/atomic-arch-fallback.h **** #endif
2038:./include/linux/atomic/atomic-arch-fallback.h **** }
2039:./include/linux/atomic/atomic-arch-fallback.h **** 
2040:./include/linux/atomic/atomic-arch-fallback.h **** /**
2041:./include/linux/atomic/atomic-arch-fallback.h ****  * raw_atomic_cmpxchg_acquire() - atomic compare and exchange with acquire ordering
2042:./include/linux/atomic/atomic-arch-fallback.h ****  * @v: pointer to atomic_t
2043:./include/linux/atomic/atomic-arch-fallback.h ****  * @old: int value to compare with
2044:./include/linux/atomic/atomic-arch-fallback.h ****  * @new: int value to assign
ARM GAS  /tmp/ccnTZmpF.s 			page 125


2045:./include/linux/atomic/atomic-arch-fallback.h ****  *
2046:./include/linux/atomic/atomic-arch-fallback.h ****  * If (@v == @old), atomically updates @v to @new with acquire ordering.
2047:./include/linux/atomic/atomic-arch-fallback.h ****  * Otherwise, @v is not modified and relaxed ordering is provided.
2048:./include/linux/atomic/atomic-arch-fallback.h ****  *
2049:./include/linux/atomic/atomic-arch-fallback.h ****  * Safe to use in noinstr code; prefer atomic_cmpxchg_acquire() elsewhere.
2050:./include/linux/atomic/atomic-arch-fallback.h ****  *
2051:./include/linux/atomic/atomic-arch-fallback.h ****  * Return: The original value of @v.
2052:./include/linux/atomic/atomic-arch-fallback.h ****  */
2053:./include/linux/atomic/atomic-arch-fallback.h **** static __always_inline int
2054:./include/linux/atomic/atomic-arch-fallback.h **** raw_atomic_cmpxchg_acquire(atomic_t *v, int old, int new)
2055:./include/linux/atomic/atomic-arch-fallback.h **** {
2056:./include/linux/atomic/atomic-arch-fallback.h **** #if defined(arch_atomic_cmpxchg_acquire)
2057:./include/linux/atomic/atomic-arch-fallback.h **** 	return arch_atomic_cmpxchg_acquire(v, old, new);
2058:./include/linux/atomic/atomic-arch-fallback.h **** #elif defined(arch_atomic_cmpxchg_relaxed)
2059:./include/linux/atomic/atomic-arch-fallback.h **** 	int ret = arch_atomic_cmpxchg_relaxed(v, old, new);
2060:./include/linux/atomic/atomic-arch-fallback.h **** 	__atomic_acquire_fence();
2061:./include/linux/atomic/atomic-arch-fallback.h **** 	return ret;
2062:./include/linux/atomic/atomic-arch-fallback.h **** #elif defined(arch_atomic_cmpxchg)
2063:./include/linux/atomic/atomic-arch-fallback.h **** 	return arch_atomic_cmpxchg(v, old, new);
2064:./include/linux/atomic/atomic-arch-fallback.h **** #else
2065:./include/linux/atomic/atomic-arch-fallback.h **** 	return raw_cmpxchg_acquire(&v->counter, old, new);
2066:./include/linux/atomic/atomic-arch-fallback.h **** #endif
2067:./include/linux/atomic/atomic-arch-fallback.h **** }
2068:./include/linux/atomic/atomic-arch-fallback.h **** 
2069:./include/linux/atomic/atomic-arch-fallback.h **** /**
2070:./include/linux/atomic/atomic-arch-fallback.h ****  * raw_atomic_cmpxchg_release() - atomic compare and exchange with release ordering
2071:./include/linux/atomic/atomic-arch-fallback.h ****  * @v: pointer to atomic_t
2072:./include/linux/atomic/atomic-arch-fallback.h ****  * @old: int value to compare with
2073:./include/linux/atomic/atomic-arch-fallback.h ****  * @new: int value to assign
2074:./include/linux/atomic/atomic-arch-fallback.h ****  *
2075:./include/linux/atomic/atomic-arch-fallback.h ****  * If (@v == @old), atomically updates @v to @new with release ordering.
2076:./include/linux/atomic/atomic-arch-fallback.h ****  * Otherwise, @v is not modified and relaxed ordering is provided.
2077:./include/linux/atomic/atomic-arch-fallback.h ****  *
2078:./include/linux/atomic/atomic-arch-fallback.h ****  * Safe to use in noinstr code; prefer atomic_cmpxchg_release() elsewhere.
2079:./include/linux/atomic/atomic-arch-fallback.h ****  *
2080:./include/linux/atomic/atomic-arch-fallback.h ****  * Return: The original value of @v.
2081:./include/linux/atomic/atomic-arch-fallback.h ****  */
2082:./include/linux/atomic/atomic-arch-fallback.h **** static __always_inline int
2083:./include/linux/atomic/atomic-arch-fallback.h **** raw_atomic_cmpxchg_release(atomic_t *v, int old, int new)
2084:./include/linux/atomic/atomic-arch-fallback.h **** {
2085:./include/linux/atomic/atomic-arch-fallback.h **** #if defined(arch_atomic_cmpxchg_release)
2086:./include/linux/atomic/atomic-arch-fallback.h **** 	return arch_atomic_cmpxchg_release(v, old, new);
2087:./include/linux/atomic/atomic-arch-fallback.h **** #elif defined(arch_atomic_cmpxchg_relaxed)
2088:./include/linux/atomic/atomic-arch-fallback.h **** 	__atomic_release_fence();
2089:./include/linux/atomic/atomic-arch-fallback.h **** 	return arch_atomic_cmpxchg_relaxed(v, old, new);
2090:./include/linux/atomic/atomic-arch-fallback.h **** #elif defined(arch_atomic_cmpxchg)
2091:./include/linux/atomic/atomic-arch-fallback.h **** 	return arch_atomic_cmpxchg(v, old, new);
2092:./include/linux/atomic/atomic-arch-fallback.h **** #else
2093:./include/linux/atomic/atomic-arch-fallback.h **** 	return raw_cmpxchg_release(&v->counter, old, new);
2094:./include/linux/atomic/atomic-arch-fallback.h **** #endif
2095:./include/linux/atomic/atomic-arch-fallback.h **** }
2096:./include/linux/atomic/atomic-arch-fallback.h **** 
2097:./include/linux/atomic/atomic-arch-fallback.h **** /**
2098:./include/linux/atomic/atomic-arch-fallback.h ****  * raw_atomic_cmpxchg_relaxed() - atomic compare and exchange with relaxed ordering
2099:./include/linux/atomic/atomic-arch-fallback.h ****  * @v: pointer to atomic_t
2100:./include/linux/atomic/atomic-arch-fallback.h ****  * @old: int value to compare with
2101:./include/linux/atomic/atomic-arch-fallback.h ****  * @new: int value to assign
ARM GAS  /tmp/ccnTZmpF.s 			page 126


2102:./include/linux/atomic/atomic-arch-fallback.h ****  *
2103:./include/linux/atomic/atomic-arch-fallback.h ****  * If (@v == @old), atomically updates @v to @new with relaxed ordering.
2104:./include/linux/atomic/atomic-arch-fallback.h ****  * Otherwise, @v is not modified and relaxed ordering is provided.
2105:./include/linux/atomic/atomic-arch-fallback.h ****  *
2106:./include/linux/atomic/atomic-arch-fallback.h ****  * Safe to use in noinstr code; prefer atomic_cmpxchg_relaxed() elsewhere.
2107:./include/linux/atomic/atomic-arch-fallback.h ****  *
2108:./include/linux/atomic/atomic-arch-fallback.h ****  * Return: The original value of @v.
2109:./include/linux/atomic/atomic-arch-fallback.h ****  */
2110:./include/linux/atomic/atomic-arch-fallback.h **** static __always_inline int
2111:./include/linux/atomic/atomic-arch-fallback.h **** raw_atomic_cmpxchg_relaxed(atomic_t *v, int old, int new)
2112:./include/linux/atomic/atomic-arch-fallback.h **** {
2113:./include/linux/atomic/atomic-arch-fallback.h **** #if defined(arch_atomic_cmpxchg_relaxed)
2114:./include/linux/atomic/atomic-arch-fallback.h **** 	return arch_atomic_cmpxchg_relaxed(v, old, new);
2115:./include/linux/atomic/atomic-arch-fallback.h **** #elif defined(arch_atomic_cmpxchg)
2116:./include/linux/atomic/atomic-arch-fallback.h **** 	return arch_atomic_cmpxchg(v, old, new);
2117:./include/linux/atomic/atomic-arch-fallback.h **** #else
2118:./include/linux/atomic/atomic-arch-fallback.h **** 	return raw_cmpxchg_relaxed(&v->counter, old, new);
2119:./include/linux/atomic/atomic-arch-fallback.h **** #endif
2120:./include/linux/atomic/atomic-arch-fallback.h **** }
2121:./include/linux/atomic/atomic-arch-fallback.h **** 
2122:./include/linux/atomic/atomic-arch-fallback.h **** /**
2123:./include/linux/atomic/atomic-arch-fallback.h ****  * raw_atomic_try_cmpxchg() - atomic compare and exchange with full ordering
2124:./include/linux/atomic/atomic-arch-fallback.h ****  * @v: pointer to atomic_t
2125:./include/linux/atomic/atomic-arch-fallback.h ****  * @old: pointer to int value to compare with
2126:./include/linux/atomic/atomic-arch-fallback.h ****  * @new: int value to assign
2127:./include/linux/atomic/atomic-arch-fallback.h ****  *
2128:./include/linux/atomic/atomic-arch-fallback.h ****  * If (@v == @old), atomically updates @v to @new with full ordering.
2129:./include/linux/atomic/atomic-arch-fallback.h ****  * Otherwise, @v is not modified, @old is updated to the current value of @v,
2130:./include/linux/atomic/atomic-arch-fallback.h ****  * and relaxed ordering is provided.
2131:./include/linux/atomic/atomic-arch-fallback.h ****  *
2132:./include/linux/atomic/atomic-arch-fallback.h ****  * Safe to use in noinstr code; prefer atomic_try_cmpxchg() elsewhere.
2133:./include/linux/atomic/atomic-arch-fallback.h ****  *
2134:./include/linux/atomic/atomic-arch-fallback.h ****  * Return: @true if the exchange occured, @false otherwise.
2135:./include/linux/atomic/atomic-arch-fallback.h ****  */
2136:./include/linux/atomic/atomic-arch-fallback.h **** static __always_inline bool
2137:./include/linux/atomic/atomic-arch-fallback.h **** raw_atomic_try_cmpxchg(atomic_t *v, int *old, int new)
2138:./include/linux/atomic/atomic-arch-fallback.h **** {
2139:./include/linux/atomic/atomic-arch-fallback.h **** #if defined(arch_atomic_try_cmpxchg)
2140:./include/linux/atomic/atomic-arch-fallback.h **** 	return arch_atomic_try_cmpxchg(v, old, new);
2141:./include/linux/atomic/atomic-arch-fallback.h **** #elif defined(arch_atomic_try_cmpxchg_relaxed)
2142:./include/linux/atomic/atomic-arch-fallback.h **** 	bool ret;
2143:./include/linux/atomic/atomic-arch-fallback.h **** 	__atomic_pre_full_fence();
2144:./include/linux/atomic/atomic-arch-fallback.h **** 	ret = arch_atomic_try_cmpxchg_relaxed(v, old, new);
2145:./include/linux/atomic/atomic-arch-fallback.h **** 	__atomic_post_full_fence();
2146:./include/linux/atomic/atomic-arch-fallback.h **** 	return ret;
2147:./include/linux/atomic/atomic-arch-fallback.h **** #else
2148:./include/linux/atomic/atomic-arch-fallback.h **** 	int r, o = *old;
2149:./include/linux/atomic/atomic-arch-fallback.h **** 	r = raw_atomic_cmpxchg(v, o, new);
2150:./include/linux/atomic/atomic-arch-fallback.h **** 	if (unlikely(r != o))
2151:./include/linux/atomic/atomic-arch-fallback.h **** 		*old = r;
2152:./include/linux/atomic/atomic-arch-fallback.h **** 	return likely(r == o);
2153:./include/linux/atomic/atomic-arch-fallback.h **** #endif
2154:./include/linux/atomic/atomic-arch-fallback.h **** }
2155:./include/linux/atomic/atomic-arch-fallback.h **** 
2156:./include/linux/atomic/atomic-arch-fallback.h **** /**
2157:./include/linux/atomic/atomic-arch-fallback.h ****  * raw_atomic_try_cmpxchg_acquire() - atomic compare and exchange with acquire ordering
2158:./include/linux/atomic/atomic-arch-fallback.h ****  * @v: pointer to atomic_t
ARM GAS  /tmp/ccnTZmpF.s 			page 127


2159:./include/linux/atomic/atomic-arch-fallback.h ****  * @old: pointer to int value to compare with
2160:./include/linux/atomic/atomic-arch-fallback.h ****  * @new: int value to assign
2161:./include/linux/atomic/atomic-arch-fallback.h ****  *
2162:./include/linux/atomic/atomic-arch-fallback.h ****  * If (@v == @old), atomically updates @v to @new with acquire ordering.
2163:./include/linux/atomic/atomic-arch-fallback.h ****  * Otherwise, @v is not modified, @old is updated to the current value of @v,
2164:./include/linux/atomic/atomic-arch-fallback.h ****  * and relaxed ordering is provided.
2165:./include/linux/atomic/atomic-arch-fallback.h ****  *
2166:./include/linux/atomic/atomic-arch-fallback.h ****  * Safe to use in noinstr code; prefer atomic_try_cmpxchg_acquire() elsewhere.
2167:./include/linux/atomic/atomic-arch-fallback.h ****  *
2168:./include/linux/atomic/atomic-arch-fallback.h ****  * Return: @true if the exchange occured, @false otherwise.
2169:./include/linux/atomic/atomic-arch-fallback.h ****  */
2170:./include/linux/atomic/atomic-arch-fallback.h **** static __always_inline bool
2171:./include/linux/atomic/atomic-arch-fallback.h **** raw_atomic_try_cmpxchg_acquire(atomic_t *v, int *old, int new)
2172:./include/linux/atomic/atomic-arch-fallback.h **** {
2173:./include/linux/atomic/atomic-arch-fallback.h **** #if defined(arch_atomic_try_cmpxchg_acquire)
2174:./include/linux/atomic/atomic-arch-fallback.h **** 	return arch_atomic_try_cmpxchg_acquire(v, old, new);
2175:./include/linux/atomic/atomic-arch-fallback.h **** #elif defined(arch_atomic_try_cmpxchg_relaxed)
2176:./include/linux/atomic/atomic-arch-fallback.h **** 	bool ret = arch_atomic_try_cmpxchg_relaxed(v, old, new);
2177:./include/linux/atomic/atomic-arch-fallback.h **** 	__atomic_acquire_fence();
2178:./include/linux/atomic/atomic-arch-fallback.h **** 	return ret;
2179:./include/linux/atomic/atomic-arch-fallback.h **** #elif defined(arch_atomic_try_cmpxchg)
2180:./include/linux/atomic/atomic-arch-fallback.h **** 	return arch_atomic_try_cmpxchg(v, old, new);
2181:./include/linux/atomic/atomic-arch-fallback.h **** #else
2182:./include/linux/atomic/atomic-arch-fallback.h **** 	int r, o = *old;
2183:./include/linux/atomic/atomic-arch-fallback.h **** 	r = raw_atomic_cmpxchg_acquire(v, o, new);
2184:./include/linux/atomic/atomic-arch-fallback.h **** 	if (unlikely(r != o))
2185:./include/linux/atomic/atomic-arch-fallback.h **** 		*old = r;
2186:./include/linux/atomic/atomic-arch-fallback.h **** 	return likely(r == o);
2187:./include/linux/atomic/atomic-arch-fallback.h **** #endif
2188:./include/linux/atomic/atomic-arch-fallback.h **** }
2189:./include/linux/atomic/atomic-arch-fallback.h **** 
2190:./include/linux/atomic/atomic-arch-fallback.h **** /**
2191:./include/linux/atomic/atomic-arch-fallback.h ****  * raw_atomic_try_cmpxchg_release() - atomic compare and exchange with release ordering
2192:./include/linux/atomic/atomic-arch-fallback.h ****  * @v: pointer to atomic_t
2193:./include/linux/atomic/atomic-arch-fallback.h ****  * @old: pointer to int value to compare with
2194:./include/linux/atomic/atomic-arch-fallback.h ****  * @new: int value to assign
2195:./include/linux/atomic/atomic-arch-fallback.h ****  *
2196:./include/linux/atomic/atomic-arch-fallback.h ****  * If (@v == @old), atomically updates @v to @new with release ordering.
2197:./include/linux/atomic/atomic-arch-fallback.h ****  * Otherwise, @v is not modified, @old is updated to the current value of @v,
2198:./include/linux/atomic/atomic-arch-fallback.h ****  * and relaxed ordering is provided.
2199:./include/linux/atomic/atomic-arch-fallback.h ****  *
2200:./include/linux/atomic/atomic-arch-fallback.h ****  * Safe to use in noinstr code; prefer atomic_try_cmpxchg_release() elsewhere.
2201:./include/linux/atomic/atomic-arch-fallback.h ****  *
2202:./include/linux/atomic/atomic-arch-fallback.h ****  * Return: @true if the exchange occured, @false otherwise.
2203:./include/linux/atomic/atomic-arch-fallback.h ****  */
2204:./include/linux/atomic/atomic-arch-fallback.h **** static __always_inline bool
2205:./include/linux/atomic/atomic-arch-fallback.h **** raw_atomic_try_cmpxchg_release(atomic_t *v, int *old, int new)
2206:./include/linux/atomic/atomic-arch-fallback.h **** {
2207:./include/linux/atomic/atomic-arch-fallback.h **** #if defined(arch_atomic_try_cmpxchg_release)
2208:./include/linux/atomic/atomic-arch-fallback.h **** 	return arch_atomic_try_cmpxchg_release(v, old, new);
2209:./include/linux/atomic/atomic-arch-fallback.h **** #elif defined(arch_atomic_try_cmpxchg_relaxed)
2210:./include/linux/atomic/atomic-arch-fallback.h **** 	__atomic_release_fence();
2211:./include/linux/atomic/atomic-arch-fallback.h **** 	return arch_atomic_try_cmpxchg_relaxed(v, old, new);
2212:./include/linux/atomic/atomic-arch-fallback.h **** #elif defined(arch_atomic_try_cmpxchg)
2213:./include/linux/atomic/atomic-arch-fallback.h **** 	return arch_atomic_try_cmpxchg(v, old, new);
2214:./include/linux/atomic/atomic-arch-fallback.h **** #else
2215:./include/linux/atomic/atomic-arch-fallback.h **** 	int r, o = *old;
ARM GAS  /tmp/ccnTZmpF.s 			page 128


2216:./include/linux/atomic/atomic-arch-fallback.h **** 	r = raw_atomic_cmpxchg_release(v, o, new);
2217:./include/linux/atomic/atomic-arch-fallback.h **** 	if (unlikely(r != o))
2218:./include/linux/atomic/atomic-arch-fallback.h **** 		*old = r;
2219:./include/linux/atomic/atomic-arch-fallback.h **** 	return likely(r == o);
2220:./include/linux/atomic/atomic-arch-fallback.h **** #endif
2221:./include/linux/atomic/atomic-arch-fallback.h **** }
2222:./include/linux/atomic/atomic-arch-fallback.h **** 
2223:./include/linux/atomic/atomic-arch-fallback.h **** /**
2224:./include/linux/atomic/atomic-arch-fallback.h ****  * raw_atomic_try_cmpxchg_relaxed() - atomic compare and exchange with relaxed ordering
2225:./include/linux/atomic/atomic-arch-fallback.h ****  * @v: pointer to atomic_t
2226:./include/linux/atomic/atomic-arch-fallback.h ****  * @old: pointer to int value to compare with
2227:./include/linux/atomic/atomic-arch-fallback.h ****  * @new: int value to assign
2228:./include/linux/atomic/atomic-arch-fallback.h ****  *
2229:./include/linux/atomic/atomic-arch-fallback.h ****  * If (@v == @old), atomically updates @v to @new with relaxed ordering.
2230:./include/linux/atomic/atomic-arch-fallback.h ****  * Otherwise, @v is not modified, @old is updated to the current value of @v,
2231:./include/linux/atomic/atomic-arch-fallback.h ****  * and relaxed ordering is provided.
2232:./include/linux/atomic/atomic-arch-fallback.h ****  *
2233:./include/linux/atomic/atomic-arch-fallback.h ****  * Safe to use in noinstr code; prefer atomic_try_cmpxchg_relaxed() elsewhere.
2234:./include/linux/atomic/atomic-arch-fallback.h ****  *
2235:./include/linux/atomic/atomic-arch-fallback.h ****  * Return: @true if the exchange occured, @false otherwise.
2236:./include/linux/atomic/atomic-arch-fallback.h ****  */
2237:./include/linux/atomic/atomic-arch-fallback.h **** static __always_inline bool
2238:./include/linux/atomic/atomic-arch-fallback.h **** raw_atomic_try_cmpxchg_relaxed(atomic_t *v, int *old, int new)
2239:./include/linux/atomic/atomic-arch-fallback.h **** {
2240:./include/linux/atomic/atomic-arch-fallback.h **** #if defined(arch_atomic_try_cmpxchg_relaxed)
2241:./include/linux/atomic/atomic-arch-fallback.h **** 	return arch_atomic_try_cmpxchg_relaxed(v, old, new);
2242:./include/linux/atomic/atomic-arch-fallback.h **** #elif defined(arch_atomic_try_cmpxchg)
2243:./include/linux/atomic/atomic-arch-fallback.h **** 	return arch_atomic_try_cmpxchg(v, old, new);
2244:./include/linux/atomic/atomic-arch-fallback.h **** #else
2245:./include/linux/atomic/atomic-arch-fallback.h **** 	int r, o = *old;
2246:./include/linux/atomic/atomic-arch-fallback.h **** 	r = raw_atomic_cmpxchg_relaxed(v, o, new);
2247:./include/linux/atomic/atomic-arch-fallback.h **** 	if (unlikely(r != o))
2248:./include/linux/atomic/atomic-arch-fallback.h **** 		*old = r;
2249:./include/linux/atomic/atomic-arch-fallback.h **** 	return likely(r == o);
2250:./include/linux/atomic/atomic-arch-fallback.h **** #endif
2251:./include/linux/atomic/atomic-arch-fallback.h **** }
2252:./include/linux/atomic/atomic-arch-fallback.h **** 
2253:./include/linux/atomic/atomic-arch-fallback.h **** /**
2254:./include/linux/atomic/atomic-arch-fallback.h ****  * raw_atomic_sub_and_test() - atomic subtract and test if zero with full ordering
2255:./include/linux/atomic/atomic-arch-fallback.h ****  * @i: int value to subtract
2256:./include/linux/atomic/atomic-arch-fallback.h ****  * @v: pointer to atomic_t
2257:./include/linux/atomic/atomic-arch-fallback.h ****  *
2258:./include/linux/atomic/atomic-arch-fallback.h ****  * Atomically updates @v to (@v - @i) with full ordering.
2259:./include/linux/atomic/atomic-arch-fallback.h ****  *
2260:./include/linux/atomic/atomic-arch-fallback.h ****  * Safe to use in noinstr code; prefer atomic_sub_and_test() elsewhere.
2261:./include/linux/atomic/atomic-arch-fallback.h ****  *
2262:./include/linux/atomic/atomic-arch-fallback.h ****  * Return: @true if the resulting value of @v is zero, @false otherwise.
2263:./include/linux/atomic/atomic-arch-fallback.h ****  */
2264:./include/linux/atomic/atomic-arch-fallback.h **** static __always_inline bool
2265:./include/linux/atomic/atomic-arch-fallback.h **** raw_atomic_sub_and_test(int i, atomic_t *v)
2266:./include/linux/atomic/atomic-arch-fallback.h **** {
2267:./include/linux/atomic/atomic-arch-fallback.h **** #if defined(arch_atomic_sub_and_test)
2268:./include/linux/atomic/atomic-arch-fallback.h **** 	return arch_atomic_sub_and_test(i, v);
2269:./include/linux/atomic/atomic-arch-fallback.h **** #else
2270:./include/linux/atomic/atomic-arch-fallback.h **** 	return raw_atomic_sub_return(i, v) == 0;
2271:./include/linux/atomic/atomic-arch-fallback.h **** #endif
2272:./include/linux/atomic/atomic-arch-fallback.h **** }
ARM GAS  /tmp/ccnTZmpF.s 			page 129


2273:./include/linux/atomic/atomic-arch-fallback.h **** 
2274:./include/linux/atomic/atomic-arch-fallback.h **** /**
2275:./include/linux/atomic/atomic-arch-fallback.h ****  * raw_atomic_dec_and_test() - atomic decrement and test if zero with full ordering
2276:./include/linux/atomic/atomic-arch-fallback.h ****  * @v: pointer to atomic_t
2277:./include/linux/atomic/atomic-arch-fallback.h ****  *
2278:./include/linux/atomic/atomic-arch-fallback.h ****  * Atomically updates @v to (@v - 1) with full ordering.
2279:./include/linux/atomic/atomic-arch-fallback.h ****  *
2280:./include/linux/atomic/atomic-arch-fallback.h ****  * Safe to use in noinstr code; prefer atomic_dec_and_test() elsewhere.
2281:./include/linux/atomic/atomic-arch-fallback.h ****  *
2282:./include/linux/atomic/atomic-arch-fallback.h ****  * Return: @true if the resulting value of @v is zero, @false otherwise.
2283:./include/linux/atomic/atomic-arch-fallback.h ****  */
2284:./include/linux/atomic/atomic-arch-fallback.h **** static __always_inline bool
2285:./include/linux/atomic/atomic-arch-fallback.h **** raw_atomic_dec_and_test(atomic_t *v)
 1526              		.loc 8 2285 1 view .LVU386
2286:./include/linux/atomic/atomic-arch-fallback.h **** {
2287:./include/linux/atomic/atomic-arch-fallback.h **** #if defined(arch_atomic_dec_and_test)
2288:./include/linux/atomic/atomic-arch-fallback.h **** 	return arch_atomic_dec_and_test(v);
2289:./include/linux/atomic/atomic-arch-fallback.h **** #else
2290:./include/linux/atomic/atomic-arch-fallback.h **** 	return raw_atomic_dec_return(v) == 0;
 1527              		.loc 8 2290 2 view .LVU387
 1528              	.LBB119:
 1529              	.LBI119:
1237:./include/linux/atomic/atomic-arch-fallback.h **** {
 1530              		.loc 8 1237 1 view .LVU388
1248:./include/linux/atomic/atomic-arch-fallback.h **** #endif
 1531              		.loc 8 1248 2 view .LVU389
 1532              	.LVL130:
 1533              	.LBB120:
 1534              	.LBI120:
 790:./include/linux/atomic/atomic-arch-fallback.h **** {
 1535              		.loc 8 790 1 view .LVU390
 1536              	.LBB121:
 795:./include/linux/atomic/atomic-arch-fallback.h **** 	__atomic_pre_full_fence();
 1537              		.loc 8 795 2 view .LVU391
 796:./include/linux/atomic/atomic-arch-fallback.h **** 	ret = arch_atomic_sub_return_relaxed(i, v);
 1538              		.loc 8 796 2 view .LVU392
 1539              	.LBB122:
 1540              	.LBI122:
 1541              		.file 9 "./include/asm-generic/barrier.h"
   1:./include/asm-generic/barrier.h **** /* SPDX-License-Identifier: GPL-2.0-or-later */
   2:./include/asm-generic/barrier.h **** /*
   3:./include/asm-generic/barrier.h ****  * Generic barrier definitions.
   4:./include/asm-generic/barrier.h ****  *
   5:./include/asm-generic/barrier.h ****  * It should be possible to use these on really simple architectures,
   6:./include/asm-generic/barrier.h ****  * but it serves more as a starting point for new ports.
   7:./include/asm-generic/barrier.h ****  *
   8:./include/asm-generic/barrier.h ****  * Copyright (C) 2007 Red Hat, Inc. All Rights Reserved.
   9:./include/asm-generic/barrier.h ****  * Written by David Howells (dhowells@redhat.com)
  10:./include/asm-generic/barrier.h ****  */
  11:./include/asm-generic/barrier.h **** 
  12:./include/asm-generic/barrier.h **** #include <linux/rwonce.h>
  13:./include/asm-generic/barrier.h **** 
  14:./include/asm-generic/barrier.h **** static inline void sync(void)
  15:./include/asm-generic/barrier.h **** {
  16:./include/asm-generic/barrier.h **** 	asm volatile("sync" : : : "memory");
  17:./include/asm-generic/barrier.h **** }
  18:./include/asm-generic/barrier.h **** 
ARM GAS  /tmp/ccnTZmpF.s 			page 130


  19:./include/asm-generic/barrier.h **** static inline void eieio(void)
  20:./include/asm-generic/barrier.h **** {
  21:./include/asm-generic/barrier.h **** 	asm volatile("eieio" : : : "memory");
  22:./include/asm-generic/barrier.h **** }
  23:./include/asm-generic/barrier.h **** 
  24:./include/asm-generic/barrier.h **** static inline void barrier(void)
 1542              		.loc 9 24 20 view .LVU393
 1543              	.LBB123:
  25:./include/asm-generic/barrier.h **** {
  26:./include/asm-generic/barrier.h **** 	asm volatile("" : : : "memory");
 1544              		.loc 9 26 2 view .LVU394
 1545              	.LBE123:
 1546              	.LBE122:
 797:./include/linux/atomic/atomic-arch-fallback.h **** 	__atomic_post_full_fence();
 1547              		.loc 8 797 2 view .LVU395
 1548              	.LVL131:
 1549              	.LBB124:
 1550              	.LBI124:
 1551              		.file 10 "./arch/arm_m/include/asm/atomic.h"
   1:./arch/arm_m/include/asm/atomic.h **** /* SPDX-License-Identifier: GPL-2.0-only */
   2:./arch/arm_m/include/asm/atomic.h **** /*
   3:./arch/arm_m/include/asm/atomic.h ****  * arch/arm/include/asm/atomic.h
   4:./arch/arm_m/include/asm/atomic.h ****  *
   5:./arch/arm_m/include/asm/atomic.h ****  * Copyright (C) 1996 Russell King.
   6:./arch/arm_m/include/asm/atomic.h ****  * Copyright (C) 2002 Deep Blue Solutions Ltd.
   7:./arch/arm_m/include/asm/atomic.h ****  * Modified for uClinux on STM32F407
   8:./arch/arm_m/include/asm/atomic.h ****  */
   9:./arch/arm_m/include/asm/atomic.h **** #ifndef __ASM_ARM_ATOMIC_H
  10:./arch/arm_m/include/asm/atomic.h **** #define __ASM_ARM_ATOMIC_H
  11:./arch/arm_m/include/asm/atomic.h **** 
  12:./arch/arm_m/include/asm/atomic.h **** #include <linux/compiler.h> /* Available */
  13:./arch/arm_m/include/asm/atomic.h **** #include <linux/types.h>    /* Available */
  14:./arch/arm_m/include/asm/atomic.h **** #include <asm/barrier.h>    /* Available */
  15:./arch/arm_m/include/asm/atomic.h **** 
  16:./arch/arm_m/include/asm/atomic.h **** /* Include architecture-specific configuration */
  17:./arch/arm_m/include/asm/atomic.h **** 
  18:./arch/arm_m/include/asm/atomic.h **** 
  19:./arch/arm_m/include/asm/atomic.h **** #ifdef __KERNEL__
  20:./arch/arm_m/include/asm/atomic.h **** 
  21:./arch/arm_m/include/asm/atomic.h **** 
  22:./arch/arm_m/include/asm/atomic.h **** 
  23:./arch/arm_m/include/asm/atomic.h **** 
  24:./arch/arm_m/include/asm/atomic.h **** 
  25:./arch/arm_m/include/asm/atomic.h **** // typedef struct {
  26:./arch/arm_m/include/asm/atomic.h **** //     volatile int counter;
  27:./arch/arm_m/include/asm/atomic.h **** // } atomic_t;
  28:./arch/arm_m/include/asm/atomic.h **** 
  29:./arch/arm_m/include/asm/atomic.h **** #define ATOMIC_INIT(i) { (i) }
  30:./arch/arm_m/include/asm/atomic.h **** 
  31:./arch/arm_m/include/asm/atomic.h **** /*
  32:./arch/arm_m/include/asm/atomic.h ****  * On ARMv7-M, ordinary assignment (str instruction) doesn't clear the local
  33:./arch/arm_m/include/asm/atomic.h ****  * strex/ldrex monitor on some implementations. The reason we can use it for
  34:./arch/arm_m/include/asm/atomic.h ****  * atomic_set() is the clrex or dummy strex done on every exception return.
  35:./arch/arm_m/include/asm/atomic.h ****  */
  36:./arch/arm_m/include/asm/atomic.h **** #define arch_atomic_read(v) READ_ONCE((v)->counter)
  37:./arch/arm_m/include/asm/atomic.h **** #define arch_atomic_set(v,i)    WRITE_ONCE(((v)->counter), (i))
  38:./arch/arm_m/include/asm/atomic.h **** 
ARM GAS  /tmp/ccnTZmpF.s 			page 131


  39:./arch/arm_m/include/asm/atomic.h **** /*
  40:./arch/arm_m/include/asm/atomic.h ****  * ARMv6 UP and SMP safe atomic ops.  We use load exclusive and
  41:./arch/arm_m/include/asm/atomic.h ****  * store exclusive to ensure that these are atomic.  We may loop
  42:./arch/arm_m/include/asm/atomic.h ****  * to ensure that the update happens.
  43:./arch/arm_m/include/asm/atomic.h ****  *
  44:./arch/arm_m/include/asm/atomic.h ****  * For STM32F407 (Cortex-M4, ARMv7-M), these instructions are available.
  45:./arch/arm_m/include/asm/atomic.h ****  */
  46:./arch/arm_m/include/asm/atomic.h **** 
  47:./arch/arm_m/include/asm/atomic.h **** #define ATOMIC_OP(op, c_op, asm_op)                     \
  48:./arch/arm_m/include/asm/atomic.h **** static inline void arch_atomic_##op(int i, atomic_t *v)         \
  49:./arch/arm_m/include/asm/atomic.h **** {                                       \
  50:./arch/arm_m/include/asm/atomic.h ****     unsigned long tmp;                          \
  51:./arch/arm_m/include/asm/atomic.h ****     int result;                                 \
  52:./arch/arm_m/include/asm/atomic.h ****                                         \
  53:./arch/arm_m/include/asm/atomic.h ****     /* prefetchw(&v->counter); - prefetch not available */ \
  54:./arch/arm_m/include/asm/atomic.h ****     __asm__ __volatile__("@ atomic_" #op "\n"           \
  55:./arch/arm_m/include/asm/atomic.h **** "1: ldrex   %0, [%3]\n"                      \
  56:./arch/arm_m/include/asm/atomic.h **** "   " #asm_op " %0, %0, %4\n"                \
  57:./arch/arm_m/include/asm/atomic.h **** "   strex   %1, %0, [%3]\n"                      \
  58:./arch/arm_m/include/asm/atomic.h **** "   teq %1, #0\n"                         \
  59:./arch/arm_m/include/asm/atomic.h **** "   bne 1b"                                \
  60:./arch/arm_m/include/asm/atomic.h ****     : "=&r" (result), "=&r" (tmp), "+Qo" (v->counter)     \
  61:./arch/arm_m/include/asm/atomic.h ****     : "r" (&v->counter), "Ir" (i)                 \
  62:./arch/arm_m/include/asm/atomic.h ****     : "cc");                                   \
  63:./arch/arm_m/include/asm/atomic.h **** }
  64:./arch/arm_m/include/asm/atomic.h **** 
  65:./arch/arm_m/include/asm/atomic.h **** #define ATOMIC_OP_RETURN(op, c_op, asm_op)                  \
  66:./arch/arm_m/include/asm/atomic.h **** static inline int arch_atomic_##op##_return_relaxed(int i, atomic_t *v) \
  67:./arch/arm_m/include/asm/atomic.h **** {                                       \
  68:./arch/arm_m/include/asm/atomic.h ****     unsigned long tmp;                          \
  69:./arch/arm_m/include/asm/atomic.h ****     int result;                                 \
  70:./arch/arm_m/include/asm/atomic.h ****                                         \
  71:./arch/arm_m/include/asm/atomic.h ****     /* prefetchw(&v->counter); - prefetch not available */ \
  72:./arch/arm_m/include/asm/atomic.h ****     __asm__ __volatile__("@ atomic_" #op "_return\n"        \
  73:./arch/arm_m/include/asm/atomic.h **** "1: ldrex   %0, [%3]\n"                      \
  74:./arch/arm_m/include/asm/atomic.h **** "   " #asm_op " %0, %0, %4\n"                \
  75:./arch/arm_m/include/asm/atomic.h **** "   strex   %1, %0, [%3]\n"                      \
  76:./arch/arm_m/include/asm/atomic.h **** "   teq %1, #0\n"                         \
  77:./arch/arm_m/include/asm/atomic.h **** "   bne 1b"                                \
  78:./arch/arm_m/include/asm/atomic.h ****     : "=&r" (result), "=&r" (tmp), "+Qo" (v->counter)     \
  79:./arch/arm_m/include/asm/atomic.h ****     : "r" (&v->counter), "Ir" (i)                 \
  80:./arch/arm_m/include/asm/atomic.h ****     : "cc");                                   \
  81:./arch/arm_m/include/asm/atomic.h ****                                         \
  82:./arch/arm_m/include/asm/atomic.h ****     return result;                              \
  83:./arch/arm_m/include/asm/atomic.h **** }
  84:./arch/arm_m/include/asm/atomic.h **** 
  85:./arch/arm_m/include/asm/atomic.h **** #define ATOMIC_FETCH_OP(op, c_op, asm_op)                   \
  86:./arch/arm_m/include/asm/atomic.h **** static inline int arch_atomic_fetch_##op##_relaxed(int i, atomic_t *v)  \
  87:./arch/arm_m/include/asm/atomic.h **** {                                       \
  88:./arch/arm_m/include/asm/atomic.h ****     unsigned long tmp;                          \
  89:./arch/arm_m/include/asm/atomic.h ****     int result, val;                             \
  90:./arch/arm_m/include/asm/atomic.h ****                                         \
  91:./arch/arm_m/include/asm/atomic.h ****     /* prefetchw(&v->counter); - prefetch not available */ \
  92:./arch/arm_m/include/asm/atomic.h ****     __asm__ __volatile__("@ atomic_fetch_" #op "\n"       \
  93:./arch/arm_m/include/asm/atomic.h **** "1: ldrex   %0, [%4]\n"                      \
  94:./arch/arm_m/include/asm/atomic.h **** "   " #asm_op " %1, %0, %5\n"                \
  95:./arch/arm_m/include/asm/atomic.h **** "   strex   %2, %1, [%4]\n"                      \
ARM GAS  /tmp/ccnTZmpF.s 			page 132


  96:./arch/arm_m/include/asm/atomic.h **** "   teq %2, #0\n"                         \
  97:./arch/arm_m/include/asm/atomic.h **** "   bne 1b"                                \
  98:./arch/arm_m/include/asm/atomic.h ****     : "=&r" (result), "=&r" (val), "=&r" (tmp), "+Qo" (v->counter) \
  99:./arch/arm_m/include/asm/atomic.h ****     : "r" (&v->counter), "Ir" (i)                 \
 100:./arch/arm_m/include/asm/atomic.h ****     : "cc");                                   \
 101:./arch/arm_m/include/asm/atomic.h ****                                         \
 102:./arch/arm_m/include/asm/atomic.h ****     return result;                              \
 103:./arch/arm_m/include/asm/atomic.h **** }
 104:./arch/arm_m/include/asm/atomic.h **** 
 105:./arch/arm_m/include/asm/atomic.h **** #define arch_atomic_add_return_relaxed       arch_atomic_add_return_relaxed
 106:./arch/arm_m/include/asm/atomic.h **** #define arch_atomic_sub_return_relaxed       arch_atomic_sub_return_relaxed
 107:./arch/arm_m/include/asm/atomic.h **** #define arch_atomic_fetch_add_relaxed        arch_atomic_fetch_add_relaxed
 108:./arch/arm_m/include/asm/atomic.h **** #define arch_atomic_fetch_sub_relaxed        arch_atomic_fetch_sub_relaxed
 109:./arch/arm_m/include/asm/atomic.h **** 
 110:./arch/arm_m/include/asm/atomic.h **** #define arch_atomic_fetch_and_relaxed        arch_atomic_fetch_and_relaxed
 111:./arch/arm_m/include/asm/atomic.h **** #define arch_atomic_fetch_andnot_relaxed     arch_atomic_fetch_andnot_relaxed
 112:./arch/arm_m/include/asm/atomic.h **** #define arch_atomic_fetch_or_relaxed         arch_atomic_fetch_or_relaxed
 113:./arch/arm_m/include/asm/atomic.h **** #define arch_atomic_fetch_xor_relaxed        arch_atomic_fetch_xor_relaxed
 114:./arch/arm_m/include/asm/atomic.h **** 
 115:./arch/arm_m/include/asm/atomic.h **** static inline int arch_atomic_cmpxchg_relaxed(atomic_t *ptr, int old, int new)
 116:./arch/arm_m/include/asm/atomic.h **** {
 117:./arch/arm_m/include/asm/atomic.h ****     int oldval;
 118:./arch/arm_m/include/asm/atomic.h ****     unsigned long res;
 119:./arch/arm_m/include/asm/atomic.h **** 
 120:./arch/arm_m/include/asm/atomic.h ****     /* prefetchw(&ptr->counter); - prefetch not available */
 121:./arch/arm_m/include/asm/atomic.h **** 
 122:./arch/arm_m/include/asm/atomic.h ****     do {
 123:./arch/arm_m/include/asm/atomic.h ****         __asm__ __volatile__("@ atomic_cmpxchg\n"
 124:./arch/arm_m/include/asm/atomic.h **** "   ldrex   %1, [%3]\n"
 125:./arch/arm_m/include/asm/atomic.h **** "   mov     %0, #0\n"
 126:./arch/arm_m/include/asm/atomic.h **** "   teq     %1, %4\n"
 127:./arch/arm_m/include/asm/atomic.h **** "   strexeq %0, %5, [%3]\n"
 128:./arch/arm_m/include/asm/atomic.h ****         : "=&r" (res), "=&r" (oldval), "+Qo" (ptr->counter)
 129:./arch/arm_m/include/asm/atomic.h ****         : "r" (&ptr->counter), "Ir" (old), "r" (new)
 130:./arch/arm_m/include/asm/atomic.h ****         : "cc");
 131:./arch/arm_m/include/asm/atomic.h ****     } while (res);
 132:./arch/arm_m/include/asm/atomic.h **** 
 133:./arch/arm_m/include/asm/atomic.h ****     return oldval;
 134:./arch/arm_m/include/asm/atomic.h **** }
 135:./arch/arm_m/include/asm/atomic.h **** #define arch_atomic_cmpxchg_relaxed        arch_atomic_cmpxchg_relaxed
 136:./arch/arm_m/include/asm/atomic.h **** 
 137:./arch/arm_m/include/asm/atomic.h **** static inline int arch_atomic_fetch_add_unless(atomic_t *v, int a, int u)
 138:./arch/arm_m/include/asm/atomic.h **** {
 139:./arch/arm_m/include/asm/atomic.h ****     int oldval, newval;
 140:./arch/arm_m/include/asm/atomic.h ****     unsigned long tmp;
 141:./arch/arm_m/include/asm/atomic.h **** 
 142:./arch/arm_m/include/asm/atomic.h ****     /* smp_mb(); - Memory barriers might need specific implementation */
 143:./arch/arm_m/include/asm/atomic.h ****     /* prefetchw(&v->counter); - prefetch not available */
 144:./arch/arm_m/include/asm/atomic.h **** 
 145:./arch/arm_m/include/asm/atomic.h ****     __asm__ __volatile__ ("@ atomic_add_unless\n"
 146:./arch/arm_m/include/asm/atomic.h **** "1: ldrex   %0, [%4]\n"
 147:./arch/arm_m/include/asm/atomic.h **** "   teq %0, %5\n"
 148:./arch/arm_m/include/asm/atomic.h **** "   beq 2f\n"
 149:./arch/arm_m/include/asm/atomic.h **** "   add %1, %0, %6\n"
 150:./arch/arm_m/include/asm/atomic.h **** "   strex   %2, %1, [%4]\n"
 151:./arch/arm_m/include/asm/atomic.h **** "   teq %2, #0\n"
 152:./arch/arm_m/include/asm/atomic.h **** "   bne 1b\n"
ARM GAS  /tmp/ccnTZmpF.s 			page 133


 153:./arch/arm_m/include/asm/atomic.h **** "2:"
 154:./arch/arm_m/include/asm/atomic.h ****     : "=&r" (oldval), "=&r" (newval), "=&r" (tmp), "+Qo" (v->counter)
 155:./arch/arm_m/include/asm/atomic.h ****     : "r" (&v->counter), "r" (u), "r" (a)
 156:./arch/arm_m/include/asm/atomic.h ****     : "cc");
 157:./arch/arm_m/include/asm/atomic.h **** 
 158:./arch/arm_m/include/asm/atomic.h ****     if (oldval != u)
 159:./arch/arm_m/include/asm/atomic.h ****         ; /* smp_mb(); - Memory barriers might need specific implementation */
 160:./arch/arm_m/include/asm/atomic.h **** 
 161:./arch/arm_m/include/asm/atomic.h ****     return oldval;
 162:./arch/arm_m/include/asm/atomic.h **** }
 163:./arch/arm_m/include/asm/atomic.h **** #define arch_atomic_fetch_add_unless         arch_atomic_fetch_add_unless
 164:./arch/arm_m/include/asm/atomic.h **** 
 165:./arch/arm_m/include/asm/atomic.h **** #define ATOMIC_OPS(op, c_op, asm_op)                    \
 166:./arch/arm_m/include/asm/atomic.h ****     ATOMIC_OP(op, c_op, asm_op)                     \
 167:./arch/arm_m/include/asm/atomic.h ****     ATOMIC_OP_RETURN(op, c_op, asm_op)                  \
 168:./arch/arm_m/include/asm/atomic.h ****     ATOMIC_FETCH_OP(op, c_op, asm_op)
 169:./arch/arm_m/include/asm/atomic.h **** 
 170:./arch/arm_m/include/asm/atomic.h **** ATOMIC_OPS(add, +=, add)
 171:./arch/arm_m/include/asm/atomic.h **** ATOMIC_OPS(sub, -=, sub)
 1552              		.loc 10 171 1 view .LVU396
 1553              	.LBB125:
 1554              		.loc 10 171 1 view .LVU397
 1555              		.loc 10 171 1 view .LVU398
 1556              		.loc 10 171 1 view .LVU399
 1557              		.syntax unified
 1558              	@ 171 "./arch/arm_m/include/asm/atomic.h" 1
 1559              		@ atomic_sub_return
 1560 000a 53E8001F 	1: ldrex   r1, [r3]
 1561 000e A1F10101 	   sub r1, r1, #1
 1562 0012 43E80010 	   strex   r0, r1, [r3]
 1563 0016 90F0000F 	   teq r0, #0
 1564 001a F6D1     	   bne 1b
 1565              	@ 0 "" 2
 1566              	.LVL132:
 1567              		.loc 10 171 1 view .LVU400
 1568              		.loc 10 171 1 is_stmt 0 view .LVU401
 1569              		.thumb
 1570              		.syntax unified
 1571              	.LBE125:
 1572              	.LBE124:
 798:./include/linux/atomic/atomic-arch-fallback.h **** 	return ret;
 1573              		.loc 8 798 2 is_stmt 1 view .LVU402
 1574              	.LBB126:
 1575              	.LBI126:
  24:./include/asm-generic/barrier.h **** {
 1576              		.loc 9 24 20 view .LVU403
 1577              	.LBB127:
 1578              		.loc 9 26 2 view .LVU404
 1579              	.LBE127:
 1580              	.LBE126:
 799:./include/linux/atomic/atomic-arch-fallback.h **** #else
 1581              		.loc 8 799 2 view .LVU405
 1582              	.LVL133:
 799:./include/linux/atomic/atomic-arch-fallback.h **** #else
 1583              		.loc 8 799 2 is_stmt 0 view .LVU406
 1584              	.LBE121:
 1585              	.LBE120:
ARM GAS  /tmp/ccnTZmpF.s 			page 134


 1586              	.LBE119:
 1587              	.LBE118:
 1588              	.LBE117:
 259:./include/linux/mm_type.h ****         __free_pages(page, 0);
 1589              		.loc 2 259 14 discriminator 1 view .LVU407
 1590 001c 19B1     		cbz	r1, .L89
 1591              	.L86:
 262:./include/linux/mm_type.h **** 		__free_pages(page, 0);
 1592              		.loc 2 262 7 is_stmt 1 view .LVU408
 262:./include/linux/mm_type.h **** 		__free_pages(page, 0);
 1593              		.loc 2 262 25 is_stmt 0 view .LVU409
 1594 001e D369     		ldr	r3, [r2, #28]
 262:./include/linux/mm_type.h **** 		__free_pages(page, 0);
 1595              		.loc 2 262 9 view .LVU410
 1596 0020 002B     		cmp	r3, #0
 1597 0022 04DB     		blt	.L90
 1598              	.LVL134:
 1599              	.L85:
 265:./include/linux/mm_type.h **** 
 1600              		.loc 2 265 1 view .LVU411
 1601 0024 08BD     		pop	{r3, pc}
 1602              	.LVL135:
 1603              	.L89:
 260:./include/linux/mm_type.h ****     }
 1604              		.loc 2 260 9 is_stmt 1 view .LVU412
 1605 0026 1046     		mov	r0, r2
 1606 0028 FFF7FEFF 		bl	__free_pages
 1607              	.LVL136:
 260:./include/linux/mm_type.h ****     }
 1608              		.loc 2 260 9 is_stmt 0 view .LVU413
 1609 002c FAE7     		b	.L85
 1610              	.LVL137:
 1611              	.L90:
 263:./include/linux/mm_type.h **** 	}
 1612              		.loc 2 263 3 is_stmt 1 view .LVU414
 1613 002e 0021     		movs	r1, #0
 1614 0030 1046     		mov	r0, r2
 1615 0032 FFF7FEFF 		bl	__free_pages
 1616              	.LVL138:
 265:./include/linux/mm_type.h **** 
 1617              		.loc 2 265 1 is_stmt 0 view .LVU415
 1618 0036 F5E7     		b	.L85
 1619              		.cfi_endproc
 1620              	.LFE917:
 1622              		.section	.rodata.w25qxx_request.str1.4,"aMS",%progbits,1
 1623              		.align	2
 1624              	.LC12:
 1625 0000 77323571 		.ascii	"w25qxx: read page:%d (%d b)\012\000"
 1625      78783A20 
 1625      72656164 
 1625      20706167 
 1625      653A2564 
 1626 001d 000000   		.align	2
 1627              	.LC13:
 1628 0020 77323571 		.ascii	"w25qxx: write page:%d (%d b)\012\000"
 1628      78783A20 
 1628      77726974 
ARM GAS  /tmp/ccnTZmpF.s 			page 135


 1628      65207061 
 1628      67653A25 
 1629              		.section	.text.w25qxx_request,"ax",%progbits
 1630              		.align	1
 1631              		.syntax unified
 1632              		.thumb
 1633              		.thumb_func
 1635              	w25qxx_request:
 1636              	.LVL139:
 1637              	.LFB1052:
  34:./drivers/storage/w25qxx/w25qxx.c **** 
  35:./drivers/storage/w25qxx/w25qxx.c **** 
  36:./drivers/storage/w25qxx/w25qxx.c **** static void w25qxx_request(struct request *req )
  37:./drivers/storage/w25qxx/w25qxx.c **** {
 1638              		.loc 1 37 1 is_stmt 1 view -0
 1639              		.cfi_startproc
 1640              		@ args = 0, pretend = 0, frame = 16
 1641              		@ frame_needed = 0, uses_anonymous_args = 0
  38:./drivers/storage/w25qxx/w25qxx.c ****     if(req == NULL) return;
 1642              		.loc 1 38 5 view .LVU417
 1643              		.loc 1 38 7 is_stmt 0 view .LVU418
 1644 0000 0028     		cmp	r0, #0
 1645 0002 00F0BA80 		beq	.L105
  37:./drivers/storage/w25qxx/w25qxx.c ****     if(req == NULL) return;
 1646              		.loc 1 37 1 view .LVU419
 1647 0006 2DE9F04F 		push	{r4, r5, r6, r7, r8, r9, r10, fp, lr}
 1648              	.LCFI33:
 1649              		.cfi_def_cfa_offset 36
 1650              		.cfi_offset 4, -36
 1651              		.cfi_offset 5, -32
 1652              		.cfi_offset 6, -28
 1653              		.cfi_offset 7, -24
 1654              		.cfi_offset 8, -20
 1655              		.cfi_offset 9, -16
 1656              		.cfi_offset 10, -12
 1657              		.cfi_offset 11, -8
 1658              		.cfi_offset 14, -4
 1659 000a 85B0     		sub	sp, sp, #20
 1660              	.LCFI34:
 1661              		.cfi_def_cfa_offset 56
  39:./drivers/storage/w25qxx/w25qxx.c ****     struct bio *bio2;
 1662              		.loc 1 39 5 is_stmt 1 view .LVU420
  40:./drivers/storage/w25qxx/w25qxx.c ****     struct bio_vec *bvec;
 1663              		.loc 1 40 5 view .LVU421
  41:./drivers/storage/w25qxx/w25qxx.c ****     struct bvec_iter *iter;
 1664              		.loc 1 41 5 view .LVU422
  42:./drivers/storage/w25qxx/w25qxx.c ****     int ret = 0;
 1665              		.loc 1 42 5 view .LVU423
 1666              	.LVL140:
  43:./drivers/storage/w25qxx/w25qxx.c ****     unsigned long start = blk_rq_pos(req);
 1667              		.loc 1 43 5 view .LVU424
 1668              	.LBB128:
 1669              	.LBI128:
 1670              		.file 11 "./include/linux/blk-mq.h"
   1:./include/linux/blk-mq.h **** /* SPDX-License-Identifier: GPL-2.0 */
   2:./include/linux/blk-mq.h **** #ifndef BLK_MQ_H
   3:./include/linux/blk-mq.h **** #define BLK_MQ_H
ARM GAS  /tmp/ccnTZmpF.s 			page 136


   4:./include/linux/blk-mq.h **** 
   5:./include/linux/blk-mq.h **** #include <linux/bio.h>
   6:./include/linux/blk-mq.h **** #include <linux/blkdev.h>
   7:./include/linux/blk-mq.h **** #include <linux/blk_types.h>
   8:./include/linux/blk-mq.h **** #include <linux/list.h> 
   9:./include/linux/blk-mq.h **** 
  10:./include/linux/blk-mq.h **** 
  11:./include/linux/blk-mq.h **** enum rq_end_io_ret {
  12:./include/linux/blk-mq.h **** 	RQ_END_IO_NONE,
  13:./include/linux/blk-mq.h **** 	RQ_END_IO_FREE,
  14:./include/linux/blk-mq.h **** };
  15:./include/linux/blk-mq.h **** 
  16:./include/linux/blk-mq.h **** typedef enum rq_end_io_ret (rq_end_io_fn)(struct request *, blk_status_t);
  17:./include/linux/blk-mq.h **** 
  18:./include/linux/blk-mq.h **** #define BLKDEV_MIN_RQ	4
  19:./include/linux/blk-mq.h **** #define BLKDEV_DEFAULT_RQ	128
  20:./include/linux/blk-mq.h **** 
  21:./include/linux/blk-mq.h **** /*
  22:./include/linux/blk-mq.h ****  * request flags */
  23:./include/linux/blk-mq.h **** typedef __u32 __bitwise req_flags_t;
  24:./include/linux/blk-mq.h **** 
  25:./include/linux/blk-mq.h **** 
  26:./include/linux/blk-mq.h **** /* Keep rqf_name[] in sync with the definitions below */
  27:./include/linux/blk-mq.h **** enum {
  28:./include/linux/blk-mq.h **** 	/* drive already may have started this one */
  29:./include/linux/blk-mq.h **** 	__RQF_STARTED,
  30:./include/linux/blk-mq.h **** 	/* request for flush sequence */
  31:./include/linux/blk-mq.h **** 	__RQF_FLUSH_SEQ,
  32:./include/linux/blk-mq.h **** 	/* merge of different types, fail separately */
  33:./include/linux/blk-mq.h **** 	__RQF_MIXED_MERGE,
  34:./include/linux/blk-mq.h **** 	/* don't call prep for this one */
  35:./include/linux/blk-mq.h **** 	__RQF_DONTPREP,
  36:./include/linux/blk-mq.h **** 	/* use hctx->sched_tags */
  37:./include/linux/blk-mq.h **** 	__RQF_SCHED_TAGS,
  38:./include/linux/blk-mq.h **** 	/* use an I/O scheduler for this request */
  39:./include/linux/blk-mq.h **** 	__RQF_USE_SCHED,
  40:./include/linux/blk-mq.h **** 	/* vaguely specified driver internal error.  Ignored by block layer */
  41:./include/linux/blk-mq.h **** 	__RQF_FAILED,
  42:./include/linux/blk-mq.h **** 	/* don't warn about errors */
  43:./include/linux/blk-mq.h **** 	__RQF_QUIET,
  44:./include/linux/blk-mq.h **** 	/* account into disk and partition IO statistics */
  45:./include/linux/blk-mq.h **** 	__RQF_IO_STAT,
  46:./include/linux/blk-mq.h **** 	/* runtime pm request */
  47:./include/linux/blk-mq.h **** 	__RQF_PM,
  48:./include/linux/blk-mq.h **** 	/* on IO scheduler merge hash */
  49:./include/linux/blk-mq.h **** 	__RQF_HASHED,
  50:./include/linux/blk-mq.h **** 	/* track IO completion time */
  51:./include/linux/blk-mq.h **** 	__RQF_STATS,
  52:./include/linux/blk-mq.h **** 	/* Look at ->special_vec for the actual data payload instead of the
  53:./include/linux/blk-mq.h **** 	   bio chain. */
  54:./include/linux/blk-mq.h **** 	__RQF_SPECIAL_PAYLOAD,
  55:./include/linux/blk-mq.h **** 	/* request completion needs to be signaled to zone write plugging. */
  56:./include/linux/blk-mq.h **** 	__RQF_ZONE_WRITE_PLUGGING,
  57:./include/linux/blk-mq.h **** 	/* ->timeout has been called, don't expire again */
  58:./include/linux/blk-mq.h **** 	__RQF_TIMED_OUT,
  59:./include/linux/blk-mq.h **** 	__RQF_RESV,
  60:./include/linux/blk-mq.h **** 	__RQF_BITS
ARM GAS  /tmp/ccnTZmpF.s 			page 137


  61:./include/linux/blk-mq.h **** };
  62:./include/linux/blk-mq.h **** 
  63:./include/linux/blk-mq.h **** #define RQF_STARTED		((__force req_flags_t)(1 << __RQF_STARTED))
  64:./include/linux/blk-mq.h **** #define RQF_FLUSH_SEQ		((__force req_flags_t)(1 << __RQF_FLUSH_SEQ))
  65:./include/linux/blk-mq.h **** #define RQF_MIXED_MERGE		((__force req_flags_t)(1 << __RQF_MIXED_MERGE))
  66:./include/linux/blk-mq.h **** #define RQF_DONTPREP		((__force req_flags_t)(1 << __RQF_DONTPREP))
  67:./include/linux/blk-mq.h **** #define RQF_SCHED_TAGS		((__force req_flags_t)(1 << __RQF_SCHED_TAGS))
  68:./include/linux/blk-mq.h **** #define RQF_USE_SCHED		((__force req_flags_t)(1 << __RQF_USE_SCHED))
  69:./include/linux/blk-mq.h **** #define RQF_FAILED		((__force req_flags_t)(1 << __RQF_FAILED))
  70:./include/linux/blk-mq.h **** #define RQF_QUIET		((__force req_flags_t)(1 << __RQF_QUIET))
  71:./include/linux/blk-mq.h **** #define RQF_IO_STAT		((__force req_flags_t)(1 << __RQF_IO_STAT))
  72:./include/linux/blk-mq.h **** #define RQF_PM			((__force req_flags_t)(1 << __RQF_PM))
  73:./include/linux/blk-mq.h **** #define RQF_HASHED		((__force req_flags_t)(1 << __RQF_HASHED))
  74:./include/linux/blk-mq.h **** #define RQF_STATS		((__force req_flags_t)(1 << __RQF_STATS))
  75:./include/linux/blk-mq.h **** #define RQF_SPECIAL_PAYLOAD	\
  76:./include/linux/blk-mq.h **** 			((__force req_flags_t)(1 << __RQF_SPECIAL_PAYLOAD))
  77:./include/linux/blk-mq.h **** #define RQF_ZONE_WRITE_PLUGGING	\
  78:./include/linux/blk-mq.h **** 			((__force req_flags_t)(1 << __RQF_ZONE_WRITE_PLUGGING))
  79:./include/linux/blk-mq.h **** #define RQF_TIMED_OUT		((__force req_flags_t)(1 << __RQF_TIMED_OUT))
  80:./include/linux/blk-mq.h **** #define RQF_RESV		((__force req_flags_t)(1 << __RQF_RESV))
  81:./include/linux/blk-mq.h **** 
  82:./include/linux/blk-mq.h **** /* flags that prevent us from merging requests: */
  83:./include/linux/blk-mq.h **** #define RQF_NOMERGE_FLAGS \
  84:./include/linux/blk-mq.h **** 	(RQF_STARTED | RQF_FLUSH_SEQ | RQF_SPECIAL_PAYLOAD)
  85:./include/linux/blk-mq.h **** 
  86:./include/linux/blk-mq.h **** enum mq_rq_state {
  87:./include/linux/blk-mq.h **** 	MQ_RQ_IDLE		= 0,
  88:./include/linux/blk-mq.h **** 	MQ_RQ_IN_FLIGHT		= 1,
  89:./include/linux/blk-mq.h **** 	MQ_RQ_COMPLETE		= 2,
  90:./include/linux/blk-mq.h **** };
  91:./include/linux/blk-mq.h **** 
  92:./include/linux/blk-mq.h **** /*
  93:./include/linux/blk-mq.h ****  * Try to put the fields that are referenced together in the same cacheline.
  94:./include/linux/blk-mq.h ****  *
  95:./include/linux/blk-mq.h ****  * If you modify this structure, make sure to update blk_rq_init() and
  96:./include/linux/blk-mq.h ****  * especially blk_mq_rq_ctx_init() to take care of the added fields.
  97:./include/linux/blk-mq.h ****  */
  98:./include/linux/blk-mq.h **** 
  99:./include/linux/blk-mq.h **** 
 100:./include/linux/blk-mq.h **** // struct request {
 101:./include/linux/blk-mq.h **** // 	struct request_queue *q;          //
 102:./include/linux/blk-mq.h **** // 	//struct blk_mq_ctx *mq_ctx;		  //
 103:./include/linux/blk-mq.h **** // 	//struct blk_mq_hw_ctx *mq_hctx;      //
 104:./include/linux/blk-mq.h **** 
 105:./include/linux/blk-mq.h **** // 	blk_opf_t cmd_flags;		/* op and common flags */
 106:./include/linux/blk-mq.h **** // 	req_flags_t rq_flags;         //
 107:./include/linux/blk-mq.h **** 
 108:./include/linux/blk-mq.h **** // 	int tag;                     //
 109:./include/linux/blk-mq.h **** // 	int internal_tag;            //
 110:./include/linux/blk-mq.h **** 
 111:./include/linux/blk-mq.h **** // 	unsigned int timeout;        //
 112:./include/linux/blk-mq.h **** 
 113:./include/linux/blk-mq.h **** // 	/* the following two fields are internal, NEVER access directly */
 114:./include/linux/blk-mq.h **** // 	unsigned int __data_len;	//
 115:./include/linux/blk-mq.h **** // 	sector_t __sector;		   ///* sector cursor */
 116:./include/linux/blk-mq.h **** 
 117:./include/linux/blk-mq.h **** // 	struct bio *bio;           // bio bio  I/O 
ARM GAS  /tmp/ccnTZmpF.s 			page 138


 118:./include/linux/blk-mq.h **** // 	struct bio *biotail;
 119:./include/linux/blk-mq.h **** 
 120:./include/linux/blk-mq.h **** // 	union {                              //
 121:./include/linux/blk-mq.h **** // 		struct list_head queuelist;
 122:./include/linux/blk-mq.h **** // 		struct request *rq_next;
 123:./include/linux/blk-mq.h **** // 	};
 124:./include/linux/blk-mq.h **** 
 125:./include/linux/blk-mq.h **** // 	struct block_device *part;           //
 126:./include/linux/blk-mq.h **** // #ifdef CONFIG_BLK_RQ_ALLOC_TIME
 127:./include/linux/blk-mq.h **** // 	/* Time that the first bio started allocating this request. */
 128:./include/linux/blk-mq.h **** // 	u64 alloc_time_ns;      //
 129:./include/linux/blk-mq.h **** // #endif
 130:./include/linux/blk-mq.h **** // 	/* Time that this request was allocated for this IO. */
 131:./include/linux/blk-mq.h **** // 	u64 start_time_ns;        //
 132:./include/linux/blk-mq.h **** // 	/* Time that I/O was submitted to the device. */
 133:./include/linux/blk-mq.h **** // 	u64 io_start_time_ns;     //I/O 
 134:./include/linux/blk-mq.h **** 
 135:./include/linux/blk-mq.h **** // #ifdef CONFIG_BLK_WBT
 136:./include/linux/blk-mq.h **** // 	unsigned short wbt_flags;  //
 137:./include/linux/blk-mq.h **** // #endif
 138:./include/linux/blk-mq.h **** // 	/*
 139:./include/linux/blk-mq.h **** // 	 * rq sectors used for blk stats. It has the same value
 140:./include/linux/blk-mq.h **** // 	 * with blk_rq_sectors(rq), except that it never be zeroed
 141:./include/linux/blk-mq.h **** // 	 * by completion.
 142:./include/linux/blk-mq.h **** // 	 */
 143:./include/linux/blk-mq.h **** // 	unsigned short stats_sectors;  //
 144:./include/linux/blk-mq.h **** 
 145:./include/linux/blk-mq.h **** // 	/*
 146:./include/linux/blk-mq.h **** // 	 * Number of scatter-gather DMA addr+len pairs after
 147:./include/linux/blk-mq.h **** // 	 * physical address coalescing is performed.
 148:./include/linux/blk-mq.h **** // 	 */
 149:./include/linux/blk-mq.h **** // 	//unsigned short nr_phys_segments;   //-
 150:./include/linux/blk-mq.h **** // 	//unsigned short nr_integrity_segments; //
 151:./include/linux/blk-mq.h **** 
 152:./include/linux/blk-mq.h **** // #ifdef CONFIG_BLK_INLINE_ENCRYPTION         //
 153:./include/linux/blk-mq.h **** // 	struct bio_crypt_ctx *crypt_ctx;
 154:./include/linux/blk-mq.h **** // 	struct blk_crypto_keyslot *crypt_keyslot;
 155:./include/linux/blk-mq.h **** // #endif
 156:./include/linux/blk-mq.h **** 
 157:./include/linux/blk-mq.h **** // 	enum mq_rq_state state;              //
 158:./include/linux/blk-mq.h **** // 	atomic_t ref;                         //
 159:./include/linux/blk-mq.h **** 
 160:./include/linux/blk-mq.h **** // 	unsigned long deadline;				//
 161:./include/linux/blk-mq.h **** 
 162:./include/linux/blk-mq.h **** // 	/*
 163:./include/linux/blk-mq.h **** // 	 * The hash is used inside the scheduler, and killed once the
 164:./include/linux/blk-mq.h **** // 	 * request reaches the dispatch list. The ipi_list is only used
 165:./include/linux/blk-mq.h **** // 	 * to queue the request for softirq completion, which is long
 166:./include/linux/blk-mq.h **** // 	 * after the request has been unhashed (and even removed from
 167:./include/linux/blk-mq.h **** // 	 * the dispatch list).
 168:./include/linux/blk-mq.h **** // 	 */
 169:./include/linux/blk-mq.h **** // 	// union {                           //
 170:./include/linux/blk-mq.h **** // 	// 	struct hlist_node hash;	/* merge hash */
 171:./include/linux/blk-mq.h **** // 	// 	struct llist_node ipi_list;
 172:./include/linux/blk-mq.h **** // 	// };
 173:./include/linux/blk-mq.h **** 
 174:./include/linux/blk-mq.h **** // 	/*
ARM GAS  /tmp/ccnTZmpF.s 			page 139


 175:./include/linux/blk-mq.h **** // 	 * The rb_node is only used inside the io scheduler, requests
 176:./include/linux/blk-mq.h **** // 	 * are pruned when moved to the dispatch queue. special_vec must
 177:./include/linux/blk-mq.h **** // 	 * only be used if RQF_SPECIAL_PAYLOAD is set, and those cannot be
 178:./include/linux/blk-mq.h **** // 	 * insert into an IO scheduler.
 179:./include/linux/blk-mq.h **** // 	 */
 180:./include/linux/blk-mq.h **** // 	// union {                               //
 181:./include/linux/blk-mq.h **** // 	// 	struct rb_node rb_node;	/* sort/lookup */
 182:./include/linux/blk-mq.h **** // 	// 	struct bio_vec special_vec;
 183:./include/linux/blk-mq.h **** // 	// };
 184:./include/linux/blk-mq.h **** 
 185:./include/linux/blk-mq.h **** // 	/*
 186:./include/linux/blk-mq.h **** // 	 * Three pointers are available for the IO schedulers, if they need
 187:./include/linux/blk-mq.h **** // 	 * more they have to dynamically allocate it.
 188:./include/linux/blk-mq.h **** // 	 */
 189:./include/linux/blk-mq.h **** // 	// struct {                                //elevator
 190:./include/linux/blk-mq.h **** // 	// 	struct io_cq		*icq;
 191:./include/linux/blk-mq.h **** // 	// 	void			*priv[2];
 192:./include/linux/blk-mq.h **** // 	// } elv;
 193:./include/linux/blk-mq.h **** 
 194:./include/linux/blk-mq.h **** // 	struct {                              //
 195:./include/linux/blk-mq.h **** // 		unsigned int		seq;
 196:./include/linux/blk-mq.h **** // 		rq_end_io_fn		*saved_end_io;
 197:./include/linux/blk-mq.h **** // 	} flush;
 198:./include/linux/blk-mq.h **** 
 199:./include/linux/blk-mq.h **** // 	u64 fifo_time;                     // FIFO 
 200:./include/linux/blk-mq.h **** 
 201:./include/linux/blk-mq.h **** // 	/*
 202:./include/linux/blk-mq.h **** // 	 * completion callback.
 203:./include/linux/blk-mq.h **** // 	 */
 204:./include/linux/blk-mq.h **** // 	rq_end_io_fn *end_io;               //
 205:./include/linux/blk-mq.h **** // 	void *end_io_data;                  //
 206:./include/linux/blk-mq.h **** // }; 
 207:./include/linux/blk-mq.h **** 
 208:./include/linux/blk-mq.h **** struct request {
 209:./include/linux/blk-mq.h ****     struct request_queue *q;          // 
 210:./include/linux/blk-mq.h ****     blk_opf_t cmd_flags;              // 
 211:./include/linux/blk-mq.h ****     req_flags_t rq_flags;             // 
 212:./include/linux/blk-mq.h ****     int tag;                          // 
 213:./include/linux/blk-mq.h ****     int internal_tag;                 // 
 214:./include/linux/blk-mq.h ****     unsigned int timeout;             // 
 215:./include/linux/blk-mq.h ****     unsigned int __data_len;          // 
 216:./include/linux/blk-mq.h **** 
 217:./include/linux/blk-mq.h ****     sector_t __sector;                // 
 218:./include/linux/blk-mq.h ****     
 219:./include/linux/blk-mq.h **** 	struct bio *bio;                  // bio 
 220:./include/linux/blk-mq.h ****     struct bio *biotail;              // bio 
 221:./include/linux/blk-mq.h ****     union {                           // 
 222:./include/linux/blk-mq.h ****         struct list_head queuelist;
 223:./include/linux/blk-mq.h ****         struct request *rq_next;
 224:./include/linux/blk-mq.h ****     };
 225:./include/linux/blk-mq.h ****     struct block_device *part;        // 
 226:./include/linux/blk-mq.h ****     u64 start_time_ns;                // 
 227:./include/linux/blk-mq.h ****     u64 io_start_time_ns;             // I/O 
 228:./include/linux/blk-mq.h ****     unsigned short stats_sectors;     // 
 229:./include/linux/blk-mq.h ****     enum mq_rq_state state;           // 
 230:./include/linux/blk-mq.h ****     atomic_t ref;                     // 
 231:./include/linux/blk-mq.h ****     unsigned long deadline;           // 
ARM GAS  /tmp/ccnTZmpF.s 			page 140


 232:./include/linux/blk-mq.h ****     struct {                          // 
 233:./include/linux/blk-mq.h ****         unsigned int seq;
 234:./include/linux/blk-mq.h ****         rq_end_io_fn *saved_end_io;
 235:./include/linux/blk-mq.h ****     } flush;
 236:./include/linux/blk-mq.h ****     u64 fifo_time;                    //  FIFO 
 237:./include/linux/blk-mq.h ****     rq_end_io_fn *end_io;             // 
 238:./include/linux/blk-mq.h ****     void *end_io_data;                // 
 239:./include/linux/blk-mq.h **** };
 240:./include/linux/blk-mq.h **** 
 241:./include/linux/blk-mq.h **** extern struct request *request_alloc(struct request_queue *q, blk_opf_t opf, gfp_t gfp_mask);
 242:./include/linux/blk-mq.h **** 
 243:./include/linux/blk-mq.h **** 
 244:./include/linux/blk-mq.h **** static inline enum req_op req_op(const struct request *req)
 245:./include/linux/blk-mq.h **** {
 246:./include/linux/blk-mq.h **** 	return req->cmd_flags & REQ_OP_MASK;
 247:./include/linux/blk-mq.h **** }
 248:./include/linux/blk-mq.h **** 
 249:./include/linux/blk-mq.h **** static inline bool blk_rq_is_passthrough(struct request *rq)
 250:./include/linux/blk-mq.h **** {
 251:./include/linux/blk-mq.h **** 	return blk_op_is_passthrough(rq->cmd_flags);
 252:./include/linux/blk-mq.h **** }
 253:./include/linux/blk-mq.h **** 
 254:./include/linux/blk-mq.h **** static inline unsigned short req_get_ioprio(struct request *req)
 255:./include/linux/blk-mq.h **** {
 256:./include/linux/blk-mq.h **** 	if (req->bio)
 257:./include/linux/blk-mq.h **** 		return req->bio->bi_ioprio;
 258:./include/linux/blk-mq.h **** 	return 0;
 259:./include/linux/blk-mq.h **** }
 260:./include/linux/blk-mq.h **** 
 261:./include/linux/blk-mq.h **** #define rq_data_dir(rq)		(op_is_write(req_op(rq)) ? WRITE : READ)
 262:./include/linux/blk-mq.h **** 
 263:./include/linux/blk-mq.h **** 
 264:./include/linux/blk-mq.h **** 
 265:./include/linux/blk-mq.h **** 
 266:./include/linux/blk-mq.h **** static inline sector_t blk_rq_pos(const struct request *rq)
 1671              		.loc 11 266 24 view .LVU425
 1672              	.LBB129:
 267:./include/linux/blk-mq.h **** {
 268:./include/linux/blk-mq.h **** 	return rq->__sector;
 1673              		.loc 11 268 2 view .LVU426
 1674              		.loc 11 268 11 is_stmt 0 view .LVU427
 1675 000c C369     		ldr	r3, [r0, #28]
 1676 000e 0193     		str	r3, [sp, #4]
 1677              	.LVL141:
 1678              		.loc 11 268 11 view .LVU428
 1679              	.LBE129:
 1680              	.LBE128:
  44:./drivers/storage/w25qxx/w25qxx.c ****     rq_for_each_bio(bio2,req){
 1681              		.loc 1 44 5 is_stmt 1 view .LVU429
 1682 0010 D0F820A0 		ldr	r10, [r0, #32]
 1683              	.LVL142:
  42:./drivers/storage/w25qxx/w25qxx.c ****     unsigned long start = blk_rq_pos(req);
 1684              		.loc 1 42 9 is_stmt 0 view .LVU430
 1685 0014 0027     		movs	r7, #0
 1686 0016 D346     		mov	fp, r10
 1687 0018 8246     		mov	r10, r0
 1688              	.LVL143:
ARM GAS  /tmp/ccnTZmpF.s 			page 141


 1689              		.loc 1 44 5 view .LVU431
 1690 001a 97E0     		b	.L93
 1691              	.LVL144:
 1692              	.L108:
 1693              	.LBB130:
 1694              	.LBB131:
  45:./drivers/storage/w25qxx/w25qxx.c ****         bio_for_each_segment(bvec,bio2,iter){
  46:./drivers/storage/w25qxx/w25qxx.c ****             int data_length = bvec->bv_len;
  47:./drivers/storage/w25qxx/w25qxx.c ****             char *buffer = kmap(bvec->bv_page) + bvec->bv_offset;   
  48:./drivers/storage/w25qxx/w25qxx.c ****             if(rq_data_dir(req) == READ)
  49:./drivers/storage/w25qxx/w25qxx.c ****             {
  50:./drivers/storage/w25qxx/w25qxx.c ****                 printk(KERN_INFO "w25qxx: read page:%d (%d b)\n",start,data_length);
 1695              		.loc 1 50 17 is_stmt 1 view .LVU432
 1696 001c 4246     		mov	r2, r8
 1697 001e 019F     		ldr	r7, [sp, #4]
 1698              	.LVL145:
 1699              		.loc 1 50 17 is_stmt 0 view .LVU433
 1700 0020 3946     		mov	r1, r7
 1701 0022 5648     		ldr	r0, .L112
 1702 0024 FFF7FEFF 		bl	printk
 1703              	.LVL146:
  51:./drivers/storage/w25qxx/w25qxx.c ****                 ret = W25Qxx_device_read_page(w25qxx1_dev,buffer,data_length,start);  
 1704              		.loc 1 51 17 is_stmt 1 view .LVU434
 1705              		.loc 1 51 23 is_stmt 0 view .LVU435
 1706 0028 3B46     		mov	r3, r7
 1707 002a 4246     		mov	r2, r8
 1708 002c 3146     		mov	r1, r6
 1709 002e 5448     		ldr	r0, .L112+4
 1710 0030 0068     		ldr	r0, [r0]
 1711 0032 FFF7FEFF 		bl	W25Qxx_device_read_page
 1712              	.LVL147:
 1713 0036 0746     		mov	r7, r0
 1714              	.LVL148:
 1715              	.L96:
  52:./drivers/storage/w25qxx/w25qxx.c ****             }
  53:./drivers/storage/w25qxx/w25qxx.c ****             else if(rq_data_dir(req) == WRITE){
  54:./drivers/storage/w25qxx/w25qxx.c ****                 int page_4k = start/8;
  55:./drivers/storage/w25qxx/w25qxx.c ****                 int page_4k_offset = start%8;
  56:./drivers/storage/w25qxx/w25qxx.c ****                 printk(KERN_INFO "w25qxx: write page:%d (%d b)\n",start,data_length);
  57:./drivers/storage/w25qxx/w25qxx.c ****                 if(page_4k_offset == 0 && data_length == 4096) //4k
  58:./drivers/storage/w25qxx/w25qxx.c ****                 {
  59:./drivers/storage/w25qxx/w25qxx.c ****                     ret = W25Qxx_device_write_page(w25qxx1_dev,buffer,data_length,page_4k);     
  60:./drivers/storage/w25qxx/w25qxx.c ****                 }
  61:./drivers/storage/w25qxx/w25qxx.c ****                 else 
  62:./drivers/storage/w25qxx/w25qxx.c ****                 {
  63:./drivers/storage/w25qxx/w25qxx.c ****                     int lost_data = page_4k_offset*512 + data_length -4096;               //
  64:./drivers/storage/w25qxx/w25qxx.c ****                     ret = W25Qxx_device_read_page(w25qxx1_dev,w25qxx_buffer,4096,page_4k);//
  65:./drivers/storage/w25qxx/w25qxx.c ****                     if (ret < 0)  break;
  66:./drivers/storage/w25qxx/w25qxx.c ****                     uint32_t cpoy_length = 4096 - page_4k_offset*512;                    //
  67:./drivers/storage/w25qxx/w25qxx.c ****                     if(cpoy_length > data_length)
  68:./drivers/storage/w25qxx/w25qxx.c ****                     cpoy_length = data_length;                                           //
  69:./drivers/storage/w25qxx/w25qxx.c ****                     memcpy(w25qxx_buffer+page_4k_offset*512,buffer,cpoy_length);         //
  70:./drivers/storage/w25qxx/w25qxx.c ****                     ret = W25Qxx_device_write_page(w25qxx1_dev,w25qxx_buffer,4096,page_4k);  //
  71:./drivers/storage/w25qxx/w25qxx.c ****                     if (ret < 0)  break;
  72:./drivers/storage/w25qxx/w25qxx.c ****                     if(lost_data > 0){                                                  //
  73:./drivers/storage/w25qxx/w25qxx.c ****                         ret = W25Qxx_device_read_page(w25qxx1_dev,w25qxx_buffer,4096,page_4k+1); 
  74:./drivers/storage/w25qxx/w25qxx.c ****                         if (ret < 0)  break;
ARM GAS  /tmp/ccnTZmpF.s 			page 142


  75:./drivers/storage/w25qxx/w25qxx.c ****                         cpoy_length = data_length - cpoy_length;                        //
  76:./drivers/storage/w25qxx/w25qxx.c ****                         memcpy(w25qxx_buffer, buffer+(data_length-cpoy_length),cpoy_length);//
  77:./drivers/storage/w25qxx/w25qxx.c ****                         ret = W25Qxx_device_write_page(w25qxx1_dev,w25qxx_buffer,4096,page_4k+1);//
  78:./drivers/storage/w25qxx/w25qxx.c ****                     }
  79:./drivers/storage/w25qxx/w25qxx.c ****                 }
  80:./drivers/storage/w25qxx/w25qxx.c ****             }
  81:./drivers/storage/w25qxx/w25qxx.c ****             put_page(bvec->bv_page);
 1716              		.loc 1 81 13 is_stmt 1 view .LVU436
 1717 0038 2068     		ldr	r0, [r4]
 1718 003a FFF7FEFF 		bl	__put_page
 1719              	.LVL149:
 1720              	.LBE131:
  45:./drivers/storage/w25qxx/w25qxx.c ****             int data_length = bvec->bv_len;
 1721              		.loc 1 45 9 discriminator 2 view .LVU437
 1722 003e 0135     		adds	r5, r5, #1
 1723              	.LVL150:
  45:./drivers/storage/w25qxx/w25qxx.c ****             int data_length = bvec->bv_len;
 1724              		.loc 1 45 9 is_stmt 0 discriminator 2 view .LVU438
 1725 0040 DBF83C40 		ldr	r4, [fp, #60]
 1726              	.LVL151:
  45:./drivers/storage/w25qxx/w25qxx.c ****             int data_length = bvec->bv_len;
 1727              		.loc 1 45 9 discriminator 2 view .LVU439
 1728 0044 05EB4503 		add	r3, r5, r5, lsl #1
 1729 0048 04EB8304 		add	r4, r4, r3, lsl #2
 1730              	.LVL152:
 1731              	.L94:
  45:./drivers/storage/w25qxx/w25qxx.c ****             int data_length = bvec->bv_len;
 1732              		.loc 1 45 9 is_stmt 1 discriminator 1 view .LVU440
 1733 004c BBF83430 		ldrh	r3, [fp, #52]
 1734 0050 AB42     		cmp	r3, r5
 1735 0052 75DD     		ble	.L98
 1736              	.LBB138:
  46:./drivers/storage/w25qxx/w25qxx.c ****             char *buffer = kmap(bvec->bv_page) + bvec->bv_offset;   
 1737              		.loc 1 46 13 view .LVU441
  46:./drivers/storage/w25qxx/w25qxx.c ****             char *buffer = kmap(bvec->bv_page) + bvec->bv_offset;   
 1738              		.loc 1 46 35 is_stmt 0 view .LVU442
 1739 0054 D4F80480 		ldr	r8, [r4, #4]
 1740              	.LVL153:
  47:./drivers/storage/w25qxx/w25qxx.c ****             if(rq_data_dir(req) == READ)
 1741              		.loc 1 47 13 is_stmt 1 view .LVU443
  47:./drivers/storage/w25qxx/w25qxx.c ****             if(rq_data_dir(req) == READ)
 1742              		.loc 1 47 28 is_stmt 0 view .LVU444
 1743 0058 2068     		ldr	r0, [r4]
 1744 005a FFF7FEFF 		bl	__kmap
 1745              	.LVL154:
  47:./drivers/storage/w25qxx/w25qxx.c ****             if(rq_data_dir(req) == READ)
 1746              		.loc 1 47 54 discriminator 1 view .LVU445
 1747 005e A368     		ldr	r3, [r4, #8]
  47:./drivers/storage/w25qxx/w25qxx.c ****             if(rq_data_dir(req) == READ)
 1748              		.loc 1 47 19 discriminator 1 view .LVU446
 1749 0060 C618     		adds	r6, r0, r3
 1750              	.LVL155:
  48:./drivers/storage/w25qxx/w25qxx.c ****             {
 1751              		.loc 1 48 13 is_stmt 1 view .LVU447
 1752              	.LBB132:
 1753              	.LBI132:
 244:./include/linux/blk-mq.h **** {
ARM GAS  /tmp/ccnTZmpF.s 			page 143


 1754              		.loc 11 244 27 view .LVU448
 1755              	.LBB133:
 246:./include/linux/blk-mq.h **** }
 1756              		.loc 11 246 2 view .LVU449
 246:./include/linux/blk-mq.h **** }
 1757              		.loc 11 246 12 is_stmt 0 view .LVU450
 1758 0062 DAF80430 		ldr	r3, [r10, #4]
 1759              	.LVL156:
 246:./include/linux/blk-mq.h **** }
 1760              		.loc 11 246 12 view .LVU451
 1761              	.LBE133:
 1762              	.LBE132:
 1763              	.LBB134:
 1764              	.LBI134:
 1765              		.file 12 "./include/linux/blk_types.h"
   1:./include/linux/blk_types.h **** /* SPDX-License-Identifier: GPL-2.0 */
   2:./include/linux/blk_types.h **** /*
   3:./include/linux/blk_types.h ****  * Block data types and constants.  Directly include this file only to
   4:./include/linux/blk_types.h ****  * break include dependency loop.
   5:./include/linux/blk_types.h ****  */
   6:./include/linux/blk_types.h **** #ifndef __LINUX_BLK_TYPES_H
   7:./include/linux/blk_types.h **** #define __LINUX_BLK_TYPES_H
   8:./include/linux/blk_types.h **** 
   9:./include/linux/blk_types.h **** #include <linux/types.h>
  10:./include/linux/blk_types.h **** #include <linux/compiler.h>
  11:./include/linux/blk_types.h **** #include <linux/mutex.h>
  12:./include/linux/blk_types.h **** #include <linux/fs.h>
  13:./include/linux/blk_types.h **** #include <linux/xarray.h>
  14:./include/linux/blk_types.h **** #include <linux/rw_hint.h>
  15:./include/linux/blk_types.h **** #include <linux/bvec.h>
  16:./include/linux/blk_types.h **** 
  17:./include/linux/blk_types.h **** 
  18:./include/linux/blk_types.h **** 
  19:./include/linux/blk_types.h **** struct block_device;
  20:./include/linux/blk_types.h **** struct gendisk;
  21:./include/linux/blk_types.h **** typedef void (bio_end_io_t) (struct bio *);
  22:./include/linux/blk_types.h **** 
  23:./include/linux/blk_types.h **** 
  24:./include/linux/blk_types.h **** #ifndef SECTOR_SHIFT
  25:./include/linux/blk_types.h **** #define SECTOR_SHIFT 9
  26:./include/linux/blk_types.h **** #endif
  27:./include/linux/blk_types.h **** #ifndef SECTOR_SIZE
  28:./include/linux/blk_types.h **** #define SECTOR_SIZE (1 << SECTOR_SHIFT)
  29:./include/linux/blk_types.h **** #endif
  30:./include/linux/blk_types.h **** 
  31:./include/linux/blk_types.h **** #define PAGE_SECTORS_SHIFT	(PAGE_SHIFT - SECTOR_SHIFT)
  32:./include/linux/blk_types.h **** #define PAGE_SECTORS		(1 << PAGE_SECTORS_SHIFT)
  33:./include/linux/blk_types.h **** #define SECTOR_MASK		(PAGE_SECTORS - 1)
  34:./include/linux/blk_types.h **** 
  35:./include/linux/blk_types.h **** 
  36:./include/linux/blk_types.h **** 
  37:./include/linux/blk_types.h **** struct block_device {
  38:./include/linux/blk_types.h **** 	sector_t		bd_start_sect;			//
  39:./include/linux/blk_types.h **** 	sector_t		bd_nr_sectors;	   	    //
  40:./include/linux/blk_types.h **** 	struct gendisk *	bd_disk;		 	//
  41:./include/linux/blk_types.h **** 	struct request_queue *	bd_queue;	    //io
  42:./include/linux/blk_types.h **** //	struct disk_stats __percpu *bd_stats;   //
ARM GAS  /tmp/ccnTZmpF.s 			page 144


  43:./include/linux/blk_types.h ****  	unsigned long		bd_stamp;			//
  44:./include/linux/blk_types.h **** 	atomic_t		__bd_flags;	            // partition number + flags
  45:./include/linux/blk_types.h **** 	dev_t			bd_dev;
  46:./include/linux/blk_types.h **** 	struct address_space	*bd_mapping;	/* page cache */
  47:./include/linux/blk_types.h **** 	atomic_t		bd_openers;
  48:./include/linux/blk_types.h **** 	spinlock_t		bd_size_lock; 
  49:./include/linux/blk_types.h **** 	void *			bd_claiming; //
  50:./include/linux/blk_types.h **** 	void *			bd_holder;
  51:./include/linux/blk_types.h **** //	const struct blk_holder_ops *bd_holder_ops;//
  52:./include/linux/blk_types.h **** 	struct mutex		bd_holder_lock;
  53:./include/linux/blk_types.h **** 	int			bd_holders;
  54:./include/linux/blk_types.h **** //	struct kobject		*bd_holder_dir;
  55:./include/linux/blk_types.h **** 	atomic_t		bd_fsfreeze_count; /* number of freeze requests */
  56:./include/linux/blk_types.h **** 	struct mutex		bd_fsfreeze_mutex; /* serialize freeze/thaw */
  57:./include/linux/blk_types.h **** 	struct partition_meta_info *bd_meta_info;  //
  58:./include/linux/blk_types.h **** 	int			bd_writers;
  59:./include/linux/blk_types.h **** #ifdef CONFIG_SECURITY
  60:./include/linux/blk_types.h **** 	void			*bd_security;
  61:./include/linux/blk_types.h **** #endif
  62:./include/linux/blk_types.h **** //	struct device		bd_device;
  63:./include/linux/blk_types.h **** 
  64:./include/linux/blk_types.h **** } __randomize_layout;
  65:./include/linux/blk_types.h **** 
  66:./include/linux/blk_types.h **** static sector_t bdev_nr_sectors(struct block_device *bdev){
  67:./include/linux/blk_types.h **** 	return bdev->bd_nr_sectors;
  68:./include/linux/blk_types.h **** }
  69:./include/linux/blk_types.h **** 
  70:./include/linux/blk_types.h **** 
  71:./include/linux/blk_types.h **** 
  72:./include/linux/blk_types.h **** 
  73:./include/linux/blk_types.h **** 
  74:./include/linux/blk_types.h **** 
  75:./include/linux/blk_types.h **** #define bdev_whole(_bdev) \
  76:./include/linux/blk_types.h **** 	((_bdev)->bd_disk->part0)
  77:./include/linux/blk_types.h **** 
  78:./include/linux/blk_types.h **** #define dev_to_bdev(device) \
  79:./include/linux/blk_types.h **** 	container_of((device), struct block_device, bd_device)
  80:./include/linux/blk_types.h **** 
  81:./include/linux/blk_types.h **** #define bdev_kobj(_bdev) \
  82:./include/linux/blk_types.h **** 	(&((_bdev)->bd_device.kobj))
  83:./include/linux/blk_types.h **** 
  84:./include/linux/blk_types.h **** /*
  85:./include/linux/blk_types.h ****  * Block error status values.  See block/blk-core:blk_errors for the details.
  86:./include/linux/blk_types.h ****  */
  87:./include/linux/blk_types.h **** typedef u8 __bitwise blk_status_t;
  88:./include/linux/blk_types.h **** typedef u16 blk_short_t;
  89:./include/linux/blk_types.h **** #define	BLK_STS_OK 0
  90:./include/linux/blk_types.h **** #define BLK_STS_NOTSUPP		((__force blk_status_t)1)
  91:./include/linux/blk_types.h **** #define BLK_STS_TIMEOUT		((__force blk_status_t)2)
  92:./include/linux/blk_types.h **** #define BLK_STS_NOSPC		((__force blk_status_t)3)
  93:./include/linux/blk_types.h **** #define BLK_STS_TRANSPORT	((__force blk_status_t)4)
  94:./include/linux/blk_types.h **** #define BLK_STS_TARGET		((__force blk_status_t)5)
  95:./include/linux/blk_types.h **** #define BLK_STS_RESV_CONFLICT	((__force blk_status_t)6)
  96:./include/linux/blk_types.h **** #define BLK_STS_MEDIUM		((__force blk_status_t)7)
  97:./include/linux/blk_types.h **** #define BLK_STS_PROTECTION	((__force blk_status_t)8)
  98:./include/linux/blk_types.h **** #define BLK_STS_RESOURCE	((__force blk_status_t)9)
  99:./include/linux/blk_types.h **** #define BLK_STS_IOERR		((__force blk_status_t)10)
ARM GAS  /tmp/ccnTZmpF.s 			page 145


 100:./include/linux/blk_types.h **** 
 101:./include/linux/blk_types.h **** /* hack for device mapper, don't use elsewhere: */
 102:./include/linux/blk_types.h **** #define BLK_STS_DM_REQUEUE    ((__force blk_status_t)11)
 103:./include/linux/blk_types.h **** 
 104:./include/linux/blk_types.h **** /*
 105:./include/linux/blk_types.h ****  * BLK_STS_AGAIN should only be returned if RQF_NOWAIT is set
 106:./include/linux/blk_types.h ****  * and the bio would block (cf bio_wouldblock_error())
 107:./include/linux/blk_types.h ****  */
 108:./include/linux/blk_types.h **** #define BLK_STS_AGAIN		((__force blk_status_t)12)
 109:./include/linux/blk_types.h **** 
 110:./include/linux/blk_types.h **** 
 111:./include/linux/blk_types.h **** /*
 112:./include/linux/blk_types.h ****  * BLK_STS_DEV_RESOURCE is returned from the driver to the block layer if
 113:./include/linux/blk_types.h ****  * device related resources are unavailable, but the driver can guarantee
 114:./include/linux/blk_types.h ****  * that the queue will be rerun in the future once resources become
 115:./include/linux/blk_types.h ****  * available again. This is typically the case for device specific
 116:./include/linux/blk_types.h ****  * resources that are consumed for IO. If the driver fails allocating these
 117:./include/linux/blk_types.h ****  * resources, we know that inflight (or pending) IO will free these
 118:./include/linux/blk_types.h ****  * resource upon completion.
 119:./include/linux/blk_types.h ****  *
 120:./include/linux/blk_types.h ****  * This is different from BLK_STS_RESOURCE in that it explicitly references
 121:./include/linux/blk_types.h ****  * a device specific resource. For resources of wider scope, allocation
 122:./include/linux/blk_types.h ****  * failure can happen without having pending IO. This means that we can't
 123:./include/linux/blk_types.h ****  * rely on request completions freeing these resources, as IO may not be in
 124:./include/linux/blk_types.h ****  * flight. Examples of that are kernel memory allocations, DMA mappings, or
 125:./include/linux/blk_types.h ****  * any other system wide resources.
 126:./include/linux/blk_types.h ****  */
 127:./include/linux/blk_types.h **** #define BLK_STS_DEV_RESOURCE	((__force blk_status_t)13)
 128:./include/linux/blk_types.h **** 
 129:./include/linux/blk_types.h **** /*
 130:./include/linux/blk_types.h ****  * BLK_STS_ZONE_OPEN_RESOURCE is returned from the driver in the completion
 131:./include/linux/blk_types.h ****  * path if the device returns a status indicating that too many zone resources
 132:./include/linux/blk_types.h ****  * are currently open. The same command should be successful if resubmitted
 133:./include/linux/blk_types.h ****  * after the number of open zones decreases below the device's limits, which is
 134:./include/linux/blk_types.h ****  * reported in the request_queue's max_open_zones.
 135:./include/linux/blk_types.h ****  */
 136:./include/linux/blk_types.h **** #define BLK_STS_ZONE_OPEN_RESOURCE	((__force blk_status_t)14)
 137:./include/linux/blk_types.h **** 
 138:./include/linux/blk_types.h **** /*
 139:./include/linux/blk_types.h ****  * BLK_STS_ZONE_ACTIVE_RESOURCE is returned from the driver in the completion
 140:./include/linux/blk_types.h ****  * path if the device returns a status indicating that too many zone resources
 141:./include/linux/blk_types.h ****  * are currently active. The same command should be successful if resubmitted
 142:./include/linux/blk_types.h ****  * after the number of active zones decreases below the device's limits, which
 143:./include/linux/blk_types.h ****  * is reported in the request_queue's max_active_zones.
 144:./include/linux/blk_types.h ****  */
 145:./include/linux/blk_types.h **** #define BLK_STS_ZONE_ACTIVE_RESOURCE	((__force blk_status_t)15)
 146:./include/linux/blk_types.h **** 
 147:./include/linux/blk_types.h **** /*
 148:./include/linux/blk_types.h ****  * BLK_STS_OFFLINE is returned from the driver when the target device is offline
 149:./include/linux/blk_types.h ****  * or is being taken offline. This could help differentiate the case where a
 150:./include/linux/blk_types.h ****  * device is intentionally being shut down from a real I/O error.
 151:./include/linux/blk_types.h ****  */
 152:./include/linux/blk_types.h **** #define BLK_STS_OFFLINE		((__force blk_status_t)16)
 153:./include/linux/blk_types.h **** 
 154:./include/linux/blk_types.h **** /*
 155:./include/linux/blk_types.h ****  * BLK_STS_DURATION_LIMIT is returned from the driver when the target device
 156:./include/linux/blk_types.h ****  * aborted the command because it exceeded one of its Command Duration Limits.
ARM GAS  /tmp/ccnTZmpF.s 			page 146


 157:./include/linux/blk_types.h ****  */
 158:./include/linux/blk_types.h **** #define BLK_STS_DURATION_LIMIT	((__force blk_status_t)17)
 159:./include/linux/blk_types.h **** 
 160:./include/linux/blk_types.h **** /*
 161:./include/linux/blk_types.h ****  * Invalid size or alignment.
 162:./include/linux/blk_types.h ****  */
 163:./include/linux/blk_types.h **** #define BLK_STS_INVAL	((__force blk_status_t)19)
 164:./include/linux/blk_types.h **** 
 165:./include/linux/blk_types.h **** /**
 166:./include/linux/blk_types.h ****  * blk_path_error - returns true if error may be path related
 167:./include/linux/blk_types.h ****  * @error: status the request was completed with
 168:./include/linux/blk_types.h ****  *
 169:./include/linux/blk_types.h ****  * Description:
 170:./include/linux/blk_types.h ****  *     This classifies block error status into non-retryable errors and ones
 171:./include/linux/blk_types.h ****  *     that may be successful if retried on a failover path.
 172:./include/linux/blk_types.h ****  *
 173:./include/linux/blk_types.h ****  * Return:
 174:./include/linux/blk_types.h ****  *     %false - retrying failover path will not help
 175:./include/linux/blk_types.h ****  *     %true  - may succeed if retried
 176:./include/linux/blk_types.h ****  */
 177:./include/linux/blk_types.h **** 
 178:./include/linux/blk_types.h ****  static inline bool blk_path_error(blk_status_t error)
 179:./include/linux/blk_types.h **** {
 180:./include/linux/blk_types.h **** 	switch (error) {
 181:./include/linux/blk_types.h **** 	case BLK_STS_NOTSUPP:
 182:./include/linux/blk_types.h **** 	case BLK_STS_NOSPC:
 183:./include/linux/blk_types.h **** 	case BLK_STS_TARGET:
 184:./include/linux/blk_types.h **** 	case BLK_STS_RESV_CONFLICT:
 185:./include/linux/blk_types.h **** 	case BLK_STS_MEDIUM:
 186:./include/linux/blk_types.h **** 	case BLK_STS_PROTECTION:
 187:./include/linux/blk_types.h **** 		return false;
 188:./include/linux/blk_types.h **** 	}
 189:./include/linux/blk_types.h **** 
 190:./include/linux/blk_types.h **** 	/* Anything else could be a path failure, so should be retried */
 191:./include/linux/blk_types.h **** 	return true;
 192:./include/linux/blk_types.h **** }
 193:./include/linux/blk_types.h **** 
 194:./include/linux/blk_types.h **** 
 195:./include/linux/blk_types.h **** 
 196:./include/linux/blk_types.h **** struct bio_issue {
 197:./include/linux/blk_types.h **** 	u64 value;
 198:./include/linux/blk_types.h **** };
 199:./include/linux/blk_types.h **** 
 200:./include/linux/blk_types.h **** typedef __u32 __bitwise blk_opf_t;
 201:./include/linux/blk_types.h **** typedef unsigned int blk_qc_t;
 202:./include/linux/blk_types.h **** #define BLK_QC_T_NONE		-1U
 203:./include/linux/blk_types.h **** 
 204:./include/linux/blk_types.h **** 
 205:./include/linux/blk_types.h **** /*
 206:./include/linux/blk_types.h ****  * main unit of I/O for the block layer and lower layers (ie drivers and
 207:./include/linux/blk_types.h ****  * stacking drivers)
 208:./include/linux/blk_types.h ****  */
 209:./include/linux/blk_types.h **** 
 210:./include/linux/blk_types.h ****  struct bio {
 211:./include/linux/blk_types.h **** 	struct bio		*bi_next;	/* request queue link */
 212:./include/linux/blk_types.h **** 	struct block_device	*bi_bdev;
 213:./include/linux/blk_types.h **** 	blk_opf_t		bi_opf;	
ARM GAS  /tmp/ccnTZmpF.s 			page 147


 214:./include/linux/blk_types.h **** 	unsigned short		bi_flags;	/* BIO_* below */
 215:./include/linux/blk_types.h **** 	unsigned short		bi_ioprio;
 216:./include/linux/blk_types.h **** 	 enum rw_hint		bi_write_hint;
 217:./include/linux/blk_types.h **** 	blk_status_t		bi_status;
 218:./include/linux/blk_types.h **** 	atomic_t		__bi_remaining;
 219:./include/linux/blk_types.h **** 	struct bvec_iter	bi_iter;
 220:./include/linux/blk_types.h **** 	union {
 221:./include/linux/blk_types.h **** 		blk_qc_t		bi_cookie;
 222:./include/linux/blk_types.h **** 		unsigned int		__bi_nr_segments;
 223:./include/linux/blk_types.h **** 	};
 224:./include/linux/blk_types.h **** 	bio_end_io_t		*bi_end_io;
 225:./include/linux/blk_types.h **** 	void			*bi_private;
 226:./include/linux/blk_types.h **** 	unsigned short		bi_vcnt;	/* how many bio_vec's */
 227:./include/linux/blk_types.h **** 	unsigned short		bi_max_vecs;	/* max bvl_vecs we can hold */
 228:./include/linux/blk_types.h **** 	atomic_t		__bi_cnt;	/* pin count */
 229:./include/linux/blk_types.h **** 	struct bio_vec		*bi_io_vec;	/* the actual vec list */
 230:./include/linux/blk_types.h **** 	struct bio_set		*bi_pool;
 231:./include/linux/blk_types.h **** 	struct bio_vec		bi_inline_vecs[];
 232:./include/linux/blk_types.h **** };
 233:./include/linux/blk_types.h **** 
 234:./include/linux/blk_types.h **** #define BIO_RESET_BYTES		offsetof(struct bio, bi_max_vecs)
 235:./include/linux/blk_types.h **** #define BIO_MAX_SECTORS		(UINT_MAX >> SECTOR_SHIFT)
 236:./include/linux/blk_types.h **** 
 237:./include/linux/blk_types.h **** 
 238:./include/linux/blk_types.h **** /*
 239:./include/linux/blk_types.h ****  * bio flags
 240:./include/linux/blk_types.h ****  */
 241:./include/linux/blk_types.h **** enum {
 242:./include/linux/blk_types.h **** 	BIO_PAGE_PINNED,	/* Unpin pages in bio_release_pages() */
 243:./include/linux/blk_types.h **** 	BIO_CLONED,		/* doesn't own data */
 244:./include/linux/blk_types.h **** 	BIO_BOUNCED,		/* bio is a bounce bio */
 245:./include/linux/blk_types.h **** 	BIO_QUIET,		/* Make BIO Quiet */
 246:./include/linux/blk_types.h **** 	BIO_CHAIN,		/* chained bio, ->bi_remaining in effect */
 247:./include/linux/blk_types.h **** 	BIO_REFFED,		/* bio has elevated ->bi_cnt */
 248:./include/linux/blk_types.h **** 	BIO_BPS_THROTTLED,	/* This bio has already been subjected to
 249:./include/linux/blk_types.h **** 				 * throttling rules. Don't do it again. */
 250:./include/linux/blk_types.h **** 	BIO_TRACE_COMPLETION,	/* bio_endio() should trace the final completion
 251:./include/linux/blk_types.h **** 				 * of this bio. */
 252:./include/linux/blk_types.h **** 	BIO_CGROUP_ACCT,	/* has been accounted to a cgroup */
 253:./include/linux/blk_types.h **** 	BIO_QOS_THROTTLED,	/* bio went through rq_qos throttle path */
 254:./include/linux/blk_types.h **** 	BIO_QOS_MERGED,		/* but went through rq_qos merge path */
 255:./include/linux/blk_types.h **** 	BIO_REMAPPED,
 256:./include/linux/blk_types.h **** 	BIO_ZONE_WRITE_PLUGGING, /* bio handled through zone write plugging */
 257:./include/linux/blk_types.h **** 	BIO_EMULATES_ZONE_APPEND, /* bio emulates a zone append operation */
 258:./include/linux/blk_types.h **** 	BIO_FLAG_LAST
 259:./include/linux/blk_types.h **** };
 260:./include/linux/blk_types.h **** 
 261:./include/linux/blk_types.h **** typedef __u32 __bitwise blk_mq_req_flags_t;
 262:./include/linux/blk_types.h **** 
 263:./include/linux/blk_types.h **** #define REQ_OP_BITS	8
 264:./include/linux/blk_types.h **** #define REQ_OP_MASK	(__force blk_opf_t)((1 << REQ_OP_BITS) - 1)
 265:./include/linux/blk_types.h **** #define REQ_FLAG_BITS	24
 266:./include/linux/blk_types.h **** 
 267:./include/linux/blk_types.h **** 
 268:./include/linux/blk_types.h **** /**
 269:./include/linux/blk_types.h ****  * enum req_op - Operations common to the bio and request structures.
 270:./include/linux/blk_types.h ****  * We use 8 bits for encoding the operation, and the remaining 24 for flags.
ARM GAS  /tmp/ccnTZmpF.s 			page 148


 271:./include/linux/blk_types.h ****  *
 272:./include/linux/blk_types.h ****  * The least significant bit of the operation number indicates the data
 273:./include/linux/blk_types.h ****  * transfer direction:
 274:./include/linux/blk_types.h ****  *
 275:./include/linux/blk_types.h ****  *   - if the least significant bit is set transfers are TO the device
 276:./include/linux/blk_types.h ****  *   - if the least significant bit is not set transfers are FROM the device
 277:./include/linux/blk_types.h ****  *
 278:./include/linux/blk_types.h ****  * If a operation does not transfer data the least significant bit has no
 279:./include/linux/blk_types.h ****  * meaning.
 280:./include/linux/blk_types.h ****  */
 281:./include/linux/blk_types.h **** enum req_op {
 282:./include/linux/blk_types.h **** 	/* read sectors from the device */
 283:./include/linux/blk_types.h **** 	REQ_OP_READ		= (__force blk_opf_t)0,
 284:./include/linux/blk_types.h **** 	/* write sectors to the device */
 285:./include/linux/blk_types.h **** 	REQ_OP_WRITE		= (__force blk_opf_t)1,
 286:./include/linux/blk_types.h **** 	/* flush the volatile write cache */
 287:./include/linux/blk_types.h **** 	REQ_OP_FLUSH		= (__force blk_opf_t)2,
 288:./include/linux/blk_types.h **** 	/* discard sectors */
 289:./include/linux/blk_types.h **** 	REQ_OP_DISCARD		= (__force blk_opf_t)3,
 290:./include/linux/blk_types.h **** 	/* securely erase sectors */
 291:./include/linux/blk_types.h **** 	REQ_OP_SECURE_ERASE	= (__force blk_opf_t)5,
 292:./include/linux/blk_types.h **** 	/* write data at the current zone write pointer */
 293:./include/linux/blk_types.h **** 	REQ_OP_ZONE_APPEND	= (__force blk_opf_t)7,
 294:./include/linux/blk_types.h **** 	/* write the zero filled sector many times */
 295:./include/linux/blk_types.h **** 	REQ_OP_WRITE_ZEROES	= (__force blk_opf_t)9,
 296:./include/linux/blk_types.h **** 	/* Open a zone */
 297:./include/linux/blk_types.h **** 	REQ_OP_ZONE_OPEN	= (__force blk_opf_t)10,
 298:./include/linux/blk_types.h **** 	/* Close a zone */
 299:./include/linux/blk_types.h **** 	REQ_OP_ZONE_CLOSE	= (__force blk_opf_t)11,
 300:./include/linux/blk_types.h **** 	/* Transition a zone to full */
 301:./include/linux/blk_types.h **** 	REQ_OP_ZONE_FINISH	= (__force blk_opf_t)12,
 302:./include/linux/blk_types.h **** 	/* reset a zone write pointer */
 303:./include/linux/blk_types.h **** 	REQ_OP_ZONE_RESET	= (__force blk_opf_t)13,
 304:./include/linux/blk_types.h **** 	/* reset all the zone present on the device */
 305:./include/linux/blk_types.h **** 	REQ_OP_ZONE_RESET_ALL	= (__force blk_opf_t)15,
 306:./include/linux/blk_types.h **** 
 307:./include/linux/blk_types.h **** 	/* Driver private requests */
 308:./include/linux/blk_types.h **** 	REQ_OP_DRV_IN		= (__force blk_opf_t)34,
 309:./include/linux/blk_types.h **** 	REQ_OP_DRV_OUT		= (__force blk_opf_t)35,
 310:./include/linux/blk_types.h **** 
 311:./include/linux/blk_types.h **** 	REQ_OP_LAST		= (__force blk_opf_t)36,
 312:./include/linux/blk_types.h **** };
 313:./include/linux/blk_types.h **** 
 314:./include/linux/blk_types.h **** /* Keep cmd_flag_name[] in sync with the definitions below */
 315:./include/linux/blk_types.h **** enum req_flag_bits {
 316:./include/linux/blk_types.h **** 	__REQ_FAILFAST_DEV =	/* no driver retries of device errors */
 317:./include/linux/blk_types.h **** 		REQ_OP_BITS,
 318:./include/linux/blk_types.h **** 	__REQ_FAILFAST_TRANSPORT, /* no driver retries of transport errors */
 319:./include/linux/blk_types.h **** 	__REQ_FAILFAST_DRIVER,	/* no driver retries of driver errors */
 320:./include/linux/blk_types.h **** 	__REQ_SYNC,		/* request is sync (sync write or read) */
 321:./include/linux/blk_types.h **** 	__REQ_META,		/* metadata io request */
 322:./include/linux/blk_types.h **** 	__REQ_PRIO,		/* boost priority in cfq */
 323:./include/linux/blk_types.h **** 	__REQ_NOMERGE,		/* don't touch this for merging */
 324:./include/linux/blk_types.h **** 	__REQ_IDLE,		/* anticipate more IO after this one */
 325:./include/linux/blk_types.h **** 	__REQ_INTEGRITY,	/* I/O includes block integrity payload */
 326:./include/linux/blk_types.h **** 	__REQ_FUA,		/* forced unit access */
 327:./include/linux/blk_types.h **** 	__REQ_PREFLUSH,		/* request for cache flush */
ARM GAS  /tmp/ccnTZmpF.s 			page 149


 328:./include/linux/blk_types.h **** 	__REQ_RAHEAD,		/* read ahead, can fail anytime */
 329:./include/linux/blk_types.h **** 	__REQ_BACKGROUND,	/* background IO */
 330:./include/linux/blk_types.h **** 	__REQ_NOWAIT,           /* Don't wait if request will block */
 331:./include/linux/blk_types.h **** 	__REQ_POLLED,		/* caller polls for completion using bio_poll */
 332:./include/linux/blk_types.h **** 	__REQ_ALLOC_CACHE,	/* allocate IO from cache if available */
 333:./include/linux/blk_types.h **** 	__REQ_SWAP,		/* swap I/O */
 334:./include/linux/blk_types.h **** 	__REQ_DRV,		/* for driver use */
 335:./include/linux/blk_types.h **** 	__REQ_FS_PRIVATE,	/* for file system (submitter) use */
 336:./include/linux/blk_types.h **** 	__REQ_ATOMIC,		/* for atomic write operations */
 337:./include/linux/blk_types.h **** 	/*
 338:./include/linux/blk_types.h **** 	 * Command specific flags, keep last:
 339:./include/linux/blk_types.h **** 	 */
 340:./include/linux/blk_types.h **** 	/* for REQ_OP_WRITE_ZEROES: */
 341:./include/linux/blk_types.h **** 	__REQ_NOUNMAP,		/* do not free blocks when zeroing */
 342:./include/linux/blk_types.h **** 
 343:./include/linux/blk_types.h **** 	__REQ_NR_BITS,		/* stops here */
 344:./include/linux/blk_types.h **** };
 345:./include/linux/blk_types.h **** 
 346:./include/linux/blk_types.h **** 
 347:./include/linux/blk_types.h **** 
 348:./include/linux/blk_types.h **** #define REQ_FAILFAST_DEV	\
 349:./include/linux/blk_types.h **** 			(__force blk_opf_t)(1ULL << __REQ_FAILFAST_DEV)
 350:./include/linux/blk_types.h **** #define REQ_FAILFAST_TRANSPORT	\
 351:./include/linux/blk_types.h **** 			(__force blk_opf_t)(1ULL << __REQ_FAILFAST_TRANSPORT)
 352:./include/linux/blk_types.h **** #define REQ_FAILFAST_DRIVER	\
 353:./include/linux/blk_types.h **** 			(__force blk_opf_t)(1ULL << __REQ_FAILFAST_DRIVER)
 354:./include/linux/blk_types.h **** #define REQ_SYNC	(__force blk_opf_t)(1ULL << __REQ_SYNC)
 355:./include/linux/blk_types.h **** #define REQ_META	(__force blk_opf_t)(1ULL << __REQ_META)
 356:./include/linux/blk_types.h **** #define REQ_PRIO	(__force blk_opf_t)(1ULL << __REQ_PRIO)
 357:./include/linux/blk_types.h **** #define REQ_NOMERGE	(__force blk_opf_t)(1ULL << __REQ_NOMERGE)
 358:./include/linux/blk_types.h **** #define REQ_IDLE	(__force blk_opf_t)(1ULL << __REQ_IDLE)
 359:./include/linux/blk_types.h **** #define REQ_INTEGRITY	(__force blk_opf_t)(1ULL << __REQ_INTEGRITY)
 360:./include/linux/blk_types.h **** #define REQ_FUA		(__force blk_opf_t)(1ULL << __REQ_FUA)
 361:./include/linux/blk_types.h **** #define REQ_PREFLUSH	(__force blk_opf_t)(1ULL << __REQ_PREFLUSH)
 362:./include/linux/blk_types.h **** #define REQ_RAHEAD	(__force blk_opf_t)(1ULL << __REQ_RAHEAD)
 363:./include/linux/blk_types.h **** #define REQ_BACKGROUND	(__force blk_opf_t)(1ULL << __REQ_BACKGROUND)
 364:./include/linux/blk_types.h **** #define REQ_NOWAIT	(__force blk_opf_t)(1ULL << __REQ_NOWAIT)
 365:./include/linux/blk_types.h **** #define REQ_POLLED	(__force blk_opf_t)(1ULL << __REQ_POLLED)
 366:./include/linux/blk_types.h **** #define REQ_ALLOC_CACHE	(__force blk_opf_t)(1ULL << __REQ_ALLOC_CACHE)
 367:./include/linux/blk_types.h **** #define REQ_SWAP	(__force blk_opf_t)(1ULL << __REQ_SWAP)
 368:./include/linux/blk_types.h **** #define REQ_DRV		(__force blk_opf_t)(1ULL << __REQ_DRV)
 369:./include/linux/blk_types.h **** #define REQ_FS_PRIVATE	(__force blk_opf_t)(1ULL << __REQ_FS_PRIVATE)
 370:./include/linux/blk_types.h **** #define REQ_ATOMIC	(__force blk_opf_t)(1ULL << __REQ_ATOMIC)
 371:./include/linux/blk_types.h **** 
 372:./include/linux/blk_types.h **** #define REQ_NOUNMAP	(__force blk_opf_t)(1ULL << __REQ_NOUNMAP)
 373:./include/linux/blk_types.h **** 
 374:./include/linux/blk_types.h **** #define REQ_FAILFAST_MASK \
 375:./include/linux/blk_types.h **** 	(REQ_FAILFAST_DEV | REQ_FAILFAST_TRANSPORT | REQ_FAILFAST_DRIVER)
 376:./include/linux/blk_types.h **** 
 377:./include/linux/blk_types.h **** #define REQ_NOMERGE_FLAGS \
 378:./include/linux/blk_types.h **** 	(REQ_NOMERGE | REQ_PREFLUSH | REQ_FUA)
 379:./include/linux/blk_types.h **** 
 380:./include/linux/blk_types.h **** enum stat_group {
 381:./include/linux/blk_types.h **** 	STAT_READ,
 382:./include/linux/blk_types.h **** 	STAT_WRITE,
 383:./include/linux/blk_types.h **** 	STAT_DISCARD,
 384:./include/linux/blk_types.h **** 	STAT_FLUSH,
ARM GAS  /tmp/ccnTZmpF.s 			page 150


 385:./include/linux/blk_types.h **** 
 386:./include/linux/blk_types.h **** 	NR_STAT_GROUPS
 387:./include/linux/blk_types.h **** };
 388:./include/linux/blk_types.h **** 
 389:./include/linux/blk_types.h **** static inline enum req_op bio_op(const struct bio *bio)
 390:./include/linux/blk_types.h **** {
 391:./include/linux/blk_types.h **** 	return bio->bi_opf & REQ_OP_MASK;
 392:./include/linux/blk_types.h **** }
 393:./include/linux/blk_types.h **** 
 394:./include/linux/blk_types.h **** static inline bool op_is_write(blk_opf_t op)
 1766              		.loc 12 394 20 is_stmt 1 view .LVU452
 1767              	.LBB135:
 395:./include/linux/blk_types.h **** {
 396:./include/linux/blk_types.h **** 	return !!(op & (__force blk_opf_t)1);
 1768              		.loc 12 396 2 view .LVU453
 1769              		.loc 12 396 2 is_stmt 0 view .LVU454
 1770              	.LBE135:
 1771              	.LBE134:
  48:./drivers/storage/w25qxx/w25qxx.c ****             {
 1772              		.loc 1 48 15 discriminator 2 view .LVU455
 1773 0066 13F00103 		ands	r3, r3, #1
 1774 006a D7D0     		beq	.L108
  53:./drivers/storage/w25qxx/w25qxx.c ****                 int page_4k = start/8;
 1775              		.loc 1 53 18 is_stmt 1 view .LVU456
  53:./drivers/storage/w25qxx/w25qxx.c ****                 int page_4k = start/8;
 1776              		.loc 1 53 20 is_stmt 0 discriminator 2 view .LVU457
 1777 006c 002B     		cmp	r3, #0
 1778 006e E3D0     		beq	.L96
 1779              	.LBB136:
  54:./drivers/storage/w25qxx/w25qxx.c ****                 int page_4k_offset = start%8;
 1780              		.loc 1 54 17 is_stmt 1 view .LVU458
  54:./drivers/storage/w25qxx/w25qxx.c ****                 int page_4k_offset = start%8;
 1781              		.loc 1 54 36 is_stmt 0 view .LVU459
 1782 0070 019B     		ldr	r3, [sp, #4]
 1783 0072 DA08     		lsrs	r2, r3, #3
 1784 0074 0092     		str	r2, [sp]
 1785              	.LVL157:
  55:./drivers/storage/w25qxx/w25qxx.c ****                 printk(KERN_INFO "w25qxx: write page:%d (%d b)\n",start,data_length);
 1786              		.loc 1 55 17 is_stmt 1 view .LVU460
  55:./drivers/storage/w25qxx/w25qxx.c ****                 printk(KERN_INFO "w25qxx: write page:%d (%d b)\n",start,data_length);
 1787              		.loc 1 55 21 is_stmt 0 view .LVU461
 1788 0076 03F00709 		and	r9, r3, #7
 1789              	.LVL158:
  56:./drivers/storage/w25qxx/w25qxx.c ****                 if(page_4k_offset == 0 && data_length == 4096) //4k
 1790              		.loc 1 56 17 is_stmt 1 view .LVU462
 1791 007a 4246     		mov	r2, r8
 1792              	.LVL159:
  56:./drivers/storage/w25qxx/w25qxx.c ****                 if(page_4k_offset == 0 && data_length == 4096) //4k
 1793              		.loc 1 56 17 is_stmt 0 view .LVU463
 1794 007c 1946     		mov	r1, r3
 1795 007e 4148     		ldr	r0, .L112+8
 1796 0080 FFF7FEFF 		bl	printk
 1797              	.LVL160:
  57:./drivers/storage/w25qxx/w25qxx.c ****                 {
 1798              		.loc 1 57 17 is_stmt 1 view .LVU464
  57:./drivers/storage/w25qxx/w25qxx.c ****                 {
 1799              		.loc 1 57 19 is_stmt 0 view .LVU465
ARM GAS  /tmp/ccnTZmpF.s 			page 151


 1800 0084 B9F1000F 		cmp	r9, #0
 1801 0088 02D1     		bne	.L97
  57:./drivers/storage/w25qxx/w25qxx.c ****                 {
 1802              		.loc 1 57 40 discriminator 1 view .LVU466
 1803 008a B8F5805F 		cmp	r8, #4096
 1804 008e 4ED0     		beq	.L109
 1805              	.L97:
 1806              	.LBB137:
  63:./drivers/storage/w25qxx/w25qxx.c ****                     ret = W25Qxx_device_read_page(w25qxx1_dev,w25qxx_buffer,4096,page_4k);//
 1807              		.loc 1 63 21 is_stmt 1 view .LVU467
  63:./drivers/storage/w25qxx/w25qxx.c ****                     ret = W25Qxx_device_read_page(w25qxx1_dev,w25qxx_buffer,4096,page_4k);//
 1808              		.loc 1 63 51 is_stmt 0 view .LVU468
 1809 0090 4FEA4923 		lsl	r3, r9, #9
 1810 0094 0293     		str	r3, [sp, #8]
  63:./drivers/storage/w25qxx/w25qxx.c ****                     ret = W25Qxx_device_read_page(w25qxx1_dev,w25qxx_buffer,4096,page_4k);//
 1811              		.loc 1 63 56 view .LVU469
 1812 0096 08EB4923 		add	r3, r8, r9, lsl #9
 1813 009a 0393     		str	r3, [sp, #12]
 1814              	.LVL161:
  64:./drivers/storage/w25qxx/w25qxx.c ****                     if (ret < 0)  break;
 1815              		.loc 1 64 21 is_stmt 1 view .LVU470
  64:./drivers/storage/w25qxx/w25qxx.c ****                     if (ret < 0)  break;
 1816              		.loc 1 64 27 is_stmt 0 view .LVU471
 1817 009c 009B     		ldr	r3, [sp]
 1818              	.LVL162:
  64:./drivers/storage/w25qxx/w25qxx.c ****                     if (ret < 0)  break;
 1819              		.loc 1 64 27 view .LVU472
 1820 009e 4FF48052 		mov	r2, #4096
 1821 00a2 3949     		ldr	r1, .L112+12
 1822 00a4 0968     		ldr	r1, [r1]
 1823 00a6 3648     		ldr	r0, .L112+4
 1824 00a8 0068     		ldr	r0, [r0]
 1825 00aa FFF7FEFF 		bl	W25Qxx_device_read_page
 1826              	.LVL163:
  65:./drivers/storage/w25qxx/w25qxx.c ****                     uint32_t cpoy_length = 4096 - page_4k_offset*512;                    //
 1827              		.loc 1 65 21 is_stmt 1 view .LVU473
  65:./drivers/storage/w25qxx/w25qxx.c ****                     uint32_t cpoy_length = 4096 - page_4k_offset*512;                    //
 1828              		.loc 1 65 24 is_stmt 0 view .LVU474
 1829 00ae 071E     		subs	r7, r0, #0
 1830 00b0 46DB     		blt	.L98
  66:./drivers/storage/w25qxx/w25qxx.c ****                     if(cpoy_length > data_length)
 1831              		.loc 1 66 21 is_stmt 1 view .LVU475
  66:./drivers/storage/w25qxx/w25qxx.c ****                     if(cpoy_length > data_length)
 1832              		.loc 1 66 49 is_stmt 0 view .LVU476
 1833 00b2 C9F10803 		rsb	r3, r9, #8
 1834 00b6 4FEA4329 		lsl	r9, r3, #9
 1835              	.LVL164:
  67:./drivers/storage/w25qxx/w25qxx.c ****                     cpoy_length = data_length;                                           //
 1836              		.loc 1 67 21 is_stmt 1 view .LVU477
  67:./drivers/storage/w25qxx/w25qxx.c ****                     cpoy_length = data_length;                                           //
 1837              		.loc 1 67 23 is_stmt 0 view .LVU478
 1838 00ba B8EB432F 		cmp	r8, r3, lsl #9
 1839 00be 00D2     		bcs	.L99
  68:./drivers/storage/w25qxx/w25qxx.c ****                     memcpy(w25qxx_buffer+page_4k_offset*512,buffer,cpoy_length);         //
 1840              		.loc 1 68 33 view .LVU479
 1841 00c0 C146     		mov	r9, r8
 1842              	.LVL165:
ARM GAS  /tmp/ccnTZmpF.s 			page 152


 1843              	.L99:
  69:./drivers/storage/w25qxx/w25qxx.c ****                     ret = W25Qxx_device_write_page(w25qxx1_dev,w25qxx_buffer,4096,page_4k);  //
 1844              		.loc 1 69 21 is_stmt 1 view .LVU480
 1845 00c2 314B     		ldr	r3, .L112+12
 1846 00c4 1F68     		ldr	r7, [r3]
 1847 00c6 4A46     		mov	r2, r9
 1848 00c8 3146     		mov	r1, r6
 1849 00ca 0298     		ldr	r0, [sp, #8]
 1850              	.LVL166:
  69:./drivers/storage/w25qxx/w25qxx.c ****                     ret = W25Qxx_device_write_page(w25qxx1_dev,w25qxx_buffer,4096,page_4k);  //
 1851              		.loc 1 69 21 is_stmt 0 view .LVU481
 1852 00cc 3844     		add	r0, r0, r7
 1853 00ce FFF7FEFF 		bl	memcpy
 1854              	.LVL167:
  70:./drivers/storage/w25qxx/w25qxx.c ****                     if (ret < 0)  break;
 1855              		.loc 1 70 21 is_stmt 1 view .LVU482
  70:./drivers/storage/w25qxx/w25qxx.c ****                     if (ret < 0)  break;
 1856              		.loc 1 70 27 is_stmt 0 view .LVU483
 1857 00d2 009B     		ldr	r3, [sp]
 1858 00d4 4FF48052 		mov	r2, #4096
 1859 00d8 3946     		mov	r1, r7
 1860 00da 2948     		ldr	r0, .L112+4
 1861 00dc 0068     		ldr	r0, [r0]
 1862 00de FFF7FEFF 		bl	W25Qxx_device_write_page
 1863              	.LVL168:
  71:./drivers/storage/w25qxx/w25qxx.c ****                     if(lost_data > 0){                                                  //
 1864              		.loc 1 71 21 is_stmt 1 view .LVU484
  71:./drivers/storage/w25qxx/w25qxx.c ****                     if(lost_data > 0){                                                  //
 1865              		.loc 1 71 24 is_stmt 0 view .LVU485
 1866 00e2 071E     		subs	r7, r0, #0
 1867 00e4 2CDB     		blt	.L98
  72:./drivers/storage/w25qxx/w25qxx.c ****                         ret = W25Qxx_device_read_page(w25qxx1_dev,w25qxx_buffer,4096,page_4k+1); 
 1868              		.loc 1 72 21 is_stmt 1 view .LVU486
  72:./drivers/storage/w25qxx/w25qxx.c ****                         ret = W25Qxx_device_read_page(w25qxx1_dev,w25qxx_buffer,4096,page_4k+1); 
 1869              		.loc 1 72 23 is_stmt 0 view .LVU487
 1870 00e6 039B     		ldr	r3, [sp, #12]
 1871 00e8 B3F5805F 		cmp	r3, #4096
 1872 00ec A4DD     		ble	.L96
  73:./drivers/storage/w25qxx/w25qxx.c ****                         if (ret < 0)  break;
 1873              		.loc 1 73 25 is_stmt 1 view .LVU488
  73:./drivers/storage/w25qxx/w25qxx.c ****                         if (ret < 0)  break;
 1874              		.loc 1 73 93 is_stmt 0 view .LVU489
 1875 00ee 009B     		ldr	r3, [sp]
 1876 00f0 0133     		adds	r3, r3, #1
  73:./drivers/storage/w25qxx/w25qxx.c ****                         if (ret < 0)  break;
 1877              		.loc 1 73 31 view .LVU490
 1878 00f2 0093     		str	r3, [sp]
 1879              	.LVL169:
  73:./drivers/storage/w25qxx/w25qxx.c ****                         if (ret < 0)  break;
 1880              		.loc 1 73 31 view .LVU491
 1881 00f4 4FF48052 		mov	r2, #4096
 1882 00f8 2349     		ldr	r1, .L112+12
 1883 00fa 0968     		ldr	r1, [r1]
 1884 00fc 2048     		ldr	r0, .L112+4
 1885              	.LVL170:
  73:./drivers/storage/w25qxx/w25qxx.c ****                         if (ret < 0)  break;
 1886              		.loc 1 73 31 view .LVU492
ARM GAS  /tmp/ccnTZmpF.s 			page 153


 1887 00fe 0068     		ldr	r0, [r0]
 1888 0100 FFF7FEFF 		bl	W25Qxx_device_read_page
 1889              	.LVL171:
  74:./drivers/storage/w25qxx/w25qxx.c ****                         cpoy_length = data_length - cpoy_length;                        //
 1890              		.loc 1 74 25 is_stmt 1 view .LVU493
  74:./drivers/storage/w25qxx/w25qxx.c ****                         cpoy_length = data_length - cpoy_length;                        //
 1891              		.loc 1 74 28 is_stmt 0 view .LVU494
 1892 0104 071E     		subs	r7, r0, #0
 1893 0106 1BDB     		blt	.L98
  75:./drivers/storage/w25qxx/w25qxx.c ****                         memcpy(w25qxx_buffer, buffer+(data_length-cpoy_length),cpoy_length);//
 1894              		.loc 1 75 25 is_stmt 1 view .LVU495
 1895              	.LVL172:
  76:./drivers/storage/w25qxx/w25qxx.c ****                         ret = W25Qxx_device_write_page(w25qxx1_dev,w25qxx_buffer,4096,page_4k+1);//
 1896              		.loc 1 76 25 view .LVU496
 1897 0108 1F4B     		ldr	r3, .L112+12
 1898 010a 1F68     		ldr	r7, [r3]
 1899 010c A8EB0902 		sub	r2, r8, r9
 1900              	.LVL173:
  76:./drivers/storage/w25qxx/w25qxx.c ****                         ret = W25Qxx_device_write_page(w25qxx1_dev,w25qxx_buffer,4096,page_4k+1);//
 1901              		.loc 1 76 25 is_stmt 0 view .LVU497
 1902 0110 06EB0901 		add	r1, r6, r9
 1903 0114 3846     		mov	r0, r7
 1904              	.LVL174:
  76:./drivers/storage/w25qxx/w25qxx.c ****                         ret = W25Qxx_device_write_page(w25qxx1_dev,w25qxx_buffer,4096,page_4k+1);//
 1905              		.loc 1 76 25 view .LVU498
 1906 0116 FFF7FEFF 		bl	memcpy
 1907              	.LVL175:
  77:./drivers/storage/w25qxx/w25qxx.c ****                     }
 1908              		.loc 1 77 25 is_stmt 1 view .LVU499
  77:./drivers/storage/w25qxx/w25qxx.c ****                     }
 1909              		.loc 1 77 31 is_stmt 0 view .LVU500
 1910 011a 009B     		ldr	r3, [sp]
 1911 011c 4FF48052 		mov	r2, #4096
 1912 0120 3946     		mov	r1, r7
 1913 0122 1748     		ldr	r0, .L112+4
 1914 0124 0068     		ldr	r0, [r0]
 1915 0126 FFF7FEFF 		bl	W25Qxx_device_write_page
 1916              	.LVL176:
 1917 012a 0746     		mov	r7, r0
 1918              	.LVL177:
  77:./drivers/storage/w25qxx/w25qxx.c ****                     }
 1919              		.loc 1 77 31 view .LVU501
 1920 012c 84E7     		b	.L96
 1921              	.LVL178:
 1922              	.L109:
  77:./drivers/storage/w25qxx/w25qxx.c ****                     }
 1923              		.loc 1 77 31 view .LVU502
 1924              	.LBE137:
  59:./drivers/storage/w25qxx/w25qxx.c ****                 }
 1925              		.loc 1 59 21 is_stmt 1 view .LVU503
  59:./drivers/storage/w25qxx/w25qxx.c ****                 }
 1926              		.loc 1 59 27 is_stmt 0 view .LVU504
 1927 012e 009B     		ldr	r3, [sp]
 1928 0130 4246     		mov	r2, r8
 1929 0132 3146     		mov	r1, r6
 1930 0134 1248     		ldr	r0, .L112+4
 1931 0136 0068     		ldr	r0, [r0]
ARM GAS  /tmp/ccnTZmpF.s 			page 154


 1932 0138 FFF7FEFF 		bl	W25Qxx_device_write_page
 1933              	.LVL179:
 1934 013c 0746     		mov	r7, r0
 1935              	.LVL180:
  59:./drivers/storage/w25qxx/w25qxx.c ****                 }
 1936              		.loc 1 59 25 view .LVU505
 1937 013e 7BE7     		b	.L96
 1938              	.LVL181:
 1939              	.L98:
  59:./drivers/storage/w25qxx/w25qxx.c ****                 }
 1940              		.loc 1 59 25 view .LVU506
 1941              	.LBE136:
 1942              	.LBE138:
 1943              	.LBE130:
  44:./drivers/storage/w25qxx/w25qxx.c ****         bio_for_each_segment(bvec,bio2,iter){
 1944              		.loc 1 44 5 is_stmt 1 discriminator 2 view .LVU507
 1945 0140 DAF82030 		ldr	r3, [r10, #32]
 1946 0144 D3F800B0 		ldr	fp, [r3]
 1947              	.LVL182:
  44:./drivers/storage/w25qxx/w25qxx.c ****         bio_for_each_segment(bvec,bio2,iter){
 1948              		.loc 1 44 5 is_stmt 0 discriminator 2 view .LVU508
 1949 0148 CAF820B0 		str	fp, [r10, #32]
 1950              	.LVL183:
 1951              	.L93:
  44:./drivers/storage/w25qxx/w25qxx.c ****         bio_for_each_segment(bvec,bio2,iter){
 1952              		.loc 1 44 5 is_stmt 1 discriminator 1 view .LVU509
 1953 014c DAF82030 		ldr	r3, [r10, #32]
 1954 0150 1BB1     		cbz	r3, .L110
 1955              	.LBB139:
  45:./drivers/storage/w25qxx/w25qxx.c ****             int data_length = bvec->bv_len;
 1956              		.loc 1 45 9 view .LVU510
 1957              	.LVL184:
  45:./drivers/storage/w25qxx/w25qxx.c ****             int data_length = bvec->bv_len;
 1958              		.loc 1 45 9 view .LVU511
  45:./drivers/storage/w25qxx/w25qxx.c ****             int data_length = bvec->bv_len;
 1959              		.loc 1 45 9 is_stmt 0 view .LVU512
 1960 0152 DBF83C40 		ldr	r4, [fp, #60]
 1961              	.LVL185:
  45:./drivers/storage/w25qxx/w25qxx.c ****             int data_length = bvec->bv_len;
 1962              		.loc 1 45 9 view .LVU513
 1963 0156 0025     		movs	r5, #0
 1964 0158 78E7     		b	.L94
 1965              	.LVL186:
 1966              	.L110:
  45:./drivers/storage/w25qxx/w25qxx.c ****             int data_length = bvec->bv_len;
 1967              		.loc 1 45 9 view .LVU514
 1968              	.LBE139:
  82:./drivers/storage/w25qxx/w25qxx.c ****         }
  83:./drivers/storage/w25qxx/w25qxx.c ****     }
  84:./drivers/storage/w25qxx/w25qxx.c ****     if (ret < 0)
 1969              		.loc 1 84 5 is_stmt 1 view .LVU515
 1970              		.loc 1 84 8 is_stmt 0 view .LVU516
 1971 015a 002F     		cmp	r7, #0
 1972 015c 07DB     		blt	.L111
  85:./drivers/storage/w25qxx/w25qxx.c ****     blk_mq_end_request(req,BLK_STS_IOERR);
  86:./drivers/storage/w25qxx/w25qxx.c ****     else 
  87:./drivers/storage/w25qxx/w25qxx.c ****     blk_mq_end_request(req,BLK_STS_OK);
ARM GAS  /tmp/ccnTZmpF.s 			page 155


 1973              		.loc 1 87 5 is_stmt 1 view .LVU517
 1974              	.LVL187:
 1975              	.LBB140:
 1976              	.LBI140:
 1977              		.file 13 "./include/linux/blkdev.h"
   1:./include/linux/blkdev.h **** /* SPDX-License-Identifier: GPL-2.0 */
   2:./include/linux/blkdev.h **** /*
   3:./include/linux/blkdev.h ****  * Portions Copyright (C) 1992 Drew Eckhardt
   4:./include/linux/blkdev.h ****  */
   5:./include/linux/blkdev.h **** #ifndef _LINUX_BLKDEV_H
   6:./include/linux/blkdev.h **** #define _LINUX_BLKDEV_H
   7:./include/linux/blkdev.h **** 
   8:./include/linux/blkdev.h **** #include <linux/types.h>
   9:./include/linux/blkdev.h **** #include <linux/blk-mq.h>
  10:./include/linux/blkdev.h **** #include <linux/blk_types.h>
  11:./include/linux/blkdev.h **** #include <linux/refcount_types.h>
  12:./include/linux/blkdev.h **** #include <linux/lockdep_types.h>
  13:./include/linux/blkdev.h **** #include <linux/blk_types.h>
  14:./include/linux/blkdev.h **** #include <linux/workqueue_types.h>
  15:./include/linux/blkdev.h **** #include <linux/blk.h>
  16:./include/linux/blkdev.h **** #include <linux/pr.h>
  17:./include/linux/blkdev.h **** #include <linux/hdreg.h>
  18:./include/linux/blkdev.h **** #include <linux/kdev_t.h>
  19:./include/linux/blkdev.h **** 
  20:./include/linux/blkdev.h **** struct gendisk;
  21:./include/linux/blkdev.h **** 
  22:./include/linux/blkdev.h **** 
  23:./include/linux/blkdev.h **** /*
  24:./include/linux/blkdev.h ****  * Maximum number of blkcg policies allowed to be registered concurrently.
  25:./include/linux/blkdev.h ****  * Defined here to simplify include dependency.
  26:./include/linux/blkdev.h ****  */
  27:./include/linux/blkdev.h **** #define BLKCG_MAX_POLS		6
  28:./include/linux/blkdev.h **** 
  29:./include/linux/blkdev.h **** #define DISK_MAX_PARTS			256
  30:./include/linux/blkdev.h **** #define DISK_NAME_LEN			32
  31:./include/linux/blkdev.h **** 
  32:./include/linux/blkdev.h **** #define PARTITION_META_INFO_VOLNAMELTH	64
  33:./include/linux/blkdev.h **** /*
  34:./include/linux/blkdev.h ****  * Enough for the string representation of any kind of UUID plus NULL.
  35:./include/linux/blkdev.h ****  * EFI UUID is 36 characters. MSDOS UUID is 11 characters.
  36:./include/linux/blkdev.h ****  */
  37:./include/linux/blkdev.h **** #define PARTITION_META_INFO_UUIDLTH	(UUID_STRING_LEN + 1)
  38:./include/linux/blkdev.h **** 
  39:./include/linux/blkdev.h **** struct partition_meta_info {
  40:./include/linux/blkdev.h **** 	char uuid[PARTITION_META_INFO_UUIDLTH];
  41:./include/linux/blkdev.h **** 	u8 volname[PARTITION_META_INFO_VOLNAMELTH];
  42:./include/linux/blkdev.h **** };
  43:./include/linux/blkdev.h **** 
  44:./include/linux/blkdev.h **** /**
  45:./include/linux/blkdev.h ****  * DOC: genhd capability flags
  46:./include/linux/blkdev.h ****  *
  47:./include/linux/blkdev.h ****  * ``GENHD_FL_REMOVABLE``: indicates that the block device gives access to
  48:./include/linux/blkdev.h ****  * removable media.  When set, the device remains present even when media is not
  49:./include/linux/blkdev.h ****  * inserted.  Shall not be set for devices which are removed entirely when the
  50:./include/linux/blkdev.h ****  * media is removed.
  51:./include/linux/blkdev.h ****  *
  52:./include/linux/blkdev.h ****  * ``GENHD_FL_HIDDEN``: the block device is hidden; it doesn't produce events,
ARM GAS  /tmp/ccnTZmpF.s 			page 156


  53:./include/linux/blkdev.h ****  * doesn't appear in sysfs, and can't be opened from userspace or using
  54:./include/linux/blkdev.h ****  * blkdev_get*. Used for the underlying components of multipath devices.
  55:./include/linux/blkdev.h ****  *
  56:./include/linux/blkdev.h ****  * ``GENHD_FL_NO_PART``: partition support is disabled.  The kernel will not
  57:./include/linux/blkdev.h ****  * scan for partitions from add_disk, and users can't add partitions manually.
  58:./include/linux/blkdev.h ****  *
  59:./include/linux/blkdev.h ****  */
  60:./include/linux/blkdev.h **** enum {
  61:./include/linux/blkdev.h **** 	GENHD_FL_REMOVABLE			= 1 << 0,
  62:./include/linux/blkdev.h **** 	GENHD_FL_HIDDEN				= 1 << 1,
  63:./include/linux/blkdev.h **** 	GENHD_FL_NO_PART			= 1 << 2,
  64:./include/linux/blkdev.h **** };
  65:./include/linux/blkdev.h **** 
  66:./include/linux/blkdev.h **** enum {
  67:./include/linux/blkdev.h **** 	DISK_EVENT_MEDIA_CHANGE			= 1 << 0, /* media changed */
  68:./include/linux/blkdev.h **** 	DISK_EVENT_EJECT_REQUEST		= 1 << 1, /* eject requested */
  69:./include/linux/blkdev.h **** };
  70:./include/linux/blkdev.h **** 
  71:./include/linux/blkdev.h **** enum {
  72:./include/linux/blkdev.h **** 	/* Poll even if events_poll_msecs is unset */
  73:./include/linux/blkdev.h **** 	DISK_EVENT_FLAG_POLL			= 1 << 0,
  74:./include/linux/blkdev.h **** 	/* Forward events to udev */
  75:./include/linux/blkdev.h **** 	DISK_EVENT_FLAG_UEVENT			= 1 << 1,
  76:./include/linux/blkdev.h **** 	/* Block event polling when open for exclusive write */
  77:./include/linux/blkdev.h **** 	DISK_EVENT_FLAG_BLOCK_ON_EXCL_WRITE	= 1 << 2,
  78:./include/linux/blkdev.h **** };
  79:./include/linux/blkdev.h **** 
  80:./include/linux/blkdev.h **** 
  81:./include/linux/blkdev.h **** 
  82:./include/linux/blkdev.h **** enum blk_integrity_checksum {
  83:./include/linux/blkdev.h **** 	BLK_INTEGRITY_CSUM_NONE		= 0,
  84:./include/linux/blkdev.h **** 	BLK_INTEGRITY_CSUM_IP		= 1,
  85:./include/linux/blkdev.h **** 	BLK_INTEGRITY_CSUM_CRC		= 2,
  86:./include/linux/blkdev.h **** 	BLK_INTEGRITY_CSUM_CRC64	= 3,
  87:./include/linux/blkdev.h **** } __packed ;
  88:./include/linux/blkdev.h **** 
  89:./include/linux/blkdev.h **** struct blk_integrity {
  90:./include/linux/blkdev.h **** 	unsigned char				flags;
  91:./include/linux/blkdev.h **** 	enum blk_integrity_checksum		csum_type;
  92:./include/linux/blkdev.h **** 	unsigned char				tuple_size;
  93:./include/linux/blkdev.h **** 	unsigned char				pi_offset;
  94:./include/linux/blkdev.h **** 	unsigned char				interval_exp;
  95:./include/linux/blkdev.h **** 	unsigned char				tag_size;
  96:./include/linux/blkdev.h **** };
  97:./include/linux/blkdev.h **** 
  98:./include/linux/blkdev.h **** 
  99:./include/linux/blkdev.h **** typedef unsigned int __bitwise blk_mode_t;
 100:./include/linux/blkdev.h **** 
 101:./include/linux/blkdev.h **** /* open for reading */
 102:./include/linux/blkdev.h **** #define BLK_OPEN_READ		((__force blk_mode_t)(1 << 0))
 103:./include/linux/blkdev.h **** /* open for writing */
 104:./include/linux/blkdev.h **** #define BLK_OPEN_WRITE		((__force blk_mode_t)(1 << 1))
 105:./include/linux/blkdev.h **** /* open exclusively (vs other exclusive openers */
 106:./include/linux/blkdev.h **** #define BLK_OPEN_EXCL		((__force blk_mode_t)(1 << 2))
 107:./include/linux/blkdev.h **** /* opened with O_NDELAY */
 108:./include/linux/blkdev.h **** #define BLK_OPEN_NDELAY		((__force blk_mode_t)(1 << 3))
 109:./include/linux/blkdev.h **** /* open for "writes" only for ioctls (specialy hack for floppy.c) */
ARM GAS  /tmp/ccnTZmpF.s 			page 157


 110:./include/linux/blkdev.h **** #define BLK_OPEN_WRITE_IOCTL	((__force blk_mode_t)(1 << 4))
 111:./include/linux/blkdev.h **** /* open is exclusive wrt all other BLK_OPEN_WRITE opens to the device */
 112:./include/linux/blkdev.h **** #define BLK_OPEN_RESTRICT_WRITES	((__force blk_mode_t)(1 << 5))
 113:./include/linux/blkdev.h **** /* return partition scanning errors */
 114:./include/linux/blkdev.h **** #define BLK_OPEN_STRICT_SCAN	((__force blk_mode_t)(1 << 6))
 115:./include/linux/blkdev.h **** 
 116:./include/linux/blkdev.h **** 
 117:./include/linux/blkdev.h **** enum block_device_flags_t
 118:./include/linux/blkdev.h **** {
 119:./include/linux/blkdev.h **** 	BLOCK_DEVICE_FLAG_NOT_INITIALIZED,       //
 120:./include/linux/blkdev.h ****     BLOCK_DEVICE_FLAG_MBR,                   //mbr
 121:./include/linux/blkdev.h ****     BLOCK_DEVICE_FLAG_GPT,                   //gpt
 122:./include/linux/blkdev.h ****     BLOCK_DEVICE_FLAG_PROTECTIVE_MBR ,       //MBR(gpt,MBR
 123:./include/linux/blkdev.h ****     BLOCK_DEVICE_FLAG_BROKEN_MBR,            //MBR
 124:./include/linux/blkdev.h ****     BLOCK_DEVICE_FLAG_BROKEN_GPT,            //GPT
 125:./include/linux/blkdev.h ****     BLOCK_DEVICE_FLAG_BROKEN_PROTECTIVE_MBR, //MBR
 126:./include/linux/blkdev.h **** };
 127:./include/linux/blkdev.h **** 
 128:./include/linux/blkdev.h **** static const char *block_device_flag_to_string(enum block_device_flags_t flag) {
 129:./include/linux/blkdev.h ****     switch (flag) {
 130:./include/linux/blkdev.h ****         case BLOCK_DEVICE_FLAG_MBR:
 131:./include/linux/blkdev.h ****             return "BLOCK_DEVICE_FLAG_MBR";
 132:./include/linux/blkdev.h ****         case BLOCK_DEVICE_FLAG_GPT:
 133:./include/linux/blkdev.h ****             return "BLOCK_DEVICE_FLAG_GPT";
 134:./include/linux/blkdev.h ****         case BLOCK_DEVICE_FLAG_PROTECTIVE_MBR:
 135:./include/linux/blkdev.h ****             return "BLOCK_DEVICE_FLAG_PROTECTIVE_MBR";
 136:./include/linux/blkdev.h ****         case BLOCK_DEVICE_FLAG_NOT_INITIALIZED:
 137:./include/linux/blkdev.h ****             return "BLOCK_DEVICE_FLAG_NOT_INITIALIZED";
 138:./include/linux/blkdev.h ****         case BLOCK_DEVICE_FLAG_BROKEN_MBR:
 139:./include/linux/blkdev.h ****             return "BLOCK_DEVICE_FLAG_BROKEN_MBR";
 140:./include/linux/blkdev.h ****         case BLOCK_DEVICE_FLAG_BROKEN_GPT:
 141:./include/linux/blkdev.h ****             return "BLOCK_DEVICE_FLAG_BROKEN_GPT";
 142:./include/linux/blkdev.h ****         case BLOCK_DEVICE_FLAG_BROKEN_PROTECTIVE_MBR:
 143:./include/linux/blkdev.h ****             return "BLOCK_DEVICE_FLAG_BROKEN_PROTECTIVE_MBR";
 144:./include/linux/blkdev.h ****         default:
 145:./include/linux/blkdev.h ****             return "Unknown flag";
 146:./include/linux/blkdev.h ****     }
 147:./include/linux/blkdev.h **** }
 148:./include/linux/blkdev.h **** 
 149:./include/linux/blkdev.h **** 
 150:./include/linux/blkdev.h **** 
 151:./include/linux/blkdev.h **** struct gpt_header {
 152:./include/linux/blkdev.h ****     uint64_t signature;             //  "EFI PART"
 153:./include/linux/blkdev.h ****     uint32_t revision;              // 0x00010000
 154:./include/linux/blkdev.h ****     uint32_t header_size;           // 92
 155:./include/linux/blkdev.h ****     uint32_t header_crc32;          // CRC32
 156:./include/linux/blkdev.h ****     uint32_t reserved;              // 
 157:./include/linux/blkdev.h ****     uint64_t my_lba;                // GPTLBA
 158:./include/linux/blkdev.h ****     uint64_t backup_lba;            // GPTLBA
 159:./include/linux/blkdev.h ****     uint64_t first_usable_lba;      // LBAGPT
 160:./include/linux/blkdev.h ****     uint64_t last_usable_lba;       // LBAGPT
 161:./include/linux/blkdev.h ****     uint8_t disk_guid[16];          // GUID
 162:./include/linux/blkdev.h ****     uint64_t partition_entry_start_lba; // LBA
 163:./include/linux/blkdev.h ****     uint32_t partition_entry_count; //     
 164:./include/linux/blkdev.h ****     uint32_t partition_entry_size;  // 
 165:./include/linux/blkdev.h ****     uint32_t partition_entry_crc32; // CRC32
 166:./include/linux/blkdev.h **** } __attribute__((packed));
ARM GAS  /tmp/ccnTZmpF.s 			page 158


 167:./include/linux/blkdev.h **** 
 168:./include/linux/blkdev.h **** 
 169:./include/linux/blkdev.h **** struct gpt_partition_entry {
 170:./include/linux/blkdev.h ****     uint8_t partition_type_guid[16];   // GUID
 171:./include/linux/blkdev.h ****     uint8_t unique_partition_guid[16]; // GUID
 172:./include/linux/blkdev.h ****     uint64_t starting_lba;             // LBA
 173:./include/linux/blkdev.h ****     uint64_t ending_lba;               // LBA
 174:./include/linux/blkdev.h ****     uint64_t attributes;               // 
 175:./include/linux/blkdev.h ****     uint16_t partition_name[36];       // UTF-16
 176:./include/linux/blkdev.h **** }__attribute__((packed));
 177:./include/linux/blkdev.h **** 
 178:./include/linux/blkdev.h **** 
 179:./include/linux/blkdev.h **** struct gpt_partition {
 180:./include/linux/blkdev.h ****     struct gpt_header header;
 181:./include/linux/blkdev.h ****     struct gpt_partition_entry entries[8];
 182:./include/linux/blkdev.h **** };
 183:./include/linux/blkdev.h **** 
 184:./include/linux/blkdev.h **** 
 185:./include/linux/blkdev.h **** struct mbr_partition {
 186:./include/linux/blkdev.h ****     uint8_t boot_ind;   // 0x80
 187:./include/linux/blkdev.h ****     
 188:./include/linux/blkdev.h ****     uint8_t start_head; 
 189:./include/linux/blkdev.h ****     uint8_t start_sector; 
 190:./include/linux/blkdev.h ****     uint8_t start_cyl;  
 191:./include/linux/blkdev.h **** 
 192:./include/linux/blkdev.h ****     uint8_t sys_ind;    // id()
 193:./include/linux/blkdev.h **** 
 194:./include/linux/blkdev.h ****     uint8_t end_head;   
 195:./include/linux/blkdev.h ****     uint8_t end_sector; 
 196:./include/linux/blkdev.h ****     uint8_t end_cyl;    
 197:./include/linux/blkdev.h ****     
 198:./include/linux/blkdev.h ****     uint32_t start_lba; // 
 199:./include/linux/blkdev.h ****     
 200:./include/linux/blkdev.h ****     uint32_t nr_sectors; // 
 201:./include/linux/blkdev.h **** }__attribute__((packed));
 202:./include/linux/blkdev.h **** 
 203:./include/linux/blkdev.h **** 
 204:./include/linux/blkdev.h **** struct partition {
 205:./include/linux/blkdev.h **** 	struct gpt_partition gpt_partition;
 206:./include/linux/blkdev.h **** 	struct mbr_partition mbr_partition[4];   
 207:./include/linux/blkdev.h **** };
 208:./include/linux/blkdev.h **** 
 209:./include/linux/blkdev.h **** 
 210:./include/linux/blkdev.h **** 
 211:./include/linux/blkdev.h **** 
 212:./include/linux/blkdev.h **** 
 213:./include/linux/blkdev.h **** struct gendisk {
 214:./include/linux/blkdev.h **** 	int major;
 215:./include/linux/blkdev.h **** 	int first_minor;
 216:./include/linux/blkdev.h **** 	int minors;
 217:./include/linux/blkdev.h **** 	char disk_name[DISK_NAME_LEN];	/* name of major driver */
 218:./include/linux/blkdev.h **** 	unsigned short events;		/* supported events */
 219:./include/linux/blkdev.h **** 	unsigned short event_flags;	/* flags related to event processing */
 220:./include/linux/blkdev.h **** 	struct xarray part_tbl;
 221:./include/linux/blkdev.h **** 	struct block_device *part0;
 222:./include/linux/blkdev.h **** 	const struct block_device_operations *fops; 
 223:./include/linux/blkdev.h ****  	struct request_queue *queue;
ARM GAS  /tmp/ccnTZmpF.s 			page 159


 224:./include/linux/blkdev.h **** 	void *private_data;
 225:./include/linux/blkdev.h **** 
 226:./include/linux/blkdev.h **** //	struct bio_set bio_split;    /**/
 227:./include/linux/blkdev.h **** 
 228:./include/linux/blkdev.h **** 	int flags;
 229:./include/linux/blkdev.h **** 	unsigned long state;
 230:./include/linux/blkdev.h **** 
 231:./include/linux/blkdev.h **** #define GD_NEED_PART_SCAN		0
 232:./include/linux/blkdev.h **** #define GD_READ_ONLY			1
 233:./include/linux/blkdev.h **** #define GD_DEAD				2
 234:./include/linux/blkdev.h **** #define GD_NATIVE_CAPACITY		3
 235:./include/linux/blkdev.h **** #define GD_ADDED			4
 236:./include/linux/blkdev.h **** #define GD_SUPPRESS_PART_SCAN		5
 237:./include/linux/blkdev.h **** #define GD_OWNS_QUEUE			6
 238:./include/linux/blkdev.h **** 
 239:./include/linux/blkdev.h **** 	struct mutex open_mutex;	/* open/close mutex */
 240:./include/linux/blkdev.h **** 	unsigned open_partitions;	/* number of open partitions */   
 241:./include/linux/blkdev.h **** //	struct backing_dev_info	*bdi;
 242:./include/linux/blkdev.h **** //	struct kobject queue_kobj;	/* the queue/ directory */
 243:./include/linux/blkdev.h **** // 	struct kobject *slave_dir;
 244:./include/linux/blkdev.h **** #ifdef CONFIG_BLOCK_HOLDER_DEPRECATED
 245:./include/linux/blkdev.h **** 	  struct list_head slave_bdevs;
 246:./include/linux/blkdev.h **** #endif
 247:./include/linux/blkdev.h **** 	int node_id;
 248:./include/linux/blkdev.h **** //	struct badblocks *bb;
 249:./include/linux/blkdev.h **** 	struct lockdep_map lockdep_map;
 250:./include/linux/blkdev.h **** 	u64 diskseq;
 251:./include/linux/blkdev.h **** 	blk_mode_t open_mode;
 252:./include/linux/blkdev.h **** 	struct blk_independent_access_ranges *ia_ranges;
 253:./include/linux/blkdev.h **** };
 254:./include/linux/blkdev.h **** 
 255:./include/linux/blkdev.h **** 
 256:./include/linux/blkdev.h **** 
 257:./include/linux/blkdev.h **** 
 258:./include/linux/blkdev.h **** typedef unsigned int __bitwise blk_features_t;
 259:./include/linux/blkdev.h **** /* internal flags in queue_limits.flags */
 260:./include/linux/blkdev.h **** typedef unsigned int __bitwise blk_flags_t;
 261:./include/linux/blkdev.h **** 
 262:./include/linux/blkdev.h **** struct queue_limits {
 263:./include/linux/blkdev.h **** 	blk_features_t		features;
 264:./include/linux/blkdev.h **** 	blk_flags_t		flags;
 265:./include/linux/blkdev.h **** 	unsigned long		seg_boundary_mask;
 266:./include/linux/blkdev.h **** 	unsigned long		virt_boundary_mask;
 267:./include/linux/blkdev.h **** 
 268:./include/linux/blkdev.h **** 	unsigned int		max_hw_sectors;
 269:./include/linux/blkdev.h **** 	unsigned int		max_dev_sectors;
 270:./include/linux/blkdev.h **** 	unsigned int		chunk_sectors;
 271:./include/linux/blkdev.h **** 	unsigned int		max_sectors;
 272:./include/linux/blkdev.h **** 	unsigned int		max_user_sectors;
 273:./include/linux/blkdev.h **** 	unsigned int		max_segment_size;
 274:./include/linux/blkdev.h **** 	unsigned int		physical_block_size;
 275:./include/linux/blkdev.h **** 	unsigned int		logical_block_size;
 276:./include/linux/blkdev.h **** 	unsigned int		alignment_offset;
 277:./include/linux/blkdev.h **** 	unsigned int		io_min;
 278:./include/linux/blkdev.h **** 	unsigned int		io_opt;
 279:./include/linux/blkdev.h **** 	unsigned int		max_discard_sectors;
 280:./include/linux/blkdev.h **** 	unsigned int		max_hw_discard_sectors;
ARM GAS  /tmp/ccnTZmpF.s 			page 160


 281:./include/linux/blkdev.h **** 	unsigned int		max_user_discard_sectors;
 282:./include/linux/blkdev.h **** 	unsigned int		max_secure_erase_sectors;
 283:./include/linux/blkdev.h **** 	unsigned int		max_write_zeroes_sectors;
 284:./include/linux/blkdev.h **** 	unsigned int		max_hw_zone_append_sectors;
 285:./include/linux/blkdev.h **** 	unsigned int		max_zone_append_sectors;
 286:./include/linux/blkdev.h **** 	unsigned int		discard_granularity;
 287:./include/linux/blkdev.h **** 	unsigned int		discard_alignment;
 288:./include/linux/blkdev.h **** 	unsigned int		zone_write_granularity;
 289:./include/linux/blkdev.h **** 
 290:./include/linux/blkdev.h **** 	/* atomic write limits */
 291:./include/linux/blkdev.h **** 	unsigned int		atomic_write_hw_max;
 292:./include/linux/blkdev.h **** 	unsigned int		atomic_write_max_sectors;
 293:./include/linux/blkdev.h **** 	unsigned int		atomic_write_hw_boundary;
 294:./include/linux/blkdev.h **** 	unsigned int		atomic_write_boundary_sectors;
 295:./include/linux/blkdev.h **** 	unsigned int		atomic_write_hw_unit_min;
 296:./include/linux/blkdev.h **** 	unsigned int		atomic_write_unit_min;
 297:./include/linux/blkdev.h **** 	unsigned int		atomic_write_hw_unit_max;
 298:./include/linux/blkdev.h **** 	unsigned int		atomic_write_unit_max;
 299:./include/linux/blkdev.h **** 
 300:./include/linux/blkdev.h **** 	unsigned short		max_segments;
 301:./include/linux/blkdev.h **** 	unsigned short		max_integrity_segments;
 302:./include/linux/blkdev.h **** 	unsigned short		max_discard_segments;
 303:./include/linux/blkdev.h **** 
 304:./include/linux/blkdev.h **** 	unsigned int		max_open_zones;
 305:./include/linux/blkdev.h **** 	unsigned int		max_active_zones;
 306:./include/linux/blkdev.h **** 
 307:./include/linux/blkdev.h **** 	/*
 308:./include/linux/blkdev.h **** 	 * Drivers that set dma_alignment to less than 511 must be prepared to
 309:./include/linux/blkdev.h **** 	 * handle individual bvec's that are not a multiple of a SECTOR_SIZE
 310:./include/linux/blkdev.h **** 	 * due to possible offsets.
 311:./include/linux/blkdev.h **** 	 */
 312:./include/linux/blkdev.h **** 	unsigned int		dma_alignment;
 313:./include/linux/blkdev.h **** 	unsigned int		dma_pad_mask;
 314:./include/linux/blkdev.h **** 
 315:./include/linux/blkdev.h **** 	struct blk_integrity	integrity;
 316:./include/linux/blkdev.h **** };
 317:./include/linux/blkdev.h **** 
 318:./include/linux/blkdev.h **** 
 319:./include/linux/blkdev.h **** 
 320:./include/linux/blkdev.h **** typedef int (*report_zones_cb)(struct blk_zone *zone, unsigned int idx,
 321:./include/linux/blkdev.h ****     void *data);
 322:./include/linux/blkdev.h **** 
 323:./include/linux/blkdev.h **** 
 324:./include/linux/blkdev.h **** 
 325:./include/linux/blkdev.h **** // struct request_queue {
 326:./include/linux/blkdev.h **** 
 327:./include/linux/blkdev.h **** // 	void			*queuedata;           //
 328:./include/linux/blkdev.h **** // 	struct elevator_queue	*elevator;   //io
 329:./include/linux/blkdev.h **** // 	const struct blk_mq_ops	*mq_ops;     //
 330:./include/linux/blkdev.h **** // 	struct blk_mq_ctx __percpu	*queue_ctx; // CPU 
 331:./include/linux/blkdev.h **** // 	unsigned long		queue_flags;         //
 332:./include/linux/blkdev.h **** // 	unsigned int		rq_timeout;        //
 333:./include/linux/blkdev.h **** // 	unsigned int		queue_depth;       //
 334:./include/linux/blkdev.h **** // 	refcount_t		refs;              //
 335:./include/linux/blkdev.h **** // 	unsigned int		nr_hw_queues;  //
 336:./include/linux/blkdev.h **** // 	struct xarray		hctx_table;     //hardware context
 337:./include/linux/blkdev.h **** // 	struct percpu_ref	q_usage_counter; //
ARM GAS  /tmp/ccnTZmpF.s 			page 161


 338:./include/linux/blkdev.h **** // 	struct lock_class_key	io_lock_cls_key; //I/O 
 339:./include/linux/blkdev.h **** // 	struct lockdep_map	io_lockdep_map;     
 340:./include/linux/blkdev.h **** // 	struct lock_class_key	q_lock_cls_key;   //
 341:./include/linux/blkdev.h **** // 	struct lockdep_map	q_lockdep_map;
 342:./include/linux/blkdev.h **** // 	struct request		*last_merge;          //
 343:./include/linux/blkdev.h **** // 	spinlock_t		queue_lock;				  //
 344:./include/linux/blkdev.h **** // 	int			quiesce_depth;			     //quiesce
 345:./include/linux/blkdev.h **** // 	struct gendisk		*disk;				//
 346:./include/linux/blkdev.h **** // 	struct kobject *mq_kobj; // sysfs 
 347:./include/linux/blkdev.h **** // 	struct queue_limits	limits;//
 348:./include/linux/blkdev.h **** // 	atomic_t		pm_only;     //
 349:./include/linux/blkdev.h **** // 	struct blk_queue_stats	*stats; //
 350:./include/linux/blkdev.h **** // 	struct rq_qos		*rq_qos;         //QoS
 351:./include/linux/blkdev.h **** // 	struct mutex		rq_qos_mutex;
 352:./include/linux/blkdev.h **** // 	int			id;							//
 353:./include/linux/blkdev.h **** // 	unsigned long		nr_requests;	    //
 354:./include/linux/blkdev.h **** // 	struct timer_list	timeout;			//
 355:./include/linux/blkdev.h **** // 	struct work_struct	timeout_work;
 356:./include/linux/blkdev.h **** // 	atomic_t		nr_active_requests_shared_tags; //
 357:./include/linux/blkdev.h **** // 	struct blk_mq_tags	*sched_shared_tags;           //
 358:./include/linux/blkdev.h **** // 	struct list_head	icq_list;          //I/O 
 359:./include/linux/blkdev.h **** // 	int			node;					//NUMA  ID
 360:./include/linux/blkdev.h **** // 	spinlock_t		requeue_lock;    //
 361:./include/linux/blkdev.h **** // 	struct list_head	requeue_list;
 362:./include/linux/blkdev.h **** //     struct delayed_work	requeue_work;
 363:./include/linux/blkdev.h **** // 	struct blk_flush_queue	*fq;        //
 364:./include/linux/blkdev.h **** // 	struct list_head	flush_list;
 365:./include/linux/blkdev.h **** // 	struct mutex		sysfs_lock;          //sysfs 
 366:./include/linux/blkdev.h **** // 	struct mutex		sysfs_dir_lock;
 367:./include/linux/blkdev.h **** // 	struct mutex		limits_lock;
 368:./include/linux/blkdev.h **** // 	struct list_head	unused_hctx_list;     //
 369:./include/linux/blkdev.h **** // 	spinlock_t		unused_hctx_lock;
 370:./include/linux/blkdev.h **** // 	int			mq_freeze_depth;             //
 371:./include/linux/blkdev.h **** // 	struct rcu_head		rcu_head;           //RCURead-Copy-Update
 372:./include/linux/blkdev.h **** // 	wait_queue_head_t	mq_freeze_wq;         //
 373:./include/linux/blkdev.h **** // 	struct mutex		mq_freeze_lock; 
 374:./include/linux/blkdev.h **** // 	struct blk_mq_tag_set	*tag_set;       //
 375:./include/linux/blkdev.h **** // 	struct list_head	tag_set_list;
 376:./include/linux/blkdev.h **** // 	struct dentry		*debugfs_dir;       //debugfs 
 377:./include/linux/blkdev.h **** // 	struct dentry		*sched_debugfs_dir;
 378:./include/linux/blkdev.h **** // 	struct dentry		*rqos_debugfs_dir;
 379:./include/linux/blkdev.h **** // 	struct mutex		debugfs_mutex;     //debugfs 
 380:./include/linux/blkdev.h **** // 	bool			mq_sysfs_init_done;    // sysfs 
 381:./include/linux/blkdev.h **** // };
 382:./include/linux/blkdev.h **** 
 383:./include/linux/blkdev.h **** 
 384:./include/linux/blkdev.h **** typedef void(*request_fn_t)(struct request *req);
 385:./include/linux/blkdev.h **** 
 386:./include/linux/blkdev.h **** struct request_queue {
 387:./include/linux/blkdev.h **** 
 388:./include/linux/blkdev.h **** 	void			*queuedata;             //
 389:./include/linux/blkdev.h **** 	struct request		*last_merge;        //
 390:./include/linux/blkdev.h **** 	spinlock_t		queue_lock;				//
 391:./include/linux/blkdev.h **** 	int			quiesce_depth;			    //quiesce
 392:./include/linux/blkdev.h **** 	struct gendisk		*disk;				//
 393:./include/linux/blkdev.h **** 	struct queue_limits	limits;             //
 394:./include/linux/blkdev.h **** 	int			id;							//
ARM GAS  /tmp/ccnTZmpF.s 			page 162


 395:./include/linux/blkdev.h **** 	unsigned long		nr_requests;	    //
 396:./include/linux/blkdev.h **** 	struct list_head	icq_list;           //I/O 
 397:./include/linux/blkdev.h **** 	int			node;					    //NUMA  ID
 398:./include/linux/blkdev.h **** 	request_fn_t q_fn;                      //
 399:./include/linux/blkdev.h **** 	spinlock_t*  q_lock;
 400:./include/linux/blkdev.h **** };
 401:./include/linux/blkdev.h **** 
 402:./include/linux/blkdev.h **** 
 403:./include/linux/blkdev.h **** 
 404:./include/linux/blkdev.h **** 
 405:./include/linux/blkdev.h **** static inline dev_t disk_devt(struct gendisk *disk)
 406:./include/linux/blkdev.h **** {
 407:./include/linux/blkdev.h **** 	return MKDEV(disk->major, disk->first_minor);
 408:./include/linux/blkdev.h **** }
 409:./include/linux/blkdev.h **** 
 410:./include/linux/blkdev.h **** 
 411:./include/linux/blkdev.h **** /* blk_validate_limits() validates bsize, so drivers don't usually need to */
 412:./include/linux/blkdev.h **** static inline int blk_validate_block_size(unsigned long bsize)
 413:./include/linux/blkdev.h **** {
 414:./include/linux/blkdev.h **** 	if (bsize < 512 || bsize > PAGE_SIZE || !is_power_of_2(bsize))
 415:./include/linux/blkdev.h **** 		return -EINVAL;
 416:./include/linux/blkdev.h **** 
 417:./include/linux/blkdev.h **** 	return 0;
 418:./include/linux/blkdev.h **** }
 419:./include/linux/blkdev.h **** 
 420:./include/linux/blkdev.h **** // static inline bool blk_op_is_passthrough(blk_opf_t op)
 421:./include/linux/blkdev.h **** // {
 422:./include/linux/blkdev.h **** // 	op &= REQ_OP_MASK;
 423:./include/linux/blkdev.h **** // 	return op == REQ_OP_DRV_IN || op == REQ_OP_DRV_OUT;
 424:./include/linux/blkdev.h **** // }
 425:./include/linux/blkdev.h **** 
 426:./include/linux/blkdev.h **** 
 427:./include/linux/blkdev.h **** 
 428:./include/linux/blkdev.h **** extern struct request_queue *request_queue_init(int id, struct gendisk *gd,gfp_t flags);
 429:./include/linux/blkdev.h **** 
 430:./include/linux/blkdev.h **** extern void request_queue_add(struct request_queue *q, struct request *req);
 431:./include/linux/blkdev.h **** 
 432:./include/linux/blkdev.h **** extern void request_queue_remove(struct request_queue *q, struct request *req);
 433:./include/linux/blkdev.h **** 
 434:./include/linux/blkdev.h **** extern void process_requests_in_queue(struct request_queue *q);
 435:./include/linux/blkdev.h **** 
 436:./include/linux/blkdev.h **** extern struct request *blk_fetch_request(struct request_queue *q);
 437:./include/linux/blkdev.h **** 
 438:./include/linux/blkdev.h **** extern void __blk_insert_request(struct request *rq, struct bio *bio);
 439:./include/linux/blkdev.h **** 
 440:./include/linux/blkdev.h **** extern void __blk_cleanup_queue(struct request_queue *q);
 441:./include/linux/blkdev.h **** 
 442:./include/linux/blkdev.h **** static __always_inline struct request_queue *blk_alloc_queue(gfp_t flags){
 443:./include/linux/blkdev.h **** 	return request_queue_init(0, NULL, flags);
 444:./include/linux/blkdev.h **** }
 445:./include/linux/blkdev.h **** static __always_inline struct request_queue *blk_init_queue(request_fn_t *fn,spinlock_t *lock){
 446:./include/linux/blkdev.h **** 	struct request_queue * q= request_queue_init(0, NULL, GFP_KERNEL);
 447:./include/linux/blkdev.h **** 	q->q_fn = fn;
 448:./include/linux/blkdev.h **** 	q->q_lock = lock;
 449:./include/linux/blkdev.h **** 	return q;
 450:./include/linux/blkdev.h **** }
 451:./include/linux/blkdev.h **** static __always_inline void blk_mq_insert_request(struct request_queue *q, struct request *req){
ARM GAS  /tmp/ccnTZmpF.s 			page 163


 452:./include/linux/blkdev.h **** 	request_queue_add(q, req);
 453:./include/linux/blkdev.h **** }
 454:./include/linux/blkdev.h **** static __always_inline void blk_queue_make_request(struct request_queue *q, struct request *req){
 455:./include/linux/blkdev.h **** 	request_queue_add(q, req);
 456:./include/linux/blkdev.h **** }
 457:./include/linux/blkdev.h **** static __always_inline void blk_mq_submit_bio(struct request *rq, struct bio *bio){  
 458:./include/linux/blkdev.h **** 	__blk_insert_request(rq, bio);
 459:./include/linux/blkdev.h **** }
 460:./include/linux/blkdev.h **** static __always_inline void blk_insert_request(struct request_queue *q, struct request *req){
 461:./include/linux/blkdev.h **** 	request_queue_add(q, req);
 462:./include/linux/blkdev.h **** }
 463:./include/linux/blkdev.h **** static __always_inline void blk_submit_bio(struct request *rq, struct bio *bio){  
 464:./include/linux/blkdev.h **** 	__blk_insert_request(rq, bio);
 465:./include/linux/blkdev.h **** }
 466:./include/linux/blkdev.h **** 
 467:./include/linux/blkdev.h **** static __always_inline void blk_mq_end_request(struct request *rq,blk_status_t error){
 1978              		.loc 13 467 29 view .LVU518
 1979              	.LBB141:
 468:./include/linux/blkdev.h **** 	request_queue_remove(rq->q,rq);
 1980              		.loc 13 468 2 view .LVU519
 1981 015e 5146     		mov	r1, r10
 1982 0160 DAF80000 		ldr	r0, [r10]
 1983 0164 FFF7FEFF 		bl	request_queue_remove
 1984              	.LVL188:
 1985              	.L91:
 1986              		.loc 13 468 2 is_stmt 0 view .LVU520
 1987              	.LBE141:
 1988              	.LBE140:
  88:./drivers/storage/w25qxx/w25qxx.c **** }
 1989              		.loc 1 88 1 view .LVU521
 1990 0168 05B0     		add	sp, sp, #20
 1991              	.LCFI35:
 1992              		.cfi_remember_state
 1993              		.cfi_def_cfa_offset 36
 1994              		@ sp needed
 1995 016a BDE8F08F 		pop	{r4, r5, r6, r7, r8, r9, r10, fp, pc}
 1996              	.LVL189:
 1997              	.L111:
 1998              	.LCFI36:
 1999              		.cfi_restore_state
  85:./drivers/storage/w25qxx/w25qxx.c ****     else 
 2000              		.loc 1 85 5 is_stmt 1 view .LVU522
 2001              	.LBB142:
 2002              	.LBI142:
 467:./include/linux/blkdev.h **** 	request_queue_remove(rq->q,rq);
 2003              		.loc 13 467 29 view .LVU523
 2004              	.LBB143:
 2005              		.loc 13 468 2 view .LVU524
 2006 016e 5146     		mov	r1, r10
 2007 0170 DAF80000 		ldr	r0, [r10]
 2008 0174 FFF7FEFF 		bl	request_queue_remove
 2009              	.LVL190:
 469:./include/linux/blkdev.h **** }
 2010              		.loc 13 469 1 is_stmt 0 view .LVU525
 2011 0178 F6E7     		b	.L91
 2012              	.LVL191:
 2013              	.L105:
ARM GAS  /tmp/ccnTZmpF.s 			page 164


 2014              	.LCFI37:
 2015              		.cfi_def_cfa_offset 0
 2016              		.cfi_restore 4
 2017              		.cfi_restore 5
 2018              		.cfi_restore 6
 2019              		.cfi_restore 7
 2020              		.cfi_restore 8
 2021              		.cfi_restore 9
 2022              		.cfi_restore 10
 2023              		.cfi_restore 11
 2024              		.cfi_restore 14
 2025              		.loc 13 469 1 view .LVU526
 2026 017a 7047     		bx	lr
 2027              	.L113:
 2028              		.align	2
 2029              	.L112:
 2030 017c 00000000 		.word	.LC12
 2031 0180 00000000 		.word	w25qxx1_dev
 2032 0184 20000000 		.word	.LC13
 2033 0188 00000000 		.word	w25qxx_buffer
 2034              	.LBE143:
 2035              	.LBE142:
 2036              		.cfi_endproc
 2037              	.LFE1052:
 2039              		.section	.text.w25qxx_request_queue,"ax",%progbits
 2040              		.align	1
 2041              		.syntax unified
 2042              		.thumb
 2043              		.thumb_func
 2045              	w25qxx_request_queue:
 2046              	.LVL192:
 2047              	.LFB1053:
  89:./drivers/storage/w25qxx/w25qxx.c **** 
  90:./drivers/storage/w25qxx/w25qxx.c **** 
  91:./drivers/storage/w25qxx/w25qxx.c **** static void w25qxx_request_queue(struct request_queue *q)
  92:./drivers/storage/w25qxx/w25qxx.c **** {
 2048              		.loc 1 92 1 is_stmt 1 view -0
 2049              		.cfi_startproc
 2050              		@ args = 0, pretend = 0, frame = 0
 2051              		@ frame_needed = 0, uses_anonymous_args = 0
 2052              		.loc 1 92 1 is_stmt 0 view .LVU528
 2053 0000 10B5     		push	{r4, lr}
 2054              	.LCFI38:
 2055              		.cfi_def_cfa_offset 8
 2056              		.cfi_offset 4, -8
 2057              		.cfi_offset 14, -4
 2058 0002 0446     		mov	r4, r0
  93:./drivers/storage/w25qxx/w25qxx.c ****     struct request *req= blk_fetch_request(q);
 2059              		.loc 1 93 5 is_stmt 1 view .LVU529
 2060              		.loc 1 93 26 is_stmt 0 view .LVU530
 2061 0004 FFF7FEFF 		bl	blk_fetch_request
 2062              	.LVL193:
  94:./drivers/storage/w25qxx/w25qxx.c ****     while (req != NULL){
 2063              		.loc 1 94 5 is_stmt 1 view .LVU531
 2064              		.loc 1 94 11 is_stmt 0 view .LVU532
 2065 0008 04E0     		b	.L115
 2066              	.L116:
ARM GAS  /tmp/ccnTZmpF.s 			page 165


  95:./drivers/storage/w25qxx/w25qxx.c ****         w25qxx_request(req);
 2067              		.loc 1 95 9 is_stmt 1 view .LVU533
 2068 000a FFF7FEFF 		bl	w25qxx_request
 2069              	.LVL194:
  96:./drivers/storage/w25qxx/w25qxx.c ****         req = blk_fetch_request(q);
 2070              		.loc 1 96 9 view .LVU534
 2071              		.loc 1 96 15 is_stmt 0 view .LVU535
 2072 000e 2046     		mov	r0, r4
 2073 0010 FFF7FEFF 		bl	blk_fetch_request
 2074              	.LVL195:
 2075              	.L115:
  94:./drivers/storage/w25qxx/w25qxx.c ****     while (req != NULL){
 2076              		.loc 1 94 16 is_stmt 1 view .LVU536
 2077 0014 0028     		cmp	r0, #0
 2078 0016 F8D1     		bne	.L116
  97:./drivers/storage/w25qxx/w25qxx.c ****     };
  98:./drivers/storage/w25qxx/w25qxx.c **** 
  99:./drivers/storage/w25qxx/w25qxx.c **** }
 2079              		.loc 1 99 1 is_stmt 0 view .LVU537
 2080 0018 10BD     		pop	{r4, pc}
 2081              		.loc 1 99 1 view .LVU538
 2082              		.cfi_endproc
 2083              	.LFE1053:
 2085              		.section	.text.blk_cleanup_queue,"ax",%progbits
 2086              		.align	1
 2087              		.syntax unified
 2088              		.thumb
 2089              		.thumb_func
 2091              	blk_cleanup_queue:
 2092              	.LVL196:
 2093              	.LFB1017:
 470:./include/linux/blkdev.h **** 
 471:./include/linux/blkdev.h **** static __always_inline void end_request(struct request *rq){
 472:./include/linux/blkdev.h **** 	request_queue_remove(rq->q,rq);
 473:./include/linux/blkdev.h **** }
 474:./include/linux/blkdev.h **** static void blk_cleanup_queue(struct request_queue *q){
 2094              		.loc 13 474 55 is_stmt 1 view -0
 2095              		.cfi_startproc
 2096              		@ args = 0, pretend = 0, frame = 0
 2097              		@ frame_needed = 0, uses_anonymous_args = 0
 2098              		.loc 13 474 55 is_stmt 0 view .LVU540
 2099 0000 08B5     		push	{r3, lr}
 2100              	.LCFI39:
 2101              		.cfi_def_cfa_offset 8
 2102              		.cfi_offset 3, -8
 2103              		.cfi_offset 14, -4
 475:./include/linux/blkdev.h **** 	__blk_cleanup_queue(q);
 2104              		.loc 13 475 2 is_stmt 1 view .LVU541
 2105 0002 FFF7FEFF 		bl	__blk_cleanup_queue
 2106              	.LVL197:
 476:./include/linux/blkdev.h **** }
 2107              		.loc 13 476 1 is_stmt 0 view .LVU542
 2108 0006 08BD     		pop	{r3, pc}
 2109              		.cfi_endproc
 2110              	.LFE1017:
 2112              		.section	.text.put_disk,"ax",%progbits
 2113              		.align	1
ARM GAS  /tmp/ccnTZmpF.s 			page 166


 2114              		.syntax unified
 2115              		.thumb
 2116              		.thumb_func
 2118              	put_disk:
 2119              	.LVL198:
 2120              	.LFB1018:
 477:./include/linux/blkdev.h **** 
 478:./include/linux/blkdev.h **** extern void __put_disk(struct gendisk *disk);
 479:./include/linux/blkdev.h **** 
 480:./include/linux/blkdev.h **** static void put_disk(struct gendisk *disk){
 2121              		.loc 13 480 43 is_stmt 1 view -0
 2122              		.cfi_startproc
 2123              		@ args = 0, pretend = 0, frame = 0
 2124              		@ frame_needed = 0, uses_anonymous_args = 0
 2125              		.loc 13 480 43 is_stmt 0 view .LVU544
 2126 0000 08B5     		push	{r3, lr}
 2127              	.LCFI40:
 2128              		.cfi_def_cfa_offset 8
 2129              		.cfi_offset 3, -8
 2130              		.cfi_offset 14, -4
 481:./include/linux/blkdev.h **** 	__put_disk(disk);
 2131              		.loc 13 481 2 is_stmt 1 view .LVU545
 2132 0002 FFF7FEFF 		bl	__put_disk
 2133              	.LVL199:
 482:./include/linux/blkdev.h **** }
 2134              		.loc 13 482 1 is_stmt 0 view .LVU546
 2135 0006 08BD     		pop	{r3, pc}
 2136              		.cfi_endproc
 2137              	.LFE1018:
 2139              		.section	.rodata.new_w25qxx_dev.str1.4,"aMS",%progbits,1
 2140              		.align	2
 2141              	.LC14:
 2142 0000 6D616C6C 		.ascii	"malloc failed\012\015\000"
 2142      6F632066 
 2142      61696C65 
 2142      640A0D00 
 2143              		.section	.text.new_w25qxx_dev,"ax",%progbits
 2144              		.align	1
 2145              		.global	new_w25qxx_dev
 2146              		.syntax unified
 2147              		.thumb
 2148              		.thumb_func
 2150              	new_w25qxx_dev:
 2151              	.LVL200:
 2152              	.LFB1041:
 130:./drivers/storage/w25qxx/w25qxx.h ****     struct w25qxx_dev *w25qxx_dev = kmalloc(sizeof(struct w25qxx_dev), GFP_KERNEL);
 2153              		.loc 3 130 1 is_stmt 1 view -0
 2154              		.cfi_startproc
 2155              		@ args = 0, pretend = 0, frame = 0
 2156              		@ frame_needed = 0, uses_anonymous_args = 0
 130:./drivers/storage/w25qxx/w25qxx.h ****     struct w25qxx_dev *w25qxx_dev = kmalloc(sizeof(struct w25qxx_dev), GFP_KERNEL);
 2157              		.loc 3 130 1 is_stmt 0 view .LVU548
 2158 0000 70B5     		push	{r4, r5, r6, lr}
 2159              	.LCFI41:
 2160              		.cfi_def_cfa_offset 16
 2161              		.cfi_offset 4, -16
 2162              		.cfi_offset 5, -12
ARM GAS  /tmp/ccnTZmpF.s 			page 167


 2163              		.cfi_offset 6, -8
 2164              		.cfi_offset 14, -4
 2165 0002 0646     		mov	r6, r0
 2166 0004 0D46     		mov	r5, r1
 131:./drivers/storage/w25qxx/w25qxx.h ****     if(w25qxx_dev == NULL){
 2167              		.loc 3 131 5 is_stmt 1 view .LVU549
 2168              	.LVL201:
 2169              	.LBB144:
 2170              	.LBI144:
 379:./include/linux/slab.h **** 	return __smalloc__((u32)size,flags);
 2171              		.loc 6 379 21 view .LVU550
 2172              	.LBB145:
 380:./include/linux/slab.h **** }
 2173              		.loc 6 380 2 view .LVU551
 380:./include/linux/slab.h **** }
 2174              		.loc 6 380 9 is_stmt 0 view .LVU552
 2175 0006 4FF44C61 		mov	r1, #3264
 2176              	.LVL202:
 380:./include/linux/slab.h **** }
 2177              		.loc 6 380 9 view .LVU553
 2178 000a 3C20     		movs	r0, #60
 2179              	.LVL203:
 380:./include/linux/slab.h **** }
 2180              		.loc 6 380 9 view .LVU554
 2181 000c FFF7FEFF 		bl	__smalloc__
 2182              	.LVL204:
 380:./include/linux/slab.h **** }
 2183              		.loc 6 380 9 view .LVU555
 2184              	.LBE145:
 2185              	.LBE144:
 132:./drivers/storage/w25qxx/w25qxx.h ****         printk("malloc failed\n\r");
 2186              		.loc 3 132 5 is_stmt 1 view .LVU556
 132:./drivers/storage/w25qxx/w25qxx.h ****         printk("malloc failed\n\r");
 2187              		.loc 3 132 7 is_stmt 0 view .LVU557
 2188 0010 0446     		mov	r4, r0
 2189 0012 88B1     		cbz	r0, .L126
 136:./drivers/storage/w25qxx/w25qxx.h ****     w25qxx_dev->read_data = w25qxx_read_data;
 2190              		.loc 3 136 5 is_stmt 1 view .LVU558
 136:./drivers/storage/w25qxx/w25qxx.h ****     w25qxx_dev->read_data = w25qxx_read_data;
 2191              		.loc 3 136 27 is_stmt 0 view .LVU559
 2192 0014 0A4B     		ldr	r3, .L127
 2193 0016 C362     		str	r3, [r0, #44]
 137:./drivers/storage/w25qxx/w25qxx.h ****     w25qxx_dev->send_start = set_cs_pin_low;
 2194              		.loc 3 137 5 is_stmt 1 view .LVU560
 137:./drivers/storage/w25qxx/w25qxx.h ****     w25qxx_dev->send_start = set_cs_pin_low;
 2195              		.loc 3 137 27 is_stmt 0 view .LVU561
 2196 0018 0A4B     		ldr	r3, .L127+4
 2197 001a 0363     		str	r3, [r0, #48]
 138:./drivers/storage/w25qxx/w25qxx.h ****     w25qxx_dev->send_stop = set_cs_pin_high;
 2198              		.loc 3 138 5 is_stmt 1 view .LVU562
 138:./drivers/storage/w25qxx/w25qxx.h ****     w25qxx_dev->send_stop = set_cs_pin_high;
 2199              		.loc 3 138 28 is_stmt 0 view .LVU563
 2200 001c 0A4B     		ldr	r3, .L127+8
 2201 001e 4363     		str	r3, [r0, #52]
 139:./drivers/storage/w25qxx/w25qxx.h ****     w25qxx_dev->status = w25qxx_device_init(w25qxx_dev,spi_dev,cs_pin_num);
 2202              		.loc 3 139 5 is_stmt 1 view .LVU564
 139:./drivers/storage/w25qxx/w25qxx.h ****     w25qxx_dev->status = w25qxx_device_init(w25qxx_dev,spi_dev,cs_pin_num);
ARM GAS  /tmp/ccnTZmpF.s 			page 168


 2203              		.loc 3 139 27 is_stmt 0 view .LVU565
 2204 0020 0A4B     		ldr	r3, .L127+12
 2205 0022 8363     		str	r3, [r0, #56]
 140:./drivers/storage/w25qxx/w25qxx.h ****     w25qxx_read_id(w25qxx_dev);
 2206              		.loc 3 140 5 is_stmt 1 view .LVU566
 140:./drivers/storage/w25qxx/w25qxx.h ****     w25qxx_read_id(w25qxx_dev);
 2207              		.loc 3 140 26 is_stmt 0 view .LVU567
 2208 0024 2A46     		mov	r2, r5
 2209 0026 3146     		mov	r1, r6
 2210 0028 FFF7FEFF 		bl	w25qxx_device_init
 2211              	.LVL205:
 140:./drivers/storage/w25qxx/w25qxx.h ****     w25qxx_read_id(w25qxx_dev);
 2212              		.loc 3 140 24 discriminator 1 view .LVU568
 2213 002c 2070     		strb	r0, [r4]
 141:./drivers/storage/w25qxx/w25qxx.h ****     if(w25qxx_dev->status < 0){
 2214              		.loc 3 141 5 is_stmt 1 view .LVU569
 2215 002e 2046     		mov	r0, r4
 2216 0030 FFF7FEFF 		bl	w25qxx_read_id
 2217              	.LVL206:
 142:./drivers/storage/w25qxx/w25qxx.h ****         kfree(w25qxx_dev);
 2218              		.loc 3 142 5 view .LVU570
 146:./drivers/storage/w25qxx/w25qxx.h **** }
 2219              		.loc 3 146 5 view .LVU571
 2220              	.L122:
 147:./drivers/storage/w25qxx/w25qxx.h **** 
 2221              		.loc 3 147 1 is_stmt 0 view .LVU572
 2222 0034 2046     		mov	r0, r4
 2223 0036 70BD     		pop	{r4, r5, r6, pc}
 2224              	.LVL207:
 2225              	.L126:
 133:./drivers/storage/w25qxx/w25qxx.h ****         return NULL;
 2226              		.loc 3 133 9 is_stmt 1 view .LVU573
 2227 0038 0548     		ldr	r0, .L127+16
 2228              	.LVL208:
 133:./drivers/storage/w25qxx/w25qxx.h ****         return NULL;
 2229              		.loc 3 133 9 is_stmt 0 view .LVU574
 2230 003a FFF7FEFF 		bl	printk
 2231              	.LVL209:
 134:./drivers/storage/w25qxx/w25qxx.h ****     }
 2232              		.loc 3 134 9 is_stmt 1 view .LVU575
 134:./drivers/storage/w25qxx/w25qxx.h ****     }
 2233              		.loc 3 134 16 is_stmt 0 view .LVU576
 2234 003e F9E7     		b	.L122
 2235              	.L128:
 2236              		.align	2
 2237              	.L127:
 2238 0040 00000000 		.word	w25qxx_send_data
 2239 0044 00000000 		.word	w25qxx_read_data
 2240 0048 00000000 		.word	set_cs_pin_low
 2241 004c 00000000 		.word	set_cs_pin_high
 2242 0050 00000000 		.word	.LC14
 2243              		.cfi_endproc
 2244              	.LFE1041:
 2246              		.section	.rodata.str1.4,"aMS",%progbits,1
 2247              		.align	2
 2248              	.LC15:
 2249 0000 4661696C 		.ascii	"Failed to allocate buffer\012\000"
ARM GAS  /tmp/ccnTZmpF.s 			page 169


 2249      65642074 
 2249      6F20616C 
 2249      6C6F6361 
 2249      74652062 
 2250 001b 00       		.align	2
 2251              	.LC16:
 2252 001c 77323571 		.ascii	"w25qxx1 device init failed\012\015\000"
 2252      78783120 
 2252      64657669 
 2252      63652069 
 2252      6E697420 
 2253 0039 000000   		.align	2
 2254              	.LC17:
 2255 003c 77323571 		.ascii	"w25qxx size has: %d block\012\000"
 2255      78782073 
 2255      697A6520 
 2255      6861733A 
 2255      20256420 
 2256 0057 00       		.align	2
 2257              	.LC18:
 2258 0058 61646420 		.ascii	"add disk faled\012\000"
 2258      6469736B 
 2258      2066616C 
 2258      65640A00 
 2259              		.align	2
 2260              	.LC19:
 2261 0068 77323571 		.ascii	"w25qxx block device stack ready!\012\000"
 2261      78782062 
 2261      6C6F636B 
 2261      20646576 
 2261      69636520 
 2262              		.section	.init.text,"ax",%progbits
 2263              		.align	1
 2264              		.syntax unified
 2265              		.thumb
 2266              		.thumb_func
 2268              	w25qxx_init:
 2269              	.LFB1054:
 100:./drivers/storage/w25qxx/w25qxx.c **** 
 101:./drivers/storage/w25qxx/w25qxx.c **** struct block_device_operations w25qxx_ops = {
 102:./drivers/storage/w25qxx/w25qxx.c ****     .owner = THIS_MODULE,
 103:./drivers/storage/w25qxx/w25qxx.c ****     .open = w25qxx_open,
 104:./drivers/storage/w25qxx/w25qxx.c ****     .release = w25qxx_release,
 105:./drivers/storage/w25qxx/w25qxx.c ****     .getgeo = w25qxx_getgeo,
 106:./drivers/storage/w25qxx/w25qxx.c **** };
 107:./drivers/storage/w25qxx/w25qxx.c **** 
 108:./drivers/storage/w25qxx/w25qxx.c **** 
 109:./drivers/storage/w25qxx/w25qxx.c **** #define DEVICE_NAME   "w25qxx_blk"
 110:./drivers/storage/w25qxx/w25qxx.c **** static struct gendisk       *w25qxx_disk;
 111:./drivers/storage/w25qxx/w25qxx.c **** static struct request_queue *w25qxx_queue;
 112:./drivers/storage/w25qxx/w25qxx.c **** static spinlock_t           w25qxx_lock;
 113:./drivers/storage/w25qxx/w25qxx.c **** static int major = 0;
 114:./drivers/storage/w25qxx/w25qxx.c **** static u8 *device_data; 
 115:./drivers/storage/w25qxx/w25qxx.c **** 
 116:./drivers/storage/w25qxx/w25qxx.c **** 
 117:./drivers/storage/w25qxx/w25qxx.c **** static int __init w25qxx_init(void)
 118:./drivers/storage/w25qxx/w25qxx.c **** {
ARM GAS  /tmp/ccnTZmpF.s 			page 170


 2270              		.loc 1 118 1 is_stmt 1 view -0
 2271              		.cfi_startproc
 2272              		@ args = 0, pretend = 0, frame = 0
 2273              		@ frame_needed = 0, uses_anonymous_args = 0
 2274 0000 38B5     		push	{r3, r4, r5, lr}
 2275              	.LCFI42:
 2276              		.cfi_def_cfa_offset 16
 2277              		.cfi_offset 3, -16
 2278              		.cfi_offset 4, -12
 2279              		.cfi_offset 5, -8
 2280              		.cfi_offset 14, -4
 119:./drivers/storage/w25qxx/w25qxx.c ****     w25qxx_buffer = vmalloc(4096);
 2281              		.loc 1 119 5 view .LVU578
 2282              	.LVL210:
 2283              	.LBB146:
 2284              	.LBI146:
 371:./include/linux/slab.h **** 	return __smalloc__(size,GFP_TRANSHUGE_LIGHT);
 2285              		.loc 6 371 21 view .LVU579
 2286              	.LBB147:
 372:./include/linux/slab.h **** }
 2287              		.loc 6 372 2 view .LVU580
 372:./include/linux/slab.h **** }
 2288              		.loc 6 372 9 is_stmt 0 view .LVU581
 2289 0002 5549     		ldr	r1, .L144
 2290 0004 4FF48050 		mov	r0, #4096
 2291 0008 FFF7FEFF 		bl	__smalloc__
 2292              	.LVL211:
 372:./include/linux/slab.h **** }
 2293              		.loc 6 372 9 view .LVU582
 2294              	.LBE147:
 2295              	.LBE146:
 2296              		.loc 1 119 19 discriminator 1 view .LVU583
 2297 000c 534B     		ldr	r3, .L144+4
 2298 000e 1860     		str	r0, [r3]
 120:./drivers/storage/w25qxx/w25qxx.c ****     if(w25qxx_buffer == NULL) {
 2299              		.loc 1 120 5 is_stmt 1 view .LVU584
 2300              		.loc 1 120 7 is_stmt 0 view .LVU585
 2301 0010 0028     		cmp	r0, #0
 2302 0012 4ED0     		beq	.L138
 121:./drivers/storage/w25qxx/w25qxx.c ****         printk(KERN_ERR "Failed to allocate buffer\n");
 122:./drivers/storage/w25qxx/w25qxx.c ****         return -ENOMEM;
 123:./drivers/storage/w25qxx/w25qxx.c ****     }
 124:./drivers/storage/w25qxx/w25qxx.c ****     w25qxx1_dev = new_w25qxx_dev(CONFIG_W25QXX_SPI_FLASH_SPI_DEVICE,CONFIG_W25QXX_SPI_FLASH_CS_PIN)
 2303              		.loc 1 124 5 is_stmt 1 view .LVU586
 2304              		.loc 1 124 19 is_stmt 0 view .LVU587
 2305 0014 0421     		movs	r1, #4
 2306 0016 5248     		ldr	r0, .L144+8
 2307 0018 FFF7FEFF 		bl	new_w25qxx_dev
 2308              	.LVL212:
 2309              		.loc 1 124 17 discriminator 1 view .LVU588
 2310 001c 514B     		ldr	r3, .L144+12
 2311 001e 1860     		str	r0, [r3]
 125:./drivers/storage/w25qxx/w25qxx.c ****     if(w25qxx1_dev == NULL){
 2312              		.loc 1 125 5 is_stmt 1 view .LVU589
 2313              		.loc 1 125 7 is_stmt 0 view .LVU590
 2314 0020 0028     		cmp	r0, #0
 2315 0022 4CD0     		beq	.L139
ARM GAS  /tmp/ccnTZmpF.s 			page 171


 126:./drivers/storage/w25qxx/w25qxx.c ****         printk("w25qxx1 device init failed\n\r");
 127:./drivers/storage/w25qxx/w25qxx.c ****         vfree(w25qxx_buffer);
 128:./drivers/storage/w25qxx/w25qxx.c ****         return -1;
 129:./drivers/storage/w25qxx/w25qxx.c ****     }
 130:./drivers/storage/w25qxx/w25qxx.c ****     w25qxx_queue = blk_init_queue(w25qxx_request_queue,&w25qxx_lock);   //request_queue
 2316              		.loc 1 130 5 is_stmt 1 view .LVU591
 2317              	.LVL213:
 2318              	.LBB148:
 2319              	.LBI148:
 445:./include/linux/blkdev.h **** 	struct request_queue * q= request_queue_init(0, NULL, GFP_KERNEL);
 2320              		.loc 13 445 46 view .LVU592
 2321              	.LBB149:
 446:./include/linux/blkdev.h **** 	q->q_fn = fn;
 2322              		.loc 13 446 2 view .LVU593
 446:./include/linux/blkdev.h **** 	q->q_fn = fn;
 2323              		.loc 13 446 28 is_stmt 0 view .LVU594
 2324 0024 4FF44C62 		mov	r2, #3264
 2325 0028 0021     		movs	r1, #0
 2326 002a 0846     		mov	r0, r1
 2327 002c FFF7FEFF 		bl	request_queue_init
 2328              	.LVL214:
 447:./include/linux/blkdev.h **** 	q->q_lock = lock;
 2329              		.loc 13 447 2 is_stmt 1 view .LVU595
 447:./include/linux/blkdev.h **** 	q->q_lock = lock;
 2330              		.loc 13 447 10 is_stmt 0 view .LVU596
 2331 0030 4D4B     		ldr	r3, .L144+16
 2332 0032 C0F8D830 		str	r3, [r0, #216]
 448:./include/linux/blkdev.h **** 	return q;
 2333              		.loc 13 448 2 is_stmt 1 view .LVU597
 448:./include/linux/blkdev.h **** 	return q;
 2334              		.loc 13 448 12 is_stmt 0 view .LVU598
 2335 0036 4D4B     		ldr	r3, .L144+20
 2336 0038 C0F8DC30 		str	r3, [r0, #220]
 449:./include/linux/blkdev.h **** }
 2337              		.loc 13 449 2 is_stmt 1 view .LVU599
 2338              	.LVL215:
 449:./include/linux/blkdev.h **** }
 2339              		.loc 13 449 2 is_stmt 0 view .LVU600
 2340              	.LBE149:
 2341              	.LBE148:
 2342              		.loc 1 130 18 discriminator 1 view .LVU601
 2343 003c 4C4B     		ldr	r3, .L144+24
 2344 003e 1860     		str	r0, [r3]
 131:./drivers/storage/w25qxx/w25qxx.c ****     if (!w25qxx_queue) {
 2345              		.loc 1 131 5 is_stmt 1 view .LVU602
 2346              		.loc 1 131 8 is_stmt 0 view .LVU603
 2347 0040 0028     		cmp	r0, #0
 2348 0042 46D0     		beq	.L140
 132:./drivers/storage/w25qxx/w25qxx.c ****         vfree(w25qxx_buffer); 
 133:./drivers/storage/w25qxx/w25qxx.c ****         kfree(w25qxx1_dev);
 134:./drivers/storage/w25qxx/w25qxx.c ****         return -ENOMEM;
 135:./drivers/storage/w25qxx/w25qxx.c ****     }
 136:./drivers/storage/w25qxx/w25qxx.c ****     w25qxx_queue->limits.physical_block_size = 4096;
 2349              		.loc 1 136 5 is_stmt 1 view .LVU604
 2350              		.loc 1 136 46 is_stmt 0 view .LVU605
 2351 0044 4FF48053 		mov	r3, #4096
 2352 0048 8364     		str	r3, [r0, #72]
ARM GAS  /tmp/ccnTZmpF.s 			page 172


 137:./drivers/storage/w25qxx/w25qxx.c **** 
 138:./drivers/storage/w25qxx/w25qxx.c ****     w25qxx_disk = alloc_disk(1);                  //gendisk
 2353              		.loc 1 138 5 is_stmt 1 view .LVU606
 2354              	.LVL216:
 2355              	.LBB150:
 2356              	.LBI150:
 483:./include/linux/blkdev.h **** 
 484:./include/linux/blkdev.h **** #define wait_for_completion(x) 
 485:./include/linux/blkdev.h **** 
 486:./include/linux/blkdev.h **** struct io_comp_batch {
 487:./include/linux/blkdev.h **** 	struct list_head req_list;
 488:./include/linux/blkdev.h **** 	bool need_ts;
 489:./include/linux/blkdev.h **** 	void (*complete)(struct io_comp_batch *);
 490:./include/linux/blkdev.h **** };
 491:./include/linux/blkdev.h **** 
 492:./include/linux/blkdev.h **** 
 493:./include/linux/blkdev.h **** enum blk_unique_id {
 494:./include/linux/blkdev.h **** 	/* these match the Designator Types specified in SPC */
 495:./include/linux/blkdev.h **** 	BLK_UID_T10	= 1,
 496:./include/linux/blkdev.h **** 	BLK_UID_EUI64	= 2,
 497:./include/linux/blkdev.h **** 	BLK_UID_NAA	= 3,
 498:./include/linux/blkdev.h **** };
 499:./include/linux/blkdev.h **** 
 500:./include/linux/blkdev.h **** 
 501:./include/linux/blkdev.h **** struct block_device_operations {
 502:./include/linux/blkdev.h **** 	void (*submit_bio)(struct bio *bio);
 503:./include/linux/blkdev.h **** 	int (*poll_bio)(struct bio *bio, struct io_comp_batch *iob,
 504:./include/linux/blkdev.h **** 			unsigned int flags);
 505:./include/linux/blkdev.h **** 	int (*open)(struct gendisk *disk, blk_mode_t mode);
 506:./include/linux/blkdev.h **** 	void (*release)(struct gendisk *disk);
 507:./include/linux/blkdev.h **** 	int (*ioctl)(struct block_device *bdev, blk_mode_t mode,
 508:./include/linux/blkdev.h **** 			unsigned cmd, unsigned long arg);
 509:./include/linux/blkdev.h **** 	int (*compat_ioctl)(struct block_device *bdev, blk_mode_t mode,
 510:./include/linux/blkdev.h **** 			unsigned cmd, unsigned long arg);
 511:./include/linux/blkdev.h **** 	unsigned int (*check_events) (struct gendisk *disk,
 512:./include/linux/blkdev.h **** 				      unsigned int clearing);
 513:./include/linux/blkdev.h **** 	void (*unlock_native_capacity) (struct gendisk *);
 514:./include/linux/blkdev.h **** 	int (*getgeo)(struct block_device *, struct hd_geometry *);
 515:./include/linux/blkdev.h **** 	int (*set_read_only)(struct block_device *bdev, bool ro);
 516:./include/linux/blkdev.h **** 	void (*free_disk)(struct gendisk *disk);
 517:./include/linux/blkdev.h **** 	/* this callback is with swap_lock and sometimes page table lock held */
 518:./include/linux/blkdev.h **** 	void (*swap_slot_free_notify) (struct block_device *, unsigned long);
 519:./include/linux/blkdev.h **** 	int (*report_zones)(struct gendisk *, sector_t sector,
 520:./include/linux/blkdev.h **** 			unsigned int nr_zones, report_zones_cb cb, void *data);
 521:./include/linux/blkdev.h **** 	char *(*devnode)(struct gendisk *disk, umode_t *mode);
 522:./include/linux/blkdev.h **** 	/* returns the length of the identifier or a negative errno: */
 523:./include/linux/blkdev.h **** 	int (*get_unique_id)(struct gendisk *disk, u8 id[16],
 524:./include/linux/blkdev.h **** 			enum blk_unique_id id_type);
 525:./include/linux/blkdev.h **** 	void *owner;
 526:./include/linux/blkdev.h **** 	const struct pr_ops *pr_ops;
 527:./include/linux/blkdev.h **** 
 528:./include/linux/blkdev.h **** 	/*
 529:./include/linux/blkdev.h **** 	 * Special callback for probing GPT entry at a given sector.
 530:./include/linux/blkdev.h **** 	 * Needed by Android devices, used by GPT scanner and MMC blk
 531:./include/linux/blkdev.h **** 	 * driver.
 532:./include/linux/blkdev.h **** 	 */
 533:./include/linux/blkdev.h **** 	int (*alternative_gpt_sector)(struct gendisk *disk, sector_t *sector);
ARM GAS  /tmp/ccnTZmpF.s 			page 173


 534:./include/linux/blkdev.h **** };
 535:./include/linux/blkdev.h **** 
 536:./include/linux/blkdev.h **** 
 537:./include/linux/blkdev.h **** extern struct gendisk *__gendisk_alloc(int major,int minors);
 538:./include/linux/blkdev.h **** 
 539:./include/linux/blkdev.h **** static inline struct gendisk *alloc_disk(int minors){
 2357              		.loc 13 539 31 view .LVU607
 2358              	.LBB151:
 540:./include/linux/blkdev.h **** 	return __gendisk_alloc(0, minors);
 2359              		.loc 13 540 2 view .LVU608
 2360              		.loc 13 540 9 is_stmt 0 view .LVU609
 2361 004a 0121     		movs	r1, #1
 2362 004c 0020     		movs	r0, #0
 2363 004e FFF7FEFF 		bl	__gendisk_alloc
 2364              	.LVL217:
 2365 0052 0446     		mov	r4, r0
 2366              	.LVL218:
 2367              		.loc 13 540 9 view .LVU610
 2368              	.LBE151:
 2369              	.LBE150:
 2370              		.loc 1 138 17 discriminator 1 view .LVU611
 2371 0054 474B     		ldr	r3, .L144+28
 2372 0056 1860     		str	r0, [r3]
 139:./drivers/storage/w25qxx/w25qxx.c ****     if (!w25qxx_disk) {
 2373              		.loc 1 139 5 is_stmt 1 view .LVU612
 2374              		.loc 1 139 8 is_stmt 0 view .LVU613
 2375 0058 0028     		cmp	r0, #0
 2376 005a 45D0     		beq	.L141
 140:./drivers/storage/w25qxx/w25qxx.c ****         vfree(w25qxx_buffer);
 141:./drivers/storage/w25qxx/w25qxx.c ****         kfree(w25qxx1_dev);
 142:./drivers/storage/w25qxx/w25qxx.c ****         blk_cleanup_queue(w25qxx_queue);
 143:./drivers/storage/w25qxx/w25qxx.c ****         return -ENOMEM;
 144:./drivers/storage/w25qxx/w25qxx.c ****     } 
 145:./drivers/storage/w25qxx/w25qxx.c ****     w25qxx_disk->part0 = kmalloc(sizeof(struct block_device),GFP_KERNEL);
 2377              		.loc 1 145 5 is_stmt 1 view .LVU614
 2378              	.LVL219:
 2379              	.LBB152:
 2380              	.LBI152:
 379:./include/linux/slab.h **** 	return __smalloc__((u32)size,flags);
 2381              		.loc 6 379 21 view .LVU615
 2382              	.LBB153:
 380:./include/linux/slab.h **** }
 2383              		.loc 6 380 2 view .LVU616
 380:./include/linux/slab.h **** }
 2384              		.loc 6 380 9 is_stmt 0 view .LVU617
 2385 005c 4FF44C61 		mov	r1, #3264
 2386 0060 6C20     		movs	r0, #108
 2387 0062 FFF7FEFF 		bl	__smalloc__
 2388              	.LVL220:
 380:./include/linux/slab.h **** }
 2389              		.loc 6 380 9 view .LVU618
 2390              	.LBE153:
 2391              	.LBE152:
 2392              		.loc 1 145 24 discriminator 1 view .LVU619
 2393 0066 A063     		str	r0, [r4, #56]
 146:./drivers/storage/w25qxx/w25qxx.c ****     if( w25qxx_disk->part0 == NULL){
 2394              		.loc 1 146 5 is_stmt 1 view .LVU620
ARM GAS  /tmp/ccnTZmpF.s 			page 174


 2395              		.loc 1 146 20 is_stmt 0 view .LVU621
 2396 0068 424B     		ldr	r3, .L144+28
 2397 006a 1B68     		ldr	r3, [r3]
 2398 006c 9B6B     		ldr	r3, [r3, #56]
 2399              		.loc 1 146 7 view .LVU622
 2400 006e 002B     		cmp	r3, #0
 2401 0070 49D0     		beq	.L142
 147:./drivers/storage/w25qxx/w25qxx.c ****         vfree(w25qxx_buffer);
 148:./drivers/storage/w25qxx/w25qxx.c ****         kfree(w25qxx1_dev);
 149:./drivers/storage/w25qxx/w25qxx.c ****         put_disk(w25qxx_disk);
 150:./drivers/storage/w25qxx/w25qxx.c ****         blk_cleanup_queue(w25qxx_queue);
 151:./drivers/storage/w25qxx/w25qxx.c ****         return -ENOMEM;
 152:./drivers/storage/w25qxx/w25qxx.c ****     }
 153:./drivers/storage/w25qxx/w25qxx.c ****     w25qxx_disk->part0->bd_start_sect = 0;
 2402              		.loc 1 153 5 is_stmt 1 view .LVU623
 2403              		.loc 1 153 39 is_stmt 0 view .LVU624
 2404 0072 0024     		movs	r4, #0
 2405 0074 1C60     		str	r4, [r3]
 154:./drivers/storage/w25qxx/w25qxx.c ****     printk(KERN_INFO "w25qxx size has: %d block\n",w25qxx1_dev->size/4096);
 2406              		.loc 1 154 5 is_stmt 1 view .LVU625
 2407              		.loc 1 154 63 is_stmt 0 view .LVU626
 2408 0076 3B4D     		ldr	r5, .L144+12
 2409 0078 2B68     		ldr	r3, [r5]
 2410 007a 996A     		ldr	r1, [r3, #40]
 2411              		.loc 1 154 5 view .LVU627
 2412 007c 090B     		lsrs	r1, r1, #12
 2413 007e 3E48     		ldr	r0, .L144+32
 2414 0080 FFF7FEFF 		bl	printk
 2415              	.LVL221:
 155:./drivers/storage/w25qxx/w25qxx.c ****     w25qxx_disk->part0->bd_nr_sectors = w25qxx1_dev->size/512;
 2416              		.loc 1 155 5 is_stmt 1 view .LVU628
 2417              		.loc 1 155 52 is_stmt 0 view .LVU629
 2418 0084 2B68     		ldr	r3, [r5]
 2419 0086 9B6A     		ldr	r3, [r3, #40]
 2420              		.loc 1 155 16 view .LVU630
 2421 0088 3A4A     		ldr	r2, .L144+28
 2422 008a 1068     		ldr	r0, [r2]
 2423 008c 826B     		ldr	r2, [r0, #56]
 2424              		.loc 1 155 58 view .LVU631
 2425 008e 5B0A     		lsrs	r3, r3, #9
 2426              		.loc 1 155 39 view .LVU632
 2427 0090 5360     		str	r3, [r2, #4]
 156:./drivers/storage/w25qxx/w25qxx.c **** 
 157:./drivers/storage/w25qxx/w25qxx.c ****     w25qxx_disk->major = major;
 2428              		.loc 1 157 5 is_stmt 1 view .LVU633
 2429              		.loc 1 157 24 is_stmt 0 view .LVU634
 2430 0092 0460     		str	r4, [r0]
 158:./drivers/storage/w25qxx/w25qxx.c ****     w25qxx_disk->first_minor = 0;
 2431              		.loc 1 158 5 is_stmt 1 view .LVU635
 2432              		.loc 1 158 30 is_stmt 0 view .LVU636
 2433 0094 4460     		str	r4, [r0, #4]
 159:./drivers/storage/w25qxx/w25qxx.c ****     w25qxx_disk->fops = &w25qxx_ops;
 2434              		.loc 1 159 5 is_stmt 1 view .LVU637
 2435              		.loc 1 159 23 is_stmt 0 view .LVU638
 2436 0096 394B     		ldr	r3, .L144+36
 2437 0098 C363     		str	r3, [r0, #60]
 160:./drivers/storage/w25qxx/w25qxx.c ****     w25qxx_disk->queue = w25qxx_queue;
ARM GAS  /tmp/ccnTZmpF.s 			page 175


 2438              		.loc 1 160 5 is_stmt 1 view .LVU639
 2439              		.loc 1 160 24 is_stmt 0 view .LVU640
 2440 009a 354B     		ldr	r3, .L144+24
 2441 009c 1B68     		ldr	r3, [r3]
 2442 009e 0364     		str	r3, [r0, #64]
 161:./drivers/storage/w25qxx/w25qxx.c **** 
 162:./drivers/storage/w25qxx/w25qxx.c ****     int ret = add_disk(w25qxx_disk);
 2443              		.loc 1 162 5 is_stmt 1 view .LVU641
 2444              		.loc 1 162 15 is_stmt 0 view .LVU642
 2445 00a0 FFF7FEFF 		bl	add_disk
 2446              	.LVL222:
 163:./drivers/storage/w25qxx/w25qxx.c ****     if(ret < 0)
 2447              		.loc 1 163 5 is_stmt 1 view .LVU643
 2448              		.loc 1 163 7 is_stmt 0 view .LVU644
 2449 00a4 A042     		cmp	r0, r4
 2450 00a6 41DB     		blt	.L143
 164:./drivers/storage/w25qxx/w25qxx.c ****     {
 165:./drivers/storage/w25qxx/w25qxx.c ****         printk(KERN_ERR "add disk faled\n");
 166:./drivers/storage/w25qxx/w25qxx.c ****         vfree(w25qxx_buffer);
 167:./drivers/storage/w25qxx/w25qxx.c ****         blk_cleanup_queue(w25qxx_queue);
 168:./drivers/storage/w25qxx/w25qxx.c ****         kfree(w25qxx1_dev);
 169:./drivers/storage/w25qxx/w25qxx.c ****         put_disk(w25qxx_disk);
 170:./drivers/storage/w25qxx/w25qxx.c ****         return -ENOMEM;
 171:./drivers/storage/w25qxx/w25qxx.c ****     }
 172:./drivers/storage/w25qxx/w25qxx.c **** 
 173:./drivers/storage/w25qxx/w25qxx.c ****     printk(KERN_INFO "w25qxx block device stack ready!\n");
 2451              		.loc 1 173 5 is_stmt 1 view .LVU645
 2452 00a8 3548     		ldr	r0, .L144+40
 2453              	.LVL223:
 2454              		.loc 1 173 5 is_stmt 0 view .LVU646
 2455 00aa FFF7FEFF 		bl	printk
 2456              	.LVL224:
 174:./drivers/storage/w25qxx/w25qxx.c ****     return 0;
 2457              		.loc 1 174 5 is_stmt 1 view .LVU647
 2458              		.loc 1 174 12 is_stmt 0 view .LVU648
 2459 00ae 0020     		movs	r0, #0
 2460              	.LVL225:
 2461              	.L129:
 175:./drivers/storage/w25qxx/w25qxx.c **** }
 2462              		.loc 1 175 1 view .LVU649
 2463 00b0 38BD     		pop	{r3, r4, r5, pc}
 2464              	.L138:
 121:./drivers/storage/w25qxx/w25qxx.c ****         return -ENOMEM;
 2465              		.loc 1 121 9 is_stmt 1 view .LVU650
 2466 00b2 3448     		ldr	r0, .L144+44
 2467 00b4 FFF7FEFF 		bl	printk
 2468              	.LVL226:
 122:./drivers/storage/w25qxx/w25qxx.c ****     }
 2469              		.loc 1 122 9 view .LVU651
 122:./drivers/storage/w25qxx/w25qxx.c ****     }
 2470              		.loc 1 122 16 is_stmt 0 view .LVU652
 2471 00b8 6FF00B00 		mvn	r0, #11
 2472 00bc F8E7     		b	.L129
 2473              	.L139:
 126:./drivers/storage/w25qxx/w25qxx.c ****         vfree(w25qxx_buffer);
 2474              		.loc 1 126 9 is_stmt 1 view .LVU653
 2475 00be 3248     		ldr	r0, .L144+48
ARM GAS  /tmp/ccnTZmpF.s 			page 176


 2476 00c0 FFF7FEFF 		bl	printk
 2477              	.LVL227:
 127:./drivers/storage/w25qxx/w25qxx.c ****         return -1;
 2478              		.loc 1 127 9 view .LVU654
 2479              	.LBB154:
 2480              	.LBI154:
 375:./include/linux/slab.h **** 	__sfree__(addr);
 2481              		.loc 6 375 20 view .LVU655
 2482              	.LBB155:
 376:./include/linux/slab.h **** }
 2483              		.loc 6 376 2 view .LVU656
 2484 00c4 254B     		ldr	r3, .L144+4
 376:./include/linux/slab.h **** }
 2485              		.loc 6 376 2 is_stmt 0 view .LVU657
 2486 00c6 1868     		ldr	r0, [r3]
 2487 00c8 FFF7FEFF 		bl	__sfree__
 2488              	.LVL228:
 376:./include/linux/slab.h **** }
 2489              		.loc 6 376 2 view .LVU658
 2490              	.LBE155:
 2491              	.LBE154:
 128:./drivers/storage/w25qxx/w25qxx.c ****     }
 2492              		.loc 1 128 9 is_stmt 1 view .LVU659
 128:./drivers/storage/w25qxx/w25qxx.c ****     }
 2493              		.loc 1 128 16 is_stmt 0 view .LVU660
 2494 00cc 4FF0FF30 		mov	r0, #-1
 2495 00d0 EEE7     		b	.L129
 2496              	.L140:
 132:./drivers/storage/w25qxx/w25qxx.c ****         kfree(w25qxx1_dev);
 2497              		.loc 1 132 9 is_stmt 1 view .LVU661
 2498              	.LVL229:
 2499              	.LBB156:
 2500              	.LBI156:
 375:./include/linux/slab.h **** 	__sfree__(addr);
 2501              		.loc 6 375 20 view .LVU662
 2502              	.LBB157:
 376:./include/linux/slab.h **** }
 2503              		.loc 6 376 2 view .LVU663
 2504 00d2 224B     		ldr	r3, .L144+4
 376:./include/linux/slab.h **** }
 2505              		.loc 6 376 2 is_stmt 0 view .LVU664
 2506 00d4 1868     		ldr	r0, [r3]
 2507 00d6 FFF7FEFF 		bl	__sfree__
 2508              	.LVL230:
 376:./include/linux/slab.h **** }
 2509              		.loc 6 376 2 view .LVU665
 2510              	.LBE157:
 2511              	.LBE156:
 133:./drivers/storage/w25qxx/w25qxx.c ****         return -ENOMEM;
 2512              		.loc 1 133 9 is_stmt 1 view .LVU666
 2513              	.LBB158:
 2514              	.LBI158:
 383:./include/linux/slab.h **** 	__sfree__((void*)ptr);
 2515              		.loc 6 383 20 view .LVU667
 2516              	.LBB159:
 2517              		.loc 6 384 2 view .LVU668
 2518 00da 224B     		ldr	r3, .L144+12
ARM GAS  /tmp/ccnTZmpF.s 			page 177


 2519              		.loc 6 384 2 is_stmt 0 view .LVU669
 2520 00dc 1868     		ldr	r0, [r3]
 2521 00de FFF7FEFF 		bl	__sfree__
 2522              	.LVL231:
 2523              		.loc 6 384 2 view .LVU670
 2524              	.LBE159:
 2525              	.LBE158:
 134:./drivers/storage/w25qxx/w25qxx.c ****     }
 2526              		.loc 1 134 9 is_stmt 1 view .LVU671
 134:./drivers/storage/w25qxx/w25qxx.c ****     }
 2527              		.loc 1 134 16 is_stmt 0 view .LVU672
 2528 00e2 6FF00B00 		mvn	r0, #11
 2529 00e6 E3E7     		b	.L129
 2530              	.L141:
 140:./drivers/storage/w25qxx/w25qxx.c ****         kfree(w25qxx1_dev);
 2531              		.loc 1 140 9 is_stmt 1 view .LVU673
 2532              	.LVL232:
 2533              	.LBB160:
 2534              	.LBI160:
 375:./include/linux/slab.h **** 	__sfree__(addr);
 2535              		.loc 6 375 20 view .LVU674
 2536              	.LBB161:
 376:./include/linux/slab.h **** }
 2537              		.loc 6 376 2 view .LVU675
 2538 00e8 1C4B     		ldr	r3, .L144+4
 376:./include/linux/slab.h **** }
 2539              		.loc 6 376 2 is_stmt 0 view .LVU676
 2540 00ea 1868     		ldr	r0, [r3]
 2541 00ec FFF7FEFF 		bl	__sfree__
 2542              	.LVL233:
 376:./include/linux/slab.h **** }
 2543              		.loc 6 376 2 view .LVU677
 2544              	.LBE161:
 2545              	.LBE160:
 141:./drivers/storage/w25qxx/w25qxx.c ****         blk_cleanup_queue(w25qxx_queue);
 2546              		.loc 1 141 9 is_stmt 1 view .LVU678
 2547              	.LBB162:
 2548              	.LBI162:
 383:./include/linux/slab.h **** 	__sfree__((void*)ptr);
 2549              		.loc 6 383 20 view .LVU679
 2550              	.LBB163:
 2551              		.loc 6 384 2 view .LVU680
 2552 00f0 1C4B     		ldr	r3, .L144+12
 2553              		.loc 6 384 2 is_stmt 0 view .LVU681
 2554 00f2 1868     		ldr	r0, [r3]
 2555 00f4 FFF7FEFF 		bl	__sfree__
 2556              	.LVL234:
 2557              		.loc 6 384 2 view .LVU682
 2558              	.LBE163:
 2559              	.LBE162:
 142:./drivers/storage/w25qxx/w25qxx.c ****         return -ENOMEM;
 2560              		.loc 1 142 9 is_stmt 1 view .LVU683
 2561 00f8 1D4B     		ldr	r3, .L144+24
 2562 00fa 1868     		ldr	r0, [r3]
 2563 00fc FFF7FEFF 		bl	blk_cleanup_queue
 2564              	.LVL235:
 143:./drivers/storage/w25qxx/w25qxx.c ****     } 
ARM GAS  /tmp/ccnTZmpF.s 			page 178


 2565              		.loc 1 143 9 view .LVU684
 143:./drivers/storage/w25qxx/w25qxx.c ****     } 
 2566              		.loc 1 143 16 is_stmt 0 view .LVU685
 2567 0100 6FF00B00 		mvn	r0, #11
 2568 0104 D4E7     		b	.L129
 2569              	.L142:
 147:./drivers/storage/w25qxx/w25qxx.c ****         kfree(w25qxx1_dev);
 2570              		.loc 1 147 9 is_stmt 1 view .LVU686
 2571              	.LVL236:
 2572              	.LBB164:
 2573              	.LBI164:
 375:./include/linux/slab.h **** 	__sfree__(addr);
 2574              		.loc 6 375 20 view .LVU687
 2575              	.LBB165:
 376:./include/linux/slab.h **** }
 2576              		.loc 6 376 2 view .LVU688
 2577 0106 154B     		ldr	r3, .L144+4
 376:./include/linux/slab.h **** }
 2578              		.loc 6 376 2 is_stmt 0 view .LVU689
 2579 0108 1868     		ldr	r0, [r3]
 2580 010a FFF7FEFF 		bl	__sfree__
 2581              	.LVL237:
 376:./include/linux/slab.h **** }
 2582              		.loc 6 376 2 view .LVU690
 2583              	.LBE165:
 2584              	.LBE164:
 148:./drivers/storage/w25qxx/w25qxx.c ****         put_disk(w25qxx_disk);
 2585              		.loc 1 148 9 is_stmt 1 view .LVU691
 2586              	.LBB166:
 2587              	.LBI166:
 383:./include/linux/slab.h **** 	__sfree__((void*)ptr);
 2588              		.loc 6 383 20 view .LVU692
 2589              	.LBB167:
 2590              		.loc 6 384 2 view .LVU693
 2591 010e 154B     		ldr	r3, .L144+12
 2592              		.loc 6 384 2 is_stmt 0 view .LVU694
 2593 0110 1868     		ldr	r0, [r3]
 2594 0112 FFF7FEFF 		bl	__sfree__
 2595              	.LVL238:
 2596              		.loc 6 384 2 view .LVU695
 2597              	.LBE167:
 2598              	.LBE166:
 149:./drivers/storage/w25qxx/w25qxx.c ****         blk_cleanup_queue(w25qxx_queue);
 2599              		.loc 1 149 9 is_stmt 1 view .LVU696
 2600 0116 174B     		ldr	r3, .L144+28
 2601 0118 1868     		ldr	r0, [r3]
 2602 011a FFF7FEFF 		bl	put_disk
 2603              	.LVL239:
 150:./drivers/storage/w25qxx/w25qxx.c ****         return -ENOMEM;
 2604              		.loc 1 150 9 view .LVU697
 2605 011e 144B     		ldr	r3, .L144+24
 2606 0120 1868     		ldr	r0, [r3]
 2607 0122 FFF7FEFF 		bl	blk_cleanup_queue
 2608              	.LVL240:
 151:./drivers/storage/w25qxx/w25qxx.c ****     }
 2609              		.loc 1 151 9 view .LVU698
 151:./drivers/storage/w25qxx/w25qxx.c ****     }
ARM GAS  /tmp/ccnTZmpF.s 			page 179


 2610              		.loc 1 151 16 is_stmt 0 view .LVU699
 2611 0126 6FF00B00 		mvn	r0, #11
 2612 012a C1E7     		b	.L129
 2613              	.LVL241:
 2614              	.L143:
 165:./drivers/storage/w25qxx/w25qxx.c ****         vfree(w25qxx_buffer);
 2615              		.loc 1 165 9 is_stmt 1 view .LVU700
 2616 012c 1748     		ldr	r0, .L144+52
 2617              	.LVL242:
 165:./drivers/storage/w25qxx/w25qxx.c ****         vfree(w25qxx_buffer);
 2618              		.loc 1 165 9 is_stmt 0 view .LVU701
 2619 012e FFF7FEFF 		bl	printk
 2620              	.LVL243:
 166:./drivers/storage/w25qxx/w25qxx.c ****         blk_cleanup_queue(w25qxx_queue);
 2621              		.loc 1 166 9 is_stmt 1 view .LVU702
 2622              	.LBB168:
 2623              	.LBI168:
 375:./include/linux/slab.h **** 	__sfree__(addr);
 2624              		.loc 6 375 20 view .LVU703
 2625              	.LBB169:
 376:./include/linux/slab.h **** }
 2626              		.loc 6 376 2 view .LVU704
 2627 0132 0A4B     		ldr	r3, .L144+4
 376:./include/linux/slab.h **** }
 2628              		.loc 6 376 2 is_stmt 0 view .LVU705
 2629 0134 1868     		ldr	r0, [r3]
 2630 0136 FFF7FEFF 		bl	__sfree__
 2631              	.LVL244:
 376:./include/linux/slab.h **** }
 2632              		.loc 6 376 2 view .LVU706
 2633              	.LBE169:
 2634              	.LBE168:
 167:./drivers/storage/w25qxx/w25qxx.c ****         kfree(w25qxx1_dev);
 2635              		.loc 1 167 9 is_stmt 1 view .LVU707
 2636 013a 0D4B     		ldr	r3, .L144+24
 2637 013c 1868     		ldr	r0, [r3]
 2638 013e FFF7FEFF 		bl	blk_cleanup_queue
 2639              	.LVL245:
 168:./drivers/storage/w25qxx/w25qxx.c ****         put_disk(w25qxx_disk);
 2640              		.loc 1 168 9 view .LVU708
 2641              	.LBB170:
 2642              	.LBI170:
 383:./include/linux/slab.h **** 	__sfree__((void*)ptr);
 2643              		.loc 6 383 20 view .LVU709
 2644              	.LBB171:
 2645              		.loc 6 384 2 view .LVU710
 2646 0142 2868     		ldr	r0, [r5]
 2647 0144 FFF7FEFF 		bl	__sfree__
 2648              	.LVL246:
 2649              		.loc 6 384 2 is_stmt 0 view .LVU711
 2650              	.LBE171:
 2651              	.LBE170:
 169:./drivers/storage/w25qxx/w25qxx.c ****         return -ENOMEM;
 2652              		.loc 1 169 9 is_stmt 1 view .LVU712
 2653 0148 0A4B     		ldr	r3, .L144+28
 2654 014a 1868     		ldr	r0, [r3]
 2655 014c FFF7FEFF 		bl	put_disk
ARM GAS  /tmp/ccnTZmpF.s 			page 180


 2656              	.LVL247:
 170:./drivers/storage/w25qxx/w25qxx.c ****     }
 2657              		.loc 1 170 9 view .LVU713
 170:./drivers/storage/w25qxx/w25qxx.c ****     }
 2658              		.loc 1 170 16 is_stmt 0 view .LVU714
 2659 0150 6FF00B00 		mvn	r0, #11
 2660 0154 ACE7     		b	.L129
 2661              	.L145:
 2662 0156 00BF     		.align	2
 2663              	.L144:
 2664 0158 CA201C00 		.word	1843402
 2665 015c 00000000 		.word	w25qxx_buffer
 2666 0160 00000000 		.word	.LC10
 2667 0164 00000000 		.word	w25qxx1_dev
 2668 0168 00000000 		.word	w25qxx_request_queue
 2669 016c 00000000 		.word	w25qxx_lock
 2670 0170 00000000 		.word	w25qxx_queue
 2671 0174 00000000 		.word	w25qxx_disk
 2672 0178 3C000000 		.word	.LC17
 2673 017c 00000000 		.word	w25qxx_ops
 2674 0180 68000000 		.word	.LC19
 2675 0184 00000000 		.word	.LC15
 2676 0188 1C000000 		.word	.LC16
 2677 018c 58000000 		.word	.LC18
 2678              		.cfi_endproc
 2679              	.LFE1054:
 2681              		.section	.device_initcall_sync,"aw"
 2682              		.align	2
 2685              	_initcall_w25qxx_init:
 2686 0000 00000000 		.word	w25qxx_init
 2687              		.section	.bss.w25qxx_lock,"aw",%nobits
 2688              		.align	2
 2691              	w25qxx_lock:
 2692 0000 00000000 		.space	16
 2692      00000000 
 2692      00000000 
 2692      00000000 
 2693              		.section	.bss.w25qxx_queue,"aw",%nobits
 2694              		.align	2
 2697              	w25qxx_queue:
 2698 0000 00000000 		.space	4
 2699              		.section	.bss.w25qxx_disk,"aw",%nobits
 2700              		.align	2
 2703              	w25qxx_disk:
 2704 0000 00000000 		.space	4
 2705              		.global	w25qxx_ops
 2706              		.section	.data.w25qxx_ops,"aw"
 2707              		.align	2
 2710              	w25qxx_ops:
 2711 0000 00000000 		.space	8
 2711      00000000 
 2712 0008 00000000 		.word	w25qxx_open
 2713 000c 00000000 		.word	w25qxx_release
 2714 0010 00000000 		.space	16
 2714      00000000 
 2714      00000000 
 2714      00000000 
ARM GAS  /tmp/ccnTZmpF.s 			page 181


 2715 0020 00000000 		.word	w25qxx_getgeo
 2716 0024 00000000 		.space	24
 2716      00000000 
 2716      00000000 
 2716      00000000 
 2716      00000000 
 2717 003c 00000000 		.word	0
 2718 0040 00000000 		.space	8
 2718      00000000 
 2719              		.section	.bss.w25qxx_buffer,"aw",%nobits
 2720              		.align	2
 2723              	w25qxx_buffer:
 2724 0000 00000000 		.space	4
 2725              		.section	.bss.w25qxx1_dev,"aw",%nobits
 2726              		.align	2
 2729              	w25qxx1_dev:
 2730 0000 00000000 		.space	4
 2731              		.text
 2732              	.Letext0:
 2733              		.file 14 "./include/asm-generic/int-l64.h"
 2734              		.file 15 "./include/asm-generic/posix_types.h"
 2735              		.file 16 "./include/uapi/linux/types.h"
 2736              		.file 17 "./include/linux/types.h"
 2737              		.file 18 "./include/linux/init.h"
 2738              		.file 19 "./include/linux/spi/spi.h"
 2739              		.file 20 "./include/linux/errseq.h"
 2740              		.file 21 "./include/linux/time64.h"
 2741              		.file 22 "./arch/arm_m/include/asm/spinlock.h"
 2742              		.file 23 "./include/linux/spinlock_types_raw.h"
 2743              		.file 24 "./include/linux/spinlock_types.h"
 2744              		.file 25 "./include/linux/rbtree_types.h"
 2745              		.file 26 "./include/linux/uidgid_types.h"
 2746              		.file 27 "./include/linux/projid.h"
 2747              		.file 28 "./include/linux/mnt_idmapping.h"
 2748              		.file 29 "./include/linux/mutex.h"
 2749              		.file 30 "./include/linux/uio.h"
 2750              		.file 31 "./include/linux/wait.h"
 2751              		.file 32 "./include/linux/xarray.h"
 2752              		.file 33 "./include/linux/migrate_mode.h"
 2753              		.file 34 "./include/linux/rw_hint.h"
 2754              		.file 35 "./include/linux/stddef.h"
 2755              		.file 36 "./include/linux/gfp_types.h"
 2756              		.file 37 "./include/linux/reciprocal_div.h"
 2757              		.file 38 "./include/linux/bvec.h"
 2758              		.file 39 "./include/linux/bio.h"
 2759              		.file 40 "./include/linux/mempool_super_haper.h"
 2760              		.file 41 "./include/linux/mempool.h"
 2761              		.file 42 "./include/linux/lockdep_types.h"
 2762              		.file 43 "./include/linux/workqueue_types.h"
 2763              		.file 44 "./include/linux/dcache.h"
 2764              		.file 45 "./include/uapi/linux/pr.h"
 2765              		.file 46 "./include/linux/pr.h"
 2766              		.file 47 "./include/linux/hdreg.h"
 2767              		.file 48 "./include/linux/lockref.h"
 2768              		.file 49 "./include/linux/path.h"
 2769              		.file 50 "./include/linux/statfs.h"
 2770              		.file 51 "./include/linux/stat.h"
ARM GAS  /tmp/ccnTZmpF.s 			page 182


 2771              		.file 52 "./arch/arm_m/include/asm/string.h"
 2772              		.file 53 "./include/linux/printk.h"
 2773              		.file 54 "./include/linux/instrumented.h"
 2774              		.file 55 "./include/linux/kcsan-checks.h"
 2775              		.file 56 "./include/linux/kasan-checks.h"
 2776              		.file 57 "<built-in>"
ARM GAS  /tmp/ccnTZmpF.s 			page 183


DEFINED SYMBOLS
                            *ABS*:00000000 w25qxx.c
     /tmp/ccnTZmpF.s:21     .text.__kmap:00000000 $t
     /tmp/ccnTZmpF.s:26     .text.__kmap:00000000 __kmap
     /tmp/ccnTZmpF.s:52     .text.W25Qxx_write_enable:00000000 $t
     /tmp/ccnTZmpF.s:57     .text.W25Qxx_write_enable:00000000 W25Qxx_write_enable
     /tmp/ccnTZmpF.s:112    .text.W25Qxx_wait_busy:00000000 $t
     /tmp/ccnTZmpF.s:117    .text.W25Qxx_wait_busy:00000000 W25Qxx_wait_busy
     /tmp/ccnTZmpF.s:192    .text.W25Qxx_erase_sector:00000000 $t
     /tmp/ccnTZmpF.s:197    .text.W25Qxx_erase_sector:00000000 W25Qxx_erase_sector
     /tmp/ccnTZmpF.s:269    .text.W25Qxx_write:00000000 $t
     /tmp/ccnTZmpF.s:274    .text.W25Qxx_write:00000000 W25Qxx_write
     /tmp/ccnTZmpF.s:360    .text.W25Qxx_read:00000000 $t
     /tmp/ccnTZmpF.s:365    .text.W25Qxx_read:00000000 W25Qxx_read
     /tmp/ccnTZmpF.s:447    .text.W25Qxx_device_write_page:00000000 $t
     /tmp/ccnTZmpF.s:452    .text.W25Qxx_device_write_page:00000000 W25Qxx_device_write_page
     /tmp/ccnTZmpF.s:542    .text.W25Qxx_device_read_page:00000000 $t
     /tmp/ccnTZmpF.s:547    .text.W25Qxx_device_read_page:00000000 W25Qxx_device_read_page
     /tmp/ccnTZmpF.s:581    .text.w25qxx_getgeo:00000000 $t
     /tmp/ccnTZmpF.s:586    .text.w25qxx_getgeo:00000000 w25qxx_getgeo
     /tmp/ccnTZmpF.s:622    .text.w25qxx_getgeo:00000018 $d
     /tmp/ccnTZmpF.s:2729   .bss.w25qxx1_dev:00000000 w25qxx1_dev
     /tmp/ccnTZmpF.s:627    .rodata.w25qxx_read_id.str1.4:00000000 $d
     /tmp/ccnTZmpF.s:632    .text.w25qxx_read_id:00000000 $t
     /tmp/ccnTZmpF.s:637    .text.w25qxx_read_id:00000000 w25qxx_read_id
     /tmp/ccnTZmpF.s:776    .text.w25qxx_read_id:00000090 $d
     /tmp/ccnTZmpF.s:781    .rodata.w25qxx_release.str1.4:00000000 $d
     /tmp/ccnTZmpF.s:785    .text.w25qxx_release:00000000 $t
     /tmp/ccnTZmpF.s:790    .text.w25qxx_release:00000000 w25qxx_release
     /tmp/ccnTZmpF.s:814    .text.w25qxx_release:0000000c $d
     /tmp/ccnTZmpF.s:819    .rodata.w25qxx_open.str1.4:00000000 $d
     /tmp/ccnTZmpF.s:823    .text.w25qxx_open:00000000 $t
     /tmp/ccnTZmpF.s:828    .text.w25qxx_open:00000000 w25qxx_open
     /tmp/ccnTZmpF.s:854    .text.w25qxx_open:0000000c $d
     /tmp/ccnTZmpF.s:859    .rodata.set_cs_pin_high.str1.4:00000000 $d
     /tmp/ccnTZmpF.s:866    .text.set_cs_pin_high:00000000 $t
     /tmp/ccnTZmpF.s:871    .text.set_cs_pin_high:00000000 set_cs_pin_high
     /tmp/ccnTZmpF.s:915    .text.set_cs_pin_high:0000001c $d
     /tmp/ccnTZmpF.s:921    .rodata.set_cs_pin_low.str1.4:00000000 $d
     /tmp/ccnTZmpF.s:928    .text.set_cs_pin_low:00000000 $t
     /tmp/ccnTZmpF.s:933    .text.set_cs_pin_low:00000000 set_cs_pin_low
     /tmp/ccnTZmpF.s:977    .text.set_cs_pin_low:0000001c $d
     /tmp/ccnTZmpF.s:983    .text.w25qxx_read_data:00000000 $t
     /tmp/ccnTZmpF.s:988    .text.w25qxx_read_data:00000000 w25qxx_read_data
     /tmp/ccnTZmpF.s:1031   .text.w25qxx_send_data:00000000 $t
     /tmp/ccnTZmpF.s:1036   .text.w25qxx_send_data:00000000 w25qxx_send_data
     /tmp/ccnTZmpF.s:1079   .rodata.cs_pin_init.str1.4:00000000 $d
     /tmp/ccnTZmpF.s:1089   .text.cs_pin_init:00000000 $t
     /tmp/ccnTZmpF.s:1094   .text.cs_pin_init:00000000 cs_pin_init
     /tmp/ccnTZmpF.s:1210   .text.cs_pin_init:00000068 $d
     /tmp/ccnTZmpF.s:1217   .rodata.spi_write_enable.str1.4:00000000 $d
     /tmp/ccnTZmpF.s:1221   .text.spi_write_enable:00000000 $t
     /tmp/ccnTZmpF.s:1226   .text.spi_write_enable:00000000 spi_write_enable
     /tmp/ccnTZmpF.s:1306   .text.spi_write_enable:00000038 $d
     /tmp/ccnTZmpF.s:1312   .rodata.w25qxx_device_init.str1.4:00000000 $d
     /tmp/ccnTZmpF.s:1316   .text.w25qxx_device_init:00000000 $t
     /tmp/ccnTZmpF.s:1321   .text.w25qxx_device_init:00000000 w25qxx_device_init
ARM GAS  /tmp/ccnTZmpF.s 			page 184


     /tmp/ccnTZmpF.s:1367   .text.w25qxx_device_init:00000020 $d
     /tmp/ccnTZmpF.s:1373   .text.add_disk:00000000 $t
     /tmp/ccnTZmpF.s:1378   .text.add_disk:00000000 add_disk
     /tmp/ccnTZmpF.s:1402   .text.__free_pages:00000000 $t
     /tmp/ccnTZmpF.s:1407   .text.__free_pages:00000000 __free_pages
     /tmp/ccnTZmpF.s:1490   .text.__put_page:00000000 $t
     /tmp/ccnTZmpF.s:1495   .text.__put_page:00000000 __put_page
     /tmp/ccnTZmpF.s:1623   .rodata.w25qxx_request.str1.4:00000000 $d
     /tmp/ccnTZmpF.s:1630   .text.w25qxx_request:00000000 $t
     /tmp/ccnTZmpF.s:1635   .text.w25qxx_request:00000000 w25qxx_request
     /tmp/ccnTZmpF.s:2030   .text.w25qxx_request:0000017c $d
     /tmp/ccnTZmpF.s:2723   .bss.w25qxx_buffer:00000000 w25qxx_buffer
     /tmp/ccnTZmpF.s:2040   .text.w25qxx_request_queue:00000000 $t
     /tmp/ccnTZmpF.s:2045   .text.w25qxx_request_queue:00000000 w25qxx_request_queue
     /tmp/ccnTZmpF.s:2086   .text.blk_cleanup_queue:00000000 $t
     /tmp/ccnTZmpF.s:2091   .text.blk_cleanup_queue:00000000 blk_cleanup_queue
     /tmp/ccnTZmpF.s:2113   .text.put_disk:00000000 $t
     /tmp/ccnTZmpF.s:2118   .text.put_disk:00000000 put_disk
     /tmp/ccnTZmpF.s:2140   .rodata.new_w25qxx_dev.str1.4:00000000 $d
     /tmp/ccnTZmpF.s:2144   .text.new_w25qxx_dev:00000000 $t
     /tmp/ccnTZmpF.s:2150   .text.new_w25qxx_dev:00000000 new_w25qxx_dev
     /tmp/ccnTZmpF.s:2238   .text.new_w25qxx_dev:00000040 $d
     /tmp/ccnTZmpF.s:2247   .rodata.str1.4:00000000 $d
     /tmp/ccnTZmpF.s:2263   .init.text:00000000 $t
     /tmp/ccnTZmpF.s:2268   .init.text:00000000 w25qxx_init
     /tmp/ccnTZmpF.s:2664   .init.text:00000158 $d
     /tmp/ccnTZmpF.s:2691   .bss.w25qxx_lock:00000000 w25qxx_lock
     /tmp/ccnTZmpF.s:2697   .bss.w25qxx_queue:00000000 w25qxx_queue
     /tmp/ccnTZmpF.s:2703   .bss.w25qxx_disk:00000000 w25qxx_disk
     /tmp/ccnTZmpF.s:2710   .data.w25qxx_ops:00000000 w25qxx_ops
     /tmp/ccnTZmpF.s:2682   .device_initcall_sync:00000000 $d
     /tmp/ccnTZmpF.s:2685   .device_initcall_sync:00000000 _initcall_w25qxx_init
     /tmp/ccnTZmpF.s:2688   .bss.w25qxx_lock:00000000 $d
     /tmp/ccnTZmpF.s:2694   .bss.w25qxx_queue:00000000 $d
     /tmp/ccnTZmpF.s:2700   .bss.w25qxx_disk:00000000 $d
     /tmp/ccnTZmpF.s:2707   .data.w25qxx_ops:00000000 $d
     /tmp/ccnTZmpF.s:2720   .bss.w25qxx_buffer:00000000 $d
     /tmp/ccnTZmpF.s:2726   .bss.w25qxx1_dev:00000000 $d

UNDEFINED SYMBOLS
printk
kernel_write
vfs_ioctl
filp_open
__add_disk
__sfree__
memcpy
request_queue_remove
blk_fetch_request
__blk_cleanup_queue
__put_disk
__smalloc__
request_queue_init
__gendisk_alloc
