ARM GAS  /tmp/ccZHMbbp.s 			page 1


   1              		.cpu cortex-m7
   2              		.arch armv7e-m
   3              		.fpu fpv5-d16
   4              		.eabi_attribute 28, 1
   5              		.eabi_attribute 20, 1
   6              		.eabi_attribute 21, 1
   7              		.eabi_attribute 23, 3
   8              		.eabi_attribute 24, 1
   9              		.eabi_attribute 25, 1
  10              		.eabi_attribute 26, 1
  11              		.eabi_attribute 30, 1
  12              		.eabi_attribute 34, 1
  13              		.eabi_attribute 18, 4
  14              		.file	"stm32h7xx_hal_sdram.c"
  15              		.text
  16              	.Ltext0:
  17              		.cfi_sections	.debug_frame
  18              		.file 1 "Drivers/STM32H7xx_HAL_Driver/Src/stm32h7xx_hal_sdram.c"
  19              		.section	.text.HAL_SDRAM_MspInit,"ax",%progbits
  20              		.align	1
  21              		.weak	HAL_SDRAM_MspInit
  22              		.syntax unified
  23              		.thumb
  24              		.thumb_func
  26              	HAL_SDRAM_MspInit:
  27              	.LVL0:
  28              	.LFB146:
   1:Drivers/STM32H7xx_HAL_Driver/Src/stm32h7xx_hal_sdram.c **** /**
   2:Drivers/STM32H7xx_HAL_Driver/Src/stm32h7xx_hal_sdram.c ****   ******************************************************************************
   3:Drivers/STM32H7xx_HAL_Driver/Src/stm32h7xx_hal_sdram.c ****   * @file    stm32h7xx_hal_sdram.c
   4:Drivers/STM32H7xx_HAL_Driver/Src/stm32h7xx_hal_sdram.c ****   * @author  MCD Application Team
   5:Drivers/STM32H7xx_HAL_Driver/Src/stm32h7xx_hal_sdram.c ****   * @brief   SDRAM HAL module driver.
   6:Drivers/STM32H7xx_HAL_Driver/Src/stm32h7xx_hal_sdram.c ****   *          This file provides a generic firmware to drive SDRAM memories mounted
   7:Drivers/STM32H7xx_HAL_Driver/Src/stm32h7xx_hal_sdram.c ****   *          as external device.
   8:Drivers/STM32H7xx_HAL_Driver/Src/stm32h7xx_hal_sdram.c ****   *
   9:Drivers/STM32H7xx_HAL_Driver/Src/stm32h7xx_hal_sdram.c ****   ******************************************************************************
  10:Drivers/STM32H7xx_HAL_Driver/Src/stm32h7xx_hal_sdram.c ****   * @attention
  11:Drivers/STM32H7xx_HAL_Driver/Src/stm32h7xx_hal_sdram.c ****   *
  12:Drivers/STM32H7xx_HAL_Driver/Src/stm32h7xx_hal_sdram.c ****   * Copyright (c) 2017 STMicroelectronics.
  13:Drivers/STM32H7xx_HAL_Driver/Src/stm32h7xx_hal_sdram.c ****   * All rights reserved.
  14:Drivers/STM32H7xx_HAL_Driver/Src/stm32h7xx_hal_sdram.c ****   *
  15:Drivers/STM32H7xx_HAL_Driver/Src/stm32h7xx_hal_sdram.c ****   * This software is licensed under terms that can be found in the LICENSE file
  16:Drivers/STM32H7xx_HAL_Driver/Src/stm32h7xx_hal_sdram.c ****   * in the root directory of this software component.
  17:Drivers/STM32H7xx_HAL_Driver/Src/stm32h7xx_hal_sdram.c ****   * If no LICENSE file comes with this software, it is provided AS-IS.
  18:Drivers/STM32H7xx_HAL_Driver/Src/stm32h7xx_hal_sdram.c ****   *
  19:Drivers/STM32H7xx_HAL_Driver/Src/stm32h7xx_hal_sdram.c ****   ******************************************************************************
  20:Drivers/STM32H7xx_HAL_Driver/Src/stm32h7xx_hal_sdram.c ****   @verbatim
  21:Drivers/STM32H7xx_HAL_Driver/Src/stm32h7xx_hal_sdram.c ****   ==============================================================================
  22:Drivers/STM32H7xx_HAL_Driver/Src/stm32h7xx_hal_sdram.c ****                        ##### How to use this driver #####
  23:Drivers/STM32H7xx_HAL_Driver/Src/stm32h7xx_hal_sdram.c ****   ==============================================================================
  24:Drivers/STM32H7xx_HAL_Driver/Src/stm32h7xx_hal_sdram.c ****   [..]
  25:Drivers/STM32H7xx_HAL_Driver/Src/stm32h7xx_hal_sdram.c ****     This driver is a generic layered driver which contains a set of APIs used to
  26:Drivers/STM32H7xx_HAL_Driver/Src/stm32h7xx_hal_sdram.c ****     control SDRAM memories. It uses the FMC layer functions to interface
  27:Drivers/STM32H7xx_HAL_Driver/Src/stm32h7xx_hal_sdram.c ****     with SDRAM devices.
  28:Drivers/STM32H7xx_HAL_Driver/Src/stm32h7xx_hal_sdram.c ****     The following sequence should be followed to configure the FMC to interface
  29:Drivers/STM32H7xx_HAL_Driver/Src/stm32h7xx_hal_sdram.c ****     with SDRAM memories:
  30:Drivers/STM32H7xx_HAL_Driver/Src/stm32h7xx_hal_sdram.c **** 
ARM GAS  /tmp/ccZHMbbp.s 			page 2


  31:Drivers/STM32H7xx_HAL_Driver/Src/stm32h7xx_hal_sdram.c ****    (#) Declare a SDRAM_HandleTypeDef handle structure, for example:
  32:Drivers/STM32H7xx_HAL_Driver/Src/stm32h7xx_hal_sdram.c ****           SDRAM_HandleTypeDef  hsdram
  33:Drivers/STM32H7xx_HAL_Driver/Src/stm32h7xx_hal_sdram.c **** 
  34:Drivers/STM32H7xx_HAL_Driver/Src/stm32h7xx_hal_sdram.c ****        (++) Fill the SDRAM_HandleTypeDef handle "Init" field with the allowed
  35:Drivers/STM32H7xx_HAL_Driver/Src/stm32h7xx_hal_sdram.c ****             values of the structure member.
  36:Drivers/STM32H7xx_HAL_Driver/Src/stm32h7xx_hal_sdram.c **** 
  37:Drivers/STM32H7xx_HAL_Driver/Src/stm32h7xx_hal_sdram.c ****        (++) Fill the SDRAM_HandleTypeDef handle "Instance" field with a predefined
  38:Drivers/STM32H7xx_HAL_Driver/Src/stm32h7xx_hal_sdram.c ****             base register instance for NOR or SDRAM device
  39:Drivers/STM32H7xx_HAL_Driver/Src/stm32h7xx_hal_sdram.c **** 
  40:Drivers/STM32H7xx_HAL_Driver/Src/stm32h7xx_hal_sdram.c ****    (#) Declare a FMC_SDRAM_TimingTypeDef structure; for example:
  41:Drivers/STM32H7xx_HAL_Driver/Src/stm32h7xx_hal_sdram.c ****           FMC_SDRAM_TimingTypeDef  Timing;
  42:Drivers/STM32H7xx_HAL_Driver/Src/stm32h7xx_hal_sdram.c ****       and fill its fields with the allowed values of the structure member.
  43:Drivers/STM32H7xx_HAL_Driver/Src/stm32h7xx_hal_sdram.c **** 
  44:Drivers/STM32H7xx_HAL_Driver/Src/stm32h7xx_hal_sdram.c ****    (#) Initialize the SDRAM Controller by calling the function HAL_SDRAM_Init(). This function
  45:Drivers/STM32H7xx_HAL_Driver/Src/stm32h7xx_hal_sdram.c ****        performs the following sequence:
  46:Drivers/STM32H7xx_HAL_Driver/Src/stm32h7xx_hal_sdram.c **** 
  47:Drivers/STM32H7xx_HAL_Driver/Src/stm32h7xx_hal_sdram.c ****        (##) MSP hardware layer configuration using the function HAL_SDRAM_MspInit()
  48:Drivers/STM32H7xx_HAL_Driver/Src/stm32h7xx_hal_sdram.c ****        (##) Control register configuration using the FMC SDRAM interface function
  49:Drivers/STM32H7xx_HAL_Driver/Src/stm32h7xx_hal_sdram.c ****             FMC_SDRAM_Init()
  50:Drivers/STM32H7xx_HAL_Driver/Src/stm32h7xx_hal_sdram.c ****        (##) Timing register configuration using the FMC SDRAM interface function
  51:Drivers/STM32H7xx_HAL_Driver/Src/stm32h7xx_hal_sdram.c ****             FMC_SDRAM_Timing_Init()
  52:Drivers/STM32H7xx_HAL_Driver/Src/stm32h7xx_hal_sdram.c ****        (##) Program the SDRAM external device by applying its initialization sequence
  53:Drivers/STM32H7xx_HAL_Driver/Src/stm32h7xx_hal_sdram.c ****             according to the device plugged in your hardware. This step is mandatory
  54:Drivers/STM32H7xx_HAL_Driver/Src/stm32h7xx_hal_sdram.c ****             for accessing the SDRAM device.
  55:Drivers/STM32H7xx_HAL_Driver/Src/stm32h7xx_hal_sdram.c **** 
  56:Drivers/STM32H7xx_HAL_Driver/Src/stm32h7xx_hal_sdram.c ****    (#) At this stage you can perform read/write accesses from/to the memory connected
  57:Drivers/STM32H7xx_HAL_Driver/Src/stm32h7xx_hal_sdram.c ****        to the SDRAM Bank. You can perform either polling or DMA transfer using the
  58:Drivers/STM32H7xx_HAL_Driver/Src/stm32h7xx_hal_sdram.c ****        following APIs:
  59:Drivers/STM32H7xx_HAL_Driver/Src/stm32h7xx_hal_sdram.c ****        (++) HAL_SDRAM_Read()/HAL_SDRAM_Write() for polling read/write access
  60:Drivers/STM32H7xx_HAL_Driver/Src/stm32h7xx_hal_sdram.c ****        (++) HAL_SDRAM_Read_DMA()/HAL_SDRAM_Write_DMA() for DMA read/write transfer
  61:Drivers/STM32H7xx_HAL_Driver/Src/stm32h7xx_hal_sdram.c **** 
  62:Drivers/STM32H7xx_HAL_Driver/Src/stm32h7xx_hal_sdram.c ****    (#) You can also control the SDRAM device by calling the control APIs HAL_SDRAM_WriteOperation_E
  63:Drivers/STM32H7xx_HAL_Driver/Src/stm32h7xx_hal_sdram.c ****        HAL_SDRAM_WriteOperation_Disable() to respectively enable/disable the SDRAM write operation 
  64:Drivers/STM32H7xx_HAL_Driver/Src/stm32h7xx_hal_sdram.c ****        the function HAL_SDRAM_SendCommand() to send a specified command to the SDRAM
  65:Drivers/STM32H7xx_HAL_Driver/Src/stm32h7xx_hal_sdram.c ****        device. The command to be sent must be configured with the FMC_SDRAM_CommandTypeDef
  66:Drivers/STM32H7xx_HAL_Driver/Src/stm32h7xx_hal_sdram.c ****        structure.
  67:Drivers/STM32H7xx_HAL_Driver/Src/stm32h7xx_hal_sdram.c **** 
  68:Drivers/STM32H7xx_HAL_Driver/Src/stm32h7xx_hal_sdram.c ****    (#) You can continuously monitor the SDRAM device HAL state by calling the function
  69:Drivers/STM32H7xx_HAL_Driver/Src/stm32h7xx_hal_sdram.c ****        HAL_SDRAM_GetState()
  70:Drivers/STM32H7xx_HAL_Driver/Src/stm32h7xx_hal_sdram.c **** 
  71:Drivers/STM32H7xx_HAL_Driver/Src/stm32h7xx_hal_sdram.c ****    *** Callback registration ***
  72:Drivers/STM32H7xx_HAL_Driver/Src/stm32h7xx_hal_sdram.c ****     =============================================
  73:Drivers/STM32H7xx_HAL_Driver/Src/stm32h7xx_hal_sdram.c ****     [..]
  74:Drivers/STM32H7xx_HAL_Driver/Src/stm32h7xx_hal_sdram.c ****       The compilation define  USE_HAL_SDRAM_REGISTER_CALLBACKS when set to 1
  75:Drivers/STM32H7xx_HAL_Driver/Src/stm32h7xx_hal_sdram.c ****       allows the user to configure dynamically the driver callbacks.
  76:Drivers/STM32H7xx_HAL_Driver/Src/stm32h7xx_hal_sdram.c **** 
  77:Drivers/STM32H7xx_HAL_Driver/Src/stm32h7xx_hal_sdram.c ****       Use Functions HAL_SDRAM_RegisterCallback() to register a user callback,
  78:Drivers/STM32H7xx_HAL_Driver/Src/stm32h7xx_hal_sdram.c ****       it allows to register following callbacks:
  79:Drivers/STM32H7xx_HAL_Driver/Src/stm32h7xx_hal_sdram.c ****         (+) MspInitCallback    : SDRAM MspInit.
  80:Drivers/STM32H7xx_HAL_Driver/Src/stm32h7xx_hal_sdram.c ****         (+) MspDeInitCallback  : SDRAM MspDeInit.
  81:Drivers/STM32H7xx_HAL_Driver/Src/stm32h7xx_hal_sdram.c ****       This function takes as parameters the HAL peripheral handle, the Callback ID
  82:Drivers/STM32H7xx_HAL_Driver/Src/stm32h7xx_hal_sdram.c ****       and a pointer to the user callback function.
  83:Drivers/STM32H7xx_HAL_Driver/Src/stm32h7xx_hal_sdram.c **** 
  84:Drivers/STM32H7xx_HAL_Driver/Src/stm32h7xx_hal_sdram.c ****       Use function HAL_SDRAM_UnRegisterCallback() to reset a callback to the default
  85:Drivers/STM32H7xx_HAL_Driver/Src/stm32h7xx_hal_sdram.c ****       weak (overridden) function. It allows to reset following callbacks:
  86:Drivers/STM32H7xx_HAL_Driver/Src/stm32h7xx_hal_sdram.c ****         (+) MspInitCallback    : SDRAM MspInit.
  87:Drivers/STM32H7xx_HAL_Driver/Src/stm32h7xx_hal_sdram.c ****         (+) MspDeInitCallback  : SDRAM MspDeInit.
ARM GAS  /tmp/ccZHMbbp.s 			page 3


  88:Drivers/STM32H7xx_HAL_Driver/Src/stm32h7xx_hal_sdram.c ****       This function) takes as parameters the HAL peripheral handle and the Callback ID.
  89:Drivers/STM32H7xx_HAL_Driver/Src/stm32h7xx_hal_sdram.c **** 
  90:Drivers/STM32H7xx_HAL_Driver/Src/stm32h7xx_hal_sdram.c ****       By default, after the HAL_SDRAM_Init and if the state is HAL_SDRAM_STATE_RESET
  91:Drivers/STM32H7xx_HAL_Driver/Src/stm32h7xx_hal_sdram.c ****       all callbacks are reset to the corresponding legacy weak (overridden) functions.
  92:Drivers/STM32H7xx_HAL_Driver/Src/stm32h7xx_hal_sdram.c ****       Exception done for MspInit and MspDeInit callbacks that are respectively
  93:Drivers/STM32H7xx_HAL_Driver/Src/stm32h7xx_hal_sdram.c ****       reset to the legacy weak (overridden) functions in the HAL_SDRAM_Init
  94:Drivers/STM32H7xx_HAL_Driver/Src/stm32h7xx_hal_sdram.c ****       and  HAL_SDRAM_DeInit only when these callbacks are null (not registered beforehand).
  95:Drivers/STM32H7xx_HAL_Driver/Src/stm32h7xx_hal_sdram.c ****       If not, MspInit or MspDeInit are not null, the HAL_SDRAM_Init and HAL_SDRAM_DeInit
  96:Drivers/STM32H7xx_HAL_Driver/Src/stm32h7xx_hal_sdram.c ****       keep and use the user MspInit/MspDeInit callbacks (registered beforehand)
  97:Drivers/STM32H7xx_HAL_Driver/Src/stm32h7xx_hal_sdram.c **** 
  98:Drivers/STM32H7xx_HAL_Driver/Src/stm32h7xx_hal_sdram.c ****       Callbacks can be registered/unregistered in READY state only.
  99:Drivers/STM32H7xx_HAL_Driver/Src/stm32h7xx_hal_sdram.c ****       Exception done for MspInit/MspDeInit callbacks that can be registered/unregistered
 100:Drivers/STM32H7xx_HAL_Driver/Src/stm32h7xx_hal_sdram.c ****       in READY or RESET state, thus registered (user) MspInit/DeInit callbacks can be used
 101:Drivers/STM32H7xx_HAL_Driver/Src/stm32h7xx_hal_sdram.c ****       during the Init/DeInit.
 102:Drivers/STM32H7xx_HAL_Driver/Src/stm32h7xx_hal_sdram.c ****       In that case first register the MspInit/MspDeInit user callbacks
 103:Drivers/STM32H7xx_HAL_Driver/Src/stm32h7xx_hal_sdram.c ****       using HAL_SDRAM_RegisterCallback before calling HAL_SDRAM_DeInit
 104:Drivers/STM32H7xx_HAL_Driver/Src/stm32h7xx_hal_sdram.c ****       or HAL_SDRAM_Init function.
 105:Drivers/STM32H7xx_HAL_Driver/Src/stm32h7xx_hal_sdram.c **** 
 106:Drivers/STM32H7xx_HAL_Driver/Src/stm32h7xx_hal_sdram.c ****       When The compilation define USE_HAL_SDRAM_REGISTER_CALLBACKS is set to 0 or
 107:Drivers/STM32H7xx_HAL_Driver/Src/stm32h7xx_hal_sdram.c ****       not defined, the callback registering feature is not available
 108:Drivers/STM32H7xx_HAL_Driver/Src/stm32h7xx_hal_sdram.c ****       and weak (overridden) callbacks are used.
 109:Drivers/STM32H7xx_HAL_Driver/Src/stm32h7xx_hal_sdram.c **** 
 110:Drivers/STM32H7xx_HAL_Driver/Src/stm32h7xx_hal_sdram.c ****   @endverbatim
 111:Drivers/STM32H7xx_HAL_Driver/Src/stm32h7xx_hal_sdram.c ****   ******************************************************************************
 112:Drivers/STM32H7xx_HAL_Driver/Src/stm32h7xx_hal_sdram.c ****   */
 113:Drivers/STM32H7xx_HAL_Driver/Src/stm32h7xx_hal_sdram.c **** 
 114:Drivers/STM32H7xx_HAL_Driver/Src/stm32h7xx_hal_sdram.c **** /* Includes ------------------------------------------------------------------*/
 115:Drivers/STM32H7xx_HAL_Driver/Src/stm32h7xx_hal_sdram.c **** #include "stm32h7xx_hal.h"
 116:Drivers/STM32H7xx_HAL_Driver/Src/stm32h7xx_hal_sdram.c **** 
 117:Drivers/STM32H7xx_HAL_Driver/Src/stm32h7xx_hal_sdram.c **** 
 118:Drivers/STM32H7xx_HAL_Driver/Src/stm32h7xx_hal_sdram.c **** /** @addtogroup STM32H7xx_HAL_Driver
 119:Drivers/STM32H7xx_HAL_Driver/Src/stm32h7xx_hal_sdram.c ****   * @{
 120:Drivers/STM32H7xx_HAL_Driver/Src/stm32h7xx_hal_sdram.c ****   */
 121:Drivers/STM32H7xx_HAL_Driver/Src/stm32h7xx_hal_sdram.c **** 
 122:Drivers/STM32H7xx_HAL_Driver/Src/stm32h7xx_hal_sdram.c **** #ifdef HAL_SDRAM_MODULE_ENABLED
 123:Drivers/STM32H7xx_HAL_Driver/Src/stm32h7xx_hal_sdram.c **** 
 124:Drivers/STM32H7xx_HAL_Driver/Src/stm32h7xx_hal_sdram.c **** /** @defgroup SDRAM SDRAM
 125:Drivers/STM32H7xx_HAL_Driver/Src/stm32h7xx_hal_sdram.c ****   * @brief SDRAM driver modules
 126:Drivers/STM32H7xx_HAL_Driver/Src/stm32h7xx_hal_sdram.c ****   * @{
 127:Drivers/STM32H7xx_HAL_Driver/Src/stm32h7xx_hal_sdram.c ****   */
 128:Drivers/STM32H7xx_HAL_Driver/Src/stm32h7xx_hal_sdram.c **** 
 129:Drivers/STM32H7xx_HAL_Driver/Src/stm32h7xx_hal_sdram.c **** /* Private typedef -----------------------------------------------------------*/
 130:Drivers/STM32H7xx_HAL_Driver/Src/stm32h7xx_hal_sdram.c **** /* Private define ------------------------------------------------------------*/
 131:Drivers/STM32H7xx_HAL_Driver/Src/stm32h7xx_hal_sdram.c **** /* Private macro -------------------------------------------------------------*/
 132:Drivers/STM32H7xx_HAL_Driver/Src/stm32h7xx_hal_sdram.c **** /* Private variables ---------------------------------------------------------*/
 133:Drivers/STM32H7xx_HAL_Driver/Src/stm32h7xx_hal_sdram.c **** /* Private function prototypes -----------------------------------------------*/
 134:Drivers/STM32H7xx_HAL_Driver/Src/stm32h7xx_hal_sdram.c **** /** @addtogroup SDRAM_Private_Functions SDRAM Private Functions
 135:Drivers/STM32H7xx_HAL_Driver/Src/stm32h7xx_hal_sdram.c ****   * @{
 136:Drivers/STM32H7xx_HAL_Driver/Src/stm32h7xx_hal_sdram.c ****   */
 137:Drivers/STM32H7xx_HAL_Driver/Src/stm32h7xx_hal_sdram.c **** static void SDRAM_DMACplt(MDMA_HandleTypeDef *hmdma);
 138:Drivers/STM32H7xx_HAL_Driver/Src/stm32h7xx_hal_sdram.c **** static void SDRAM_DMACpltProt(MDMA_HandleTypeDef *hmdma);
 139:Drivers/STM32H7xx_HAL_Driver/Src/stm32h7xx_hal_sdram.c **** static void SDRAM_DMAError(MDMA_HandleTypeDef *hmdma);
 140:Drivers/STM32H7xx_HAL_Driver/Src/stm32h7xx_hal_sdram.c **** /**
 141:Drivers/STM32H7xx_HAL_Driver/Src/stm32h7xx_hal_sdram.c ****   * @}
 142:Drivers/STM32H7xx_HAL_Driver/Src/stm32h7xx_hal_sdram.c ****   */
 143:Drivers/STM32H7xx_HAL_Driver/Src/stm32h7xx_hal_sdram.c **** 
 144:Drivers/STM32H7xx_HAL_Driver/Src/stm32h7xx_hal_sdram.c **** /* Exported functions --------------------------------------------------------*/
ARM GAS  /tmp/ccZHMbbp.s 			page 4


 145:Drivers/STM32H7xx_HAL_Driver/Src/stm32h7xx_hal_sdram.c **** /** @defgroup SDRAM_Exported_Functions SDRAM Exported Functions
 146:Drivers/STM32H7xx_HAL_Driver/Src/stm32h7xx_hal_sdram.c ****   * @{
 147:Drivers/STM32H7xx_HAL_Driver/Src/stm32h7xx_hal_sdram.c ****   */
 148:Drivers/STM32H7xx_HAL_Driver/Src/stm32h7xx_hal_sdram.c **** 
 149:Drivers/STM32H7xx_HAL_Driver/Src/stm32h7xx_hal_sdram.c **** /** @defgroup SDRAM_Exported_Functions_Group1 Initialization and de-initialization functions
 150:Drivers/STM32H7xx_HAL_Driver/Src/stm32h7xx_hal_sdram.c ****   * @brief    Initialization and Configuration functions
 151:Drivers/STM32H7xx_HAL_Driver/Src/stm32h7xx_hal_sdram.c ****   *
 152:Drivers/STM32H7xx_HAL_Driver/Src/stm32h7xx_hal_sdram.c ****   @verbatim
 153:Drivers/STM32H7xx_HAL_Driver/Src/stm32h7xx_hal_sdram.c ****   ==============================================================================
 154:Drivers/STM32H7xx_HAL_Driver/Src/stm32h7xx_hal_sdram.c ****            ##### SDRAM Initialization and de_initialization functions #####
 155:Drivers/STM32H7xx_HAL_Driver/Src/stm32h7xx_hal_sdram.c ****   ==============================================================================
 156:Drivers/STM32H7xx_HAL_Driver/Src/stm32h7xx_hal_sdram.c ****   [..]
 157:Drivers/STM32H7xx_HAL_Driver/Src/stm32h7xx_hal_sdram.c ****     This section provides functions allowing to initialize/de-initialize
 158:Drivers/STM32H7xx_HAL_Driver/Src/stm32h7xx_hal_sdram.c ****     the SDRAM memory
 159:Drivers/STM32H7xx_HAL_Driver/Src/stm32h7xx_hal_sdram.c **** 
 160:Drivers/STM32H7xx_HAL_Driver/Src/stm32h7xx_hal_sdram.c **** @endverbatim
 161:Drivers/STM32H7xx_HAL_Driver/Src/stm32h7xx_hal_sdram.c ****   * @{
 162:Drivers/STM32H7xx_HAL_Driver/Src/stm32h7xx_hal_sdram.c ****   */
 163:Drivers/STM32H7xx_HAL_Driver/Src/stm32h7xx_hal_sdram.c **** 
 164:Drivers/STM32H7xx_HAL_Driver/Src/stm32h7xx_hal_sdram.c **** /**
 165:Drivers/STM32H7xx_HAL_Driver/Src/stm32h7xx_hal_sdram.c ****   * @brief  Performs the SDRAM device initialization sequence.
 166:Drivers/STM32H7xx_HAL_Driver/Src/stm32h7xx_hal_sdram.c ****   * @param  hsdram pointer to a SDRAM_HandleTypeDef structure that contains
 167:Drivers/STM32H7xx_HAL_Driver/Src/stm32h7xx_hal_sdram.c ****   *                the configuration information for SDRAM module.
 168:Drivers/STM32H7xx_HAL_Driver/Src/stm32h7xx_hal_sdram.c ****   * @param  Timing Pointer to SDRAM control timing structure
 169:Drivers/STM32H7xx_HAL_Driver/Src/stm32h7xx_hal_sdram.c ****   * @retval HAL status
 170:Drivers/STM32H7xx_HAL_Driver/Src/stm32h7xx_hal_sdram.c ****   */
 171:Drivers/STM32H7xx_HAL_Driver/Src/stm32h7xx_hal_sdram.c **** HAL_StatusTypeDef HAL_SDRAM_Init(SDRAM_HandleTypeDef *hsdram, FMC_SDRAM_TimingTypeDef *Timing)
 172:Drivers/STM32H7xx_HAL_Driver/Src/stm32h7xx_hal_sdram.c **** {
 173:Drivers/STM32H7xx_HAL_Driver/Src/stm32h7xx_hal_sdram.c ****   /* Check the SDRAM handle parameter */
 174:Drivers/STM32H7xx_HAL_Driver/Src/stm32h7xx_hal_sdram.c ****   if (hsdram == NULL)
 175:Drivers/STM32H7xx_HAL_Driver/Src/stm32h7xx_hal_sdram.c ****   {
 176:Drivers/STM32H7xx_HAL_Driver/Src/stm32h7xx_hal_sdram.c ****     return HAL_ERROR;
 177:Drivers/STM32H7xx_HAL_Driver/Src/stm32h7xx_hal_sdram.c ****   }
 178:Drivers/STM32H7xx_HAL_Driver/Src/stm32h7xx_hal_sdram.c **** 
 179:Drivers/STM32H7xx_HAL_Driver/Src/stm32h7xx_hal_sdram.c ****   if (hsdram->State == HAL_SDRAM_STATE_RESET)
 180:Drivers/STM32H7xx_HAL_Driver/Src/stm32h7xx_hal_sdram.c ****   {
 181:Drivers/STM32H7xx_HAL_Driver/Src/stm32h7xx_hal_sdram.c ****     /* Allocate lock resource and initialize it */
 182:Drivers/STM32H7xx_HAL_Driver/Src/stm32h7xx_hal_sdram.c ****     hsdram->Lock = HAL_UNLOCKED;
 183:Drivers/STM32H7xx_HAL_Driver/Src/stm32h7xx_hal_sdram.c **** #if (USE_HAL_SDRAM_REGISTER_CALLBACKS == 1)
 184:Drivers/STM32H7xx_HAL_Driver/Src/stm32h7xx_hal_sdram.c ****     if (hsdram->MspInitCallback == NULL)
 185:Drivers/STM32H7xx_HAL_Driver/Src/stm32h7xx_hal_sdram.c ****     {
 186:Drivers/STM32H7xx_HAL_Driver/Src/stm32h7xx_hal_sdram.c ****       hsdram->MspInitCallback = HAL_SDRAM_MspInit;
 187:Drivers/STM32H7xx_HAL_Driver/Src/stm32h7xx_hal_sdram.c ****     }
 188:Drivers/STM32H7xx_HAL_Driver/Src/stm32h7xx_hal_sdram.c ****     hsdram->RefreshErrorCallback = HAL_SDRAM_RefreshErrorCallback;
 189:Drivers/STM32H7xx_HAL_Driver/Src/stm32h7xx_hal_sdram.c ****     hsdram->DmaXferCpltCallback = HAL_SDRAM_DMA_XferCpltCallback;
 190:Drivers/STM32H7xx_HAL_Driver/Src/stm32h7xx_hal_sdram.c ****     hsdram->DmaXferErrorCallback = HAL_SDRAM_DMA_XferErrorCallback;
 191:Drivers/STM32H7xx_HAL_Driver/Src/stm32h7xx_hal_sdram.c **** 
 192:Drivers/STM32H7xx_HAL_Driver/Src/stm32h7xx_hal_sdram.c ****     /* Init the low level hardware */
 193:Drivers/STM32H7xx_HAL_Driver/Src/stm32h7xx_hal_sdram.c ****     hsdram->MspInitCallback(hsdram);
 194:Drivers/STM32H7xx_HAL_Driver/Src/stm32h7xx_hal_sdram.c **** #else
 195:Drivers/STM32H7xx_HAL_Driver/Src/stm32h7xx_hal_sdram.c ****     /* Initialize the low level hardware (MSP) */
 196:Drivers/STM32H7xx_HAL_Driver/Src/stm32h7xx_hal_sdram.c ****     HAL_SDRAM_MspInit(hsdram);
 197:Drivers/STM32H7xx_HAL_Driver/Src/stm32h7xx_hal_sdram.c **** #endif /* USE_HAL_SDRAM_REGISTER_CALLBACKS */
 198:Drivers/STM32H7xx_HAL_Driver/Src/stm32h7xx_hal_sdram.c ****   }
 199:Drivers/STM32H7xx_HAL_Driver/Src/stm32h7xx_hal_sdram.c **** 
 200:Drivers/STM32H7xx_HAL_Driver/Src/stm32h7xx_hal_sdram.c ****   /* Initialize the SDRAM controller state */
 201:Drivers/STM32H7xx_HAL_Driver/Src/stm32h7xx_hal_sdram.c ****   hsdram->State = HAL_SDRAM_STATE_BUSY;
ARM GAS  /tmp/ccZHMbbp.s 			page 5


 202:Drivers/STM32H7xx_HAL_Driver/Src/stm32h7xx_hal_sdram.c **** 
 203:Drivers/STM32H7xx_HAL_Driver/Src/stm32h7xx_hal_sdram.c ****   /* Initialize SDRAM control Interface */
 204:Drivers/STM32H7xx_HAL_Driver/Src/stm32h7xx_hal_sdram.c ****   (void)FMC_SDRAM_Init(hsdram->Instance, &(hsdram->Init));
 205:Drivers/STM32H7xx_HAL_Driver/Src/stm32h7xx_hal_sdram.c **** 
 206:Drivers/STM32H7xx_HAL_Driver/Src/stm32h7xx_hal_sdram.c ****   /* Initialize SDRAM timing Interface */
 207:Drivers/STM32H7xx_HAL_Driver/Src/stm32h7xx_hal_sdram.c ****   (void)FMC_SDRAM_Timing_Init(hsdram->Instance, Timing, hsdram->Init.SDBank);
 208:Drivers/STM32H7xx_HAL_Driver/Src/stm32h7xx_hal_sdram.c **** 
 209:Drivers/STM32H7xx_HAL_Driver/Src/stm32h7xx_hal_sdram.c ****   /* Enable FMC Peripheral */
 210:Drivers/STM32H7xx_HAL_Driver/Src/stm32h7xx_hal_sdram.c ****   __FMC_ENABLE();
 211:Drivers/STM32H7xx_HAL_Driver/Src/stm32h7xx_hal_sdram.c ****   /* Update the SDRAM controller state */
 212:Drivers/STM32H7xx_HAL_Driver/Src/stm32h7xx_hal_sdram.c ****   hsdram->State = HAL_SDRAM_STATE_READY;
 213:Drivers/STM32H7xx_HAL_Driver/Src/stm32h7xx_hal_sdram.c **** 
 214:Drivers/STM32H7xx_HAL_Driver/Src/stm32h7xx_hal_sdram.c ****   return HAL_OK;
 215:Drivers/STM32H7xx_HAL_Driver/Src/stm32h7xx_hal_sdram.c **** }
 216:Drivers/STM32H7xx_HAL_Driver/Src/stm32h7xx_hal_sdram.c **** 
 217:Drivers/STM32H7xx_HAL_Driver/Src/stm32h7xx_hal_sdram.c **** /**
 218:Drivers/STM32H7xx_HAL_Driver/Src/stm32h7xx_hal_sdram.c ****   * @brief  Perform the SDRAM device initialization sequence.
 219:Drivers/STM32H7xx_HAL_Driver/Src/stm32h7xx_hal_sdram.c ****   * @param  hsdram pointer to a SDRAM_HandleTypeDef structure that contains
 220:Drivers/STM32H7xx_HAL_Driver/Src/stm32h7xx_hal_sdram.c ****   *                the configuration information for SDRAM module.
 221:Drivers/STM32H7xx_HAL_Driver/Src/stm32h7xx_hal_sdram.c ****   * @retval HAL status
 222:Drivers/STM32H7xx_HAL_Driver/Src/stm32h7xx_hal_sdram.c ****   */
 223:Drivers/STM32H7xx_HAL_Driver/Src/stm32h7xx_hal_sdram.c **** HAL_StatusTypeDef HAL_SDRAM_DeInit(SDRAM_HandleTypeDef *hsdram)
 224:Drivers/STM32H7xx_HAL_Driver/Src/stm32h7xx_hal_sdram.c **** {
 225:Drivers/STM32H7xx_HAL_Driver/Src/stm32h7xx_hal_sdram.c **** #if (USE_HAL_SDRAM_REGISTER_CALLBACKS == 1)
 226:Drivers/STM32H7xx_HAL_Driver/Src/stm32h7xx_hal_sdram.c ****   if (hsdram->MspDeInitCallback == NULL)
 227:Drivers/STM32H7xx_HAL_Driver/Src/stm32h7xx_hal_sdram.c ****   {
 228:Drivers/STM32H7xx_HAL_Driver/Src/stm32h7xx_hal_sdram.c ****     hsdram->MspDeInitCallback = HAL_SDRAM_MspDeInit;
 229:Drivers/STM32H7xx_HAL_Driver/Src/stm32h7xx_hal_sdram.c ****   }
 230:Drivers/STM32H7xx_HAL_Driver/Src/stm32h7xx_hal_sdram.c **** 
 231:Drivers/STM32H7xx_HAL_Driver/Src/stm32h7xx_hal_sdram.c ****   /* DeInit the low level hardware */
 232:Drivers/STM32H7xx_HAL_Driver/Src/stm32h7xx_hal_sdram.c ****   hsdram->MspDeInitCallback(hsdram);
 233:Drivers/STM32H7xx_HAL_Driver/Src/stm32h7xx_hal_sdram.c **** #else
 234:Drivers/STM32H7xx_HAL_Driver/Src/stm32h7xx_hal_sdram.c ****   /* Initialize the low level hardware (MSP) */
 235:Drivers/STM32H7xx_HAL_Driver/Src/stm32h7xx_hal_sdram.c ****   HAL_SDRAM_MspDeInit(hsdram);
 236:Drivers/STM32H7xx_HAL_Driver/Src/stm32h7xx_hal_sdram.c **** #endif /* USE_HAL_SDRAM_REGISTER_CALLBACKS */
 237:Drivers/STM32H7xx_HAL_Driver/Src/stm32h7xx_hal_sdram.c **** 
 238:Drivers/STM32H7xx_HAL_Driver/Src/stm32h7xx_hal_sdram.c ****   /* Configure the SDRAM registers with their reset values */
 239:Drivers/STM32H7xx_HAL_Driver/Src/stm32h7xx_hal_sdram.c ****   (void)FMC_SDRAM_DeInit(hsdram->Instance, hsdram->Init.SDBank);
 240:Drivers/STM32H7xx_HAL_Driver/Src/stm32h7xx_hal_sdram.c **** 
 241:Drivers/STM32H7xx_HAL_Driver/Src/stm32h7xx_hal_sdram.c ****   /* Reset the SDRAM controller state */
 242:Drivers/STM32H7xx_HAL_Driver/Src/stm32h7xx_hal_sdram.c ****   hsdram->State = HAL_SDRAM_STATE_RESET;
 243:Drivers/STM32H7xx_HAL_Driver/Src/stm32h7xx_hal_sdram.c **** 
 244:Drivers/STM32H7xx_HAL_Driver/Src/stm32h7xx_hal_sdram.c ****   /* Release Lock */
 245:Drivers/STM32H7xx_HAL_Driver/Src/stm32h7xx_hal_sdram.c ****   __HAL_UNLOCK(hsdram);
 246:Drivers/STM32H7xx_HAL_Driver/Src/stm32h7xx_hal_sdram.c **** 
 247:Drivers/STM32H7xx_HAL_Driver/Src/stm32h7xx_hal_sdram.c ****   return HAL_OK;
 248:Drivers/STM32H7xx_HAL_Driver/Src/stm32h7xx_hal_sdram.c **** }
 249:Drivers/STM32H7xx_HAL_Driver/Src/stm32h7xx_hal_sdram.c **** 
 250:Drivers/STM32H7xx_HAL_Driver/Src/stm32h7xx_hal_sdram.c **** /**
 251:Drivers/STM32H7xx_HAL_Driver/Src/stm32h7xx_hal_sdram.c ****   * @brief  SDRAM MSP Init.
 252:Drivers/STM32H7xx_HAL_Driver/Src/stm32h7xx_hal_sdram.c ****   * @param  hsdram pointer to a SDRAM_HandleTypeDef structure that contains
 253:Drivers/STM32H7xx_HAL_Driver/Src/stm32h7xx_hal_sdram.c ****   *                the configuration information for SDRAM module.
 254:Drivers/STM32H7xx_HAL_Driver/Src/stm32h7xx_hal_sdram.c ****   * @retval None
 255:Drivers/STM32H7xx_HAL_Driver/Src/stm32h7xx_hal_sdram.c ****   */
 256:Drivers/STM32H7xx_HAL_Driver/Src/stm32h7xx_hal_sdram.c **** __weak void HAL_SDRAM_MspInit(SDRAM_HandleTypeDef *hsdram)
 257:Drivers/STM32H7xx_HAL_Driver/Src/stm32h7xx_hal_sdram.c **** {
  29              		.loc 1 257 1 view -0
ARM GAS  /tmp/ccZHMbbp.s 			page 6


  30              		.cfi_startproc
  31              		@ args = 0, pretend = 0, frame = 0
  32              		@ frame_needed = 0, uses_anonymous_args = 0
  33              		@ link register save eliminated.
 258:Drivers/STM32H7xx_HAL_Driver/Src/stm32h7xx_hal_sdram.c ****   /* Prevent unused argument(s) compilation warning */
 259:Drivers/STM32H7xx_HAL_Driver/Src/stm32h7xx_hal_sdram.c ****   UNUSED(hsdram);
  34              		.loc 1 259 3 view .LVU1
 260:Drivers/STM32H7xx_HAL_Driver/Src/stm32h7xx_hal_sdram.c **** 
 261:Drivers/STM32H7xx_HAL_Driver/Src/stm32h7xx_hal_sdram.c ****   /* NOTE: This function Should not be modified, when the callback is needed,
 262:Drivers/STM32H7xx_HAL_Driver/Src/stm32h7xx_hal_sdram.c ****             the HAL_SDRAM_MspInit could be implemented in the user file
 263:Drivers/STM32H7xx_HAL_Driver/Src/stm32h7xx_hal_sdram.c ****    */
 264:Drivers/STM32H7xx_HAL_Driver/Src/stm32h7xx_hal_sdram.c **** }
  35              		.loc 1 264 1 is_stmt 0 view .LVU2
  36 0000 7047     		bx	lr
  37              		.cfi_endproc
  38              	.LFE146:
  40              		.section	.text.HAL_SDRAM_Init,"ax",%progbits
  41              		.align	1
  42              		.global	HAL_SDRAM_Init
  43              		.syntax unified
  44              		.thumb
  45              		.thumb_func
  47              	HAL_SDRAM_Init:
  48              	.LVL1:
  49              	.LFB144:
 172:Drivers/STM32H7xx_HAL_Driver/Src/stm32h7xx_hal_sdram.c ****   /* Check the SDRAM handle parameter */
  50              		.loc 1 172 1 is_stmt 1 view -0
  51              		.cfi_startproc
  52              		@ args = 0, pretend = 0, frame = 0
  53              		@ frame_needed = 0, uses_anonymous_args = 0
 174:Drivers/STM32H7xx_HAL_Driver/Src/stm32h7xx_hal_sdram.c ****   {
  54              		.loc 1 174 3 view .LVU4
 174:Drivers/STM32H7xx_HAL_Driver/Src/stm32h7xx_hal_sdram.c ****   {
  55              		.loc 1 174 6 is_stmt 0 view .LVU5
  56 0000 08B3     		cbz	r0, .L5
 172:Drivers/STM32H7xx_HAL_Driver/Src/stm32h7xx_hal_sdram.c ****   /* Check the SDRAM handle parameter */
  57              		.loc 1 172 1 view .LVU6
  58 0002 38B5     		push	{r3, r4, r5, lr}
  59              	.LCFI0:
  60              		.cfi_def_cfa_offset 16
  61              		.cfi_offset 3, -16
  62              		.cfi_offset 4, -12
  63              		.cfi_offset 5, -8
  64              		.cfi_offset 14, -4
  65 0004 0D46     		mov	r5, r1
  66 0006 0446     		mov	r4, r0
 179:Drivers/STM32H7xx_HAL_Driver/Src/stm32h7xx_hal_sdram.c ****   {
  67              		.loc 1 179 3 is_stmt 1 view .LVU7
 179:Drivers/STM32H7xx_HAL_Driver/Src/stm32h7xx_hal_sdram.c ****   {
  68              		.loc 1 179 13 is_stmt 0 view .LVU8
  69 0008 90F82C30 		ldrb	r3, [r0, #44]	@ zero_extendqisi2
 179:Drivers/STM32H7xx_HAL_Driver/Src/stm32h7xx_hal_sdram.c ****   {
  70              		.loc 1 179 6 view .LVU9
  71 000c B3B1     		cbz	r3, .L10
  72              	.LVL2:
  73              	.L4:
 201:Drivers/STM32H7xx_HAL_Driver/Src/stm32h7xx_hal_sdram.c **** 
ARM GAS  /tmp/ccZHMbbp.s 			page 7


  74              		.loc 1 201 3 is_stmt 1 view .LVU10
 201:Drivers/STM32H7xx_HAL_Driver/Src/stm32h7xx_hal_sdram.c **** 
  75              		.loc 1 201 17 is_stmt 0 view .LVU11
  76 000e 0223     		movs	r3, #2
  77 0010 84F82C30 		strb	r3, [r4, #44]
 204:Drivers/STM32H7xx_HAL_Driver/Src/stm32h7xx_hal_sdram.c **** 
  78              		.loc 1 204 3 is_stmt 1 view .LVU12
 204:Drivers/STM32H7xx_HAL_Driver/Src/stm32h7xx_hal_sdram.c **** 
  79              		.loc 1 204 42 is_stmt 0 view .LVU13
  80 0014 2146     		mov	r1, r4
 204:Drivers/STM32H7xx_HAL_Driver/Src/stm32h7xx_hal_sdram.c **** 
  81              		.loc 1 204 9 view .LVU14
  82 0016 51F8040B 		ldr	r0, [r1], #4
  83 001a FFF7FEFF 		bl	FMC_SDRAM_Init
  84              	.LVL3:
 207:Drivers/STM32H7xx_HAL_Driver/Src/stm32h7xx_hal_sdram.c **** 
  85              		.loc 1 207 3 is_stmt 1 view .LVU15
 207:Drivers/STM32H7xx_HAL_Driver/Src/stm32h7xx_hal_sdram.c **** 
  86              		.loc 1 207 9 is_stmt 0 view .LVU16
  87 001e 6268     		ldr	r2, [r4, #4]
  88 0020 2946     		mov	r1, r5
  89 0022 2068     		ldr	r0, [r4]
  90 0024 FFF7FEFF 		bl	FMC_SDRAM_Timing_Init
  91              	.LVL4:
 210:Drivers/STM32H7xx_HAL_Driver/Src/stm32h7xx_hal_sdram.c ****   /* Update the SDRAM controller state */
  92              		.loc 1 210 3 is_stmt 1 view .LVU17
  93 0028 084A     		ldr	r2, .L11
  94 002a 1368     		ldr	r3, [r2]
  95 002c 43F00043 		orr	r3, r3, #-2147483648
  96 0030 1360     		str	r3, [r2]
 212:Drivers/STM32H7xx_HAL_Driver/Src/stm32h7xx_hal_sdram.c **** 
  97              		.loc 1 212 3 view .LVU18
 212:Drivers/STM32H7xx_HAL_Driver/Src/stm32h7xx_hal_sdram.c **** 
  98              		.loc 1 212 17 is_stmt 0 view .LVU19
  99 0032 0123     		movs	r3, #1
 100 0034 84F82C30 		strb	r3, [r4, #44]
 214:Drivers/STM32H7xx_HAL_Driver/Src/stm32h7xx_hal_sdram.c **** }
 101              		.loc 1 214 3 is_stmt 1 view .LVU20
 214:Drivers/STM32H7xx_HAL_Driver/Src/stm32h7xx_hal_sdram.c **** }
 102              		.loc 1 214 10 is_stmt 0 view .LVU21
 103 0038 0020     		movs	r0, #0
 215:Drivers/STM32H7xx_HAL_Driver/Src/stm32h7xx_hal_sdram.c **** 
 104              		.loc 1 215 1 view .LVU22
 105 003a 38BD     		pop	{r3, r4, r5, pc}
 106              	.LVL5:
 107              	.L10:
 182:Drivers/STM32H7xx_HAL_Driver/Src/stm32h7xx_hal_sdram.c **** #if (USE_HAL_SDRAM_REGISTER_CALLBACKS == 1)
 108              		.loc 1 182 5 is_stmt 1 view .LVU23
 182:Drivers/STM32H7xx_HAL_Driver/Src/stm32h7xx_hal_sdram.c **** #if (USE_HAL_SDRAM_REGISTER_CALLBACKS == 1)
 109              		.loc 1 182 18 is_stmt 0 view .LVU24
 110 003c 80F82D30 		strb	r3, [r0, #45]
 196:Drivers/STM32H7xx_HAL_Driver/Src/stm32h7xx_hal_sdram.c **** #endif /* USE_HAL_SDRAM_REGISTER_CALLBACKS */
 111              		.loc 1 196 5 is_stmt 1 view .LVU25
 112 0040 FFF7FEFF 		bl	HAL_SDRAM_MspInit
 113              	.LVL6:
 196:Drivers/STM32H7xx_HAL_Driver/Src/stm32h7xx_hal_sdram.c **** #endif /* USE_HAL_SDRAM_REGISTER_CALLBACKS */
 114              		.loc 1 196 5 is_stmt 0 view .LVU26
ARM GAS  /tmp/ccZHMbbp.s 			page 8


 115 0044 E3E7     		b	.L4
 116              	.LVL7:
 117              	.L5:
 118              	.LCFI1:
 119              		.cfi_def_cfa_offset 0
 120              		.cfi_restore 3
 121              		.cfi_restore 4
 122              		.cfi_restore 5
 123              		.cfi_restore 14
 176:Drivers/STM32H7xx_HAL_Driver/Src/stm32h7xx_hal_sdram.c ****   }
 124              		.loc 1 176 12 view .LVU27
 125 0046 0120     		movs	r0, #1
 126              	.LVL8:
 215:Drivers/STM32H7xx_HAL_Driver/Src/stm32h7xx_hal_sdram.c **** 
 127              		.loc 1 215 1 view .LVU28
 128 0048 7047     		bx	lr
 129              	.L12:
 130 004a 00BF     		.align	2
 131              	.L11:
 132 004c 00400052 		.word	1375748096
 133              		.cfi_endproc
 134              	.LFE144:
 136              		.section	.text.HAL_SDRAM_MspDeInit,"ax",%progbits
 137              		.align	1
 138              		.weak	HAL_SDRAM_MspDeInit
 139              		.syntax unified
 140              		.thumb
 141              		.thumb_func
 143              	HAL_SDRAM_MspDeInit:
 144              	.LVL9:
 145              	.LFB147:
 265:Drivers/STM32H7xx_HAL_Driver/Src/stm32h7xx_hal_sdram.c **** 
 266:Drivers/STM32H7xx_HAL_Driver/Src/stm32h7xx_hal_sdram.c **** /**
 267:Drivers/STM32H7xx_HAL_Driver/Src/stm32h7xx_hal_sdram.c ****   * @brief  SDRAM MSP DeInit.
 268:Drivers/STM32H7xx_HAL_Driver/Src/stm32h7xx_hal_sdram.c ****   * @param  hsdram pointer to a SDRAM_HandleTypeDef structure that contains
 269:Drivers/STM32H7xx_HAL_Driver/Src/stm32h7xx_hal_sdram.c ****   *                the configuration information for SDRAM module.
 270:Drivers/STM32H7xx_HAL_Driver/Src/stm32h7xx_hal_sdram.c ****   * @retval None
 271:Drivers/STM32H7xx_HAL_Driver/Src/stm32h7xx_hal_sdram.c ****   */
 272:Drivers/STM32H7xx_HAL_Driver/Src/stm32h7xx_hal_sdram.c **** __weak void HAL_SDRAM_MspDeInit(SDRAM_HandleTypeDef *hsdram)
 273:Drivers/STM32H7xx_HAL_Driver/Src/stm32h7xx_hal_sdram.c **** {
 146              		.loc 1 273 1 is_stmt 1 view -0
 147              		.cfi_startproc
 148              		@ args = 0, pretend = 0, frame = 0
 149              		@ frame_needed = 0, uses_anonymous_args = 0
 150              		@ link register save eliminated.
 274:Drivers/STM32H7xx_HAL_Driver/Src/stm32h7xx_hal_sdram.c ****   /* Prevent unused argument(s) compilation warning */
 275:Drivers/STM32H7xx_HAL_Driver/Src/stm32h7xx_hal_sdram.c ****   UNUSED(hsdram);
 151              		.loc 1 275 3 view .LVU30
 276:Drivers/STM32H7xx_HAL_Driver/Src/stm32h7xx_hal_sdram.c **** 
 277:Drivers/STM32H7xx_HAL_Driver/Src/stm32h7xx_hal_sdram.c ****   /* NOTE: This function Should not be modified, when the callback is needed,
 278:Drivers/STM32H7xx_HAL_Driver/Src/stm32h7xx_hal_sdram.c ****             the HAL_SDRAM_MspDeInit could be implemented in the user file
 279:Drivers/STM32H7xx_HAL_Driver/Src/stm32h7xx_hal_sdram.c ****    */
 280:Drivers/STM32H7xx_HAL_Driver/Src/stm32h7xx_hal_sdram.c **** }
 152              		.loc 1 280 1 is_stmt 0 view .LVU31
 153 0000 7047     		bx	lr
 154              		.cfi_endproc
 155              	.LFE147:
ARM GAS  /tmp/ccZHMbbp.s 			page 9


 157              		.section	.text.HAL_SDRAM_DeInit,"ax",%progbits
 158              		.align	1
 159              		.global	HAL_SDRAM_DeInit
 160              		.syntax unified
 161              		.thumb
 162              		.thumb_func
 164              	HAL_SDRAM_DeInit:
 165              	.LVL10:
 166              	.LFB145:
 224:Drivers/STM32H7xx_HAL_Driver/Src/stm32h7xx_hal_sdram.c **** #if (USE_HAL_SDRAM_REGISTER_CALLBACKS == 1)
 167              		.loc 1 224 1 is_stmt 1 view -0
 168              		.cfi_startproc
 169              		@ args = 0, pretend = 0, frame = 0
 170              		@ frame_needed = 0, uses_anonymous_args = 0
 224:Drivers/STM32H7xx_HAL_Driver/Src/stm32h7xx_hal_sdram.c **** #if (USE_HAL_SDRAM_REGISTER_CALLBACKS == 1)
 171              		.loc 1 224 1 is_stmt 0 view .LVU33
 172 0000 10B5     		push	{r4, lr}
 173              	.LCFI2:
 174              		.cfi_def_cfa_offset 8
 175              		.cfi_offset 4, -8
 176              		.cfi_offset 14, -4
 177 0002 0446     		mov	r4, r0
 235:Drivers/STM32H7xx_HAL_Driver/Src/stm32h7xx_hal_sdram.c **** #endif /* USE_HAL_SDRAM_REGISTER_CALLBACKS */
 178              		.loc 1 235 3 is_stmt 1 view .LVU34
 179 0004 FFF7FEFF 		bl	HAL_SDRAM_MspDeInit
 180              	.LVL11:
 239:Drivers/STM32H7xx_HAL_Driver/Src/stm32h7xx_hal_sdram.c **** 
 181              		.loc 1 239 3 view .LVU35
 239:Drivers/STM32H7xx_HAL_Driver/Src/stm32h7xx_hal_sdram.c **** 
 182              		.loc 1 239 9 is_stmt 0 view .LVU36
 183 0008 6168     		ldr	r1, [r4, #4]
 184 000a 2068     		ldr	r0, [r4]
 185 000c FFF7FEFF 		bl	FMC_SDRAM_DeInit
 186              	.LVL12:
 242:Drivers/STM32H7xx_HAL_Driver/Src/stm32h7xx_hal_sdram.c **** 
 187              		.loc 1 242 3 is_stmt 1 view .LVU37
 242:Drivers/STM32H7xx_HAL_Driver/Src/stm32h7xx_hal_sdram.c **** 
 188              		.loc 1 242 17 is_stmt 0 view .LVU38
 189 0010 0020     		movs	r0, #0
 190 0012 84F82C00 		strb	r0, [r4, #44]
 245:Drivers/STM32H7xx_HAL_Driver/Src/stm32h7xx_hal_sdram.c **** 
 191              		.loc 1 245 3 is_stmt 1 view .LVU39
 245:Drivers/STM32H7xx_HAL_Driver/Src/stm32h7xx_hal_sdram.c **** 
 192              		.loc 1 245 3 view .LVU40
 193 0016 84F82D00 		strb	r0, [r4, #45]
 245:Drivers/STM32H7xx_HAL_Driver/Src/stm32h7xx_hal_sdram.c **** 
 194              		.loc 1 245 3 view .LVU41
 247:Drivers/STM32H7xx_HAL_Driver/Src/stm32h7xx_hal_sdram.c **** }
 195              		.loc 1 247 3 view .LVU42
 248:Drivers/STM32H7xx_HAL_Driver/Src/stm32h7xx_hal_sdram.c **** 
 196              		.loc 1 248 1 is_stmt 0 view .LVU43
 197 001a 10BD     		pop	{r4, pc}
 248:Drivers/STM32H7xx_HAL_Driver/Src/stm32h7xx_hal_sdram.c **** 
 198              		.loc 1 248 1 view .LVU44
 199              		.cfi_endproc
 200              	.LFE145:
 202              		.section	.text.HAL_SDRAM_RefreshErrorCallback,"ax",%progbits
ARM GAS  /tmp/ccZHMbbp.s 			page 10


 203              		.align	1
 204              		.weak	HAL_SDRAM_RefreshErrorCallback
 205              		.syntax unified
 206              		.thumb
 207              		.thumb_func
 209              	HAL_SDRAM_RefreshErrorCallback:
 210              	.LVL13:
 211              	.LFB149:
 281:Drivers/STM32H7xx_HAL_Driver/Src/stm32h7xx_hal_sdram.c **** 
 282:Drivers/STM32H7xx_HAL_Driver/Src/stm32h7xx_hal_sdram.c **** /**
 283:Drivers/STM32H7xx_HAL_Driver/Src/stm32h7xx_hal_sdram.c ****   * @brief  This function handles SDRAM refresh error interrupt request.
 284:Drivers/STM32H7xx_HAL_Driver/Src/stm32h7xx_hal_sdram.c ****   * @param  hsdram pointer to a SDRAM_HandleTypeDef structure that contains
 285:Drivers/STM32H7xx_HAL_Driver/Src/stm32h7xx_hal_sdram.c ****   *                the configuration information for SDRAM module.
 286:Drivers/STM32H7xx_HAL_Driver/Src/stm32h7xx_hal_sdram.c ****   * @retval HAL status
 287:Drivers/STM32H7xx_HAL_Driver/Src/stm32h7xx_hal_sdram.c ****   */
 288:Drivers/STM32H7xx_HAL_Driver/Src/stm32h7xx_hal_sdram.c **** void HAL_SDRAM_IRQHandler(SDRAM_HandleTypeDef *hsdram)
 289:Drivers/STM32H7xx_HAL_Driver/Src/stm32h7xx_hal_sdram.c **** {
 290:Drivers/STM32H7xx_HAL_Driver/Src/stm32h7xx_hal_sdram.c ****   /* Check SDRAM interrupt Rising edge flag */
 291:Drivers/STM32H7xx_HAL_Driver/Src/stm32h7xx_hal_sdram.c ****   if (__FMC_SDRAM_GET_FLAG(hsdram->Instance, FMC_SDRAM_FLAG_REFRESH_IT))
 292:Drivers/STM32H7xx_HAL_Driver/Src/stm32h7xx_hal_sdram.c ****   {
 293:Drivers/STM32H7xx_HAL_Driver/Src/stm32h7xx_hal_sdram.c ****     /* SDRAM refresh error interrupt callback */
 294:Drivers/STM32H7xx_HAL_Driver/Src/stm32h7xx_hal_sdram.c **** #if (USE_HAL_SDRAM_REGISTER_CALLBACKS == 1)
 295:Drivers/STM32H7xx_HAL_Driver/Src/stm32h7xx_hal_sdram.c ****     hsdram->RefreshErrorCallback(hsdram);
 296:Drivers/STM32H7xx_HAL_Driver/Src/stm32h7xx_hal_sdram.c **** #else
 297:Drivers/STM32H7xx_HAL_Driver/Src/stm32h7xx_hal_sdram.c ****     HAL_SDRAM_RefreshErrorCallback(hsdram);
 298:Drivers/STM32H7xx_HAL_Driver/Src/stm32h7xx_hal_sdram.c **** #endif /* USE_HAL_SDRAM_REGISTER_CALLBACKS */
 299:Drivers/STM32H7xx_HAL_Driver/Src/stm32h7xx_hal_sdram.c **** 
 300:Drivers/STM32H7xx_HAL_Driver/Src/stm32h7xx_hal_sdram.c ****     /* Clear SDRAM refresh error interrupt pending bit */
 301:Drivers/STM32H7xx_HAL_Driver/Src/stm32h7xx_hal_sdram.c ****     __FMC_SDRAM_CLEAR_FLAG(hsdram->Instance, FMC_SDRAM_FLAG_REFRESH_ERROR);
 302:Drivers/STM32H7xx_HAL_Driver/Src/stm32h7xx_hal_sdram.c ****   }
 303:Drivers/STM32H7xx_HAL_Driver/Src/stm32h7xx_hal_sdram.c **** }
 304:Drivers/STM32H7xx_HAL_Driver/Src/stm32h7xx_hal_sdram.c **** 
 305:Drivers/STM32H7xx_HAL_Driver/Src/stm32h7xx_hal_sdram.c **** /**
 306:Drivers/STM32H7xx_HAL_Driver/Src/stm32h7xx_hal_sdram.c ****   * @brief  SDRAM Refresh error callback.
 307:Drivers/STM32H7xx_HAL_Driver/Src/stm32h7xx_hal_sdram.c ****   * @param  hsdram pointer to a SDRAM_HandleTypeDef structure that contains
 308:Drivers/STM32H7xx_HAL_Driver/Src/stm32h7xx_hal_sdram.c ****   *                the configuration information for SDRAM module.
 309:Drivers/STM32H7xx_HAL_Driver/Src/stm32h7xx_hal_sdram.c ****   * @retval None
 310:Drivers/STM32H7xx_HAL_Driver/Src/stm32h7xx_hal_sdram.c ****   */
 311:Drivers/STM32H7xx_HAL_Driver/Src/stm32h7xx_hal_sdram.c **** __weak void HAL_SDRAM_RefreshErrorCallback(SDRAM_HandleTypeDef *hsdram)
 312:Drivers/STM32H7xx_HAL_Driver/Src/stm32h7xx_hal_sdram.c **** {
 212              		.loc 1 312 1 is_stmt 1 view -0
 213              		.cfi_startproc
 214              		@ args = 0, pretend = 0, frame = 0
 215              		@ frame_needed = 0, uses_anonymous_args = 0
 216              		@ link register save eliminated.
 313:Drivers/STM32H7xx_HAL_Driver/Src/stm32h7xx_hal_sdram.c ****   /* Prevent unused argument(s) compilation warning */
 314:Drivers/STM32H7xx_HAL_Driver/Src/stm32h7xx_hal_sdram.c ****   UNUSED(hsdram);
 217              		.loc 1 314 3 view .LVU46
 315:Drivers/STM32H7xx_HAL_Driver/Src/stm32h7xx_hal_sdram.c **** 
 316:Drivers/STM32H7xx_HAL_Driver/Src/stm32h7xx_hal_sdram.c ****   /* NOTE: This function Should not be modified, when the callback is needed,
 317:Drivers/STM32H7xx_HAL_Driver/Src/stm32h7xx_hal_sdram.c ****             the HAL_SDRAM_RefreshErrorCallback could be implemented in the user file
 318:Drivers/STM32H7xx_HAL_Driver/Src/stm32h7xx_hal_sdram.c ****    */
 319:Drivers/STM32H7xx_HAL_Driver/Src/stm32h7xx_hal_sdram.c **** }
 218              		.loc 1 319 1 is_stmt 0 view .LVU47
 219 0000 7047     		bx	lr
 220              		.cfi_endproc
 221              	.LFE149:
ARM GAS  /tmp/ccZHMbbp.s 			page 11


 223              		.section	.text.HAL_SDRAM_IRQHandler,"ax",%progbits
 224              		.align	1
 225              		.global	HAL_SDRAM_IRQHandler
 226              		.syntax unified
 227              		.thumb
 228              		.thumb_func
 230              	HAL_SDRAM_IRQHandler:
 231              	.LVL14:
 232              	.LFB148:
 289:Drivers/STM32H7xx_HAL_Driver/Src/stm32h7xx_hal_sdram.c ****   /* Check SDRAM interrupt Rising edge flag */
 233              		.loc 1 289 1 is_stmt 1 view -0
 234              		.cfi_startproc
 235              		@ args = 0, pretend = 0, frame = 0
 236              		@ frame_needed = 0, uses_anonymous_args = 0
 291:Drivers/STM32H7xx_HAL_Driver/Src/stm32h7xx_hal_sdram.c ****   {
 237              		.loc 1 291 3 view .LVU49
 291:Drivers/STM32H7xx_HAL_Driver/Src/stm32h7xx_hal_sdram.c ****   {
 238              		.loc 1 291 7 is_stmt 0 view .LVU50
 239 0000 0368     		ldr	r3, [r0]
 240 0002 9B69     		ldr	r3, [r3, #24]
 291:Drivers/STM32H7xx_HAL_Driver/Src/stm32h7xx_hal_sdram.c ****   {
 241              		.loc 1 291 6 view .LVU51
 242 0004 13F0010F 		tst	r3, #1
 243 0008 00D1     		bne	.L23
 244 000a 7047     		bx	lr
 245              	.L23:
 289:Drivers/STM32H7xx_HAL_Driver/Src/stm32h7xx_hal_sdram.c ****   /* Check SDRAM interrupt Rising edge flag */
 246              		.loc 1 289 1 view .LVU52
 247 000c 10B5     		push	{r4, lr}
 248              	.LCFI3:
 249              		.cfi_def_cfa_offset 8
 250              		.cfi_offset 4, -8
 251              		.cfi_offset 14, -4
 252 000e 0446     		mov	r4, r0
 297:Drivers/STM32H7xx_HAL_Driver/Src/stm32h7xx_hal_sdram.c **** #endif /* USE_HAL_SDRAM_REGISTER_CALLBACKS */
 253              		.loc 1 297 5 is_stmt 1 view .LVU53
 254 0010 FFF7FEFF 		bl	HAL_SDRAM_RefreshErrorCallback
 255              	.LVL15:
 301:Drivers/STM32H7xx_HAL_Driver/Src/stm32h7xx_hal_sdram.c ****   }
 256              		.loc 1 301 5 view .LVU54
 257 0014 2268     		ldr	r2, [r4]
 258 0016 5369     		ldr	r3, [r2, #20]
 259 0018 43F00103 		orr	r3, r3, #1
 260 001c 5361     		str	r3, [r2, #20]
 303:Drivers/STM32H7xx_HAL_Driver/Src/stm32h7xx_hal_sdram.c **** 
 261              		.loc 1 303 1 is_stmt 0 view .LVU55
 262 001e 10BD     		pop	{r4, pc}
 303:Drivers/STM32H7xx_HAL_Driver/Src/stm32h7xx_hal_sdram.c **** 
 263              		.loc 1 303 1 view .LVU56
 264              		.cfi_endproc
 265              	.LFE148:
 267              		.section	.text.HAL_SDRAM_DMA_XferCpltCallback,"ax",%progbits
 268              		.align	1
 269              		.weak	HAL_SDRAM_DMA_XferCpltCallback
 270              		.syntax unified
 271              		.thumb
 272              		.thumb_func
ARM GAS  /tmp/ccZHMbbp.s 			page 12


 274              	HAL_SDRAM_DMA_XferCpltCallback:
 275              	.LVL16:
 276              	.LFB150:
 320:Drivers/STM32H7xx_HAL_Driver/Src/stm32h7xx_hal_sdram.c **** 
 321:Drivers/STM32H7xx_HAL_Driver/Src/stm32h7xx_hal_sdram.c **** /**
 322:Drivers/STM32H7xx_HAL_Driver/Src/stm32h7xx_hal_sdram.c ****   * @brief  DMA transfer complete callback.
 323:Drivers/STM32H7xx_HAL_Driver/Src/stm32h7xx_hal_sdram.c ****   * @param  hmdma pointer to a DMA_HandleTypeDef structure that contains
 324:Drivers/STM32H7xx_HAL_Driver/Src/stm32h7xx_hal_sdram.c ****   *                the configuration information for the specified DMA module.
 325:Drivers/STM32H7xx_HAL_Driver/Src/stm32h7xx_hal_sdram.c ****   * @retval None
 326:Drivers/STM32H7xx_HAL_Driver/Src/stm32h7xx_hal_sdram.c ****   */
 327:Drivers/STM32H7xx_HAL_Driver/Src/stm32h7xx_hal_sdram.c **** __weak void HAL_SDRAM_DMA_XferCpltCallback(MDMA_HandleTypeDef *hmdma)
 328:Drivers/STM32H7xx_HAL_Driver/Src/stm32h7xx_hal_sdram.c **** {
 277              		.loc 1 328 1 is_stmt 1 view -0
 278              		.cfi_startproc
 279              		@ args = 0, pretend = 0, frame = 0
 280              		@ frame_needed = 0, uses_anonymous_args = 0
 281              		@ link register save eliminated.
 329:Drivers/STM32H7xx_HAL_Driver/Src/stm32h7xx_hal_sdram.c ****   /* Prevent unused argument(s) compilation warning */
 330:Drivers/STM32H7xx_HAL_Driver/Src/stm32h7xx_hal_sdram.c ****   UNUSED(hmdma);
 282              		.loc 1 330 3 view .LVU58
 331:Drivers/STM32H7xx_HAL_Driver/Src/stm32h7xx_hal_sdram.c **** 
 332:Drivers/STM32H7xx_HAL_Driver/Src/stm32h7xx_hal_sdram.c ****   /* NOTE: This function Should not be modified, when the callback is needed,
 333:Drivers/STM32H7xx_HAL_Driver/Src/stm32h7xx_hal_sdram.c ****             the HAL_SDRAM_DMA_XferCpltCallback could be implemented in the user file
 334:Drivers/STM32H7xx_HAL_Driver/Src/stm32h7xx_hal_sdram.c ****    */
 335:Drivers/STM32H7xx_HAL_Driver/Src/stm32h7xx_hal_sdram.c **** }
 283              		.loc 1 335 1 is_stmt 0 view .LVU59
 284 0000 7047     		bx	lr
 285              		.cfi_endproc
 286              	.LFE150:
 288              		.section	.text.SDRAM_DMACpltProt,"ax",%progbits
 289              		.align	1
 290              		.syntax unified
 291              		.thumb
 292              		.thumb_func
 294              	SDRAM_DMACpltProt:
 295              	.LVL17:
 296              	.LFB168:
 336:Drivers/STM32H7xx_HAL_Driver/Src/stm32h7xx_hal_sdram.c **** 
 337:Drivers/STM32H7xx_HAL_Driver/Src/stm32h7xx_hal_sdram.c **** /**
 338:Drivers/STM32H7xx_HAL_Driver/Src/stm32h7xx_hal_sdram.c ****   * @brief  DMA transfer complete error callback.
 339:Drivers/STM32H7xx_HAL_Driver/Src/stm32h7xx_hal_sdram.c ****   * @param  hmdma DMA handle
 340:Drivers/STM32H7xx_HAL_Driver/Src/stm32h7xx_hal_sdram.c ****   * @retval None
 341:Drivers/STM32H7xx_HAL_Driver/Src/stm32h7xx_hal_sdram.c ****   */
 342:Drivers/STM32H7xx_HAL_Driver/Src/stm32h7xx_hal_sdram.c **** __weak void HAL_SDRAM_DMA_XferErrorCallback(MDMA_HandleTypeDef *hmdma)
 343:Drivers/STM32H7xx_HAL_Driver/Src/stm32h7xx_hal_sdram.c **** {
 344:Drivers/STM32H7xx_HAL_Driver/Src/stm32h7xx_hal_sdram.c ****   /* Prevent unused argument(s) compilation warning */
 345:Drivers/STM32H7xx_HAL_Driver/Src/stm32h7xx_hal_sdram.c ****   UNUSED(hmdma);
 346:Drivers/STM32H7xx_HAL_Driver/Src/stm32h7xx_hal_sdram.c **** 
 347:Drivers/STM32H7xx_HAL_Driver/Src/stm32h7xx_hal_sdram.c ****   /* NOTE: This function Should not be modified, when the callback is needed,
 348:Drivers/STM32H7xx_HAL_Driver/Src/stm32h7xx_hal_sdram.c ****             the HAL_SDRAM_DMA_XferErrorCallback could be implemented in the user file
 349:Drivers/STM32H7xx_HAL_Driver/Src/stm32h7xx_hal_sdram.c ****    */
 350:Drivers/STM32H7xx_HAL_Driver/Src/stm32h7xx_hal_sdram.c **** }
 351:Drivers/STM32H7xx_HAL_Driver/Src/stm32h7xx_hal_sdram.c **** 
 352:Drivers/STM32H7xx_HAL_Driver/Src/stm32h7xx_hal_sdram.c **** /**
 353:Drivers/STM32H7xx_HAL_Driver/Src/stm32h7xx_hal_sdram.c ****   * @}
 354:Drivers/STM32H7xx_HAL_Driver/Src/stm32h7xx_hal_sdram.c ****   */
 355:Drivers/STM32H7xx_HAL_Driver/Src/stm32h7xx_hal_sdram.c **** 
ARM GAS  /tmp/ccZHMbbp.s 			page 13


 356:Drivers/STM32H7xx_HAL_Driver/Src/stm32h7xx_hal_sdram.c **** /** @defgroup SDRAM_Exported_Functions_Group2 Input and Output functions
 357:Drivers/STM32H7xx_HAL_Driver/Src/stm32h7xx_hal_sdram.c ****   * @brief    Input Output and memory control functions
 358:Drivers/STM32H7xx_HAL_Driver/Src/stm32h7xx_hal_sdram.c ****   *
 359:Drivers/STM32H7xx_HAL_Driver/Src/stm32h7xx_hal_sdram.c ****   @verbatim
 360:Drivers/STM32H7xx_HAL_Driver/Src/stm32h7xx_hal_sdram.c ****   ==============================================================================
 361:Drivers/STM32H7xx_HAL_Driver/Src/stm32h7xx_hal_sdram.c ****                     ##### SDRAM Input and Output functions #####
 362:Drivers/STM32H7xx_HAL_Driver/Src/stm32h7xx_hal_sdram.c ****   ==============================================================================
 363:Drivers/STM32H7xx_HAL_Driver/Src/stm32h7xx_hal_sdram.c ****   [..]
 364:Drivers/STM32H7xx_HAL_Driver/Src/stm32h7xx_hal_sdram.c ****     This section provides functions allowing to use and control the SDRAM memory
 365:Drivers/STM32H7xx_HAL_Driver/Src/stm32h7xx_hal_sdram.c **** 
 366:Drivers/STM32H7xx_HAL_Driver/Src/stm32h7xx_hal_sdram.c **** @endverbatim
 367:Drivers/STM32H7xx_HAL_Driver/Src/stm32h7xx_hal_sdram.c ****   * @{
 368:Drivers/STM32H7xx_HAL_Driver/Src/stm32h7xx_hal_sdram.c ****   */
 369:Drivers/STM32H7xx_HAL_Driver/Src/stm32h7xx_hal_sdram.c **** 
 370:Drivers/STM32H7xx_HAL_Driver/Src/stm32h7xx_hal_sdram.c **** /**
 371:Drivers/STM32H7xx_HAL_Driver/Src/stm32h7xx_hal_sdram.c ****   * @brief  Reads 8-bit data buffer from the SDRAM memory.
 372:Drivers/STM32H7xx_HAL_Driver/Src/stm32h7xx_hal_sdram.c ****   * @param  hsdram pointer to a SDRAM_HandleTypeDef structure that contains
 373:Drivers/STM32H7xx_HAL_Driver/Src/stm32h7xx_hal_sdram.c ****   *                the configuration information for SDRAM module.
 374:Drivers/STM32H7xx_HAL_Driver/Src/stm32h7xx_hal_sdram.c ****   * @param  pAddress Pointer to read start address
 375:Drivers/STM32H7xx_HAL_Driver/Src/stm32h7xx_hal_sdram.c ****   * @param  pDstBuffer Pointer to destination buffer
 376:Drivers/STM32H7xx_HAL_Driver/Src/stm32h7xx_hal_sdram.c ****   * @param  BufferSize Size of the buffer to read from memory
 377:Drivers/STM32H7xx_HAL_Driver/Src/stm32h7xx_hal_sdram.c ****   * @retval HAL status
 378:Drivers/STM32H7xx_HAL_Driver/Src/stm32h7xx_hal_sdram.c ****   */
 379:Drivers/STM32H7xx_HAL_Driver/Src/stm32h7xx_hal_sdram.c **** HAL_StatusTypeDef HAL_SDRAM_Read_8b(SDRAM_HandleTypeDef *hsdram, uint32_t *pAddress, uint8_t *pDstB
 380:Drivers/STM32H7xx_HAL_Driver/Src/stm32h7xx_hal_sdram.c ****                                     uint32_t BufferSize)
 381:Drivers/STM32H7xx_HAL_Driver/Src/stm32h7xx_hal_sdram.c **** {
 382:Drivers/STM32H7xx_HAL_Driver/Src/stm32h7xx_hal_sdram.c ****   uint32_t size;
 383:Drivers/STM32H7xx_HAL_Driver/Src/stm32h7xx_hal_sdram.c ****   __IO uint8_t *pSdramAddress = (uint8_t *)pAddress;
 384:Drivers/STM32H7xx_HAL_Driver/Src/stm32h7xx_hal_sdram.c ****   uint8_t *pdestbuff = pDstBuffer;
 385:Drivers/STM32H7xx_HAL_Driver/Src/stm32h7xx_hal_sdram.c ****   HAL_SDRAM_StateTypeDef state = hsdram->State;
 386:Drivers/STM32H7xx_HAL_Driver/Src/stm32h7xx_hal_sdram.c **** 
 387:Drivers/STM32H7xx_HAL_Driver/Src/stm32h7xx_hal_sdram.c ****   /* Check the SDRAM controller state */
 388:Drivers/STM32H7xx_HAL_Driver/Src/stm32h7xx_hal_sdram.c ****   if (state == HAL_SDRAM_STATE_BUSY)
 389:Drivers/STM32H7xx_HAL_Driver/Src/stm32h7xx_hal_sdram.c ****   {
 390:Drivers/STM32H7xx_HAL_Driver/Src/stm32h7xx_hal_sdram.c ****     return HAL_BUSY;
 391:Drivers/STM32H7xx_HAL_Driver/Src/stm32h7xx_hal_sdram.c ****   }
 392:Drivers/STM32H7xx_HAL_Driver/Src/stm32h7xx_hal_sdram.c ****   else if ((state == HAL_SDRAM_STATE_READY) || (state == HAL_SDRAM_STATE_WRITE_PROTECTED))
 393:Drivers/STM32H7xx_HAL_Driver/Src/stm32h7xx_hal_sdram.c ****   {
 394:Drivers/STM32H7xx_HAL_Driver/Src/stm32h7xx_hal_sdram.c ****     /* Process Locked */
 395:Drivers/STM32H7xx_HAL_Driver/Src/stm32h7xx_hal_sdram.c ****     __HAL_LOCK(hsdram);
 396:Drivers/STM32H7xx_HAL_Driver/Src/stm32h7xx_hal_sdram.c **** 
 397:Drivers/STM32H7xx_HAL_Driver/Src/stm32h7xx_hal_sdram.c ****     /* Update the SDRAM controller state */
 398:Drivers/STM32H7xx_HAL_Driver/Src/stm32h7xx_hal_sdram.c ****     hsdram->State = HAL_SDRAM_STATE_BUSY;
 399:Drivers/STM32H7xx_HAL_Driver/Src/stm32h7xx_hal_sdram.c **** 
 400:Drivers/STM32H7xx_HAL_Driver/Src/stm32h7xx_hal_sdram.c ****     /* Read data from source */
 401:Drivers/STM32H7xx_HAL_Driver/Src/stm32h7xx_hal_sdram.c ****     for (size = BufferSize; size != 0U; size--)
 402:Drivers/STM32H7xx_HAL_Driver/Src/stm32h7xx_hal_sdram.c ****     {
 403:Drivers/STM32H7xx_HAL_Driver/Src/stm32h7xx_hal_sdram.c ****       *pdestbuff = *(__IO uint8_t *)pSdramAddress;
 404:Drivers/STM32H7xx_HAL_Driver/Src/stm32h7xx_hal_sdram.c ****       pdestbuff++;
 405:Drivers/STM32H7xx_HAL_Driver/Src/stm32h7xx_hal_sdram.c ****       pSdramAddress++;
 406:Drivers/STM32H7xx_HAL_Driver/Src/stm32h7xx_hal_sdram.c ****     }
 407:Drivers/STM32H7xx_HAL_Driver/Src/stm32h7xx_hal_sdram.c **** 
 408:Drivers/STM32H7xx_HAL_Driver/Src/stm32h7xx_hal_sdram.c ****     /* Update the SDRAM controller state */
 409:Drivers/STM32H7xx_HAL_Driver/Src/stm32h7xx_hal_sdram.c ****     hsdram->State = state;
 410:Drivers/STM32H7xx_HAL_Driver/Src/stm32h7xx_hal_sdram.c **** 
 411:Drivers/STM32H7xx_HAL_Driver/Src/stm32h7xx_hal_sdram.c ****     /* Process Unlocked */
 412:Drivers/STM32H7xx_HAL_Driver/Src/stm32h7xx_hal_sdram.c ****     __HAL_UNLOCK(hsdram);
ARM GAS  /tmp/ccZHMbbp.s 			page 14


 413:Drivers/STM32H7xx_HAL_Driver/Src/stm32h7xx_hal_sdram.c ****   }
 414:Drivers/STM32H7xx_HAL_Driver/Src/stm32h7xx_hal_sdram.c ****   else
 415:Drivers/STM32H7xx_HAL_Driver/Src/stm32h7xx_hal_sdram.c ****   {
 416:Drivers/STM32H7xx_HAL_Driver/Src/stm32h7xx_hal_sdram.c ****     return  HAL_ERROR;
 417:Drivers/STM32H7xx_HAL_Driver/Src/stm32h7xx_hal_sdram.c ****   }
 418:Drivers/STM32H7xx_HAL_Driver/Src/stm32h7xx_hal_sdram.c **** 
 419:Drivers/STM32H7xx_HAL_Driver/Src/stm32h7xx_hal_sdram.c ****   return HAL_OK;
 420:Drivers/STM32H7xx_HAL_Driver/Src/stm32h7xx_hal_sdram.c **** }
 421:Drivers/STM32H7xx_HAL_Driver/Src/stm32h7xx_hal_sdram.c **** 
 422:Drivers/STM32H7xx_HAL_Driver/Src/stm32h7xx_hal_sdram.c **** /**
 423:Drivers/STM32H7xx_HAL_Driver/Src/stm32h7xx_hal_sdram.c ****   * @brief  Writes 8-bit data buffer to SDRAM memory.
 424:Drivers/STM32H7xx_HAL_Driver/Src/stm32h7xx_hal_sdram.c ****   * @param  hsdram pointer to a SDRAM_HandleTypeDef structure that contains
 425:Drivers/STM32H7xx_HAL_Driver/Src/stm32h7xx_hal_sdram.c ****   *                the configuration information for SDRAM module.
 426:Drivers/STM32H7xx_HAL_Driver/Src/stm32h7xx_hal_sdram.c ****   * @param  pAddress Pointer to write start address
 427:Drivers/STM32H7xx_HAL_Driver/Src/stm32h7xx_hal_sdram.c ****   * @param  pSrcBuffer Pointer to source buffer to write
 428:Drivers/STM32H7xx_HAL_Driver/Src/stm32h7xx_hal_sdram.c ****   * @param  BufferSize Size of the buffer to write to memory
 429:Drivers/STM32H7xx_HAL_Driver/Src/stm32h7xx_hal_sdram.c ****   * @retval HAL status
 430:Drivers/STM32H7xx_HAL_Driver/Src/stm32h7xx_hal_sdram.c ****   */
 431:Drivers/STM32H7xx_HAL_Driver/Src/stm32h7xx_hal_sdram.c **** HAL_StatusTypeDef HAL_SDRAM_Write_8b(SDRAM_HandleTypeDef *hsdram, uint32_t *pAddress, uint8_t *pSrc
 432:Drivers/STM32H7xx_HAL_Driver/Src/stm32h7xx_hal_sdram.c ****                                      uint32_t BufferSize)
 433:Drivers/STM32H7xx_HAL_Driver/Src/stm32h7xx_hal_sdram.c **** {
 434:Drivers/STM32H7xx_HAL_Driver/Src/stm32h7xx_hal_sdram.c ****   uint32_t size;
 435:Drivers/STM32H7xx_HAL_Driver/Src/stm32h7xx_hal_sdram.c ****   __IO uint8_t *pSdramAddress = (uint8_t *)pAddress;
 436:Drivers/STM32H7xx_HAL_Driver/Src/stm32h7xx_hal_sdram.c ****   uint8_t *psrcbuff = pSrcBuffer;
 437:Drivers/STM32H7xx_HAL_Driver/Src/stm32h7xx_hal_sdram.c **** 
 438:Drivers/STM32H7xx_HAL_Driver/Src/stm32h7xx_hal_sdram.c ****   /* Check the SDRAM controller state */
 439:Drivers/STM32H7xx_HAL_Driver/Src/stm32h7xx_hal_sdram.c ****   if (hsdram->State == HAL_SDRAM_STATE_BUSY)
 440:Drivers/STM32H7xx_HAL_Driver/Src/stm32h7xx_hal_sdram.c ****   {
 441:Drivers/STM32H7xx_HAL_Driver/Src/stm32h7xx_hal_sdram.c ****     return HAL_BUSY;
 442:Drivers/STM32H7xx_HAL_Driver/Src/stm32h7xx_hal_sdram.c ****   }
 443:Drivers/STM32H7xx_HAL_Driver/Src/stm32h7xx_hal_sdram.c ****   else if (hsdram->State == HAL_SDRAM_STATE_READY)
 444:Drivers/STM32H7xx_HAL_Driver/Src/stm32h7xx_hal_sdram.c ****   {
 445:Drivers/STM32H7xx_HAL_Driver/Src/stm32h7xx_hal_sdram.c ****     /* Process Locked */
 446:Drivers/STM32H7xx_HAL_Driver/Src/stm32h7xx_hal_sdram.c ****     __HAL_LOCK(hsdram);
 447:Drivers/STM32H7xx_HAL_Driver/Src/stm32h7xx_hal_sdram.c **** 
 448:Drivers/STM32H7xx_HAL_Driver/Src/stm32h7xx_hal_sdram.c ****     /* Update the SDRAM controller state */
 449:Drivers/STM32H7xx_HAL_Driver/Src/stm32h7xx_hal_sdram.c ****     hsdram->State = HAL_SDRAM_STATE_BUSY;
 450:Drivers/STM32H7xx_HAL_Driver/Src/stm32h7xx_hal_sdram.c **** 
 451:Drivers/STM32H7xx_HAL_Driver/Src/stm32h7xx_hal_sdram.c ****     /* Write data to memory */
 452:Drivers/STM32H7xx_HAL_Driver/Src/stm32h7xx_hal_sdram.c ****     for (size = BufferSize; size != 0U; size--)
 453:Drivers/STM32H7xx_HAL_Driver/Src/stm32h7xx_hal_sdram.c ****     {
 454:Drivers/STM32H7xx_HAL_Driver/Src/stm32h7xx_hal_sdram.c ****       *(__IO uint8_t *)pSdramAddress = *psrcbuff;
 455:Drivers/STM32H7xx_HAL_Driver/Src/stm32h7xx_hal_sdram.c ****       psrcbuff++;
 456:Drivers/STM32H7xx_HAL_Driver/Src/stm32h7xx_hal_sdram.c ****       pSdramAddress++;
 457:Drivers/STM32H7xx_HAL_Driver/Src/stm32h7xx_hal_sdram.c ****     }
 458:Drivers/STM32H7xx_HAL_Driver/Src/stm32h7xx_hal_sdram.c **** 
 459:Drivers/STM32H7xx_HAL_Driver/Src/stm32h7xx_hal_sdram.c ****     /* Update the SDRAM controller state */
 460:Drivers/STM32H7xx_HAL_Driver/Src/stm32h7xx_hal_sdram.c ****     hsdram->State = HAL_SDRAM_STATE_READY;
 461:Drivers/STM32H7xx_HAL_Driver/Src/stm32h7xx_hal_sdram.c **** 
 462:Drivers/STM32H7xx_HAL_Driver/Src/stm32h7xx_hal_sdram.c ****     /* Process Unlocked */
 463:Drivers/STM32H7xx_HAL_Driver/Src/stm32h7xx_hal_sdram.c ****     __HAL_UNLOCK(hsdram);
 464:Drivers/STM32H7xx_HAL_Driver/Src/stm32h7xx_hal_sdram.c ****   }
 465:Drivers/STM32H7xx_HAL_Driver/Src/stm32h7xx_hal_sdram.c ****   else
 466:Drivers/STM32H7xx_HAL_Driver/Src/stm32h7xx_hal_sdram.c ****   {
 467:Drivers/STM32H7xx_HAL_Driver/Src/stm32h7xx_hal_sdram.c ****     return  HAL_ERROR;
 468:Drivers/STM32H7xx_HAL_Driver/Src/stm32h7xx_hal_sdram.c ****   }
 469:Drivers/STM32H7xx_HAL_Driver/Src/stm32h7xx_hal_sdram.c **** 
ARM GAS  /tmp/ccZHMbbp.s 			page 15


 470:Drivers/STM32H7xx_HAL_Driver/Src/stm32h7xx_hal_sdram.c ****   return HAL_OK;
 471:Drivers/STM32H7xx_HAL_Driver/Src/stm32h7xx_hal_sdram.c **** }
 472:Drivers/STM32H7xx_HAL_Driver/Src/stm32h7xx_hal_sdram.c **** 
 473:Drivers/STM32H7xx_HAL_Driver/Src/stm32h7xx_hal_sdram.c **** /**
 474:Drivers/STM32H7xx_HAL_Driver/Src/stm32h7xx_hal_sdram.c ****   * @brief  Reads 16-bit data buffer from the SDRAM memory.
 475:Drivers/STM32H7xx_HAL_Driver/Src/stm32h7xx_hal_sdram.c ****   * @param  hsdram pointer to a SDRAM_HandleTypeDef structure that contains
 476:Drivers/STM32H7xx_HAL_Driver/Src/stm32h7xx_hal_sdram.c ****   *                the configuration information for SDRAM module.
 477:Drivers/STM32H7xx_HAL_Driver/Src/stm32h7xx_hal_sdram.c ****   * @param  pAddress Pointer to read start address
 478:Drivers/STM32H7xx_HAL_Driver/Src/stm32h7xx_hal_sdram.c ****   * @param  pDstBuffer Pointer to destination buffer
 479:Drivers/STM32H7xx_HAL_Driver/Src/stm32h7xx_hal_sdram.c ****   * @param  BufferSize Size of the buffer to read from memory
 480:Drivers/STM32H7xx_HAL_Driver/Src/stm32h7xx_hal_sdram.c ****   * @retval HAL status
 481:Drivers/STM32H7xx_HAL_Driver/Src/stm32h7xx_hal_sdram.c ****   */
 482:Drivers/STM32H7xx_HAL_Driver/Src/stm32h7xx_hal_sdram.c **** HAL_StatusTypeDef HAL_SDRAM_Read_16b(SDRAM_HandleTypeDef *hsdram, uint32_t *pAddress, uint16_t *pDs
 483:Drivers/STM32H7xx_HAL_Driver/Src/stm32h7xx_hal_sdram.c ****                                      uint32_t BufferSize)
 484:Drivers/STM32H7xx_HAL_Driver/Src/stm32h7xx_hal_sdram.c **** {
 485:Drivers/STM32H7xx_HAL_Driver/Src/stm32h7xx_hal_sdram.c ****   uint32_t size;
 486:Drivers/STM32H7xx_HAL_Driver/Src/stm32h7xx_hal_sdram.c ****   __IO uint32_t *pSdramAddress = pAddress;
 487:Drivers/STM32H7xx_HAL_Driver/Src/stm32h7xx_hal_sdram.c ****   uint16_t *pdestbuff = pDstBuffer;
 488:Drivers/STM32H7xx_HAL_Driver/Src/stm32h7xx_hal_sdram.c ****   HAL_SDRAM_StateTypeDef state = hsdram->State;
 489:Drivers/STM32H7xx_HAL_Driver/Src/stm32h7xx_hal_sdram.c **** 
 490:Drivers/STM32H7xx_HAL_Driver/Src/stm32h7xx_hal_sdram.c ****   /* Check the SDRAM controller state */
 491:Drivers/STM32H7xx_HAL_Driver/Src/stm32h7xx_hal_sdram.c ****   if (state == HAL_SDRAM_STATE_BUSY)
 492:Drivers/STM32H7xx_HAL_Driver/Src/stm32h7xx_hal_sdram.c ****   {
 493:Drivers/STM32H7xx_HAL_Driver/Src/stm32h7xx_hal_sdram.c ****     return HAL_BUSY;
 494:Drivers/STM32H7xx_HAL_Driver/Src/stm32h7xx_hal_sdram.c ****   }
 495:Drivers/STM32H7xx_HAL_Driver/Src/stm32h7xx_hal_sdram.c ****   else if ((state == HAL_SDRAM_STATE_READY) || (state == HAL_SDRAM_STATE_WRITE_PROTECTED))
 496:Drivers/STM32H7xx_HAL_Driver/Src/stm32h7xx_hal_sdram.c ****   {
 497:Drivers/STM32H7xx_HAL_Driver/Src/stm32h7xx_hal_sdram.c ****     /* Process Locked */
 498:Drivers/STM32H7xx_HAL_Driver/Src/stm32h7xx_hal_sdram.c ****     __HAL_LOCK(hsdram);
 499:Drivers/STM32H7xx_HAL_Driver/Src/stm32h7xx_hal_sdram.c **** 
 500:Drivers/STM32H7xx_HAL_Driver/Src/stm32h7xx_hal_sdram.c ****     /* Update the SDRAM controller state */
 501:Drivers/STM32H7xx_HAL_Driver/Src/stm32h7xx_hal_sdram.c ****     hsdram->State = HAL_SDRAM_STATE_BUSY;
 502:Drivers/STM32H7xx_HAL_Driver/Src/stm32h7xx_hal_sdram.c **** 
 503:Drivers/STM32H7xx_HAL_Driver/Src/stm32h7xx_hal_sdram.c ****     /* Read data from memory */
 504:Drivers/STM32H7xx_HAL_Driver/Src/stm32h7xx_hal_sdram.c ****     for (size = BufferSize; size >= 2U ; size -= 2U)
 505:Drivers/STM32H7xx_HAL_Driver/Src/stm32h7xx_hal_sdram.c ****     {
 506:Drivers/STM32H7xx_HAL_Driver/Src/stm32h7xx_hal_sdram.c ****       *pdestbuff = (uint16_t)((*pSdramAddress) & 0x0000FFFFU);
 507:Drivers/STM32H7xx_HAL_Driver/Src/stm32h7xx_hal_sdram.c ****       pdestbuff++;
 508:Drivers/STM32H7xx_HAL_Driver/Src/stm32h7xx_hal_sdram.c ****       *pdestbuff = (uint16_t)(((*pSdramAddress) & 0xFFFF0000U) >> 16U);
 509:Drivers/STM32H7xx_HAL_Driver/Src/stm32h7xx_hal_sdram.c ****       pdestbuff++;
 510:Drivers/STM32H7xx_HAL_Driver/Src/stm32h7xx_hal_sdram.c ****       pSdramAddress++;
 511:Drivers/STM32H7xx_HAL_Driver/Src/stm32h7xx_hal_sdram.c ****     }
 512:Drivers/STM32H7xx_HAL_Driver/Src/stm32h7xx_hal_sdram.c **** 
 513:Drivers/STM32H7xx_HAL_Driver/Src/stm32h7xx_hal_sdram.c ****     /* Read last 16-bits if size is not 32-bits multiple */
 514:Drivers/STM32H7xx_HAL_Driver/Src/stm32h7xx_hal_sdram.c ****     if ((BufferSize % 2U) != 0U)
 515:Drivers/STM32H7xx_HAL_Driver/Src/stm32h7xx_hal_sdram.c ****     {
 516:Drivers/STM32H7xx_HAL_Driver/Src/stm32h7xx_hal_sdram.c ****       *pdestbuff = (uint16_t)((*pSdramAddress) & 0x0000FFFFU);
 517:Drivers/STM32H7xx_HAL_Driver/Src/stm32h7xx_hal_sdram.c ****     }
 518:Drivers/STM32H7xx_HAL_Driver/Src/stm32h7xx_hal_sdram.c **** 
 519:Drivers/STM32H7xx_HAL_Driver/Src/stm32h7xx_hal_sdram.c ****     /* Update the SDRAM controller state */
 520:Drivers/STM32H7xx_HAL_Driver/Src/stm32h7xx_hal_sdram.c ****     hsdram->State = state;
 521:Drivers/STM32H7xx_HAL_Driver/Src/stm32h7xx_hal_sdram.c **** 
 522:Drivers/STM32H7xx_HAL_Driver/Src/stm32h7xx_hal_sdram.c ****     /* Process Unlocked */
 523:Drivers/STM32H7xx_HAL_Driver/Src/stm32h7xx_hal_sdram.c ****     __HAL_UNLOCK(hsdram);
 524:Drivers/STM32H7xx_HAL_Driver/Src/stm32h7xx_hal_sdram.c ****   }
 525:Drivers/STM32H7xx_HAL_Driver/Src/stm32h7xx_hal_sdram.c ****   else
 526:Drivers/STM32H7xx_HAL_Driver/Src/stm32h7xx_hal_sdram.c ****   {
ARM GAS  /tmp/ccZHMbbp.s 			page 16


 527:Drivers/STM32H7xx_HAL_Driver/Src/stm32h7xx_hal_sdram.c ****     return  HAL_ERROR;
 528:Drivers/STM32H7xx_HAL_Driver/Src/stm32h7xx_hal_sdram.c ****   }
 529:Drivers/STM32H7xx_HAL_Driver/Src/stm32h7xx_hal_sdram.c **** 
 530:Drivers/STM32H7xx_HAL_Driver/Src/stm32h7xx_hal_sdram.c ****   return HAL_OK;
 531:Drivers/STM32H7xx_HAL_Driver/Src/stm32h7xx_hal_sdram.c **** }
 532:Drivers/STM32H7xx_HAL_Driver/Src/stm32h7xx_hal_sdram.c **** 
 533:Drivers/STM32H7xx_HAL_Driver/Src/stm32h7xx_hal_sdram.c **** /**
 534:Drivers/STM32H7xx_HAL_Driver/Src/stm32h7xx_hal_sdram.c ****   * @brief  Writes 16-bit data buffer to SDRAM memory.
 535:Drivers/STM32H7xx_HAL_Driver/Src/stm32h7xx_hal_sdram.c ****   * @param  hsdram pointer to a SDRAM_HandleTypeDef structure that contains
 536:Drivers/STM32H7xx_HAL_Driver/Src/stm32h7xx_hal_sdram.c ****   *                the configuration information for SDRAM module.
 537:Drivers/STM32H7xx_HAL_Driver/Src/stm32h7xx_hal_sdram.c ****   * @param  pAddress Pointer to write start address
 538:Drivers/STM32H7xx_HAL_Driver/Src/stm32h7xx_hal_sdram.c ****   * @param  pSrcBuffer Pointer to source buffer to write
 539:Drivers/STM32H7xx_HAL_Driver/Src/stm32h7xx_hal_sdram.c ****   * @param  BufferSize Size of the buffer to write to memory
 540:Drivers/STM32H7xx_HAL_Driver/Src/stm32h7xx_hal_sdram.c ****   * @retval HAL status
 541:Drivers/STM32H7xx_HAL_Driver/Src/stm32h7xx_hal_sdram.c ****   */
 542:Drivers/STM32H7xx_HAL_Driver/Src/stm32h7xx_hal_sdram.c **** HAL_StatusTypeDef HAL_SDRAM_Write_16b(SDRAM_HandleTypeDef *hsdram, uint32_t *pAddress, uint16_t *pS
 543:Drivers/STM32H7xx_HAL_Driver/Src/stm32h7xx_hal_sdram.c ****                                       uint32_t BufferSize)
 544:Drivers/STM32H7xx_HAL_Driver/Src/stm32h7xx_hal_sdram.c **** {
 545:Drivers/STM32H7xx_HAL_Driver/Src/stm32h7xx_hal_sdram.c ****   uint32_t size;
 546:Drivers/STM32H7xx_HAL_Driver/Src/stm32h7xx_hal_sdram.c ****   __IO uint32_t *psdramaddress = pAddress;
 547:Drivers/STM32H7xx_HAL_Driver/Src/stm32h7xx_hal_sdram.c ****   uint16_t *psrcbuff = pSrcBuffer;
 548:Drivers/STM32H7xx_HAL_Driver/Src/stm32h7xx_hal_sdram.c **** 
 549:Drivers/STM32H7xx_HAL_Driver/Src/stm32h7xx_hal_sdram.c ****   /* Check the SDRAM controller state */
 550:Drivers/STM32H7xx_HAL_Driver/Src/stm32h7xx_hal_sdram.c ****   if (hsdram->State == HAL_SDRAM_STATE_BUSY)
 551:Drivers/STM32H7xx_HAL_Driver/Src/stm32h7xx_hal_sdram.c ****   {
 552:Drivers/STM32H7xx_HAL_Driver/Src/stm32h7xx_hal_sdram.c ****     return HAL_BUSY;
 553:Drivers/STM32H7xx_HAL_Driver/Src/stm32h7xx_hal_sdram.c ****   }
 554:Drivers/STM32H7xx_HAL_Driver/Src/stm32h7xx_hal_sdram.c ****   else if (hsdram->State == HAL_SDRAM_STATE_READY)
 555:Drivers/STM32H7xx_HAL_Driver/Src/stm32h7xx_hal_sdram.c ****   {
 556:Drivers/STM32H7xx_HAL_Driver/Src/stm32h7xx_hal_sdram.c ****     /* Process Locked */
 557:Drivers/STM32H7xx_HAL_Driver/Src/stm32h7xx_hal_sdram.c ****     __HAL_LOCK(hsdram);
 558:Drivers/STM32H7xx_HAL_Driver/Src/stm32h7xx_hal_sdram.c **** 
 559:Drivers/STM32H7xx_HAL_Driver/Src/stm32h7xx_hal_sdram.c ****     /* Update the SDRAM controller state */
 560:Drivers/STM32H7xx_HAL_Driver/Src/stm32h7xx_hal_sdram.c ****     hsdram->State = HAL_SDRAM_STATE_BUSY;
 561:Drivers/STM32H7xx_HAL_Driver/Src/stm32h7xx_hal_sdram.c **** 
 562:Drivers/STM32H7xx_HAL_Driver/Src/stm32h7xx_hal_sdram.c ****     /* Write data to memory */
 563:Drivers/STM32H7xx_HAL_Driver/Src/stm32h7xx_hal_sdram.c ****     for (size = BufferSize; size >= 2U ; size -= 2U)
 564:Drivers/STM32H7xx_HAL_Driver/Src/stm32h7xx_hal_sdram.c ****     {
 565:Drivers/STM32H7xx_HAL_Driver/Src/stm32h7xx_hal_sdram.c ****       *psdramaddress = (uint32_t)(*psrcbuff);
 566:Drivers/STM32H7xx_HAL_Driver/Src/stm32h7xx_hal_sdram.c ****       psrcbuff++;
 567:Drivers/STM32H7xx_HAL_Driver/Src/stm32h7xx_hal_sdram.c ****       *psdramaddress |= ((uint32_t)(*psrcbuff) << 16U);
 568:Drivers/STM32H7xx_HAL_Driver/Src/stm32h7xx_hal_sdram.c ****       psrcbuff++;
 569:Drivers/STM32H7xx_HAL_Driver/Src/stm32h7xx_hal_sdram.c ****       psdramaddress++;
 570:Drivers/STM32H7xx_HAL_Driver/Src/stm32h7xx_hal_sdram.c ****     }
 571:Drivers/STM32H7xx_HAL_Driver/Src/stm32h7xx_hal_sdram.c **** 
 572:Drivers/STM32H7xx_HAL_Driver/Src/stm32h7xx_hal_sdram.c ****     /* Write last 16-bits if size is not 32-bits multiple */
 573:Drivers/STM32H7xx_HAL_Driver/Src/stm32h7xx_hal_sdram.c ****     if ((BufferSize % 2U) != 0U)
 574:Drivers/STM32H7xx_HAL_Driver/Src/stm32h7xx_hal_sdram.c ****     {
 575:Drivers/STM32H7xx_HAL_Driver/Src/stm32h7xx_hal_sdram.c ****       *psdramaddress = ((uint32_t)(*psrcbuff) & 0x0000FFFFU) | ((*psdramaddress) & 0xFFFF0000U);
 576:Drivers/STM32H7xx_HAL_Driver/Src/stm32h7xx_hal_sdram.c ****     }
 577:Drivers/STM32H7xx_HAL_Driver/Src/stm32h7xx_hal_sdram.c **** 
 578:Drivers/STM32H7xx_HAL_Driver/Src/stm32h7xx_hal_sdram.c ****     /* Update the SDRAM controller state */
 579:Drivers/STM32H7xx_HAL_Driver/Src/stm32h7xx_hal_sdram.c ****     hsdram->State = HAL_SDRAM_STATE_READY;
 580:Drivers/STM32H7xx_HAL_Driver/Src/stm32h7xx_hal_sdram.c **** 
 581:Drivers/STM32H7xx_HAL_Driver/Src/stm32h7xx_hal_sdram.c ****     /* Process Unlocked */
 582:Drivers/STM32H7xx_HAL_Driver/Src/stm32h7xx_hal_sdram.c ****     __HAL_UNLOCK(hsdram);
 583:Drivers/STM32H7xx_HAL_Driver/Src/stm32h7xx_hal_sdram.c ****   }
ARM GAS  /tmp/ccZHMbbp.s 			page 17


 584:Drivers/STM32H7xx_HAL_Driver/Src/stm32h7xx_hal_sdram.c ****   else
 585:Drivers/STM32H7xx_HAL_Driver/Src/stm32h7xx_hal_sdram.c ****   {
 586:Drivers/STM32H7xx_HAL_Driver/Src/stm32h7xx_hal_sdram.c ****     return  HAL_ERROR;
 587:Drivers/STM32H7xx_HAL_Driver/Src/stm32h7xx_hal_sdram.c ****   }
 588:Drivers/STM32H7xx_HAL_Driver/Src/stm32h7xx_hal_sdram.c **** 
 589:Drivers/STM32H7xx_HAL_Driver/Src/stm32h7xx_hal_sdram.c ****   return HAL_OK;
 590:Drivers/STM32H7xx_HAL_Driver/Src/stm32h7xx_hal_sdram.c **** }
 591:Drivers/STM32H7xx_HAL_Driver/Src/stm32h7xx_hal_sdram.c **** 
 592:Drivers/STM32H7xx_HAL_Driver/Src/stm32h7xx_hal_sdram.c **** /**
 593:Drivers/STM32H7xx_HAL_Driver/Src/stm32h7xx_hal_sdram.c ****   * @brief  Reads 32-bit data buffer from the SDRAM memory.
 594:Drivers/STM32H7xx_HAL_Driver/Src/stm32h7xx_hal_sdram.c ****   * @param  hsdram pointer to a SDRAM_HandleTypeDef structure that contains
 595:Drivers/STM32H7xx_HAL_Driver/Src/stm32h7xx_hal_sdram.c ****   *                the configuration information for SDRAM module.
 596:Drivers/STM32H7xx_HAL_Driver/Src/stm32h7xx_hal_sdram.c ****   * @param  pAddress Pointer to read start address
 597:Drivers/STM32H7xx_HAL_Driver/Src/stm32h7xx_hal_sdram.c ****   * @param  pDstBuffer Pointer to destination buffer
 598:Drivers/STM32H7xx_HAL_Driver/Src/stm32h7xx_hal_sdram.c ****   * @param  BufferSize Size of the buffer to read from memory
 599:Drivers/STM32H7xx_HAL_Driver/Src/stm32h7xx_hal_sdram.c ****   * @retval HAL status
 600:Drivers/STM32H7xx_HAL_Driver/Src/stm32h7xx_hal_sdram.c ****   */
 601:Drivers/STM32H7xx_HAL_Driver/Src/stm32h7xx_hal_sdram.c **** HAL_StatusTypeDef HAL_SDRAM_Read_32b(SDRAM_HandleTypeDef *hsdram, uint32_t *pAddress, uint32_t *pDs
 602:Drivers/STM32H7xx_HAL_Driver/Src/stm32h7xx_hal_sdram.c ****                                      uint32_t BufferSize)
 603:Drivers/STM32H7xx_HAL_Driver/Src/stm32h7xx_hal_sdram.c **** {
 604:Drivers/STM32H7xx_HAL_Driver/Src/stm32h7xx_hal_sdram.c ****   uint32_t size;
 605:Drivers/STM32H7xx_HAL_Driver/Src/stm32h7xx_hal_sdram.c ****   __IO uint32_t *pSdramAddress = (uint32_t *)pAddress;
 606:Drivers/STM32H7xx_HAL_Driver/Src/stm32h7xx_hal_sdram.c ****   uint32_t *pdestbuff = pDstBuffer;
 607:Drivers/STM32H7xx_HAL_Driver/Src/stm32h7xx_hal_sdram.c ****   HAL_SDRAM_StateTypeDef state = hsdram->State;
 608:Drivers/STM32H7xx_HAL_Driver/Src/stm32h7xx_hal_sdram.c **** 
 609:Drivers/STM32H7xx_HAL_Driver/Src/stm32h7xx_hal_sdram.c ****   /* Check the SDRAM controller state */
 610:Drivers/STM32H7xx_HAL_Driver/Src/stm32h7xx_hal_sdram.c ****   if (state == HAL_SDRAM_STATE_BUSY)
 611:Drivers/STM32H7xx_HAL_Driver/Src/stm32h7xx_hal_sdram.c ****   {
 612:Drivers/STM32H7xx_HAL_Driver/Src/stm32h7xx_hal_sdram.c ****     return HAL_BUSY;
 613:Drivers/STM32H7xx_HAL_Driver/Src/stm32h7xx_hal_sdram.c ****   }
 614:Drivers/STM32H7xx_HAL_Driver/Src/stm32h7xx_hal_sdram.c ****   else if ((state == HAL_SDRAM_STATE_READY) || (state == HAL_SDRAM_STATE_WRITE_PROTECTED))
 615:Drivers/STM32H7xx_HAL_Driver/Src/stm32h7xx_hal_sdram.c ****   {
 616:Drivers/STM32H7xx_HAL_Driver/Src/stm32h7xx_hal_sdram.c ****     /* Process Locked */
 617:Drivers/STM32H7xx_HAL_Driver/Src/stm32h7xx_hal_sdram.c ****     __HAL_LOCK(hsdram);
 618:Drivers/STM32H7xx_HAL_Driver/Src/stm32h7xx_hal_sdram.c **** 
 619:Drivers/STM32H7xx_HAL_Driver/Src/stm32h7xx_hal_sdram.c ****     /* Update the SDRAM controller state */
 620:Drivers/STM32H7xx_HAL_Driver/Src/stm32h7xx_hal_sdram.c ****     hsdram->State = HAL_SDRAM_STATE_BUSY;
 621:Drivers/STM32H7xx_HAL_Driver/Src/stm32h7xx_hal_sdram.c **** 
 622:Drivers/STM32H7xx_HAL_Driver/Src/stm32h7xx_hal_sdram.c ****     /* Read data from source */
 623:Drivers/STM32H7xx_HAL_Driver/Src/stm32h7xx_hal_sdram.c ****     for (size = BufferSize; size != 0U; size--)
 624:Drivers/STM32H7xx_HAL_Driver/Src/stm32h7xx_hal_sdram.c ****     {
 625:Drivers/STM32H7xx_HAL_Driver/Src/stm32h7xx_hal_sdram.c ****       *pdestbuff = *(__IO uint32_t *)pSdramAddress;
 626:Drivers/STM32H7xx_HAL_Driver/Src/stm32h7xx_hal_sdram.c ****       pdestbuff++;
 627:Drivers/STM32H7xx_HAL_Driver/Src/stm32h7xx_hal_sdram.c ****       pSdramAddress++;
 628:Drivers/STM32H7xx_HAL_Driver/Src/stm32h7xx_hal_sdram.c ****     }
 629:Drivers/STM32H7xx_HAL_Driver/Src/stm32h7xx_hal_sdram.c **** 
 630:Drivers/STM32H7xx_HAL_Driver/Src/stm32h7xx_hal_sdram.c ****     /* Update the SDRAM controller state */
 631:Drivers/STM32H7xx_HAL_Driver/Src/stm32h7xx_hal_sdram.c ****     hsdram->State = state;
 632:Drivers/STM32H7xx_HAL_Driver/Src/stm32h7xx_hal_sdram.c **** 
 633:Drivers/STM32H7xx_HAL_Driver/Src/stm32h7xx_hal_sdram.c ****     /* Process Unlocked */
 634:Drivers/STM32H7xx_HAL_Driver/Src/stm32h7xx_hal_sdram.c ****     __HAL_UNLOCK(hsdram);
 635:Drivers/STM32H7xx_HAL_Driver/Src/stm32h7xx_hal_sdram.c ****   }
 636:Drivers/STM32H7xx_HAL_Driver/Src/stm32h7xx_hal_sdram.c ****   else
 637:Drivers/STM32H7xx_HAL_Driver/Src/stm32h7xx_hal_sdram.c ****   {
 638:Drivers/STM32H7xx_HAL_Driver/Src/stm32h7xx_hal_sdram.c ****     return  HAL_ERROR;
 639:Drivers/STM32H7xx_HAL_Driver/Src/stm32h7xx_hal_sdram.c ****   }
 640:Drivers/STM32H7xx_HAL_Driver/Src/stm32h7xx_hal_sdram.c **** 
ARM GAS  /tmp/ccZHMbbp.s 			page 18


 641:Drivers/STM32H7xx_HAL_Driver/Src/stm32h7xx_hal_sdram.c ****   return HAL_OK;
 642:Drivers/STM32H7xx_HAL_Driver/Src/stm32h7xx_hal_sdram.c **** }
 643:Drivers/STM32H7xx_HAL_Driver/Src/stm32h7xx_hal_sdram.c **** 
 644:Drivers/STM32H7xx_HAL_Driver/Src/stm32h7xx_hal_sdram.c **** /**
 645:Drivers/STM32H7xx_HAL_Driver/Src/stm32h7xx_hal_sdram.c ****   * @brief  Writes 32-bit data buffer to SDRAM memory.
 646:Drivers/STM32H7xx_HAL_Driver/Src/stm32h7xx_hal_sdram.c ****   * @param  hsdram pointer to a SDRAM_HandleTypeDef structure that contains
 647:Drivers/STM32H7xx_HAL_Driver/Src/stm32h7xx_hal_sdram.c ****   *                the configuration information for SDRAM module.
 648:Drivers/STM32H7xx_HAL_Driver/Src/stm32h7xx_hal_sdram.c ****   * @param  pAddress Pointer to write start address
 649:Drivers/STM32H7xx_HAL_Driver/Src/stm32h7xx_hal_sdram.c ****   * @param  pSrcBuffer Pointer to source buffer to write
 650:Drivers/STM32H7xx_HAL_Driver/Src/stm32h7xx_hal_sdram.c ****   * @param  BufferSize Size of the buffer to write to memory
 651:Drivers/STM32H7xx_HAL_Driver/Src/stm32h7xx_hal_sdram.c ****   * @retval HAL status
 652:Drivers/STM32H7xx_HAL_Driver/Src/stm32h7xx_hal_sdram.c ****   */
 653:Drivers/STM32H7xx_HAL_Driver/Src/stm32h7xx_hal_sdram.c **** HAL_StatusTypeDef HAL_SDRAM_Write_32b(SDRAM_HandleTypeDef *hsdram, uint32_t *pAddress, uint32_t *pS
 654:Drivers/STM32H7xx_HAL_Driver/Src/stm32h7xx_hal_sdram.c ****                                       uint32_t BufferSize)
 655:Drivers/STM32H7xx_HAL_Driver/Src/stm32h7xx_hal_sdram.c **** {
 656:Drivers/STM32H7xx_HAL_Driver/Src/stm32h7xx_hal_sdram.c ****   uint32_t size;
 657:Drivers/STM32H7xx_HAL_Driver/Src/stm32h7xx_hal_sdram.c ****   __IO uint32_t *pSdramAddress = pAddress;
 658:Drivers/STM32H7xx_HAL_Driver/Src/stm32h7xx_hal_sdram.c ****   uint32_t *psrcbuff = pSrcBuffer;
 659:Drivers/STM32H7xx_HAL_Driver/Src/stm32h7xx_hal_sdram.c **** 
 660:Drivers/STM32H7xx_HAL_Driver/Src/stm32h7xx_hal_sdram.c ****   /* Check the SDRAM controller state */
 661:Drivers/STM32H7xx_HAL_Driver/Src/stm32h7xx_hal_sdram.c ****   if (hsdram->State == HAL_SDRAM_STATE_BUSY)
 662:Drivers/STM32H7xx_HAL_Driver/Src/stm32h7xx_hal_sdram.c ****   {
 663:Drivers/STM32H7xx_HAL_Driver/Src/stm32h7xx_hal_sdram.c ****     return HAL_BUSY;
 664:Drivers/STM32H7xx_HAL_Driver/Src/stm32h7xx_hal_sdram.c ****   }
 665:Drivers/STM32H7xx_HAL_Driver/Src/stm32h7xx_hal_sdram.c ****   else if (hsdram->State == HAL_SDRAM_STATE_READY)
 666:Drivers/STM32H7xx_HAL_Driver/Src/stm32h7xx_hal_sdram.c ****   {
 667:Drivers/STM32H7xx_HAL_Driver/Src/stm32h7xx_hal_sdram.c ****     /* Process Locked */
 668:Drivers/STM32H7xx_HAL_Driver/Src/stm32h7xx_hal_sdram.c ****     __HAL_LOCK(hsdram);
 669:Drivers/STM32H7xx_HAL_Driver/Src/stm32h7xx_hal_sdram.c **** 
 670:Drivers/STM32H7xx_HAL_Driver/Src/stm32h7xx_hal_sdram.c ****     /* Update the SDRAM controller state */
 671:Drivers/STM32H7xx_HAL_Driver/Src/stm32h7xx_hal_sdram.c ****     hsdram->State = HAL_SDRAM_STATE_BUSY;
 672:Drivers/STM32H7xx_HAL_Driver/Src/stm32h7xx_hal_sdram.c **** 
 673:Drivers/STM32H7xx_HAL_Driver/Src/stm32h7xx_hal_sdram.c ****     /* Write data to memory */
 674:Drivers/STM32H7xx_HAL_Driver/Src/stm32h7xx_hal_sdram.c ****     for (size = BufferSize; size != 0U; size--)
 675:Drivers/STM32H7xx_HAL_Driver/Src/stm32h7xx_hal_sdram.c ****     {
 676:Drivers/STM32H7xx_HAL_Driver/Src/stm32h7xx_hal_sdram.c ****       *pSdramAddress = *psrcbuff;
 677:Drivers/STM32H7xx_HAL_Driver/Src/stm32h7xx_hal_sdram.c ****       psrcbuff++;
 678:Drivers/STM32H7xx_HAL_Driver/Src/stm32h7xx_hal_sdram.c ****       pSdramAddress++;
 679:Drivers/STM32H7xx_HAL_Driver/Src/stm32h7xx_hal_sdram.c ****     }
 680:Drivers/STM32H7xx_HAL_Driver/Src/stm32h7xx_hal_sdram.c **** 
 681:Drivers/STM32H7xx_HAL_Driver/Src/stm32h7xx_hal_sdram.c ****     /* Update the SDRAM controller state */
 682:Drivers/STM32H7xx_HAL_Driver/Src/stm32h7xx_hal_sdram.c ****     hsdram->State = HAL_SDRAM_STATE_READY;
 683:Drivers/STM32H7xx_HAL_Driver/Src/stm32h7xx_hal_sdram.c **** 
 684:Drivers/STM32H7xx_HAL_Driver/Src/stm32h7xx_hal_sdram.c ****     /* Process Unlocked */
 685:Drivers/STM32H7xx_HAL_Driver/Src/stm32h7xx_hal_sdram.c ****     __HAL_UNLOCK(hsdram);
 686:Drivers/STM32H7xx_HAL_Driver/Src/stm32h7xx_hal_sdram.c ****   }
 687:Drivers/STM32H7xx_HAL_Driver/Src/stm32h7xx_hal_sdram.c ****   else
 688:Drivers/STM32H7xx_HAL_Driver/Src/stm32h7xx_hal_sdram.c ****   {
 689:Drivers/STM32H7xx_HAL_Driver/Src/stm32h7xx_hal_sdram.c ****     return  HAL_ERROR;
 690:Drivers/STM32H7xx_HAL_Driver/Src/stm32h7xx_hal_sdram.c ****   }
 691:Drivers/STM32H7xx_HAL_Driver/Src/stm32h7xx_hal_sdram.c **** 
 692:Drivers/STM32H7xx_HAL_Driver/Src/stm32h7xx_hal_sdram.c ****   return HAL_OK;
 693:Drivers/STM32H7xx_HAL_Driver/Src/stm32h7xx_hal_sdram.c **** }
 694:Drivers/STM32H7xx_HAL_Driver/Src/stm32h7xx_hal_sdram.c **** 
 695:Drivers/STM32H7xx_HAL_Driver/Src/stm32h7xx_hal_sdram.c **** /**
 696:Drivers/STM32H7xx_HAL_Driver/Src/stm32h7xx_hal_sdram.c ****   * @brief  Reads a Words data from the SDRAM memory using DMA transfer.
 697:Drivers/STM32H7xx_HAL_Driver/Src/stm32h7xx_hal_sdram.c ****   * @param  hsdram pointer to a SDRAM_HandleTypeDef structure that contains
ARM GAS  /tmp/ccZHMbbp.s 			page 19


 698:Drivers/STM32H7xx_HAL_Driver/Src/stm32h7xx_hal_sdram.c ****   *                the configuration information for SDRAM module.
 699:Drivers/STM32H7xx_HAL_Driver/Src/stm32h7xx_hal_sdram.c ****   * @param  pAddress Pointer to read start address
 700:Drivers/STM32H7xx_HAL_Driver/Src/stm32h7xx_hal_sdram.c ****   * @param  pDstBuffer Pointer to destination buffer
 701:Drivers/STM32H7xx_HAL_Driver/Src/stm32h7xx_hal_sdram.c ****   * @param  BufferSize Size of the buffer to read from memory
 702:Drivers/STM32H7xx_HAL_Driver/Src/stm32h7xx_hal_sdram.c ****   * @retval HAL status
 703:Drivers/STM32H7xx_HAL_Driver/Src/stm32h7xx_hal_sdram.c ****   */
 704:Drivers/STM32H7xx_HAL_Driver/Src/stm32h7xx_hal_sdram.c **** HAL_StatusTypeDef HAL_SDRAM_Read_DMA(SDRAM_HandleTypeDef *hsdram, uint32_t *pAddress, uint32_t *pDs
 705:Drivers/STM32H7xx_HAL_Driver/Src/stm32h7xx_hal_sdram.c ****                                      uint32_t BufferSize)
 706:Drivers/STM32H7xx_HAL_Driver/Src/stm32h7xx_hal_sdram.c **** {
 707:Drivers/STM32H7xx_HAL_Driver/Src/stm32h7xx_hal_sdram.c ****   HAL_StatusTypeDef status;
 708:Drivers/STM32H7xx_HAL_Driver/Src/stm32h7xx_hal_sdram.c ****   HAL_SDRAM_StateTypeDef state = hsdram->State;
 709:Drivers/STM32H7xx_HAL_Driver/Src/stm32h7xx_hal_sdram.c **** 
 710:Drivers/STM32H7xx_HAL_Driver/Src/stm32h7xx_hal_sdram.c ****   /* Check the SDRAM controller state */
 711:Drivers/STM32H7xx_HAL_Driver/Src/stm32h7xx_hal_sdram.c ****   if (state == HAL_SDRAM_STATE_BUSY)
 712:Drivers/STM32H7xx_HAL_Driver/Src/stm32h7xx_hal_sdram.c ****   {
 713:Drivers/STM32H7xx_HAL_Driver/Src/stm32h7xx_hal_sdram.c ****     status = HAL_BUSY;
 714:Drivers/STM32H7xx_HAL_Driver/Src/stm32h7xx_hal_sdram.c ****   }
 715:Drivers/STM32H7xx_HAL_Driver/Src/stm32h7xx_hal_sdram.c ****   else if ((state == HAL_SDRAM_STATE_READY) || (state == HAL_SDRAM_STATE_WRITE_PROTECTED))
 716:Drivers/STM32H7xx_HAL_Driver/Src/stm32h7xx_hal_sdram.c ****   {
 717:Drivers/STM32H7xx_HAL_Driver/Src/stm32h7xx_hal_sdram.c ****     /* Process Locked */
 718:Drivers/STM32H7xx_HAL_Driver/Src/stm32h7xx_hal_sdram.c ****     __HAL_LOCK(hsdram);
 719:Drivers/STM32H7xx_HAL_Driver/Src/stm32h7xx_hal_sdram.c **** 
 720:Drivers/STM32H7xx_HAL_Driver/Src/stm32h7xx_hal_sdram.c ****     /* Update the SDRAM controller state */
 721:Drivers/STM32H7xx_HAL_Driver/Src/stm32h7xx_hal_sdram.c ****     hsdram->State = HAL_SDRAM_STATE_BUSY;
 722:Drivers/STM32H7xx_HAL_Driver/Src/stm32h7xx_hal_sdram.c **** 
 723:Drivers/STM32H7xx_HAL_Driver/Src/stm32h7xx_hal_sdram.c ****     /* Configure DMA user callbacks */
 724:Drivers/STM32H7xx_HAL_Driver/Src/stm32h7xx_hal_sdram.c ****     if (state == HAL_SDRAM_STATE_READY)
 725:Drivers/STM32H7xx_HAL_Driver/Src/stm32h7xx_hal_sdram.c ****     {
 726:Drivers/STM32H7xx_HAL_Driver/Src/stm32h7xx_hal_sdram.c ****       hsdram->hmdma->XferCpltCallback = SDRAM_DMACplt;
 727:Drivers/STM32H7xx_HAL_Driver/Src/stm32h7xx_hal_sdram.c ****     }
 728:Drivers/STM32H7xx_HAL_Driver/Src/stm32h7xx_hal_sdram.c ****     else
 729:Drivers/STM32H7xx_HAL_Driver/Src/stm32h7xx_hal_sdram.c ****     {
 730:Drivers/STM32H7xx_HAL_Driver/Src/stm32h7xx_hal_sdram.c ****       hsdram->hmdma->XferCpltCallback = SDRAM_DMACpltProt;
 731:Drivers/STM32H7xx_HAL_Driver/Src/stm32h7xx_hal_sdram.c ****     }
 732:Drivers/STM32H7xx_HAL_Driver/Src/stm32h7xx_hal_sdram.c ****     hsdram->hmdma->XferErrorCallback = SDRAM_DMAError;
 733:Drivers/STM32H7xx_HAL_Driver/Src/stm32h7xx_hal_sdram.c **** 
 734:Drivers/STM32H7xx_HAL_Driver/Src/stm32h7xx_hal_sdram.c ****     /* Enable the DMA Stream */
 735:Drivers/STM32H7xx_HAL_Driver/Src/stm32h7xx_hal_sdram.c ****     status = HAL_MDMA_Start_IT(hsdram->hmdma, (uint32_t)pAddress, (uint32_t)pDstBuffer, (uint32_t)(
 736:Drivers/STM32H7xx_HAL_Driver/Src/stm32h7xx_hal_sdram.c **** 
 737:Drivers/STM32H7xx_HAL_Driver/Src/stm32h7xx_hal_sdram.c ****     /* Process Unlocked */
 738:Drivers/STM32H7xx_HAL_Driver/Src/stm32h7xx_hal_sdram.c ****     __HAL_UNLOCK(hsdram);
 739:Drivers/STM32H7xx_HAL_Driver/Src/stm32h7xx_hal_sdram.c ****   }
 740:Drivers/STM32H7xx_HAL_Driver/Src/stm32h7xx_hal_sdram.c ****   else
 741:Drivers/STM32H7xx_HAL_Driver/Src/stm32h7xx_hal_sdram.c ****   {
 742:Drivers/STM32H7xx_HAL_Driver/Src/stm32h7xx_hal_sdram.c ****     status = HAL_ERROR;
 743:Drivers/STM32H7xx_HAL_Driver/Src/stm32h7xx_hal_sdram.c ****   }
 744:Drivers/STM32H7xx_HAL_Driver/Src/stm32h7xx_hal_sdram.c **** 
 745:Drivers/STM32H7xx_HAL_Driver/Src/stm32h7xx_hal_sdram.c ****   return status;
 746:Drivers/STM32H7xx_HAL_Driver/Src/stm32h7xx_hal_sdram.c **** }
 747:Drivers/STM32H7xx_HAL_Driver/Src/stm32h7xx_hal_sdram.c **** 
 748:Drivers/STM32H7xx_HAL_Driver/Src/stm32h7xx_hal_sdram.c **** /**
 749:Drivers/STM32H7xx_HAL_Driver/Src/stm32h7xx_hal_sdram.c ****   * @brief  Writes a Words data buffer to SDRAM memory using DMA transfer.
 750:Drivers/STM32H7xx_HAL_Driver/Src/stm32h7xx_hal_sdram.c ****   * @param  hsdram pointer to a SDRAM_HandleTypeDef structure that contains
 751:Drivers/STM32H7xx_HAL_Driver/Src/stm32h7xx_hal_sdram.c ****   *                the configuration information for SDRAM module.
 752:Drivers/STM32H7xx_HAL_Driver/Src/stm32h7xx_hal_sdram.c ****   * @param  pAddress Pointer to write start address
 753:Drivers/STM32H7xx_HAL_Driver/Src/stm32h7xx_hal_sdram.c ****   * @param  pSrcBuffer Pointer to source buffer to write
 754:Drivers/STM32H7xx_HAL_Driver/Src/stm32h7xx_hal_sdram.c ****   * @param  BufferSize Size of the buffer to write to memory
ARM GAS  /tmp/ccZHMbbp.s 			page 20


 755:Drivers/STM32H7xx_HAL_Driver/Src/stm32h7xx_hal_sdram.c ****   * @retval HAL status
 756:Drivers/STM32H7xx_HAL_Driver/Src/stm32h7xx_hal_sdram.c ****   */
 757:Drivers/STM32H7xx_HAL_Driver/Src/stm32h7xx_hal_sdram.c **** HAL_StatusTypeDef HAL_SDRAM_Write_DMA(SDRAM_HandleTypeDef *hsdram, uint32_t *pAddress, uint32_t *pS
 758:Drivers/STM32H7xx_HAL_Driver/Src/stm32h7xx_hal_sdram.c ****                                       uint32_t BufferSize)
 759:Drivers/STM32H7xx_HAL_Driver/Src/stm32h7xx_hal_sdram.c **** {
 760:Drivers/STM32H7xx_HAL_Driver/Src/stm32h7xx_hal_sdram.c ****   HAL_StatusTypeDef status;
 761:Drivers/STM32H7xx_HAL_Driver/Src/stm32h7xx_hal_sdram.c **** 
 762:Drivers/STM32H7xx_HAL_Driver/Src/stm32h7xx_hal_sdram.c ****   /* Check the SDRAM controller state */
 763:Drivers/STM32H7xx_HAL_Driver/Src/stm32h7xx_hal_sdram.c ****   if (hsdram->State == HAL_SDRAM_STATE_BUSY)
 764:Drivers/STM32H7xx_HAL_Driver/Src/stm32h7xx_hal_sdram.c ****   {
 765:Drivers/STM32H7xx_HAL_Driver/Src/stm32h7xx_hal_sdram.c ****     status = HAL_BUSY;
 766:Drivers/STM32H7xx_HAL_Driver/Src/stm32h7xx_hal_sdram.c ****   }
 767:Drivers/STM32H7xx_HAL_Driver/Src/stm32h7xx_hal_sdram.c ****   else if (hsdram->State == HAL_SDRAM_STATE_READY)
 768:Drivers/STM32H7xx_HAL_Driver/Src/stm32h7xx_hal_sdram.c ****   {
 769:Drivers/STM32H7xx_HAL_Driver/Src/stm32h7xx_hal_sdram.c ****     /* Process Locked */
 770:Drivers/STM32H7xx_HAL_Driver/Src/stm32h7xx_hal_sdram.c ****     __HAL_LOCK(hsdram);
 771:Drivers/STM32H7xx_HAL_Driver/Src/stm32h7xx_hal_sdram.c **** 
 772:Drivers/STM32H7xx_HAL_Driver/Src/stm32h7xx_hal_sdram.c ****     /* Update the SDRAM controller state */
 773:Drivers/STM32H7xx_HAL_Driver/Src/stm32h7xx_hal_sdram.c ****     hsdram->State = HAL_SDRAM_STATE_BUSY;
 774:Drivers/STM32H7xx_HAL_Driver/Src/stm32h7xx_hal_sdram.c **** 
 775:Drivers/STM32H7xx_HAL_Driver/Src/stm32h7xx_hal_sdram.c ****     /* Configure DMA user callbacks */
 776:Drivers/STM32H7xx_HAL_Driver/Src/stm32h7xx_hal_sdram.c ****     hsdram->hmdma->XferCpltCallback = SDRAM_DMACplt;
 777:Drivers/STM32H7xx_HAL_Driver/Src/stm32h7xx_hal_sdram.c ****     hsdram->hmdma->XferErrorCallback = SDRAM_DMAError;
 778:Drivers/STM32H7xx_HAL_Driver/Src/stm32h7xx_hal_sdram.c **** 
 779:Drivers/STM32H7xx_HAL_Driver/Src/stm32h7xx_hal_sdram.c ****     /* Enable the DMA Stream */
 780:Drivers/STM32H7xx_HAL_Driver/Src/stm32h7xx_hal_sdram.c ****     status = HAL_MDMA_Start_IT(hsdram->hmdma, (uint32_t)pSrcBuffer, (uint32_t)pAddress, (uint32_t)(
 781:Drivers/STM32H7xx_HAL_Driver/Src/stm32h7xx_hal_sdram.c **** 
 782:Drivers/STM32H7xx_HAL_Driver/Src/stm32h7xx_hal_sdram.c ****     /* Process Unlocked */
 783:Drivers/STM32H7xx_HAL_Driver/Src/stm32h7xx_hal_sdram.c ****     __HAL_UNLOCK(hsdram);
 784:Drivers/STM32H7xx_HAL_Driver/Src/stm32h7xx_hal_sdram.c ****   }
 785:Drivers/STM32H7xx_HAL_Driver/Src/stm32h7xx_hal_sdram.c ****   else
 786:Drivers/STM32H7xx_HAL_Driver/Src/stm32h7xx_hal_sdram.c ****   {
 787:Drivers/STM32H7xx_HAL_Driver/Src/stm32h7xx_hal_sdram.c ****     status = HAL_ERROR;
 788:Drivers/STM32H7xx_HAL_Driver/Src/stm32h7xx_hal_sdram.c ****   }
 789:Drivers/STM32H7xx_HAL_Driver/Src/stm32h7xx_hal_sdram.c **** 
 790:Drivers/STM32H7xx_HAL_Driver/Src/stm32h7xx_hal_sdram.c ****   return status;
 791:Drivers/STM32H7xx_HAL_Driver/Src/stm32h7xx_hal_sdram.c **** }
 792:Drivers/STM32H7xx_HAL_Driver/Src/stm32h7xx_hal_sdram.c **** 
 793:Drivers/STM32H7xx_HAL_Driver/Src/stm32h7xx_hal_sdram.c **** #if (USE_HAL_SDRAM_REGISTER_CALLBACKS == 1)
 794:Drivers/STM32H7xx_HAL_Driver/Src/stm32h7xx_hal_sdram.c **** /**
 795:Drivers/STM32H7xx_HAL_Driver/Src/stm32h7xx_hal_sdram.c ****   * @brief  Register a User SDRAM Callback
 796:Drivers/STM32H7xx_HAL_Driver/Src/stm32h7xx_hal_sdram.c ****   *         To be used to override the weak predefined callback
 797:Drivers/STM32H7xx_HAL_Driver/Src/stm32h7xx_hal_sdram.c ****   * @param hsdram : SDRAM handle
 798:Drivers/STM32H7xx_HAL_Driver/Src/stm32h7xx_hal_sdram.c ****   * @param CallbackId : ID of the callback to be registered
 799:Drivers/STM32H7xx_HAL_Driver/Src/stm32h7xx_hal_sdram.c ****   *        This parameter can be one of the following values:
 800:Drivers/STM32H7xx_HAL_Driver/Src/stm32h7xx_hal_sdram.c ****   *          @arg @ref HAL_SDRAM_MSP_INIT_CB_ID       SDRAM MspInit callback ID
 801:Drivers/STM32H7xx_HAL_Driver/Src/stm32h7xx_hal_sdram.c ****   *          @arg @ref HAL_SDRAM_MSP_DEINIT_CB_ID     SDRAM MspDeInit callback ID
 802:Drivers/STM32H7xx_HAL_Driver/Src/stm32h7xx_hal_sdram.c ****   *          @arg @ref HAL_SDRAM_REFRESH_ERR_CB_ID    SDRAM Refresh Error callback ID
 803:Drivers/STM32H7xx_HAL_Driver/Src/stm32h7xx_hal_sdram.c ****   * @param pCallback : pointer to the Callback function
 804:Drivers/STM32H7xx_HAL_Driver/Src/stm32h7xx_hal_sdram.c ****   * @retval status
 805:Drivers/STM32H7xx_HAL_Driver/Src/stm32h7xx_hal_sdram.c ****   */
 806:Drivers/STM32H7xx_HAL_Driver/Src/stm32h7xx_hal_sdram.c **** HAL_StatusTypeDef HAL_SDRAM_RegisterCallback(SDRAM_HandleTypeDef *hsdram, HAL_SDRAM_CallbackIDTypeD
 807:Drivers/STM32H7xx_HAL_Driver/Src/stm32h7xx_hal_sdram.c ****                                              pSDRAM_CallbackTypeDef pCallback)
 808:Drivers/STM32H7xx_HAL_Driver/Src/stm32h7xx_hal_sdram.c **** {
 809:Drivers/STM32H7xx_HAL_Driver/Src/stm32h7xx_hal_sdram.c ****   HAL_StatusTypeDef status = HAL_OK;
 810:Drivers/STM32H7xx_HAL_Driver/Src/stm32h7xx_hal_sdram.c ****   HAL_SDRAM_StateTypeDef state;
 811:Drivers/STM32H7xx_HAL_Driver/Src/stm32h7xx_hal_sdram.c **** 
ARM GAS  /tmp/ccZHMbbp.s 			page 21


 812:Drivers/STM32H7xx_HAL_Driver/Src/stm32h7xx_hal_sdram.c ****   if (pCallback == NULL)
 813:Drivers/STM32H7xx_HAL_Driver/Src/stm32h7xx_hal_sdram.c ****   {
 814:Drivers/STM32H7xx_HAL_Driver/Src/stm32h7xx_hal_sdram.c ****     return HAL_ERROR;
 815:Drivers/STM32H7xx_HAL_Driver/Src/stm32h7xx_hal_sdram.c ****   }
 816:Drivers/STM32H7xx_HAL_Driver/Src/stm32h7xx_hal_sdram.c **** 
 817:Drivers/STM32H7xx_HAL_Driver/Src/stm32h7xx_hal_sdram.c ****   state = hsdram->State;
 818:Drivers/STM32H7xx_HAL_Driver/Src/stm32h7xx_hal_sdram.c ****   if ((state == HAL_SDRAM_STATE_READY) || (state == HAL_SDRAM_STATE_WRITE_PROTECTED))
 819:Drivers/STM32H7xx_HAL_Driver/Src/stm32h7xx_hal_sdram.c ****   {
 820:Drivers/STM32H7xx_HAL_Driver/Src/stm32h7xx_hal_sdram.c ****     switch (CallbackId)
 821:Drivers/STM32H7xx_HAL_Driver/Src/stm32h7xx_hal_sdram.c ****     {
 822:Drivers/STM32H7xx_HAL_Driver/Src/stm32h7xx_hal_sdram.c ****       case HAL_SDRAM_MSP_INIT_CB_ID :
 823:Drivers/STM32H7xx_HAL_Driver/Src/stm32h7xx_hal_sdram.c ****         hsdram->MspInitCallback = pCallback;
 824:Drivers/STM32H7xx_HAL_Driver/Src/stm32h7xx_hal_sdram.c ****         break;
 825:Drivers/STM32H7xx_HAL_Driver/Src/stm32h7xx_hal_sdram.c ****       case HAL_SDRAM_MSP_DEINIT_CB_ID :
 826:Drivers/STM32H7xx_HAL_Driver/Src/stm32h7xx_hal_sdram.c ****         hsdram->MspDeInitCallback = pCallback;
 827:Drivers/STM32H7xx_HAL_Driver/Src/stm32h7xx_hal_sdram.c ****         break;
 828:Drivers/STM32H7xx_HAL_Driver/Src/stm32h7xx_hal_sdram.c ****       case HAL_SDRAM_REFRESH_ERR_CB_ID :
 829:Drivers/STM32H7xx_HAL_Driver/Src/stm32h7xx_hal_sdram.c ****         hsdram->RefreshErrorCallback = pCallback;
 830:Drivers/STM32H7xx_HAL_Driver/Src/stm32h7xx_hal_sdram.c ****         break;
 831:Drivers/STM32H7xx_HAL_Driver/Src/stm32h7xx_hal_sdram.c ****       default :
 832:Drivers/STM32H7xx_HAL_Driver/Src/stm32h7xx_hal_sdram.c ****         /* update return status */
 833:Drivers/STM32H7xx_HAL_Driver/Src/stm32h7xx_hal_sdram.c ****         status =  HAL_ERROR;
 834:Drivers/STM32H7xx_HAL_Driver/Src/stm32h7xx_hal_sdram.c ****         break;
 835:Drivers/STM32H7xx_HAL_Driver/Src/stm32h7xx_hal_sdram.c ****     }
 836:Drivers/STM32H7xx_HAL_Driver/Src/stm32h7xx_hal_sdram.c ****   }
 837:Drivers/STM32H7xx_HAL_Driver/Src/stm32h7xx_hal_sdram.c ****   else if (hsdram->State == HAL_SDRAM_STATE_RESET)
 838:Drivers/STM32H7xx_HAL_Driver/Src/stm32h7xx_hal_sdram.c ****   {
 839:Drivers/STM32H7xx_HAL_Driver/Src/stm32h7xx_hal_sdram.c ****     switch (CallbackId)
 840:Drivers/STM32H7xx_HAL_Driver/Src/stm32h7xx_hal_sdram.c ****     {
 841:Drivers/STM32H7xx_HAL_Driver/Src/stm32h7xx_hal_sdram.c ****       case HAL_SDRAM_MSP_INIT_CB_ID :
 842:Drivers/STM32H7xx_HAL_Driver/Src/stm32h7xx_hal_sdram.c ****         hsdram->MspInitCallback = pCallback;
 843:Drivers/STM32H7xx_HAL_Driver/Src/stm32h7xx_hal_sdram.c ****         break;
 844:Drivers/STM32H7xx_HAL_Driver/Src/stm32h7xx_hal_sdram.c ****       case HAL_SDRAM_MSP_DEINIT_CB_ID :
 845:Drivers/STM32H7xx_HAL_Driver/Src/stm32h7xx_hal_sdram.c ****         hsdram->MspDeInitCallback = pCallback;
 846:Drivers/STM32H7xx_HAL_Driver/Src/stm32h7xx_hal_sdram.c ****         break;
 847:Drivers/STM32H7xx_HAL_Driver/Src/stm32h7xx_hal_sdram.c ****       default :
 848:Drivers/STM32H7xx_HAL_Driver/Src/stm32h7xx_hal_sdram.c ****         /* update return status */
 849:Drivers/STM32H7xx_HAL_Driver/Src/stm32h7xx_hal_sdram.c ****         status =  HAL_ERROR;
 850:Drivers/STM32H7xx_HAL_Driver/Src/stm32h7xx_hal_sdram.c ****         break;
 851:Drivers/STM32H7xx_HAL_Driver/Src/stm32h7xx_hal_sdram.c ****     }
 852:Drivers/STM32H7xx_HAL_Driver/Src/stm32h7xx_hal_sdram.c ****   }
 853:Drivers/STM32H7xx_HAL_Driver/Src/stm32h7xx_hal_sdram.c ****   else
 854:Drivers/STM32H7xx_HAL_Driver/Src/stm32h7xx_hal_sdram.c ****   {
 855:Drivers/STM32H7xx_HAL_Driver/Src/stm32h7xx_hal_sdram.c ****     /* update return status */
 856:Drivers/STM32H7xx_HAL_Driver/Src/stm32h7xx_hal_sdram.c ****     status =  HAL_ERROR;
 857:Drivers/STM32H7xx_HAL_Driver/Src/stm32h7xx_hal_sdram.c ****   }
 858:Drivers/STM32H7xx_HAL_Driver/Src/stm32h7xx_hal_sdram.c **** 
 859:Drivers/STM32H7xx_HAL_Driver/Src/stm32h7xx_hal_sdram.c ****   return status;
 860:Drivers/STM32H7xx_HAL_Driver/Src/stm32h7xx_hal_sdram.c **** }
 861:Drivers/STM32H7xx_HAL_Driver/Src/stm32h7xx_hal_sdram.c **** 
 862:Drivers/STM32H7xx_HAL_Driver/Src/stm32h7xx_hal_sdram.c **** /**
 863:Drivers/STM32H7xx_HAL_Driver/Src/stm32h7xx_hal_sdram.c ****   * @brief  Unregister a User SDRAM Callback
 864:Drivers/STM32H7xx_HAL_Driver/Src/stm32h7xx_hal_sdram.c ****   *         SDRAM Callback is redirected to the weak predefined callback
 865:Drivers/STM32H7xx_HAL_Driver/Src/stm32h7xx_hal_sdram.c ****   * @param hsdram : SDRAM handle
 866:Drivers/STM32H7xx_HAL_Driver/Src/stm32h7xx_hal_sdram.c ****   * @param CallbackId : ID of the callback to be unregistered
 867:Drivers/STM32H7xx_HAL_Driver/Src/stm32h7xx_hal_sdram.c ****   *        This parameter can be one of the following values:
 868:Drivers/STM32H7xx_HAL_Driver/Src/stm32h7xx_hal_sdram.c ****   *          @arg @ref HAL_SDRAM_MSP_INIT_CB_ID       SDRAM MspInit callback ID
ARM GAS  /tmp/ccZHMbbp.s 			page 22


 869:Drivers/STM32H7xx_HAL_Driver/Src/stm32h7xx_hal_sdram.c ****   *          @arg @ref HAL_SDRAM_MSP_DEINIT_CB_ID     SDRAM MspDeInit callback ID
 870:Drivers/STM32H7xx_HAL_Driver/Src/stm32h7xx_hal_sdram.c ****   *          @arg @ref HAL_SDRAM_REFRESH_ERR_CB_ID    SDRAM Refresh Error callback ID
 871:Drivers/STM32H7xx_HAL_Driver/Src/stm32h7xx_hal_sdram.c ****   *          @arg @ref HAL_SDRAM_DMA_XFER_CPLT_CB_ID  SDRAM DMA Xfer Complete callback ID
 872:Drivers/STM32H7xx_HAL_Driver/Src/stm32h7xx_hal_sdram.c ****   *          @arg @ref HAL_SDRAM_DMA_XFER_ERR_CB_ID   SDRAM DMA Xfer Error callback ID
 873:Drivers/STM32H7xx_HAL_Driver/Src/stm32h7xx_hal_sdram.c ****   * @retval status
 874:Drivers/STM32H7xx_HAL_Driver/Src/stm32h7xx_hal_sdram.c ****   */
 875:Drivers/STM32H7xx_HAL_Driver/Src/stm32h7xx_hal_sdram.c **** HAL_StatusTypeDef HAL_SDRAM_UnRegisterCallback(SDRAM_HandleTypeDef *hsdram, HAL_SDRAM_CallbackIDTyp
 876:Drivers/STM32H7xx_HAL_Driver/Src/stm32h7xx_hal_sdram.c **** {
 877:Drivers/STM32H7xx_HAL_Driver/Src/stm32h7xx_hal_sdram.c ****   HAL_StatusTypeDef status = HAL_OK;
 878:Drivers/STM32H7xx_HAL_Driver/Src/stm32h7xx_hal_sdram.c ****   HAL_SDRAM_StateTypeDef state;
 879:Drivers/STM32H7xx_HAL_Driver/Src/stm32h7xx_hal_sdram.c **** 
 880:Drivers/STM32H7xx_HAL_Driver/Src/stm32h7xx_hal_sdram.c ****   state = hsdram->State;
 881:Drivers/STM32H7xx_HAL_Driver/Src/stm32h7xx_hal_sdram.c ****   if ((state == HAL_SDRAM_STATE_READY) || (state == HAL_SDRAM_STATE_WRITE_PROTECTED))
 882:Drivers/STM32H7xx_HAL_Driver/Src/stm32h7xx_hal_sdram.c ****   {
 883:Drivers/STM32H7xx_HAL_Driver/Src/stm32h7xx_hal_sdram.c ****     switch (CallbackId)
 884:Drivers/STM32H7xx_HAL_Driver/Src/stm32h7xx_hal_sdram.c ****     {
 885:Drivers/STM32H7xx_HAL_Driver/Src/stm32h7xx_hal_sdram.c ****       case HAL_SDRAM_MSP_INIT_CB_ID :
 886:Drivers/STM32H7xx_HAL_Driver/Src/stm32h7xx_hal_sdram.c ****         hsdram->MspInitCallback = HAL_SDRAM_MspInit;
 887:Drivers/STM32H7xx_HAL_Driver/Src/stm32h7xx_hal_sdram.c ****         break;
 888:Drivers/STM32H7xx_HAL_Driver/Src/stm32h7xx_hal_sdram.c ****       case HAL_SDRAM_MSP_DEINIT_CB_ID :
 889:Drivers/STM32H7xx_HAL_Driver/Src/stm32h7xx_hal_sdram.c ****         hsdram->MspDeInitCallback = HAL_SDRAM_MspDeInit;
 890:Drivers/STM32H7xx_HAL_Driver/Src/stm32h7xx_hal_sdram.c ****         break;
 891:Drivers/STM32H7xx_HAL_Driver/Src/stm32h7xx_hal_sdram.c ****       case HAL_SDRAM_REFRESH_ERR_CB_ID :
 892:Drivers/STM32H7xx_HAL_Driver/Src/stm32h7xx_hal_sdram.c ****         hsdram->RefreshErrorCallback = HAL_SDRAM_RefreshErrorCallback;
 893:Drivers/STM32H7xx_HAL_Driver/Src/stm32h7xx_hal_sdram.c ****         break;
 894:Drivers/STM32H7xx_HAL_Driver/Src/stm32h7xx_hal_sdram.c ****       case HAL_SDRAM_DMA_XFER_CPLT_CB_ID :
 895:Drivers/STM32H7xx_HAL_Driver/Src/stm32h7xx_hal_sdram.c ****         hsdram->DmaXferCpltCallback = HAL_SDRAM_DMA_XferCpltCallback;
 896:Drivers/STM32H7xx_HAL_Driver/Src/stm32h7xx_hal_sdram.c ****         break;
 897:Drivers/STM32H7xx_HAL_Driver/Src/stm32h7xx_hal_sdram.c ****       case HAL_SDRAM_DMA_XFER_ERR_CB_ID :
 898:Drivers/STM32H7xx_HAL_Driver/Src/stm32h7xx_hal_sdram.c ****         hsdram->DmaXferErrorCallback = HAL_SDRAM_DMA_XferErrorCallback;
 899:Drivers/STM32H7xx_HAL_Driver/Src/stm32h7xx_hal_sdram.c ****         break;
 900:Drivers/STM32H7xx_HAL_Driver/Src/stm32h7xx_hal_sdram.c ****       default :
 901:Drivers/STM32H7xx_HAL_Driver/Src/stm32h7xx_hal_sdram.c ****         /* update return status */
 902:Drivers/STM32H7xx_HAL_Driver/Src/stm32h7xx_hal_sdram.c ****         status =  HAL_ERROR;
 903:Drivers/STM32H7xx_HAL_Driver/Src/stm32h7xx_hal_sdram.c ****         break;
 904:Drivers/STM32H7xx_HAL_Driver/Src/stm32h7xx_hal_sdram.c ****     }
 905:Drivers/STM32H7xx_HAL_Driver/Src/stm32h7xx_hal_sdram.c ****   }
 906:Drivers/STM32H7xx_HAL_Driver/Src/stm32h7xx_hal_sdram.c ****   else if (hsdram->State == HAL_SDRAM_STATE_RESET)
 907:Drivers/STM32H7xx_HAL_Driver/Src/stm32h7xx_hal_sdram.c ****   {
 908:Drivers/STM32H7xx_HAL_Driver/Src/stm32h7xx_hal_sdram.c ****     switch (CallbackId)
 909:Drivers/STM32H7xx_HAL_Driver/Src/stm32h7xx_hal_sdram.c ****     {
 910:Drivers/STM32H7xx_HAL_Driver/Src/stm32h7xx_hal_sdram.c ****       case HAL_SDRAM_MSP_INIT_CB_ID :
 911:Drivers/STM32H7xx_HAL_Driver/Src/stm32h7xx_hal_sdram.c ****         hsdram->MspInitCallback = HAL_SDRAM_MspInit;
 912:Drivers/STM32H7xx_HAL_Driver/Src/stm32h7xx_hal_sdram.c ****         break;
 913:Drivers/STM32H7xx_HAL_Driver/Src/stm32h7xx_hal_sdram.c ****       case HAL_SDRAM_MSP_DEINIT_CB_ID :
 914:Drivers/STM32H7xx_HAL_Driver/Src/stm32h7xx_hal_sdram.c ****         hsdram->MspDeInitCallback = HAL_SDRAM_MspDeInit;
 915:Drivers/STM32H7xx_HAL_Driver/Src/stm32h7xx_hal_sdram.c ****         break;
 916:Drivers/STM32H7xx_HAL_Driver/Src/stm32h7xx_hal_sdram.c ****       default :
 917:Drivers/STM32H7xx_HAL_Driver/Src/stm32h7xx_hal_sdram.c ****         /* update return status */
 918:Drivers/STM32H7xx_HAL_Driver/Src/stm32h7xx_hal_sdram.c ****         status =  HAL_ERROR;
 919:Drivers/STM32H7xx_HAL_Driver/Src/stm32h7xx_hal_sdram.c ****         break;
 920:Drivers/STM32H7xx_HAL_Driver/Src/stm32h7xx_hal_sdram.c ****     }
 921:Drivers/STM32H7xx_HAL_Driver/Src/stm32h7xx_hal_sdram.c ****   }
 922:Drivers/STM32H7xx_HAL_Driver/Src/stm32h7xx_hal_sdram.c ****   else
 923:Drivers/STM32H7xx_HAL_Driver/Src/stm32h7xx_hal_sdram.c ****   {
 924:Drivers/STM32H7xx_HAL_Driver/Src/stm32h7xx_hal_sdram.c ****     /* update return status */
 925:Drivers/STM32H7xx_HAL_Driver/Src/stm32h7xx_hal_sdram.c ****     status =  HAL_ERROR;
ARM GAS  /tmp/ccZHMbbp.s 			page 23


 926:Drivers/STM32H7xx_HAL_Driver/Src/stm32h7xx_hal_sdram.c ****   }
 927:Drivers/STM32H7xx_HAL_Driver/Src/stm32h7xx_hal_sdram.c **** 
 928:Drivers/STM32H7xx_HAL_Driver/Src/stm32h7xx_hal_sdram.c ****   return status;
 929:Drivers/STM32H7xx_HAL_Driver/Src/stm32h7xx_hal_sdram.c **** }
 930:Drivers/STM32H7xx_HAL_Driver/Src/stm32h7xx_hal_sdram.c **** 
 931:Drivers/STM32H7xx_HAL_Driver/Src/stm32h7xx_hal_sdram.c **** /**
 932:Drivers/STM32H7xx_HAL_Driver/Src/stm32h7xx_hal_sdram.c ****   * @brief  Register a User SDRAM Callback for DMA transfers
 933:Drivers/STM32H7xx_HAL_Driver/Src/stm32h7xx_hal_sdram.c ****   *         To be used to override the weak predefined callback
 934:Drivers/STM32H7xx_HAL_Driver/Src/stm32h7xx_hal_sdram.c ****   * @param hsdram : SDRAM handle
 935:Drivers/STM32H7xx_HAL_Driver/Src/stm32h7xx_hal_sdram.c ****   * @param CallbackId : ID of the callback to be registered
 936:Drivers/STM32H7xx_HAL_Driver/Src/stm32h7xx_hal_sdram.c ****   *        This parameter can be one of the following values:
 937:Drivers/STM32H7xx_HAL_Driver/Src/stm32h7xx_hal_sdram.c ****   *          @arg @ref HAL_SDRAM_DMA_XFER_CPLT_CB_ID  SDRAM DMA Xfer Complete callback ID
 938:Drivers/STM32H7xx_HAL_Driver/Src/stm32h7xx_hal_sdram.c ****   *          @arg @ref HAL_SDRAM_DMA_XFER_ERR_CB_ID   SDRAM DMA Xfer Error callback ID
 939:Drivers/STM32H7xx_HAL_Driver/Src/stm32h7xx_hal_sdram.c ****   * @param pCallback : pointer to the Callback function
 940:Drivers/STM32H7xx_HAL_Driver/Src/stm32h7xx_hal_sdram.c ****   * @retval status
 941:Drivers/STM32H7xx_HAL_Driver/Src/stm32h7xx_hal_sdram.c ****   */
 942:Drivers/STM32H7xx_HAL_Driver/Src/stm32h7xx_hal_sdram.c **** HAL_StatusTypeDef HAL_SDRAM_RegisterDmaCallback(SDRAM_HandleTypeDef *hsdram, HAL_SDRAM_CallbackIDTy
 943:Drivers/STM32H7xx_HAL_Driver/Src/stm32h7xx_hal_sdram.c ****                                                 pSDRAM_DmaCallbackTypeDef pCallback)
 944:Drivers/STM32H7xx_HAL_Driver/Src/stm32h7xx_hal_sdram.c **** {
 945:Drivers/STM32H7xx_HAL_Driver/Src/stm32h7xx_hal_sdram.c ****   HAL_StatusTypeDef status = HAL_OK;
 946:Drivers/STM32H7xx_HAL_Driver/Src/stm32h7xx_hal_sdram.c ****   HAL_SDRAM_StateTypeDef state;
 947:Drivers/STM32H7xx_HAL_Driver/Src/stm32h7xx_hal_sdram.c **** 
 948:Drivers/STM32H7xx_HAL_Driver/Src/stm32h7xx_hal_sdram.c ****   if (pCallback == NULL)
 949:Drivers/STM32H7xx_HAL_Driver/Src/stm32h7xx_hal_sdram.c ****   {
 950:Drivers/STM32H7xx_HAL_Driver/Src/stm32h7xx_hal_sdram.c ****     return HAL_ERROR;
 951:Drivers/STM32H7xx_HAL_Driver/Src/stm32h7xx_hal_sdram.c ****   }
 952:Drivers/STM32H7xx_HAL_Driver/Src/stm32h7xx_hal_sdram.c **** 
 953:Drivers/STM32H7xx_HAL_Driver/Src/stm32h7xx_hal_sdram.c ****   /* Process locked */
 954:Drivers/STM32H7xx_HAL_Driver/Src/stm32h7xx_hal_sdram.c ****   __HAL_LOCK(hsdram);
 955:Drivers/STM32H7xx_HAL_Driver/Src/stm32h7xx_hal_sdram.c **** 
 956:Drivers/STM32H7xx_HAL_Driver/Src/stm32h7xx_hal_sdram.c ****   state = hsdram->State;
 957:Drivers/STM32H7xx_HAL_Driver/Src/stm32h7xx_hal_sdram.c ****   if ((state == HAL_SDRAM_STATE_READY) || (state == HAL_SDRAM_STATE_WRITE_PROTECTED))
 958:Drivers/STM32H7xx_HAL_Driver/Src/stm32h7xx_hal_sdram.c ****   {
 959:Drivers/STM32H7xx_HAL_Driver/Src/stm32h7xx_hal_sdram.c ****     switch (CallbackId)
 960:Drivers/STM32H7xx_HAL_Driver/Src/stm32h7xx_hal_sdram.c ****     {
 961:Drivers/STM32H7xx_HAL_Driver/Src/stm32h7xx_hal_sdram.c ****       case HAL_SDRAM_DMA_XFER_CPLT_CB_ID :
 962:Drivers/STM32H7xx_HAL_Driver/Src/stm32h7xx_hal_sdram.c ****         hsdram->DmaXferCpltCallback = pCallback;
 963:Drivers/STM32H7xx_HAL_Driver/Src/stm32h7xx_hal_sdram.c ****         break;
 964:Drivers/STM32H7xx_HAL_Driver/Src/stm32h7xx_hal_sdram.c ****       case HAL_SDRAM_DMA_XFER_ERR_CB_ID :
 965:Drivers/STM32H7xx_HAL_Driver/Src/stm32h7xx_hal_sdram.c ****         hsdram->DmaXferErrorCallback = pCallback;
 966:Drivers/STM32H7xx_HAL_Driver/Src/stm32h7xx_hal_sdram.c ****         break;
 967:Drivers/STM32H7xx_HAL_Driver/Src/stm32h7xx_hal_sdram.c ****       default :
 968:Drivers/STM32H7xx_HAL_Driver/Src/stm32h7xx_hal_sdram.c ****         /* update return status */
 969:Drivers/STM32H7xx_HAL_Driver/Src/stm32h7xx_hal_sdram.c ****         status =  HAL_ERROR;
 970:Drivers/STM32H7xx_HAL_Driver/Src/stm32h7xx_hal_sdram.c ****         break;
 971:Drivers/STM32H7xx_HAL_Driver/Src/stm32h7xx_hal_sdram.c ****     }
 972:Drivers/STM32H7xx_HAL_Driver/Src/stm32h7xx_hal_sdram.c ****   }
 973:Drivers/STM32H7xx_HAL_Driver/Src/stm32h7xx_hal_sdram.c ****   else
 974:Drivers/STM32H7xx_HAL_Driver/Src/stm32h7xx_hal_sdram.c ****   {
 975:Drivers/STM32H7xx_HAL_Driver/Src/stm32h7xx_hal_sdram.c ****     /* update return status */
 976:Drivers/STM32H7xx_HAL_Driver/Src/stm32h7xx_hal_sdram.c ****     status =  HAL_ERROR;
 977:Drivers/STM32H7xx_HAL_Driver/Src/stm32h7xx_hal_sdram.c ****   }
 978:Drivers/STM32H7xx_HAL_Driver/Src/stm32h7xx_hal_sdram.c **** 
 979:Drivers/STM32H7xx_HAL_Driver/Src/stm32h7xx_hal_sdram.c ****   /* Release Lock */
 980:Drivers/STM32H7xx_HAL_Driver/Src/stm32h7xx_hal_sdram.c ****   __HAL_UNLOCK(hsdram);
 981:Drivers/STM32H7xx_HAL_Driver/Src/stm32h7xx_hal_sdram.c ****   return status;
 982:Drivers/STM32H7xx_HAL_Driver/Src/stm32h7xx_hal_sdram.c **** }
ARM GAS  /tmp/ccZHMbbp.s 			page 24


 983:Drivers/STM32H7xx_HAL_Driver/Src/stm32h7xx_hal_sdram.c **** #endif /* USE_HAL_SDRAM_REGISTER_CALLBACKS */
 984:Drivers/STM32H7xx_HAL_Driver/Src/stm32h7xx_hal_sdram.c **** 
 985:Drivers/STM32H7xx_HAL_Driver/Src/stm32h7xx_hal_sdram.c **** /**
 986:Drivers/STM32H7xx_HAL_Driver/Src/stm32h7xx_hal_sdram.c ****   * @}
 987:Drivers/STM32H7xx_HAL_Driver/Src/stm32h7xx_hal_sdram.c ****   */
 988:Drivers/STM32H7xx_HAL_Driver/Src/stm32h7xx_hal_sdram.c **** 
 989:Drivers/STM32H7xx_HAL_Driver/Src/stm32h7xx_hal_sdram.c **** /** @defgroup SDRAM_Exported_Functions_Group3 Control functions
 990:Drivers/STM32H7xx_HAL_Driver/Src/stm32h7xx_hal_sdram.c ****   *  @brief   management functions
 991:Drivers/STM32H7xx_HAL_Driver/Src/stm32h7xx_hal_sdram.c ****   *
 992:Drivers/STM32H7xx_HAL_Driver/Src/stm32h7xx_hal_sdram.c **** @verbatim
 993:Drivers/STM32H7xx_HAL_Driver/Src/stm32h7xx_hal_sdram.c ****   ==============================================================================
 994:Drivers/STM32H7xx_HAL_Driver/Src/stm32h7xx_hal_sdram.c ****                          ##### SDRAM Control functions #####
 995:Drivers/STM32H7xx_HAL_Driver/Src/stm32h7xx_hal_sdram.c ****   ==============================================================================
 996:Drivers/STM32H7xx_HAL_Driver/Src/stm32h7xx_hal_sdram.c ****   [..]
 997:Drivers/STM32H7xx_HAL_Driver/Src/stm32h7xx_hal_sdram.c ****     This subsection provides a set of functions allowing to control dynamically
 998:Drivers/STM32H7xx_HAL_Driver/Src/stm32h7xx_hal_sdram.c ****     the SDRAM interface.
 999:Drivers/STM32H7xx_HAL_Driver/Src/stm32h7xx_hal_sdram.c **** 
1000:Drivers/STM32H7xx_HAL_Driver/Src/stm32h7xx_hal_sdram.c **** @endverbatim
1001:Drivers/STM32H7xx_HAL_Driver/Src/stm32h7xx_hal_sdram.c ****   * @{
1002:Drivers/STM32H7xx_HAL_Driver/Src/stm32h7xx_hal_sdram.c ****   */
1003:Drivers/STM32H7xx_HAL_Driver/Src/stm32h7xx_hal_sdram.c **** 
1004:Drivers/STM32H7xx_HAL_Driver/Src/stm32h7xx_hal_sdram.c **** /**
1005:Drivers/STM32H7xx_HAL_Driver/Src/stm32h7xx_hal_sdram.c ****   * @brief  Enables dynamically SDRAM write protection.
1006:Drivers/STM32H7xx_HAL_Driver/Src/stm32h7xx_hal_sdram.c ****   * @param  hsdram pointer to a SDRAM_HandleTypeDef structure that contains
1007:Drivers/STM32H7xx_HAL_Driver/Src/stm32h7xx_hal_sdram.c ****   *                the configuration information for SDRAM module.
1008:Drivers/STM32H7xx_HAL_Driver/Src/stm32h7xx_hal_sdram.c ****   * @retval HAL status
1009:Drivers/STM32H7xx_HAL_Driver/Src/stm32h7xx_hal_sdram.c ****   */
1010:Drivers/STM32H7xx_HAL_Driver/Src/stm32h7xx_hal_sdram.c **** HAL_StatusTypeDef HAL_SDRAM_WriteProtection_Enable(SDRAM_HandleTypeDef *hsdram)
1011:Drivers/STM32H7xx_HAL_Driver/Src/stm32h7xx_hal_sdram.c **** {
1012:Drivers/STM32H7xx_HAL_Driver/Src/stm32h7xx_hal_sdram.c ****   /* Check the SDRAM controller state */
1013:Drivers/STM32H7xx_HAL_Driver/Src/stm32h7xx_hal_sdram.c ****   if (hsdram->State == HAL_SDRAM_STATE_BUSY)
1014:Drivers/STM32H7xx_HAL_Driver/Src/stm32h7xx_hal_sdram.c ****   {
1015:Drivers/STM32H7xx_HAL_Driver/Src/stm32h7xx_hal_sdram.c ****     return HAL_BUSY;
1016:Drivers/STM32H7xx_HAL_Driver/Src/stm32h7xx_hal_sdram.c ****   }
1017:Drivers/STM32H7xx_HAL_Driver/Src/stm32h7xx_hal_sdram.c ****   else if (hsdram->State == HAL_SDRAM_STATE_READY)
1018:Drivers/STM32H7xx_HAL_Driver/Src/stm32h7xx_hal_sdram.c ****   {
1019:Drivers/STM32H7xx_HAL_Driver/Src/stm32h7xx_hal_sdram.c ****     /* Update the SDRAM state */
1020:Drivers/STM32H7xx_HAL_Driver/Src/stm32h7xx_hal_sdram.c ****     hsdram->State = HAL_SDRAM_STATE_BUSY;
1021:Drivers/STM32H7xx_HAL_Driver/Src/stm32h7xx_hal_sdram.c **** 
1022:Drivers/STM32H7xx_HAL_Driver/Src/stm32h7xx_hal_sdram.c ****     /* Enable write protection */
1023:Drivers/STM32H7xx_HAL_Driver/Src/stm32h7xx_hal_sdram.c ****     (void)FMC_SDRAM_WriteProtection_Enable(hsdram->Instance, hsdram->Init.SDBank);
1024:Drivers/STM32H7xx_HAL_Driver/Src/stm32h7xx_hal_sdram.c **** 
1025:Drivers/STM32H7xx_HAL_Driver/Src/stm32h7xx_hal_sdram.c ****     /* Update the SDRAM state */
1026:Drivers/STM32H7xx_HAL_Driver/Src/stm32h7xx_hal_sdram.c ****     hsdram->State = HAL_SDRAM_STATE_WRITE_PROTECTED;
1027:Drivers/STM32H7xx_HAL_Driver/Src/stm32h7xx_hal_sdram.c ****   }
1028:Drivers/STM32H7xx_HAL_Driver/Src/stm32h7xx_hal_sdram.c ****   else
1029:Drivers/STM32H7xx_HAL_Driver/Src/stm32h7xx_hal_sdram.c ****   {
1030:Drivers/STM32H7xx_HAL_Driver/Src/stm32h7xx_hal_sdram.c ****     return HAL_ERROR;
1031:Drivers/STM32H7xx_HAL_Driver/Src/stm32h7xx_hal_sdram.c ****   }
1032:Drivers/STM32H7xx_HAL_Driver/Src/stm32h7xx_hal_sdram.c **** 
1033:Drivers/STM32H7xx_HAL_Driver/Src/stm32h7xx_hal_sdram.c ****   return HAL_OK;
1034:Drivers/STM32H7xx_HAL_Driver/Src/stm32h7xx_hal_sdram.c **** }
1035:Drivers/STM32H7xx_HAL_Driver/Src/stm32h7xx_hal_sdram.c **** 
1036:Drivers/STM32H7xx_HAL_Driver/Src/stm32h7xx_hal_sdram.c **** /**
1037:Drivers/STM32H7xx_HAL_Driver/Src/stm32h7xx_hal_sdram.c ****   * @brief  Disables dynamically SDRAM write protection.
1038:Drivers/STM32H7xx_HAL_Driver/Src/stm32h7xx_hal_sdram.c ****   * @param  hsdram pointer to a SDRAM_HandleTypeDef structure that contains
1039:Drivers/STM32H7xx_HAL_Driver/Src/stm32h7xx_hal_sdram.c ****   *                the configuration information for SDRAM module.
ARM GAS  /tmp/ccZHMbbp.s 			page 25


1040:Drivers/STM32H7xx_HAL_Driver/Src/stm32h7xx_hal_sdram.c ****   * @retval HAL status
1041:Drivers/STM32H7xx_HAL_Driver/Src/stm32h7xx_hal_sdram.c ****   */
1042:Drivers/STM32H7xx_HAL_Driver/Src/stm32h7xx_hal_sdram.c **** HAL_StatusTypeDef HAL_SDRAM_WriteProtection_Disable(SDRAM_HandleTypeDef *hsdram)
1043:Drivers/STM32H7xx_HAL_Driver/Src/stm32h7xx_hal_sdram.c **** {
1044:Drivers/STM32H7xx_HAL_Driver/Src/stm32h7xx_hal_sdram.c ****   HAL_SDRAM_StateTypeDef state = hsdram->State;
1045:Drivers/STM32H7xx_HAL_Driver/Src/stm32h7xx_hal_sdram.c **** 
1046:Drivers/STM32H7xx_HAL_Driver/Src/stm32h7xx_hal_sdram.c ****   /* Check the SDRAM controller state */
1047:Drivers/STM32H7xx_HAL_Driver/Src/stm32h7xx_hal_sdram.c ****   if (state == HAL_SDRAM_STATE_BUSY)
1048:Drivers/STM32H7xx_HAL_Driver/Src/stm32h7xx_hal_sdram.c ****   {
1049:Drivers/STM32H7xx_HAL_Driver/Src/stm32h7xx_hal_sdram.c ****     return HAL_BUSY;
1050:Drivers/STM32H7xx_HAL_Driver/Src/stm32h7xx_hal_sdram.c ****   }
1051:Drivers/STM32H7xx_HAL_Driver/Src/stm32h7xx_hal_sdram.c ****   else if (state == HAL_SDRAM_STATE_WRITE_PROTECTED)
1052:Drivers/STM32H7xx_HAL_Driver/Src/stm32h7xx_hal_sdram.c ****   {
1053:Drivers/STM32H7xx_HAL_Driver/Src/stm32h7xx_hal_sdram.c ****     /* Update the SDRAM state */
1054:Drivers/STM32H7xx_HAL_Driver/Src/stm32h7xx_hal_sdram.c ****     hsdram->State = HAL_SDRAM_STATE_BUSY;
1055:Drivers/STM32H7xx_HAL_Driver/Src/stm32h7xx_hal_sdram.c **** 
1056:Drivers/STM32H7xx_HAL_Driver/Src/stm32h7xx_hal_sdram.c ****     /* Disable write protection */
1057:Drivers/STM32H7xx_HAL_Driver/Src/stm32h7xx_hal_sdram.c ****     (void)FMC_SDRAM_WriteProtection_Disable(hsdram->Instance, hsdram->Init.SDBank);
1058:Drivers/STM32H7xx_HAL_Driver/Src/stm32h7xx_hal_sdram.c **** 
1059:Drivers/STM32H7xx_HAL_Driver/Src/stm32h7xx_hal_sdram.c ****     /* Update the SDRAM state */
1060:Drivers/STM32H7xx_HAL_Driver/Src/stm32h7xx_hal_sdram.c ****     hsdram->State = HAL_SDRAM_STATE_READY;
1061:Drivers/STM32H7xx_HAL_Driver/Src/stm32h7xx_hal_sdram.c ****   }
1062:Drivers/STM32H7xx_HAL_Driver/Src/stm32h7xx_hal_sdram.c ****   else
1063:Drivers/STM32H7xx_HAL_Driver/Src/stm32h7xx_hal_sdram.c ****   {
1064:Drivers/STM32H7xx_HAL_Driver/Src/stm32h7xx_hal_sdram.c ****     return HAL_ERROR;
1065:Drivers/STM32H7xx_HAL_Driver/Src/stm32h7xx_hal_sdram.c ****   }
1066:Drivers/STM32H7xx_HAL_Driver/Src/stm32h7xx_hal_sdram.c **** 
1067:Drivers/STM32H7xx_HAL_Driver/Src/stm32h7xx_hal_sdram.c ****   return HAL_OK;
1068:Drivers/STM32H7xx_HAL_Driver/Src/stm32h7xx_hal_sdram.c **** }
1069:Drivers/STM32H7xx_HAL_Driver/Src/stm32h7xx_hal_sdram.c **** 
1070:Drivers/STM32H7xx_HAL_Driver/Src/stm32h7xx_hal_sdram.c **** /**
1071:Drivers/STM32H7xx_HAL_Driver/Src/stm32h7xx_hal_sdram.c ****   * @brief  Sends Command to the SDRAM bank.
1072:Drivers/STM32H7xx_HAL_Driver/Src/stm32h7xx_hal_sdram.c ****   * @param  hsdram pointer to a SDRAM_HandleTypeDef structure that contains
1073:Drivers/STM32H7xx_HAL_Driver/Src/stm32h7xx_hal_sdram.c ****   *                the configuration information for SDRAM module.
1074:Drivers/STM32H7xx_HAL_Driver/Src/stm32h7xx_hal_sdram.c ****   * @param  Command SDRAM command structure
1075:Drivers/STM32H7xx_HAL_Driver/Src/stm32h7xx_hal_sdram.c ****   * @param  Timeout Timeout duration
1076:Drivers/STM32H7xx_HAL_Driver/Src/stm32h7xx_hal_sdram.c ****   * @retval HAL status
1077:Drivers/STM32H7xx_HAL_Driver/Src/stm32h7xx_hal_sdram.c ****   */
1078:Drivers/STM32H7xx_HAL_Driver/Src/stm32h7xx_hal_sdram.c **** HAL_StatusTypeDef HAL_SDRAM_SendCommand(SDRAM_HandleTypeDef *hsdram, FMC_SDRAM_CommandTypeDef *Comm
1079:Drivers/STM32H7xx_HAL_Driver/Src/stm32h7xx_hal_sdram.c ****                                         uint32_t Timeout)
1080:Drivers/STM32H7xx_HAL_Driver/Src/stm32h7xx_hal_sdram.c **** {
1081:Drivers/STM32H7xx_HAL_Driver/Src/stm32h7xx_hal_sdram.c ****   HAL_SDRAM_StateTypeDef state = hsdram->State;
1082:Drivers/STM32H7xx_HAL_Driver/Src/stm32h7xx_hal_sdram.c **** 
1083:Drivers/STM32H7xx_HAL_Driver/Src/stm32h7xx_hal_sdram.c ****   /* Check the SDRAM controller state */
1084:Drivers/STM32H7xx_HAL_Driver/Src/stm32h7xx_hal_sdram.c ****   if (state == HAL_SDRAM_STATE_BUSY)
1085:Drivers/STM32H7xx_HAL_Driver/Src/stm32h7xx_hal_sdram.c ****   {
1086:Drivers/STM32H7xx_HAL_Driver/Src/stm32h7xx_hal_sdram.c ****     return HAL_BUSY;
1087:Drivers/STM32H7xx_HAL_Driver/Src/stm32h7xx_hal_sdram.c ****   }
1088:Drivers/STM32H7xx_HAL_Driver/Src/stm32h7xx_hal_sdram.c ****   else if ((state == HAL_SDRAM_STATE_READY) || (state == HAL_SDRAM_STATE_PRECHARGED))
1089:Drivers/STM32H7xx_HAL_Driver/Src/stm32h7xx_hal_sdram.c ****   {
1090:Drivers/STM32H7xx_HAL_Driver/Src/stm32h7xx_hal_sdram.c ****     /* Update the SDRAM state */
1091:Drivers/STM32H7xx_HAL_Driver/Src/stm32h7xx_hal_sdram.c ****     hsdram->State = HAL_SDRAM_STATE_BUSY;
1092:Drivers/STM32H7xx_HAL_Driver/Src/stm32h7xx_hal_sdram.c **** 
1093:Drivers/STM32H7xx_HAL_Driver/Src/stm32h7xx_hal_sdram.c ****     /* Send SDRAM command */
1094:Drivers/STM32H7xx_HAL_Driver/Src/stm32h7xx_hal_sdram.c ****     (void)FMC_SDRAM_SendCommand(hsdram->Instance, Command, Timeout);
1095:Drivers/STM32H7xx_HAL_Driver/Src/stm32h7xx_hal_sdram.c **** 
1096:Drivers/STM32H7xx_HAL_Driver/Src/stm32h7xx_hal_sdram.c ****     /* Update the SDRAM controller state state */
ARM GAS  /tmp/ccZHMbbp.s 			page 26


1097:Drivers/STM32H7xx_HAL_Driver/Src/stm32h7xx_hal_sdram.c ****     if (Command->CommandMode == FMC_SDRAM_CMD_PALL)
1098:Drivers/STM32H7xx_HAL_Driver/Src/stm32h7xx_hal_sdram.c ****     {
1099:Drivers/STM32H7xx_HAL_Driver/Src/stm32h7xx_hal_sdram.c ****       hsdram->State = HAL_SDRAM_STATE_PRECHARGED;
1100:Drivers/STM32H7xx_HAL_Driver/Src/stm32h7xx_hal_sdram.c ****     }
1101:Drivers/STM32H7xx_HAL_Driver/Src/stm32h7xx_hal_sdram.c ****     else
1102:Drivers/STM32H7xx_HAL_Driver/Src/stm32h7xx_hal_sdram.c ****     {
1103:Drivers/STM32H7xx_HAL_Driver/Src/stm32h7xx_hal_sdram.c ****       hsdram->State = HAL_SDRAM_STATE_READY;
1104:Drivers/STM32H7xx_HAL_Driver/Src/stm32h7xx_hal_sdram.c ****     }
1105:Drivers/STM32H7xx_HAL_Driver/Src/stm32h7xx_hal_sdram.c ****   }
1106:Drivers/STM32H7xx_HAL_Driver/Src/stm32h7xx_hal_sdram.c ****   else
1107:Drivers/STM32H7xx_HAL_Driver/Src/stm32h7xx_hal_sdram.c ****   {
1108:Drivers/STM32H7xx_HAL_Driver/Src/stm32h7xx_hal_sdram.c ****     return HAL_ERROR;
1109:Drivers/STM32H7xx_HAL_Driver/Src/stm32h7xx_hal_sdram.c ****   }
1110:Drivers/STM32H7xx_HAL_Driver/Src/stm32h7xx_hal_sdram.c **** 
1111:Drivers/STM32H7xx_HAL_Driver/Src/stm32h7xx_hal_sdram.c ****   return HAL_OK;
1112:Drivers/STM32H7xx_HAL_Driver/Src/stm32h7xx_hal_sdram.c **** }
1113:Drivers/STM32H7xx_HAL_Driver/Src/stm32h7xx_hal_sdram.c **** 
1114:Drivers/STM32H7xx_HAL_Driver/Src/stm32h7xx_hal_sdram.c **** /**
1115:Drivers/STM32H7xx_HAL_Driver/Src/stm32h7xx_hal_sdram.c ****   * @brief  Programs the SDRAM Memory Refresh rate.
1116:Drivers/STM32H7xx_HAL_Driver/Src/stm32h7xx_hal_sdram.c ****   * @param  hsdram pointer to a SDRAM_HandleTypeDef structure that contains
1117:Drivers/STM32H7xx_HAL_Driver/Src/stm32h7xx_hal_sdram.c ****   *                the configuration information for SDRAM module.
1118:Drivers/STM32H7xx_HAL_Driver/Src/stm32h7xx_hal_sdram.c ****   * @param  RefreshRate The SDRAM refresh rate value
1119:Drivers/STM32H7xx_HAL_Driver/Src/stm32h7xx_hal_sdram.c ****   * @retval HAL status
1120:Drivers/STM32H7xx_HAL_Driver/Src/stm32h7xx_hal_sdram.c ****   */
1121:Drivers/STM32H7xx_HAL_Driver/Src/stm32h7xx_hal_sdram.c **** HAL_StatusTypeDef HAL_SDRAM_ProgramRefreshRate(SDRAM_HandleTypeDef *hsdram, uint32_t RefreshRate)
1122:Drivers/STM32H7xx_HAL_Driver/Src/stm32h7xx_hal_sdram.c **** {
1123:Drivers/STM32H7xx_HAL_Driver/Src/stm32h7xx_hal_sdram.c ****   /* Check the SDRAM controller state */
1124:Drivers/STM32H7xx_HAL_Driver/Src/stm32h7xx_hal_sdram.c ****   if (hsdram->State == HAL_SDRAM_STATE_BUSY)
1125:Drivers/STM32H7xx_HAL_Driver/Src/stm32h7xx_hal_sdram.c ****   {
1126:Drivers/STM32H7xx_HAL_Driver/Src/stm32h7xx_hal_sdram.c ****     return HAL_BUSY;
1127:Drivers/STM32H7xx_HAL_Driver/Src/stm32h7xx_hal_sdram.c ****   }
1128:Drivers/STM32H7xx_HAL_Driver/Src/stm32h7xx_hal_sdram.c ****   else if (hsdram->State == HAL_SDRAM_STATE_READY)
1129:Drivers/STM32H7xx_HAL_Driver/Src/stm32h7xx_hal_sdram.c ****   {
1130:Drivers/STM32H7xx_HAL_Driver/Src/stm32h7xx_hal_sdram.c ****     /* Update the SDRAM state */
1131:Drivers/STM32H7xx_HAL_Driver/Src/stm32h7xx_hal_sdram.c ****     hsdram->State = HAL_SDRAM_STATE_BUSY;
1132:Drivers/STM32H7xx_HAL_Driver/Src/stm32h7xx_hal_sdram.c **** 
1133:Drivers/STM32H7xx_HAL_Driver/Src/stm32h7xx_hal_sdram.c ****     /* Program the refresh rate */
1134:Drivers/STM32H7xx_HAL_Driver/Src/stm32h7xx_hal_sdram.c ****     (void)FMC_SDRAM_ProgramRefreshRate(hsdram->Instance, RefreshRate);
1135:Drivers/STM32H7xx_HAL_Driver/Src/stm32h7xx_hal_sdram.c **** 
1136:Drivers/STM32H7xx_HAL_Driver/Src/stm32h7xx_hal_sdram.c ****     /* Update the SDRAM state */
1137:Drivers/STM32H7xx_HAL_Driver/Src/stm32h7xx_hal_sdram.c ****     hsdram->State = HAL_SDRAM_STATE_READY;
1138:Drivers/STM32H7xx_HAL_Driver/Src/stm32h7xx_hal_sdram.c ****   }
1139:Drivers/STM32H7xx_HAL_Driver/Src/stm32h7xx_hal_sdram.c ****   else
1140:Drivers/STM32H7xx_HAL_Driver/Src/stm32h7xx_hal_sdram.c ****   {
1141:Drivers/STM32H7xx_HAL_Driver/Src/stm32h7xx_hal_sdram.c ****     return HAL_ERROR;
1142:Drivers/STM32H7xx_HAL_Driver/Src/stm32h7xx_hal_sdram.c ****   }
1143:Drivers/STM32H7xx_HAL_Driver/Src/stm32h7xx_hal_sdram.c **** 
1144:Drivers/STM32H7xx_HAL_Driver/Src/stm32h7xx_hal_sdram.c ****   return HAL_OK;
1145:Drivers/STM32H7xx_HAL_Driver/Src/stm32h7xx_hal_sdram.c **** }
1146:Drivers/STM32H7xx_HAL_Driver/Src/stm32h7xx_hal_sdram.c **** 
1147:Drivers/STM32H7xx_HAL_Driver/Src/stm32h7xx_hal_sdram.c **** /**
1148:Drivers/STM32H7xx_HAL_Driver/Src/stm32h7xx_hal_sdram.c ****   * @brief  Sets the Number of consecutive SDRAM Memory auto Refresh commands.
1149:Drivers/STM32H7xx_HAL_Driver/Src/stm32h7xx_hal_sdram.c ****   * @param  hsdram pointer to a SDRAM_HandleTypeDef structure that contains
1150:Drivers/STM32H7xx_HAL_Driver/Src/stm32h7xx_hal_sdram.c ****   *                the configuration information for SDRAM module.
1151:Drivers/STM32H7xx_HAL_Driver/Src/stm32h7xx_hal_sdram.c ****   * @param  AutoRefreshNumber The SDRAM auto Refresh number
1152:Drivers/STM32H7xx_HAL_Driver/Src/stm32h7xx_hal_sdram.c ****   * @retval HAL status
1153:Drivers/STM32H7xx_HAL_Driver/Src/stm32h7xx_hal_sdram.c ****   */
ARM GAS  /tmp/ccZHMbbp.s 			page 27


1154:Drivers/STM32H7xx_HAL_Driver/Src/stm32h7xx_hal_sdram.c **** HAL_StatusTypeDef HAL_SDRAM_SetAutoRefreshNumber(SDRAM_HandleTypeDef *hsdram, uint32_t AutoRefreshN
1155:Drivers/STM32H7xx_HAL_Driver/Src/stm32h7xx_hal_sdram.c **** {
1156:Drivers/STM32H7xx_HAL_Driver/Src/stm32h7xx_hal_sdram.c ****   /* Check the SDRAM controller state */
1157:Drivers/STM32H7xx_HAL_Driver/Src/stm32h7xx_hal_sdram.c ****   if (hsdram->State == HAL_SDRAM_STATE_BUSY)
1158:Drivers/STM32H7xx_HAL_Driver/Src/stm32h7xx_hal_sdram.c ****   {
1159:Drivers/STM32H7xx_HAL_Driver/Src/stm32h7xx_hal_sdram.c ****     return HAL_BUSY;
1160:Drivers/STM32H7xx_HAL_Driver/Src/stm32h7xx_hal_sdram.c ****   }
1161:Drivers/STM32H7xx_HAL_Driver/Src/stm32h7xx_hal_sdram.c ****   else if (hsdram->State == HAL_SDRAM_STATE_READY)
1162:Drivers/STM32H7xx_HAL_Driver/Src/stm32h7xx_hal_sdram.c ****   {
1163:Drivers/STM32H7xx_HAL_Driver/Src/stm32h7xx_hal_sdram.c ****     /* Update the SDRAM state */
1164:Drivers/STM32H7xx_HAL_Driver/Src/stm32h7xx_hal_sdram.c ****     hsdram->State = HAL_SDRAM_STATE_BUSY;
1165:Drivers/STM32H7xx_HAL_Driver/Src/stm32h7xx_hal_sdram.c **** 
1166:Drivers/STM32H7xx_HAL_Driver/Src/stm32h7xx_hal_sdram.c ****     /* Set the Auto-Refresh number */
1167:Drivers/STM32H7xx_HAL_Driver/Src/stm32h7xx_hal_sdram.c ****     (void)FMC_SDRAM_SetAutoRefreshNumber(hsdram->Instance, AutoRefreshNumber);
1168:Drivers/STM32H7xx_HAL_Driver/Src/stm32h7xx_hal_sdram.c **** 
1169:Drivers/STM32H7xx_HAL_Driver/Src/stm32h7xx_hal_sdram.c ****     /* Update the SDRAM state */
1170:Drivers/STM32H7xx_HAL_Driver/Src/stm32h7xx_hal_sdram.c ****     hsdram->State = HAL_SDRAM_STATE_READY;
1171:Drivers/STM32H7xx_HAL_Driver/Src/stm32h7xx_hal_sdram.c ****   }
1172:Drivers/STM32H7xx_HAL_Driver/Src/stm32h7xx_hal_sdram.c ****   else
1173:Drivers/STM32H7xx_HAL_Driver/Src/stm32h7xx_hal_sdram.c ****   {
1174:Drivers/STM32H7xx_HAL_Driver/Src/stm32h7xx_hal_sdram.c ****     return HAL_ERROR;
1175:Drivers/STM32H7xx_HAL_Driver/Src/stm32h7xx_hal_sdram.c ****   }
1176:Drivers/STM32H7xx_HAL_Driver/Src/stm32h7xx_hal_sdram.c **** 
1177:Drivers/STM32H7xx_HAL_Driver/Src/stm32h7xx_hal_sdram.c ****   return HAL_OK;
1178:Drivers/STM32H7xx_HAL_Driver/Src/stm32h7xx_hal_sdram.c **** }
1179:Drivers/STM32H7xx_HAL_Driver/Src/stm32h7xx_hal_sdram.c **** 
1180:Drivers/STM32H7xx_HAL_Driver/Src/stm32h7xx_hal_sdram.c **** /**
1181:Drivers/STM32H7xx_HAL_Driver/Src/stm32h7xx_hal_sdram.c ****   * @brief  Returns the SDRAM memory current mode.
1182:Drivers/STM32H7xx_HAL_Driver/Src/stm32h7xx_hal_sdram.c ****   * @param  hsdram pointer to a SDRAM_HandleTypeDef structure that contains
1183:Drivers/STM32H7xx_HAL_Driver/Src/stm32h7xx_hal_sdram.c ****   *                the configuration information for SDRAM module.
1184:Drivers/STM32H7xx_HAL_Driver/Src/stm32h7xx_hal_sdram.c ****   * @retval The SDRAM memory mode.
1185:Drivers/STM32H7xx_HAL_Driver/Src/stm32h7xx_hal_sdram.c ****   */
1186:Drivers/STM32H7xx_HAL_Driver/Src/stm32h7xx_hal_sdram.c **** uint32_t HAL_SDRAM_GetModeStatus(SDRAM_HandleTypeDef *hsdram)
1187:Drivers/STM32H7xx_HAL_Driver/Src/stm32h7xx_hal_sdram.c **** {
1188:Drivers/STM32H7xx_HAL_Driver/Src/stm32h7xx_hal_sdram.c ****   /* Return the SDRAM memory current mode */
1189:Drivers/STM32H7xx_HAL_Driver/Src/stm32h7xx_hal_sdram.c ****   return (FMC_SDRAM_GetModeStatus(hsdram->Instance, hsdram->Init.SDBank));
1190:Drivers/STM32H7xx_HAL_Driver/Src/stm32h7xx_hal_sdram.c **** }
1191:Drivers/STM32H7xx_HAL_Driver/Src/stm32h7xx_hal_sdram.c **** 
1192:Drivers/STM32H7xx_HAL_Driver/Src/stm32h7xx_hal_sdram.c **** /**
1193:Drivers/STM32H7xx_HAL_Driver/Src/stm32h7xx_hal_sdram.c ****   * @}
1194:Drivers/STM32H7xx_HAL_Driver/Src/stm32h7xx_hal_sdram.c ****   */
1195:Drivers/STM32H7xx_HAL_Driver/Src/stm32h7xx_hal_sdram.c **** 
1196:Drivers/STM32H7xx_HAL_Driver/Src/stm32h7xx_hal_sdram.c **** /** @defgroup SDRAM_Exported_Functions_Group4 State functions
1197:Drivers/STM32H7xx_HAL_Driver/Src/stm32h7xx_hal_sdram.c ****   *  @brief   Peripheral State functions
1198:Drivers/STM32H7xx_HAL_Driver/Src/stm32h7xx_hal_sdram.c ****   *
1199:Drivers/STM32H7xx_HAL_Driver/Src/stm32h7xx_hal_sdram.c **** @verbatim
1200:Drivers/STM32H7xx_HAL_Driver/Src/stm32h7xx_hal_sdram.c ****   ==============================================================================
1201:Drivers/STM32H7xx_HAL_Driver/Src/stm32h7xx_hal_sdram.c ****                       ##### SDRAM State functions #####
1202:Drivers/STM32H7xx_HAL_Driver/Src/stm32h7xx_hal_sdram.c ****   ==============================================================================
1203:Drivers/STM32H7xx_HAL_Driver/Src/stm32h7xx_hal_sdram.c ****   [..]
1204:Drivers/STM32H7xx_HAL_Driver/Src/stm32h7xx_hal_sdram.c ****     This subsection permits to get in run-time the status of the SDRAM controller
1205:Drivers/STM32H7xx_HAL_Driver/Src/stm32h7xx_hal_sdram.c ****     and the data flow.
1206:Drivers/STM32H7xx_HAL_Driver/Src/stm32h7xx_hal_sdram.c **** 
1207:Drivers/STM32H7xx_HAL_Driver/Src/stm32h7xx_hal_sdram.c **** @endverbatim
1208:Drivers/STM32H7xx_HAL_Driver/Src/stm32h7xx_hal_sdram.c ****   * @{
1209:Drivers/STM32H7xx_HAL_Driver/Src/stm32h7xx_hal_sdram.c ****   */
1210:Drivers/STM32H7xx_HAL_Driver/Src/stm32h7xx_hal_sdram.c **** 
ARM GAS  /tmp/ccZHMbbp.s 			page 28


1211:Drivers/STM32H7xx_HAL_Driver/Src/stm32h7xx_hal_sdram.c **** /**
1212:Drivers/STM32H7xx_HAL_Driver/Src/stm32h7xx_hal_sdram.c ****   * @brief  Returns the SDRAM state.
1213:Drivers/STM32H7xx_HAL_Driver/Src/stm32h7xx_hal_sdram.c ****   * @param  hsdram pointer to a SDRAM_HandleTypeDef structure that contains
1214:Drivers/STM32H7xx_HAL_Driver/Src/stm32h7xx_hal_sdram.c ****   *                the configuration information for SDRAM module.
1215:Drivers/STM32H7xx_HAL_Driver/Src/stm32h7xx_hal_sdram.c ****   * @retval HAL state
1216:Drivers/STM32H7xx_HAL_Driver/Src/stm32h7xx_hal_sdram.c ****   */
1217:Drivers/STM32H7xx_HAL_Driver/Src/stm32h7xx_hal_sdram.c **** HAL_SDRAM_StateTypeDef HAL_SDRAM_GetState(const SDRAM_HandleTypeDef *hsdram)
1218:Drivers/STM32H7xx_HAL_Driver/Src/stm32h7xx_hal_sdram.c **** {
1219:Drivers/STM32H7xx_HAL_Driver/Src/stm32h7xx_hal_sdram.c ****   return hsdram->State;
1220:Drivers/STM32H7xx_HAL_Driver/Src/stm32h7xx_hal_sdram.c **** }
1221:Drivers/STM32H7xx_HAL_Driver/Src/stm32h7xx_hal_sdram.c **** 
1222:Drivers/STM32H7xx_HAL_Driver/Src/stm32h7xx_hal_sdram.c **** /**
1223:Drivers/STM32H7xx_HAL_Driver/Src/stm32h7xx_hal_sdram.c ****   * @}
1224:Drivers/STM32H7xx_HAL_Driver/Src/stm32h7xx_hal_sdram.c ****   */
1225:Drivers/STM32H7xx_HAL_Driver/Src/stm32h7xx_hal_sdram.c **** 
1226:Drivers/STM32H7xx_HAL_Driver/Src/stm32h7xx_hal_sdram.c **** /**
1227:Drivers/STM32H7xx_HAL_Driver/Src/stm32h7xx_hal_sdram.c ****   * @}
1228:Drivers/STM32H7xx_HAL_Driver/Src/stm32h7xx_hal_sdram.c ****   */
1229:Drivers/STM32H7xx_HAL_Driver/Src/stm32h7xx_hal_sdram.c **** 
1230:Drivers/STM32H7xx_HAL_Driver/Src/stm32h7xx_hal_sdram.c **** /** @addtogroup SDRAM_Private_Functions SDRAM Private Functions
1231:Drivers/STM32H7xx_HAL_Driver/Src/stm32h7xx_hal_sdram.c ****   * @{
1232:Drivers/STM32H7xx_HAL_Driver/Src/stm32h7xx_hal_sdram.c ****   */
1233:Drivers/STM32H7xx_HAL_Driver/Src/stm32h7xx_hal_sdram.c **** /**
1234:Drivers/STM32H7xx_HAL_Driver/Src/stm32h7xx_hal_sdram.c ****   * @brief  MDMA SDRAM process complete callback.
1235:Drivers/STM32H7xx_HAL_Driver/Src/stm32h7xx_hal_sdram.c ****   * @param  hmdma : MDMA handle
1236:Drivers/STM32H7xx_HAL_Driver/Src/stm32h7xx_hal_sdram.c ****   * @retval None
1237:Drivers/STM32H7xx_HAL_Driver/Src/stm32h7xx_hal_sdram.c ****   */
1238:Drivers/STM32H7xx_HAL_Driver/Src/stm32h7xx_hal_sdram.c **** static void SDRAM_DMACplt(MDMA_HandleTypeDef *hmdma)
1239:Drivers/STM32H7xx_HAL_Driver/Src/stm32h7xx_hal_sdram.c **** {
1240:Drivers/STM32H7xx_HAL_Driver/Src/stm32h7xx_hal_sdram.c ****   /* Derogation MISRAC2012-Rule-11.5 */
1241:Drivers/STM32H7xx_HAL_Driver/Src/stm32h7xx_hal_sdram.c ****   SDRAM_HandleTypeDef *hsdram = (SDRAM_HandleTypeDef *)(hmdma->Parent);
1242:Drivers/STM32H7xx_HAL_Driver/Src/stm32h7xx_hal_sdram.c **** 
1243:Drivers/STM32H7xx_HAL_Driver/Src/stm32h7xx_hal_sdram.c ****   /* Disable the MDMA channel */
1244:Drivers/STM32H7xx_HAL_Driver/Src/stm32h7xx_hal_sdram.c ****   __HAL_MDMA_DISABLE(hmdma);
1245:Drivers/STM32H7xx_HAL_Driver/Src/stm32h7xx_hal_sdram.c **** 
1246:Drivers/STM32H7xx_HAL_Driver/Src/stm32h7xx_hal_sdram.c ****   /* Update the SDRAM controller state */
1247:Drivers/STM32H7xx_HAL_Driver/Src/stm32h7xx_hal_sdram.c ****   hsdram->State = HAL_SDRAM_STATE_READY;
1248:Drivers/STM32H7xx_HAL_Driver/Src/stm32h7xx_hal_sdram.c **** 
1249:Drivers/STM32H7xx_HAL_Driver/Src/stm32h7xx_hal_sdram.c **** #if (USE_HAL_SDRAM_REGISTER_CALLBACKS == 1)
1250:Drivers/STM32H7xx_HAL_Driver/Src/stm32h7xx_hal_sdram.c ****   hsdram->DmaXferCpltCallback(hmdma);
1251:Drivers/STM32H7xx_HAL_Driver/Src/stm32h7xx_hal_sdram.c **** #else
1252:Drivers/STM32H7xx_HAL_Driver/Src/stm32h7xx_hal_sdram.c ****   HAL_SDRAM_DMA_XferCpltCallback(hmdma);
1253:Drivers/STM32H7xx_HAL_Driver/Src/stm32h7xx_hal_sdram.c **** #endif /* USE_HAL_SDRAM_REGISTER_CALLBACKS */
1254:Drivers/STM32H7xx_HAL_Driver/Src/stm32h7xx_hal_sdram.c **** }
1255:Drivers/STM32H7xx_HAL_Driver/Src/stm32h7xx_hal_sdram.c **** 
1256:Drivers/STM32H7xx_HAL_Driver/Src/stm32h7xx_hal_sdram.c **** /**
1257:Drivers/STM32H7xx_HAL_Driver/Src/stm32h7xx_hal_sdram.c ****   * @brief  MDMA SRAM process complete callback.
1258:Drivers/STM32H7xx_HAL_Driver/Src/stm32h7xx_hal_sdram.c ****   * @param  hmdma : MDMA handle
1259:Drivers/STM32H7xx_HAL_Driver/Src/stm32h7xx_hal_sdram.c ****   * @retval None
1260:Drivers/STM32H7xx_HAL_Driver/Src/stm32h7xx_hal_sdram.c ****   */
1261:Drivers/STM32H7xx_HAL_Driver/Src/stm32h7xx_hal_sdram.c **** static void SDRAM_DMACpltProt(MDMA_HandleTypeDef *hmdma)
1262:Drivers/STM32H7xx_HAL_Driver/Src/stm32h7xx_hal_sdram.c **** {
 297              		.loc 1 1262 1 is_stmt 1 view -0
 298              		.cfi_startproc
 299              		@ args = 0, pretend = 0, frame = 0
 300              		@ frame_needed = 0, uses_anonymous_args = 0
 301              		.loc 1 1262 1 is_stmt 0 view .LVU61
ARM GAS  /tmp/ccZHMbbp.s 			page 29


 302 0000 08B5     		push	{r3, lr}
 303              	.LCFI4:
 304              		.cfi_def_cfa_offset 8
 305              		.cfi_offset 3, -8
 306              		.cfi_offset 14, -4
1263:Drivers/STM32H7xx_HAL_Driver/Src/stm32h7xx_hal_sdram.c ****   /* Derogation MISRAC2012-Rule-11.5 */
1264:Drivers/STM32H7xx_HAL_Driver/Src/stm32h7xx_hal_sdram.c ****   SDRAM_HandleTypeDef *hsdram = (SDRAM_HandleTypeDef *)(hmdma->Parent);
 307              		.loc 1 1264 3 is_stmt 1 view .LVU62
 308              		.loc 1 1264 24 is_stmt 0 view .LVU63
 309 0002 016C     		ldr	r1, [r0, #64]
 310              	.LVL18:
1265:Drivers/STM32H7xx_HAL_Driver/Src/stm32h7xx_hal_sdram.c **** 
1266:Drivers/STM32H7xx_HAL_Driver/Src/stm32h7xx_hal_sdram.c ****   /* Disable the MDMA channel */
1267:Drivers/STM32H7xx_HAL_Driver/Src/stm32h7xx_hal_sdram.c ****   __HAL_MDMA_DISABLE(hmdma);
 311              		.loc 1 1267 3 is_stmt 1 view .LVU64
 312 0004 0268     		ldr	r2, [r0]
 313 0006 D368     		ldr	r3, [r2, #12]
 314 0008 23F00103 		bic	r3, r3, #1
 315 000c D360     		str	r3, [r2, #12]
1268:Drivers/STM32H7xx_HAL_Driver/Src/stm32h7xx_hal_sdram.c **** 
1269:Drivers/STM32H7xx_HAL_Driver/Src/stm32h7xx_hal_sdram.c ****   /* Update the SDRAM controller state */
1270:Drivers/STM32H7xx_HAL_Driver/Src/stm32h7xx_hal_sdram.c ****   hsdram->State = HAL_SDRAM_STATE_WRITE_PROTECTED;
 316              		.loc 1 1270 3 view .LVU65
 317              		.loc 1 1270 17 is_stmt 0 view .LVU66
 318 000e 0423     		movs	r3, #4
 319 0010 81F82C30 		strb	r3, [r1, #44]
1271:Drivers/STM32H7xx_HAL_Driver/Src/stm32h7xx_hal_sdram.c **** 
1272:Drivers/STM32H7xx_HAL_Driver/Src/stm32h7xx_hal_sdram.c **** #if (USE_HAL_SDRAM_REGISTER_CALLBACKS == 1)
1273:Drivers/STM32H7xx_HAL_Driver/Src/stm32h7xx_hal_sdram.c ****   hsdram->DmaXferCpltCallback(hmdma);
1274:Drivers/STM32H7xx_HAL_Driver/Src/stm32h7xx_hal_sdram.c **** #else
1275:Drivers/STM32H7xx_HAL_Driver/Src/stm32h7xx_hal_sdram.c ****   HAL_SDRAM_DMA_XferCpltCallback(hmdma);
 320              		.loc 1 1275 3 is_stmt 1 view .LVU67
 321 0014 FFF7FEFF 		bl	HAL_SDRAM_DMA_XferCpltCallback
 322              	.LVL19:
1276:Drivers/STM32H7xx_HAL_Driver/Src/stm32h7xx_hal_sdram.c **** #endif /* USE_HAL_SDRAM_REGISTER_CALLBACKS */
1277:Drivers/STM32H7xx_HAL_Driver/Src/stm32h7xx_hal_sdram.c **** }
 323              		.loc 1 1277 1 is_stmt 0 view .LVU68
 324 0018 08BD     		pop	{r3, pc}
 325              		.cfi_endproc
 326              	.LFE168:
 328              		.section	.text.SDRAM_DMACplt,"ax",%progbits
 329              		.align	1
 330              		.syntax unified
 331              		.thumb
 332              		.thumb_func
 334              	SDRAM_DMACplt:
 335              	.LVL20:
 336              	.LFB167:
1239:Drivers/STM32H7xx_HAL_Driver/Src/stm32h7xx_hal_sdram.c ****   /* Derogation MISRAC2012-Rule-11.5 */
 337              		.loc 1 1239 1 is_stmt 1 view -0
 338              		.cfi_startproc
 339              		@ args = 0, pretend = 0, frame = 0
 340              		@ frame_needed = 0, uses_anonymous_args = 0
1239:Drivers/STM32H7xx_HAL_Driver/Src/stm32h7xx_hal_sdram.c ****   /* Derogation MISRAC2012-Rule-11.5 */
 341              		.loc 1 1239 1 is_stmt 0 view .LVU70
 342 0000 08B5     		push	{r3, lr}
 343              	.LCFI5:
ARM GAS  /tmp/ccZHMbbp.s 			page 30


 344              		.cfi_def_cfa_offset 8
 345              		.cfi_offset 3, -8
 346              		.cfi_offset 14, -4
1241:Drivers/STM32H7xx_HAL_Driver/Src/stm32h7xx_hal_sdram.c **** 
 347              		.loc 1 1241 3 is_stmt 1 view .LVU71
1241:Drivers/STM32H7xx_HAL_Driver/Src/stm32h7xx_hal_sdram.c **** 
 348              		.loc 1 1241 24 is_stmt 0 view .LVU72
 349 0002 016C     		ldr	r1, [r0, #64]
 350              	.LVL21:
1244:Drivers/STM32H7xx_HAL_Driver/Src/stm32h7xx_hal_sdram.c **** 
 351              		.loc 1 1244 3 is_stmt 1 view .LVU73
 352 0004 0268     		ldr	r2, [r0]
 353 0006 D368     		ldr	r3, [r2, #12]
 354 0008 23F00103 		bic	r3, r3, #1
 355 000c D360     		str	r3, [r2, #12]
1247:Drivers/STM32H7xx_HAL_Driver/Src/stm32h7xx_hal_sdram.c **** 
 356              		.loc 1 1247 3 view .LVU74
1247:Drivers/STM32H7xx_HAL_Driver/Src/stm32h7xx_hal_sdram.c **** 
 357              		.loc 1 1247 17 is_stmt 0 view .LVU75
 358 000e 0123     		movs	r3, #1
 359 0010 81F82C30 		strb	r3, [r1, #44]
1252:Drivers/STM32H7xx_HAL_Driver/Src/stm32h7xx_hal_sdram.c **** #endif /* USE_HAL_SDRAM_REGISTER_CALLBACKS */
 360              		.loc 1 1252 3 is_stmt 1 view .LVU76
 361 0014 FFF7FEFF 		bl	HAL_SDRAM_DMA_XferCpltCallback
 362              	.LVL22:
1254:Drivers/STM32H7xx_HAL_Driver/Src/stm32h7xx_hal_sdram.c **** 
 363              		.loc 1 1254 1 is_stmt 0 view .LVU77
 364 0018 08BD     		pop	{r3, pc}
 365              		.cfi_endproc
 366              	.LFE167:
 368              		.section	.text.HAL_SDRAM_DMA_XferErrorCallback,"ax",%progbits
 369              		.align	1
 370              		.weak	HAL_SDRAM_DMA_XferErrorCallback
 371              		.syntax unified
 372              		.thumb
 373              		.thumb_func
 375              	HAL_SDRAM_DMA_XferErrorCallback:
 376              	.LVL23:
 377              	.LFB151:
 343:Drivers/STM32H7xx_HAL_Driver/Src/stm32h7xx_hal_sdram.c ****   /* Prevent unused argument(s) compilation warning */
 378              		.loc 1 343 1 is_stmt 1 view -0
 379              		.cfi_startproc
 380              		@ args = 0, pretend = 0, frame = 0
 381              		@ frame_needed = 0, uses_anonymous_args = 0
 382              		@ link register save eliminated.
 345:Drivers/STM32H7xx_HAL_Driver/Src/stm32h7xx_hal_sdram.c **** 
 383              		.loc 1 345 3 view .LVU79
 350:Drivers/STM32H7xx_HAL_Driver/Src/stm32h7xx_hal_sdram.c **** 
 384              		.loc 1 350 1 is_stmt 0 view .LVU80
 385 0000 7047     		bx	lr
 386              		.cfi_endproc
 387              	.LFE151:
 389              		.section	.text.SDRAM_DMAError,"ax",%progbits
 390              		.align	1
 391              		.syntax unified
 392              		.thumb
 393              		.thumb_func
ARM GAS  /tmp/ccZHMbbp.s 			page 31


 395              	SDRAM_DMAError:
 396              	.LVL24:
 397              	.LFB169:
1278:Drivers/STM32H7xx_HAL_Driver/Src/stm32h7xx_hal_sdram.c **** 
1279:Drivers/STM32H7xx_HAL_Driver/Src/stm32h7xx_hal_sdram.c **** /**
1280:Drivers/STM32H7xx_HAL_Driver/Src/stm32h7xx_hal_sdram.c ****   * @brief  MDMA SDRAM error callback.
1281:Drivers/STM32H7xx_HAL_Driver/Src/stm32h7xx_hal_sdram.c ****   * @param  hmdma : MDMA handle
1282:Drivers/STM32H7xx_HAL_Driver/Src/stm32h7xx_hal_sdram.c ****   * @retval None
1283:Drivers/STM32H7xx_HAL_Driver/Src/stm32h7xx_hal_sdram.c ****   */
1284:Drivers/STM32H7xx_HAL_Driver/Src/stm32h7xx_hal_sdram.c **** static void SDRAM_DMAError(MDMA_HandleTypeDef *hmdma)
1285:Drivers/STM32H7xx_HAL_Driver/Src/stm32h7xx_hal_sdram.c **** {
 398              		.loc 1 1285 1 is_stmt 1 view -0
 399              		.cfi_startproc
 400              		@ args = 0, pretend = 0, frame = 0
 401              		@ frame_needed = 0, uses_anonymous_args = 0
 402              		.loc 1 1285 1 is_stmt 0 view .LVU82
 403 0000 08B5     		push	{r3, lr}
 404              	.LCFI6:
 405              		.cfi_def_cfa_offset 8
 406              		.cfi_offset 3, -8
 407              		.cfi_offset 14, -4
1286:Drivers/STM32H7xx_HAL_Driver/Src/stm32h7xx_hal_sdram.c ****   /* Derogation MISRAC2012-Rule-11.5 */
1287:Drivers/STM32H7xx_HAL_Driver/Src/stm32h7xx_hal_sdram.c ****   SDRAM_HandleTypeDef *hsdram = (SDRAM_HandleTypeDef *)(hmdma->Parent);
 408              		.loc 1 1287 3 is_stmt 1 view .LVU83
 409              		.loc 1 1287 24 is_stmt 0 view .LVU84
 410 0002 016C     		ldr	r1, [r0, #64]
 411              	.LVL25:
1288:Drivers/STM32H7xx_HAL_Driver/Src/stm32h7xx_hal_sdram.c **** 
1289:Drivers/STM32H7xx_HAL_Driver/Src/stm32h7xx_hal_sdram.c ****   /* Disable the MDMA channel */
1290:Drivers/STM32H7xx_HAL_Driver/Src/stm32h7xx_hal_sdram.c ****   __HAL_MDMA_DISABLE(hmdma);
 412              		.loc 1 1290 3 is_stmt 1 view .LVU85
 413 0004 0268     		ldr	r2, [r0]
 414 0006 D368     		ldr	r3, [r2, #12]
 415 0008 23F00103 		bic	r3, r3, #1
 416 000c D360     		str	r3, [r2, #12]
1291:Drivers/STM32H7xx_HAL_Driver/Src/stm32h7xx_hal_sdram.c **** 
1292:Drivers/STM32H7xx_HAL_Driver/Src/stm32h7xx_hal_sdram.c ****   /* Update the SDRAM controller state */
1293:Drivers/STM32H7xx_HAL_Driver/Src/stm32h7xx_hal_sdram.c ****   hsdram->State = HAL_SDRAM_STATE_ERROR;
 417              		.loc 1 1293 3 view .LVU86
 418              		.loc 1 1293 17 is_stmt 0 view .LVU87
 419 000e 0323     		movs	r3, #3
 420 0010 81F82C30 		strb	r3, [r1, #44]
1294:Drivers/STM32H7xx_HAL_Driver/Src/stm32h7xx_hal_sdram.c **** 
1295:Drivers/STM32H7xx_HAL_Driver/Src/stm32h7xx_hal_sdram.c **** #if (USE_HAL_SDRAM_REGISTER_CALLBACKS == 1)
1296:Drivers/STM32H7xx_HAL_Driver/Src/stm32h7xx_hal_sdram.c ****   hsdram->DmaXferErrorCallback(hmdma);
1297:Drivers/STM32H7xx_HAL_Driver/Src/stm32h7xx_hal_sdram.c **** #else
1298:Drivers/STM32H7xx_HAL_Driver/Src/stm32h7xx_hal_sdram.c ****   HAL_SDRAM_DMA_XferErrorCallback(hmdma);
 421              		.loc 1 1298 3 is_stmt 1 view .LVU88
 422 0014 FFF7FEFF 		bl	HAL_SDRAM_DMA_XferErrorCallback
 423              	.LVL26:
1299:Drivers/STM32H7xx_HAL_Driver/Src/stm32h7xx_hal_sdram.c **** #endif /* USE_HAL_SDRAM_REGISTER_CALLBACKS */
1300:Drivers/STM32H7xx_HAL_Driver/Src/stm32h7xx_hal_sdram.c **** }
 424              		.loc 1 1300 1 is_stmt 0 view .LVU89
 425 0018 08BD     		pop	{r3, pc}
 426              		.cfi_endproc
 427              	.LFE169:
 429              		.section	.text.HAL_SDRAM_Read_8b,"ax",%progbits
ARM GAS  /tmp/ccZHMbbp.s 			page 32


 430              		.align	1
 431              		.global	HAL_SDRAM_Read_8b
 432              		.syntax unified
 433              		.thumb
 434              		.thumb_func
 436              	HAL_SDRAM_Read_8b:
 437              	.LVL27:
 438              	.LFB152:
 381:Drivers/STM32H7xx_HAL_Driver/Src/stm32h7xx_hal_sdram.c ****   uint32_t size;
 439              		.loc 1 381 1 is_stmt 1 view -0
 440              		.cfi_startproc
 441              		@ args = 0, pretend = 0, frame = 0
 442              		@ frame_needed = 0, uses_anonymous_args = 0
 381:Drivers/STM32H7xx_HAL_Driver/Src/stm32h7xx_hal_sdram.c ****   uint32_t size;
 443              		.loc 1 381 1 is_stmt 0 view .LVU91
 444 0000 00B5     		push	{lr}
 445              	.LCFI7:
 446              		.cfi_def_cfa_offset 4
 447              		.cfi_offset 14, -4
 448 0002 8646     		mov	lr, r0
 382:Drivers/STM32H7xx_HAL_Driver/Src/stm32h7xx_hal_sdram.c ****   __IO uint8_t *pSdramAddress = (uint8_t *)pAddress;
 449              		.loc 1 382 3 is_stmt 1 view .LVU92
 383:Drivers/STM32H7xx_HAL_Driver/Src/stm32h7xx_hal_sdram.c ****   uint8_t *pdestbuff = pDstBuffer;
 450              		.loc 1 383 3 view .LVU93
 451              	.LVL28:
 384:Drivers/STM32H7xx_HAL_Driver/Src/stm32h7xx_hal_sdram.c ****   HAL_SDRAM_StateTypeDef state = hsdram->State;
 452              		.loc 1 384 3 view .LVU94
 385:Drivers/STM32H7xx_HAL_Driver/Src/stm32h7xx_hal_sdram.c **** 
 453              		.loc 1 385 3 view .LVU95
 385:Drivers/STM32H7xx_HAL_Driver/Src/stm32h7xx_hal_sdram.c **** 
 454              		.loc 1 385 26 is_stmt 0 view .LVU96
 455 0004 90F82CC0 		ldrb	ip, [r0, #44]	@ zero_extendqisi2
 456 0008 5FFA8CF0 		uxtb	r0, ip
 457              	.LVL29:
 388:Drivers/STM32H7xx_HAL_Driver/Src/stm32h7xx_hal_sdram.c ****   {
 458              		.loc 1 388 3 is_stmt 1 view .LVU97
 388:Drivers/STM32H7xx_HAL_Driver/Src/stm32h7xx_hal_sdram.c ****   {
 459              		.loc 1 388 6 is_stmt 0 view .LVU98
 460 000c 0228     		cmp	r0, #2
 461 000e 1DD0     		beq	.L33
 392:Drivers/STM32H7xx_HAL_Driver/Src/stm32h7xx_hal_sdram.c ****   {
 462              		.loc 1 392 8 is_stmt 1 view .LVU99
 392:Drivers/STM32H7xx_HAL_Driver/Src/stm32h7xx_hal_sdram.c ****   {
 463              		.loc 1 392 11 is_stmt 0 view .LVU100
 464 0010 0428     		cmp	r0, #4
 465 0012 18BF     		it	ne
 466 0014 0128     		cmpne	r0, #1
 467 0016 1BD1     		bne	.L36
 395:Drivers/STM32H7xx_HAL_Driver/Src/stm32h7xx_hal_sdram.c **** 
 468              		.loc 1 395 5 is_stmt 1 view .LVU101
 395:Drivers/STM32H7xx_HAL_Driver/Src/stm32h7xx_hal_sdram.c **** 
 469              		.loc 1 395 5 view .LVU102
 470 0018 9EF82DC0 		ldrb	ip, [lr, #45]	@ zero_extendqisi2
 471 001c BCF1010F 		cmp	ip, #1
 472 0020 18D0     		beq	.L37
 395:Drivers/STM32H7xx_HAL_Driver/Src/stm32h7xx_hal_sdram.c **** 
 473              		.loc 1 395 5 discriminator 2 view .LVU103
ARM GAS  /tmp/ccZHMbbp.s 			page 33


 474 0022 4FF0010C 		mov	ip, #1
 475 0026 8EF82DC0 		strb	ip, [lr, #45]
 395:Drivers/STM32H7xx_HAL_Driver/Src/stm32h7xx_hal_sdram.c **** 
 476              		.loc 1 395 5 discriminator 2 view .LVU104
 398:Drivers/STM32H7xx_HAL_Driver/Src/stm32h7xx_hal_sdram.c **** 
 477              		.loc 1 398 5 view .LVU105
 398:Drivers/STM32H7xx_HAL_Driver/Src/stm32h7xx_hal_sdram.c **** 
 478              		.loc 1 398 19 is_stmt 0 view .LVU106
 479 002a 4FF0020C 		mov	ip, #2
 480 002e 8EF82CC0 		strb	ip, [lr, #44]
 401:Drivers/STM32H7xx_HAL_Driver/Src/stm32h7xx_hal_sdram.c ****     {
 481              		.loc 1 401 5 is_stmt 1 view .LVU107
 482              	.LVL30:
 401:Drivers/STM32H7xx_HAL_Driver/Src/stm32h7xx_hal_sdram.c ****     {
 483              		.loc 1 401 5 is_stmt 0 view .LVU108
 484 0032 04E0     		b	.L34
 485              	.LVL31:
 486              	.L35:
 403:Drivers/STM32H7xx_HAL_Driver/Src/stm32h7xx_hal_sdram.c ****       pdestbuff++;
 487              		.loc 1 403 7 is_stmt 1 view .LVU109
 403:Drivers/STM32H7xx_HAL_Driver/Src/stm32h7xx_hal_sdram.c ****       pdestbuff++;
 488              		.loc 1 403 20 is_stmt 0 view .LVU110
 489 0034 11F801CB 		ldrb	ip, [r1], #1	@ zero_extendqisi2
 490              	.LVL32:
 403:Drivers/STM32H7xx_HAL_Driver/Src/stm32h7xx_hal_sdram.c ****       pdestbuff++;
 491              		.loc 1 403 18 view .LVU111
 492 0038 02F801CB 		strb	ip, [r2], #1
 493              	.LVL33:
 404:Drivers/STM32H7xx_HAL_Driver/Src/stm32h7xx_hal_sdram.c ****       pSdramAddress++;
 494              		.loc 1 404 7 is_stmt 1 view .LVU112
 405:Drivers/STM32H7xx_HAL_Driver/Src/stm32h7xx_hal_sdram.c ****     }
 495              		.loc 1 405 7 view .LVU113
 401:Drivers/STM32H7xx_HAL_Driver/Src/stm32h7xx_hal_sdram.c ****     {
 496              		.loc 1 401 45 discriminator 3 view .LVU114
 497 003c 013B     		subs	r3, r3, #1
 498              	.LVL34:
 499              	.L34:
 401:Drivers/STM32H7xx_HAL_Driver/Src/stm32h7xx_hal_sdram.c ****     {
 500              		.loc 1 401 34 discriminator 1 view .LVU115
 501 003e 002B     		cmp	r3, #0
 502 0040 F8D1     		bne	.L35
 409:Drivers/STM32H7xx_HAL_Driver/Src/stm32h7xx_hal_sdram.c **** 
 503              		.loc 1 409 5 view .LVU116
 409:Drivers/STM32H7xx_HAL_Driver/Src/stm32h7xx_hal_sdram.c **** 
 504              		.loc 1 409 19 is_stmt 0 view .LVU117
 505 0042 8EF82C00 		strb	r0, [lr, #44]
 412:Drivers/STM32H7xx_HAL_Driver/Src/stm32h7xx_hal_sdram.c ****   }
 506              		.loc 1 412 5 is_stmt 1 view .LVU118
 412:Drivers/STM32H7xx_HAL_Driver/Src/stm32h7xx_hal_sdram.c ****   }
 507              		.loc 1 412 5 view .LVU119
 508 0046 0020     		movs	r0, #0
 509              	.LVL35:
 412:Drivers/STM32H7xx_HAL_Driver/Src/stm32h7xx_hal_sdram.c ****   }
 510              		.loc 1 412 5 is_stmt 0 view .LVU120
 511 0048 8EF82D00 		strb	r0, [lr, #45]
 412:Drivers/STM32H7xx_HAL_Driver/Src/stm32h7xx_hal_sdram.c ****   }
 512              		.loc 1 412 5 is_stmt 1 view .LVU121
ARM GAS  /tmp/ccZHMbbp.s 			page 34


 419:Drivers/STM32H7xx_HAL_Driver/Src/stm32h7xx_hal_sdram.c **** }
 513              		.loc 1 419 3 view .LVU122
 514              	.LVL36:
 515              	.L33:
 420:Drivers/STM32H7xx_HAL_Driver/Src/stm32h7xx_hal_sdram.c **** 
 516              		.loc 1 420 1 is_stmt 0 view .LVU123
 517 004c 5DF804FB 		ldr	pc, [sp], #4
 518              	.LVL37:
 519              	.L36:
 416:Drivers/STM32H7xx_HAL_Driver/Src/stm32h7xx_hal_sdram.c ****   }
 520              		.loc 1 416 13 view .LVU124
 521 0050 0120     		movs	r0, #1
 522              	.LVL38:
 416:Drivers/STM32H7xx_HAL_Driver/Src/stm32h7xx_hal_sdram.c ****   }
 523              		.loc 1 416 13 view .LVU125
 524 0052 FBE7     		b	.L33
 525              	.LVL39:
 526              	.L37:
 395:Drivers/STM32H7xx_HAL_Driver/Src/stm32h7xx_hal_sdram.c **** 
 527              		.loc 1 395 5 discriminator 1 view .LVU126
 528 0054 0220     		movs	r0, #2
 529              	.LVL40:
 395:Drivers/STM32H7xx_HAL_Driver/Src/stm32h7xx_hal_sdram.c **** 
 530              		.loc 1 395 5 discriminator 1 view .LVU127
 531 0056 F9E7     		b	.L33
 532              		.cfi_endproc
 533              	.LFE152:
 535              		.section	.text.HAL_SDRAM_Write_8b,"ax",%progbits
 536              		.align	1
 537              		.global	HAL_SDRAM_Write_8b
 538              		.syntax unified
 539              		.thumb
 540              		.thumb_func
 542              	HAL_SDRAM_Write_8b:
 543              	.LVL41:
 544              	.LFB153:
 433:Drivers/STM32H7xx_HAL_Driver/Src/stm32h7xx_hal_sdram.c ****   uint32_t size;
 545              		.loc 1 433 1 is_stmt 1 view -0
 546              		.cfi_startproc
 547              		@ args = 0, pretend = 0, frame = 0
 548              		@ frame_needed = 0, uses_anonymous_args = 0
 433:Drivers/STM32H7xx_HAL_Driver/Src/stm32h7xx_hal_sdram.c ****   uint32_t size;
 549              		.loc 1 433 1 is_stmt 0 view .LVU129
 550 0000 00B5     		push	{lr}
 551              	.LCFI8:
 552              		.cfi_def_cfa_offset 4
 553              		.cfi_offset 14, -4
 554 0002 8646     		mov	lr, r0
 434:Drivers/STM32H7xx_HAL_Driver/Src/stm32h7xx_hal_sdram.c ****   __IO uint8_t *pSdramAddress = (uint8_t *)pAddress;
 555              		.loc 1 434 3 is_stmt 1 view .LVU130
 435:Drivers/STM32H7xx_HAL_Driver/Src/stm32h7xx_hal_sdram.c ****   uint8_t *psrcbuff = pSrcBuffer;
 556              		.loc 1 435 3 view .LVU131
 557              	.LVL42:
 436:Drivers/STM32H7xx_HAL_Driver/Src/stm32h7xx_hal_sdram.c **** 
 558              		.loc 1 436 3 view .LVU132
 439:Drivers/STM32H7xx_HAL_Driver/Src/stm32h7xx_hal_sdram.c ****   {
 559              		.loc 1 439 3 view .LVU133
ARM GAS  /tmp/ccZHMbbp.s 			page 35


 439:Drivers/STM32H7xx_HAL_Driver/Src/stm32h7xx_hal_sdram.c ****   {
 560              		.loc 1 439 13 is_stmt 0 view .LVU134
 561 0004 90F82CC0 		ldrb	ip, [r0, #44]	@ zero_extendqisi2
 562 0008 5FFA8CF0 		uxtb	r0, ip
 563              	.LVL43:
 439:Drivers/STM32H7xx_HAL_Driver/Src/stm32h7xx_hal_sdram.c ****   {
 564              		.loc 1 439 6 view .LVU135
 565 000c 0228     		cmp	r0, #2
 566 000e 1ED0     		beq	.L40
 443:Drivers/STM32H7xx_HAL_Driver/Src/stm32h7xx_hal_sdram.c ****   {
 567              		.loc 1 443 8 is_stmt 1 view .LVU136
 443:Drivers/STM32H7xx_HAL_Driver/Src/stm32h7xx_hal_sdram.c ****   {
 568              		.loc 1 443 18 is_stmt 0 view .LVU137
 569 0010 9EF82C00 		ldrb	r0, [lr, #44]	@ zero_extendqisi2
 570 0014 C0B2     		uxtb	r0, r0
 443:Drivers/STM32H7xx_HAL_Driver/Src/stm32h7xx_hal_sdram.c ****   {
 571              		.loc 1 443 11 view .LVU138
 572 0016 0128     		cmp	r0, #1
 573 0018 18D1     		bne	.L43
 446:Drivers/STM32H7xx_HAL_Driver/Src/stm32h7xx_hal_sdram.c **** 
 574              		.loc 1 446 5 is_stmt 1 view .LVU139
 446:Drivers/STM32H7xx_HAL_Driver/Src/stm32h7xx_hal_sdram.c **** 
 575              		.loc 1 446 5 view .LVU140
 576 001a 9EF82D00 		ldrb	r0, [lr, #45]	@ zero_extendqisi2
 577 001e 0128     		cmp	r0, #1
 578 0020 17D0     		beq	.L44
 446:Drivers/STM32H7xx_HAL_Driver/Src/stm32h7xx_hal_sdram.c **** 
 579              		.loc 1 446 5 discriminator 2 view .LVU141
 580 0022 0120     		movs	r0, #1
 581 0024 8EF82D00 		strb	r0, [lr, #45]
 446:Drivers/STM32H7xx_HAL_Driver/Src/stm32h7xx_hal_sdram.c **** 
 582              		.loc 1 446 5 discriminator 2 view .LVU142
 449:Drivers/STM32H7xx_HAL_Driver/Src/stm32h7xx_hal_sdram.c **** 
 583              		.loc 1 449 5 view .LVU143
 449:Drivers/STM32H7xx_HAL_Driver/Src/stm32h7xx_hal_sdram.c **** 
 584              		.loc 1 449 19 is_stmt 0 view .LVU144
 585 0028 0220     		movs	r0, #2
 586 002a 8EF82C00 		strb	r0, [lr, #44]
 452:Drivers/STM32H7xx_HAL_Driver/Src/stm32h7xx_hal_sdram.c ****     {
 587              		.loc 1 452 5 is_stmt 1 view .LVU145
 588              	.LVL44:
 452:Drivers/STM32H7xx_HAL_Driver/Src/stm32h7xx_hal_sdram.c ****     {
 589              		.loc 1 452 5 is_stmt 0 view .LVU146
 590 002e 04E0     		b	.L41
 591              	.LVL45:
 592              	.L42:
 454:Drivers/STM32H7xx_HAL_Driver/Src/stm32h7xx_hal_sdram.c ****       psrcbuff++;
 593              		.loc 1 454 7 is_stmt 1 view .LVU147
 454:Drivers/STM32H7xx_HAL_Driver/Src/stm32h7xx_hal_sdram.c ****       psrcbuff++;
 594              		.loc 1 454 40 is_stmt 0 view .LVU148
 595 0030 12F8010B 		ldrb	r0, [r2], #1	@ zero_extendqisi2
 596              	.LVL46:
 454:Drivers/STM32H7xx_HAL_Driver/Src/stm32h7xx_hal_sdram.c ****       psrcbuff++;
 597              		.loc 1 454 38 view .LVU149
 598 0034 01F8010B 		strb	r0, [r1], #1
 599              	.LVL47:
 455:Drivers/STM32H7xx_HAL_Driver/Src/stm32h7xx_hal_sdram.c ****       pSdramAddress++;
ARM GAS  /tmp/ccZHMbbp.s 			page 36


 600              		.loc 1 455 7 is_stmt 1 view .LVU150
 456:Drivers/STM32H7xx_HAL_Driver/Src/stm32h7xx_hal_sdram.c ****     }
 601              		.loc 1 456 7 view .LVU151
 452:Drivers/STM32H7xx_HAL_Driver/Src/stm32h7xx_hal_sdram.c ****     {
 602              		.loc 1 452 45 discriminator 3 view .LVU152
 603 0038 013B     		subs	r3, r3, #1
 604              	.LVL48:
 605              	.L41:
 452:Drivers/STM32H7xx_HAL_Driver/Src/stm32h7xx_hal_sdram.c ****     {
 606              		.loc 1 452 34 discriminator 1 view .LVU153
 607 003a 002B     		cmp	r3, #0
 608 003c F8D1     		bne	.L42
 460:Drivers/STM32H7xx_HAL_Driver/Src/stm32h7xx_hal_sdram.c **** 
 609              		.loc 1 460 5 view .LVU154
 460:Drivers/STM32H7xx_HAL_Driver/Src/stm32h7xx_hal_sdram.c **** 
 610              		.loc 1 460 19 is_stmt 0 view .LVU155
 611 003e 0123     		movs	r3, #1
 612              	.LVL49:
 460:Drivers/STM32H7xx_HAL_Driver/Src/stm32h7xx_hal_sdram.c **** 
 613              		.loc 1 460 19 view .LVU156
 614 0040 8EF82C30 		strb	r3, [lr, #44]
 463:Drivers/STM32H7xx_HAL_Driver/Src/stm32h7xx_hal_sdram.c ****   }
 615              		.loc 1 463 5 is_stmt 1 view .LVU157
 463:Drivers/STM32H7xx_HAL_Driver/Src/stm32h7xx_hal_sdram.c ****   }
 616              		.loc 1 463 5 view .LVU158
 617 0044 0020     		movs	r0, #0
 618 0046 8EF82D00 		strb	r0, [lr, #45]
 463:Drivers/STM32H7xx_HAL_Driver/Src/stm32h7xx_hal_sdram.c ****   }
 619              		.loc 1 463 5 view .LVU159
 470:Drivers/STM32H7xx_HAL_Driver/Src/stm32h7xx_hal_sdram.c **** }
 620              		.loc 1 470 3 view .LVU160
 470:Drivers/STM32H7xx_HAL_Driver/Src/stm32h7xx_hal_sdram.c **** }
 621              		.loc 1 470 10 is_stmt 0 view .LVU161
 622 004a 00E0     		b	.L40
 623              	.LVL50:
 624              	.L43:
 467:Drivers/STM32H7xx_HAL_Driver/Src/stm32h7xx_hal_sdram.c ****   }
 625              		.loc 1 467 13 view .LVU162
 626 004c 0120     		movs	r0, #1
 627              	.LVL51:
 628              	.L40:
 471:Drivers/STM32H7xx_HAL_Driver/Src/stm32h7xx_hal_sdram.c **** 
 629              		.loc 1 471 1 view .LVU163
 630 004e 5DF804FB 		ldr	pc, [sp], #4
 631              	.LVL52:
 632              	.L44:
 446:Drivers/STM32H7xx_HAL_Driver/Src/stm32h7xx_hal_sdram.c **** 
 633              		.loc 1 446 5 discriminator 1 view .LVU164
 634 0052 0220     		movs	r0, #2
 635 0054 FBE7     		b	.L40
 636              		.cfi_endproc
 637              	.LFE153:
 639              		.section	.text.HAL_SDRAM_Read_16b,"ax",%progbits
 640              		.align	1
 641              		.global	HAL_SDRAM_Read_16b
 642              		.syntax unified
 643              		.thumb
ARM GAS  /tmp/ccZHMbbp.s 			page 37


 644              		.thumb_func
 646              	HAL_SDRAM_Read_16b:
 647              	.LVL53:
 648              	.LFB154:
 484:Drivers/STM32H7xx_HAL_Driver/Src/stm32h7xx_hal_sdram.c ****   uint32_t size;
 649              		.loc 1 484 1 is_stmt 1 view -0
 650              		.cfi_startproc
 651              		@ args = 0, pretend = 0, frame = 0
 652              		@ frame_needed = 0, uses_anonymous_args = 0
 484:Drivers/STM32H7xx_HAL_Driver/Src/stm32h7xx_hal_sdram.c ****   uint32_t size;
 653              		.loc 1 484 1 is_stmt 0 view .LVU166
 654 0000 30B5     		push	{r4, r5, lr}
 655              	.LCFI9:
 656              		.cfi_def_cfa_offset 12
 657              		.cfi_offset 4, -12
 658              		.cfi_offset 5, -8
 659              		.cfi_offset 14, -4
 660 0002 0546     		mov	r5, r0
 485:Drivers/STM32H7xx_HAL_Driver/Src/stm32h7xx_hal_sdram.c ****   __IO uint32_t *pSdramAddress = pAddress;
 661              		.loc 1 485 3 is_stmt 1 view .LVU167
 486:Drivers/STM32H7xx_HAL_Driver/Src/stm32h7xx_hal_sdram.c ****   uint16_t *pdestbuff = pDstBuffer;
 662              		.loc 1 486 3 view .LVU168
 663              	.LVL54:
 487:Drivers/STM32H7xx_HAL_Driver/Src/stm32h7xx_hal_sdram.c ****   HAL_SDRAM_StateTypeDef state = hsdram->State;
 664              		.loc 1 487 3 view .LVU169
 488:Drivers/STM32H7xx_HAL_Driver/Src/stm32h7xx_hal_sdram.c **** 
 665              		.loc 1 488 3 view .LVU170
 488:Drivers/STM32H7xx_HAL_Driver/Src/stm32h7xx_hal_sdram.c **** 
 666              		.loc 1 488 26 is_stmt 0 view .LVU171
 667 0004 90F82C40 		ldrb	r4, [r0, #44]	@ zero_extendqisi2
 668 0008 E0B2     		uxtb	r0, r4
 669              	.LVL55:
 491:Drivers/STM32H7xx_HAL_Driver/Src/stm32h7xx_hal_sdram.c ****   {
 670              		.loc 1 491 3 is_stmt 1 view .LVU172
 491:Drivers/STM32H7xx_HAL_Driver/Src/stm32h7xx_hal_sdram.c ****   {
 671              		.loc 1 491 6 is_stmt 0 view .LVU173
 672 000a 0228     		cmp	r0, #2
 673 000c 27D0     		beq	.L47
 495:Drivers/STM32H7xx_HAL_Driver/Src/stm32h7xx_hal_sdram.c ****   {
 674              		.loc 1 495 8 is_stmt 1 view .LVU174
 495:Drivers/STM32H7xx_HAL_Driver/Src/stm32h7xx_hal_sdram.c ****   {
 675              		.loc 1 495 11 is_stmt 0 view .LVU175
 676 000e 0428     		cmp	r0, #4
 677 0010 18BF     		it	ne
 678 0012 0128     		cmpne	r0, #1
 679 0014 24D1     		bne	.L51
 498:Drivers/STM32H7xx_HAL_Driver/Src/stm32h7xx_hal_sdram.c **** 
 680              		.loc 1 498 5 is_stmt 1 view .LVU176
 498:Drivers/STM32H7xx_HAL_Driver/Src/stm32h7xx_hal_sdram.c **** 
 681              		.loc 1 498 5 view .LVU177
 682 0016 95F82D40 		ldrb	r4, [r5, #45]	@ zero_extendqisi2
 683 001a 012C     		cmp	r4, #1
 684 001c 22D0     		beq	.L52
 498:Drivers/STM32H7xx_HAL_Driver/Src/stm32h7xx_hal_sdram.c **** 
 685              		.loc 1 498 5 discriminator 2 view .LVU178
 686 001e 0124     		movs	r4, #1
 687 0020 85F82D40 		strb	r4, [r5, #45]
ARM GAS  /tmp/ccZHMbbp.s 			page 38


 498:Drivers/STM32H7xx_HAL_Driver/Src/stm32h7xx_hal_sdram.c **** 
 688              		.loc 1 498 5 discriminator 2 view .LVU179
 501:Drivers/STM32H7xx_HAL_Driver/Src/stm32h7xx_hal_sdram.c **** 
 689              		.loc 1 501 5 view .LVU180
 501:Drivers/STM32H7xx_HAL_Driver/Src/stm32h7xx_hal_sdram.c **** 
 690              		.loc 1 501 19 is_stmt 0 view .LVU181
 691 0024 0224     		movs	r4, #2
 692 0026 85F82C40 		strb	r4, [r5, #44]
 504:Drivers/STM32H7xx_HAL_Driver/Src/stm32h7xx_hal_sdram.c ****     {
 693              		.loc 1 504 5 is_stmt 1 view .LVU182
 694              	.LVL56:
 504:Drivers/STM32H7xx_HAL_Driver/Src/stm32h7xx_hal_sdram.c ****     {
 695              		.loc 1 504 15 is_stmt 0 view .LVU183
 696 002a 9E46     		mov	lr, r3
 504:Drivers/STM32H7xx_HAL_Driver/Src/stm32h7xx_hal_sdram.c ****     {
 697              		.loc 1 504 5 view .LVU184
 698 002c 0AE0     		b	.L48
 699              	.LVL57:
 700              	.L49:
 506:Drivers/STM32H7xx_HAL_Driver/Src/stm32h7xx_hal_sdram.c ****       pdestbuff++;
 701              		.loc 1 506 7 is_stmt 1 view .LVU185
 506:Drivers/STM32H7xx_HAL_Driver/Src/stm32h7xx_hal_sdram.c ****       pdestbuff++;
 702              		.loc 1 506 32 is_stmt 0 view .LVU186
 703 002e 0C68     		ldr	r4, [r1]
 506:Drivers/STM32H7xx_HAL_Driver/Src/stm32h7xx_hal_sdram.c ****       pdestbuff++;
 704              		.loc 1 506 18 view .LVU187
 705 0030 1480     		strh	r4, [r2]	@ movhi
 507:Drivers/STM32H7xx_HAL_Driver/Src/stm32h7xx_hal_sdram.c ****       *pdestbuff = (uint16_t)(((*pSdramAddress) & 0xFFFF0000U) >> 16U);
 706              		.loc 1 507 7 is_stmt 1 view .LVU188
 707              	.LVL58:
 508:Drivers/STM32H7xx_HAL_Driver/Src/stm32h7xx_hal_sdram.c ****       pdestbuff++;
 708              		.loc 1 508 7 view .LVU189
 508:Drivers/STM32H7xx_HAL_Driver/Src/stm32h7xx_hal_sdram.c ****       pdestbuff++;
 709              		.loc 1 508 33 is_stmt 0 view .LVU190
 710 0032 51F8044B 		ldr	r4, [r1], #4
 711              	.LVL59:
 508:Drivers/STM32H7xx_HAL_Driver/Src/stm32h7xx_hal_sdram.c ****       pdestbuff++;
 712              		.loc 1 508 20 view .LVU191
 713 0036 4FEA144C 		lsr	ip, r4, #16
 508:Drivers/STM32H7xx_HAL_Driver/Src/stm32h7xx_hal_sdram.c ****       pdestbuff++;
 714              		.loc 1 508 18 view .LVU192
 715 003a A2F802C0 		strh	ip, [r2, #2]	@ movhi
 509:Drivers/STM32H7xx_HAL_Driver/Src/stm32h7xx_hal_sdram.c ****       pSdramAddress++;
 716              		.loc 1 509 7 is_stmt 1 view .LVU193
 509:Drivers/STM32H7xx_HAL_Driver/Src/stm32h7xx_hal_sdram.c ****       pSdramAddress++;
 717              		.loc 1 509 16 is_stmt 0 view .LVU194
 718 003e 0432     		adds	r2, r2, #4
 719              	.LVL60:
 510:Drivers/STM32H7xx_HAL_Driver/Src/stm32h7xx_hal_sdram.c ****     }
 720              		.loc 1 510 7 is_stmt 1 view .LVU195
 504:Drivers/STM32H7xx_HAL_Driver/Src/stm32h7xx_hal_sdram.c ****     {
 721              		.loc 1 504 47 discriminator 3 view .LVU196
 722 0040 AEF1020E 		sub	lr, lr, #2
 723              	.LVL61:
 724              	.L48:
 504:Drivers/STM32H7xx_HAL_Driver/Src/stm32h7xx_hal_sdram.c ****     {
 725              		.loc 1 504 34 discriminator 1 view .LVU197
ARM GAS  /tmp/ccZHMbbp.s 			page 39


 726 0044 BEF1010F 		cmp	lr, #1
 727 0048 F1D8     		bhi	.L49
 514:Drivers/STM32H7xx_HAL_Driver/Src/stm32h7xx_hal_sdram.c ****     {
 728              		.loc 1 514 5 view .LVU198
 514:Drivers/STM32H7xx_HAL_Driver/Src/stm32h7xx_hal_sdram.c ****     {
 729              		.loc 1 514 8 is_stmt 0 view .LVU199
 730 004a 13F0010F 		tst	r3, #1
 731 004e 01D0     		beq	.L50
 516:Drivers/STM32H7xx_HAL_Driver/Src/stm32h7xx_hal_sdram.c ****     }
 732              		.loc 1 516 7 is_stmt 1 view .LVU200
 516:Drivers/STM32H7xx_HAL_Driver/Src/stm32h7xx_hal_sdram.c ****     }
 733              		.loc 1 516 32 is_stmt 0 view .LVU201
 734 0050 0B68     		ldr	r3, [r1]
 735              	.LVL62:
 516:Drivers/STM32H7xx_HAL_Driver/Src/stm32h7xx_hal_sdram.c ****     }
 736              		.loc 1 516 18 view .LVU202
 737 0052 1380     		strh	r3, [r2]	@ movhi
 738              	.L50:
 520:Drivers/STM32H7xx_HAL_Driver/Src/stm32h7xx_hal_sdram.c **** 
 739              		.loc 1 520 5 is_stmt 1 view .LVU203
 520:Drivers/STM32H7xx_HAL_Driver/Src/stm32h7xx_hal_sdram.c **** 
 740              		.loc 1 520 19 is_stmt 0 view .LVU204
 741 0054 85F82C00 		strb	r0, [r5, #44]
 523:Drivers/STM32H7xx_HAL_Driver/Src/stm32h7xx_hal_sdram.c ****   }
 742              		.loc 1 523 5 is_stmt 1 view .LVU205
 523:Drivers/STM32H7xx_HAL_Driver/Src/stm32h7xx_hal_sdram.c ****   }
 743              		.loc 1 523 5 view .LVU206
 744 0058 0020     		movs	r0, #0
 745              	.LVL63:
 523:Drivers/STM32H7xx_HAL_Driver/Src/stm32h7xx_hal_sdram.c ****   }
 746              		.loc 1 523 5 is_stmt 0 view .LVU207
 747 005a 85F82D00 		strb	r0, [r5, #45]
 523:Drivers/STM32H7xx_HAL_Driver/Src/stm32h7xx_hal_sdram.c ****   }
 748              		.loc 1 523 5 is_stmt 1 view .LVU208
 530:Drivers/STM32H7xx_HAL_Driver/Src/stm32h7xx_hal_sdram.c **** }
 749              		.loc 1 530 3 view .LVU209
 750              	.LVL64:
 751              	.L47:
 531:Drivers/STM32H7xx_HAL_Driver/Src/stm32h7xx_hal_sdram.c **** 
 752              		.loc 1 531 1 is_stmt 0 view .LVU210
 753 005e 30BD     		pop	{r4, r5, pc}
 754              	.LVL65:
 755              	.L51:
 527:Drivers/STM32H7xx_HAL_Driver/Src/stm32h7xx_hal_sdram.c ****   }
 756              		.loc 1 527 13 view .LVU211
 757 0060 0120     		movs	r0, #1
 758              	.LVL66:
 527:Drivers/STM32H7xx_HAL_Driver/Src/stm32h7xx_hal_sdram.c ****   }
 759              		.loc 1 527 13 view .LVU212
 760 0062 FCE7     		b	.L47
 761              	.LVL67:
 762              	.L52:
 498:Drivers/STM32H7xx_HAL_Driver/Src/stm32h7xx_hal_sdram.c **** 
 763              		.loc 1 498 5 discriminator 1 view .LVU213
 764 0064 0220     		movs	r0, #2
 765              	.LVL68:
 498:Drivers/STM32H7xx_HAL_Driver/Src/stm32h7xx_hal_sdram.c **** 
ARM GAS  /tmp/ccZHMbbp.s 			page 40


 766              		.loc 1 498 5 discriminator 1 view .LVU214
 767 0066 FAE7     		b	.L47
 768              		.cfi_endproc
 769              	.LFE154:
 771              		.section	.text.HAL_SDRAM_Write_16b,"ax",%progbits
 772              		.align	1
 773              		.global	HAL_SDRAM_Write_16b
 774              		.syntax unified
 775              		.thumb
 776              		.thumb_func
 778              	HAL_SDRAM_Write_16b:
 779              	.LVL69:
 780              	.LFB155:
 544:Drivers/STM32H7xx_HAL_Driver/Src/stm32h7xx_hal_sdram.c ****   uint32_t size;
 781              		.loc 1 544 1 is_stmt 1 view -0
 782              		.cfi_startproc
 783              		@ args = 0, pretend = 0, frame = 0
 784              		@ frame_needed = 0, uses_anonymous_args = 0
 544:Drivers/STM32H7xx_HAL_Driver/Src/stm32h7xx_hal_sdram.c ****   uint32_t size;
 785              		.loc 1 544 1 is_stmt 0 view .LVU216
 786 0000 10B5     		push	{r4, lr}
 787              	.LCFI10:
 788              		.cfi_def_cfa_offset 8
 789              		.cfi_offset 4, -8
 790              		.cfi_offset 14, -4
 791 0002 8646     		mov	lr, r0
 545:Drivers/STM32H7xx_HAL_Driver/Src/stm32h7xx_hal_sdram.c ****   __IO uint32_t *psdramaddress = pAddress;
 792              		.loc 1 545 3 is_stmt 1 view .LVU217
 546:Drivers/STM32H7xx_HAL_Driver/Src/stm32h7xx_hal_sdram.c ****   uint16_t *psrcbuff = pSrcBuffer;
 793              		.loc 1 546 3 view .LVU218
 794              	.LVL70:
 547:Drivers/STM32H7xx_HAL_Driver/Src/stm32h7xx_hal_sdram.c **** 
 795              		.loc 1 547 3 view .LVU219
 550:Drivers/STM32H7xx_HAL_Driver/Src/stm32h7xx_hal_sdram.c ****   {
 796              		.loc 1 550 3 view .LVU220
 550:Drivers/STM32H7xx_HAL_Driver/Src/stm32h7xx_hal_sdram.c ****   {
 797              		.loc 1 550 13 is_stmt 0 view .LVU221
 798 0004 90F82C40 		ldrb	r4, [r0, #44]	@ zero_extendqisi2
 799 0008 E0B2     		uxtb	r0, r4
 800              	.LVL71:
 550:Drivers/STM32H7xx_HAL_Driver/Src/stm32h7xx_hal_sdram.c ****   {
 801              		.loc 1 550 6 view .LVU222
 802 000a 0228     		cmp	r0, #2
 803 000c 2FD0     		beq	.L55
 554:Drivers/STM32H7xx_HAL_Driver/Src/stm32h7xx_hal_sdram.c ****   {
 804              		.loc 1 554 8 is_stmt 1 view .LVU223
 554:Drivers/STM32H7xx_HAL_Driver/Src/stm32h7xx_hal_sdram.c ****   {
 805              		.loc 1 554 18 is_stmt 0 view .LVU224
 806 000e 9EF82C00 		ldrb	r0, [lr, #44]	@ zero_extendqisi2
 807 0012 C0B2     		uxtb	r0, r0
 554:Drivers/STM32H7xx_HAL_Driver/Src/stm32h7xx_hal_sdram.c ****   {
 808              		.loc 1 554 11 view .LVU225
 809 0014 0128     		cmp	r0, #1
 810 0016 29D1     		bne	.L59
 557:Drivers/STM32H7xx_HAL_Driver/Src/stm32h7xx_hal_sdram.c **** 
 811              		.loc 1 557 5 is_stmt 1 view .LVU226
 557:Drivers/STM32H7xx_HAL_Driver/Src/stm32h7xx_hal_sdram.c **** 
ARM GAS  /tmp/ccZHMbbp.s 			page 41


 812              		.loc 1 557 5 view .LVU227
 813 0018 9EF82D00 		ldrb	r0, [lr, #45]	@ zero_extendqisi2
 814 001c 0128     		cmp	r0, #1
 815 001e 27D0     		beq	.L60
 557:Drivers/STM32H7xx_HAL_Driver/Src/stm32h7xx_hal_sdram.c **** 
 816              		.loc 1 557 5 discriminator 2 view .LVU228
 817 0020 0120     		movs	r0, #1
 818 0022 8EF82D00 		strb	r0, [lr, #45]
 557:Drivers/STM32H7xx_HAL_Driver/Src/stm32h7xx_hal_sdram.c **** 
 819              		.loc 1 557 5 discriminator 2 view .LVU229
 560:Drivers/STM32H7xx_HAL_Driver/Src/stm32h7xx_hal_sdram.c **** 
 820              		.loc 1 560 5 view .LVU230
 560:Drivers/STM32H7xx_HAL_Driver/Src/stm32h7xx_hal_sdram.c **** 
 821              		.loc 1 560 19 is_stmt 0 view .LVU231
 822 0026 0220     		movs	r0, #2
 823 0028 8EF82C00 		strb	r0, [lr, #44]
 563:Drivers/STM32H7xx_HAL_Driver/Src/stm32h7xx_hal_sdram.c ****     {
 824              		.loc 1 563 5 is_stmt 1 view .LVU232
 825              	.LVL72:
 563:Drivers/STM32H7xx_HAL_Driver/Src/stm32h7xx_hal_sdram.c ****     {
 826              		.loc 1 563 15 is_stmt 0 view .LVU233
 827 002c 9C46     		mov	ip, r3
 563:Drivers/STM32H7xx_HAL_Driver/Src/stm32h7xx_hal_sdram.c ****     {
 828              		.loc 1 563 5 view .LVU234
 829 002e 0AE0     		b	.L56
 830              	.LVL73:
 831              	.L57:
 565:Drivers/STM32H7xx_HAL_Driver/Src/stm32h7xx_hal_sdram.c ****       psrcbuff++;
 832              		.loc 1 565 7 is_stmt 1 view .LVU235
 565:Drivers/STM32H7xx_HAL_Driver/Src/stm32h7xx_hal_sdram.c ****       psrcbuff++;
 833              		.loc 1 565 35 is_stmt 0 view .LVU236
 834 0030 1088     		ldrh	r0, [r2]
 565:Drivers/STM32H7xx_HAL_Driver/Src/stm32h7xx_hal_sdram.c ****       psrcbuff++;
 835              		.loc 1 565 22 view .LVU237
 836 0032 0860     		str	r0, [r1]
 566:Drivers/STM32H7xx_HAL_Driver/Src/stm32h7xx_hal_sdram.c ****       *psdramaddress |= ((uint32_t)(*psrcbuff) << 16U);
 837              		.loc 1 566 7 is_stmt 1 view .LVU238
 838              	.LVL74:
 567:Drivers/STM32H7xx_HAL_Driver/Src/stm32h7xx_hal_sdram.c ****       psrcbuff++;
 839              		.loc 1 567 7 view .LVU239
 840 0034 0C68     		ldr	r4, [r1]
 567:Drivers/STM32H7xx_HAL_Driver/Src/stm32h7xx_hal_sdram.c ****       psrcbuff++;
 841              		.loc 1 567 37 is_stmt 0 view .LVU240
 842 0036 5088     		ldrh	r0, [r2, #2]
 567:Drivers/STM32H7xx_HAL_Driver/Src/stm32h7xx_hal_sdram.c ****       psrcbuff++;
 843              		.loc 1 567 22 view .LVU241
 844 0038 44EA0044 		orr	r4, r4, r0, lsl #16
 845 003c 41F8044B 		str	r4, [r1], #4
 846              	.LVL75:
 568:Drivers/STM32H7xx_HAL_Driver/Src/stm32h7xx_hal_sdram.c ****       psdramaddress++;
 847              		.loc 1 568 7 is_stmt 1 view .LVU242
 568:Drivers/STM32H7xx_HAL_Driver/Src/stm32h7xx_hal_sdram.c ****       psdramaddress++;
 848              		.loc 1 568 15 is_stmt 0 view .LVU243
 849 0040 0432     		adds	r2, r2, #4
 850              	.LVL76:
 569:Drivers/STM32H7xx_HAL_Driver/Src/stm32h7xx_hal_sdram.c ****     }
 851              		.loc 1 569 7 is_stmt 1 view .LVU244
ARM GAS  /tmp/ccZHMbbp.s 			page 42


 563:Drivers/STM32H7xx_HAL_Driver/Src/stm32h7xx_hal_sdram.c ****     {
 852              		.loc 1 563 47 discriminator 3 view .LVU245
 853 0042 ACF1020C 		sub	ip, ip, #2
 854              	.LVL77:
 855              	.L56:
 563:Drivers/STM32H7xx_HAL_Driver/Src/stm32h7xx_hal_sdram.c ****     {
 856              		.loc 1 563 34 discriminator 1 view .LVU246
 857 0046 BCF1010F 		cmp	ip, #1
 858 004a F1D8     		bhi	.L57
 573:Drivers/STM32H7xx_HAL_Driver/Src/stm32h7xx_hal_sdram.c ****     {
 859              		.loc 1 573 5 view .LVU247
 573:Drivers/STM32H7xx_HAL_Driver/Src/stm32h7xx_hal_sdram.c ****     {
 860              		.loc 1 573 8 is_stmt 0 view .LVU248
 861 004c 13F0010F 		tst	r3, #1
 862 0050 05D0     		beq	.L58
 575:Drivers/STM32H7xx_HAL_Driver/Src/stm32h7xx_hal_sdram.c ****     }
 863              		.loc 1 575 7 is_stmt 1 view .LVU249
 575:Drivers/STM32H7xx_HAL_Driver/Src/stm32h7xx_hal_sdram.c ****     }
 864              		.loc 1 575 36 is_stmt 0 view .LVU250
 865 0052 1388     		ldrh	r3, [r2]
 866              	.LVL78:
 575:Drivers/STM32H7xx_HAL_Driver/Src/stm32h7xx_hal_sdram.c ****     }
 867              		.loc 1 575 66 view .LVU251
 868 0054 0A68     		ldr	r2, [r1]
 869              	.LVL79:
 575:Drivers/STM32H7xx_HAL_Driver/Src/stm32h7xx_hal_sdram.c ****     }
 870              		.loc 1 575 82 view .LVU252
 871 0056 6FF30F02 		bfc	r2, #0, #16
 575:Drivers/STM32H7xx_HAL_Driver/Src/stm32h7xx_hal_sdram.c ****     }
 872              		.loc 1 575 62 view .LVU253
 873 005a 1343     		orrs	r3, r3, r2
 575:Drivers/STM32H7xx_HAL_Driver/Src/stm32h7xx_hal_sdram.c ****     }
 874              		.loc 1 575 22 view .LVU254
 875 005c 0B60     		str	r3, [r1]
 876              	.L58:
 579:Drivers/STM32H7xx_HAL_Driver/Src/stm32h7xx_hal_sdram.c **** 
 877              		.loc 1 579 5 is_stmt 1 view .LVU255
 579:Drivers/STM32H7xx_HAL_Driver/Src/stm32h7xx_hal_sdram.c **** 
 878              		.loc 1 579 19 is_stmt 0 view .LVU256
 879 005e 0123     		movs	r3, #1
 880 0060 8EF82C30 		strb	r3, [lr, #44]
 582:Drivers/STM32H7xx_HAL_Driver/Src/stm32h7xx_hal_sdram.c ****   }
 881              		.loc 1 582 5 is_stmt 1 view .LVU257
 582:Drivers/STM32H7xx_HAL_Driver/Src/stm32h7xx_hal_sdram.c ****   }
 882              		.loc 1 582 5 view .LVU258
 883 0064 0020     		movs	r0, #0
 884 0066 8EF82D00 		strb	r0, [lr, #45]
 582:Drivers/STM32H7xx_HAL_Driver/Src/stm32h7xx_hal_sdram.c ****   }
 885              		.loc 1 582 5 view .LVU259
 589:Drivers/STM32H7xx_HAL_Driver/Src/stm32h7xx_hal_sdram.c **** }
 886              		.loc 1 589 3 view .LVU260
 589:Drivers/STM32H7xx_HAL_Driver/Src/stm32h7xx_hal_sdram.c **** }
 887              		.loc 1 589 10 is_stmt 0 view .LVU261
 888 006a 00E0     		b	.L55
 889              	.LVL80:
 890              	.L59:
 586:Drivers/STM32H7xx_HAL_Driver/Src/stm32h7xx_hal_sdram.c ****   }
ARM GAS  /tmp/ccZHMbbp.s 			page 43


 891              		.loc 1 586 13 view .LVU262
 892 006c 0120     		movs	r0, #1
 893              	.LVL81:
 894              	.L55:
 590:Drivers/STM32H7xx_HAL_Driver/Src/stm32h7xx_hal_sdram.c **** 
 895              		.loc 1 590 1 view .LVU263
 896 006e 10BD     		pop	{r4, pc}
 897              	.LVL82:
 898              	.L60:
 557:Drivers/STM32H7xx_HAL_Driver/Src/stm32h7xx_hal_sdram.c **** 
 899              		.loc 1 557 5 discriminator 1 view .LVU264
 900 0070 0220     		movs	r0, #2
 901 0072 FCE7     		b	.L55
 902              		.cfi_endproc
 903              	.LFE155:
 905              		.section	.text.HAL_SDRAM_Read_32b,"ax",%progbits
 906              		.align	1
 907              		.global	HAL_SDRAM_Read_32b
 908              		.syntax unified
 909              		.thumb
 910              		.thumb_func
 912              	HAL_SDRAM_Read_32b:
 913              	.LVL83:
 914              	.LFB156:
 603:Drivers/STM32H7xx_HAL_Driver/Src/stm32h7xx_hal_sdram.c ****   uint32_t size;
 915              		.loc 1 603 1 is_stmt 1 view -0
 916              		.cfi_startproc
 917              		@ args = 0, pretend = 0, frame = 0
 918              		@ frame_needed = 0, uses_anonymous_args = 0
 603:Drivers/STM32H7xx_HAL_Driver/Src/stm32h7xx_hal_sdram.c ****   uint32_t size;
 919              		.loc 1 603 1 is_stmt 0 view .LVU266
 920 0000 10B5     		push	{r4, lr}
 921              	.LCFI11:
 922              		.cfi_def_cfa_offset 8
 923              		.cfi_offset 4, -8
 924              		.cfi_offset 14, -4
 925 0002 8646     		mov	lr, r0
 604:Drivers/STM32H7xx_HAL_Driver/Src/stm32h7xx_hal_sdram.c ****   __IO uint32_t *pSdramAddress = (uint32_t *)pAddress;
 926              		.loc 1 604 3 is_stmt 1 view .LVU267
 605:Drivers/STM32H7xx_HAL_Driver/Src/stm32h7xx_hal_sdram.c ****   uint32_t *pdestbuff = pDstBuffer;
 927              		.loc 1 605 3 view .LVU268
 928              	.LVL84:
 606:Drivers/STM32H7xx_HAL_Driver/Src/stm32h7xx_hal_sdram.c ****   HAL_SDRAM_StateTypeDef state = hsdram->State;
 929              		.loc 1 606 3 view .LVU269
 607:Drivers/STM32H7xx_HAL_Driver/Src/stm32h7xx_hal_sdram.c **** 
 930              		.loc 1 607 3 view .LVU270
 607:Drivers/STM32H7xx_HAL_Driver/Src/stm32h7xx_hal_sdram.c **** 
 931              		.loc 1 607 26 is_stmt 0 view .LVU271
 932 0004 90F82CC0 		ldrb	ip, [r0, #44]	@ zero_extendqisi2
 933 0008 5FFA8CF0 		uxtb	r0, ip
 934              	.LVL85:
 610:Drivers/STM32H7xx_HAL_Driver/Src/stm32h7xx_hal_sdram.c ****   {
 935              		.loc 1 610 3 is_stmt 1 view .LVU272
 610:Drivers/STM32H7xx_HAL_Driver/Src/stm32h7xx_hal_sdram.c ****   {
 936              		.loc 1 610 6 is_stmt 0 view .LVU273
 937 000c 0228     		cmp	r0, #2
 938 000e 1AD0     		beq	.L63
ARM GAS  /tmp/ccZHMbbp.s 			page 44


 614:Drivers/STM32H7xx_HAL_Driver/Src/stm32h7xx_hal_sdram.c ****   {
 939              		.loc 1 614 8 is_stmt 1 view .LVU274
 614:Drivers/STM32H7xx_HAL_Driver/Src/stm32h7xx_hal_sdram.c ****   {
 940              		.loc 1 614 11 is_stmt 0 view .LVU275
 941 0010 0428     		cmp	r0, #4
 942 0012 18BF     		it	ne
 943 0014 0128     		cmpne	r0, #1
 944 0016 17D1     		bne	.L66
 617:Drivers/STM32H7xx_HAL_Driver/Src/stm32h7xx_hal_sdram.c **** 
 945              		.loc 1 617 5 is_stmt 1 view .LVU276
 617:Drivers/STM32H7xx_HAL_Driver/Src/stm32h7xx_hal_sdram.c **** 
 946              		.loc 1 617 5 view .LVU277
 947 0018 9EF82D40 		ldrb	r4, [lr, #45]	@ zero_extendqisi2
 948 001c 012C     		cmp	r4, #1
 949 001e 15D0     		beq	.L67
 617:Drivers/STM32H7xx_HAL_Driver/Src/stm32h7xx_hal_sdram.c **** 
 950              		.loc 1 617 5 discriminator 2 view .LVU278
 951 0020 0124     		movs	r4, #1
 952 0022 8EF82D40 		strb	r4, [lr, #45]
 617:Drivers/STM32H7xx_HAL_Driver/Src/stm32h7xx_hal_sdram.c **** 
 953              		.loc 1 617 5 discriminator 2 view .LVU279
 620:Drivers/STM32H7xx_HAL_Driver/Src/stm32h7xx_hal_sdram.c **** 
 954              		.loc 1 620 5 view .LVU280
 620:Drivers/STM32H7xx_HAL_Driver/Src/stm32h7xx_hal_sdram.c **** 
 955              		.loc 1 620 19 is_stmt 0 view .LVU281
 956 0026 0224     		movs	r4, #2
 957 0028 8EF82C40 		strb	r4, [lr, #44]
 623:Drivers/STM32H7xx_HAL_Driver/Src/stm32h7xx_hal_sdram.c ****     {
 958              		.loc 1 623 5 is_stmt 1 view .LVU282
 959              	.LVL86:
 623:Drivers/STM32H7xx_HAL_Driver/Src/stm32h7xx_hal_sdram.c ****     {
 960              		.loc 1 623 5 is_stmt 0 view .LVU283
 961 002c 04E0     		b	.L64
 962              	.LVL87:
 963              	.L65:
 625:Drivers/STM32H7xx_HAL_Driver/Src/stm32h7xx_hal_sdram.c ****       pdestbuff++;
 964              		.loc 1 625 7 is_stmt 1 view .LVU284
 625:Drivers/STM32H7xx_HAL_Driver/Src/stm32h7xx_hal_sdram.c ****       pdestbuff++;
 965              		.loc 1 625 20 is_stmt 0 view .LVU285
 966 002e 51F8044B 		ldr	r4, [r1], #4
 967              	.LVL88:
 625:Drivers/STM32H7xx_HAL_Driver/Src/stm32h7xx_hal_sdram.c ****       pdestbuff++;
 968              		.loc 1 625 18 view .LVU286
 969 0032 42F8044B 		str	r4, [r2], #4
 970              	.LVL89:
 626:Drivers/STM32H7xx_HAL_Driver/Src/stm32h7xx_hal_sdram.c ****       pSdramAddress++;
 971              		.loc 1 626 7 is_stmt 1 view .LVU287
 627:Drivers/STM32H7xx_HAL_Driver/Src/stm32h7xx_hal_sdram.c ****     }
 972              		.loc 1 627 7 view .LVU288
 623:Drivers/STM32H7xx_HAL_Driver/Src/stm32h7xx_hal_sdram.c ****     {
 973              		.loc 1 623 45 discriminator 3 view .LVU289
 974 0036 013B     		subs	r3, r3, #1
 975              	.LVL90:
 976              	.L64:
 623:Drivers/STM32H7xx_HAL_Driver/Src/stm32h7xx_hal_sdram.c ****     {
 977              		.loc 1 623 34 discriminator 1 view .LVU290
 978 0038 002B     		cmp	r3, #0
ARM GAS  /tmp/ccZHMbbp.s 			page 45


 979 003a F8D1     		bne	.L65
 631:Drivers/STM32H7xx_HAL_Driver/Src/stm32h7xx_hal_sdram.c **** 
 980              		.loc 1 631 5 view .LVU291
 631:Drivers/STM32H7xx_HAL_Driver/Src/stm32h7xx_hal_sdram.c **** 
 981              		.loc 1 631 19 is_stmt 0 view .LVU292
 982 003c 8EF82C00 		strb	r0, [lr, #44]
 634:Drivers/STM32H7xx_HAL_Driver/Src/stm32h7xx_hal_sdram.c ****   }
 983              		.loc 1 634 5 is_stmt 1 view .LVU293
 634:Drivers/STM32H7xx_HAL_Driver/Src/stm32h7xx_hal_sdram.c ****   }
 984              		.loc 1 634 5 view .LVU294
 985 0040 0020     		movs	r0, #0
 986              	.LVL91:
 634:Drivers/STM32H7xx_HAL_Driver/Src/stm32h7xx_hal_sdram.c ****   }
 987              		.loc 1 634 5 is_stmt 0 view .LVU295
 988 0042 8EF82D00 		strb	r0, [lr, #45]
 634:Drivers/STM32H7xx_HAL_Driver/Src/stm32h7xx_hal_sdram.c ****   }
 989              		.loc 1 634 5 is_stmt 1 view .LVU296
 641:Drivers/STM32H7xx_HAL_Driver/Src/stm32h7xx_hal_sdram.c **** }
 990              		.loc 1 641 3 view .LVU297
 991              	.LVL92:
 992              	.L63:
 642:Drivers/STM32H7xx_HAL_Driver/Src/stm32h7xx_hal_sdram.c **** 
 993              		.loc 1 642 1 is_stmt 0 view .LVU298
 994 0046 10BD     		pop	{r4, pc}
 995              	.LVL93:
 996              	.L66:
 638:Drivers/STM32H7xx_HAL_Driver/Src/stm32h7xx_hal_sdram.c ****   }
 997              		.loc 1 638 13 view .LVU299
 998 0048 0120     		movs	r0, #1
 999              	.LVL94:
 638:Drivers/STM32H7xx_HAL_Driver/Src/stm32h7xx_hal_sdram.c ****   }
 1000              		.loc 1 638 13 view .LVU300
 1001 004a FCE7     		b	.L63
 1002              	.LVL95:
 1003              	.L67:
 617:Drivers/STM32H7xx_HAL_Driver/Src/stm32h7xx_hal_sdram.c **** 
 1004              		.loc 1 617 5 discriminator 1 view .LVU301
 1005 004c 0220     		movs	r0, #2
 1006              	.LVL96:
 617:Drivers/STM32H7xx_HAL_Driver/Src/stm32h7xx_hal_sdram.c **** 
 1007              		.loc 1 617 5 discriminator 1 view .LVU302
 1008 004e FAE7     		b	.L63
 1009              		.cfi_endproc
 1010              	.LFE156:
 1012              		.section	.text.HAL_SDRAM_Write_32b,"ax",%progbits
 1013              		.align	1
 1014              		.global	HAL_SDRAM_Write_32b
 1015              		.syntax unified
 1016              		.thumb
 1017              		.thumb_func
 1019              	HAL_SDRAM_Write_32b:
 1020              	.LVL97:
 1021              	.LFB157:
 655:Drivers/STM32H7xx_HAL_Driver/Src/stm32h7xx_hal_sdram.c ****   uint32_t size;
 1022              		.loc 1 655 1 is_stmt 1 view -0
 1023              		.cfi_startproc
 1024              		@ args = 0, pretend = 0, frame = 0
ARM GAS  /tmp/ccZHMbbp.s 			page 46


 1025              		@ frame_needed = 0, uses_anonymous_args = 0
 655:Drivers/STM32H7xx_HAL_Driver/Src/stm32h7xx_hal_sdram.c ****   uint32_t size;
 1026              		.loc 1 655 1 is_stmt 0 view .LVU304
 1027 0000 00B5     		push	{lr}
 1028              	.LCFI12:
 1029              		.cfi_def_cfa_offset 4
 1030              		.cfi_offset 14, -4
 1031 0002 8646     		mov	lr, r0
 656:Drivers/STM32H7xx_HAL_Driver/Src/stm32h7xx_hal_sdram.c ****   __IO uint32_t *pSdramAddress = pAddress;
 1032              		.loc 1 656 3 is_stmt 1 view .LVU305
 657:Drivers/STM32H7xx_HAL_Driver/Src/stm32h7xx_hal_sdram.c ****   uint32_t *psrcbuff = pSrcBuffer;
 1033              		.loc 1 657 3 view .LVU306
 1034              	.LVL98:
 658:Drivers/STM32H7xx_HAL_Driver/Src/stm32h7xx_hal_sdram.c **** 
 1035              		.loc 1 658 3 view .LVU307
 661:Drivers/STM32H7xx_HAL_Driver/Src/stm32h7xx_hal_sdram.c ****   {
 1036              		.loc 1 661 3 view .LVU308
 661:Drivers/STM32H7xx_HAL_Driver/Src/stm32h7xx_hal_sdram.c ****   {
 1037              		.loc 1 661 13 is_stmt 0 view .LVU309
 1038 0004 90F82CC0 		ldrb	ip, [r0, #44]	@ zero_extendqisi2
 1039 0008 5FFA8CF0 		uxtb	r0, ip
 1040              	.LVL99:
 661:Drivers/STM32H7xx_HAL_Driver/Src/stm32h7xx_hal_sdram.c ****   {
 1041              		.loc 1 661 6 view .LVU310
 1042 000c 0228     		cmp	r0, #2
 1043 000e 1ED0     		beq	.L70
 665:Drivers/STM32H7xx_HAL_Driver/Src/stm32h7xx_hal_sdram.c ****   {
 1044              		.loc 1 665 8 is_stmt 1 view .LVU311
 665:Drivers/STM32H7xx_HAL_Driver/Src/stm32h7xx_hal_sdram.c ****   {
 1045              		.loc 1 665 18 is_stmt 0 view .LVU312
 1046 0010 9EF82C00 		ldrb	r0, [lr, #44]	@ zero_extendqisi2
 1047 0014 C0B2     		uxtb	r0, r0
 665:Drivers/STM32H7xx_HAL_Driver/Src/stm32h7xx_hal_sdram.c ****   {
 1048              		.loc 1 665 11 view .LVU313
 1049 0016 0128     		cmp	r0, #1
 1050 0018 18D1     		bne	.L73
 668:Drivers/STM32H7xx_HAL_Driver/Src/stm32h7xx_hal_sdram.c **** 
 1051              		.loc 1 668 5 is_stmt 1 view .LVU314
 668:Drivers/STM32H7xx_HAL_Driver/Src/stm32h7xx_hal_sdram.c **** 
 1052              		.loc 1 668 5 view .LVU315
 1053 001a 9EF82D00 		ldrb	r0, [lr, #45]	@ zero_extendqisi2
 1054 001e 0128     		cmp	r0, #1
 1055 0020 17D0     		beq	.L74
 668:Drivers/STM32H7xx_HAL_Driver/Src/stm32h7xx_hal_sdram.c **** 
 1056              		.loc 1 668 5 discriminator 2 view .LVU316
 1057 0022 0120     		movs	r0, #1
 1058 0024 8EF82D00 		strb	r0, [lr, #45]
 668:Drivers/STM32H7xx_HAL_Driver/Src/stm32h7xx_hal_sdram.c **** 
 1059              		.loc 1 668 5 discriminator 2 view .LVU317
 671:Drivers/STM32H7xx_HAL_Driver/Src/stm32h7xx_hal_sdram.c **** 
 1060              		.loc 1 671 5 view .LVU318
 671:Drivers/STM32H7xx_HAL_Driver/Src/stm32h7xx_hal_sdram.c **** 
 1061              		.loc 1 671 19 is_stmt 0 view .LVU319
 1062 0028 0220     		movs	r0, #2
 1063 002a 8EF82C00 		strb	r0, [lr, #44]
 674:Drivers/STM32H7xx_HAL_Driver/Src/stm32h7xx_hal_sdram.c ****     {
 1064              		.loc 1 674 5 is_stmt 1 view .LVU320
ARM GAS  /tmp/ccZHMbbp.s 			page 47


 1065              	.LVL100:
 674:Drivers/STM32H7xx_HAL_Driver/Src/stm32h7xx_hal_sdram.c ****     {
 1066              		.loc 1 674 5 is_stmt 0 view .LVU321
 1067 002e 04E0     		b	.L71
 1068              	.LVL101:
 1069              	.L72:
 676:Drivers/STM32H7xx_HAL_Driver/Src/stm32h7xx_hal_sdram.c ****       psrcbuff++;
 1070              		.loc 1 676 7 is_stmt 1 view .LVU322
 676:Drivers/STM32H7xx_HAL_Driver/Src/stm32h7xx_hal_sdram.c ****       psrcbuff++;
 1071              		.loc 1 676 24 is_stmt 0 view .LVU323
 1072 0030 52F8040B 		ldr	r0, [r2], #4
 1073              	.LVL102:
 676:Drivers/STM32H7xx_HAL_Driver/Src/stm32h7xx_hal_sdram.c ****       psrcbuff++;
 1074              		.loc 1 676 22 view .LVU324
 1075 0034 41F8040B 		str	r0, [r1], #4
 1076              	.LVL103:
 677:Drivers/STM32H7xx_HAL_Driver/Src/stm32h7xx_hal_sdram.c ****       pSdramAddress++;
 1077              		.loc 1 677 7 is_stmt 1 view .LVU325
 678:Drivers/STM32H7xx_HAL_Driver/Src/stm32h7xx_hal_sdram.c ****     }
 1078              		.loc 1 678 7 view .LVU326
 674:Drivers/STM32H7xx_HAL_Driver/Src/stm32h7xx_hal_sdram.c ****     {
 1079              		.loc 1 674 45 discriminator 3 view .LVU327
 1080 0038 013B     		subs	r3, r3, #1
 1081              	.LVL104:
 1082              	.L71:
 674:Drivers/STM32H7xx_HAL_Driver/Src/stm32h7xx_hal_sdram.c ****     {
 1083              		.loc 1 674 34 discriminator 1 view .LVU328
 1084 003a 002B     		cmp	r3, #0
 1085 003c F8D1     		bne	.L72
 682:Drivers/STM32H7xx_HAL_Driver/Src/stm32h7xx_hal_sdram.c **** 
 1086              		.loc 1 682 5 view .LVU329
 682:Drivers/STM32H7xx_HAL_Driver/Src/stm32h7xx_hal_sdram.c **** 
 1087              		.loc 1 682 19 is_stmt 0 view .LVU330
 1088 003e 0123     		movs	r3, #1
 1089              	.LVL105:
 682:Drivers/STM32H7xx_HAL_Driver/Src/stm32h7xx_hal_sdram.c **** 
 1090              		.loc 1 682 19 view .LVU331
 1091 0040 8EF82C30 		strb	r3, [lr, #44]
 685:Drivers/STM32H7xx_HAL_Driver/Src/stm32h7xx_hal_sdram.c ****   }
 1092              		.loc 1 685 5 is_stmt 1 view .LVU332
 685:Drivers/STM32H7xx_HAL_Driver/Src/stm32h7xx_hal_sdram.c ****   }
 1093              		.loc 1 685 5 view .LVU333
 1094 0044 0020     		movs	r0, #0
 1095 0046 8EF82D00 		strb	r0, [lr, #45]
 685:Drivers/STM32H7xx_HAL_Driver/Src/stm32h7xx_hal_sdram.c ****   }
 1096              		.loc 1 685 5 view .LVU334
 692:Drivers/STM32H7xx_HAL_Driver/Src/stm32h7xx_hal_sdram.c **** }
 1097              		.loc 1 692 3 view .LVU335
 692:Drivers/STM32H7xx_HAL_Driver/Src/stm32h7xx_hal_sdram.c **** }
 1098              		.loc 1 692 10 is_stmt 0 view .LVU336
 1099 004a 00E0     		b	.L70
 1100              	.LVL106:
 1101              	.L73:
 689:Drivers/STM32H7xx_HAL_Driver/Src/stm32h7xx_hal_sdram.c ****   }
 1102              		.loc 1 689 13 view .LVU337
 1103 004c 0120     		movs	r0, #1
 1104              	.LVL107:
ARM GAS  /tmp/ccZHMbbp.s 			page 48


 1105              	.L70:
 693:Drivers/STM32H7xx_HAL_Driver/Src/stm32h7xx_hal_sdram.c **** 
 1106              		.loc 1 693 1 view .LVU338
 1107 004e 5DF804FB 		ldr	pc, [sp], #4
 1108              	.LVL108:
 1109              	.L74:
 668:Drivers/STM32H7xx_HAL_Driver/Src/stm32h7xx_hal_sdram.c **** 
 1110              		.loc 1 668 5 discriminator 1 view .LVU339
 1111 0052 0220     		movs	r0, #2
 1112 0054 FBE7     		b	.L70
 1113              		.cfi_endproc
 1114              	.LFE157:
 1116              		.section	.text.HAL_SDRAM_Read_DMA,"ax",%progbits
 1117              		.align	1
 1118              		.global	HAL_SDRAM_Read_DMA
 1119              		.syntax unified
 1120              		.thumb
 1121              		.thumb_func
 1123              	HAL_SDRAM_Read_DMA:
 1124              	.LVL109:
 1125              	.LFB158:
 706:Drivers/STM32H7xx_HAL_Driver/Src/stm32h7xx_hal_sdram.c ****   HAL_StatusTypeDef status;
 1126              		.loc 1 706 1 is_stmt 1 view -0
 1127              		.cfi_startproc
 1128              		@ args = 0, pretend = 0, frame = 0
 1129              		@ frame_needed = 0, uses_anonymous_args = 0
 706:Drivers/STM32H7xx_HAL_Driver/Src/stm32h7xx_hal_sdram.c ****   HAL_StatusTypeDef status;
 1130              		.loc 1 706 1 is_stmt 0 view .LVU341
 1131 0000 30B5     		push	{r4, r5, lr}
 1132              	.LCFI13:
 1133              		.cfi_def_cfa_offset 12
 1134              		.cfi_offset 4, -12
 1135              		.cfi_offset 5, -8
 1136              		.cfi_offset 14, -4
 1137 0002 83B0     		sub	sp, sp, #12
 1138              	.LCFI14:
 1139              		.cfi_def_cfa_offset 24
 1140 0004 0446     		mov	r4, r0
 707:Drivers/STM32H7xx_HAL_Driver/Src/stm32h7xx_hal_sdram.c ****   HAL_SDRAM_StateTypeDef state = hsdram->State;
 1141              		.loc 1 707 3 is_stmt 1 view .LVU342
 708:Drivers/STM32H7xx_HAL_Driver/Src/stm32h7xx_hal_sdram.c **** 
 1142              		.loc 1 708 3 view .LVU343
 708:Drivers/STM32H7xx_HAL_Driver/Src/stm32h7xx_hal_sdram.c **** 
 1143              		.loc 1 708 26 is_stmt 0 view .LVU344
 1144 0006 90F82CC0 		ldrb	ip, [r0, #44]	@ zero_extendqisi2
 1145 000a 5FFA8CF0 		uxtb	r0, ip
 1146              	.LVL110:
 711:Drivers/STM32H7xx_HAL_Driver/Src/stm32h7xx_hal_sdram.c ****   {
 1147              		.loc 1 711 3 is_stmt 1 view .LVU345
 711:Drivers/STM32H7xx_HAL_Driver/Src/stm32h7xx_hal_sdram.c ****   {
 1148              		.loc 1 711 6 is_stmt 0 view .LVU346
 1149 000e 0228     		cmp	r0, #2
 1150 0010 25D0     		beq	.L77
 715:Drivers/STM32H7xx_HAL_Driver/Src/stm32h7xx_hal_sdram.c ****   {
 1151              		.loc 1 715 8 is_stmt 1 view .LVU347
 715:Drivers/STM32H7xx_HAL_Driver/Src/stm32h7xx_hal_sdram.c ****   {
 1152              		.loc 1 715 11 is_stmt 0 view .LVU348
ARM GAS  /tmp/ccZHMbbp.s 			page 49


 1153 0012 0428     		cmp	r0, #4
 1154 0014 18BF     		it	ne
 1155 0016 0128     		cmpne	r0, #1
 1156 0018 20D1     		bne	.L80
 718:Drivers/STM32H7xx_HAL_Driver/Src/stm32h7xx_hal_sdram.c **** 
 1157              		.loc 1 718 5 is_stmt 1 view .LVU349
 718:Drivers/STM32H7xx_HAL_Driver/Src/stm32h7xx_hal_sdram.c **** 
 1158              		.loc 1 718 5 view .LVU350
 1159 001a 94F82DC0 		ldrb	ip, [r4, #45]	@ zero_extendqisi2
 1160 001e BCF1010F 		cmp	ip, #1
 1161 0022 1ED0     		beq	.L81
 718:Drivers/STM32H7xx_HAL_Driver/Src/stm32h7xx_hal_sdram.c **** 
 1162              		.loc 1 718 5 discriminator 2 view .LVU351
 1163 0024 0125     		movs	r5, #1
 1164 0026 84F82D50 		strb	r5, [r4, #45]
 718:Drivers/STM32H7xx_HAL_Driver/Src/stm32h7xx_hal_sdram.c **** 
 1165              		.loc 1 718 5 discriminator 2 view .LVU352
 721:Drivers/STM32H7xx_HAL_Driver/Src/stm32h7xx_hal_sdram.c **** 
 1166              		.loc 1 721 5 view .LVU353
 721:Drivers/STM32H7xx_HAL_Driver/Src/stm32h7xx_hal_sdram.c **** 
 1167              		.loc 1 721 19 is_stmt 0 view .LVU354
 1168 002a 0225     		movs	r5, #2
 1169 002c 84F82C50 		strb	r5, [r4, #44]
 724:Drivers/STM32H7xx_HAL_Driver/Src/stm32h7xx_hal_sdram.c ****     {
 1170              		.loc 1 724 5 is_stmt 1 view .LVU355
 724:Drivers/STM32H7xx_HAL_Driver/Src/stm32h7xx_hal_sdram.c ****     {
 1171              		.loc 1 724 8 is_stmt 0 view .LVU356
 1172 0030 0128     		cmp	r0, #1
 1173 0032 0FD0     		beq	.L83
 730:Drivers/STM32H7xx_HAL_Driver/Src/stm32h7xx_hal_sdram.c ****     }
 1174              		.loc 1 730 7 is_stmt 1 view .LVU357
 730:Drivers/STM32H7xx_HAL_Driver/Src/stm32h7xx_hal_sdram.c ****     }
 1175              		.loc 1 730 13 is_stmt 0 view .LVU358
 1176 0034 206B     		ldr	r0, [r4, #48]
 1177              	.LVL111:
 730:Drivers/STM32H7xx_HAL_Driver/Src/stm32h7xx_hal_sdram.c ****     }
 1178              		.loc 1 730 39 view .LVU359
 1179 0036 0C4D     		ldr	r5, .L84
 1180 0038 4564     		str	r5, [r0, #68]
 1181              	.L79:
 732:Drivers/STM32H7xx_HAL_Driver/Src/stm32h7xx_hal_sdram.c **** 
 1182              		.loc 1 732 5 is_stmt 1 view .LVU360
 732:Drivers/STM32H7xx_HAL_Driver/Src/stm32h7xx_hal_sdram.c **** 
 1183              		.loc 1 732 11 is_stmt 0 view .LVU361
 1184 003a 206B     		ldr	r0, [r4, #48]
 732:Drivers/STM32H7xx_HAL_Driver/Src/stm32h7xx_hal_sdram.c **** 
 1185              		.loc 1 732 38 view .LVU362
 1186 003c 0B4D     		ldr	r5, .L84+4
 1187 003e 4565     		str	r5, [r0, #84]
 735:Drivers/STM32H7xx_HAL_Driver/Src/stm32h7xx_hal_sdram.c **** 
 1188              		.loc 1 735 5 is_stmt 1 view .LVU363
 735:Drivers/STM32H7xx_HAL_Driver/Src/stm32h7xx_hal_sdram.c **** 
 1189              		.loc 1 735 14 is_stmt 0 view .LVU364
 1190 0040 0120     		movs	r0, #1
 1191 0042 0090     		str	r0, [sp]
 1192 0044 9B00     		lsls	r3, r3, #2
 1193              	.LVL112:
ARM GAS  /tmp/ccZHMbbp.s 			page 50


 735:Drivers/STM32H7xx_HAL_Driver/Src/stm32h7xx_hal_sdram.c **** 
 1194              		.loc 1 735 14 view .LVU365
 1195 0046 206B     		ldr	r0, [r4, #48]
 1196 0048 FFF7FEFF 		bl	HAL_MDMA_Start_IT
 1197              	.LVL113:
 738:Drivers/STM32H7xx_HAL_Driver/Src/stm32h7xx_hal_sdram.c ****   }
 1198              		.loc 1 738 5 is_stmt 1 view .LVU366
 738:Drivers/STM32H7xx_HAL_Driver/Src/stm32h7xx_hal_sdram.c ****   }
 1199              		.loc 1 738 5 view .LVU367
 1200 004c 0023     		movs	r3, #0
 1201 004e 84F82D30 		strb	r3, [r4, #45]
 738:Drivers/STM32H7xx_HAL_Driver/Src/stm32h7xx_hal_sdram.c ****   }
 1202              		.loc 1 738 5 view .LVU368
 1203 0052 04E0     		b	.L77
 1204              	.LVL114:
 1205              	.L83:
 726:Drivers/STM32H7xx_HAL_Driver/Src/stm32h7xx_hal_sdram.c ****     }
 1206              		.loc 1 726 7 view .LVU369
 726:Drivers/STM32H7xx_HAL_Driver/Src/stm32h7xx_hal_sdram.c ****     }
 1207              		.loc 1 726 13 is_stmt 0 view .LVU370
 1208 0054 206B     		ldr	r0, [r4, #48]
 1209              	.LVL115:
 726:Drivers/STM32H7xx_HAL_Driver/Src/stm32h7xx_hal_sdram.c ****     }
 1210              		.loc 1 726 39 view .LVU371
 1211 0056 064D     		ldr	r5, .L84+8
 1212 0058 4564     		str	r5, [r0, #68]
 1213 005a EEE7     		b	.L79
 1214              	.LVL116:
 1215              	.L80:
 742:Drivers/STM32H7xx_HAL_Driver/Src/stm32h7xx_hal_sdram.c ****   }
 1216              		.loc 1 742 12 view .LVU372
 1217 005c 0120     		movs	r0, #1
 1218              	.LVL117:
 1219              	.L77:
 746:Drivers/STM32H7xx_HAL_Driver/Src/stm32h7xx_hal_sdram.c **** 
 1220              		.loc 1 746 1 view .LVU373
 1221 005e 03B0     		add	sp, sp, #12
 1222              	.LCFI15:
 1223              		.cfi_remember_state
 1224              		.cfi_def_cfa_offset 12
 1225              		@ sp needed
 1226 0060 30BD     		pop	{r4, r5, pc}
 1227              	.LVL118:
 1228              	.L81:
 1229              	.LCFI16:
 1230              		.cfi_restore_state
 718:Drivers/STM32H7xx_HAL_Driver/Src/stm32h7xx_hal_sdram.c **** 
 1231              		.loc 1 718 5 discriminator 1 view .LVU374
 1232 0062 0220     		movs	r0, #2
 1233              	.LVL119:
 718:Drivers/STM32H7xx_HAL_Driver/Src/stm32h7xx_hal_sdram.c **** 
 1234              		.loc 1 718 5 discriminator 1 view .LVU375
 1235 0064 FBE7     		b	.L77
 1236              	.L85:
 1237 0066 00BF     		.align	2
 1238              	.L84:
 1239 0068 00000000 		.word	SDRAM_DMACpltProt
ARM GAS  /tmp/ccZHMbbp.s 			page 51


 1240 006c 00000000 		.word	SDRAM_DMAError
 1241 0070 00000000 		.word	SDRAM_DMACplt
 1242              		.cfi_endproc
 1243              	.LFE158:
 1245              		.section	.text.HAL_SDRAM_Write_DMA,"ax",%progbits
 1246              		.align	1
 1247              		.global	HAL_SDRAM_Write_DMA
 1248              		.syntax unified
 1249              		.thumb
 1250              		.thumb_func
 1252              	HAL_SDRAM_Write_DMA:
 1253              	.LVL120:
 1254              	.LFB159:
 759:Drivers/STM32H7xx_HAL_Driver/Src/stm32h7xx_hal_sdram.c ****   HAL_StatusTypeDef status;
 1255              		.loc 1 759 1 is_stmt 1 view -0
 1256              		.cfi_startproc
 1257              		@ args = 0, pretend = 0, frame = 0
 1258              		@ frame_needed = 0, uses_anonymous_args = 0
 759:Drivers/STM32H7xx_HAL_Driver/Src/stm32h7xx_hal_sdram.c ****   HAL_StatusTypeDef status;
 1259              		.loc 1 759 1 is_stmt 0 view .LVU377
 1260 0000 30B5     		push	{r4, r5, lr}
 1261              	.LCFI17:
 1262              		.cfi_def_cfa_offset 12
 1263              		.cfi_offset 4, -12
 1264              		.cfi_offset 5, -8
 1265              		.cfi_offset 14, -4
 1266 0002 83B0     		sub	sp, sp, #12
 1267              	.LCFI18:
 1268              		.cfi_def_cfa_offset 24
 1269 0004 0446     		mov	r4, r0
 760:Drivers/STM32H7xx_HAL_Driver/Src/stm32h7xx_hal_sdram.c **** 
 1270              		.loc 1 760 3 is_stmt 1 view .LVU378
 763:Drivers/STM32H7xx_HAL_Driver/Src/stm32h7xx_hal_sdram.c ****   {
 1271              		.loc 1 763 3 view .LVU379
 763:Drivers/STM32H7xx_HAL_Driver/Src/stm32h7xx_hal_sdram.c ****   {
 1272              		.loc 1 763 13 is_stmt 0 view .LVU380
 1273 0006 90F82C00 		ldrb	r0, [r0, #44]	@ zero_extendqisi2
 1274              	.LVL121:
 763:Drivers/STM32H7xx_HAL_Driver/Src/stm32h7xx_hal_sdram.c ****   {
 1275              		.loc 1 763 13 view .LVU381
 1276 000a C0B2     		uxtb	r0, r0
 763:Drivers/STM32H7xx_HAL_Driver/Src/stm32h7xx_hal_sdram.c ****   {
 1277              		.loc 1 763 6 view .LVU382
 1278 000c 0228     		cmp	r0, #2
 1279 000e 07D0     		beq	.L87
 1280 0010 8C46     		mov	ip, r1
 1281 0012 1146     		mov	r1, r2
 1282              	.LVL122:
 767:Drivers/STM32H7xx_HAL_Driver/Src/stm32h7xx_hal_sdram.c ****   {
 1283              		.loc 1 767 8 is_stmt 1 view .LVU383
 767:Drivers/STM32H7xx_HAL_Driver/Src/stm32h7xx_hal_sdram.c ****   {
 1284              		.loc 1 767 18 is_stmt 0 view .LVU384
 1285 0014 94F82C00 		ldrb	r0, [r4, #44]	@ zero_extendqisi2
 1286 0018 C0B2     		uxtb	r0, r0
 767:Drivers/STM32H7xx_HAL_Driver/Src/stm32h7xx_hal_sdram.c ****   {
 1287              		.loc 1 767 11 view .LVU385
 1288 001a 0128     		cmp	r0, #1
ARM GAS  /tmp/ccZHMbbp.s 			page 52


 1289 001c 02D0     		beq	.L91
 787:Drivers/STM32H7xx_HAL_Driver/Src/stm32h7xx_hal_sdram.c ****   }
 1290              		.loc 1 787 12 view .LVU386
 1291 001e 0120     		movs	r0, #1
 1292              	.LVL123:
 1293              	.L87:
 791:Drivers/STM32H7xx_HAL_Driver/Src/stm32h7xx_hal_sdram.c **** 
 1294              		.loc 1 791 1 view .LVU387
 1295 0020 03B0     		add	sp, sp, #12
 1296              	.LCFI19:
 1297              		.cfi_remember_state
 1298              		.cfi_def_cfa_offset 12
 1299              		@ sp needed
 1300 0022 30BD     		pop	{r4, r5, pc}
 1301              	.LVL124:
 1302              	.L91:
 1303              	.LCFI20:
 1304              		.cfi_restore_state
 770:Drivers/STM32H7xx_HAL_Driver/Src/stm32h7xx_hal_sdram.c **** 
 1305              		.loc 1 770 5 is_stmt 1 view .LVU388
 770:Drivers/STM32H7xx_HAL_Driver/Src/stm32h7xx_hal_sdram.c **** 
 1306              		.loc 1 770 5 view .LVU389
 1307 0024 94F82D20 		ldrb	r2, [r4, #45]	@ zero_extendqisi2
 1308 0028 012A     		cmp	r2, #1
 1309 002a 15D0     		beq	.L89
 770:Drivers/STM32H7xx_HAL_Driver/Src/stm32h7xx_hal_sdram.c **** 
 1310              		.loc 1 770 5 discriminator 2 view .LVU390
 1311 002c 0122     		movs	r2, #1
 1312 002e 84F82D20 		strb	r2, [r4, #45]
 770:Drivers/STM32H7xx_HAL_Driver/Src/stm32h7xx_hal_sdram.c **** 
 1313              		.loc 1 770 5 discriminator 2 view .LVU391
 773:Drivers/STM32H7xx_HAL_Driver/Src/stm32h7xx_hal_sdram.c **** 
 1314              		.loc 1 773 5 view .LVU392
 773:Drivers/STM32H7xx_HAL_Driver/Src/stm32h7xx_hal_sdram.c **** 
 1315              		.loc 1 773 19 is_stmt 0 view .LVU393
 1316 0032 0220     		movs	r0, #2
 1317 0034 84F82C00 		strb	r0, [r4, #44]
 776:Drivers/STM32H7xx_HAL_Driver/Src/stm32h7xx_hal_sdram.c ****     hsdram->hmdma->XferErrorCallback = SDRAM_DMAError;
 1318              		.loc 1 776 5 is_stmt 1 view .LVU394
 776:Drivers/STM32H7xx_HAL_Driver/Src/stm32h7xx_hal_sdram.c ****     hsdram->hmdma->XferErrorCallback = SDRAM_DMAError;
 1319              		.loc 1 776 11 is_stmt 0 view .LVU395
 1320 0038 206B     		ldr	r0, [r4, #48]
 776:Drivers/STM32H7xx_HAL_Driver/Src/stm32h7xx_hal_sdram.c ****     hsdram->hmdma->XferErrorCallback = SDRAM_DMAError;
 1321              		.loc 1 776 37 view .LVU396
 1322 003a 084D     		ldr	r5, .L92
 1323 003c 4564     		str	r5, [r0, #68]
 777:Drivers/STM32H7xx_HAL_Driver/Src/stm32h7xx_hal_sdram.c **** 
 1324              		.loc 1 777 5 is_stmt 1 view .LVU397
 777:Drivers/STM32H7xx_HAL_Driver/Src/stm32h7xx_hal_sdram.c **** 
 1325              		.loc 1 777 11 is_stmt 0 view .LVU398
 1326 003e 206B     		ldr	r0, [r4, #48]
 777:Drivers/STM32H7xx_HAL_Driver/Src/stm32h7xx_hal_sdram.c **** 
 1327              		.loc 1 777 38 view .LVU399
 1328 0040 074D     		ldr	r5, .L92+4
 1329 0042 4565     		str	r5, [r0, #84]
 780:Drivers/STM32H7xx_HAL_Driver/Src/stm32h7xx_hal_sdram.c **** 
 1330              		.loc 1 780 5 is_stmt 1 view .LVU400
ARM GAS  /tmp/ccZHMbbp.s 			page 53


 780:Drivers/STM32H7xx_HAL_Driver/Src/stm32h7xx_hal_sdram.c **** 
 1331              		.loc 1 780 14 is_stmt 0 view .LVU401
 1332 0044 0092     		str	r2, [sp]
 1333 0046 9B00     		lsls	r3, r3, #2
 1334              	.LVL125:
 780:Drivers/STM32H7xx_HAL_Driver/Src/stm32h7xx_hal_sdram.c **** 
 1335              		.loc 1 780 14 view .LVU402
 1336 0048 6246     		mov	r2, ip
 1337 004a 206B     		ldr	r0, [r4, #48]
 1338 004c FFF7FEFF 		bl	HAL_MDMA_Start_IT
 1339              	.LVL126:
 783:Drivers/STM32H7xx_HAL_Driver/Src/stm32h7xx_hal_sdram.c ****   }
 1340              		.loc 1 783 5 is_stmt 1 view .LVU403
 783:Drivers/STM32H7xx_HAL_Driver/Src/stm32h7xx_hal_sdram.c ****   }
 1341              		.loc 1 783 5 view .LVU404
 1342 0050 0023     		movs	r3, #0
 1343 0052 84F82D30 		strb	r3, [r4, #45]
 783:Drivers/STM32H7xx_HAL_Driver/Src/stm32h7xx_hal_sdram.c ****   }
 1344              		.loc 1 783 5 view .LVU405
 1345 0056 E3E7     		b	.L87
 1346              	.LVL127:
 1347              	.L89:
 770:Drivers/STM32H7xx_HAL_Driver/Src/stm32h7xx_hal_sdram.c **** 
 1348              		.loc 1 770 5 is_stmt 0 discriminator 1 view .LVU406
 1349 0058 0220     		movs	r0, #2
 1350 005a E1E7     		b	.L87
 1351              	.L93:
 1352              		.align	2
 1353              	.L92:
 1354 005c 00000000 		.word	SDRAM_DMACplt
 1355 0060 00000000 		.word	SDRAM_DMAError
 1356              		.cfi_endproc
 1357              	.LFE159:
 1359              		.section	.text.HAL_SDRAM_WriteProtection_Enable,"ax",%progbits
 1360              		.align	1
 1361              		.global	HAL_SDRAM_WriteProtection_Enable
 1362              		.syntax unified
 1363              		.thumb
 1364              		.thumb_func
 1366              	HAL_SDRAM_WriteProtection_Enable:
 1367              	.LVL128:
 1368              	.LFB160:
1011:Drivers/STM32H7xx_HAL_Driver/Src/stm32h7xx_hal_sdram.c ****   /* Check the SDRAM controller state */
 1369              		.loc 1 1011 1 is_stmt 1 view -0
 1370              		.cfi_startproc
 1371              		@ args = 0, pretend = 0, frame = 0
 1372              		@ frame_needed = 0, uses_anonymous_args = 0
1011:Drivers/STM32H7xx_HAL_Driver/Src/stm32h7xx_hal_sdram.c ****   /* Check the SDRAM controller state */
 1373              		.loc 1 1011 1 is_stmt 0 view .LVU408
 1374 0000 10B5     		push	{r4, lr}
 1375              	.LCFI21:
 1376              		.cfi_def_cfa_offset 8
 1377              		.cfi_offset 4, -8
 1378              		.cfi_offset 14, -4
 1379 0002 0446     		mov	r4, r0
1013:Drivers/STM32H7xx_HAL_Driver/Src/stm32h7xx_hal_sdram.c ****   {
 1380              		.loc 1 1013 3 is_stmt 1 view .LVU409
ARM GAS  /tmp/ccZHMbbp.s 			page 54


1013:Drivers/STM32H7xx_HAL_Driver/Src/stm32h7xx_hal_sdram.c ****   {
 1381              		.loc 1 1013 13 is_stmt 0 view .LVU410
 1382 0004 90F82C00 		ldrb	r0, [r0, #44]	@ zero_extendqisi2
 1383              	.LVL129:
1013:Drivers/STM32H7xx_HAL_Driver/Src/stm32h7xx_hal_sdram.c ****   {
 1384              		.loc 1 1013 13 view .LVU411
 1385 0008 C0B2     		uxtb	r0, r0
1013:Drivers/STM32H7xx_HAL_Driver/Src/stm32h7xx_hal_sdram.c ****   {
 1386              		.loc 1 1013 6 view .LVU412
 1387 000a 0228     		cmp	r0, #2
 1388 000c 05D0     		beq	.L95
1017:Drivers/STM32H7xx_HAL_Driver/Src/stm32h7xx_hal_sdram.c ****   {
 1389              		.loc 1 1017 8 is_stmt 1 view .LVU413
1017:Drivers/STM32H7xx_HAL_Driver/Src/stm32h7xx_hal_sdram.c ****   {
 1390              		.loc 1 1017 18 is_stmt 0 view .LVU414
 1391 000e 94F82C30 		ldrb	r3, [r4, #44]	@ zero_extendqisi2
 1392 0012 DBB2     		uxtb	r3, r3
1017:Drivers/STM32H7xx_HAL_Driver/Src/stm32h7xx_hal_sdram.c ****   {
 1393              		.loc 1 1017 11 view .LVU415
 1394 0014 012B     		cmp	r3, #1
 1395 0016 01D0     		beq	.L98
1030:Drivers/STM32H7xx_HAL_Driver/Src/stm32h7xx_hal_sdram.c ****   }
 1396              		.loc 1 1030 12 view .LVU416
 1397 0018 0120     		movs	r0, #1
 1398              	.L95:
1034:Drivers/STM32H7xx_HAL_Driver/Src/stm32h7xx_hal_sdram.c **** 
 1399              		.loc 1 1034 1 view .LVU417
 1400 001a 10BD     		pop	{r4, pc}
 1401              	.LVL130:
 1402              	.L98:
1020:Drivers/STM32H7xx_HAL_Driver/Src/stm32h7xx_hal_sdram.c **** 
 1403              		.loc 1 1020 5 is_stmt 1 view .LVU418
1020:Drivers/STM32H7xx_HAL_Driver/Src/stm32h7xx_hal_sdram.c **** 
 1404              		.loc 1 1020 19 is_stmt 0 view .LVU419
 1405 001c 0223     		movs	r3, #2
 1406 001e 84F82C30 		strb	r3, [r4, #44]
1023:Drivers/STM32H7xx_HAL_Driver/Src/stm32h7xx_hal_sdram.c **** 
 1407              		.loc 1 1023 5 is_stmt 1 view .LVU420
1023:Drivers/STM32H7xx_HAL_Driver/Src/stm32h7xx_hal_sdram.c **** 
 1408              		.loc 1 1023 11 is_stmt 0 view .LVU421
 1409 0022 6168     		ldr	r1, [r4, #4]
 1410 0024 2068     		ldr	r0, [r4]
 1411 0026 FFF7FEFF 		bl	FMC_SDRAM_WriteProtection_Enable
 1412              	.LVL131:
1026:Drivers/STM32H7xx_HAL_Driver/Src/stm32h7xx_hal_sdram.c ****   }
 1413              		.loc 1 1026 5 is_stmt 1 view .LVU422
1026:Drivers/STM32H7xx_HAL_Driver/Src/stm32h7xx_hal_sdram.c ****   }
 1414              		.loc 1 1026 19 is_stmt 0 view .LVU423
 1415 002a 0423     		movs	r3, #4
 1416 002c 84F82C30 		strb	r3, [r4, #44]
1033:Drivers/STM32H7xx_HAL_Driver/Src/stm32h7xx_hal_sdram.c **** }
 1417              		.loc 1 1033 3 is_stmt 1 view .LVU424
1033:Drivers/STM32H7xx_HAL_Driver/Src/stm32h7xx_hal_sdram.c **** }
 1418              		.loc 1 1033 10 is_stmt 0 view .LVU425
 1419 0030 0020     		movs	r0, #0
 1420 0032 F2E7     		b	.L95
 1421              		.cfi_endproc
ARM GAS  /tmp/ccZHMbbp.s 			page 55


 1422              	.LFE160:
 1424              		.section	.text.HAL_SDRAM_WriteProtection_Disable,"ax",%progbits
 1425              		.align	1
 1426              		.global	HAL_SDRAM_WriteProtection_Disable
 1427              		.syntax unified
 1428              		.thumb
 1429              		.thumb_func
 1431              	HAL_SDRAM_WriteProtection_Disable:
 1432              	.LVL132:
 1433              	.LFB161:
1043:Drivers/STM32H7xx_HAL_Driver/Src/stm32h7xx_hal_sdram.c ****   HAL_SDRAM_StateTypeDef state = hsdram->State;
 1434              		.loc 1 1043 1 is_stmt 1 view -0
 1435              		.cfi_startproc
 1436              		@ args = 0, pretend = 0, frame = 0
 1437              		@ frame_needed = 0, uses_anonymous_args = 0
1043:Drivers/STM32H7xx_HAL_Driver/Src/stm32h7xx_hal_sdram.c ****   HAL_SDRAM_StateTypeDef state = hsdram->State;
 1438              		.loc 1 1043 1 is_stmt 0 view .LVU427
 1439 0000 10B5     		push	{r4, lr}
 1440              	.LCFI22:
 1441              		.cfi_def_cfa_offset 8
 1442              		.cfi_offset 4, -8
 1443              		.cfi_offset 14, -4
 1444 0002 0446     		mov	r4, r0
1044:Drivers/STM32H7xx_HAL_Driver/Src/stm32h7xx_hal_sdram.c **** 
 1445              		.loc 1 1044 3 is_stmt 1 view .LVU428
1044:Drivers/STM32H7xx_HAL_Driver/Src/stm32h7xx_hal_sdram.c **** 
 1446              		.loc 1 1044 26 is_stmt 0 view .LVU429
 1447 0004 90F82C30 		ldrb	r3, [r0, #44]	@ zero_extendqisi2
 1448 0008 D8B2     		uxtb	r0, r3
 1449              	.LVL133:
1047:Drivers/STM32H7xx_HAL_Driver/Src/stm32h7xx_hal_sdram.c ****   {
 1450              		.loc 1 1047 3 is_stmt 1 view .LVU430
1047:Drivers/STM32H7xx_HAL_Driver/Src/stm32h7xx_hal_sdram.c ****   {
 1451              		.loc 1 1047 6 is_stmt 0 view .LVU431
 1452 000a 0228     		cmp	r0, #2
 1453 000c 02D0     		beq	.L100
1051:Drivers/STM32H7xx_HAL_Driver/Src/stm32h7xx_hal_sdram.c ****   {
 1454              		.loc 1 1051 8 is_stmt 1 view .LVU432
1051:Drivers/STM32H7xx_HAL_Driver/Src/stm32h7xx_hal_sdram.c ****   {
 1455              		.loc 1 1051 11 is_stmt 0 view .LVU433
 1456 000e 0428     		cmp	r0, #4
 1457 0010 01D0     		beq	.L103
1064:Drivers/STM32H7xx_HAL_Driver/Src/stm32h7xx_hal_sdram.c ****   }
 1458              		.loc 1 1064 12 view .LVU434
 1459 0012 0120     		movs	r0, #1
 1460              	.LVL134:
 1461              	.L100:
1068:Drivers/STM32H7xx_HAL_Driver/Src/stm32h7xx_hal_sdram.c **** 
 1462              		.loc 1 1068 1 view .LVU435
 1463 0014 10BD     		pop	{r4, pc}
 1464              	.LVL135:
 1465              	.L103:
1054:Drivers/STM32H7xx_HAL_Driver/Src/stm32h7xx_hal_sdram.c **** 
 1466              		.loc 1 1054 5 is_stmt 1 view .LVU436
1054:Drivers/STM32H7xx_HAL_Driver/Src/stm32h7xx_hal_sdram.c **** 
 1467              		.loc 1 1054 19 is_stmt 0 view .LVU437
 1468 0016 0223     		movs	r3, #2
ARM GAS  /tmp/ccZHMbbp.s 			page 56


 1469 0018 84F82C30 		strb	r3, [r4, #44]
1057:Drivers/STM32H7xx_HAL_Driver/Src/stm32h7xx_hal_sdram.c **** 
 1470              		.loc 1 1057 5 is_stmt 1 view .LVU438
1057:Drivers/STM32H7xx_HAL_Driver/Src/stm32h7xx_hal_sdram.c **** 
 1471              		.loc 1 1057 11 is_stmt 0 view .LVU439
 1472 001c 6168     		ldr	r1, [r4, #4]
 1473 001e 2068     		ldr	r0, [r4]
 1474              	.LVL136:
1057:Drivers/STM32H7xx_HAL_Driver/Src/stm32h7xx_hal_sdram.c **** 
 1475              		.loc 1 1057 11 view .LVU440
 1476 0020 FFF7FEFF 		bl	FMC_SDRAM_WriteProtection_Disable
 1477              	.LVL137:
1060:Drivers/STM32H7xx_HAL_Driver/Src/stm32h7xx_hal_sdram.c ****   }
 1478              		.loc 1 1060 5 is_stmt 1 view .LVU441
1060:Drivers/STM32H7xx_HAL_Driver/Src/stm32h7xx_hal_sdram.c ****   }
 1479              		.loc 1 1060 19 is_stmt 0 view .LVU442
 1480 0024 0123     		movs	r3, #1
 1481 0026 84F82C30 		strb	r3, [r4, #44]
1067:Drivers/STM32H7xx_HAL_Driver/Src/stm32h7xx_hal_sdram.c **** }
 1482              		.loc 1 1067 3 is_stmt 1 view .LVU443
1067:Drivers/STM32H7xx_HAL_Driver/Src/stm32h7xx_hal_sdram.c **** }
 1483              		.loc 1 1067 10 is_stmt 0 view .LVU444
 1484 002a 0020     		movs	r0, #0
 1485 002c F2E7     		b	.L100
 1486              		.cfi_endproc
 1487              	.LFE161:
 1489              		.section	.text.HAL_SDRAM_SendCommand,"ax",%progbits
 1490              		.align	1
 1491              		.global	HAL_SDRAM_SendCommand
 1492              		.syntax unified
 1493              		.thumb
 1494              		.thumb_func
 1496              	HAL_SDRAM_SendCommand:
 1497              	.LVL138:
 1498              	.LFB162:
1080:Drivers/STM32H7xx_HAL_Driver/Src/stm32h7xx_hal_sdram.c ****   HAL_SDRAM_StateTypeDef state = hsdram->State;
 1499              		.loc 1 1080 1 is_stmt 1 view -0
 1500              		.cfi_startproc
 1501              		@ args = 0, pretend = 0, frame = 0
 1502              		@ frame_needed = 0, uses_anonymous_args = 0
1080:Drivers/STM32H7xx_HAL_Driver/Src/stm32h7xx_hal_sdram.c ****   HAL_SDRAM_StateTypeDef state = hsdram->State;
 1503              		.loc 1 1080 1 is_stmt 0 view .LVU446
 1504 0000 38B5     		push	{r3, r4, r5, lr}
 1505              	.LCFI23:
 1506              		.cfi_def_cfa_offset 16
 1507              		.cfi_offset 3, -16
 1508              		.cfi_offset 4, -12
 1509              		.cfi_offset 5, -8
 1510              		.cfi_offset 14, -4
 1511 0002 0446     		mov	r4, r0
1081:Drivers/STM32H7xx_HAL_Driver/Src/stm32h7xx_hal_sdram.c **** 
 1512              		.loc 1 1081 3 is_stmt 1 view .LVU447
1081:Drivers/STM32H7xx_HAL_Driver/Src/stm32h7xx_hal_sdram.c **** 
 1513              		.loc 1 1081 26 is_stmt 0 view .LVU448
 1514 0004 90F82C30 		ldrb	r3, [r0, #44]	@ zero_extendqisi2
 1515 0008 D8B2     		uxtb	r0, r3
 1516              	.LVL139:
ARM GAS  /tmp/ccZHMbbp.s 			page 57


1084:Drivers/STM32H7xx_HAL_Driver/Src/stm32h7xx_hal_sdram.c ****   {
 1517              		.loc 1 1084 3 is_stmt 1 view .LVU449
1084:Drivers/STM32H7xx_HAL_Driver/Src/stm32h7xx_hal_sdram.c ****   {
 1518              		.loc 1 1084 6 is_stmt 0 view .LVU450
 1519 000a 0228     		cmp	r0, #2
 1520 000c 05D0     		beq	.L105
 1521 000e 0D46     		mov	r5, r1
1088:Drivers/STM32H7xx_HAL_Driver/Src/stm32h7xx_hal_sdram.c ****   {
 1522              		.loc 1 1088 8 is_stmt 1 view .LVU451
1088:Drivers/STM32H7xx_HAL_Driver/Src/stm32h7xx_hal_sdram.c ****   {
 1523              		.loc 1 1088 11 is_stmt 0 view .LVU452
 1524 0010 0528     		cmp	r0, #5
 1525 0012 18BF     		it	ne
 1526 0014 0128     		cmpne	r0, #1
 1527 0016 01D0     		beq	.L109
1108:Drivers/STM32H7xx_HAL_Driver/Src/stm32h7xx_hal_sdram.c ****   }
 1528              		.loc 1 1108 12 view .LVU453
 1529 0018 0120     		movs	r0, #1
 1530              	.LVL140:
 1531              	.L105:
1112:Drivers/STM32H7xx_HAL_Driver/Src/stm32h7xx_hal_sdram.c **** 
 1532              		.loc 1 1112 1 view .LVU454
 1533 001a 38BD     		pop	{r3, r4, r5, pc}
 1534              	.LVL141:
 1535              	.L109:
1091:Drivers/STM32H7xx_HAL_Driver/Src/stm32h7xx_hal_sdram.c **** 
 1536              		.loc 1 1091 5 is_stmt 1 view .LVU455
1091:Drivers/STM32H7xx_HAL_Driver/Src/stm32h7xx_hal_sdram.c **** 
 1537              		.loc 1 1091 19 is_stmt 0 view .LVU456
 1538 001c 0223     		movs	r3, #2
 1539 001e 84F82C30 		strb	r3, [r4, #44]
1094:Drivers/STM32H7xx_HAL_Driver/Src/stm32h7xx_hal_sdram.c **** 
 1540              		.loc 1 1094 5 is_stmt 1 view .LVU457
1094:Drivers/STM32H7xx_HAL_Driver/Src/stm32h7xx_hal_sdram.c **** 
 1541              		.loc 1 1094 11 is_stmt 0 view .LVU458
 1542 0022 2068     		ldr	r0, [r4]
 1543              	.LVL142:
1094:Drivers/STM32H7xx_HAL_Driver/Src/stm32h7xx_hal_sdram.c **** 
 1544              		.loc 1 1094 11 view .LVU459
 1545 0024 FFF7FEFF 		bl	FMC_SDRAM_SendCommand
 1546              	.LVL143:
1097:Drivers/STM32H7xx_HAL_Driver/Src/stm32h7xx_hal_sdram.c ****     {
 1547              		.loc 1 1097 5 is_stmt 1 view .LVU460
1097:Drivers/STM32H7xx_HAL_Driver/Src/stm32h7xx_hal_sdram.c ****     {
 1548              		.loc 1 1097 16 is_stmt 0 view .LVU461
 1549 0028 2B68     		ldr	r3, [r5]
1097:Drivers/STM32H7xx_HAL_Driver/Src/stm32h7xx_hal_sdram.c ****     {
 1550              		.loc 1 1097 8 view .LVU462
 1551 002a 022B     		cmp	r3, #2
 1552 002c 04D0     		beq	.L110
1103:Drivers/STM32H7xx_HAL_Driver/Src/stm32h7xx_hal_sdram.c ****     }
 1553              		.loc 1 1103 7 is_stmt 1 view .LVU463
1103:Drivers/STM32H7xx_HAL_Driver/Src/stm32h7xx_hal_sdram.c ****     }
 1554              		.loc 1 1103 21 is_stmt 0 view .LVU464
 1555 002e 0123     		movs	r3, #1
 1556 0030 84F82C30 		strb	r3, [r4, #44]
1111:Drivers/STM32H7xx_HAL_Driver/Src/stm32h7xx_hal_sdram.c **** }
ARM GAS  /tmp/ccZHMbbp.s 			page 58


 1557              		.loc 1 1111 10 view .LVU465
 1558 0034 0020     		movs	r0, #0
 1559 0036 F0E7     		b	.L105
 1560              	.L110:
1099:Drivers/STM32H7xx_HAL_Driver/Src/stm32h7xx_hal_sdram.c ****     }
 1561              		.loc 1 1099 7 is_stmt 1 view .LVU466
1099:Drivers/STM32H7xx_HAL_Driver/Src/stm32h7xx_hal_sdram.c ****     }
 1562              		.loc 1 1099 21 is_stmt 0 view .LVU467
 1563 0038 0523     		movs	r3, #5
 1564 003a 84F82C30 		strb	r3, [r4, #44]
1111:Drivers/STM32H7xx_HAL_Driver/Src/stm32h7xx_hal_sdram.c **** }
 1565              		.loc 1 1111 10 view .LVU468
 1566 003e 0020     		movs	r0, #0
 1567 0040 EBE7     		b	.L105
 1568              		.cfi_endproc
 1569              	.LFE162:
 1571              		.section	.text.HAL_SDRAM_ProgramRefreshRate,"ax",%progbits
 1572              		.align	1
 1573              		.global	HAL_SDRAM_ProgramRefreshRate
 1574              		.syntax unified
 1575              		.thumb
 1576              		.thumb_func
 1578              	HAL_SDRAM_ProgramRefreshRate:
 1579              	.LVL144:
 1580              	.LFB163:
1122:Drivers/STM32H7xx_HAL_Driver/Src/stm32h7xx_hal_sdram.c ****   /* Check the SDRAM controller state */
 1581              		.loc 1 1122 1 is_stmt 1 view -0
 1582              		.cfi_startproc
 1583              		@ args = 0, pretend = 0, frame = 0
 1584              		@ frame_needed = 0, uses_anonymous_args = 0
1122:Drivers/STM32H7xx_HAL_Driver/Src/stm32h7xx_hal_sdram.c ****   /* Check the SDRAM controller state */
 1585              		.loc 1 1122 1 is_stmt 0 view .LVU470
 1586 0000 10B5     		push	{r4, lr}
 1587              	.LCFI24:
 1588              		.cfi_def_cfa_offset 8
 1589              		.cfi_offset 4, -8
 1590              		.cfi_offset 14, -4
 1591 0002 0446     		mov	r4, r0
1124:Drivers/STM32H7xx_HAL_Driver/Src/stm32h7xx_hal_sdram.c ****   {
 1592              		.loc 1 1124 3 is_stmt 1 view .LVU471
1124:Drivers/STM32H7xx_HAL_Driver/Src/stm32h7xx_hal_sdram.c ****   {
 1593              		.loc 1 1124 13 is_stmt 0 view .LVU472
 1594 0004 90F82C30 		ldrb	r3, [r0, #44]	@ zero_extendqisi2
 1595 0008 D8B2     		uxtb	r0, r3
 1596              	.LVL145:
1124:Drivers/STM32H7xx_HAL_Driver/Src/stm32h7xx_hal_sdram.c ****   {
 1597              		.loc 1 1124 6 view .LVU473
 1598 000a 0228     		cmp	r0, #2
 1599 000c 05D0     		beq	.L112
1128:Drivers/STM32H7xx_HAL_Driver/Src/stm32h7xx_hal_sdram.c ****   {
 1600              		.loc 1 1128 8 is_stmt 1 view .LVU474
1128:Drivers/STM32H7xx_HAL_Driver/Src/stm32h7xx_hal_sdram.c ****   {
 1601              		.loc 1 1128 18 is_stmt 0 view .LVU475
 1602 000e 94F82C30 		ldrb	r3, [r4, #44]	@ zero_extendqisi2
 1603 0012 DBB2     		uxtb	r3, r3
1128:Drivers/STM32H7xx_HAL_Driver/Src/stm32h7xx_hal_sdram.c ****   {
 1604              		.loc 1 1128 11 view .LVU476
ARM GAS  /tmp/ccZHMbbp.s 			page 59


 1605 0014 012B     		cmp	r3, #1
 1606 0016 01D0     		beq	.L115
1141:Drivers/STM32H7xx_HAL_Driver/Src/stm32h7xx_hal_sdram.c ****   }
 1607              		.loc 1 1141 12 view .LVU477
 1608 0018 0120     		movs	r0, #1
 1609              	.LVL146:
 1610              	.L112:
1145:Drivers/STM32H7xx_HAL_Driver/Src/stm32h7xx_hal_sdram.c **** 
 1611              		.loc 1 1145 1 view .LVU478
 1612 001a 10BD     		pop	{r4, pc}
 1613              	.LVL147:
 1614              	.L115:
1131:Drivers/STM32H7xx_HAL_Driver/Src/stm32h7xx_hal_sdram.c **** 
 1615              		.loc 1 1131 5 is_stmt 1 view .LVU479
1131:Drivers/STM32H7xx_HAL_Driver/Src/stm32h7xx_hal_sdram.c **** 
 1616              		.loc 1 1131 19 is_stmt 0 view .LVU480
 1617 001c 0223     		movs	r3, #2
 1618 001e 84F82C30 		strb	r3, [r4, #44]
1134:Drivers/STM32H7xx_HAL_Driver/Src/stm32h7xx_hal_sdram.c **** 
 1619              		.loc 1 1134 5 is_stmt 1 view .LVU481
1134:Drivers/STM32H7xx_HAL_Driver/Src/stm32h7xx_hal_sdram.c **** 
 1620              		.loc 1 1134 11 is_stmt 0 view .LVU482
 1621 0022 2068     		ldr	r0, [r4]
 1622 0024 FFF7FEFF 		bl	FMC_SDRAM_ProgramRefreshRate
 1623              	.LVL148:
1137:Drivers/STM32H7xx_HAL_Driver/Src/stm32h7xx_hal_sdram.c ****   }
 1624              		.loc 1 1137 5 is_stmt 1 view .LVU483
1137:Drivers/STM32H7xx_HAL_Driver/Src/stm32h7xx_hal_sdram.c ****   }
 1625              		.loc 1 1137 19 is_stmt 0 view .LVU484
 1626 0028 0123     		movs	r3, #1
 1627 002a 84F82C30 		strb	r3, [r4, #44]
1144:Drivers/STM32H7xx_HAL_Driver/Src/stm32h7xx_hal_sdram.c **** }
 1628              		.loc 1 1144 3 is_stmt 1 view .LVU485
1144:Drivers/STM32H7xx_HAL_Driver/Src/stm32h7xx_hal_sdram.c **** }
 1629              		.loc 1 1144 10 is_stmt 0 view .LVU486
 1630 002e 0020     		movs	r0, #0
 1631 0030 F3E7     		b	.L112
 1632              		.cfi_endproc
 1633              	.LFE163:
 1635              		.section	.text.HAL_SDRAM_SetAutoRefreshNumber,"ax",%progbits
 1636              		.align	1
 1637              		.global	HAL_SDRAM_SetAutoRefreshNumber
 1638              		.syntax unified
 1639              		.thumb
 1640              		.thumb_func
 1642              	HAL_SDRAM_SetAutoRefreshNumber:
 1643              	.LVL149:
 1644              	.LFB164:
1155:Drivers/STM32H7xx_HAL_Driver/Src/stm32h7xx_hal_sdram.c ****   /* Check the SDRAM controller state */
 1645              		.loc 1 1155 1 is_stmt 1 view -0
 1646              		.cfi_startproc
 1647              		@ args = 0, pretend = 0, frame = 0
 1648              		@ frame_needed = 0, uses_anonymous_args = 0
1155:Drivers/STM32H7xx_HAL_Driver/Src/stm32h7xx_hal_sdram.c ****   /* Check the SDRAM controller state */
 1649              		.loc 1 1155 1 is_stmt 0 view .LVU488
 1650 0000 10B5     		push	{r4, lr}
 1651              	.LCFI25:
ARM GAS  /tmp/ccZHMbbp.s 			page 60


 1652              		.cfi_def_cfa_offset 8
 1653              		.cfi_offset 4, -8
 1654              		.cfi_offset 14, -4
 1655 0002 0446     		mov	r4, r0
1157:Drivers/STM32H7xx_HAL_Driver/Src/stm32h7xx_hal_sdram.c ****   {
 1656              		.loc 1 1157 3 is_stmt 1 view .LVU489
1157:Drivers/STM32H7xx_HAL_Driver/Src/stm32h7xx_hal_sdram.c ****   {
 1657              		.loc 1 1157 13 is_stmt 0 view .LVU490
 1658 0004 90F82C30 		ldrb	r3, [r0, #44]	@ zero_extendqisi2
 1659 0008 D8B2     		uxtb	r0, r3
 1660              	.LVL150:
1157:Drivers/STM32H7xx_HAL_Driver/Src/stm32h7xx_hal_sdram.c ****   {
 1661              		.loc 1 1157 6 view .LVU491
 1662 000a 0228     		cmp	r0, #2
 1663 000c 05D0     		beq	.L117
1161:Drivers/STM32H7xx_HAL_Driver/Src/stm32h7xx_hal_sdram.c ****   {
 1664              		.loc 1 1161 8 is_stmt 1 view .LVU492
1161:Drivers/STM32H7xx_HAL_Driver/Src/stm32h7xx_hal_sdram.c ****   {
 1665              		.loc 1 1161 18 is_stmt 0 view .LVU493
 1666 000e 94F82C30 		ldrb	r3, [r4, #44]	@ zero_extendqisi2
 1667 0012 DBB2     		uxtb	r3, r3
1161:Drivers/STM32H7xx_HAL_Driver/Src/stm32h7xx_hal_sdram.c ****   {
 1668              		.loc 1 1161 11 view .LVU494
 1669 0014 012B     		cmp	r3, #1
 1670 0016 01D0     		beq	.L120
1174:Drivers/STM32H7xx_HAL_Driver/Src/stm32h7xx_hal_sdram.c ****   }
 1671              		.loc 1 1174 12 view .LVU495
 1672 0018 0120     		movs	r0, #1
 1673              	.LVL151:
 1674              	.L117:
1178:Drivers/STM32H7xx_HAL_Driver/Src/stm32h7xx_hal_sdram.c **** 
 1675              		.loc 1 1178 1 view .LVU496
 1676 001a 10BD     		pop	{r4, pc}
 1677              	.LVL152:
 1678              	.L120:
1164:Drivers/STM32H7xx_HAL_Driver/Src/stm32h7xx_hal_sdram.c **** 
 1679              		.loc 1 1164 5 is_stmt 1 view .LVU497
1164:Drivers/STM32H7xx_HAL_Driver/Src/stm32h7xx_hal_sdram.c **** 
 1680              		.loc 1 1164 19 is_stmt 0 view .LVU498
 1681 001c 0223     		movs	r3, #2
 1682 001e 84F82C30 		strb	r3, [r4, #44]
1167:Drivers/STM32H7xx_HAL_Driver/Src/stm32h7xx_hal_sdram.c **** 
 1683              		.loc 1 1167 5 is_stmt 1 view .LVU499
1167:Drivers/STM32H7xx_HAL_Driver/Src/stm32h7xx_hal_sdram.c **** 
 1684              		.loc 1 1167 11 is_stmt 0 view .LVU500
 1685 0022 2068     		ldr	r0, [r4]
 1686 0024 FFF7FEFF 		bl	FMC_SDRAM_SetAutoRefreshNumber
 1687              	.LVL153:
1170:Drivers/STM32H7xx_HAL_Driver/Src/stm32h7xx_hal_sdram.c ****   }
 1688              		.loc 1 1170 5 is_stmt 1 view .LVU501
1170:Drivers/STM32H7xx_HAL_Driver/Src/stm32h7xx_hal_sdram.c ****   }
 1689              		.loc 1 1170 19 is_stmt 0 view .LVU502
 1690 0028 0123     		movs	r3, #1
 1691 002a 84F82C30 		strb	r3, [r4, #44]
1177:Drivers/STM32H7xx_HAL_Driver/Src/stm32h7xx_hal_sdram.c **** }
 1692              		.loc 1 1177 3 is_stmt 1 view .LVU503
1177:Drivers/STM32H7xx_HAL_Driver/Src/stm32h7xx_hal_sdram.c **** }
ARM GAS  /tmp/ccZHMbbp.s 			page 61


 1693              		.loc 1 1177 10 is_stmt 0 view .LVU504
 1694 002e 0020     		movs	r0, #0
 1695 0030 F3E7     		b	.L117
 1696              		.cfi_endproc
 1697              	.LFE164:
 1699              		.section	.text.HAL_SDRAM_GetModeStatus,"ax",%progbits
 1700              		.align	1
 1701              		.global	HAL_SDRAM_GetModeStatus
 1702              		.syntax unified
 1703              		.thumb
 1704              		.thumb_func
 1706              	HAL_SDRAM_GetModeStatus:
 1707              	.LVL154:
 1708              	.LFB165:
1187:Drivers/STM32H7xx_HAL_Driver/Src/stm32h7xx_hal_sdram.c ****   /* Return the SDRAM memory current mode */
 1709              		.loc 1 1187 1 is_stmt 1 view -0
 1710              		.cfi_startproc
 1711              		@ args = 0, pretend = 0, frame = 0
 1712              		@ frame_needed = 0, uses_anonymous_args = 0
1187:Drivers/STM32H7xx_HAL_Driver/Src/stm32h7xx_hal_sdram.c ****   /* Return the SDRAM memory current mode */
 1713              		.loc 1 1187 1 is_stmt 0 view .LVU506
 1714 0000 08B5     		push	{r3, lr}
 1715              	.LCFI26:
 1716              		.cfi_def_cfa_offset 8
 1717              		.cfi_offset 3, -8
 1718              		.cfi_offset 14, -4
1189:Drivers/STM32H7xx_HAL_Driver/Src/stm32h7xx_hal_sdram.c **** }
 1719              		.loc 1 1189 3 is_stmt 1 view .LVU507
1189:Drivers/STM32H7xx_HAL_Driver/Src/stm32h7xx_hal_sdram.c **** }
 1720              		.loc 1 1189 11 is_stmt 0 view .LVU508
 1721 0002 4168     		ldr	r1, [r0, #4]
 1722 0004 0068     		ldr	r0, [r0]
 1723              	.LVL155:
1189:Drivers/STM32H7xx_HAL_Driver/Src/stm32h7xx_hal_sdram.c **** }
 1724              		.loc 1 1189 11 view .LVU509
 1725 0006 FFF7FEFF 		bl	FMC_SDRAM_GetModeStatus
 1726              	.LVL156:
1190:Drivers/STM32H7xx_HAL_Driver/Src/stm32h7xx_hal_sdram.c **** 
 1727              		.loc 1 1190 1 view .LVU510
 1728 000a 08BD     		pop	{r3, pc}
 1729              		.cfi_endproc
 1730              	.LFE165:
 1732              		.section	.text.HAL_SDRAM_GetState,"ax",%progbits
 1733              		.align	1
 1734              		.global	HAL_SDRAM_GetState
 1735              		.syntax unified
 1736              		.thumb
 1737              		.thumb_func
 1739              	HAL_SDRAM_GetState:
 1740              	.LVL157:
 1741              	.LFB166:
1218:Drivers/STM32H7xx_HAL_Driver/Src/stm32h7xx_hal_sdram.c ****   return hsdram->State;
 1742              		.loc 1 1218 1 is_stmt 1 view -0
 1743              		.cfi_startproc
 1744              		@ args = 0, pretend = 0, frame = 0
 1745              		@ frame_needed = 0, uses_anonymous_args = 0
 1746              		@ link register save eliminated.
ARM GAS  /tmp/ccZHMbbp.s 			page 62


1219:Drivers/STM32H7xx_HAL_Driver/Src/stm32h7xx_hal_sdram.c **** }
 1747              		.loc 1 1219 3 view .LVU512
1219:Drivers/STM32H7xx_HAL_Driver/Src/stm32h7xx_hal_sdram.c **** }
 1748              		.loc 1 1219 16 is_stmt 0 view .LVU513
 1749 0000 90F82C00 		ldrb	r0, [r0, #44]	@ zero_extendqisi2
 1750              	.LVL158:
1220:Drivers/STM32H7xx_HAL_Driver/Src/stm32h7xx_hal_sdram.c **** 
 1751              		.loc 1 1220 1 view .LVU514
 1752 0004 7047     		bx	lr
 1753              		.cfi_endproc
 1754              	.LFE166:
 1756              		.text
 1757              	.Letext0:
 1758              		.file 2 "/usr/lib/gcc/arm-none-eabi/13.2.1/include/stdint.h"
 1759              		.file 3 "Drivers/CMSIS/Device/ST/STM32H7xx/Include/stm32h743xx.h"
 1760              		.file 4 "Drivers/STM32H7xx_HAL_Driver/Inc/stm32h7xx_hal_def.h"
 1761              		.file 5 "Drivers/STM32H7xx_HAL_Driver/Inc/stm32h7xx_hal_mdma.h"
 1762              		.file 6 "Drivers/STM32H7xx_HAL_Driver/Inc/stm32h7xx_ll_fmc.h"
 1763              		.file 7 "Drivers/STM32H7xx_HAL_Driver/Inc/stm32h7xx_hal_sdram.h"
ARM GAS  /tmp/ccZHMbbp.s 			page 63

